; Listing generated by Microsoft (R) Optimizing Compiler Version 19.44.35225.0 

	TITLE	C:\IAGOS\server\v18\Source\Output\DatabaseServer\Release\lord.obj
	.686P
	.XMM
	include listing.inc
	.model	flat

INCLUDELIB LIBCMT
INCLUDELIB OLDNAMES

PUBLIC	?__empty_global_delete@@YAXPAX@Z		; __empty_global_delete
PUBLIC	?__empty_global_delete@@YAXPAXI@Z		; __empty_global_delete
PUBLIC	___local_stdio_printf_options
PUBLIC	?AtlThrowImpl@ATL@@YGXJ@Z			; ATL::AtlThrowImpl
PUBLIC	??0exception@std@@QAE@ABV01@@Z			; std::exception::exception
PUBLIC	??1exception@std@@UAE@XZ			; std::exception::~exception
PUBLIC	?what@exception@std@@UBEPBDXZ			; std::exception::what
PUBLIC	??_Gexception@std@@UAEPAXI@Z			; std::exception::`scalar deleting destructor'
PUBLIC	??0bad_alloc@std@@QAE@ABV01@@Z			; std::bad_alloc::bad_alloc
PUBLIC	??_Gbad_alloc@std@@UAEPAXI@Z			; std::bad_alloc::`scalar deleting destructor'
PUBLIC	??0bad_array_new_length@std@@QAE@XZ		; std::bad_array_new_length::bad_array_new_length
PUBLIC	??1bad_array_new_length@std@@UAE@XZ		; std::bad_array_new_length::~bad_array_new_length
PUBLIC	??0bad_array_new_length@std@@QAE@ABV01@@Z	; std::bad_array_new_length::bad_array_new_length
PUBLIC	??_Gbad_array_new_length@std@@UAEPAXI@Z		; std::bad_array_new_length::`scalar deleting destructor'
PUBLIC	?_Throw_bad_array_new_length@std@@YAXXZ		; std::_Throw_bad_array_new_length
PUBLIC	??$_Allocate_manually_vector_aligned@U_Default_allocate_traits@std@@@std@@YAPAXI@Z ; std::_Allocate_manually_vector_aligned<std::_Default_allocate_traits>
PUBLIC	??1_Ref_count_base@std@@UAE@XZ			; std::_Ref_count_base::~_Ref_count_base
PUBLIC	?_Get_deleter@_Ref_count_base@std@@UBEPAXABVtype_info@@@Z ; std::_Ref_count_base::_Get_deleter
PUBLIC	??0CCandidate@@QAE@XZ				; CCandidate::CCandidate
PUBLIC	??0CCandidate@@QAE@K_JPBDHJ@Z			; CCandidate::CCandidate
PUBLIC	??1CCandidate@@QAE@XZ				; CCandidate::~CCandidate
PUBLIC	?AddDeposit@CCandidate@@QAE_J_J@Z		; CCandidate::AddDeposit
PUBLIC	?Serialize@CCandidate@@QAEXAAVCAr@@@Z		; CCandidate::Serialize
PUBLIC	??0IElection@@IAE@PAVCLord@@@Z			; IElection::IElection
PUBLIC	??1IElection@@UAE@XZ				; IElection::~IElection
PUBLIC	?AddCandidate@IElection@@QAEPAVCCandidate@@K_JPBDHJ@Z ; IElection::AddCandidate
PUBLIC	?AddCandidate@IElection@@QAEPAVCCandidate@@PAV2@@Z ; IElection::AddCandidate
PUBLIC	?GetCandidate@IElection@@QAEPAVCCandidate@@K@Z	; IElection::GetCandidate
PUBLIC	?GetOrder@IElection@@QAEHK@Z			; IElection::GetOrder
PUBLIC	?SetProperty@IElection@@QAEXHHJJ@Z		; IElection::SetProperty
PUBLIC	?Serialize@IElection@@QAEXAAVCAr@@@Z		; IElection::Serialize
PUBLIC	?GetPropertyState@IElection@@QAE?AW4ELECTION_STATE@1@XZ ; IElection::GetPropertyState
PUBLIC	?PrepareNext@IElection@@QAEXXZ			; IElection::PrepareNext
PUBLIC	?DoReturnDeposit@IElection@@MAEXXZ		; IElection::DoReturnDeposit
PUBLIC	?DoTestAddDeposit@IElection@@MAEHK_JJ@Z		; IElection::DoTestAddDeposit
PUBLIC	?DoAddDepositComplete@IElection@@MAEXK_JJ@Z	; IElection::DoAddDepositComplete
PUBLIC	?DoTestSetPledge@IElection@@MAEHKPBD@Z		; IElection::DoTestSetPledge
PUBLIC	?DoSetPlegeComplete@IElection@@MAEXXZ		; IElection::DoSetPlegeComplete
PUBLIC	?DoTestIncVote@IElection@@MAEHKK@Z		; IElection::DoTestIncVote
PUBLIC	?DoIncVoteComplete@IElection@@MAEXXZ		; IElection::DoIncVoteComplete
PUBLIC	?DoEndVoteComplete@IElection@@MAEXXZ		; IElection::DoEndVoteComplete
PUBLIC	?BeginCandidacy@IElection@@QAEXXZ		; IElection::BeginCandidacy
PUBLIC	?BeginVote@IElection@@QAEXH@Z			; IElection::BeginVote
PUBLIC	?EndVote@IElection@@QAEXK@Z			; IElection::EndVote
PUBLIC	?AddDeposit@IElection@@QAEXK_JJ@Z		; IElection::AddDeposit
PUBLIC	?SetPledge@IElection@@QAEXKPBD@Z		; IElection::SetPledge
PUBLIC	?IncVote@IElection@@QAEXKK@Z			; IElection::IncVote
PUBLIC	?HasPledge@IElection@@QAEHK@Z			; IElection::HasPledge
PUBLIC	?GetVote@IElection@@QAEHXZ			; IElection::GetVote
PUBLIC	?GetResult@IElection@@QAEKXZ			; IElection::GetResult
PUBLIC	?GetNextBegin@IElection@@QAEJXZ			; IElection::GetNextBegin
PUBLIC	?SetNextBegin@IElection@@IAEXXZ			; IElection::SetNextBegin
PUBLIC	?SortDeposit@IElection@@IAEXXZ			; IElection::SortDeposit
PUBLIC	?SortVote@IElection@@IAEXXZ			; IElection::SortVote
PUBLIC	??1?$vector@V?$shared_ptr@VCCandidate@@@std@@V?$allocator@V?$shared_ptr@VCCandidate@@@std@@@2@@std@@QAE@XZ ; std::vector<std::shared_ptr<CCandidate>,std::allocator<std::shared_ptr<CCandidate> > >::~vector<std::shared_ptr<CCandidate>,std::allocator<std::shared_ptr<CCandidate> > >
PUBLIC	?_Xlength@?$vector@V?$shared_ptr@VCCandidate@@@std@@V?$allocator@V?$shared_ptr@VCCandidate@@@std@@@2@@std@@CAXXZ ; std::vector<std::shared_ptr<CCandidate>,std::allocator<std::shared_ptr<CCandidate> > >::_Xlength
PUBLIC	??1?$vector@MV?$allocator@M@std@@@std@@QAE@XZ	; std::vector<float,std::allocator<float> >::~vector<float,std::allocator<float> >
PUBLIC	?_Xlength@?$vector@MV?$allocator@M@std@@@std@@CAXXZ ; std::vector<float,std::allocator<float> >::_Xlength
PUBLIC	??0?$vector@HV?$allocator@H@std@@@std@@QAE@XZ	; std::vector<int,std::allocator<int> >::vector<int,std::allocator<int> >
PUBLIC	??1?$vector@HV?$allocator@H@std@@@std@@QAE@XZ	; std::vector<int,std::allocator<int> >::~vector<int,std::allocator<int> >
PUBLIC	?_Xlength@?$vector@HV?$allocator@H@std@@@std@@CAXXZ ; std::vector<int,std::allocator<int> >::_Xlength
PUBLIC	?Serialize@sProperty@IElection@@QAEXAAVCAr@@@Z	; IElection::sProperty::Serialize
PUBLIC	??1?$shared_ptr@VCCandidate@@@std@@QAE@XZ	; std::shared_ptr<CCandidate>::~shared_ptr<CCandidate>
PUBLIC	??4?$shared_ptr@VCCandidate@@@std@@QAEAAV01@$$QAV01@@Z ; std::shared_ptr<CCandidate>::operator=
PUBLIC	??0CLEComponent@@QAE@XZ				; CLEComponent::CLEComponent
PUBLIC	??0CLEComponent@@QAE@HKMM@Z			; CLEComponent::CLEComponent
PUBLIC	??1CLEComponent@@UAE@XZ				; CLEComponent::~CLEComponent
PUBLIC	?Serialize@CLEComponent@@QAEXAAVCAr@@@Z		; CLEComponent::Serialize
PUBLIC	?Decrement@CLEComponent@@QAEHXZ			; CLEComponent::Decrement
PUBLIC	??_GCLEComponent@@UAEPAXI@Z			; CLEComponent::`scalar deleting destructor'
PUBLIC	??0ILordEvent@@IAE@PAVCLord@@@Z			; ILordEvent::ILordEvent
PUBLIC	??1ILordEvent@@UAE@XZ				; ILordEvent::~ILordEvent
PUBLIC	?Clear@ILordEvent@@QAEXXZ			; ILordEvent::Clear
PUBLIC	?AddComponent@ILordEvent@@QAEXPAVCLEComponent@@H@Z ; ILordEvent::AddComponent
PUBLIC	?AddComponent@ILordEvent@@QAEXKHH@Z		; ILordEvent::AddComponent
PUBLIC	?Initialize@ILordEvent@@QAEXXZ			; ILordEvent::Initialize
PUBLIC	?GetComponent@ILordEvent@@QAEPAVCLEComponent@@K@Z ; ILordEvent::GetComponent
PUBLIC	?GetComponentAt@ILordEvent@@QAEPAVCLEComponent@@H@Z ; ILordEvent::GetComponentAt
PUBLIC	?GetCost@ILordEvent@@QAE_JHH@Z			; ILordEvent::GetCost
PUBLIC	?GetEFactor@ILordEvent@@QAEMH@Z			; ILordEvent::GetEFactor
PUBLIC	?GetIFactor@ILordEvent@@QAEMH@Z			; ILordEvent::GetIFactor
PUBLIC	?GetEFactor@ILordEvent@@QAEMXZ			; ILordEvent::GetEFactor
PUBLIC	?GetIFactor@ILordEvent@@QAEMXZ			; ILordEvent::GetIFactor
PUBLIC	?Serialize@ILordEvent@@QAEXAAVCAr@@@Z		; ILordEvent::Serialize
PUBLIC	?Initialize@ILordEvent@@QAEHPBD@Z		; ILordEvent::Initialize
PUBLIC	?SerializeTick@ILordEvent@@QAEXAAVCAr@@@Z	; ILordEvent::SerializeTick
PUBLIC	?EraseExpiredComponents@ILordEvent@@QAEXXZ	; ILordEvent::EraseExpiredComponents
PUBLIC	??1?$vector@PAVCLEComponent@@V?$allocator@PAVCLEComponent@@@std@@@std@@QAE@XZ ; std::vector<CLEComponent *,std::allocator<CLEComponent *> >::~vector<CLEComponent *,std::allocator<CLEComponent *> >
PUBLIC	?_Xlength@?$vector@PAVCLEComponent@@V?$allocator@PAVCLEComponent@@@std@@@std@@CAXXZ ; std::vector<CLEComponent *,std::allocator<CLEComponent *> >::_Xlength
PUBLIC	?Remove@ILordEvent@@AAE?AV?$_Vector_iterator@V?$_Vector_val@U?$_Simple_types@PAVCLEComponent@@@std@@@std@@@std@@V23@@Z ; ILordEvent::Remove
PUBLIC	??1?$vector@U?$pair@M_J@std@@V?$allocator@U?$pair@M_J@std@@@2@@std@@QAE@XZ ; std::vector<std::pair<float,__int64>,std::allocator<std::pair<float,__int64> > >::~vector<std::pair<float,__int64>,std::allocator<std::pair<float,__int64> > >
PUBLIC	?_Xlength@?$vector@U?$pair@M_J@std@@V?$allocator@U?$pair@M_J@std@@@2@@std@@CAXXZ ; std::vector<std::pair<float,__int64>,std::allocator<std::pair<float,__int64> > >::_Xlength
PUBLIC	??_GILordEvent@@UAEPAXI@Z			; ILordEvent::`scalar deleting destructor'
PUBLIC	??1CLord@@QAE@XZ				; CLord::~CLord
PUBLIC	?Serialize@CLord@@QAEXAAVCAr@@@Z		; CLord::Serialize
PUBLIC	?GetController@CLord@@UAEPAVCLController@@XZ	; CLord::GetController
PUBLIC	??0CLord@@IAE@XZ				; CLord::CLord
PUBLIC	??$?6H@CAr@@QAEAAV0@ABH@Z			; CAr::operator<<<int>
PUBLIC	??$?5H@CAr@@QAEAAV0@AAH@Z			; CAr::operator>><int>
PUBLIC	?OutputDebugStringA@election@@YAXPBDZZ		; election::OutputDebugStringA
PUBLIC	??$?6K@CAr@@QAEAAV0@ABK@Z			; CAr::operator<<<unsigned long>
PUBLIC	??$?6_J@CAr@@QAEAAV0@AB_J@Z			; CAr::operator<<<__int64>
PUBLIC	??$?6J@CAr@@QAEAAV0@ABJ@Z			; CAr::operator<<<long>
PUBLIC	??$?5K@CAr@@QAEAAV0@AAK@Z			; CAr::operator>><unsigned long>
PUBLIC	??$?5_J@CAr@@QAEAAV0@AA_J@Z			; CAr::operator>><__int64>
PUBLIC	??$?5J@CAr@@QAEAAV0@AAJ@Z			; CAr::operator>><long>
PUBLIC	??$?6M@CAr@@QAEAAV0@ABM@Z			; CAr::operator<<<float>
PUBLIC	??$?6I@CAr@@QAEAAV0@ABI@Z			; CAr::operator<<<unsigned int>
PUBLIC	??$?5M@CAr@@QAEAAV0@AAM@Z			; CAr::operator>><float>
PUBLIC	??$?5I@CAr@@QAEAAV0@AAI@Z			; CAr::operator>><unsigned int>
PUBLIC	??1?$_Temporary_owner@VCCandidate@@@std@@QAE@XZ	; std::_Temporary_owner<CCandidate>::~_Temporary_owner<CCandidate>
PUBLIC	?_Destroy@?$_Ref_count@VCCandidate@@@std@@EAEXXZ ; std::_Ref_count<CCandidate>::_Destroy
PUBLIC	?_Delete_this@?$_Ref_count@VCCandidate@@@std@@EAEXXZ ; std::_Ref_count<CCandidate>::_Delete_this
PUBLIC	??_G?$_Ref_count@VCCandidate@@@std@@UAEPAXI@Z	; std::_Ref_count<CCandidate>::`scalar deleting destructor'
PUBLIC	??$_Sort_unchecked@PAV?$shared_ptr@VCCandidate@@@std@@UDepositCompare@@@std@@YAXPAV?$shared_ptr@VCCandidate@@@0@0HUDepositCompare@@@Z ; std::_Sort_unchecked<std::shared_ptr<CCandidate> *,DepositCompare>
PUBLIC	??$_Sort_unchecked@PAV?$shared_ptr@VCCandidate@@@std@@UVoteCompare@@@std@@YAXPAV?$shared_ptr@VCCandidate@@@0@0HUVoteCompare@@@Z ; std::_Sort_unchecked<std::shared_ptr<CCandidate> *,VoteCompare>
PUBLIC	??$_Destroy_range@V?$allocator@V?$shared_ptr@VCCandidate@@@std@@@std@@@std@@YAXPAV?$shared_ptr@VCCandidate@@@0@QAV10@AAV?$allocator@V?$shared_ptr@VCCandidate@@@std@@@0@@Z ; std::_Destroy_range<std::allocator<std::shared_ptr<CCandidate> > >
PUBLIC	??$_Insertion_sort_unchecked@PAV?$shared_ptr@VCCandidate@@@std@@UDepositCompare@@@std@@YAPAV?$shared_ptr@VCCandidate@@@0@QAV10@0UDepositCompare@@@Z ; std::_Insertion_sort_unchecked<std::shared_ptr<CCandidate> *,DepositCompare>
PUBLIC	??$_Partition_by_median_guess_unchecked@PAV?$shared_ptr@VCCandidate@@@std@@UDepositCompare@@@std@@YA?AU?$pair@PAV?$shared_ptr@VCCandidate@@@std@@PAV12@@0@PAV?$shared_ptr@VCCandidate@@@0@0UDepositCompare@@@Z ; std::_Partition_by_median_guess_unchecked<std::shared_ptr<CCandidate> *,DepositCompare>
PUBLIC	??$_Insertion_sort_unchecked@PAV?$shared_ptr@VCCandidate@@@std@@UVoteCompare@@@std@@YAPAV?$shared_ptr@VCCandidate@@@0@QAV10@0UVoteCompare@@@Z ; std::_Insertion_sort_unchecked<std::shared_ptr<CCandidate> *,VoteCompare>
PUBLIC	??$_Partition_by_median_guess_unchecked@PAV?$shared_ptr@VCCandidate@@@std@@UVoteCompare@@@std@@YA?AU?$pair@PAV?$shared_ptr@VCCandidate@@@std@@PAV12@@0@PAV?$shared_ptr@VCCandidate@@@0@0UVoteCompare@@@Z ; std::_Partition_by_median_guess_unchecked<std::shared_ptr<CCandidate> *,VoteCompare>
PUBLIC	??$_Copy_memmove@PAPAVCLEComponent@@PAPAV1@@std@@YAPAPAVCLEComponent@@PAPAV1@00@Z ; std::_Copy_memmove<CLEComponent * *,CLEComponent * *>
PUBLIC	??$_Emplace_reallocate@ABQAVCLEComponent@@@?$vector@PAVCLEComponent@@V?$allocator@PAVCLEComponent@@@std@@@std@@AAEPAPAVCLEComponent@@QAPAV2@ABQAV2@@Z ; std::vector<CLEComponent *,std::allocator<CLEComponent *> >::_Emplace_reallocate<CLEComponent * const &>
PUBLIC	??$_Emplace_reallocate@U?$pair@M_J@std@@@?$vector@U?$pair@M_J@std@@V?$allocator@U?$pair@M_J@std@@@2@@std@@AAEPAU?$pair@M_J@1@QAU21@$$QAU21@@Z ; std::vector<std::pair<float,__int64>,std::allocator<std::pair<float,__int64> > >::_Emplace_reallocate<std::pair<float,__int64> >
PUBLIC	??$_Emplace_reallocate@ABH@?$vector@HV?$allocator@H@std@@@std@@AAEPAHQAHABH@Z ; std::vector<int,std::allocator<int> >::_Emplace_reallocate<int const &>
PUBLIC	??$_Emplace_reallocate@ABM@?$vector@MV?$allocator@M@std@@@std@@AAEPAMQAMABM@Z ; std::vector<float,std::allocator<float> >::_Emplace_reallocate<float const &>
PUBLIC	??$_Emplace_reallocate@V?$shared_ptr@VCCandidate@@@std@@@?$vector@V?$shared_ptr@VCCandidate@@@std@@V?$allocator@V?$shared_ptr@VCCandidate@@@std@@@2@@std@@AAEPAV?$shared_ptr@VCCandidate@@@1@QAV21@$$QAV21@@Z ; std::vector<std::shared_ptr<CCandidate>,std::allocator<std::shared_ptr<CCandidate> > >::_Emplace_reallocate<std::shared_ptr<CCandidate> >
PUBLIC	??$_Pop_heap_hole_by_index@PAV?$shared_ptr@VCCandidate@@@std@@V12@UDepositCompare@@@std@@YAXPAV?$shared_ptr@VCCandidate@@@0@HH$$QAV10@UDepositCompare@@@Z ; std::_Pop_heap_hole_by_index<std::shared_ptr<CCandidate> *,std::shared_ptr<CCandidate>,DepositCompare>
PUBLIC	??$swap@VCCandidate@@@std@@YAXAAV?$shared_ptr@VCCandidate@@@0@0@Z ; std::swap<CCandidate>
PUBLIC	??$_Pop_heap_hole_by_index@PAV?$shared_ptr@VCCandidate@@@std@@V12@UVoteCompare@@@std@@YAXPAV?$shared_ptr@VCCandidate@@@0@HH$$QAV10@UVoteCompare@@@Z ; std::_Pop_heap_hole_by_index<std::shared_ptr<CCandidate> *,std::shared_ptr<CCandidate>,VoteCompare>
PUBLIC	??$_Copy_memmove_tail@PAPAVCLEComponent@@@std@@YAPAPAVCLEComponent@@QBDQAPAV1@II@Z ; std::_Copy_memmove_tail<CLEComponent * *>
PUBLIC	??$_Uninitialized_move@PAV?$shared_ptr@VCCandidate@@@std@@V?$allocator@V?$shared_ptr@VCCandidate@@@std@@@2@@std@@YAPAV?$shared_ptr@VCCandidate@@@0@QAV10@0PAV10@AAV?$allocator@V?$shared_ptr@VCCandidate@@@std@@@0@@Z ; std::_Uninitialized_move<std::shared_ptr<CCandidate> *,std::allocator<std::shared_ptr<CCandidate> > >
PUBLIC	??$_Med3_unchecked@PAV?$shared_ptr@VCCandidate@@@std@@UDepositCompare@@@std@@YAXPAV?$shared_ptr@VCCandidate@@@0@00UDepositCompare@@@Z ; std::_Med3_unchecked<std::shared_ptr<CCandidate> *,DepositCompare>
PUBLIC	??$_Med3_unchecked@PAV?$shared_ptr@VCCandidate@@@std@@UVoteCompare@@@std@@YAXPAV?$shared_ptr@VCCandidate@@@0@00UVoteCompare@@@Z ; std::_Med3_unchecked<std::shared_ptr<CCandidate> *,VoteCompare>
PUBLIC	??$_Copy_memmove@PAU?$pair@M_J@std@@PAU12@@std@@YAPAU?$pair@M_J@0@PAU10@00@Z ; std::_Copy_memmove<std::pair<float,__int64> *,std::pair<float,__int64> *>
PUBLIC	??$_Copy_memmove@PAHPAH@std@@YAPAHPAH00@Z	; std::_Copy_memmove<int *,int *>
PUBLIC	??$_Copy_memmove@PAMPAM@std@@YAPAMPAM00@Z	; std::_Copy_memmove<float *,float *>
PUBLIC	??$_Copy_memmove_tail@PAU?$pair@M_J@std@@@std@@YAPAU?$pair@M_J@0@QBDQAU10@II@Z ; std::_Copy_memmove_tail<std::pair<float,__int64> *>
PUBLIC	??$_Copy_memmove_tail@PAH@std@@YAPAHQBDQAHII@Z	; std::_Copy_memmove_tail<int *>
PUBLIC	??$_Copy_memmove_tail@PAM@std@@YAPAMQBDQAMII@Z	; std::_Copy_memmove_tail<float *>
PUBLIC	?_OptionsStorage@?1??__local_stdio_printf_options@@9@4_KA ; `__local_stdio_printf_options'::`2'::_OptionsStorage
PUBLIC	??_C@_00CNPNBAHC@@				; `string'
PUBLIC	??_7exception@std@@6B@				; std::exception::`vftable'
PUBLIC	??_C@_0BC@EOODALEL@Unknown?5exception@		; `string'
PUBLIC	??_7bad_alloc@std@@6B@				; std::bad_alloc::`vftable'
PUBLIC	??_7bad_array_new_length@std@@6B@		; std::bad_array_new_length::`vftable'
PUBLIC	??_C@_0BF@KINCDENJ@bad?5array?5new?5length@	; `string'
PUBLIC	??_R0?AVexception@std@@@8			; std::exception `RTTI Type Descriptor'
PUBLIC	__CT??_R0?AVexception@std@@@8??0exception@std@@QAE@ABV01@@Z12
PUBLIC	__TI3?AVbad_array_new_length@std@@
PUBLIC	__CTA3?AVbad_array_new_length@std@@
PUBLIC	??_R0?AVbad_array_new_length@std@@@8		; std::bad_array_new_length `RTTI Type Descriptor'
PUBLIC	__CT??_R0?AVbad_array_new_length@std@@@8??0bad_array_new_length@std@@QAE@ABV01@@Z12
PUBLIC	??_R0?AVbad_alloc@std@@@8			; std::bad_alloc `RTTI Type Descriptor'
PUBLIC	__CT??_R0?AVbad_alloc@std@@@8??0bad_alloc@std@@QAE@ABV01@@Z12
PUBLIC	??_C@_0BA@FOIKENOD@vector?5too?5long@		; `string'
PUBLIC	??_R4exception@std@@6B@				; std::exception::`RTTI Complete Object Locator'
PUBLIC	??_R3exception@std@@8				; std::exception::`RTTI Class Hierarchy Descriptor'
PUBLIC	??_R2exception@std@@8				; std::exception::`RTTI Base Class Array'
PUBLIC	??_R1A@?0A@EA@exception@std@@8			; std::exception::`RTTI Base Class Descriptor at (0,-1,0,64)'
PUBLIC	??_R4bad_array_new_length@std@@6B@		; std::bad_array_new_length::`RTTI Complete Object Locator'
PUBLIC	??_R3bad_array_new_length@std@@8		; std::bad_array_new_length::`RTTI Class Hierarchy Descriptor'
PUBLIC	??_R2bad_array_new_length@std@@8		; std::bad_array_new_length::`RTTI Base Class Array'
PUBLIC	??_R1A@?0A@EA@bad_array_new_length@std@@8	; std::bad_array_new_length::`RTTI Base Class Descriptor at (0,-1,0,64)'
PUBLIC	??_R1A@?0A@EA@bad_alloc@std@@8			; std::bad_alloc::`RTTI Base Class Descriptor at (0,-1,0,64)'
PUBLIC	??_R3bad_alloc@std@@8				; std::bad_alloc::`RTTI Class Hierarchy Descriptor'
PUBLIC	??_R2bad_alloc@std@@8				; std::bad_alloc::`RTTI Base Class Array'
PUBLIC	??_R4bad_alloc@std@@6B@				; std::bad_alloc::`RTTI Complete Object Locator'
PUBLIC	??_7IElection@@6B@				; IElection::`vftable'
PUBLIC	??_7CLEComponent@@6B@				; CLEComponent::`vftable'
PUBLIC	??_7ILordEvent@@6B@				; ILordEvent::`vftable'
PUBLIC	??_7CLord@@6B@					; CLord::`vftable'
PUBLIC	??_C@_0BE@FFJMPPDN@IElection?4BeginVote@	; `string'
PUBLIC	??_C@_0BJ@OADJGDLJ@IElection?3?3EndVote?$CI?5?$CFd?5?$CJ@ ; `string'
PUBLIC	??_C@_0CJ@OGFOFGHI@IElection?3?3AddDeposit?$CI?5?$CF07d?0?5?$CFI@ ; `string'
PUBLIC	??_C@_0CB@MMIDMHIF@IElection?3?3SetPledge?$CI?5?$CF07d?0?5?$CFs?5@ ; `string'
PUBLIC	??_C@_0CB@HABGPKEI@IElection?3?3IncVote?$CI?5?$CF07d?0?5?$CF07d?5@ ; `string'
PUBLIC	??_C@_03KHJOGHMM@exp@				; `string'
PUBLIC	??_C@_04NHONDGDE@item@				; `string'
PUBLIC	??_C@_0BN@IJOANHHL@iEEvent?5?$DN?$DN?50?5?$CG?$CG?5iIEvent?5?$DN?$DN?50@ ; `string'
PUBLIC	??_C@_0DN@FBKHNNAO@iEEvent?5?$DO?$DN?5m_vEFactor?4size?$CI?$CJ?5?$HM?$HM@ ; `string'
PUBLIC	??_7?$_Ref_count@VCCandidate@@@std@@6B@		; std::_Ref_count<CCandidate>::`vftable'
PUBLIC	??_R0?AV_Ref_count_base@std@@@8			; std::_Ref_count_base `RTTI Type Descriptor'
PUBLIC	??_R3_Ref_count_base@std@@8			; std::_Ref_count_base::`RTTI Class Hierarchy Descriptor'
PUBLIC	??_R2_Ref_count_base@std@@8			; std::_Ref_count_base::`RTTI Base Class Array'
PUBLIC	??_R1A@?0A@EA@_Ref_count_base@std@@8		; std::_Ref_count_base::`RTTI Base Class Descriptor at (0,-1,0,64)'
PUBLIC	??_R4CLord@@6B@					; CLord::`RTTI Complete Object Locator'
PUBLIC	??_R0?AVCLord@@@8				; CLord `RTTI Type Descriptor'
PUBLIC	??_R3CLord@@8					; CLord::`RTTI Class Hierarchy Descriptor'
PUBLIC	??_R2CLord@@8					; CLord::`RTTI Base Class Array'
PUBLIC	??_R1A@?0A@EA@CLord@@8				; CLord::`RTTI Base Class Descriptor at (0,-1,0,64)'
PUBLIC	??_R4IElection@@6B@				; IElection::`RTTI Complete Object Locator'
PUBLIC	??_R0?AVIElection@@@8				; IElection `RTTI Type Descriptor'
PUBLIC	??_R3IElection@@8				; IElection::`RTTI Class Hierarchy Descriptor'
PUBLIC	??_R2IElection@@8				; IElection::`RTTI Base Class Array'
PUBLIC	??_R1A@?0A@EA@IElection@@8			; IElection::`RTTI Base Class Descriptor at (0,-1,0,64)'
PUBLIC	??_R4CLEComponent@@6B@				; CLEComponent::`RTTI Complete Object Locator'
PUBLIC	??_R0?AVCLEComponent@@@8			; CLEComponent `RTTI Type Descriptor'
PUBLIC	??_R3CLEComponent@@8				; CLEComponent::`RTTI Class Hierarchy Descriptor'
PUBLIC	??_R2CLEComponent@@8				; CLEComponent::`RTTI Base Class Array'
PUBLIC	??_R1A@?0A@EA@CLEComponent@@8			; CLEComponent::`RTTI Base Class Descriptor at (0,-1,0,64)'
PUBLIC	??_R4ILordEvent@@6B@				; ILordEvent::`RTTI Complete Object Locator'
PUBLIC	??_R0?AVILordEvent@@@8				; ILordEvent `RTTI Type Descriptor'
PUBLIC	??_R3ILordEvent@@8				; ILordEvent::`RTTI Class Hierarchy Descriptor'
PUBLIC	??_R2ILordEvent@@8				; ILordEvent::`RTTI Base Class Array'
PUBLIC	??_R1A@?0A@EA@ILordEvent@@8			; ILordEvent::`RTTI Base Class Descriptor at (0,-1,0,64)'
PUBLIC	??_R4?$_Ref_count@VCCandidate@@@std@@6B@	; std::_Ref_count<CCandidate>::`RTTI Complete Object Locator'
PUBLIC	??_R0?AV?$_Ref_count@VCCandidate@@@std@@@8	; std::_Ref_count<CCandidate> `RTTI Type Descriptor'
PUBLIC	??_R3?$_Ref_count@VCCandidate@@@std@@8		; std::_Ref_count<CCandidate>::`RTTI Class Hierarchy Descriptor'
PUBLIC	??_R2?$_Ref_count@VCCandidate@@@std@@8		; std::_Ref_count<CCandidate>::`RTTI Base Class Array'
PUBLIC	??_R1A@?0A@EA@?$_Ref_count@VCCandidate@@@std@@8	; std::_Ref_count<CCandidate>::`RTTI Base Class Descriptor at (0,-1,0,64)'
PUBLIC	__real@3f800000
EXTRN	??_L@YGXPAXIIP6EX0@Z1@Z:PROC			; `eh vector constructor iterator'
EXTRN	??_M@YGXPAXIIP6EX0@Z@Z:PROC			; `eh vector destructor iterator'
EXTRN	__purecall:PROC
EXTRN	??2@YAPAXI@Z:PROC				; operator new
EXTRN	??3@YAXPAXI@Z:PROC				; operator delete
EXTRN	___std_terminate:PROC
EXTRN	__invoke_watson:PROC
EXTRN	__imp__OutputDebugStringA@4:PROC
EXTRN	__imp__lstrcpyA@8:PROC
EXTRN	__imp__lstrlenA@4:PROC
EXTRN	__mbscmp:PROC
EXTRN	___stdio_common_vsprintf:PROC
EXTRN	__localtime64_s:PROC
EXTRN	__mktime64:PROC
EXTRN	__time32:PROC
EXTRN	__time64:PROC
EXTRN	?AfxThrowMemoryException@@YGXXZ:PROC		; AfxThrowMemoryException
EXTRN	?AfxThrowOleException@@YGXJ@Z:PROC		; AfxThrowOleException
EXTRN	?_Xlength_error@std@@YAXPBD@Z:PROC		; std::_Xlength_error
EXTRN	___std_exception_copy:PROC
EXTRN	___std_exception_destroy:PROC
EXTRN	??_Eexception@std@@UAEPAXI@Z:PROC		; std::exception::`vector deleting destructor'
EXTRN	??_Ebad_alloc@std@@UAEPAXI@Z:PROC		; std::bad_alloc::`vector deleting destructor'
EXTRN	??_Ebad_array_new_length@std@@UAEPAXI@Z:PROC	; std::bad_array_new_length::`vector deleting destructor'
EXTRN	?Error@@YAPBDPBDZZ:PROC				; Error
EXTRN	?GetInt64@CScanner@@QAE_JH@Z:PROC		; CScanner::GetInt64
EXTRN	?GetFloat@CScanner@@QAEMH@Z:PROC		; CScanner::GetFloat
EXTRN	??0CScript@@QAE@H@Z:PROC			; CScript::CScript
EXTRN	??1CScript@@UAE@XZ:PROC				; CScript::~CScript
EXTRN	?Load@CScript@@QAEHPBDHH@Z:PROC			; CScript::Load
EXTRN	?GetToken@CScript@@UAEHH@Z:PROC			; CScript::GetToken
EXTRN	?CheckBuf@CAr@@QAEXI@Z:PROC			; CAr::CheckBuf
EXTRN	?WriteString@CAr@@QAEXPBD@Z:PROC		; CAr::WriteString
EXTRN	?ReadString@CAr@@QAEPADPADH@Z:PROC		; CAr::ReadString
EXTRN	?Reset@CLordSkill@@QAEXXZ:PROC			; CLordSkill::Reset
EXTRN	?SerializeTick@CLordSkill@@QAEXAAVCAr@@@Z:PROC	; CLordSkill::SerializeTick
EXTRN	??_ECLEComponent@@UAEPAXI@Z:PROC		; CLEComponent::`vector deleting destructor'
EXTRN	??_EILordEvent@@UAEPAXI@Z:PROC			; ILordEvent::`vector deleting destructor'
EXTRN	??_E?$_Ref_count@VCCandidate@@@std@@UAEPAXI@Z:PROC ; std::_Ref_count<CCandidate>::`vector deleting destructor'
EXTRN	@__security_check_cookie@4:PROC
EXTRN	__CxxThrowException@8:PROC
EXTRN	___CxxFrameHandler3:PROC
EXTRN	__allmul:PROC
EXTRN	__chkstk:PROC
EXTRN	_memmove:PROC
EXTRN	_memset:PROC
EXTRN	??_7type_info@@6B@:QWORD			; type_info::`vftable'
EXTRN	___security_cookie:DWORD
EXTRN	__fltused:DWORD
;	COMDAT ?_OptionsStorage@?1??__local_stdio_printf_options@@9@4_KA
_BSS	SEGMENT
?_OptionsStorage@?1??__local_stdio_printf_options@@9@4_KA DQ 01H DUP (?) ; `__local_stdio_printf_options'::`2'::_OptionsStorage
_BSS	ENDS
;	COMDAT __real@3f800000
CONST	SEGMENT
__real@3f800000 DD 03f800000r			; 1
CONST	ENDS
;	COMDAT ??_R1A@?0A@EA@?$_Ref_count@VCCandidate@@@std@@8
rdata$r	SEGMENT
??_R1A@?0A@EA@?$_Ref_count@VCCandidate@@@std@@8 DD FLAT:??_R0?AV?$_Ref_count@VCCandidate@@@std@@@8 ; std::_Ref_count<CCandidate>::`RTTI Base Class Descriptor at (0,-1,0,64)'
	DD	01H
	DD	00H
	DD	0ffffffffH
	DD	00H
	DD	040H
	DD	FLAT:??_R3?$_Ref_count@VCCandidate@@@std@@8
rdata$r	ENDS
;	COMDAT ??_R2?$_Ref_count@VCCandidate@@@std@@8
rdata$r	SEGMENT
??_R2?$_Ref_count@VCCandidate@@@std@@8 DD FLAT:??_R1A@?0A@EA@?$_Ref_count@VCCandidate@@@std@@8 ; std::_Ref_count<CCandidate>::`RTTI Base Class Array'
	DD	FLAT:??_R1A@?0A@EA@_Ref_count_base@std@@8
rdata$r	ENDS
;	COMDAT ??_R3?$_Ref_count@VCCandidate@@@std@@8
rdata$r	SEGMENT
??_R3?$_Ref_count@VCCandidate@@@std@@8 DD 00H		; std::_Ref_count<CCandidate>::`RTTI Class Hierarchy Descriptor'
	DD	00H
	DD	02H
	DD	FLAT:??_R2?$_Ref_count@VCCandidate@@@std@@8
rdata$r	ENDS
;	COMDAT ??_R0?AV?$_Ref_count@VCCandidate@@@std@@@8
data$rs	SEGMENT
??_R0?AV?$_Ref_count@VCCandidate@@@std@@@8 DD FLAT:??_7type_info@@6B@ ; std::_Ref_count<CCandidate> `RTTI Type Descriptor'
	DD	00H
	DB	'.?AV?$_Ref_count@VCCandidate@@@std@@', 00H
data$rs	ENDS
;	COMDAT ??_R4?$_Ref_count@VCCandidate@@@std@@6B@
rdata$r	SEGMENT
??_R4?$_Ref_count@VCCandidate@@@std@@6B@ DD 00H		; std::_Ref_count<CCandidate>::`RTTI Complete Object Locator'
	DD	00H
	DD	00H
	DD	FLAT:??_R0?AV?$_Ref_count@VCCandidate@@@std@@@8
	DD	FLAT:??_R3?$_Ref_count@VCCandidate@@@std@@8
rdata$r	ENDS
;	COMDAT ??_R1A@?0A@EA@ILordEvent@@8
rdata$r	SEGMENT
??_R1A@?0A@EA@ILordEvent@@8 DD FLAT:??_R0?AVILordEvent@@@8 ; ILordEvent::`RTTI Base Class Descriptor at (0,-1,0,64)'
	DD	00H
	DD	00H
	DD	0ffffffffH
	DD	00H
	DD	040H
	DD	FLAT:??_R3ILordEvent@@8
rdata$r	ENDS
;	COMDAT ??_R2ILordEvent@@8
rdata$r	SEGMENT
??_R2ILordEvent@@8 DD FLAT:??_R1A@?0A@EA@ILordEvent@@8	; ILordEvent::`RTTI Base Class Array'
rdata$r	ENDS
;	COMDAT ??_R3ILordEvent@@8
rdata$r	SEGMENT
??_R3ILordEvent@@8 DD 00H				; ILordEvent::`RTTI Class Hierarchy Descriptor'
	DD	00H
	DD	01H
	DD	FLAT:??_R2ILordEvent@@8
rdata$r	ENDS
;	COMDAT ??_R0?AVILordEvent@@@8
data$rs	SEGMENT
??_R0?AVILordEvent@@@8 DD FLAT:??_7type_info@@6B@	; ILordEvent `RTTI Type Descriptor'
	DD	00H
	DB	'.?AVILordEvent@@', 00H
data$rs	ENDS
;	COMDAT ??_R4ILordEvent@@6B@
rdata$r	SEGMENT
??_R4ILordEvent@@6B@ DD 00H				; ILordEvent::`RTTI Complete Object Locator'
	DD	00H
	DD	00H
	DD	FLAT:??_R0?AVILordEvent@@@8
	DD	FLAT:??_R3ILordEvent@@8
rdata$r	ENDS
;	COMDAT ??_R1A@?0A@EA@CLEComponent@@8
rdata$r	SEGMENT
??_R1A@?0A@EA@CLEComponent@@8 DD FLAT:??_R0?AVCLEComponent@@@8 ; CLEComponent::`RTTI Base Class Descriptor at (0,-1,0,64)'
	DD	00H
	DD	00H
	DD	0ffffffffH
	DD	00H
	DD	040H
	DD	FLAT:??_R3CLEComponent@@8
rdata$r	ENDS
;	COMDAT ??_R2CLEComponent@@8
rdata$r	SEGMENT
??_R2CLEComponent@@8 DD FLAT:??_R1A@?0A@EA@CLEComponent@@8 ; CLEComponent::`RTTI Base Class Array'
rdata$r	ENDS
;	COMDAT ??_R3CLEComponent@@8
rdata$r	SEGMENT
??_R3CLEComponent@@8 DD 00H				; CLEComponent::`RTTI Class Hierarchy Descriptor'
	DD	00H
	DD	01H
	DD	FLAT:??_R2CLEComponent@@8
rdata$r	ENDS
;	COMDAT ??_R0?AVCLEComponent@@@8
data$rs	SEGMENT
??_R0?AVCLEComponent@@@8 DD FLAT:??_7type_info@@6B@	; CLEComponent `RTTI Type Descriptor'
	DD	00H
	DB	'.?AVCLEComponent@@', 00H
data$rs	ENDS
;	COMDAT ??_R4CLEComponent@@6B@
rdata$r	SEGMENT
??_R4CLEComponent@@6B@ DD 00H				; CLEComponent::`RTTI Complete Object Locator'
	DD	00H
	DD	00H
	DD	FLAT:??_R0?AVCLEComponent@@@8
	DD	FLAT:??_R3CLEComponent@@8
rdata$r	ENDS
;	COMDAT ??_R1A@?0A@EA@IElection@@8
rdata$r	SEGMENT
??_R1A@?0A@EA@IElection@@8 DD FLAT:??_R0?AVIElection@@@8 ; IElection::`RTTI Base Class Descriptor at (0,-1,0,64)'
	DD	00H
	DD	00H
	DD	0ffffffffH
	DD	00H
	DD	040H
	DD	FLAT:??_R3IElection@@8
rdata$r	ENDS
;	COMDAT ??_R2IElection@@8
rdata$r	SEGMENT
??_R2IElection@@8 DD FLAT:??_R1A@?0A@EA@IElection@@8	; IElection::`RTTI Base Class Array'
rdata$r	ENDS
;	COMDAT ??_R3IElection@@8
rdata$r	SEGMENT
??_R3IElection@@8 DD 00H				; IElection::`RTTI Class Hierarchy Descriptor'
	DD	00H
	DD	01H
	DD	FLAT:??_R2IElection@@8
rdata$r	ENDS
;	COMDAT ??_R0?AVIElection@@@8
data$rs	SEGMENT
??_R0?AVIElection@@@8 DD FLAT:??_7type_info@@6B@	; IElection `RTTI Type Descriptor'
	DD	00H
	DB	'.?AVIElection@@', 00H
data$rs	ENDS
;	COMDAT ??_R4IElection@@6B@
rdata$r	SEGMENT
??_R4IElection@@6B@ DD 00H				; IElection::`RTTI Complete Object Locator'
	DD	00H
	DD	00H
	DD	FLAT:??_R0?AVIElection@@@8
	DD	FLAT:??_R3IElection@@8
rdata$r	ENDS
;	COMDAT ??_R1A@?0A@EA@CLord@@8
rdata$r	SEGMENT
??_R1A@?0A@EA@CLord@@8 DD FLAT:??_R0?AVCLord@@@8	; CLord::`RTTI Base Class Descriptor at (0,-1,0,64)'
	DD	00H
	DD	00H
	DD	0ffffffffH
	DD	00H
	DD	040H
	DD	FLAT:??_R3CLord@@8
rdata$r	ENDS
;	COMDAT ??_R2CLord@@8
rdata$r	SEGMENT
??_R2CLord@@8 DD FLAT:??_R1A@?0A@EA@CLord@@8		; CLord::`RTTI Base Class Array'
rdata$r	ENDS
;	COMDAT ??_R3CLord@@8
rdata$r	SEGMENT
??_R3CLord@@8 DD 00H					; CLord::`RTTI Class Hierarchy Descriptor'
	DD	00H
	DD	01H
	DD	FLAT:??_R2CLord@@8
rdata$r	ENDS
;	COMDAT ??_R0?AVCLord@@@8
data$rs	SEGMENT
??_R0?AVCLord@@@8 DD FLAT:??_7type_info@@6B@		; CLord `RTTI Type Descriptor'
	DD	00H
	DB	'.?AVCLord@@', 00H
data$rs	ENDS
;	COMDAT ??_R4CLord@@6B@
rdata$r	SEGMENT
??_R4CLord@@6B@ DD 00H					; CLord::`RTTI Complete Object Locator'
	DD	00H
	DD	00H
	DD	FLAT:??_R0?AVCLord@@@8
	DD	FLAT:??_R3CLord@@8
rdata$r	ENDS
;	COMDAT ??_R1A@?0A@EA@_Ref_count_base@std@@8
rdata$r	SEGMENT
??_R1A@?0A@EA@_Ref_count_base@std@@8 DD FLAT:??_R0?AV_Ref_count_base@std@@@8 ; std::_Ref_count_base::`RTTI Base Class Descriptor at (0,-1,0,64)'
	DD	00H
	DD	00H
	DD	0ffffffffH
	DD	00H
	DD	040H
	DD	FLAT:??_R3_Ref_count_base@std@@8
rdata$r	ENDS
;	COMDAT ??_R2_Ref_count_base@std@@8
rdata$r	SEGMENT
??_R2_Ref_count_base@std@@8 DD FLAT:??_R1A@?0A@EA@_Ref_count_base@std@@8 ; std::_Ref_count_base::`RTTI Base Class Array'
rdata$r	ENDS
;	COMDAT ??_R3_Ref_count_base@std@@8
rdata$r	SEGMENT
??_R3_Ref_count_base@std@@8 DD 00H			; std::_Ref_count_base::`RTTI Class Hierarchy Descriptor'
	DD	00H
	DD	01H
	DD	FLAT:??_R2_Ref_count_base@std@@8
rdata$r	ENDS
;	COMDAT ??_R0?AV_Ref_count_base@std@@@8
data$rs	SEGMENT
??_R0?AV_Ref_count_base@std@@@8 DD FLAT:??_7type_info@@6B@ ; std::_Ref_count_base `RTTI Type Descriptor'
	DD	00H
	DB	'.?AV_Ref_count_base@std@@', 00H
data$rs	ENDS
;	COMDAT ??_7?$_Ref_count@VCCandidate@@@std@@6B@
CONST	SEGMENT
??_7?$_Ref_count@VCCandidate@@@std@@6B@ DD FLAT:??_R4?$_Ref_count@VCCandidate@@@std@@6B@ ; std::_Ref_count<CCandidate>::`vftable'
	DD	FLAT:?_Destroy@?$_Ref_count@VCCandidate@@@std@@EAEXXZ
	DD	FLAT:?_Delete_this@?$_Ref_count@VCCandidate@@@std@@EAEXXZ
	DD	FLAT:??_E?$_Ref_count@VCCandidate@@@std@@UAEPAXI@Z
	DD	FLAT:?_Get_deleter@_Ref_count_base@std@@UBEPAXABVtype_info@@@Z
CONST	ENDS
;	COMDAT ??_C@_0DN@FBKHNNAO@iEEvent?5?$DO?$DN?5m_vEFactor?4size?$CI?$CJ?5?$HM?$HM@
CONST	SEGMENT
??_C@_0DN@FBKHNNAO@iEEvent?5?$DO?$DN?5m_vEFactor?4size?$CI?$CJ?5?$HM?$HM@ DB 'i'
	DB	'EEvent >= m_vEFactor.size() || iIEvent >= m_vIFactor.size()', 00H ; `string'
CONST	ENDS
;	COMDAT ??_C@_0BN@IJOANHHL@iEEvent?5?$DN?$DN?50?5?$CG?$CG?5iIEvent?5?$DN?$DN?50@
CONST	SEGMENT
??_C@_0BN@IJOANHHL@iEEvent?5?$DN?$DN?50?5?$CG?$CG?5iIEvent?5?$DN?$DN?50@ DB 'i'
	DB	'EEvent == 0 && iIEvent == 0', 00H		; `string'
CONST	ENDS
;	COMDAT ??_C@_04NHONDGDE@item@
CONST	SEGMENT
??_C@_04NHONDGDE@item@ DB 'item', 00H			; `string'
CONST	ENDS
;	COMDAT ??_C@_03KHJOGHMM@exp@
CONST	SEGMENT
??_C@_03KHJOGHMM@exp@ DB 'exp', 00H			; `string'
CONST	ENDS
;	COMDAT ??_C@_0CB@HABGPKEI@IElection?3?3IncVote?$CI?5?$CF07d?0?5?$CF07d?5@
CONST	SEGMENT
??_C@_0CB@HABGPKEI@IElection?3?3IncVote?$CI?5?$CF07d?0?5?$CF07d?5@ DB 'IE'
	DB	'lection::IncVote( %07d, %07d )', 00H	; `string'
CONST	ENDS
;	COMDAT ??_C@_0CB@MMIDMHIF@IElection?3?3SetPledge?$CI?5?$CF07d?0?5?$CFs?5@
CONST	SEGMENT
??_C@_0CB@MMIDMHIF@IElection?3?3SetPledge?$CI?5?$CF07d?0?5?$CFs?5@ DB 'IE'
	DB	'lection::SetPledge( %07d, %s )', 00H	; `string'
CONST	ENDS
;	COMDAT ??_C@_0CJ@OGFOFGHI@IElection?3?3AddDeposit?$CI?5?$CF07d?0?5?$CFI@
CONST	SEGMENT
??_C@_0CJ@OGFOFGHI@IElection?3?3AddDeposit?$CI?5?$CF07d?0?5?$CFI@ DB 'IEl'
	DB	'ection::AddDeposit( %07d, %I64d, %d )', 00H	; `string'
CONST	ENDS
;	COMDAT ??_C@_0BJ@OADJGDLJ@IElection?3?3EndVote?$CI?5?$CFd?5?$CJ@
CONST	SEGMENT
??_C@_0BJ@OADJGDLJ@IElection?3?3EndVote?$CI?5?$CFd?5?$CJ@ DB 'IElection::'
	DB	'EndVote( %d )', 00H				; `string'
CONST	ENDS
;	COMDAT ??_C@_0BE@FFJMPPDN@IElection?4BeginVote@
CONST	SEGMENT
??_C@_0BE@FFJMPPDN@IElection?4BeginVote@ DB 'IElection.BeginVote', 00H ; `string'
CONST	ENDS
;	COMDAT ??_7CLord@@6B@
CONST	SEGMENT
??_7CLord@@6B@ DD FLAT:??_R4CLord@@6B@			; CLord::`vftable'
	DD	FLAT:__purecall
	DD	FLAT:__purecall
	DD	FLAT:?GetController@CLord@@UAEPAVCLController@@XZ
CONST	ENDS
;	COMDAT ??_7ILordEvent@@6B@
CONST	SEGMENT
??_7ILordEvent@@6B@ DD FLAT:??_R4ILordEvent@@6B@	; ILordEvent::`vftable'
	DD	FLAT:??_EILordEvent@@UAEPAXI@Z
	DD	FLAT:__purecall
	DD	FLAT:__purecall
CONST	ENDS
;	COMDAT ??_7CLEComponent@@6B@
CONST	SEGMENT
??_7CLEComponent@@6B@ DD FLAT:??_R4CLEComponent@@6B@	; CLEComponent::`vftable'
	DD	FLAT:??_ECLEComponent@@UAEPAXI@Z
CONST	ENDS
;	COMDAT ??_7IElection@@6B@
CONST	SEGMENT
??_7IElection@@6B@ DD FLAT:??_R4IElection@@6B@		; IElection::`vftable'
	DD	FLAT:__purecall
	DD	FLAT:__purecall
	DD	FLAT:?DoReturnDeposit@IElection@@MAEXXZ
	DD	FLAT:__purecall
	DD	FLAT:__purecall
	DD	FLAT:?DoTestAddDeposit@IElection@@MAEHK_JJ@Z
	DD	FLAT:?DoAddDepositComplete@IElection@@MAEXK_JJ@Z
	DD	FLAT:?DoTestSetPledge@IElection@@MAEHKPBD@Z
	DD	FLAT:?DoSetPlegeComplete@IElection@@MAEXXZ
	DD	FLAT:?DoTestIncVote@IElection@@MAEHKK@Z
	DD	FLAT:?DoIncVoteComplete@IElection@@MAEXXZ
	DD	FLAT:?DoEndVoteComplete@IElection@@MAEXXZ
CONST	ENDS
;	COMDAT ??_R4bad_alloc@std@@6B@
rdata$r	SEGMENT
??_R4bad_alloc@std@@6B@ DD 00H				; std::bad_alloc::`RTTI Complete Object Locator'
	DD	00H
	DD	00H
	DD	FLAT:??_R0?AVbad_alloc@std@@@8
	DD	FLAT:??_R3bad_alloc@std@@8
rdata$r	ENDS
;	COMDAT ??_R2bad_alloc@std@@8
rdata$r	SEGMENT
??_R2bad_alloc@std@@8 DD FLAT:??_R1A@?0A@EA@bad_alloc@std@@8 ; std::bad_alloc::`RTTI Base Class Array'
	DD	FLAT:??_R1A@?0A@EA@exception@std@@8
rdata$r	ENDS
;	COMDAT ??_R3bad_alloc@std@@8
rdata$r	SEGMENT
??_R3bad_alloc@std@@8 DD 00H				; std::bad_alloc::`RTTI Class Hierarchy Descriptor'
	DD	00H
	DD	02H
	DD	FLAT:??_R2bad_alloc@std@@8
rdata$r	ENDS
;	COMDAT ??_R1A@?0A@EA@bad_alloc@std@@8
rdata$r	SEGMENT
??_R1A@?0A@EA@bad_alloc@std@@8 DD FLAT:??_R0?AVbad_alloc@std@@@8 ; std::bad_alloc::`RTTI Base Class Descriptor at (0,-1,0,64)'
	DD	01H
	DD	00H
	DD	0ffffffffH
	DD	00H
	DD	040H
	DD	FLAT:??_R3bad_alloc@std@@8
rdata$r	ENDS
;	COMDAT ??_R1A@?0A@EA@bad_array_new_length@std@@8
rdata$r	SEGMENT
??_R1A@?0A@EA@bad_array_new_length@std@@8 DD FLAT:??_R0?AVbad_array_new_length@std@@@8 ; std::bad_array_new_length::`RTTI Base Class Descriptor at (0,-1,0,64)'
	DD	02H
	DD	00H
	DD	0ffffffffH
	DD	00H
	DD	040H
	DD	FLAT:??_R3bad_array_new_length@std@@8
rdata$r	ENDS
;	COMDAT ??_R2bad_array_new_length@std@@8
rdata$r	SEGMENT
??_R2bad_array_new_length@std@@8 DD FLAT:??_R1A@?0A@EA@bad_array_new_length@std@@8 ; std::bad_array_new_length::`RTTI Base Class Array'
	DD	FLAT:??_R1A@?0A@EA@bad_alloc@std@@8
	DD	FLAT:??_R1A@?0A@EA@exception@std@@8
rdata$r	ENDS
;	COMDAT ??_R3bad_array_new_length@std@@8
rdata$r	SEGMENT
??_R3bad_array_new_length@std@@8 DD 00H			; std::bad_array_new_length::`RTTI Class Hierarchy Descriptor'
	DD	00H
	DD	03H
	DD	FLAT:??_R2bad_array_new_length@std@@8
rdata$r	ENDS
;	COMDAT ??_R4bad_array_new_length@std@@6B@
rdata$r	SEGMENT
??_R4bad_array_new_length@std@@6B@ DD 00H		; std::bad_array_new_length::`RTTI Complete Object Locator'
	DD	00H
	DD	00H
	DD	FLAT:??_R0?AVbad_array_new_length@std@@@8
	DD	FLAT:??_R3bad_array_new_length@std@@8
rdata$r	ENDS
;	COMDAT ??_R1A@?0A@EA@exception@std@@8
rdata$r	SEGMENT
??_R1A@?0A@EA@exception@std@@8 DD FLAT:??_R0?AVexception@std@@@8 ; std::exception::`RTTI Base Class Descriptor at (0,-1,0,64)'
	DD	00H
	DD	00H
	DD	0ffffffffH
	DD	00H
	DD	040H
	DD	FLAT:??_R3exception@std@@8
rdata$r	ENDS
;	COMDAT ??_R2exception@std@@8
rdata$r	SEGMENT
??_R2exception@std@@8 DD FLAT:??_R1A@?0A@EA@exception@std@@8 ; std::exception::`RTTI Base Class Array'
rdata$r	ENDS
;	COMDAT ??_R3exception@std@@8
rdata$r	SEGMENT
??_R3exception@std@@8 DD 00H				; std::exception::`RTTI Class Hierarchy Descriptor'
	DD	00H
	DD	01H
	DD	FLAT:??_R2exception@std@@8
rdata$r	ENDS
;	COMDAT ??_R4exception@std@@6B@
rdata$r	SEGMENT
??_R4exception@std@@6B@ DD 00H				; std::exception::`RTTI Complete Object Locator'
	DD	00H
	DD	00H
	DD	FLAT:??_R0?AVexception@std@@@8
	DD	FLAT:??_R3exception@std@@8
rdata$r	ENDS
;	COMDAT ??_C@_0BA@FOIKENOD@vector?5too?5long@
CONST	SEGMENT
??_C@_0BA@FOIKENOD@vector?5too?5long@ DB 'vector too long', 00H ; `string'
CONST	ENDS
;	COMDAT __CT??_R0?AVbad_alloc@std@@@8??0bad_alloc@std@@QAE@ABV01@@Z12
xdata$x	SEGMENT
__CT??_R0?AVbad_alloc@std@@@8??0bad_alloc@std@@QAE@ABV01@@Z12 DD 010H
	DD	FLAT:??_R0?AVbad_alloc@std@@@8
	DD	00H
	DD	0ffffffffH
	ORG $+4
	DD	0cH
	DD	FLAT:??0bad_alloc@std@@QAE@ABV01@@Z
xdata$x	ENDS
;	COMDAT ??_R0?AVbad_alloc@std@@@8
data$r	SEGMENT
??_R0?AVbad_alloc@std@@@8 DD FLAT:??_7type_info@@6B@	; std::bad_alloc `RTTI Type Descriptor'
	DD	00H
	DB	'.?AVbad_alloc@std@@', 00H
data$r	ENDS
;	COMDAT __CT??_R0?AVbad_array_new_length@std@@@8??0bad_array_new_length@std@@QAE@ABV01@@Z12
xdata$x	SEGMENT
__CT??_R0?AVbad_array_new_length@std@@@8??0bad_array_new_length@std@@QAE@ABV01@@Z12 DD 00H
	DD	FLAT:??_R0?AVbad_array_new_length@std@@@8
	DD	00H
	DD	0ffffffffH
	ORG $+4
	DD	0cH
	DD	FLAT:??0bad_array_new_length@std@@QAE@ABV01@@Z
xdata$x	ENDS
;	COMDAT ??_R0?AVbad_array_new_length@std@@@8
data$r	SEGMENT
??_R0?AVbad_array_new_length@std@@@8 DD FLAT:??_7type_info@@6B@ ; std::bad_array_new_length `RTTI Type Descriptor'
	DD	00H
	DB	'.?AVbad_array_new_length@std@@', 00H
data$r	ENDS
;	COMDAT __CTA3?AVbad_array_new_length@std@@
xdata$x	SEGMENT
__CTA3?AVbad_array_new_length@std@@ DD 03H
	DD	FLAT:__CT??_R0?AVbad_array_new_length@std@@@8??0bad_array_new_length@std@@QAE@ABV01@@Z12
	DD	FLAT:__CT??_R0?AVbad_alloc@std@@@8??0bad_alloc@std@@QAE@ABV01@@Z12
	DD	FLAT:__CT??_R0?AVexception@std@@@8??0exception@std@@QAE@ABV01@@Z12
xdata$x	ENDS
;	COMDAT __TI3?AVbad_array_new_length@std@@
xdata$x	SEGMENT
__TI3?AVbad_array_new_length@std@@ DD 00H
	DD	FLAT:??1bad_array_new_length@std@@UAE@XZ
	DD	00H
	DD	FLAT:__CTA3?AVbad_array_new_length@std@@
xdata$x	ENDS
;	COMDAT __CT??_R0?AVexception@std@@@8??0exception@std@@QAE@ABV01@@Z12
xdata$x	SEGMENT
__CT??_R0?AVexception@std@@@8??0exception@std@@QAE@ABV01@@Z12 DD 00H
	DD	FLAT:??_R0?AVexception@std@@@8
	DD	00H
	DD	0ffffffffH
	ORG $+4
	DD	0cH
	DD	FLAT:??0exception@std@@QAE@ABV01@@Z
xdata$x	ENDS
;	COMDAT ??_R0?AVexception@std@@@8
data$r	SEGMENT
??_R0?AVexception@std@@@8 DD FLAT:??_7type_info@@6B@	; std::exception `RTTI Type Descriptor'
	DD	00H
	DB	'.?AVexception@std@@', 00H
data$r	ENDS
;	COMDAT ??_C@_0BF@KINCDENJ@bad?5array?5new?5length@
CONST	SEGMENT
??_C@_0BF@KINCDENJ@bad?5array?5new?5length@ DB 'bad array new length', 00H ; `string'
CONST	ENDS
;	COMDAT ??_7bad_array_new_length@std@@6B@
CONST	SEGMENT
??_7bad_array_new_length@std@@6B@ DD FLAT:??_R4bad_array_new_length@std@@6B@ ; std::bad_array_new_length::`vftable'
	DD	FLAT:??_Ebad_array_new_length@std@@UAEPAXI@Z
	DD	FLAT:?what@exception@std@@UBEPBDXZ
CONST	ENDS
;	COMDAT ??_7bad_alloc@std@@6B@
CONST	SEGMENT
??_7bad_alloc@std@@6B@ DD FLAT:??_R4bad_alloc@std@@6B@	; std::bad_alloc::`vftable'
	DD	FLAT:??_Ebad_alloc@std@@UAEPAXI@Z
	DD	FLAT:?what@exception@std@@UBEPBDXZ
CONST	ENDS
;	COMDAT ??_C@_0BC@EOODALEL@Unknown?5exception@
CONST	SEGMENT
??_C@_0BC@EOODALEL@Unknown?5exception@ DB 'Unknown exception', 00H ; `string'
CONST	ENDS
;	COMDAT ??_7exception@std@@6B@
CONST	SEGMENT
??_7exception@std@@6B@ DD FLAT:??_R4exception@std@@6B@	; std::exception::`vftable'
	DD	FLAT:??_Eexception@std@@UAEPAXI@Z
	DD	FLAT:?what@exception@std@@UBEPBDXZ
CONST	ENDS
;	COMDAT ??_C@_00CNPNBAHC@@
CONST	SEGMENT
??_C@_00CNPNBAHC@@ DB 00H				; `string'
CONST	ENDS
;	COMDAT xdata$x
xdata$x	SEGMENT
__unwindtable$??$?0VCCandidate@@$0A@@?$shared_ptr@VCCandidate@@@std@@QAE@PAVCCandidate@@@Z DD 0ffffffffH
	DD	FLAT:__unwindfunclet$??$?0VCCandidate@@$0A@@?$shared_ptr@VCCandidate@@@std@@QAE@PAVCCandidate@@@Z$0
__ehfuncinfo$??$?0VCCandidate@@$0A@@?$shared_ptr@VCCandidate@@@std@@QAE@PAVCCandidate@@@Z DD 019930522H
	DD	01H
	DD	FLAT:__unwindtable$??$?0VCCandidate@@$0A@@?$shared_ptr@VCCandidate@@@std@@QAE@PAVCCandidate@@@Z
	DD	2 DUP(00H)
	DD	2 DUP(00H)
	DD	00H
	DD	01H
xdata$x	ENDS
;	COMDAT xdata$x
xdata$x	SEGMENT
__unwindtable$?Initialize@ILordEvent@@QAEHPBD@Z DD 0ffffffffH
	DD	FLAT:__unwindfunclet$?Initialize@ILordEvent@@QAEHPBD@Z$0
__ehfuncinfo$?Initialize@ILordEvent@@QAEHPBD@Z DD 019930522H
	DD	01H
	DD	FLAT:__unwindtable$?Initialize@ILordEvent@@QAEHPBD@Z
	DD	2 DUP(00H)
	DD	2 DUP(00H)
	DD	00H
	DD	01H
xdata$x	ENDS
;	COMDAT xdata$x
xdata$x	SEGMENT
__ehfuncinfo$??1sProperty@IElection@@QAE@XZ DD 019930522H
	DD	00H
	DD	00H
	DD	2 DUP(00H)
	DD	2 DUP(00H)
	DD	00H
	DD	05H
xdata$x	ENDS
;	COMDAT xdata$x
xdata$x	SEGMENT
__unwindtable$??0sProperty@IElection@@QAE@XZ DD 0ffffffffH
	DD	FLAT:__unwindfunclet$??0sProperty@IElection@@QAE@XZ$0
__ehfuncinfo$??0sProperty@IElection@@QAE@XZ DD 019930522H
	DD	01H
	DD	FLAT:__unwindtable$??0sProperty@IElection@@QAE@XZ
	DD	2 DUP(00H)
	DD	2 DUP(00H)
	DD	00H
	DD	01H
xdata$x	ENDS
;	COMDAT xdata$x
xdata$x	SEGMENT
__unwindtable$?AddCandidate@IElection@@QAEPAVCCandidate@@PAV2@@Z DD 0ffffffffH
	DD	FLAT:__unwindfunclet$?AddCandidate@IElection@@QAEPAVCCandidate@@PAV2@@Z$1
	DD	0ffffffffH
	DD	FLAT:__unwindfunclet$?AddCandidate@IElection@@QAEPAVCCandidate@@PAV2@@Z$0
__ehfuncinfo$?AddCandidate@IElection@@QAEPAVCCandidate@@PAV2@@Z DD 019930522H
	DD	02H
	DD	FLAT:__unwindtable$?AddCandidate@IElection@@QAEPAVCCandidate@@PAV2@@Z
	DD	2 DUP(00H)
	DD	2 DUP(00H)
	DD	00H
	DD	01H
xdata$x	ENDS
;	COMDAT xdata$x
xdata$x	SEGMENT
__unwindtable$??1IElection@@UAE@XZ DD 0ffffffffH
	DD	FLAT:___std_terminate
__ehfuncinfo$??1IElection@@UAE@XZ DD 019930522H
	DD	01H
	DD	FLAT:__unwindtable$??1IElection@@UAE@XZ
	DD	2 DUP(00H)
	DD	2 DUP(00H)
	DD	00H
	DD	05H
xdata$x	ENDS
;	COMDAT xdata$x
xdata$x	SEGMENT
__unwindtable$??0IElection@@IAE@PAVCLord@@@Z DD 0ffffffffH
	DD	FLAT:__unwindfunclet$??0IElection@@IAE@PAVCLord@@@Z$0
	DD	00H
	DD	FLAT:__unwindfunclet$??0IElection@@IAE@PAVCLord@@@Z$2
__ehfuncinfo$??0IElection@@IAE@PAVCLord@@@Z DD 019930522H
	DD	02H
	DD	FLAT:__unwindtable$??0IElection@@IAE@PAVCLord@@@Z
	DD	2 DUP(00H)
	DD	2 DUP(00H)
	DD	00H
	DD	01H
xdata$x	ENDS
; Function compile flags: /Ogtp
; File C:\Program Files\Microsoft Visual Studio\2022\Professional\VC\Tools\MSVC\14.44.35207\include\xutility
;	COMDAT ??$_Copy_memmove_tail@PAM@std@@YAPAMQBDQAMII@Z
_TEXT	SEGMENT
__First_ch$ = 8						; size = 4
__Dest$ = 12						; size = 4
__Byte_count$ = 16					; size = 4
__Object_count$ = 20					; size = 4
??$_Copy_memmove_tail@PAM@std@@YAPAMQBDQAMII@Z PROC	; std::_Copy_memmove_tail<float *>, COMDAT

; 4747 :     const char* const _First_ch, const _OutCtgIt _Dest, const size_t _Byte_count, const size_t _Object_count) {

  00000	55		 push	 ebp
  00001	8b ec		 mov	 ebp, esp
  00003	56		 push	 esi

; 4748 :     _STL_INTERNAL_CHECK(_Byte_count == _Object_count * sizeof(*_Dest));
; 4749 :     const auto _Dest_ptr = _STD _To_address(_Dest);
; 4750 :     const auto _Dest_ch  = const_cast<char*>(reinterpret_cast<const volatile char*>(_Dest_ptr));
; 4751 :     _CSTD memmove(_Dest_ch, _First_ch, _Byte_count);

  00004	8b 75 0c	 mov	 esi, DWORD PTR __Dest$[ebp]
  00007	57		 push	 edi
  00008	8b 7d 10	 mov	 edi, DWORD PTR __Byte_count$[ebp]
  0000b	57		 push	 edi
  0000c	ff 75 08	 push	 DWORD PTR __First_ch$[ebp]
  0000f	56		 push	 esi
  00010	e8 00 00 00 00	 call	 _memmove
  00015	83 c4 0c	 add	 esp, 12			; 0000000cH

; 4752 :     if constexpr (is_pointer_v<_OutCtgIt>) {
; 4753 :         (void) _Object_count;
; 4754 :         // CodeQL [SM02986] This cast is correct: we're bypassing pointer arithmetic for performance.
; 4755 :         return reinterpret_cast<_OutCtgIt>(_Dest_ch + _Byte_count);

  00018	8d 04 3e	 lea	 eax, DWORD PTR [esi+edi]
  0001b	5f		 pop	 edi
  0001c	5e		 pop	 esi

; 4756 :     } else {
; 4757 :         return _Dest + static_cast<_Iter_diff_t<_OutCtgIt>>(_Object_count);
; 4758 :     }
; 4759 : }

  0001d	5d		 pop	 ebp
  0001e	c3		 ret	 0
??$_Copy_memmove_tail@PAM@std@@YAPAMQBDQAMII@Z ENDP	; std::_Copy_memmove_tail<float *>
_TEXT	ENDS
; Function compile flags: /Ogtp
; File C:\Program Files\Microsoft Visual Studio\2022\Professional\VC\Tools\MSVC\14.44.35207\include\xutility
;	COMDAT ??$_Copy_memmove_tail@PAH@std@@YAPAHQBDQAHII@Z
_TEXT	SEGMENT
__First_ch$ = 8						; size = 4
__Dest$ = 12						; size = 4
__Byte_count$ = 16					; size = 4
__Object_count$ = 20					; size = 4
??$_Copy_memmove_tail@PAH@std@@YAPAHQBDQAHII@Z PROC	; std::_Copy_memmove_tail<int *>, COMDAT

; 4747 :     const char* const _First_ch, const _OutCtgIt _Dest, const size_t _Byte_count, const size_t _Object_count) {

  00000	55		 push	 ebp
  00001	8b ec		 mov	 ebp, esp
  00003	56		 push	 esi

; 4748 :     _STL_INTERNAL_CHECK(_Byte_count == _Object_count * sizeof(*_Dest));
; 4749 :     const auto _Dest_ptr = _STD _To_address(_Dest);
; 4750 :     const auto _Dest_ch  = const_cast<char*>(reinterpret_cast<const volatile char*>(_Dest_ptr));
; 4751 :     _CSTD memmove(_Dest_ch, _First_ch, _Byte_count);

  00004	8b 75 0c	 mov	 esi, DWORD PTR __Dest$[ebp]
  00007	57		 push	 edi
  00008	8b 7d 10	 mov	 edi, DWORD PTR __Byte_count$[ebp]
  0000b	57		 push	 edi
  0000c	ff 75 08	 push	 DWORD PTR __First_ch$[ebp]
  0000f	56		 push	 esi
  00010	e8 00 00 00 00	 call	 _memmove
  00015	83 c4 0c	 add	 esp, 12			; 0000000cH

; 4752 :     if constexpr (is_pointer_v<_OutCtgIt>) {
; 4753 :         (void) _Object_count;
; 4754 :         // CodeQL [SM02986] This cast is correct: we're bypassing pointer arithmetic for performance.
; 4755 :         return reinterpret_cast<_OutCtgIt>(_Dest_ch + _Byte_count);

  00018	8d 04 3e	 lea	 eax, DWORD PTR [esi+edi]
  0001b	5f		 pop	 edi
  0001c	5e		 pop	 esi

; 4756 :     } else {
; 4757 :         return _Dest + static_cast<_Iter_diff_t<_OutCtgIt>>(_Object_count);
; 4758 :     }
; 4759 : }

  0001d	5d		 pop	 ebp
  0001e	c3		 ret	 0
??$_Copy_memmove_tail@PAH@std@@YAPAHQBDQAHII@Z ENDP	; std::_Copy_memmove_tail<int *>
_TEXT	ENDS
; Function compile flags: /Ogtp
; File C:\Program Files\Microsoft Visual Studio\2022\Professional\VC\Tools\MSVC\14.44.35207\include\xutility
;	COMDAT ??$_Copy_memmove_tail@PAU?$pair@M_J@std@@@std@@YAPAU?$pair@M_J@0@QBDQAU10@II@Z
_TEXT	SEGMENT
__First_ch$ = 8						; size = 4
__Dest$ = 12						; size = 4
__Byte_count$ = 16					; size = 4
__Object_count$ = 20					; size = 4
??$_Copy_memmove_tail@PAU?$pair@M_J@std@@@std@@YAPAU?$pair@M_J@0@QBDQAU10@II@Z PROC ; std::_Copy_memmove_tail<std::pair<float,__int64> *>, COMDAT

; 4747 :     const char* const _First_ch, const _OutCtgIt _Dest, const size_t _Byte_count, const size_t _Object_count) {

  00000	55		 push	 ebp
  00001	8b ec		 mov	 ebp, esp
  00003	56		 push	 esi

; 4748 :     _STL_INTERNAL_CHECK(_Byte_count == _Object_count * sizeof(*_Dest));
; 4749 :     const auto _Dest_ptr = _STD _To_address(_Dest);
; 4750 :     const auto _Dest_ch  = const_cast<char*>(reinterpret_cast<const volatile char*>(_Dest_ptr));
; 4751 :     _CSTD memmove(_Dest_ch, _First_ch, _Byte_count);

  00004	8b 75 0c	 mov	 esi, DWORD PTR __Dest$[ebp]
  00007	57		 push	 edi
  00008	8b 7d 10	 mov	 edi, DWORD PTR __Byte_count$[ebp]
  0000b	57		 push	 edi
  0000c	ff 75 08	 push	 DWORD PTR __First_ch$[ebp]
  0000f	56		 push	 esi
  00010	e8 00 00 00 00	 call	 _memmove
  00015	83 c4 0c	 add	 esp, 12			; 0000000cH

; 4752 :     if constexpr (is_pointer_v<_OutCtgIt>) {
; 4753 :         (void) _Object_count;
; 4754 :         // CodeQL [SM02986] This cast is correct: we're bypassing pointer arithmetic for performance.
; 4755 :         return reinterpret_cast<_OutCtgIt>(_Dest_ch + _Byte_count);

  00018	8d 04 3e	 lea	 eax, DWORD PTR [esi+edi]
  0001b	5f		 pop	 edi
  0001c	5e		 pop	 esi

; 4756 :     } else {
; 4757 :         return _Dest + static_cast<_Iter_diff_t<_OutCtgIt>>(_Object_count);
; 4758 :     }
; 4759 : }

  0001d	5d		 pop	 ebp
  0001e	c3		 ret	 0
??$_Copy_memmove_tail@PAU?$pair@M_J@std@@@std@@YAPAU?$pair@M_J@0@QBDQAU10@II@Z ENDP ; std::_Copy_memmove_tail<std::pair<float,__int64> *>
_TEXT	ENDS
; Function compile flags: /Ogtp
; File C:\Program Files\Microsoft Visual Studio\2022\Professional\VC\Tools\MSVC\14.44.35207\include\xutility
;	COMDAT ??$_Copy_memmove@PAMPAM@std@@YAPAMPAM00@Z
_TEXT	SEGMENT
__First$ = 8						; size = 4
__Last$ = 12						; size = 4
__Dest$ = 16						; size = 4
??$_Copy_memmove@PAMPAM@std@@YAPAMPAM00@Z PROC		; std::_Copy_memmove<float *,float *>, COMDAT

; 4762 : _OutCtgIt _Copy_memmove(_CtgIt _First, _CtgIt _Last, _OutCtgIt _Dest) {

  00000	55		 push	 ebp
  00001	8b ec		 mov	 ebp, esp

; 4763 :     _STL_INTERNAL_CHECK(_First <= _Last);
; 4764 :     const auto _First_ptr    = _STD _To_address(_First);
; 4765 :     const auto _Last_ptr     = _STD _To_address(_Last);
; 4766 :     const auto _Object_count = static_cast<size_t>(_Last_ptr - _First_ptr);

  00003	8b 55 08	 mov	 edx, DWORD PTR __First$[ebp]
  00006	8b 4d 0c	 mov	 ecx, DWORD PTR __Last$[ebp]
  00009	2b ca		 sub	 ecx, edx
  0000b	8b c1		 mov	 eax, ecx
  0000d	c1 f8 02	 sar	 eax, 2

; 4767 :     const auto _First_ch     = const_cast<const char*>(reinterpret_cast<const volatile char*>(_First_ptr));
; 4768 :     const auto _Last_ch      = const_cast<const char*>(reinterpret_cast<const volatile char*>(_Last_ptr));
; 4769 :     const auto _Byte_count   = static_cast<size_t>(_Last_ch - _First_ch);
; 4770 :     return _STD _Copy_memmove_tail(_First_ch, _STD move(_Dest), _Byte_count, _Object_count);

  00010	50		 push	 eax
  00011	51		 push	 ecx
  00012	ff 75 10	 push	 DWORD PTR __Dest$[ebp]
  00015	52		 push	 edx
  00016	e8 00 00 00 00	 call	 ??$_Copy_memmove_tail@PAM@std@@YAPAMQBDQAMII@Z ; std::_Copy_memmove_tail<float *>
  0001b	83 c4 10	 add	 esp, 16			; 00000010H

; 4771 : }

  0001e	5d		 pop	 ebp
  0001f	c3		 ret	 0
??$_Copy_memmove@PAMPAM@std@@YAPAMPAM00@Z ENDP		; std::_Copy_memmove<float *,float *>
_TEXT	ENDS
; Function compile flags: /Ogtp
; File C:\Program Files\Microsoft Visual Studio\2022\Professional\VC\Tools\MSVC\14.44.35207\include\xutility
;	COMDAT ??$_Copy_memmove@PAHPAH@std@@YAPAHPAH00@Z
_TEXT	SEGMENT
__First$ = 8						; size = 4
__Last$ = 12						; size = 4
__Dest$ = 16						; size = 4
??$_Copy_memmove@PAHPAH@std@@YAPAHPAH00@Z PROC		; std::_Copy_memmove<int *,int *>, COMDAT

; 4762 : _OutCtgIt _Copy_memmove(_CtgIt _First, _CtgIt _Last, _OutCtgIt _Dest) {

  00000	55		 push	 ebp
  00001	8b ec		 mov	 ebp, esp

; 4763 :     _STL_INTERNAL_CHECK(_First <= _Last);
; 4764 :     const auto _First_ptr    = _STD _To_address(_First);
; 4765 :     const auto _Last_ptr     = _STD _To_address(_Last);
; 4766 :     const auto _Object_count = static_cast<size_t>(_Last_ptr - _First_ptr);

  00003	8b 55 08	 mov	 edx, DWORD PTR __First$[ebp]
  00006	8b 4d 0c	 mov	 ecx, DWORD PTR __Last$[ebp]
  00009	2b ca		 sub	 ecx, edx
  0000b	8b c1		 mov	 eax, ecx
  0000d	c1 f8 02	 sar	 eax, 2

; 4767 :     const auto _First_ch     = const_cast<const char*>(reinterpret_cast<const volatile char*>(_First_ptr));
; 4768 :     const auto _Last_ch      = const_cast<const char*>(reinterpret_cast<const volatile char*>(_Last_ptr));
; 4769 :     const auto _Byte_count   = static_cast<size_t>(_Last_ch - _First_ch);
; 4770 :     return _STD _Copy_memmove_tail(_First_ch, _STD move(_Dest), _Byte_count, _Object_count);

  00010	50		 push	 eax
  00011	51		 push	 ecx
  00012	ff 75 10	 push	 DWORD PTR __Dest$[ebp]
  00015	52		 push	 edx
  00016	e8 00 00 00 00	 call	 ??$_Copy_memmove_tail@PAH@std@@YAPAHQBDQAHII@Z ; std::_Copy_memmove_tail<int *>
  0001b	83 c4 10	 add	 esp, 16			; 00000010H

; 4771 : }

  0001e	5d		 pop	 ebp
  0001f	c3		 ret	 0
??$_Copy_memmove@PAHPAH@std@@YAPAHPAH00@Z ENDP		; std::_Copy_memmove<int *,int *>
_TEXT	ENDS
; Function compile flags: /Ogtp
; File C:\Program Files\Microsoft Visual Studio\2022\Professional\VC\Tools\MSVC\14.44.35207\include\xutility
;	COMDAT ??$_Copy_memmove@PAU?$pair@M_J@std@@PAU12@@std@@YAPAU?$pair@M_J@0@PAU10@00@Z
_TEXT	SEGMENT
__First$ = 8						; size = 4
__Last$ = 12						; size = 4
__Dest$ = 16						; size = 4
??$_Copy_memmove@PAU?$pair@M_J@std@@PAU12@@std@@YAPAU?$pair@M_J@0@PAU10@00@Z PROC ; std::_Copy_memmove<std::pair<float,__int64> *,std::pair<float,__int64> *>, COMDAT

; 4762 : _OutCtgIt _Copy_memmove(_CtgIt _First, _CtgIt _Last, _OutCtgIt _Dest) {

  00000	55		 push	 ebp
  00001	8b ec		 mov	 ebp, esp

; 4763 :     _STL_INTERNAL_CHECK(_First <= _Last);
; 4764 :     const auto _First_ptr    = _STD _To_address(_First);
; 4765 :     const auto _Last_ptr     = _STD _To_address(_Last);
; 4766 :     const auto _Object_count = static_cast<size_t>(_Last_ptr - _First_ptr);

  00003	8b 55 08	 mov	 edx, DWORD PTR __First$[ebp]
  00006	8b 4d 0c	 mov	 ecx, DWORD PTR __Last$[ebp]
  00009	2b ca		 sub	 ecx, edx
  0000b	8b c1		 mov	 eax, ecx
  0000d	c1 f8 04	 sar	 eax, 4

; 4767 :     const auto _First_ch     = const_cast<const char*>(reinterpret_cast<const volatile char*>(_First_ptr));
; 4768 :     const auto _Last_ch      = const_cast<const char*>(reinterpret_cast<const volatile char*>(_Last_ptr));
; 4769 :     const auto _Byte_count   = static_cast<size_t>(_Last_ch - _First_ch);
; 4770 :     return _STD _Copy_memmove_tail(_First_ch, _STD move(_Dest), _Byte_count, _Object_count);

  00010	50		 push	 eax
  00011	51		 push	 ecx
  00012	ff 75 10	 push	 DWORD PTR __Dest$[ebp]
  00015	52		 push	 edx
  00016	e8 00 00 00 00	 call	 ??$_Copy_memmove_tail@PAU?$pair@M_J@std@@@std@@YAPAU?$pair@M_J@0@QBDQAU10@II@Z ; std::_Copy_memmove_tail<std::pair<float,__int64> *>
  0001b	83 c4 10	 add	 esp, 16			; 00000010H

; 4771 : }

  0001e	5d		 pop	 ebp
  0001f	c3		 ret	 0
??$_Copy_memmove@PAU?$pair@M_J@std@@PAU12@@std@@YAPAU?$pair@M_J@0@PAU10@00@Z ENDP ; std::_Copy_memmove<std::pair<float,__int64> *,std::pair<float,__int64> *>
_TEXT	ENDS
; Function compile flags: /Ogtp
; File C:\Program Files\Microsoft Visual Studio\2022\Professional\VC\Tools\MSVC\14.44.35207\include\algorithm
; File C:\IAGOS\server\v18\Source\Source\_Common\lord.h
; File C:\Program Files\Microsoft Visual Studio\2022\Professional\VC\Tools\MSVC\14.44.35207\include\algorithm
; File C:\IAGOS\server\v18\Source\Source\_Common\lord.h
; File C:\Program Files\Microsoft Visual Studio\2022\Professional\VC\Tools\MSVC\14.44.35207\include\algorithm
; File C:\IAGOS\server\v18\Source\Source\_Common\lord.h
; File C:\Program Files\Microsoft Visual Studio\2022\Professional\VC\Tools\MSVC\14.44.35207\include\algorithm
; File C:\IAGOS\server\v18\Source\Source\_Common\lord.h
; File C:\Program Files\Microsoft Visual Studio\2022\Professional\VC\Tools\MSVC\14.44.35207\include\algorithm
; File C:\IAGOS\server\v18\Source\Source\_Common\lord.h
; File C:\Program Files\Microsoft Visual Studio\2022\Professional\VC\Tools\MSVC\14.44.35207\include\algorithm
;	COMDAT ??$_Med3_unchecked@PAV?$shared_ptr@VCCandidate@@@std@@UVoteCompare@@@std@@YAXPAV?$shared_ptr@VCCandidate@@@0@00UVoteCompare@@@Z
_TEXT	SEGMENT
__First$ = 8						; size = 4
__Mid$ = 12						; size = 4
__Last$ = 16						; size = 4
__Pred$ = 20						; size = 1
??$_Med3_unchecked@PAV?$shared_ptr@VCCandidate@@@std@@UVoteCompare@@@std@@YAXPAV?$shared_ptr@VCCandidate@@@0@00UVoteCompare@@@Z PROC ; std::_Med3_unchecked<std::shared_ptr<CCandidate> *,VoteCompare>, COMDAT

; 8266 : _CONSTEXPR20 void _Med3_unchecked(_RanIt _First, _RanIt _Mid, _RanIt _Last, _Pr _Pred) {

  00000	55		 push	 ebp
  00001	8b ec		 mov	 ebp, esp
  00003	53		 push	 ebx
  00004	56		 push	 esi
; File C:\IAGOS\server\v18\Source\Source\_Common\lord.h

; 161  : 		return ( lhs->GetVote() == rhs->GetVote()?

  00005	8b 75 0c	 mov	 esi, DWORD PTR __Mid$[ebp]
; File C:\Program Files\Microsoft Visual Studio\2022\Professional\VC\Tools\MSVC\14.44.35207\include\algorithm

; 8266 : _CONSTEXPR20 void _Med3_unchecked(_RanIt _First, _RanIt _Mid, _RanIt _Last, _Pr _Pred) {

  00008	57		 push	 edi
; File C:\IAGOS\server\v18\Source\Source\_Common\lord.h

; 161  : 		return ( lhs->GetVote() == rhs->GetVote()?

  00009	8b 7d 08	 mov	 edi, DWORD PTR __First$[ebp]
  0000c	8b 1e		 mov	 ebx, DWORD PTR [esi]
  0000e	8b 17		 mov	 edx, DWORD PTR [edi]
  00010	8b 83 10 01 00
	00		 mov	 eax, DWORD PTR [ebx+272]
  00016	3b 82 10 01 00
	00		 cmp	 eax, DWORD PTR [edx+272]
  0001c	75 11		 jne	 SHORT $LN8@Med3_unche
  0001e	8b 83 14 01 00
	00		 mov	 eax, DWORD PTR [ebx+276]
  00024	3b 82 14 01 00
	00		 cmp	 eax, DWORD PTR [edx+276]
  0002a	0f 9c c0	 setl	 al
  0002d	eb 03		 jmp	 SHORT $LN9@Med3_unche
$LN8@Med3_unche:
  0002f	0f 9f c0	 setg	 al
$LN9@Med3_unche:
; File C:\Program Files\Microsoft Visual Studio\2022\Professional\VC\Tools\MSVC\14.44.35207\include\algorithm

; 8268 :     if (_DEBUG_LT_PRED(_Pred, *_Mid, *_First)) {

  00032	84 c0		 test	 al, al
  00034	74 0a		 je	 SHORT $LN2@Med3_unche

; 8269 :         swap(*_Mid, *_First); // intentional ADL

  00036	57		 push	 edi
  00037	56		 push	 esi
  00038	e8 00 00 00 00	 call	 ??$swap@VCCandidate@@@std@@YAXAAV?$shared_ptr@VCCandidate@@@0@0@Z ; std::swap<CCandidate>
  0003d	83 c4 08	 add	 esp, 8
$LN2@Med3_unche:
; File C:\IAGOS\server\v18\Source\Source\_Common\lord.h

; 161  : 		return ( lhs->GetVote() == rhs->GetVote()?

  00040	8b 5d 10	 mov	 ebx, DWORD PTR __Last$[ebp]
  00043	8b 16		 mov	 edx, DWORD PTR [esi]
  00045	8b 1b		 mov	 ebx, DWORD PTR [ebx]
  00047	8b 83 10 01 00
	00		 mov	 eax, DWORD PTR [ebx+272]
  0004d	3b 82 10 01 00
	00		 cmp	 eax, DWORD PTR [edx+272]
  00053	75 11		 jne	 SHORT $LN12@Med3_unche
  00055	8b 83 14 01 00
	00		 mov	 eax, DWORD PTR [ebx+276]
  0005b	3b 82 14 01 00
	00		 cmp	 eax, DWORD PTR [edx+276]
  00061	0f 9c c0	 setl	 al
  00064	eb 03		 jmp	 SHORT $LN13@Med3_unche
$LN12@Med3_unche:
  00066	0f 9f c0	 setg	 al
$LN13@Med3_unche:
; File C:\Program Files\Microsoft Visual Studio\2022\Professional\VC\Tools\MSVC\14.44.35207\include\algorithm

; 8272 :     if (_DEBUG_LT_PRED(_Pred, *_Last, *_Mid)) { // swap middle and last, then test first again

  00069	84 c0		 test	 al, al
  0006b	74 40		 je	 SHORT $LN4@Med3_unche

; 8273 :         swap(*_Last, *_Mid); // intentional ADL

  0006d	56		 push	 esi
  0006e	ff 75 10	 push	 DWORD PTR __Last$[ebp]
  00071	e8 00 00 00 00	 call	 ??$swap@VCCandidate@@@std@@YAXAAV?$shared_ptr@VCCandidate@@@0@0@Z ; std::swap<CCandidate>
; File C:\IAGOS\server\v18\Source\Source\_Common\lord.h

; 161  : 		return ( lhs->GetVote() == rhs->GetVote()?

  00076	8b 1e		 mov	 ebx, DWORD PTR [esi]
; File C:\Program Files\Microsoft Visual Studio\2022\Professional\VC\Tools\MSVC\14.44.35207\include\algorithm

; 8273 :         swap(*_Last, *_Mid); // intentional ADL

  00078	83 c4 08	 add	 esp, 8
; File C:\IAGOS\server\v18\Source\Source\_Common\lord.h

; 161  : 		return ( lhs->GetVote() == rhs->GetVote()?

  0007b	8b 17		 mov	 edx, DWORD PTR [edi]
  0007d	8b 83 10 01 00
	00		 mov	 eax, DWORD PTR [ebx+272]
  00083	3b 82 10 01 00
	00		 cmp	 eax, DWORD PTR [edx+272]
  00089	75 11		 jne	 SHORT $LN16@Med3_unche
  0008b	8b 83 14 01 00
	00		 mov	 eax, DWORD PTR [ebx+276]
  00091	3b 82 14 01 00
	00		 cmp	 eax, DWORD PTR [edx+276]
  00097	0f 9c c0	 setl	 al
  0009a	eb 03		 jmp	 SHORT $LN17@Med3_unche
$LN16@Med3_unche:
  0009c	0f 9f c0	 setg	 al
$LN17@Med3_unche:
; File C:\Program Files\Microsoft Visual Studio\2022\Professional\VC\Tools\MSVC\14.44.35207\include\algorithm

; 8275 :         if (_DEBUG_LT_PRED(_Pred, *_Mid, *_First)) {

  0009f	84 c0		 test	 al, al
  000a1	74 0a		 je	 SHORT $LN4@Med3_unche

; 8276 :             swap(*_Mid, *_First); // intentional ADL

  000a3	57		 push	 edi
  000a4	56		 push	 esi
  000a5	e8 00 00 00 00	 call	 ??$swap@VCCandidate@@@std@@YAXAAV?$shared_ptr@VCCandidate@@@0@0@Z ; std::swap<CCandidate>
  000aa	83 c4 08	 add	 esp, 8
$LN4@Med3_unche:

; 8277 :         }
; 8278 :     }
; 8279 : }

  000ad	5f		 pop	 edi
  000ae	5e		 pop	 esi
  000af	5b		 pop	 ebx
  000b0	5d		 pop	 ebp
  000b1	c3		 ret	 0
??$_Med3_unchecked@PAV?$shared_ptr@VCCandidate@@@std@@UVoteCompare@@@std@@YAXPAV?$shared_ptr@VCCandidate@@@0@00UVoteCompare@@@Z ENDP ; std::_Med3_unchecked<std::shared_ptr<CCandidate> *,VoteCompare>
_TEXT	ENDS
; Function compile flags: /Ogtp
; File C:\Program Files\Microsoft Visual Studio\2022\Professional\VC\Tools\MSVC\14.44.35207\include\algorithm
; File C:\IAGOS\server\v18\Source\Source\_Common\lord.h
; File C:\Program Files\Microsoft Visual Studio\2022\Professional\VC\Tools\MSVC\14.44.35207\include\algorithm
; File C:\IAGOS\server\v18\Source\Source\_Common\lord.h
; File C:\Program Files\Microsoft Visual Studio\2022\Professional\VC\Tools\MSVC\14.44.35207\include\algorithm
; File C:\IAGOS\server\v18\Source\Source\_Common\lord.h
; File C:\Program Files\Microsoft Visual Studio\2022\Professional\VC\Tools\MSVC\14.44.35207\include\algorithm
; File C:\IAGOS\server\v18\Source\Source\_Common\lord.h
; File C:\Program Files\Microsoft Visual Studio\2022\Professional\VC\Tools\MSVC\14.44.35207\include\algorithm
; File C:\IAGOS\server\v18\Source\Source\_Common\lord.h
; File C:\Program Files\Microsoft Visual Studio\2022\Professional\VC\Tools\MSVC\14.44.35207\include\algorithm
; File C:\IAGOS\server\v18\Source\Source\_Common\lord.h
; File C:\Program Files\Microsoft Visual Studio\2022\Professional\VC\Tools\MSVC\14.44.35207\include\algorithm
; File C:\IAGOS\server\v18\Source\Source\_Common\lord.h
; File C:\Program Files\Microsoft Visual Studio\2022\Professional\VC\Tools\MSVC\14.44.35207\include\algorithm
; File C:\IAGOS\server\v18\Source\Source\_Common\lord.h
; File C:\Program Files\Microsoft Visual Studio\2022\Professional\VC\Tools\MSVC\14.44.35207\include\algorithm
;	COMDAT ??$_Med3_unchecked@PAV?$shared_ptr@VCCandidate@@@std@@UDepositCompare@@@std@@YAXPAV?$shared_ptr@VCCandidate@@@0@00UDepositCompare@@@Z
_TEXT	SEGMENT
__First$ = 8						; size = 4
__Mid$ = 12						; size = 4
tv367 = 12						; size = 4
__Last$ = 16						; size = 4
__Pred$ = 20						; size = 1
??$_Med3_unchecked@PAV?$shared_ptr@VCCandidate@@@std@@UDepositCompare@@@std@@YAXPAV?$shared_ptr@VCCandidate@@@0@00UDepositCompare@@@Z PROC ; std::_Med3_unchecked<std::shared_ptr<CCandidate> *,DepositCompare>, COMDAT

; 8266 : _CONSTEXPR20 void _Med3_unchecked(_RanIt _First, _RanIt _Mid, _RanIt _Last, _Pr _Pred) {

  00000	55		 push	 ebp
  00001	8b ec		 mov	 ebp, esp
  00003	53		 push	 ebx
  00004	56		 push	 esi
; File C:\IAGOS\server\v18\Source\Source\_Common\lord.h

; 149  : 		return ( lhs->GetDeposit() == rhs->GetDeposit()?

  00005	8b 75 0c	 mov	 esi, DWORD PTR __Mid$[ebp]
; File C:\Program Files\Microsoft Visual Studio\2022\Professional\VC\Tools\MSVC\14.44.35207\include\algorithm

; 8266 : _CONSTEXPR20 void _Med3_unchecked(_RanIt _First, _RanIt _Mid, _RanIt _Last, _Pr _Pred) {

  00008	57		 push	 edi
; File C:\IAGOS\server\v18\Source\Source\_Common\lord.h

; 149  : 		return ( lhs->GetDeposit() == rhs->GetDeposit()?

  00009	8b 7d 08	 mov	 edi, DWORD PTR __First$[ebp]
  0000c	8b 0e		 mov	 ecx, DWORD PTR [esi]
  0000e	8b 07		 mov	 eax, DWORD PTR [edi]
  00010	8b 79 08	 mov	 edi, DWORD PTR [ecx+8]
  00013	8b 59 0c	 mov	 ebx, DWORD PTR [ecx+12]
  00016	8b 50 08	 mov	 edx, DWORD PTR [eax+8]
  00019	3b 78 08	 cmp	 edi, DWORD PTR [eax+8]
  0001c	8b 7d 08	 mov	 edi, DWORD PTR __First$[ebp]
  0001f	89 55 0c	 mov	 DWORD PTR tv367[ebp], edx
  00022	8b 50 0c	 mov	 edx, DWORD PTR [eax+12]
  00025	75 14		 jne	 SHORT $LN10@Med3_unche
  00027	3b da		 cmp	 ebx, edx
  00029	75 12		 jne	 SHORT $LN42@Med3_unche
  0002b	8b 80 14 01 00
	00		 mov	 eax, DWORD PTR [eax+276]
; File C:\Program Files\Microsoft Visual Studio\2022\Professional\VC\Tools\MSVC\14.44.35207\include\algorithm

; 8268 :     if (_DEBUG_LT_PRED(_Pred, *_Mid, *_First)) {

  00031	39 81 14 01 00
	00		 cmp	 DWORD PTR [ecx+276], eax
  00037	7d 1a		 jge	 SHORT $LN2@Med3_unche
  00039	eb 0e		 jmp	 SHORT $LN27@Med3_unche
$LN10@Med3_unche:
; File C:\IAGOS\server\v18\Source\Source\_Common\lord.h

; 149  : 		return ( lhs->GetDeposit() == rhs->GetDeposit()?

  0003b	3b da		 cmp	 ebx, edx
$LN42@Med3_unche:
  0003d	7c 14		 jl	 SHORT $LN2@Med3_unche
  0003f	7f 08		 jg	 SHORT $LN27@Med3_unche
  00041	8b 41 08	 mov	 eax, DWORD PTR [ecx+8]
  00044	3b 45 0c	 cmp	 eax, DWORD PTR tv367[ebp]
  00047	76 0a		 jbe	 SHORT $LN2@Med3_unche
$LN27@Med3_unche:
; File C:\Program Files\Microsoft Visual Studio\2022\Professional\VC\Tools\MSVC\14.44.35207\include\algorithm

; 8269 :         swap(*_Mid, *_First); // intentional ADL

  00049	57		 push	 edi
  0004a	56		 push	 esi
  0004b	e8 00 00 00 00	 call	 ??$swap@VCCandidate@@@std@@YAXAAV?$shared_ptr@VCCandidate@@@0@0@Z ; std::swap<CCandidate>
  00050	83 c4 08	 add	 esp, 8
$LN2@Med3_unche:
; File C:\IAGOS\server\v18\Source\Source\_Common\lord.h

; 149  : 		return ( lhs->GetDeposit() == rhs->GetDeposit()?

  00053	8b 5d 10	 mov	 ebx, DWORD PTR __Last$[ebp]
  00056	8b 16		 mov	 edx, DWORD PTR [esi]
  00058	8b 1b		 mov	 ebx, DWORD PTR [ebx]
  0005a	8b 42 0c	 mov	 eax, DWORD PTR [edx+12]
  0005d	8b 7b 08	 mov	 edi, DWORD PTR [ebx+8]
  00060	3b 7a 08	 cmp	 edi, DWORD PTR [edx+8]
  00063	8b 4b 0c	 mov	 ecx, DWORD PTR [ebx+12]
  00066	8b 7d 08	 mov	 edi, DWORD PTR __First$[ebp]
  00069	75 14		 jne	 SHORT $LN16@Med3_unche
  0006b	3b c8		 cmp	 ecx, eax
  0006d	75 12		 jne	 SHORT $LN43@Med3_unche
  0006f	8b 83 14 01 00
	00		 mov	 eax, DWORD PTR [ebx+276]
; File C:\Program Files\Microsoft Visual Studio\2022\Professional\VC\Tools\MSVC\14.44.35207\include\algorithm

; 8272 :     if (_DEBUG_LT_PRED(_Pred, *_Last, *_Mid)) { // swap middle and last, then test first again

  00075	3b 82 14 01 00
	00		 cmp	 eax, DWORD PTR [edx+276]
  0007b	7d 6a		 jge	 SHORT $LN4@Med3_unche
  0007d	eb 0e		 jmp	 SHORT $LN28@Med3_unche
$LN16@Med3_unche:
; File C:\IAGOS\server\v18\Source\Source\_Common\lord.h

; 149  : 		return ( lhs->GetDeposit() == rhs->GetDeposit()?

  0007f	3b c8		 cmp	 ecx, eax
$LN43@Med3_unche:
  00081	7c 64		 jl	 SHORT $LN4@Med3_unche
  00083	7f 08		 jg	 SHORT $LN28@Med3_unche
  00085	8b 43 08	 mov	 eax, DWORD PTR [ebx+8]
  00088	3b 42 08	 cmp	 eax, DWORD PTR [edx+8]
  0008b	76 5a		 jbe	 SHORT $LN4@Med3_unche
$LN28@Med3_unche:
; File C:\Program Files\Microsoft Visual Studio\2022\Professional\VC\Tools\MSVC\14.44.35207\include\algorithm

; 8273 :         swap(*_Last, *_Mid); // intentional ADL

  0008d	56		 push	 esi
  0008e	ff 75 10	 push	 DWORD PTR __Last$[ebp]
  00091	e8 00 00 00 00	 call	 ??$swap@VCCandidate@@@std@@YAXAAV?$shared_ptr@VCCandidate@@@0@0@Z ; std::swap<CCandidate>
; File C:\IAGOS\server\v18\Source\Source\_Common\lord.h

; 149  : 		return ( lhs->GetDeposit() == rhs->GetDeposit()?

  00096	8b 17		 mov	 edx, DWORD PTR [edi]
; File C:\Program Files\Microsoft Visual Studio\2022\Professional\VC\Tools\MSVC\14.44.35207\include\algorithm

; 8273 :         swap(*_Last, *_Mid); // intentional ADL

  00098	83 c4 08	 add	 esp, 8
; File C:\IAGOS\server\v18\Source\Source\_Common\lord.h

; 149  : 		return ( lhs->GetDeposit() == rhs->GetDeposit()?

  0009b	8b 1e		 mov	 ebx, DWORD PTR [esi]
  0009d	8b 42 0c	 mov	 eax, DWORD PTR [edx+12]
  000a0	8b 7b 08	 mov	 edi, DWORD PTR [ebx+8]
  000a3	3b 7a 08	 cmp	 edi, DWORD PTR [edx+8]
  000a6	8b 4b 0c	 mov	 ecx, DWORD PTR [ebx+12]
  000a9	8b 7d 08	 mov	 edi, DWORD PTR __First$[ebp]
  000ac	75 21		 jne	 SHORT $LN22@Med3_unche
  000ae	3b c8		 cmp	 ecx, eax
  000b0	75 1f		 jne	 SHORT $LN44@Med3_unche
  000b2	8b 82 14 01 00
	00		 mov	 eax, DWORD PTR [edx+276]
; File C:\Program Files\Microsoft Visual Studio\2022\Professional\VC\Tools\MSVC\14.44.35207\include\algorithm

; 8275 :         if (_DEBUG_LT_PRED(_Pred, *_Mid, *_First)) {

  000b8	39 83 14 01 00
	00		 cmp	 DWORD PTR [ebx+276], eax
  000be	7d 27		 jge	 SHORT $LN4@Med3_unche

; 8276 :             swap(*_Mid, *_First); // intentional ADL

  000c0	57		 push	 edi
  000c1	56		 push	 esi
  000c2	e8 00 00 00 00	 call	 ??$swap@VCCandidate@@@std@@YAXAAV?$shared_ptr@VCCandidate@@@0@0@Z ; std::swap<CCandidate>
  000c7	83 c4 08	 add	 esp, 8
  000ca	5f		 pop	 edi

; 8277 :         }
; 8278 :     }
; 8279 : }

  000cb	5e		 pop	 esi
  000cc	5b		 pop	 ebx
  000cd	5d		 pop	 ebp
  000ce	c3		 ret	 0
$LN22@Med3_unche:
; File C:\IAGOS\server\v18\Source\Source\_Common\lord.h

; 149  : 		return ( lhs->GetDeposit() == rhs->GetDeposit()?

  000cf	3b c8		 cmp	 ecx, eax
$LN44@Med3_unche:
  000d1	7c 14		 jl	 SHORT $LN4@Med3_unche
  000d3	7f 08		 jg	 SHORT $LN29@Med3_unche
  000d5	8b 43 08	 mov	 eax, DWORD PTR [ebx+8]
  000d8	3b 42 08	 cmp	 eax, DWORD PTR [edx+8]
  000db	76 0a		 jbe	 SHORT $LN4@Med3_unche
$LN29@Med3_unche:
; File C:\Program Files\Microsoft Visual Studio\2022\Professional\VC\Tools\MSVC\14.44.35207\include\algorithm

; 8276 :             swap(*_Mid, *_First); // intentional ADL

  000dd	57		 push	 edi
  000de	56		 push	 esi
  000df	e8 00 00 00 00	 call	 ??$swap@VCCandidate@@@std@@YAXAAV?$shared_ptr@VCCandidate@@@0@0@Z ; std::swap<CCandidate>
  000e4	83 c4 08	 add	 esp, 8
$LN4@Med3_unche:

; 8277 :         }
; 8278 :     }
; 8279 : }

  000e7	5f		 pop	 edi
  000e8	5e		 pop	 esi
  000e9	5b		 pop	 ebx
  000ea	5d		 pop	 ebp
  000eb	c3		 ret	 0
??$_Med3_unchecked@PAV?$shared_ptr@VCCandidate@@@std@@UDepositCompare@@@std@@YAXPAV?$shared_ptr@VCCandidate@@@0@00UDepositCompare@@@Z ENDP ; std::_Med3_unchecked<std::shared_ptr<CCandidate> *,DepositCompare>
_TEXT	ENDS
; Function compile flags: /Ogtp
; File C:\Program Files\Microsoft Visual Studio\2022\Professional\VC\Tools\MSVC\14.44.35207\include\xmemory
; File C:\Program Files\Microsoft Visual Studio\2022\Professional\VC\Tools\MSVC\14.44.35207\include\memory
; File C:\Program Files\Microsoft Visual Studio\2022\Professional\VC\Tools\MSVC\14.44.35207\include\xmemory
; File C:\Program Files\Microsoft Visual Studio\2022\Professional\VC\Tools\MSVC\14.44.35207\include\memory
; File C:\Program Files\Microsoft Visual Studio\2022\Professional\VC\Tools\MSVC\14.44.35207\include\xmemory
;	COMDAT ??$_Uninitialized_move@PAV?$shared_ptr@VCCandidate@@@std@@V?$allocator@V?$shared_ptr@VCCandidate@@@std@@@2@@std@@YAPAV?$shared_ptr@VCCandidate@@@0@QAV10@0PAV10@AAV?$allocator@V?$shared_ptr@VCCandidate@@@std@@@0@@Z
_TEXT	SEGMENT
__First$ = 8						; size = 4
__Last$ = 12						; size = 4
__Dest$ = 16						; size = 4
__Al$ = 20						; size = 4
??$_Uninitialized_move@PAV?$shared_ptr@VCCandidate@@@std@@V?$allocator@V?$shared_ptr@VCCandidate@@@std@@@2@@std@@YAPAV?$shared_ptr@VCCandidate@@@0@QAV10@0PAV10@AAV?$allocator@V?$shared_ptr@VCCandidate@@@std@@@0@@Z PROC ; std::_Uninitialized_move<std::shared_ptr<CCandidate> *,std::allocator<std::shared_ptr<CCandidate> > >, COMDAT

; 1977 :     const _InIt _First, const _InIt _Last, _Alloc_ptr_t<_Alloc> _Dest, _Alloc& _Al) {

  00000	55		 push	 ebp
  00001	8b ec		 mov	 ebp, esp

; 1978 :     // move [_First, _Last) to raw _Dest, using _Al
; 1979 :     // note: only called internally from elsewhere in the STL
; 1980 : #ifdef _ENABLE_STL_INTERNAL_CHECK
; 1981 :     _STD _Adl_verify_range(_First, _Last);
; 1982 : #endif // ^^^ defined(_ENABLE_STL_INTERNAL_CHECK) ^^^
; 1983 :     using _Ptrval     = typename _Alloc::value_type*;
; 1984 :     auto _UFirst      = _STD _Get_unwrapped(_First);
; 1985 :     const auto _ULast = _STD _Get_unwrapped(_Last);
; 1986 :     if constexpr (conjunction_v<bool_constant<_Iter_move_cat<decltype(_UFirst), _Ptrval>::_Bitcopy_constructible>,
; 1987 :                       _Uses_default_construct<_Alloc, _Ptrval, decltype(_STD move(*_UFirst))>>) {
; 1988 : #if _HAS_CXX20
; 1989 :         if (!_STD is_constant_evaluated())
; 1990 : #endif // _HAS_CXX20
; 1991 :         {
; 1992 :             _STD _Copy_memmove(_UFirst, _ULast, _STD _Unfancy(_Dest));
; 1993 :             return _Dest + (_ULast - _UFirst);
; 1994 :         }
; 1995 :     }
; 1996 : 
; 1997 :     _Uninitialized_backout_al<_Alloc> _Backout{_Dest, _Al};
; 1998 :     for (; _UFirst != _ULast; ++_UFirst) {

  00003	8b 4d 08	 mov	 ecx, DWORD PTR __First$[ebp]
  00006	56		 push	 esi

; 1833 :     _CONSTEXPR20 _Uninitialized_backout_al(pointer _Dest, _Alloc& _Al_) : _First(_Dest), _Last(_Dest), _Al(_Al_) {}

  00007	8b 75 10	 mov	 esi, DWORD PTR __Dest$[ebp]

; 1977 :     const _InIt _First, const _InIt _Last, _Alloc_ptr_t<_Alloc> _Dest, _Alloc& _Al) {

  0000a	57		 push	 edi

; 1978 :     // move [_First, _Last) to raw _Dest, using _Al
; 1979 :     // note: only called internally from elsewhere in the STL
; 1980 : #ifdef _ENABLE_STL_INTERNAL_CHECK
; 1981 :     _STD _Adl_verify_range(_First, _Last);
; 1982 : #endif // ^^^ defined(_ENABLE_STL_INTERNAL_CHECK) ^^^
; 1983 :     using _Ptrval     = typename _Alloc::value_type*;
; 1984 :     auto _UFirst      = _STD _Get_unwrapped(_First);
; 1985 :     const auto _ULast = _STD _Get_unwrapped(_Last);
; 1986 :     if constexpr (conjunction_v<bool_constant<_Iter_move_cat<decltype(_UFirst), _Ptrval>::_Bitcopy_constructible>,
; 1987 :                       _Uses_default_construct<_Alloc, _Ptrval, decltype(_STD move(*_UFirst))>>) {
; 1988 : #if _HAS_CXX20
; 1989 :         if (!_STD is_constant_evaluated())
; 1990 : #endif // _HAS_CXX20
; 1991 :         {
; 1992 :             _STD _Copy_memmove(_UFirst, _ULast, _STD _Unfancy(_Dest));
; 1993 :             return _Dest + (_ULast - _UFirst);
; 1994 :         }
; 1995 :     }
; 1996 : 
; 1997 :     _Uninitialized_backout_al<_Alloc> _Backout{_Dest, _Al};
; 1998 :     for (; _UFirst != _ULast; ++_UFirst) {

  0000b	8b 7d 0c	 mov	 edi, DWORD PTR __Last$[ebp]
  0000e	3b cf		 cmp	 ecx, edi
  00010	74 3e		 je	 SHORT $LN3@Uninitiali

; 1833 :     _CONSTEXPR20 _Uninitialized_backout_al(pointer _Dest, _Alloc& _Al_) : _First(_Dest), _Last(_Dest), _Al(_Al_) {}

  00012	8b d1		 mov	 edx, ecx
  00014	2b d6		 sub	 edx, esi
  00016	66 66 0f 1f 84
	00 00 00 00 00	 npad	 10
$LL4@Uninitiali:
; File C:\Program Files\Microsoft Visual Studio\2022\Professional\VC\Tools\MSVC\14.44.35207\include\memory

; 1452 :     element_type* _Ptr{nullptr};

  00020	c7 06 00 00 00
	00		 mov	 DWORD PTR [esi], 0

; 1453 :     _Ref_count_base* _Rep{nullptr};

  00026	c7 46 04 00 00
	00 00		 mov	 DWORD PTR [esi+4], 0

; 1327 :         _Ptr = _Right._Ptr;

  0002d	8b 01		 mov	 eax, DWORD PTR [ecx]
  0002f	89 06		 mov	 DWORD PTR [esi], eax

; 1328 :         _Rep = _Right._Rep;

  00031	8b 44 16 04	 mov	 eax, DWORD PTR [esi+edx+4]
  00035	89 46 04	 mov	 DWORD PTR [esi+4], eax

; 1329 : 
; 1330 :         _Right._Ptr = nullptr;

  00038	c7 01 00 00 00
	00		 mov	 DWORD PTR [ecx], 0
; File C:\Program Files\Microsoft Visual Studio\2022\Professional\VC\Tools\MSVC\14.44.35207\include\xmemory

; 1845 :         ++_Last;

  0003e	83 c1 08	 add	 ecx, 8
; File C:\Program Files\Microsoft Visual Studio\2022\Professional\VC\Tools\MSVC\14.44.35207\include\memory

; 1331 :         _Right._Rep = nullptr;

  00041	c7 44 16 04 00
	00 00 00	 mov	 DWORD PTR [esi+edx+4], 0
; File C:\Program Files\Microsoft Visual Studio\2022\Professional\VC\Tools\MSVC\14.44.35207\include\xmemory

; 1845 :         ++_Last;

  00049	83 c6 08	 add	 esi, 8

; 1978 :     // move [_First, _Last) to raw _Dest, using _Al
; 1979 :     // note: only called internally from elsewhere in the STL
; 1980 : #ifdef _ENABLE_STL_INTERNAL_CHECK
; 1981 :     _STD _Adl_verify_range(_First, _Last);
; 1982 : #endif // ^^^ defined(_ENABLE_STL_INTERNAL_CHECK) ^^^
; 1983 :     using _Ptrval     = typename _Alloc::value_type*;
; 1984 :     auto _UFirst      = _STD _Get_unwrapped(_First);
; 1985 :     const auto _ULast = _STD _Get_unwrapped(_Last);
; 1986 :     if constexpr (conjunction_v<bool_constant<_Iter_move_cat<decltype(_UFirst), _Ptrval>::_Bitcopy_constructible>,
; 1987 :                       _Uses_default_construct<_Alloc, _Ptrval, decltype(_STD move(*_UFirst))>>) {
; 1988 : #if _HAS_CXX20
; 1989 :         if (!_STD is_constant_evaluated())
; 1990 : #endif // _HAS_CXX20
; 1991 :         {
; 1992 :             _STD _Copy_memmove(_UFirst, _ULast, _STD _Unfancy(_Dest));
; 1993 :             return _Dest + (_ULast - _UFirst);
; 1994 :         }
; 1995 :     }
; 1996 : 
; 1997 :     _Uninitialized_backout_al<_Alloc> _Backout{_Dest, _Al};
; 1998 :     for (; _UFirst != _ULast; ++_UFirst) {

  0004c	3b cf		 cmp	 ecx, edi
  0004e	75 d0		 jne	 SHORT $LL4@Uninitiali
$LN3@Uninitiali:

; 1839 :         _STD _Destroy_range(_First, _Last, _Al);

  00050	ff 75 14	 push	 DWORD PTR __Al$[ebp]
  00053	56		 push	 esi
  00054	56		 push	 esi
  00055	e8 00 00 00 00	 call	 ??$_Destroy_range@V?$allocator@V?$shared_ptr@VCCandidate@@@std@@@std@@@std@@YAXPAV?$shared_ptr@VCCandidate@@@0@QAV10@AAV?$allocator@V?$shared_ptr@VCCandidate@@@std@@@0@@Z ; std::_Destroy_range<std::allocator<std::shared_ptr<CCandidate> > >
  0005a	83 c4 0c	 add	 esp, 12			; 0000000cH

; 1999 :         _Backout._Emplace_back(_STD move(*_UFirst));
; 2000 :     }
; 2001 : 
; 2002 :     return _Backout._Release();

  0005d	8b c6		 mov	 eax, esi
  0005f	5f		 pop	 edi
  00060	5e		 pop	 esi

; 2003 : }

  00061	5d		 pop	 ebp
  00062	c3		 ret	 0
??$_Uninitialized_move@PAV?$shared_ptr@VCCandidate@@@std@@V?$allocator@V?$shared_ptr@VCCandidate@@@std@@@2@@std@@YAPAV?$shared_ptr@VCCandidate@@@0@QAV10@0PAV10@AAV?$allocator@V?$shared_ptr@VCCandidate@@@std@@@0@@Z ENDP ; std::_Uninitialized_move<std::shared_ptr<CCandidate> *,std::allocator<std::shared_ptr<CCandidate> > >
_TEXT	ENDS
; Function compile flags: /Ogtp
; File C:\Program Files\Microsoft Visual Studio\2022\Professional\VC\Tools\MSVC\14.44.35207\include\xutility
;	COMDAT ??$_Copy_memmove_tail@PAPAVCLEComponent@@@std@@YAPAPAVCLEComponent@@QBDQAPAV1@II@Z
_TEXT	SEGMENT
__First_ch$ = 8						; size = 4
__Dest$ = 12						; size = 4
__Byte_count$ = 16					; size = 4
__Object_count$ = 20					; size = 4
??$_Copy_memmove_tail@PAPAVCLEComponent@@@std@@YAPAPAVCLEComponent@@QBDQAPAV1@II@Z PROC ; std::_Copy_memmove_tail<CLEComponent * *>, COMDAT

; 4747 :     const char* const _First_ch, const _OutCtgIt _Dest, const size_t _Byte_count, const size_t _Object_count) {

  00000	55		 push	 ebp
  00001	8b ec		 mov	 ebp, esp
  00003	56		 push	 esi

; 4748 :     _STL_INTERNAL_CHECK(_Byte_count == _Object_count * sizeof(*_Dest));
; 4749 :     const auto _Dest_ptr = _STD _To_address(_Dest);
; 4750 :     const auto _Dest_ch  = const_cast<char*>(reinterpret_cast<const volatile char*>(_Dest_ptr));
; 4751 :     _CSTD memmove(_Dest_ch, _First_ch, _Byte_count);

  00004	8b 75 0c	 mov	 esi, DWORD PTR __Dest$[ebp]
  00007	57		 push	 edi
  00008	8b 7d 10	 mov	 edi, DWORD PTR __Byte_count$[ebp]
  0000b	57		 push	 edi
  0000c	ff 75 08	 push	 DWORD PTR __First_ch$[ebp]
  0000f	56		 push	 esi
  00010	e8 00 00 00 00	 call	 _memmove
  00015	83 c4 0c	 add	 esp, 12			; 0000000cH

; 4752 :     if constexpr (is_pointer_v<_OutCtgIt>) {
; 4753 :         (void) _Object_count;
; 4754 :         // CodeQL [SM02986] This cast is correct: we're bypassing pointer arithmetic for performance.
; 4755 :         return reinterpret_cast<_OutCtgIt>(_Dest_ch + _Byte_count);

  00018	8d 04 3e	 lea	 eax, DWORD PTR [esi+edi]
  0001b	5f		 pop	 edi
  0001c	5e		 pop	 esi

; 4756 :     } else {
; 4757 :         return _Dest + static_cast<_Iter_diff_t<_OutCtgIt>>(_Object_count);
; 4758 :     }
; 4759 : }

  0001d	5d		 pop	 ebp
  0001e	c3		 ret	 0
??$_Copy_memmove_tail@PAPAVCLEComponent@@@std@@YAPAPAVCLEComponent@@QBDQAPAV1@II@Z ENDP ; std::_Copy_memmove_tail<CLEComponent * *>
_TEXT	ENDS
; Function compile flags: /Ogtp
; File C:\Program Files\Microsoft Visual Studio\2022\Professional\VC\Tools\MSVC\14.44.35207\include\__msvc_heap_algorithms.hpp
; File C:\IAGOS\server\v18\Source\Source\_Common\lord.h
; File C:\Program Files\Microsoft Visual Studio\2022\Professional\VC\Tools\MSVC\14.44.35207\include\__msvc_heap_algorithms.hpp
; File C:\IAGOS\server\v18\Source\Source\_Common\lord.h
; File C:\Program Files\Microsoft Visual Studio\2022\Professional\VC\Tools\MSVC\14.44.35207\include\__msvc_heap_algorithms.hpp
; File C:\Program Files\Microsoft Visual Studio\2022\Professional\VC\Tools\MSVC\14.44.35207\include\memory
; File C:\Program Files\Microsoft Visual Studio\2022\Professional\VC\Tools\MSVC\14.44.35207\include\utility
; File C:\Program Files\Microsoft Visual Studio\2022\Professional\VC\Tools\MSVC\14.44.35207\include\memory
; File C:\Program Files\Microsoft Visual Studio\2022\Professional\VC\Tools\MSVC\14.44.35207\include\__msvc_heap_algorithms.hpp
; File C:\IAGOS\server\v18\Source\Source\_Common\lord.h
; File C:\Program Files\Microsoft Visual Studio\2022\Professional\VC\Tools\MSVC\14.44.35207\include\__msvc_heap_algorithms.hpp
; File C:\IAGOS\server\v18\Source\Source\_Common\lord.h
; File C:\Program Files\Microsoft Visual Studio\2022\Professional\VC\Tools\MSVC\14.44.35207\include\__msvc_heap_algorithms.hpp
; File C:\Program Files\Microsoft Visual Studio\2022\Professional\VC\Tools\MSVC\14.44.35207\include\memory
; File C:\Program Files\Microsoft Visual Studio\2022\Professional\VC\Tools\MSVC\14.44.35207\include\utility
; File C:\Program Files\Microsoft Visual Studio\2022\Professional\VC\Tools\MSVC\14.44.35207\include\memory
; File C:\Program Files\Microsoft Visual Studio\2022\Professional\VC\Tools\MSVC\14.44.35207\include\__msvc_heap_algorithms.hpp
; File C:\Program Files\Microsoft Visual Studio\2022\Professional\VC\Tools\MSVC\14.44.35207\include\memory
; File C:\Program Files\Microsoft Visual Studio\2022\Professional\VC\Tools\MSVC\14.44.35207\include\utility
; File C:\Program Files\Microsoft Visual Studio\2022\Professional\VC\Tools\MSVC\14.44.35207\include\memory
; File C:\Program Files\Microsoft Visual Studio\2022\Professional\VC\Tools\MSVC\14.44.35207\include\utility
; File C:\Program Files\Microsoft Visual Studio\2022\Professional\VC\Tools\MSVC\14.44.35207\include\memory
; File C:\Program Files\Microsoft Visual Studio\2022\Professional\VC\Tools\MSVC\14.44.35207\include\__msvc_heap_algorithms.hpp
;	COMDAT ??$_Pop_heap_hole_by_index@PAV?$shared_ptr@VCCandidate@@@std@@V12@UVoteCompare@@@std@@YAXPAV?$shared_ptr@VCCandidate@@@0@HH$$QAV10@UVoteCompare@@@Z
_TEXT	SEGMENT
tv884 = -12						; size = 4
__Max_sequence_non_leaf$1$ = -8				; size = 4
__Top$1$ = -4						; size = 4
__First$ = 8						; size = 4
__Hole$ = 12						; size = 4
tv870 = 12						; size = 4
__Bottom$ = 16						; size = 4
__Val$ = 20						; size = 4
__Pred$ = 24						; size = 1
??$_Pop_heap_hole_by_index@PAV?$shared_ptr@VCCandidate@@@std@@V12@UVoteCompare@@@std@@YAXPAV?$shared_ptr@VCCandidate@@@0@HH$$QAV10@UVoteCompare@@@Z PROC ; std::_Pop_heap_hole_by_index<std::shared_ptr<CCandidate> *,std::shared_ptr<CCandidate>,VoteCompare>, COMDAT

; 58   :     _RanIt _First, _Iter_diff_t<_RanIt> _Hole, _Iter_diff_t<_RanIt> _Bottom, _Ty&& _Val, _Pr _Pred) {

  00000	55		 push	 ebp
  00001	8b ec		 mov	 ebp, esp
  00003	83 ec 0c	 sub	 esp, 12			; 0000000cH

; 59   :     // percolate _Hole to _Bottom, then push _Val
; 60   :     _STL_INTERNAL_CHECK(_Bottom > 0);
; 61   : 
; 62   :     using _Diff      = _Iter_diff_t<_RanIt>;
; 63   :     const _Diff _Top = _Hole;
; 64   :     _Diff _Idx       = _Hole;
; 65   : 
; 66   :     // Check whether _Idx can have a child before calculating that child's index, since
; 67   :     // calculating the child's index can trigger integer overflows
; 68   :     const _Diff _Max_sequence_non_leaf = (_Bottom - 1) >> 1; // shift for codegen

  00006	8b 4d 10	 mov	 ecx, DWORD PTR __Bottom$[ebp]
  00009	8b 55 0c	 mov	 edx, DWORD PTR __Hole$[ebp]
  0000c	53		 push	 ebx
  0000d	56		 push	 esi
  0000e	8d 41 ff	 lea	 eax, DWORD PTR [ecx-1]
  00011	89 55 fc	 mov	 DWORD PTR __Top$1$[ebp], edx
  00014	89 45 f4	 mov	 DWORD PTR tv884[ebp], eax

; 69   :     while (_Idx < _Max_sequence_non_leaf) { // move _Hole down to larger child

  00017	83 cb ff	 or	 ebx, -1
  0001a	d1 f8		 sar	 eax, 1
  0001c	89 45 f8	 mov	 DWORD PTR __Max_sequence_non_leaf$1$[ebp], eax
  0001f	57		 push	 edi
  00020	8b fa		 mov	 edi, edx
  00022	3b d0		 cmp	 edx, eax
  00024	0f 8d a8 00 00
	00		 jge	 $LN3@Pop_heap_h
  0002a	66 0f 1f 44 00
	00		 npad	 6
$LL2@Pop_heap_h:
; File C:\IAGOS\server\v18\Source\Source\_Common\lord.h

; 161  : 		return ( lhs->GetVote() == rhs->GetVote()?

  00030	8b 75 08	 mov	 esi, DWORD PTR __First$[ebp]
; File C:\Program Files\Microsoft Visual Studio\2022\Professional\VC\Tools\MSVC\14.44.35207\include\__msvc_heap_algorithms.hpp

; 70   :         _Idx = 2 * _Idx + 2;

  00033	8d 04 3f	 lea	 eax, DWORD PTR [edi+edi]
  00036	89 45 0c	 mov	 DWORD PTR tv870[ebp], eax
; File C:\IAGOS\server\v18\Source\Source\_Common\lord.h

; 161  : 		return ( lhs->GetVote() == rhs->GetVote()?

  00039	8b 7c c6 08	 mov	 edi, DWORD PTR [esi+eax*8+8]
  0003d	8b 4c c6 10	 mov	 ecx, DWORD PTR [esi+eax*8+16]
  00041	8b bf 10 01 00
	00		 mov	 edi, DWORD PTR [edi+272]
  00047	8b 81 10 01 00
	00		 mov	 eax, DWORD PTR [ecx+272]
  0004d	3b c7		 cmp	 eax, edi
  0004f	75 1d		 jne	 SHORT $LN9@Pop_heap_h
  00051	8b 5d 0c	 mov	 ebx, DWORD PTR tv870[ebp]
  00054	8b 81 14 01 00
	00		 mov	 eax, DWORD PTR [ecx+276]
  0005a	33 c9		 xor	 ecx, ecx
  0005c	8b 7c de 08	 mov	 edi, DWORD PTR [esi+ebx*8+8]
  00060	3b 87 14 01 00
	00		 cmp	 eax, DWORD PTR [edi+276]
  00066	0f 9d c1	 setge	 cl
  00069	83 cb ff	 or	 ebx, -1
  0006c	eb 07		 jmp	 SHORT $LN10@Pop_heap_h
$LN9@Pop_heap_h:
  0006e	33 c9		 xor	 ecx, ecx
  00070	3b c7		 cmp	 eax, edi
  00072	0f 9e c1	 setle	 cl
$LN10@Pop_heap_h:
; File C:\Program Files\Microsoft Visual Studio\2022\Professional\VC\Tools\MSVC\14.44.35207\include\__msvc_heap_algorithms.hpp

; 74   :         *(_First + _Hole) = _STD move(*(_First + _Idx));

  00075	8b 7d 0c	 mov	 edi, DWORD PTR tv870[ebp]
  00078	47		 inc	 edi
  00079	03 f9		 add	 edi, ecx
; File C:\Program Files\Microsoft Visual Studio\2022\Professional\VC\Tools\MSVC\14.44.35207\include\memory

; 1327 :         _Ptr = _Right._Ptr;

  0007b	8b 04 fe	 mov	 eax, DWORD PTR [esi+edi*8]

; 1328 :         _Rep = _Right._Rep;

  0007e	8b 4c fe 04	 mov	 ecx, DWORD PTR [esi+edi*8+4]

; 1329 : 
; 1330 :         _Right._Ptr = nullptr;

  00082	c7 04 fe 00 00
	00 00		 mov	 DWORD PTR [esi+edi*8], 0

; 1331 :         _Right._Rep = nullptr;

  00089	c7 44 fe 04 00
	00 00 00	 mov	 DWORD PTR [esi+edi*8+4], 0
; File C:\Program Files\Microsoft Visual Studio\2022\Professional\VC\Tools\MSVC\14.44.35207\include\utility

; 141  :     _Right   = _STD move(_Tmp);

  00091	89 04 d6	 mov	 DWORD PTR [esi+edx*8], eax
  00094	8b 45 08	 mov	 eax, DWORD PTR __First$[ebp]
  00097	8b 74 d6 04	 mov	 esi, DWORD PTR [esi+edx*8+4]
  0009b	89 4c d0 04	 mov	 DWORD PTR [eax+edx*8+4], ecx
  0009f	85 f6		 test	 esi, esi
; File C:\Program Files\Microsoft Visual Studio\2022\Professional\VC\Tools\MSVC\14.44.35207\include\memory

; 1384 :         if (_Rep) {

  000a1	74 1f		 je	 SHORT $LN49@Pop_heap_h

; 1159 :         if (_MT_DECR(_Uses) == 0) {

  000a3	8b c3		 mov	 eax, ebx
  000a5	f0 0f c1 46 04	 lock	  xadd	 DWORD PTR [esi+4], eax
  000aa	75 16		 jne	 SHORT $LN49@Pop_heap_h

; 1160 :             _Destroy();

  000ac	8b 06		 mov	 eax, DWORD PTR [esi]
  000ae	8b ce		 mov	 ecx, esi
  000b0	ff 10		 call	 DWORD PTR [eax]

; 1166 :         if (_MT_DECR(_Weaks) == 0) {

  000b2	8b c3		 mov	 eax, ebx
  000b4	f0 0f c1 46 08	 lock	  xadd	 DWORD PTR [esi+8], eax
  000b9	75 07		 jne	 SHORT $LN49@Pop_heap_h

; 1167 :             _Delete_this();

  000bb	8b 06		 mov	 eax, DWORD PTR [esi]
  000bd	8b ce		 mov	 ecx, esi
  000bf	ff 50 04	 call	 DWORD PTR [eax+4]
$LN49@Pop_heap_h:
; File C:\Program Files\Microsoft Visual Studio\2022\Professional\VC\Tools\MSVC\14.44.35207\include\__msvc_heap_algorithms.hpp

; 69   :     while (_Idx < _Max_sequence_non_leaf) { // move _Hole down to larger child

  000c2	8b 45 f8	 mov	 eax, DWORD PTR __Max_sequence_non_leaf$1$[ebp]

; 75   :         _Hole             = _Idx;

  000c5	8b d7		 mov	 edx, edi
  000c7	3b f8		 cmp	 edi, eax
  000c9	0f 8c 61 ff ff
	ff		 jl	 $LL2@Pop_heap_h
  000cf	8b 4d 10	 mov	 ecx, DWORD PTR __Bottom$[ebp]
$LN3@Pop_heap_h:

; 76   :     }
; 77   : 
; 78   :     if (_Idx == _Max_sequence_non_leaf && _Bottom % 2 == 0) { // only child at bottom, move _Hole down to it

  000d2	8b 75 08	 mov	 esi, DWORD PTR __First$[ebp]
  000d5	3b f8		 cmp	 edi, eax
  000d7	75 15		 jne	 SHORT $LN5@Pop_heap_h
  000d9	f6 c1 01	 test	 cl, 1
  000dc	75 10		 jne	 SHORT $LN5@Pop_heap_h

; 79   :         *(_First + _Hole) = _STD move(*(_First + (_Bottom - 1)));

  000de	49		 dec	 ecx
  000df	8d 04 ce	 lea	 eax, DWORD PTR [esi+ecx*8]
  000e2	50		 push	 eax
  000e3	8d 0c d6	 lea	 ecx, DWORD PTR [esi+edx*8]
  000e6	e8 00 00 00 00	 call	 ??4?$shared_ptr@VCCandidate@@@std@@QAEAAV01@$$QAV01@@Z ; std::shared_ptr<CCandidate>::operator=

; 80   :         _Hole             = _Bottom - 1;

  000eb	8b 55 f4	 mov	 edx, DWORD PTR tv884[ebp]
$LN5@Pop_heap_h:

; 27   :         _Top < _Hole && _DEBUG_LT_PRED(_Pred, *(_First + _Idx), _Val); _Idx = (_Hole - 1) >> 1) { // shift for codegen

  000ee	39 55 fc	 cmp	 DWORD PTR __Top$1$[ebp], edx
  000f1	0f 8d 99 00 00
	00		 jge	 $LN151@Pop_heap_h
  000f7	eb 0a		 jmp	 SHORT $LN55@Pop_heap_h
  000f9	0f 1f 80 00 00
	00 00		 npad	 7
$LL152@Pop_heap_h:
  00100	8b 75 08	 mov	 esi, DWORD PTR __First$[ebp]
$LN55@Pop_heap_h:
; File C:\IAGOS\server\v18\Source\Source\_Common\lord.h

; 161  : 		return ( lhs->GetVote() == rhs->GetVote()?

  00103	8b 45 14	 mov	 eax, DWORD PTR __Val$[ebp]
; File C:\Program Files\Microsoft Visual Studio\2022\Professional\VC\Tools\MSVC\14.44.35207\include\__msvc_heap_algorithms.hpp

; 26   :     for (_Diff _Idx                                                         = (_Hole - 1) >> 1; // shift for codegen

  00106	8d 7a ff	 lea	 edi, DWORD PTR [edx-1]
  00109	d1 ff		 sar	 edi, 1
; File C:\IAGOS\server\v18\Source\Source\_Common\lord.h

; 161  : 		return ( lhs->GetVote() == rhs->GetVote()?

  0010b	8b 0c fe	 mov	 ecx, DWORD PTR [esi+edi*8]
  0010e	8b 30		 mov	 esi, DWORD PTR [eax]
  00110	8b 81 10 01 00
	00		 mov	 eax, DWORD PTR [ecx+272]
  00116	3b 86 10 01 00
	00		 cmp	 eax, DWORD PTR [esi+272]
  0011c	75 19		 jne	 SHORT $LN59@Pop_heap_h
  0011e	8b 5d 14	 mov	 ebx, DWORD PTR __Val$[ebp]
  00121	8b 81 14 01 00
	00		 mov	 eax, DWORD PTR [ecx+276]
  00127	8b 33		 mov	 esi, DWORD PTR [ebx]
  00129	3b 86 14 01 00
	00		 cmp	 eax, DWORD PTR [esi+276]
  0012f	0f 9c c0	 setl	 al
  00132	83 cb ff	 or	 ebx, -1
  00135	eb 03		 jmp	 SHORT $LN60@Pop_heap_h
$LN59@Pop_heap_h:
  00137	0f 9f c0	 setg	 al
$LN60@Pop_heap_h:
; File C:\Program Files\Microsoft Visual Studio\2022\Professional\VC\Tools\MSVC\14.44.35207\include\__msvc_heap_algorithms.hpp

; 27   :         _Top < _Hole && _DEBUG_LT_PRED(_Pred, *(_First + _Idx), _Val); _Idx = (_Hole - 1) >> 1) { // shift for codegen

  0013a	84 c0		 test	 al, al
  0013c	74 52		 je	 SHORT $LN151@Pop_heap_h
; File C:\Program Files\Microsoft Visual Studio\2022\Professional\VC\Tools\MSVC\14.44.35207\include\memory

; 1328 :         _Rep = _Right._Rep;

  0013e	8b 75 08	 mov	 esi, DWORD PTR __First$[ebp]
  00141	8b 44 fe 04	 mov	 eax, DWORD PTR [esi+edi*8+4]

; 1329 : 
; 1330 :         _Right._Ptr = nullptr;

  00145	c7 04 fe 00 00
	00 00		 mov	 DWORD PTR [esi+edi*8], 0

; 1331 :         _Right._Rep = nullptr;

  0014c	c7 44 fe 04 00
	00 00 00	 mov	 DWORD PTR [esi+edi*8+4], 0
; File C:\Program Files\Microsoft Visual Studio\2022\Professional\VC\Tools\MSVC\14.44.35207\include\utility

; 141  :     _Right   = _STD move(_Tmp);

  00154	89 0c d6	 mov	 DWORD PTR [esi+edx*8], ecx
  00157	8b 4d 08	 mov	 ecx, DWORD PTR __First$[ebp]
  0015a	8b 74 d6 04	 mov	 esi, DWORD PTR [esi+edx*8+4]
  0015e	89 44 d1 04	 mov	 DWORD PTR [ecx+edx*8+4], eax
  00162	85 f6		 test	 esi, esi
; File C:\Program Files\Microsoft Visual Studio\2022\Professional\VC\Tools\MSVC\14.44.35207\include\memory

; 1384 :         if (_Rep) {

  00164	74 1f		 je	 SHORT $LN99@Pop_heap_h

; 1159 :         if (_MT_DECR(_Uses) == 0) {

  00166	8b c3		 mov	 eax, ebx
  00168	f0 0f c1 46 04	 lock	  xadd	 DWORD PTR [esi+4], eax
  0016d	75 16		 jne	 SHORT $LN99@Pop_heap_h

; 1160 :             _Destroy();

  0016f	8b 06		 mov	 eax, DWORD PTR [esi]
  00171	8b ce		 mov	 ecx, esi
  00173	ff 10		 call	 DWORD PTR [eax]

; 1166 :         if (_MT_DECR(_Weaks) == 0) {

  00175	8b c3		 mov	 eax, ebx
  00177	f0 0f c1 46 08	 lock	  xadd	 DWORD PTR [esi+8], eax
  0017c	75 07		 jne	 SHORT $LN99@Pop_heap_h

; 1167 :             _Delete_this();

  0017e	8b 06		 mov	 eax, DWORD PTR [esi]
  00180	8b ce		 mov	 ecx, esi
  00182	ff 50 04	 call	 DWORD PTR [eax+4]
$LN99@Pop_heap_h:
; File C:\Program Files\Microsoft Visual Studio\2022\Professional\VC\Tools\MSVC\14.44.35207\include\__msvc_heap_algorithms.hpp

; 30   :         _Hole             = _Idx;

  00185	8b d7		 mov	 edx, edi
  00187	39 7d fc	 cmp	 DWORD PTR __Top$1$[ebp], edi
  0018a	0f 8c 70 ff ff
	ff		 jl	 $LL152@Pop_heap_h
$LN151@Pop_heap_h:
; File C:\Program Files\Microsoft Visual Studio\2022\Professional\VC\Tools\MSVC\14.44.35207\include\memory

; 1327 :         _Ptr = _Right._Ptr;

  00190	8b 75 14	 mov	 esi, DWORD PTR __Val$[ebp]
; File C:\Program Files\Microsoft Visual Studio\2022\Professional\VC\Tools\MSVC\14.44.35207\include\utility

; 141  :     _Right   = _STD move(_Tmp);

  00193	8b 7d 08	 mov	 edi, DWORD PTR __First$[ebp]
; File C:\Program Files\Microsoft Visual Studio\2022\Professional\VC\Tools\MSVC\14.44.35207\include\memory

; 1327 :         _Ptr = _Right._Ptr;

  00196	8b 06		 mov	 eax, DWORD PTR [esi]

; 1328 :         _Rep = _Right._Rep;

  00198	8b 4e 04	 mov	 ecx, DWORD PTR [esi+4]

; 1329 : 
; 1330 :         _Right._Ptr = nullptr;

  0019b	c7 06 00 00 00
	00		 mov	 DWORD PTR [esi], 0

; 1331 :         _Right._Rep = nullptr;

  001a1	c7 46 04 00 00
	00 00		 mov	 DWORD PTR [esi+4], 0
; File C:\Program Files\Microsoft Visual Studio\2022\Professional\VC\Tools\MSVC\14.44.35207\include\utility

; 141  :     _Right   = _STD move(_Tmp);

  001a8	89 04 d7	 mov	 DWORD PTR [edi+edx*8], eax

; 140  :     _Left    = _STD move(_Right);

  001ab	8b 74 d7 04	 mov	 esi, DWORD PTR [edi+edx*8+4]

; 141  :     _Right   = _STD move(_Tmp);

  001af	89 4c d7 04	 mov	 DWORD PTR [edi+edx*8+4], ecx
  001b3	85 f6		 test	 esi, esi
; File C:\Program Files\Microsoft Visual Studio\2022\Professional\VC\Tools\MSVC\14.44.35207\include\memory

; 1384 :         if (_Rep) {

  001b5	74 1e		 je	 SHORT $LN140@Pop_heap_h

; 1159 :         if (_MT_DECR(_Uses) == 0) {

  001b7	8b c3		 mov	 eax, ebx
  001b9	f0 0f c1 46 04	 lock	  xadd	 DWORD PTR [esi+4], eax
  001be	75 15		 jne	 SHORT $LN140@Pop_heap_h

; 1160 :             _Destroy();

  001c0	8b 06		 mov	 eax, DWORD PTR [esi]
  001c2	8b ce		 mov	 ecx, esi
  001c4	ff 10		 call	 DWORD PTR [eax]

; 1166 :         if (_MT_DECR(_Weaks) == 0) {

  001c6	f0 0f c1 5e 08	 lock	  xadd	 DWORD PTR [esi+8], ebx
  001cb	4b		 dec	 ebx
  001cc	75 07		 jne	 SHORT $LN140@Pop_heap_h

; 1167 :             _Delete_this();

  001ce	8b 06		 mov	 eax, DWORD PTR [esi]
  001d0	8b ce		 mov	 ecx, esi
  001d2	ff 50 04	 call	 DWORD PTR [eax+4]
$LN140@Pop_heap_h:
  001d5	5f		 pop	 edi
; File C:\Program Files\Microsoft Visual Studio\2022\Professional\VC\Tools\MSVC\14.44.35207\include\__msvc_heap_algorithms.hpp

; 84   : }

  001d6	5e		 pop	 esi
  001d7	5b		 pop	 ebx
  001d8	8b e5		 mov	 esp, ebp
  001da	5d		 pop	 ebp
  001db	c3		 ret	 0
??$_Pop_heap_hole_by_index@PAV?$shared_ptr@VCCandidate@@@std@@V12@UVoteCompare@@@std@@YAXPAV?$shared_ptr@VCCandidate@@@0@HH$$QAV10@UVoteCompare@@@Z ENDP ; std::_Pop_heap_hole_by_index<std::shared_ptr<CCandidate> *,std::shared_ptr<CCandidate>,VoteCompare>
_TEXT	ENDS
; Function compile flags: /Ogtp
; File C:\Program Files\Microsoft Visual Studio\2022\Professional\VC\Tools\MSVC\14.44.35207\include\memory
; File C:\Program Files\Microsoft Visual Studio\2022\Professional\VC\Tools\MSVC\14.44.35207\include\utility
; File C:\Program Files\Microsoft Visual Studio\2022\Professional\VC\Tools\MSVC\14.44.35207\include\memory
; File C:\Program Files\Microsoft Visual Studio\2022\Professional\VC\Tools\MSVC\14.44.35207\include\utility
; File C:\Program Files\Microsoft Visual Studio\2022\Professional\VC\Tools\MSVC\14.44.35207\include\memory
;	COMDAT ??$swap@VCCandidate@@@std@@YAXAAV?$shared_ptr@VCCandidate@@@0@0@Z
_TEXT	SEGMENT
__Left$ = 8						; size = 4
__Right$ = 12						; size = 4
??$swap@VCCandidate@@@std@@YAXAAV?$shared_ptr@VCCandidate@@@0@0@Z PROC ; std::swap<CCandidate>, COMDAT

; 1990 : void swap(shared_ptr<_Ty>& _Left, shared_ptr<_Ty>& _Right) noexcept {

  00000	55		 push	 ebp
  00001	8b ec		 mov	 ebp, esp
; File C:\Program Files\Microsoft Visual Studio\2022\Professional\VC\Tools\MSVC\14.44.35207\include\utility

; 140  :     _Left    = _STD move(_Right);

  00003	8b 55 0c	 mov	 edx, DWORD PTR __Right$[ebp]
; File C:\Program Files\Microsoft Visual Studio\2022\Professional\VC\Tools\MSVC\14.44.35207\include\memory

; 1990 : void swap(shared_ptr<_Ty>& _Left, shared_ptr<_Ty>& _Right) noexcept {

  00006	56		 push	 esi
; File C:\Program Files\Microsoft Visual Studio\2022\Professional\VC\Tools\MSVC\14.44.35207\include\utility

; 139  :     _Ty _Tmp = _STD move(_Left);

  00007	8b 75 08	 mov	 esi, DWORD PTR __Left$[ebp]

; 140  :     _Left    = _STD move(_Right);

  0000a	8b 02		 mov	 eax, DWORD PTR [edx]
  0000c	8b 0e		 mov	 ecx, DWORD PTR [esi]
  0000e	89 06		 mov	 DWORD PTR [esi], eax
  00010	8b 42 04	 mov	 eax, DWORD PTR [edx+4]

; 141  :     _Right   = _STD move(_Tmp);

  00013	89 0a		 mov	 DWORD PTR [edx], ecx

; 139  :     _Ty _Tmp = _STD move(_Left);

  00015	8b 4e 04	 mov	 ecx, DWORD PTR [esi+4]

; 140  :     _Left    = _STD move(_Right);

  00018	89 46 04	 mov	 DWORD PTR [esi+4], eax

; 141  :     _Right   = _STD move(_Tmp);

  0001b	89 4a 04	 mov	 DWORD PTR [edx+4], ecx
  0001e	5e		 pop	 esi
; File C:\Program Files\Microsoft Visual Studio\2022\Professional\VC\Tools\MSVC\14.44.35207\include\memory

; 1992 : }

  0001f	5d		 pop	 ebp
  00020	c3		 ret	 0
??$swap@VCCandidate@@@std@@YAXAAV?$shared_ptr@VCCandidate@@@0@0@Z ENDP ; std::swap<CCandidate>
_TEXT	ENDS
; Function compile flags: /Ogtp
; File C:\Program Files\Microsoft Visual Studio\2022\Professional\VC\Tools\MSVC\14.44.35207\include\__msvc_heap_algorithms.hpp
; File C:\IAGOS\server\v18\Source\Source\_Common\lord.h
; File C:\Program Files\Microsoft Visual Studio\2022\Professional\VC\Tools\MSVC\14.44.35207\include\__msvc_heap_algorithms.hpp
; File C:\IAGOS\server\v18\Source\Source\_Common\lord.h
; File C:\Program Files\Microsoft Visual Studio\2022\Professional\VC\Tools\MSVC\14.44.35207\include\memory
; File C:\Program Files\Microsoft Visual Studio\2022\Professional\VC\Tools\MSVC\14.44.35207\include\__msvc_heap_algorithms.hpp
; File C:\Program Files\Microsoft Visual Studio\2022\Professional\VC\Tools\MSVC\14.44.35207\include\memory
; File C:\Program Files\Microsoft Visual Studio\2022\Professional\VC\Tools\MSVC\14.44.35207\include\utility
; File C:\Program Files\Microsoft Visual Studio\2022\Professional\VC\Tools\MSVC\14.44.35207\include\memory
; File C:\Program Files\Microsoft Visual Studio\2022\Professional\VC\Tools\MSVC\14.44.35207\include\__msvc_heap_algorithms.hpp
; File C:\IAGOS\server\v18\Source\Source\_Common\lord.h
; File C:\Program Files\Microsoft Visual Studio\2022\Professional\VC\Tools\MSVC\14.44.35207\include\__msvc_heap_algorithms.hpp
; File C:\IAGOS\server\v18\Source\Source\_Common\lord.h
; File C:\Program Files\Microsoft Visual Studio\2022\Professional\VC\Tools\MSVC\14.44.35207\include\__msvc_heap_algorithms.hpp
; File C:\IAGOS\server\v18\Source\Source\_Common\lord.h
; File C:\Program Files\Microsoft Visual Studio\2022\Professional\VC\Tools\MSVC\14.44.35207\include\memory
; File C:\Program Files\Microsoft Visual Studio\2022\Professional\VC\Tools\MSVC\14.44.35207\include\utility
; File C:\Program Files\Microsoft Visual Studio\2022\Professional\VC\Tools\MSVC\14.44.35207\include\memory
; File C:\Program Files\Microsoft Visual Studio\2022\Professional\VC\Tools\MSVC\14.44.35207\include\__msvc_heap_algorithms.hpp
; File C:\Program Files\Microsoft Visual Studio\2022\Professional\VC\Tools\MSVC\14.44.35207\include\memory
; File C:\Program Files\Microsoft Visual Studio\2022\Professional\VC\Tools\MSVC\14.44.35207\include\utility
; File C:\Program Files\Microsoft Visual Studio\2022\Professional\VC\Tools\MSVC\14.44.35207\include\memory
; File C:\Program Files\Microsoft Visual Studio\2022\Professional\VC\Tools\MSVC\14.44.35207\include\utility
; File C:\Program Files\Microsoft Visual Studio\2022\Professional\VC\Tools\MSVC\14.44.35207\include\memory
; File C:\Program Files\Microsoft Visual Studio\2022\Professional\VC\Tools\MSVC\14.44.35207\include\__msvc_heap_algorithms.hpp
;	COMDAT ??$_Pop_heap_hole_by_index@PAV?$shared_ptr@VCCandidate@@@std@@V12@UDepositCompare@@@std@@YAXPAV?$shared_ptr@VCCandidate@@@0@HH$$QAV10@UDepositCompare@@@Z
_TEXT	SEGMENT
tv855 = -12						; size = 4
__Max_sequence_non_leaf$1$ = -8				; size = 4
tv841 = -4						; size = 4
__First$ = 8						; size = 4
__Hole$ = 12						; size = 4
__Top$1$ = 12						; size = 4
__Bottom$ = 16						; size = 4
tv829 = 16						; size = 4
__Val$ = 20						; size = 4
__Pred$ = 24						; size = 1
??$_Pop_heap_hole_by_index@PAV?$shared_ptr@VCCandidate@@@std@@V12@UDepositCompare@@@std@@YAXPAV?$shared_ptr@VCCandidate@@@0@HH$$QAV10@UDepositCompare@@@Z PROC ; std::_Pop_heap_hole_by_index<std::shared_ptr<CCandidate> *,std::shared_ptr<CCandidate>,DepositCompare>, COMDAT

; 58   :     _RanIt _First, _Iter_diff_t<_RanIt> _Hole, _Iter_diff_t<_RanIt> _Bottom, _Ty&& _Val, _Pr _Pred) {

  00000	55		 push	 ebp
  00001	8b ec		 mov	 ebp, esp
  00003	83 ec 0c	 sub	 esp, 12			; 0000000cH

; 59   :     // percolate _Hole to _Bottom, then push _Val
; 60   :     _STL_INTERNAL_CHECK(_Bottom > 0);
; 61   : 
; 62   :     using _Diff      = _Iter_diff_t<_RanIt>;
; 63   :     const _Diff _Top = _Hole;
; 64   :     _Diff _Idx       = _Hole;
; 65   : 
; 66   :     // Check whether _Idx can have a child before calculating that child's index, since
; 67   :     // calculating the child's index can trigger integer overflows
; 68   :     const _Diff _Max_sequence_non_leaf = (_Bottom - 1) >> 1; // shift for codegen

  00006	8b 4d 10	 mov	 ecx, DWORD PTR __Bottom$[ebp]
  00009	8b 55 0c	 mov	 edx, DWORD PTR __Hole$[ebp]
  0000c	53		 push	 ebx
  0000d	56		 push	 esi
  0000e	8d 41 ff	 lea	 eax, DWORD PTR [ecx-1]
  00011	89 55 0c	 mov	 DWORD PTR __Top$1$[ebp], edx
  00014	89 45 f4	 mov	 DWORD PTR tv855[ebp], eax

; 69   :     while (_Idx < _Max_sequence_non_leaf) { // move _Hole down to larger child

  00017	83 cb ff	 or	 ebx, -1
  0001a	d1 f8		 sar	 eax, 1
  0001c	89 45 f8	 mov	 DWORD PTR __Max_sequence_non_leaf$1$[ebp], eax
  0001f	57		 push	 edi
  00020	8b fa		 mov	 edi, edx
  00022	3b d0		 cmp	 edx, eax
  00024	0f 8d b3 00 00
	00		 jge	 $LN3@Pop_heap_h
  0002a	66 0f 1f 44 00
	00		 npad	 6
$LL2@Pop_heap_h:
; File C:\IAGOS\server\v18\Source\Source\_Common\lord.h

; 149  : 		return ( lhs->GetDeposit() == rhs->GetDeposit()?

  00030	8b 45 08	 mov	 eax, DWORD PTR __First$[ebp]
; File C:\Program Files\Microsoft Visual Studio\2022\Professional\VC\Tools\MSVC\14.44.35207\include\__msvc_heap_algorithms.hpp

; 70   :         _Idx = 2 * _Idx + 2;

  00033	8d 0c 3f	 lea	 ecx, DWORD PTR [edi+edi]
  00036	89 4d fc	 mov	 DWORD PTR tv841[ebp], ecx
; File C:\IAGOS\server\v18\Source\Source\_Common\lord.h

; 149  : 		return ( lhs->GetDeposit() == rhs->GetDeposit()?

  00039	8b 74 c8 10	 mov	 esi, DWORD PTR [eax+ecx*8+16]
  0003d	8b 7c c8 08	 mov	 edi, DWORD PTR [eax+ecx*8+8]
  00041	8b 4e 08	 mov	 ecx, DWORD PTR [esi+8]
  00044	3b 4f 08	 cmp	 ecx, DWORD PTR [edi+8]
  00047	8b 47 0c	 mov	 eax, DWORD PTR [edi+12]
  0004a	8b 4e 0c	 mov	 ecx, DWORD PTR [esi+12]
  0004d	75 17		 jne	 SHORT $LN11@Pop_heap_h
  0004f	3b c8		 cmp	 ecx, eax
  00051	75 15		 jne	 SHORT $LN183@Pop_heap_h
  00053	8b 86 14 01 00
	00		 mov	 eax, DWORD PTR [esi+276]
  00059	33 c9		 xor	 ecx, ecx
  0005b	3b 87 14 01 00
	00		 cmp	 eax, DWORD PTR [edi+276]
  00061	0f 9d c1	 setge	 cl
  00064	eb 17		 jmp	 SHORT $LN10@Pop_heap_h
$LN11@Pop_heap_h:
  00066	3b c8		 cmp	 ecx, eax
$LN183@Pop_heap_h:
  00068	7c 0e		 jl	 SHORT $LN9@Pop_heap_h
  0006a	7f 08		 jg	 SHORT $LN156@Pop_heap_h
  0006c	8b 46 08	 mov	 eax, DWORD PTR [esi+8]
  0006f	3b 47 08	 cmp	 eax, DWORD PTR [edi+8]
  00072	76 04		 jbe	 SHORT $LN9@Pop_heap_h
$LN156@Pop_heap_h:
  00074	33 c9		 xor	 ecx, ecx
  00076	eb 05		 jmp	 SHORT $LN10@Pop_heap_h
$LN9@Pop_heap_h:
  00078	b9 01 00 00 00	 mov	 ecx, 1
$LN10@Pop_heap_h:
; File C:\Program Files\Microsoft Visual Studio\2022\Professional\VC\Tools\MSVC\14.44.35207\include\memory

; 1327 :         _Ptr = _Right._Ptr;

  0007d	8b 75 08	 mov	 esi, DWORD PTR __First$[ebp]
; File C:\Program Files\Microsoft Visual Studio\2022\Professional\VC\Tools\MSVC\14.44.35207\include\__msvc_heap_algorithms.hpp

; 74   :         *(_First + _Hole) = _STD move(*(_First + _Idx));

  00080	8b 7d fc	 mov	 edi, DWORD PTR tv841[ebp]
  00083	47		 inc	 edi
  00084	03 f9		 add	 edi, ecx
; File C:\Program Files\Microsoft Visual Studio\2022\Professional\VC\Tools\MSVC\14.44.35207\include\memory

; 1327 :         _Ptr = _Right._Ptr;

  00086	8b 04 fe	 mov	 eax, DWORD PTR [esi+edi*8]

; 1328 :         _Rep = _Right._Rep;

  00089	8b 4c fe 04	 mov	 ecx, DWORD PTR [esi+edi*8+4]

; 1329 : 
; 1330 :         _Right._Ptr = nullptr;

  0008d	c7 04 fe 00 00
	00 00		 mov	 DWORD PTR [esi+edi*8], 0

; 1331 :         _Right._Rep = nullptr;

  00094	c7 44 fe 04 00
	00 00 00	 mov	 DWORD PTR [esi+edi*8+4], 0
; File C:\Program Files\Microsoft Visual Studio\2022\Professional\VC\Tools\MSVC\14.44.35207\include\utility

; 141  :     _Right   = _STD move(_Tmp);

  0009c	89 04 d6	 mov	 DWORD PTR [esi+edx*8], eax
  0009f	8b 45 08	 mov	 eax, DWORD PTR __First$[ebp]
  000a2	8b 74 d6 04	 mov	 esi, DWORD PTR [esi+edx*8+4]
  000a6	89 4c d0 04	 mov	 DWORD PTR [eax+edx*8+4], ecx
  000aa	85 f6		 test	 esi, esi
; File C:\Program Files\Microsoft Visual Studio\2022\Professional\VC\Tools\MSVC\14.44.35207\include\memory

; 1384 :         if (_Rep) {

  000ac	74 1f		 je	 SHORT $LN51@Pop_heap_h

; 1159 :         if (_MT_DECR(_Uses) == 0) {

  000ae	8b c3		 mov	 eax, ebx
  000b0	f0 0f c1 46 04	 lock	  xadd	 DWORD PTR [esi+4], eax
  000b5	75 16		 jne	 SHORT $LN51@Pop_heap_h

; 1160 :             _Destroy();

  000b7	8b 06		 mov	 eax, DWORD PTR [esi]
  000b9	8b ce		 mov	 ecx, esi
  000bb	ff 10		 call	 DWORD PTR [eax]

; 1166 :         if (_MT_DECR(_Weaks) == 0) {

  000bd	8b c3		 mov	 eax, ebx
  000bf	f0 0f c1 46 08	 lock	  xadd	 DWORD PTR [esi+8], eax
  000c4	75 07		 jne	 SHORT $LN51@Pop_heap_h

; 1167 :             _Delete_this();

  000c6	8b 06		 mov	 eax, DWORD PTR [esi]
  000c8	8b ce		 mov	 ecx, esi
  000ca	ff 50 04	 call	 DWORD PTR [eax+4]
$LN51@Pop_heap_h:
; File C:\Program Files\Microsoft Visual Studio\2022\Professional\VC\Tools\MSVC\14.44.35207\include\__msvc_heap_algorithms.hpp

; 69   :     while (_Idx < _Max_sequence_non_leaf) { // move _Hole down to larger child

  000cd	8b 45 f8	 mov	 eax, DWORD PTR __Max_sequence_non_leaf$1$[ebp]

; 75   :         _Hole             = _Idx;

  000d0	8b d7		 mov	 edx, edi
  000d2	3b f8		 cmp	 edi, eax
  000d4	0f 8c 56 ff ff
	ff		 jl	 $LL2@Pop_heap_h
  000da	8b 4d 10	 mov	 ecx, DWORD PTR __Bottom$[ebp]
$LN3@Pop_heap_h:

; 76   :     }
; 77   : 
; 78   :     if (_Idx == _Max_sequence_non_leaf && _Bottom % 2 == 0) { // only child at bottom, move _Hole down to it

  000dd	8b 75 08	 mov	 esi, DWORD PTR __First$[ebp]
  000e0	3b f8		 cmp	 edi, eax
  000e2	75 15		 jne	 SHORT $LN5@Pop_heap_h
  000e4	f6 c1 01	 test	 cl, 1
  000e7	75 10		 jne	 SHORT $LN5@Pop_heap_h

; 79   :         *(_First + _Hole) = _STD move(*(_First + (_Bottom - 1)));

  000e9	49		 dec	 ecx
  000ea	8d 04 ce	 lea	 eax, DWORD PTR [esi+ecx*8]
  000ed	50		 push	 eax
  000ee	8d 0c d6	 lea	 ecx, DWORD PTR [esi+edx*8]
  000f1	e8 00 00 00 00	 call	 ??4?$shared_ptr@VCCandidate@@@std@@QAEAAV01@$$QAV01@@Z ; std::shared_ptr<CCandidate>::operator=

; 80   :         _Hole             = _Bottom - 1;

  000f6	8b 55 f4	 mov	 edx, DWORD PTR tv855[ebp]
$LN5@Pop_heap_h:

; 27   :         _Top < _Hole && _DEBUG_LT_PRED(_Pred, *(_First + _Idx), _Val); _Idx = (_Hole - 1) >> 1) { // shift for codegen

  000f9	39 55 0c	 cmp	 DWORD PTR __Top$1$[ebp], edx
  000fc	0f 8d a1 00 00
	00		 jge	 $LN158@Pop_heap_h
  00102	eb 03		 jmp	 SHORT $LN57@Pop_heap_h
$LL159@Pop_heap_h:
  00104	8b 75 08	 mov	 esi, DWORD PTR __First$[ebp]
$LN57@Pop_heap_h:
; File C:\IAGOS\server\v18\Source\Source\_Common\lord.h

; 149  : 		return ( lhs->GetDeposit() == rhs->GetDeposit()?

  00107	8b 45 14	 mov	 eax, DWORD PTR __Val$[ebp]
; File C:\Program Files\Microsoft Visual Studio\2022\Professional\VC\Tools\MSVC\14.44.35207\include\__msvc_heap_algorithms.hpp

; 26   :     for (_Diff _Idx                                                         = (_Hole - 1) >> 1; // shift for codegen

  0010a	8d 7a ff	 lea	 edi, DWORD PTR [edx-1]
  0010d	d1 ff		 sar	 edi, 1
; File C:\IAGOS\server\v18\Source\Source\_Common\lord.h

; 149  : 		return ( lhs->GetDeposit() == rhs->GetDeposit()?

  0010f	8b 00		 mov	 eax, DWORD PTR [eax]
  00111	8b 0c fe	 mov	 ecx, DWORD PTR [esi+edi*8]
  00114	8b 70 08	 mov	 esi, DWORD PTR [eax+8]
  00117	39 71 08	 cmp	 DWORD PTR [ecx+8], esi
  0011a	8b 40 0c	 mov	 eax, DWORD PTR [eax+12]
  0011d	89 75 10	 mov	 DWORD PTR tv829[ebp], esi
  00120	8b 71 0c	 mov	 esi, DWORD PTR [ecx+12]
  00123	75 1e		 jne	 SHORT $LN63@Pop_heap_h
  00125	3b f0		 cmp	 esi, eax
  00127	75 1c		 jne	 SHORT $LN184@Pop_heap_h
; File C:\Program Files\Microsoft Visual Studio\2022\Professional\VC\Tools\MSVC\14.44.35207\include\__msvc_heap_algorithms.hpp

; 27   :         _Top < _Hole && _DEBUG_LT_PRED(_Pred, *(_First + _Idx), _Val); _Idx = (_Hole - 1) >> 1) { // shift for codegen

  00129	8b 5d 14	 mov	 ebx, DWORD PTR __Val$[ebp]
  0012c	8b 81 14 01 00
	00		 mov	 eax, DWORD PTR [ecx+276]
  00132	8b 33		 mov	 esi, DWORD PTR [ebx]
  00134	bb ff ff ff ff	 mov	 ebx, -1
  00139	3b 86 14 01 00
	00		 cmp	 eax, DWORD PTR [esi+276]
  0013f	7d 62		 jge	 SHORT $LN158@Pop_heap_h
  00141	eb 0e		 jmp	 SHORT $LN157@Pop_heap_h
$LN63@Pop_heap_h:
; File C:\IAGOS\server\v18\Source\Source\_Common\lord.h

; 149  : 		return ( lhs->GetDeposit() == rhs->GetDeposit()?

  00143	3b f0		 cmp	 esi, eax
$LN184@Pop_heap_h:
  00145	7c 5c		 jl	 SHORT $LN158@Pop_heap_h
  00147	7f 08		 jg	 SHORT $LN157@Pop_heap_h
  00149	8b 41 08	 mov	 eax, DWORD PTR [ecx+8]
  0014c	3b 45 10	 cmp	 eax, DWORD PTR tv829[ebp]
  0014f	76 52		 jbe	 SHORT $LN158@Pop_heap_h
$LN157@Pop_heap_h:
; File C:\Program Files\Microsoft Visual Studio\2022\Professional\VC\Tools\MSVC\14.44.35207\include\memory

; 1328 :         _Rep = _Right._Rep;

  00151	8b 75 08	 mov	 esi, DWORD PTR __First$[ebp]
  00154	8b 44 fe 04	 mov	 eax, DWORD PTR [esi+edi*8+4]

; 1329 : 
; 1330 :         _Right._Ptr = nullptr;

  00158	c7 04 fe 00 00
	00 00		 mov	 DWORD PTR [esi+edi*8], 0

; 1331 :         _Right._Rep = nullptr;

  0015f	c7 44 fe 04 00
	00 00 00	 mov	 DWORD PTR [esi+edi*8+4], 0
; File C:\Program Files\Microsoft Visual Studio\2022\Professional\VC\Tools\MSVC\14.44.35207\include\utility

; 141  :     _Right   = _STD move(_Tmp);

  00167	89 0c d6	 mov	 DWORD PTR [esi+edx*8], ecx
  0016a	8b 4d 08	 mov	 ecx, DWORD PTR __First$[ebp]
  0016d	8b 74 d6 04	 mov	 esi, DWORD PTR [esi+edx*8+4]
  00171	89 44 d1 04	 mov	 DWORD PTR [ecx+edx*8+4], eax
  00175	85 f6		 test	 esi, esi
; File C:\Program Files\Microsoft Visual Studio\2022\Professional\VC\Tools\MSVC\14.44.35207\include\memory

; 1384 :         if (_Rep) {

  00177	74 1f		 je	 SHORT $LN103@Pop_heap_h

; 1159 :         if (_MT_DECR(_Uses) == 0) {

  00179	8b c3		 mov	 eax, ebx
  0017b	f0 0f c1 46 04	 lock	  xadd	 DWORD PTR [esi+4], eax
  00180	75 16		 jne	 SHORT $LN103@Pop_heap_h

; 1160 :             _Destroy();

  00182	8b 06		 mov	 eax, DWORD PTR [esi]
  00184	8b ce		 mov	 ecx, esi
  00186	ff 10		 call	 DWORD PTR [eax]

; 1166 :         if (_MT_DECR(_Weaks) == 0) {

  00188	8b c3		 mov	 eax, ebx
  0018a	f0 0f c1 46 08	 lock	  xadd	 DWORD PTR [esi+8], eax
  0018f	75 07		 jne	 SHORT $LN103@Pop_heap_h

; 1167 :             _Delete_this();

  00191	8b 06		 mov	 eax, DWORD PTR [esi]
  00193	8b ce		 mov	 ecx, esi
  00195	ff 50 04	 call	 DWORD PTR [eax+4]
$LN103@Pop_heap_h:
; File C:\Program Files\Microsoft Visual Studio\2022\Professional\VC\Tools\MSVC\14.44.35207\include\__msvc_heap_algorithms.hpp

; 30   :         _Hole             = _Idx;

  00198	8b d7		 mov	 edx, edi
  0019a	39 7d 0c	 cmp	 DWORD PTR __Top$1$[ebp], edi
  0019d	0f 8c 61 ff ff
	ff		 jl	 $LL159@Pop_heap_h
$LN158@Pop_heap_h:
; File C:\Program Files\Microsoft Visual Studio\2022\Professional\VC\Tools\MSVC\14.44.35207\include\memory

; 1327 :         _Ptr = _Right._Ptr;

  001a3	8b 75 14	 mov	 esi, DWORD PTR __Val$[ebp]
; File C:\Program Files\Microsoft Visual Studio\2022\Professional\VC\Tools\MSVC\14.44.35207\include\utility

; 141  :     _Right   = _STD move(_Tmp);

  001a6	8b 7d 08	 mov	 edi, DWORD PTR __First$[ebp]
; File C:\Program Files\Microsoft Visual Studio\2022\Professional\VC\Tools\MSVC\14.44.35207\include\memory

; 1327 :         _Ptr = _Right._Ptr;

  001a9	8b 06		 mov	 eax, DWORD PTR [esi]

; 1328 :         _Rep = _Right._Rep;

  001ab	8b 4e 04	 mov	 ecx, DWORD PTR [esi+4]

; 1329 : 
; 1330 :         _Right._Ptr = nullptr;

  001ae	c7 06 00 00 00
	00		 mov	 DWORD PTR [esi], 0

; 1331 :         _Right._Rep = nullptr;

  001b4	c7 46 04 00 00
	00 00		 mov	 DWORD PTR [esi+4], 0
; File C:\Program Files\Microsoft Visual Studio\2022\Professional\VC\Tools\MSVC\14.44.35207\include\utility

; 141  :     _Right   = _STD move(_Tmp);

  001bb	89 04 d7	 mov	 DWORD PTR [edi+edx*8], eax

; 140  :     _Left    = _STD move(_Right);

  001be	8b 74 d7 04	 mov	 esi, DWORD PTR [edi+edx*8+4]

; 141  :     _Right   = _STD move(_Tmp);

  001c2	89 4c d7 04	 mov	 DWORD PTR [edi+edx*8+4], ecx
  001c6	85 f6		 test	 esi, esi
; File C:\Program Files\Microsoft Visual Studio\2022\Professional\VC\Tools\MSVC\14.44.35207\include\memory

; 1384 :         if (_Rep) {

  001c8	74 1e		 je	 SHORT $LN144@Pop_heap_h

; 1159 :         if (_MT_DECR(_Uses) == 0) {

  001ca	8b c3		 mov	 eax, ebx
  001cc	f0 0f c1 46 04	 lock	  xadd	 DWORD PTR [esi+4], eax
  001d1	75 15		 jne	 SHORT $LN144@Pop_heap_h

; 1160 :             _Destroy();

  001d3	8b 06		 mov	 eax, DWORD PTR [esi]
  001d5	8b ce		 mov	 ecx, esi
  001d7	ff 10		 call	 DWORD PTR [eax]

; 1166 :         if (_MT_DECR(_Weaks) == 0) {

  001d9	f0 0f c1 5e 08	 lock	  xadd	 DWORD PTR [esi+8], ebx
  001de	4b		 dec	 ebx
  001df	75 07		 jne	 SHORT $LN144@Pop_heap_h

; 1167 :             _Delete_this();

  001e1	8b 06		 mov	 eax, DWORD PTR [esi]
  001e3	8b ce		 mov	 ecx, esi
  001e5	ff 50 04	 call	 DWORD PTR [eax+4]
$LN144@Pop_heap_h:
  001e8	5f		 pop	 edi
; File C:\Program Files\Microsoft Visual Studio\2022\Professional\VC\Tools\MSVC\14.44.35207\include\__msvc_heap_algorithms.hpp

; 84   : }

  001e9	5e		 pop	 esi
  001ea	5b		 pop	 ebx
  001eb	8b e5		 mov	 esp, ebp
  001ed	5d		 pop	 ebp
  001ee	c3		 ret	 0
??$_Pop_heap_hole_by_index@PAV?$shared_ptr@VCCandidate@@@std@@V12@UDepositCompare@@@std@@YAXPAV?$shared_ptr@VCCandidate@@@0@HH$$QAV10@UDepositCompare@@@Z ENDP ; std::_Pop_heap_hole_by_index<std::shared_ptr<CCandidate> *,std::shared_ptr<CCandidate>,DepositCompare>
_TEXT	ENDS
; Function compile flags: /Ogtp
; File C:\Program Files\Microsoft Visual Studio\2022\Professional\VC\Tools\MSVC\14.44.35207\include\vector
; File C:\Program Files\Microsoft Visual Studio\2022\Professional\VC\Tools\MSVC\14.44.35207\include\xmemory
; File C:\Program Files\Microsoft Visual Studio\2022\Professional\VC\Tools\MSVC\14.44.35207\include\vector
; File C:\Program Files\Microsoft Visual Studio\2022\Professional\VC\Tools\MSVC\14.44.35207\include\xmemory
; File C:\Program Files\Microsoft Visual Studio\2022\Professional\VC\Tools\MSVC\14.44.35207\include\vector
; File C:\Program Files\Microsoft Visual Studio\2022\Professional\VC\Tools\MSVC\14.44.35207\include\memory
; File C:\Program Files\Microsoft Visual Studio\2022\Professional\VC\Tools\MSVC\14.44.35207\include\vector
; File C:\Program Files\Microsoft Visual Studio\2022\Professional\VC\Tools\MSVC\14.44.35207\include\memory
; File C:\Program Files\Microsoft Visual Studio\2022\Professional\VC\Tools\MSVC\14.44.35207\include\vector
; File C:\Program Files\Microsoft Visual Studio\2022\Professional\VC\Tools\MSVC\14.44.35207\include\memory
; File C:\Program Files\Microsoft Visual Studio\2022\Professional\VC\Tools\MSVC\14.44.35207\include\vector
; File C:\Program Files\Microsoft Visual Studio\2022\Professional\VC\Tools\MSVC\14.44.35207\include\xmemory
; File C:\Program Files\Microsoft Visual Studio\2022\Professional\VC\Tools\MSVC\14.44.35207\include\vector
; File C:\Program Files\Microsoft Visual Studio\2022\Professional\VC\Tools\MSVC\14.44.35207\include\xmemory
; File C:\Program Files\Microsoft Visual Studio\2022\Professional\VC\Tools\MSVC\14.44.35207\include\vector
; File C:\Program Files\Microsoft Visual Studio\2022\Professional\VC\Tools\MSVC\14.44.35207\include\xmemory
; File C:\Program Files\Microsoft Visual Studio\2022\Professional\VC\Tools\MSVC\14.44.35207\include\vector
;	COMDAT ??$_Emplace_reallocate@V?$shared_ptr@VCCandidate@@@std@@@?$vector@V?$shared_ptr@VCCandidate@@@std@@V?$allocator@V?$shared_ptr@VCCandidate@@@std@@@2@@std@@AAEPAV?$shared_ptr@VCCandidate@@@1@QAV21@$$QAV21@@Z
_TEXT	SEGMENT
tv642 = -16						; size = 4
__Newsize$1$ = -12					; size = 4
$T1 = -8						; size = 4
tv627 = -4						; size = 4
__Whereptr$ = 8						; size = 4
_<_Val_0>$ = 12						; size = 4
??$_Emplace_reallocate@V?$shared_ptr@VCCandidate@@@std@@@?$vector@V?$shared_ptr@VCCandidate@@@std@@V?$allocator@V?$shared_ptr@VCCandidate@@@std@@@2@@std@@AAEPAV?$shared_ptr@VCCandidate@@@1@QAV21@$$QAV21@@Z PROC ; std::vector<std::shared_ptr<CCandidate>,std::allocator<std::shared_ptr<CCandidate> > >::_Emplace_reallocate<std::shared_ptr<CCandidate> >, COMDAT
; _this$ = ecx

; 875  :     _CONSTEXPR20 pointer _Emplace_reallocate(const pointer _Whereptr, _Valty&&... _Val) {

  00000	55		 push	 ebp
  00001	8b ec		 mov	 ebp, esp
  00003	83 ec 10	 sub	 esp, 16			; 00000010H
  00006	53		 push	 ebx

; 876  :         // reallocate and insert by perfectly forwarding _Val at _Whereptr
; 877  :         _Alty& _Al        = _Getal();
; 878  :         auto& _My_data    = _Mypair._Myval2;
; 879  :         pointer& _Myfirst = _My_data._Myfirst;
; 880  :         pointer& _Mylast  = _My_data._Mylast;
; 881  : 
; 882  :         _STL_INTERNAL_CHECK(_Mylast == _My_data._Myend); // check that we have no unused capacity
; 883  : 
; 884  :         const auto _Whereoff = static_cast<size_type>(_Whereptr - _Myfirst);

  00007	8b 5d 08	 mov	 ebx, DWORD PTR __Whereptr$[ebp]
  0000a	56		 push	 esi
  0000b	8b f1		 mov	 esi, ecx
  0000d	57		 push	 edi
  0000e	8b 16		 mov	 edx, DWORD PTR [esi]
  00010	2b da		 sub	 ebx, edx

; 885  :         const auto _Oldsize  = static_cast<size_type>(_Mylast - _Myfirst);

  00012	8b 46 04	 mov	 eax, DWORD PTR [esi+4]
  00015	2b c2		 sub	 eax, edx
  00017	c1 fb 03	 sar	 ebx, 3
  0001a	c1 f8 03	 sar	 eax, 3

; 886  : 
; 887  :         if (_Oldsize == max_size()) {

  0001d	3d ff ff ff 1f	 cmp	 eax, 536870911		; 1fffffffH
  00022	0f 84 45 01 00
	00		 je	 $LN89@Emplace_re

; 1924 :         return static_cast<size_type>(_My_data._Myend - _My_data._Myfirst);

  00028	8b 4e 08	 mov	 ecx, DWORD PTR [esi+8]

; 889  :         }
; 890  : 
; 891  :         const size_type _Newsize = _Oldsize + 1;

  0002b	8d 78 01	 lea	 edi, DWORD PTR [eax+1]

; 1924 :         return static_cast<size_type>(_My_data._Myend - _My_data._Myfirst);

  0002e	2b ca		 sub	 ecx, edx

; 889  :         }
; 890  : 
; 891  :         const size_type _Newsize = _Oldsize + 1;

  00030	89 7d f4	 mov	 DWORD PTR __Newsize$1$[ebp], edi

; 1924 :         return static_cast<size_type>(_My_data._Myend - _My_data._Myfirst);

  00033	c1 f9 03	 sar	 ecx, 3

; 2011 :         if (_Oldcapacity > _Max - _Oldcapacity / 2) {

  00036	b8 ff ff ff 1f	 mov	 eax, 536870911		; 1fffffffH
  0003b	8b d1		 mov	 edx, ecx
  0003d	d1 ea		 shr	 edx, 1
  0003f	2b c2		 sub	 eax, edx
  00041	3b c8		 cmp	 ecx, eax
  00043	76 14		 jbe	 SHORT $LN8@Emplace_re

; 2012 :             return _Max; // geometric growth would overflow

  00045	b8 f8 ff ff ff	 mov	 eax, -8			; fffffff8H
  0004a	c7 45 fc f8 ff
	ff ff		 mov	 DWORD PTR tv627[ebp], -8 ; fffffff8H
; File C:\Program Files\Microsoft Visual Studio\2022\Professional\VC\Tools\MSVC\14.44.35207\include\xmemory

; 253  :             return _Allocate_manually_vector_aligned<_Traits>(_Bytes);

  00051	50		 push	 eax
  00052	e8 00 00 00 00	 call	 ??$_Allocate_manually_vector_aligned@U_Default_allocate_traits@std@@@std@@YAPAXI@Z ; std::_Allocate_manually_vector_aligned<std::_Default_allocate_traits>
  00057	eb 3d		 jmp	 SHORT $LN87@Emplace_re
$LN8@Emplace_re:
; File C:\Program Files\Microsoft Visual Studio\2022\Professional\VC\Tools\MSVC\14.44.35207\include\vector

; 2015 :         const size_type _Geometric = _Oldcapacity + _Oldcapacity / 2;

  00059	8d 04 0a	 lea	 eax, DWORD PTR [edx+ecx]
; File C:\Program Files\Microsoft Visual Studio\2022\Professional\VC\Tools\MSVC\14.44.35207\include\xmemory

; 117  :         if (_Count > _Max_possible) {

  0005c	8b cf		 mov	 ecx, edi
  0005e	3b c7		 cmp	 eax, edi
  00060	0f 43 c8	 cmovae	 ecx, eax
  00063	81 f9 ff ff ff
	1f		 cmp	 ecx, 536870911		; 1fffffffH
  00069	0f 87 03 01 00
	00		 ja	 $LN90@Emplace_re

; 119  :         }
; 120  :     }
; 121  : 
; 122  :     return _Count * _Ty_size;

  0006f	8d 04 cd 00 00
	00 00		 lea	 eax, DWORD PTR [ecx*8]
  00076	89 45 fc	 mov	 DWORD PTR tv627[ebp], eax

; 227  :     if (_Bytes == 0) {

  00079	85 c0		 test	 eax, eax
  0007b	75 04		 jne	 SHORT $LN23@Emplace_re

; 228  :         return nullptr;

  0007d	33 ff		 xor	 edi, edi
  0007f	eb 1a		 jmp	 SHORT $LN22@Emplace_re
$LN23@Emplace_re:

; 229  :     }
; 230  : 
; 231  : #if _HAS_CXX20 // TRANSITION, GH-1532
; 232  :     if (_STD is_constant_evaluated()) {
; 233  :         return _Traits::_Allocate(_Bytes);
; 234  :     }
; 235  : #endif // _HAS_CXX20
; 236  : 
; 237  : #ifdef __cpp_aligned_new
; 238  :     if constexpr (_Align > __STDCPP_DEFAULT_NEW_ALIGNMENT__) {
; 239  :         size_t _Passed_align = _Align;
; 240  : #if defined(_M_IX86) || defined(_M_X64)
; 241  :         if (_Bytes >= _Big_allocation_threshold) {
; 242  :             // boost the alignment of big allocations to help autovectorization
; 243  :             _Passed_align = (_STD max)(_Align, _Big_allocation_alignment);
; 244  :         }
; 245  : #endif // defined(_M_IX86) || defined(_M_X64)
; 246  :         return _Traits::_Allocate_aligned(_Bytes, _Passed_align);
; 247  :     } else
; 248  : #endif // defined(__cpp_aligned_new)
; 249  :     {
; 250  : #if defined(_M_IX86) || defined(_M_X64)
; 251  :         if (_Bytes >= _Big_allocation_threshold) {

  00081	3d 00 10 00 00	 cmp	 eax, 4096		; 00001000H
  00086	72 08		 jb	 SHORT $LN24@Emplace_re

; 253  :             return _Allocate_manually_vector_aligned<_Traits>(_Bytes);

  00088	50		 push	 eax
  00089	e8 00 00 00 00	 call	 ??$_Allocate_manually_vector_aligned@U_Default_allocate_traits@std@@@std@@YAPAXI@Z ; std::_Allocate_manually_vector_aligned<std::_Default_allocate_traits>
  0008e	eb 06		 jmp	 SHORT $LN87@Emplace_re
$LN24@Emplace_re:

; 136  :         return ::operator new(_Bytes);

  00090	50		 push	 eax
  00091	e8 00 00 00 00	 call	 ??2@YAPAXI@Z		; operator new
$LN87@Emplace_re:
; File C:\Program Files\Microsoft Visual Studio\2022\Professional\VC\Tools\MSVC\14.44.35207\include\vector

; 895  :         const pointer _Constructed_last = _Newvec + _Whereoff + 1;

  00096	8b f8		 mov	 edi, eax
  00098	83 c4 04	 add	 esp, 4
$LN22@Emplace_re:
; File C:\Program Files\Microsoft Visual Studio\2022\Professional\VC\Tools\MSVC\14.44.35207\include\memory

; 1327 :         _Ptr = _Right._Ptr;

  0009b	8b 4d 0c	 mov	 ecx, DWORD PTR _<_Val_0>$[ebp]
; File C:\Program Files\Microsoft Visual Studio\2022\Professional\VC\Tools\MSVC\14.44.35207\include\vector

; 895  :         const pointer _Constructed_last = _Newvec + _Whereoff + 1;

  0009e	8d 14 df	 lea	 edx, DWORD PTR [edi+ebx*8]

; 903  :         if (_Whereptr == _Mylast) { // at back, provide strong guarantee

  000a1	8b 5d 08	 mov	 ebx, DWORD PTR __Whereptr$[ebp]
  000a4	8d 42 08	 lea	 eax, DWORD PTR [edx+8]
; File C:\Program Files\Microsoft Visual Studio\2022\Professional\VC\Tools\MSVC\14.44.35207\include\memory

; 1452 :     element_type* _Ptr{nullptr};

  000a7	c7 02 00 00 00
	00		 mov	 DWORD PTR [edx], 0

; 1453 :     _Ref_count_base* _Rep{nullptr};

  000ad	c7 42 04 00 00
	00 00		 mov	 DWORD PTR [edx+4], 0
; File C:\Program Files\Microsoft Visual Studio\2022\Professional\VC\Tools\MSVC\14.44.35207\include\vector

; 895  :         const pointer _Constructed_last = _Newvec + _Whereoff + 1;

  000b4	89 45 f8	 mov	 DWORD PTR $T1[ebp], eax
; File C:\Program Files\Microsoft Visual Studio\2022\Professional\VC\Tools\MSVC\14.44.35207\include\memory

; 1327 :         _Ptr = _Right._Ptr;

  000b7	8b 01		 mov	 eax, DWORD PTR [ecx]
  000b9	89 02		 mov	 DWORD PTR [edx], eax

; 1328 :         _Rep = _Right._Rep;

  000bb	8b 41 04	 mov	 eax, DWORD PTR [ecx+4]
  000be	89 42 04	 mov	 DWORD PTR [edx+4], eax

; 1329 : 
; 1330 :         _Right._Ptr = nullptr;

  000c1	c7 01 00 00 00
	00		 mov	 DWORD PTR [ecx], 0

; 1331 :         _Right._Rep = nullptr;

  000c7	c7 41 04 00 00
	00 00		 mov	 DWORD PTR [ecx+4], 0
; File C:\Program Files\Microsoft Visual Studio\2022\Professional\VC\Tools\MSVC\14.44.35207\include\vector

; 903  :         if (_Whereptr == _Mylast) { // at back, provide strong guarantee

  000ce	8b 4e 04	 mov	 ecx, DWORD PTR [esi+4]
  000d1	8b 06		 mov	 eax, DWORD PTR [esi]
  000d3	89 55 f0	 mov	 DWORD PTR tv642[ebp], edx
  000d6	3b d9		 cmp	 ebx, ecx
  000d8	75 04		 jne	 SHORT $LN3@Emplace_re

; 904  :             if constexpr (is_nothrow_move_constructible_v<_Ty> || !is_copy_constructible_v<_Ty>) {
; 905  :                 _STD _Uninitialized_move(_Myfirst, _Mylast, _Newvec, _Al);

  000da	8b d7		 mov	 edx, edi

; 906  :             } else {
; 907  :                 _STD _Uninitialized_copy(_Myfirst, _Mylast, _Newvec, _Al);
; 908  :             }
; 909  :         } else { // provide basic guarantee

  000dc	eb 14		 jmp	 SHORT $LN4@Emplace_re
$LN3@Emplace_re:

; 910  :             _STD _Uninitialized_move(_Myfirst, _Whereptr, _Newvec, _Al);

  000de	56		 push	 esi
  000df	57		 push	 edi
  000e0	53		 push	 ebx
  000e1	50		 push	 eax
  000e2	e8 00 00 00 00	 call	 ??$_Uninitialized_move@PAV?$shared_ptr@VCCandidate@@@std@@V?$allocator@V?$shared_ptr@VCCandidate@@@std@@@2@@std@@YAPAV?$shared_ptr@VCCandidate@@@0@QAV10@0PAV10@AAV?$allocator@V?$shared_ptr@VCCandidate@@@std@@@0@@Z ; std::_Uninitialized_move<std::shared_ptr<CCandidate> *,std::allocator<std::shared_ptr<CCandidate> > >

; 911  :             _Constructed_first = _Newvec;
; 912  :             _STD _Uninitialized_move(_Whereptr, _Mylast, _Newvec + _Whereoff + 1, _Al);

  000e7	8b 4e 04	 mov	 ecx, DWORD PTR [esi+4]
  000ea	83 c4 10	 add	 esp, 16			; 00000010H
  000ed	8b 55 f8	 mov	 edx, DWORD PTR $T1[ebp]
  000f0	8b c3		 mov	 eax, ebx
$LN4@Emplace_re:

; 913  :         }
; 914  : 
; 915  :         _Guard._New_begin = nullptr;

  000f2	56		 push	 esi
  000f3	52		 push	 edx
  000f4	51		 push	 ecx
  000f5	50		 push	 eax
  000f6	e8 00 00 00 00	 call	 ??$_Uninitialized_move@PAV?$shared_ptr@VCCandidate@@@std@@V?$allocator@V?$shared_ptr@VCCandidate@@@std@@@2@@std@@YAPAV?$shared_ptr@VCCandidate@@@0@QAV10@0PAV10@AAV?$allocator@V?$shared_ptr@VCCandidate@@@std@@@0@@Z ; std::_Uninitialized_move<std::shared_ptr<CCandidate> *,std::allocator<std::shared_ptr<CCandidate> > >

; 2069 :         if (_Myfirst) { // destroy and deallocate old array

  000fb	8b 06		 mov	 eax, DWORD PTR [esi]

; 913  :         }
; 914  : 
; 915  :         _Guard._New_begin = nullptr;

  000fd	83 c4 10	 add	 esp, 16			; 00000010H

; 2069 :         if (_Myfirst) { // destroy and deallocate old array

  00100	85 c0		 test	 eax, eax
  00102	74 3b		 je	 SHORT $LN50@Emplace_re

; 2070 :             _STD _Destroy_range(_Myfirst, _Mylast, _Al);

  00104	56		 push	 esi
  00105	ff 76 04	 push	 DWORD PTR [esi+4]
  00108	50		 push	 eax
  00109	e8 00 00 00 00	 call	 ??$_Destroy_range@V?$allocator@V?$shared_ptr@VCCandidate@@@std@@@std@@@std@@YAXPAV?$shared_ptr@VCCandidate@@@0@QAV10@AAV?$allocator@V?$shared_ptr@VCCandidate@@@std@@@0@@Z ; std::_Destroy_range<std::allocator<std::shared_ptr<CCandidate> > >

; 2071 :             _ASAN_VECTOR_REMOVE;
; 2072 :             _Al.deallocate(_Myfirst, static_cast<size_type>(_Myend - _Myfirst));

  0010e	8b 4e 08	 mov	 ecx, DWORD PTR [esi+8]
  00111	83 c4 0c	 add	 esp, 12			; 0000000cH
  00114	8b 06		 mov	 eax, DWORD PTR [esi]
  00116	2b c8		 sub	 ecx, eax
; File C:\Program Files\Microsoft Visual Studio\2022\Professional\VC\Tools\MSVC\14.44.35207\include\xmemory

; 985  :         _STD _Deallocate<_New_alignof<_Ty>>(_Ptr, sizeof(_Ty) * _Count);

  00118	83 e1 f8	 and	 ecx, -8			; fffffff8H

; 284  :         if (_Bytes >= _Big_allocation_threshold) {

  0011b	81 f9 00 10 00
	00		 cmp	 ecx, 4096		; 00001000H
  00121	72 12		 jb	 SHORT $LN55@Emplace_re

; 205  :     const uintptr_t _Ptr_container   = _Ptr_user[-1];

  00123	8b 50 fc	 mov	 edx, DWORD PTR [eax-4]
  00126	83 c1 23	 add	 ecx, 35			; 00000023H

; 206  : 
; 207  :     // If the following asserts, it likely means that we are performing
; 208  :     // an aligned delete on memory coming from an unaligned allocation.
; 209  :     _STL_ASSERT(_Ptr_user[-2] == _Big_allocation_sentinel, "invalid argument");
; 210  : 
; 211  :     // Extra paranoia on aligned allocation/deallocation; ensure _Ptr_container is
; 212  :     // in range [_Min_back_shift, _Non_user_size]
; 213  : #ifdef _DEBUG
; 214  :     constexpr uintptr_t _Min_back_shift = 2 * sizeof(void*);
; 215  : #else // ^^^ defined(_DEBUG) / !defined(_DEBUG) vvv
; 216  :     constexpr uintptr_t _Min_back_shift = sizeof(void*);
; 217  : #endif // ^^^ !defined(_DEBUG) ^^^
; 218  :     const uintptr_t _Back_shift = reinterpret_cast<uintptr_t>(_Ptr) - _Ptr_container;

  00129	2b c2		 sub	 eax, edx

; 219  :     _STL_VERIFY(_Back_shift >= _Min_back_shift && _Back_shift <= _Non_user_size, "invalid argument");

  0012b	83 c0 fc	 add	 eax, -4			; fffffffcH
  0012e	83 f8 1f	 cmp	 eax, 31			; 0000001fH
  00131	77 2b		 ja	 SHORT $LN54@Emplace_re

; 220  :     _Ptr = reinterpret_cast<void*>(_Ptr_container);

  00133	8b c2		 mov	 eax, edx
$LN55@Emplace_re:

; 289  :         ::operator delete(_Ptr, _Bytes);

  00135	51		 push	 ecx
  00136	50		 push	 eax
  00137	e8 00 00 00 00	 call	 ??3@YAXPAXI@Z		; operator delete
  0013c	83 c4 08	 add	 esp, 8
$LN50@Emplace_re:
; File C:\Program Files\Microsoft Visual Studio\2022\Professional\VC\Tools\MSVC\14.44.35207\include\vector

; 2076 :         _Mylast  = _Newvec + _Newsize;

  0013f	8b 45 f4	 mov	 eax, DWORD PTR __Newsize$1$[ebp]
  00142	89 3e		 mov	 DWORD PTR [esi], edi
  00144	8d 0c c7	 lea	 ecx, DWORD PTR [edi+eax*8]

; 916  :         _Change_array(_Newvec, _Newsize, _Newcapacity);
; 917  :         return _Newvec + _Whereoff;

  00147	8b 45 f0	 mov	 eax, DWORD PTR tv642[ebp]

; 2076 :         _Mylast  = _Newvec + _Newsize;

  0014a	89 4e 04	 mov	 DWORD PTR [esi+4], ecx

; 2077 :         _Myend   = _Newvec + _Newcapacity;

  0014d	8b 4d fc	 mov	 ecx, DWORD PTR tv627[ebp]
  00150	03 cf		 add	 ecx, edi

; 918  :     }

  00152	5f		 pop	 edi

; 2077 :         _Myend   = _Newvec + _Newcapacity;

  00153	89 4e 08	 mov	 DWORD PTR [esi+8], ecx

; 918  :     }

  00156	5e		 pop	 esi
  00157	5b		 pop	 ebx
  00158	8b e5		 mov	 esp, ebp
  0015a	5d		 pop	 ebp
  0015b	c2 08 00	 ret	 8
$LN54@Emplace_re:
; File C:\Program Files\Microsoft Visual Studio\2022\Professional\VC\Tools\MSVC\14.44.35207\include\xmemory

; 219  :     _STL_VERIFY(_Back_shift >= _Min_back_shift && _Back_shift <= _Non_user_size, "invalid argument");

  0015e	6a 00		 push	 0
  00160	6a 00		 push	 0
  00162	6a 00		 push	 0
  00164	6a 00		 push	 0
  00166	6a 00		 push	 0
  00168	e8 00 00 00 00	 call	 __invoke_watson
$LN89@Emplace_re:
; File C:\Program Files\Microsoft Visual Studio\2022\Professional\VC\Tools\MSVC\14.44.35207\include\vector

; 888  :             _Xlength();

  0016d	e8 00 00 00 00	 call	 ?_Xlength@?$vector@V?$shared_ptr@VCCandidate@@@std@@V?$allocator@V?$shared_ptr@VCCandidate@@@std@@@2@@std@@CAXXZ ; std::vector<std::shared_ptr<CCandidate>,std::allocator<std::shared_ptr<CCandidate> > >::_Xlength
$LN90@Emplace_re:
; File C:\Program Files\Microsoft Visual Studio\2022\Professional\VC\Tools\MSVC\14.44.35207\include\xmemory

; 118  :             _Throw_bad_array_new_length(); // multiply overflow

  00172	e8 00 00 00 00	 call	 ?_Throw_bad_array_new_length@std@@YAXXZ ; std::_Throw_bad_array_new_length
$LN86@Emplace_re:
  00177	cc		 int	 3
??$_Emplace_reallocate@V?$shared_ptr@VCCandidate@@@std@@@?$vector@V?$shared_ptr@VCCandidate@@@std@@V?$allocator@V?$shared_ptr@VCCandidate@@@std@@@2@@std@@AAEPAV?$shared_ptr@VCCandidate@@@1@QAV21@$$QAV21@@Z ENDP ; std::vector<std::shared_ptr<CCandidate>,std::allocator<std::shared_ptr<CCandidate> > >::_Emplace_reallocate<std::shared_ptr<CCandidate> >
_TEXT	ENDS
; Function compile flags: /Ogtp
; File C:\Program Files\Microsoft Visual Studio\2022\Professional\VC\Tools\MSVC\14.44.35207\include\vector
; File C:\Program Files\Microsoft Visual Studio\2022\Professional\VC\Tools\MSVC\14.44.35207\include\xmemory
; File C:\Program Files\Microsoft Visual Studio\2022\Professional\VC\Tools\MSVC\14.44.35207\include\vector
; File C:\Program Files\Microsoft Visual Studio\2022\Professional\VC\Tools\MSVC\14.44.35207\include\xmemory
; File C:\Program Files\Microsoft Visual Studio\2022\Professional\VC\Tools\MSVC\14.44.35207\include\vector
; File C:\Program Files\Microsoft Visual Studio\2022\Professional\VC\Tools\MSVC\14.44.35207\include\xmemory
; File C:\Program Files\Microsoft Visual Studio\2022\Professional\VC\Tools\MSVC\14.44.35207\include\vector
; File C:\Program Files\Microsoft Visual Studio\2022\Professional\VC\Tools\MSVC\14.44.35207\include\xmemory
; File C:\Program Files\Microsoft Visual Studio\2022\Professional\VC\Tools\MSVC\14.44.35207\include\vector
; File C:\Program Files\Microsoft Visual Studio\2022\Professional\VC\Tools\MSVC\14.44.35207\include\xmemory
; File C:\Program Files\Microsoft Visual Studio\2022\Professional\VC\Tools\MSVC\14.44.35207\include\vector
; File C:\Program Files\Microsoft Visual Studio\2022\Professional\VC\Tools\MSVC\14.44.35207\include\xmemory
; File C:\Program Files\Microsoft Visual Studio\2022\Professional\VC\Tools\MSVC\14.44.35207\include\vector
; File C:\Program Files\Microsoft Visual Studio\2022\Professional\VC\Tools\MSVC\14.44.35207\include\xmemory
; File C:\Program Files\Microsoft Visual Studio\2022\Professional\VC\Tools\MSVC\14.44.35207\include\vector
; File C:\Program Files\Microsoft Visual Studio\2022\Professional\VC\Tools\MSVC\14.44.35207\include\xmemory
; File C:\Program Files\Microsoft Visual Studio\2022\Professional\VC\Tools\MSVC\14.44.35207\include\vector
; File C:\Program Files\Microsoft Visual Studio\2022\Professional\VC\Tools\MSVC\14.44.35207\include\xmemory
; File C:\Program Files\Microsoft Visual Studio\2022\Professional\VC\Tools\MSVC\14.44.35207\include\vector
; File C:\Program Files\Microsoft Visual Studio\2022\Professional\VC\Tools\MSVC\14.44.35207\include\xmemory
; File C:\Program Files\Microsoft Visual Studio\2022\Professional\VC\Tools\MSVC\14.44.35207\include\vector
;	COMDAT ??$_Emplace_reallocate@ABM@?$vector@MV?$allocator@M@std@@@std@@AAEPAMQAMABM@Z
_TEXT	SEGMENT
__Newsize$1$ = -12					; size = 4
tv716 = -8						; size = 4
tv714 = -4						; size = 4
__Whereptr$ = 8						; size = 4
_<_Val_0>$ = 12						; size = 4
??$_Emplace_reallocate@ABM@?$vector@MV?$allocator@M@std@@@std@@AAEPAMQAMABM@Z PROC ; std::vector<float,std::allocator<float> >::_Emplace_reallocate<float const &>, COMDAT
; _this$ = ecx

; 875  :     _CONSTEXPR20 pointer _Emplace_reallocate(const pointer _Whereptr, _Valty&&... _Val) {

  00000	55		 push	 ebp
  00001	8b ec		 mov	 ebp, esp
  00003	83 ec 0c	 sub	 esp, 12			; 0000000cH
  00006	53		 push	 ebx

; 876  :         // reallocate and insert by perfectly forwarding _Val at _Whereptr
; 877  :         _Alty& _Al        = _Getal();
; 878  :         auto& _My_data    = _Mypair._Myval2;
; 879  :         pointer& _Myfirst = _My_data._Myfirst;
; 880  :         pointer& _Mylast  = _My_data._Mylast;
; 881  : 
; 882  :         _STL_INTERNAL_CHECK(_Mylast == _My_data._Myend); // check that we have no unused capacity
; 883  : 
; 884  :         const auto _Whereoff = static_cast<size_type>(_Whereptr - _Myfirst);

  00007	8b 5d 08	 mov	 ebx, DWORD PTR __Whereptr$[ebp]
  0000a	56		 push	 esi
  0000b	8b f1		 mov	 esi, ecx
  0000d	57		 push	 edi
  0000e	8b 0e		 mov	 ecx, DWORD PTR [esi]
  00010	2b d9		 sub	 ebx, ecx

; 885  :         const auto _Oldsize  = static_cast<size_type>(_Mylast - _Myfirst);

  00012	8b 46 04	 mov	 eax, DWORD PTR [esi+4]
  00015	2b c1		 sub	 eax, ecx
  00017	c1 fb 02	 sar	 ebx, 2
  0001a	c1 f8 02	 sar	 eax, 2

; 886  : 
; 887  :         if (_Oldsize == max_size()) {

  0001d	3d ff ff ff 3f	 cmp	 eax, 1073741823		; 3fffffffH
  00022	0f 84 13 01 00
	00		 je	 $LN119@Emplace_re

; 1924 :         return static_cast<size_type>(_My_data._Myend - _My_data._Myfirst);

  00028	8b 56 08	 mov	 edx, DWORD PTR [esi+8]

; 889  :         }
; 890  : 
; 891  :         const size_type _Newsize = _Oldsize + 1;

  0002b	8d 78 01	 lea	 edi, DWORD PTR [eax+1]

; 1924 :         return static_cast<size_type>(_My_data._Myend - _My_data._Myfirst);

  0002e	2b d1		 sub	 edx, ecx

; 889  :         }
; 890  : 
; 891  :         const size_type _Newsize = _Oldsize + 1;

  00030	89 7d f4	 mov	 DWORD PTR __Newsize$1$[ebp], edi

; 1924 :         return static_cast<size_type>(_My_data._Myend - _My_data._Myfirst);

  00033	c1 fa 02	 sar	 edx, 2

; 2011 :         if (_Oldcapacity > _Max - _Oldcapacity / 2) {

  00036	b8 ff ff ff 3f	 mov	 eax, 1073741823		; 3fffffffH
  0003b	8b ca		 mov	 ecx, edx
  0003d	d1 e9		 shr	 ecx, 1
  0003f	2b c1		 sub	 eax, ecx
  00041	3b d0		 cmp	 edx, eax
  00043	76 14		 jbe	 SHORT $LN8@Emplace_re

; 2012 :             return _Max; // geometric growth would overflow

  00045	b8 fc ff ff ff	 mov	 eax, -4			; fffffffcH
  0004a	c7 45 f8 fc ff
	ff ff		 mov	 DWORD PTR tv716[ebp], -4 ; fffffffcH
; File C:\Program Files\Microsoft Visual Studio\2022\Professional\VC\Tools\MSVC\14.44.35207\include\xmemory

; 253  :             return _Allocate_manually_vector_aligned<_Traits>(_Bytes);

  00051	50		 push	 eax
  00052	e8 00 00 00 00	 call	 ??$_Allocate_manually_vector_aligned@U_Default_allocate_traits@std@@@std@@YAPAXI@Z ; std::_Allocate_manually_vector_aligned<std::_Default_allocate_traits>
  00057	eb 3d		 jmp	 SHORT $LN117@Emplace_re
$LN8@Emplace_re:
; File C:\Program Files\Microsoft Visual Studio\2022\Professional\VC\Tools\MSVC\14.44.35207\include\vector

; 2015 :         const size_type _Geometric = _Oldcapacity + _Oldcapacity / 2;

  00059	8d 04 11	 lea	 eax, DWORD PTR [ecx+edx]
; File C:\Program Files\Microsoft Visual Studio\2022\Professional\VC\Tools\MSVC\14.44.35207\include\xmemory

; 117  :         if (_Count > _Max_possible) {

  0005c	8b cf		 mov	 ecx, edi
  0005e	3b c7		 cmp	 eax, edi
  00060	0f 43 c8	 cmovae	 ecx, eax
  00063	81 f9 ff ff ff
	3f		 cmp	 ecx, 1073741823		; 3fffffffH
  00069	0f 87 d1 00 00
	00		 ja	 $LN120@Emplace_re

; 119  :         }
; 120  :     }
; 121  : 
; 122  :     return _Count * _Ty_size;

  0006f	8d 04 8d 00 00
	00 00		 lea	 eax, DWORD PTR [ecx*4]
  00076	89 45 f8	 mov	 DWORD PTR tv716[ebp], eax

; 227  :     if (_Bytes == 0) {

  00079	85 c0		 test	 eax, eax
  0007b	75 04		 jne	 SHORT $LN23@Emplace_re

; 228  :         return nullptr;

  0007d	33 ff		 xor	 edi, edi
  0007f	eb 1a		 jmp	 SHORT $LN22@Emplace_re
$LN23@Emplace_re:

; 229  :     }
; 230  : 
; 231  : #if _HAS_CXX20 // TRANSITION, GH-1532
; 232  :     if (_STD is_constant_evaluated()) {
; 233  :         return _Traits::_Allocate(_Bytes);
; 234  :     }
; 235  : #endif // _HAS_CXX20
; 236  : 
; 237  : #ifdef __cpp_aligned_new
; 238  :     if constexpr (_Align > __STDCPP_DEFAULT_NEW_ALIGNMENT__) {
; 239  :         size_t _Passed_align = _Align;
; 240  : #if defined(_M_IX86) || defined(_M_X64)
; 241  :         if (_Bytes >= _Big_allocation_threshold) {
; 242  :             // boost the alignment of big allocations to help autovectorization
; 243  :             _Passed_align = (_STD max)(_Align, _Big_allocation_alignment);
; 244  :         }
; 245  : #endif // defined(_M_IX86) || defined(_M_X64)
; 246  :         return _Traits::_Allocate_aligned(_Bytes, _Passed_align);
; 247  :     } else
; 248  : #endif // defined(__cpp_aligned_new)
; 249  :     {
; 250  : #if defined(_M_IX86) || defined(_M_X64)
; 251  :         if (_Bytes >= _Big_allocation_threshold) {

  00081	3d 00 10 00 00	 cmp	 eax, 4096		; 00001000H
  00086	72 08		 jb	 SHORT $LN24@Emplace_re

; 253  :             return _Allocate_manually_vector_aligned<_Traits>(_Bytes);

  00088	50		 push	 eax
  00089	e8 00 00 00 00	 call	 ??$_Allocate_manually_vector_aligned@U_Default_allocate_traits@std@@@std@@YAPAXI@Z ; std::_Allocate_manually_vector_aligned<std::_Default_allocate_traits>
  0008e	eb 06		 jmp	 SHORT $LN117@Emplace_re
$LN24@Emplace_re:

; 136  :         return ::operator new(_Bytes);

  00090	50		 push	 eax
  00091	e8 00 00 00 00	 call	 ??2@YAPAXI@Z		; operator new
$LN117@Emplace_re:
; File C:\Program Files\Microsoft Visual Studio\2022\Professional\VC\Tools\MSVC\14.44.35207\include\vector

; 900  :         _Alty_traits::construct(_Al, _STD _Unfancy(_Newvec + _Whereoff), _STD forward<_Valty>(_Val)...);

  00096	8b f8		 mov	 edi, eax
  00098	83 c4 04	 add	 esp, 4
$LN22@Emplace_re:
; File C:\Program Files\Microsoft Visual Studio\2022\Professional\VC\Tools\MSVC\14.44.35207\include\xmemory

; 732  :         ::new (const_cast<void*>(static_cast<const volatile void*>(_Ptr))) _Objty(_STD forward<_Types>(_Args)...);

  0009b	8b 45 0c	 mov	 eax, DWORD PTR _<_Val_0>$[ebp]
; File C:\Program Files\Microsoft Visual Studio\2022\Professional\VC\Tools\MSVC\14.44.35207\include\vector

; 900  :         _Alty_traits::construct(_Al, _STD _Unfancy(_Newvec + _Whereoff), _STD forward<_Valty>(_Val)...);

  0009e	8d 0c 9f	 lea	 ecx, DWORD PTR [edi+ebx*4]

; 903  :         if (_Whereptr == _Mylast) { // at back, provide strong guarantee

  000a1	8b 5d 08	 mov	 ebx, DWORD PTR __Whereptr$[ebp]
  000a4	89 4d fc	 mov	 DWORD PTR tv714[ebp], ecx
; File C:\Program Files\Microsoft Visual Studio\2022\Professional\VC\Tools\MSVC\14.44.35207\include\xmemory

; 732  :         ::new (const_cast<void*>(static_cast<const volatile void*>(_Ptr))) _Objty(_STD forward<_Types>(_Args)...);

  000a7	8b 00		 mov	 eax, DWORD PTR [eax]
  000a9	89 01		 mov	 DWORD PTR [ecx], eax
; File C:\Program Files\Microsoft Visual Studio\2022\Professional\VC\Tools\MSVC\14.44.35207\include\vector

; 903  :         if (_Whereptr == _Mylast) { // at back, provide strong guarantee

  000ab	8b 46 04	 mov	 eax, DWORD PTR [esi+4]
  000ae	8b 0e		 mov	 ecx, DWORD PTR [esi]
  000b0	3b d8		 cmp	 ebx, eax
  000b2	75 07		 jne	 SHORT $LN3@Emplace_re

; 909  :         } else { // provide basic guarantee

  000b4	8b 5d fc	 mov	 ebx, DWORD PTR tv714[ebp]
; File C:\Program Files\Microsoft Visual Studio\2022\Professional\VC\Tools\MSVC\14.44.35207\include\xmemory

; 1992 :             _STD _Copy_memmove(_UFirst, _ULast, _STD _Unfancy(_Dest));

  000b7	8b d7		 mov	 edx, edi
; File C:\Program Files\Microsoft Visual Studio\2022\Professional\VC\Tools\MSVC\14.44.35207\include\vector

; 909  :         } else { // provide basic guarantee

  000b9	eb 16		 jmp	 SHORT $LN58@Emplace_re
$LN3@Emplace_re:
; File C:\Program Files\Microsoft Visual Studio\2022\Professional\VC\Tools\MSVC\14.44.35207\include\xmemory

; 1992 :             _STD _Copy_memmove(_UFirst, _ULast, _STD _Unfancy(_Dest));

  000bb	57		 push	 edi
  000bc	53		 push	 ebx
  000bd	51		 push	 ecx
  000be	e8 00 00 00 00	 call	 ??$_Copy_memmove@PAMPAM@std@@YAPAMPAM00@Z ; std::_Copy_memmove<float *,float *>
  000c3	8b 46 04	 mov	 eax, DWORD PTR [esi+4]
  000c6	8b cb		 mov	 ecx, ebx
; File C:\Program Files\Microsoft Visual Studio\2022\Professional\VC\Tools\MSVC\14.44.35207\include\vector

; 912  :             _STD _Uninitialized_move(_Whereptr, _Mylast, _Newvec + _Whereoff + 1, _Al);

  000c8	8b 5d fc	 mov	 ebx, DWORD PTR tv714[ebp]
; File C:\Program Files\Microsoft Visual Studio\2022\Professional\VC\Tools\MSVC\14.44.35207\include\xmemory

; 1992 :             _STD _Copy_memmove(_UFirst, _ULast, _STD _Unfancy(_Dest));

  000cb	83 c4 0c	 add	 esp, 12			; 0000000cH
; File C:\Program Files\Microsoft Visual Studio\2022\Professional\VC\Tools\MSVC\14.44.35207\include\vector

; 912  :             _STD _Uninitialized_move(_Whereptr, _Mylast, _Newvec + _Whereoff + 1, _Al);

  000ce	8d 53 04	 lea	 edx, DWORD PTR [ebx+4]
$LN58@Emplace_re:

; 913  :         }
; 914  : 
; 915  :         _Guard._New_begin = nullptr;

  000d1	52		 push	 edx
  000d2	50		 push	 eax
  000d3	51		 push	 ecx
  000d4	e8 00 00 00 00	 call	 ??$_Copy_memmove@PAMPAM@std@@YAPAMPAM00@Z ; std::_Copy_memmove<float *,float *>

; 2069 :         if (_Myfirst) { // destroy and deallocate old array

  000d9	8b 06		 mov	 eax, DWORD PTR [esi]

; 913  :         }
; 914  : 
; 915  :         _Guard._New_begin = nullptr;

  000db	83 c4 0c	 add	 esp, 12			; 0000000cH

; 2069 :         if (_Myfirst) { // destroy and deallocate old array

  000de	85 c0		 test	 eax, eax
  000e0	74 2c		 je	 SHORT $LN80@Emplace_re

; 2070 :             _STD _Destroy_range(_Myfirst, _Mylast, _Al);
; 2071 :             _ASAN_VECTOR_REMOVE;
; 2072 :             _Al.deallocate(_Myfirst, static_cast<size_type>(_Myend - _Myfirst));

  000e2	8b 4e 08	 mov	 ecx, DWORD PTR [esi+8]
  000e5	2b c8		 sub	 ecx, eax
; File C:\Program Files\Microsoft Visual Studio\2022\Professional\VC\Tools\MSVC\14.44.35207\include\xmemory

; 985  :         _STD _Deallocate<_New_alignof<_Ty>>(_Ptr, sizeof(_Ty) * _Count);

  000e7	83 e1 fc	 and	 ecx, -4			; fffffffcH

; 284  :         if (_Bytes >= _Big_allocation_threshold) {

  000ea	81 f9 00 10 00
	00		 cmp	 ecx, 4096		; 00001000H
  000f0	72 12		 jb	 SHORT $LN85@Emplace_re

; 205  :     const uintptr_t _Ptr_container   = _Ptr_user[-1];

  000f2	8b 50 fc	 mov	 edx, DWORD PTR [eax-4]
  000f5	83 c1 23	 add	 ecx, 35			; 00000023H

; 206  : 
; 207  :     // If the following asserts, it likely means that we are performing
; 208  :     // an aligned delete on memory coming from an unaligned allocation.
; 209  :     _STL_ASSERT(_Ptr_user[-2] == _Big_allocation_sentinel, "invalid argument");
; 210  : 
; 211  :     // Extra paranoia on aligned allocation/deallocation; ensure _Ptr_container is
; 212  :     // in range [_Min_back_shift, _Non_user_size]
; 213  : #ifdef _DEBUG
; 214  :     constexpr uintptr_t _Min_back_shift = 2 * sizeof(void*);
; 215  : #else // ^^^ defined(_DEBUG) / !defined(_DEBUG) vvv
; 216  :     constexpr uintptr_t _Min_back_shift = sizeof(void*);
; 217  : #endif // ^^^ !defined(_DEBUG) ^^^
; 218  :     const uintptr_t _Back_shift = reinterpret_cast<uintptr_t>(_Ptr) - _Ptr_container;

  000f8	2b c2		 sub	 eax, edx

; 219  :     _STL_VERIFY(_Back_shift >= _Min_back_shift && _Back_shift <= _Non_user_size, "invalid argument");

  000fa	83 c0 fc	 add	 eax, -4			; fffffffcH
  000fd	83 f8 1f	 cmp	 eax, 31			; 0000001fH
  00100	77 2a		 ja	 SHORT $LN84@Emplace_re

; 220  :     _Ptr = reinterpret_cast<void*>(_Ptr_container);

  00102	8b c2		 mov	 eax, edx
$LN85@Emplace_re:

; 289  :         ::operator delete(_Ptr, _Bytes);

  00104	51		 push	 ecx
  00105	50		 push	 eax
  00106	e8 00 00 00 00	 call	 ??3@YAXPAXI@Z		; operator delete
  0010b	83 c4 08	 add	 esp, 8
$LN80@Emplace_re:
; File C:\Program Files\Microsoft Visual Studio\2022\Professional\VC\Tools\MSVC\14.44.35207\include\vector

; 2076 :         _Mylast  = _Newvec + _Newsize;

  0010e	8b 45 f4	 mov	 eax, DWORD PTR __Newsize$1$[ebp]
  00111	89 3e		 mov	 DWORD PTR [esi], edi
  00113	8d 0c 87	 lea	 ecx, DWORD PTR [edi+eax*4]

; 916  :         _Change_array(_Newvec, _Newsize, _Newcapacity);
; 917  :         return _Newvec + _Whereoff;

  00116	8b c3		 mov	 eax, ebx

; 2076 :         _Mylast  = _Newvec + _Newsize;

  00118	89 4e 04	 mov	 DWORD PTR [esi+4], ecx

; 2077 :         _Myend   = _Newvec + _Newcapacity;

  0011b	8b 4d f8	 mov	 ecx, DWORD PTR tv716[ebp]
  0011e	03 cf		 add	 ecx, edi

; 918  :     }

  00120	5f		 pop	 edi

; 2077 :         _Myend   = _Newvec + _Newcapacity;

  00121	89 4e 08	 mov	 DWORD PTR [esi+8], ecx

; 918  :     }

  00124	5e		 pop	 esi
  00125	5b		 pop	 ebx
  00126	8b e5		 mov	 esp, ebp
  00128	5d		 pop	 ebp
  00129	c2 08 00	 ret	 8
$LN84@Emplace_re:
; File C:\Program Files\Microsoft Visual Studio\2022\Professional\VC\Tools\MSVC\14.44.35207\include\xmemory

; 219  :     _STL_VERIFY(_Back_shift >= _Min_back_shift && _Back_shift <= _Non_user_size, "invalid argument");

  0012c	6a 00		 push	 0
  0012e	6a 00		 push	 0
  00130	6a 00		 push	 0
  00132	6a 00		 push	 0
  00134	6a 00		 push	 0
  00136	e8 00 00 00 00	 call	 __invoke_watson
$LN119@Emplace_re:
; File C:\Program Files\Microsoft Visual Studio\2022\Professional\VC\Tools\MSVC\14.44.35207\include\vector

; 888  :             _Xlength();

  0013b	e8 00 00 00 00	 call	 ?_Xlength@?$vector@MV?$allocator@M@std@@@std@@CAXXZ ; std::vector<float,std::allocator<float> >::_Xlength
$LN120@Emplace_re:
; File C:\Program Files\Microsoft Visual Studio\2022\Professional\VC\Tools\MSVC\14.44.35207\include\xmemory

; 118  :             _Throw_bad_array_new_length(); // multiply overflow

  00140	e8 00 00 00 00	 call	 ?_Throw_bad_array_new_length@std@@YAXXZ ; std::_Throw_bad_array_new_length
$LN116@Emplace_re:
  00145	cc		 int	 3
??$_Emplace_reallocate@ABM@?$vector@MV?$allocator@M@std@@@std@@AAEPAMQAMABM@Z ENDP ; std::vector<float,std::allocator<float> >::_Emplace_reallocate<float const &>
_TEXT	ENDS
; Function compile flags: /Ogtp
; File C:\Program Files\Microsoft Visual Studio\2022\Professional\VC\Tools\MSVC\14.44.35207\include\vector
; File C:\Program Files\Microsoft Visual Studio\2022\Professional\VC\Tools\MSVC\14.44.35207\include\xmemory
; File C:\Program Files\Microsoft Visual Studio\2022\Professional\VC\Tools\MSVC\14.44.35207\include\vector
; File C:\Program Files\Microsoft Visual Studio\2022\Professional\VC\Tools\MSVC\14.44.35207\include\xmemory
; File C:\Program Files\Microsoft Visual Studio\2022\Professional\VC\Tools\MSVC\14.44.35207\include\vector
; File C:\Program Files\Microsoft Visual Studio\2022\Professional\VC\Tools\MSVC\14.44.35207\include\xmemory
; File C:\Program Files\Microsoft Visual Studio\2022\Professional\VC\Tools\MSVC\14.44.35207\include\vector
; File C:\Program Files\Microsoft Visual Studio\2022\Professional\VC\Tools\MSVC\14.44.35207\include\xmemory
; File C:\Program Files\Microsoft Visual Studio\2022\Professional\VC\Tools\MSVC\14.44.35207\include\vector
; File C:\Program Files\Microsoft Visual Studio\2022\Professional\VC\Tools\MSVC\14.44.35207\include\xmemory
; File C:\Program Files\Microsoft Visual Studio\2022\Professional\VC\Tools\MSVC\14.44.35207\include\vector
; File C:\Program Files\Microsoft Visual Studio\2022\Professional\VC\Tools\MSVC\14.44.35207\include\xmemory
; File C:\Program Files\Microsoft Visual Studio\2022\Professional\VC\Tools\MSVC\14.44.35207\include\vector
; File C:\Program Files\Microsoft Visual Studio\2022\Professional\VC\Tools\MSVC\14.44.35207\include\xmemory
; File C:\Program Files\Microsoft Visual Studio\2022\Professional\VC\Tools\MSVC\14.44.35207\include\vector
; File C:\Program Files\Microsoft Visual Studio\2022\Professional\VC\Tools\MSVC\14.44.35207\include\xmemory
; File C:\Program Files\Microsoft Visual Studio\2022\Professional\VC\Tools\MSVC\14.44.35207\include\vector
;	COMDAT ??$_Emplace_reallocate@ABH@?$vector@HV?$allocator@H@std@@@std@@AAEPAHQAHABH@Z
_TEXT	SEGMENT
__Newsize$1$ = -12					; size = 4
tv652 = -8						; size = 4
tv650 = -4						; size = 4
__Whereptr$ = 8						; size = 4
_<_Val_0>$ = 12						; size = 4
??$_Emplace_reallocate@ABH@?$vector@HV?$allocator@H@std@@@std@@AAEPAHQAHABH@Z PROC ; std::vector<int,std::allocator<int> >::_Emplace_reallocate<int const &>, COMDAT
; _this$ = ecx

; 875  :     _CONSTEXPR20 pointer _Emplace_reallocate(const pointer _Whereptr, _Valty&&... _Val) {

  00000	55		 push	 ebp
  00001	8b ec		 mov	 ebp, esp
  00003	83 ec 0c	 sub	 esp, 12			; 0000000cH
  00006	53		 push	 ebx

; 876  :         // reallocate and insert by perfectly forwarding _Val at _Whereptr
; 877  :         _Alty& _Al        = _Getal();
; 878  :         auto& _My_data    = _Mypair._Myval2;
; 879  :         pointer& _Myfirst = _My_data._Myfirst;
; 880  :         pointer& _Mylast  = _My_data._Mylast;
; 881  : 
; 882  :         _STL_INTERNAL_CHECK(_Mylast == _My_data._Myend); // check that we have no unused capacity
; 883  : 
; 884  :         const auto _Whereoff = static_cast<size_type>(_Whereptr - _Myfirst);

  00007	8b 5d 08	 mov	 ebx, DWORD PTR __Whereptr$[ebp]
  0000a	56		 push	 esi
  0000b	8b f1		 mov	 esi, ecx
  0000d	57		 push	 edi
  0000e	8b 0e		 mov	 ecx, DWORD PTR [esi]
  00010	2b d9		 sub	 ebx, ecx

; 885  :         const auto _Oldsize  = static_cast<size_type>(_Mylast - _Myfirst);

  00012	8b 46 04	 mov	 eax, DWORD PTR [esi+4]
  00015	2b c1		 sub	 eax, ecx
  00017	c1 fb 02	 sar	 ebx, 2
  0001a	c1 f8 02	 sar	 eax, 2

; 886  : 
; 887  :         if (_Oldsize == max_size()) {

  0001d	3d ff ff ff 3f	 cmp	 eax, 1073741823		; 3fffffffH
  00022	0f 84 13 01 00
	00		 je	 $LN111@Emplace_re

; 1924 :         return static_cast<size_type>(_My_data._Myend - _My_data._Myfirst);

  00028	8b 56 08	 mov	 edx, DWORD PTR [esi+8]

; 889  :         }
; 890  : 
; 891  :         const size_type _Newsize = _Oldsize + 1;

  0002b	8d 78 01	 lea	 edi, DWORD PTR [eax+1]

; 1924 :         return static_cast<size_type>(_My_data._Myend - _My_data._Myfirst);

  0002e	2b d1		 sub	 edx, ecx

; 889  :         }
; 890  : 
; 891  :         const size_type _Newsize = _Oldsize + 1;

  00030	89 7d f4	 mov	 DWORD PTR __Newsize$1$[ebp], edi

; 1924 :         return static_cast<size_type>(_My_data._Myend - _My_data._Myfirst);

  00033	c1 fa 02	 sar	 edx, 2

; 2011 :         if (_Oldcapacity > _Max - _Oldcapacity / 2) {

  00036	b8 ff ff ff 3f	 mov	 eax, 1073741823		; 3fffffffH
  0003b	8b ca		 mov	 ecx, edx
  0003d	d1 e9		 shr	 ecx, 1
  0003f	2b c1		 sub	 eax, ecx
  00041	3b d0		 cmp	 edx, eax
  00043	76 14		 jbe	 SHORT $LN8@Emplace_re

; 2012 :             return _Max; // geometric growth would overflow

  00045	b8 fc ff ff ff	 mov	 eax, -4			; fffffffcH
  0004a	c7 45 f8 fc ff
	ff ff		 mov	 DWORD PTR tv652[ebp], -4 ; fffffffcH
; File C:\Program Files\Microsoft Visual Studio\2022\Professional\VC\Tools\MSVC\14.44.35207\include\xmemory

; 253  :             return _Allocate_manually_vector_aligned<_Traits>(_Bytes);

  00051	50		 push	 eax
  00052	e8 00 00 00 00	 call	 ??$_Allocate_manually_vector_aligned@U_Default_allocate_traits@std@@@std@@YAPAXI@Z ; std::_Allocate_manually_vector_aligned<std::_Default_allocate_traits>
  00057	eb 3d		 jmp	 SHORT $LN109@Emplace_re
$LN8@Emplace_re:
; File C:\Program Files\Microsoft Visual Studio\2022\Professional\VC\Tools\MSVC\14.44.35207\include\vector

; 2015 :         const size_type _Geometric = _Oldcapacity + _Oldcapacity / 2;

  00059	8d 04 11	 lea	 eax, DWORD PTR [ecx+edx]
; File C:\Program Files\Microsoft Visual Studio\2022\Professional\VC\Tools\MSVC\14.44.35207\include\xmemory

; 117  :         if (_Count > _Max_possible) {

  0005c	8b cf		 mov	 ecx, edi
  0005e	3b c7		 cmp	 eax, edi
  00060	0f 43 c8	 cmovae	 ecx, eax
  00063	81 f9 ff ff ff
	3f		 cmp	 ecx, 1073741823		; 3fffffffH
  00069	0f 87 d1 00 00
	00		 ja	 $LN112@Emplace_re

; 119  :         }
; 120  :     }
; 121  : 
; 122  :     return _Count * _Ty_size;

  0006f	8d 04 8d 00 00
	00 00		 lea	 eax, DWORD PTR [ecx*4]
  00076	89 45 f8	 mov	 DWORD PTR tv652[ebp], eax

; 227  :     if (_Bytes == 0) {

  00079	85 c0		 test	 eax, eax
  0007b	75 04		 jne	 SHORT $LN23@Emplace_re

; 228  :         return nullptr;

  0007d	33 ff		 xor	 edi, edi
  0007f	eb 1a		 jmp	 SHORT $LN22@Emplace_re
$LN23@Emplace_re:

; 229  :     }
; 230  : 
; 231  : #if _HAS_CXX20 // TRANSITION, GH-1532
; 232  :     if (_STD is_constant_evaluated()) {
; 233  :         return _Traits::_Allocate(_Bytes);
; 234  :     }
; 235  : #endif // _HAS_CXX20
; 236  : 
; 237  : #ifdef __cpp_aligned_new
; 238  :     if constexpr (_Align > __STDCPP_DEFAULT_NEW_ALIGNMENT__) {
; 239  :         size_t _Passed_align = _Align;
; 240  : #if defined(_M_IX86) || defined(_M_X64)
; 241  :         if (_Bytes >= _Big_allocation_threshold) {
; 242  :             // boost the alignment of big allocations to help autovectorization
; 243  :             _Passed_align = (_STD max)(_Align, _Big_allocation_alignment);
; 244  :         }
; 245  : #endif // defined(_M_IX86) || defined(_M_X64)
; 246  :         return _Traits::_Allocate_aligned(_Bytes, _Passed_align);
; 247  :     } else
; 248  : #endif // defined(__cpp_aligned_new)
; 249  :     {
; 250  : #if defined(_M_IX86) || defined(_M_X64)
; 251  :         if (_Bytes >= _Big_allocation_threshold) {

  00081	3d 00 10 00 00	 cmp	 eax, 4096		; 00001000H
  00086	72 08		 jb	 SHORT $LN24@Emplace_re

; 253  :             return _Allocate_manually_vector_aligned<_Traits>(_Bytes);

  00088	50		 push	 eax
  00089	e8 00 00 00 00	 call	 ??$_Allocate_manually_vector_aligned@U_Default_allocate_traits@std@@@std@@YAPAXI@Z ; std::_Allocate_manually_vector_aligned<std::_Default_allocate_traits>
  0008e	eb 06		 jmp	 SHORT $LN109@Emplace_re
$LN24@Emplace_re:

; 136  :         return ::operator new(_Bytes);

  00090	50		 push	 eax
  00091	e8 00 00 00 00	 call	 ??2@YAPAXI@Z		; operator new
$LN109@Emplace_re:
; File C:\Program Files\Microsoft Visual Studio\2022\Professional\VC\Tools\MSVC\14.44.35207\include\vector

; 900  :         _Alty_traits::construct(_Al, _STD _Unfancy(_Newvec + _Whereoff), _STD forward<_Valty>(_Val)...);

  00096	8b f8		 mov	 edi, eax
  00098	83 c4 04	 add	 esp, 4
$LN22@Emplace_re:
  0009b	8b 45 0c	 mov	 eax, DWORD PTR _<_Val_0>$[ebp]
  0009e	8d 0c 9f	 lea	 ecx, DWORD PTR [edi+ebx*4]

; 901  :         _Constructed_first = _Newvec + _Whereoff;
; 902  : 
; 903  :         if (_Whereptr == _Mylast) { // at back, provide strong guarantee

  000a1	8b 5d 08	 mov	 ebx, DWORD PTR __Whereptr$[ebp]
  000a4	89 4d fc	 mov	 DWORD PTR tv650[ebp], ecx
  000a7	8b 00		 mov	 eax, DWORD PTR [eax]
  000a9	89 01		 mov	 DWORD PTR [ecx], eax
  000ab	8b 46 04	 mov	 eax, DWORD PTR [esi+4]
  000ae	8b 0e		 mov	 ecx, DWORD PTR [esi]
  000b0	3b d8		 cmp	 ebx, eax
  000b2	75 07		 jne	 SHORT $LN3@Emplace_re

; 909  :         } else { // provide basic guarantee

  000b4	8b 5d fc	 mov	 ebx, DWORD PTR tv650[ebp]
; File C:\Program Files\Microsoft Visual Studio\2022\Professional\VC\Tools\MSVC\14.44.35207\include\xmemory

; 1992 :             _STD _Copy_memmove(_UFirst, _ULast, _STD _Unfancy(_Dest));

  000b7	8b d7		 mov	 edx, edi
; File C:\Program Files\Microsoft Visual Studio\2022\Professional\VC\Tools\MSVC\14.44.35207\include\vector

; 909  :         } else { // provide basic guarantee

  000b9	eb 16		 jmp	 SHORT $LN52@Emplace_re
$LN3@Emplace_re:
; File C:\Program Files\Microsoft Visual Studio\2022\Professional\VC\Tools\MSVC\14.44.35207\include\xmemory

; 1992 :             _STD _Copy_memmove(_UFirst, _ULast, _STD _Unfancy(_Dest));

  000bb	57		 push	 edi
  000bc	53		 push	 ebx
  000bd	51		 push	 ecx
  000be	e8 00 00 00 00	 call	 ??$_Copy_memmove@PAHPAH@std@@YAPAHPAH00@Z ; std::_Copy_memmove<int *,int *>
  000c3	8b 46 04	 mov	 eax, DWORD PTR [esi+4]
  000c6	8b cb		 mov	 ecx, ebx
; File C:\Program Files\Microsoft Visual Studio\2022\Professional\VC\Tools\MSVC\14.44.35207\include\vector

; 912  :             _STD _Uninitialized_move(_Whereptr, _Mylast, _Newvec + _Whereoff + 1, _Al);

  000c8	8b 5d fc	 mov	 ebx, DWORD PTR tv650[ebp]
; File C:\Program Files\Microsoft Visual Studio\2022\Professional\VC\Tools\MSVC\14.44.35207\include\xmemory

; 1992 :             _STD _Copy_memmove(_UFirst, _ULast, _STD _Unfancy(_Dest));

  000cb	83 c4 0c	 add	 esp, 12			; 0000000cH
; File C:\Program Files\Microsoft Visual Studio\2022\Professional\VC\Tools\MSVC\14.44.35207\include\vector

; 912  :             _STD _Uninitialized_move(_Whereptr, _Mylast, _Newvec + _Whereoff + 1, _Al);

  000ce	8d 53 04	 lea	 edx, DWORD PTR [ebx+4]
$LN52@Emplace_re:

; 913  :         }
; 914  : 
; 915  :         _Guard._New_begin = nullptr;

  000d1	52		 push	 edx
  000d2	50		 push	 eax
  000d3	51		 push	 ecx
  000d4	e8 00 00 00 00	 call	 ??$_Copy_memmove@PAHPAH@std@@YAPAHPAH00@Z ; std::_Copy_memmove<int *,int *>

; 2069 :         if (_Myfirst) { // destroy and deallocate old array

  000d9	8b 06		 mov	 eax, DWORD PTR [esi]

; 913  :         }
; 914  : 
; 915  :         _Guard._New_begin = nullptr;

  000db	83 c4 0c	 add	 esp, 12			; 0000000cH

; 2069 :         if (_Myfirst) { // destroy and deallocate old array

  000de	85 c0		 test	 eax, eax
  000e0	74 2c		 je	 SHORT $LN72@Emplace_re

; 2070 :             _STD _Destroy_range(_Myfirst, _Mylast, _Al);
; 2071 :             _ASAN_VECTOR_REMOVE;
; 2072 :             _Al.deallocate(_Myfirst, static_cast<size_type>(_Myend - _Myfirst));

  000e2	8b 4e 08	 mov	 ecx, DWORD PTR [esi+8]
  000e5	2b c8		 sub	 ecx, eax
; File C:\Program Files\Microsoft Visual Studio\2022\Professional\VC\Tools\MSVC\14.44.35207\include\xmemory

; 985  :         _STD _Deallocate<_New_alignof<_Ty>>(_Ptr, sizeof(_Ty) * _Count);

  000e7	83 e1 fc	 and	 ecx, -4			; fffffffcH

; 284  :         if (_Bytes >= _Big_allocation_threshold) {

  000ea	81 f9 00 10 00
	00		 cmp	 ecx, 4096		; 00001000H
  000f0	72 12		 jb	 SHORT $LN77@Emplace_re

; 205  :     const uintptr_t _Ptr_container   = _Ptr_user[-1];

  000f2	8b 50 fc	 mov	 edx, DWORD PTR [eax-4]
  000f5	83 c1 23	 add	 ecx, 35			; 00000023H

; 206  : 
; 207  :     // If the following asserts, it likely means that we are performing
; 208  :     // an aligned delete on memory coming from an unaligned allocation.
; 209  :     _STL_ASSERT(_Ptr_user[-2] == _Big_allocation_sentinel, "invalid argument");
; 210  : 
; 211  :     // Extra paranoia on aligned allocation/deallocation; ensure _Ptr_container is
; 212  :     // in range [_Min_back_shift, _Non_user_size]
; 213  : #ifdef _DEBUG
; 214  :     constexpr uintptr_t _Min_back_shift = 2 * sizeof(void*);
; 215  : #else // ^^^ defined(_DEBUG) / !defined(_DEBUG) vvv
; 216  :     constexpr uintptr_t _Min_back_shift = sizeof(void*);
; 217  : #endif // ^^^ !defined(_DEBUG) ^^^
; 218  :     const uintptr_t _Back_shift = reinterpret_cast<uintptr_t>(_Ptr) - _Ptr_container;

  000f8	2b c2		 sub	 eax, edx

; 219  :     _STL_VERIFY(_Back_shift >= _Min_back_shift && _Back_shift <= _Non_user_size, "invalid argument");

  000fa	83 c0 fc	 add	 eax, -4			; fffffffcH
  000fd	83 f8 1f	 cmp	 eax, 31			; 0000001fH
  00100	77 2a		 ja	 SHORT $LN76@Emplace_re

; 220  :     _Ptr = reinterpret_cast<void*>(_Ptr_container);

  00102	8b c2		 mov	 eax, edx
$LN77@Emplace_re:

; 289  :         ::operator delete(_Ptr, _Bytes);

  00104	51		 push	 ecx
  00105	50		 push	 eax
  00106	e8 00 00 00 00	 call	 ??3@YAXPAXI@Z		; operator delete
  0010b	83 c4 08	 add	 esp, 8
$LN72@Emplace_re:
; File C:\Program Files\Microsoft Visual Studio\2022\Professional\VC\Tools\MSVC\14.44.35207\include\vector

; 2076 :         _Mylast  = _Newvec + _Newsize;

  0010e	8b 45 f4	 mov	 eax, DWORD PTR __Newsize$1$[ebp]
  00111	89 3e		 mov	 DWORD PTR [esi], edi
  00113	8d 0c 87	 lea	 ecx, DWORD PTR [edi+eax*4]

; 916  :         _Change_array(_Newvec, _Newsize, _Newcapacity);
; 917  :         return _Newvec + _Whereoff;

  00116	8b c3		 mov	 eax, ebx

; 2076 :         _Mylast  = _Newvec + _Newsize;

  00118	89 4e 04	 mov	 DWORD PTR [esi+4], ecx

; 2077 :         _Myend   = _Newvec + _Newcapacity;

  0011b	8b 4d f8	 mov	 ecx, DWORD PTR tv652[ebp]
  0011e	03 cf		 add	 ecx, edi

; 918  :     }

  00120	5f		 pop	 edi

; 2077 :         _Myend   = _Newvec + _Newcapacity;

  00121	89 4e 08	 mov	 DWORD PTR [esi+8], ecx

; 918  :     }

  00124	5e		 pop	 esi
  00125	5b		 pop	 ebx
  00126	8b e5		 mov	 esp, ebp
  00128	5d		 pop	 ebp
  00129	c2 08 00	 ret	 8
$LN76@Emplace_re:
; File C:\Program Files\Microsoft Visual Studio\2022\Professional\VC\Tools\MSVC\14.44.35207\include\xmemory

; 219  :     _STL_VERIFY(_Back_shift >= _Min_back_shift && _Back_shift <= _Non_user_size, "invalid argument");

  0012c	6a 00		 push	 0
  0012e	6a 00		 push	 0
  00130	6a 00		 push	 0
  00132	6a 00		 push	 0
  00134	6a 00		 push	 0
  00136	e8 00 00 00 00	 call	 __invoke_watson
$LN111@Emplace_re:
; File C:\Program Files\Microsoft Visual Studio\2022\Professional\VC\Tools\MSVC\14.44.35207\include\vector

; 888  :             _Xlength();

  0013b	e8 00 00 00 00	 call	 ?_Xlength@?$vector@HV?$allocator@H@std@@@std@@CAXXZ ; std::vector<int,std::allocator<int> >::_Xlength
$LN112@Emplace_re:
; File C:\Program Files\Microsoft Visual Studio\2022\Professional\VC\Tools\MSVC\14.44.35207\include\xmemory

; 118  :             _Throw_bad_array_new_length(); // multiply overflow

  00140	e8 00 00 00 00	 call	 ?_Throw_bad_array_new_length@std@@YAXXZ ; std::_Throw_bad_array_new_length
$LN108@Emplace_re:
  00145	cc		 int	 3
??$_Emplace_reallocate@ABH@?$vector@HV?$allocator@H@std@@@std@@AAEPAHQAHABH@Z ENDP ; std::vector<int,std::allocator<int> >::_Emplace_reallocate<int const &>
_TEXT	ENDS
; Function compile flags: /Ogtp
; File C:\Program Files\Microsoft Visual Studio\2022\Professional\VC\Tools\MSVC\14.44.35207\include\vector
; File C:\Program Files\Microsoft Visual Studio\2022\Professional\VC\Tools\MSVC\14.44.35207\include\xmemory
; File C:\Program Files\Microsoft Visual Studio\2022\Professional\VC\Tools\MSVC\14.44.35207\include\vector
; File C:\Program Files\Microsoft Visual Studio\2022\Professional\VC\Tools\MSVC\14.44.35207\include\xmemory
; File C:\Program Files\Microsoft Visual Studio\2022\Professional\VC\Tools\MSVC\14.44.35207\include\vector
; File C:\Program Files\Microsoft Visual Studio\2022\Professional\VC\Tools\MSVC\14.44.35207\include\xmemory
; File C:\Program Files\Microsoft Visual Studio\2022\Professional\VC\Tools\MSVC\14.44.35207\include\vector
; File C:\Program Files\Microsoft Visual Studio\2022\Professional\VC\Tools\MSVC\14.44.35207\include\xmemory
; File C:\Program Files\Microsoft Visual Studio\2022\Professional\VC\Tools\MSVC\14.44.35207\include\vector
; File C:\Program Files\Microsoft Visual Studio\2022\Professional\VC\Tools\MSVC\14.44.35207\include\xmemory
; File C:\Program Files\Microsoft Visual Studio\2022\Professional\VC\Tools\MSVC\14.44.35207\include\vector
; File C:\Program Files\Microsoft Visual Studio\2022\Professional\VC\Tools\MSVC\14.44.35207\include\xmemory
; File C:\Program Files\Microsoft Visual Studio\2022\Professional\VC\Tools\MSVC\14.44.35207\include\vector
; File C:\Program Files\Microsoft Visual Studio\2022\Professional\VC\Tools\MSVC\14.44.35207\include\xmemory
; File C:\Program Files\Microsoft Visual Studio\2022\Professional\VC\Tools\MSVC\14.44.35207\include\vector
; File C:\Program Files\Microsoft Visual Studio\2022\Professional\VC\Tools\MSVC\14.44.35207\include\xmemory
; File C:\Program Files\Microsoft Visual Studio\2022\Professional\VC\Tools\MSVC\14.44.35207\include\vector
; File C:\Program Files\Microsoft Visual Studio\2022\Professional\VC\Tools\MSVC\14.44.35207\include\xmemory
; File C:\Program Files\Microsoft Visual Studio\2022\Professional\VC\Tools\MSVC\14.44.35207\include\vector
; File C:\Program Files\Microsoft Visual Studio\2022\Professional\VC\Tools\MSVC\14.44.35207\include\xmemory
; File C:\Program Files\Microsoft Visual Studio\2022\Professional\VC\Tools\MSVC\14.44.35207\include\vector
;	COMDAT ??$_Emplace_reallocate@U?$pair@M_J@std@@@?$vector@U?$pair@M_J@std@@V?$allocator@U?$pair@M_J@std@@@2@@std@@AAEPAU?$pair@M_J@1@QAU21@$$QAU21@@Z
_TEXT	SEGMENT
__Newsize$1$ = -12					; size = 4
$T1 = -8						; size = 4
tv710 = -4						; size = 4
__Whereptr$ = 8						; size = 4
_<_Val_0>$ = 12						; size = 4
??$_Emplace_reallocate@U?$pair@M_J@std@@@?$vector@U?$pair@M_J@std@@V?$allocator@U?$pair@M_J@std@@@2@@std@@AAEPAU?$pair@M_J@1@QAU21@$$QAU21@@Z PROC ; std::vector<std::pair<float,__int64>,std::allocator<std::pair<float,__int64> > >::_Emplace_reallocate<std::pair<float,__int64> >, COMDAT
; _this$ = ecx

; 875  :     _CONSTEXPR20 pointer _Emplace_reallocate(const pointer _Whereptr, _Valty&&... _Val) {

  00000	55		 push	 ebp
  00001	8b ec		 mov	 ebp, esp
  00003	83 ec 0c	 sub	 esp, 12			; 0000000cH
  00006	53		 push	 ebx

; 876  :         // reallocate and insert by perfectly forwarding _Val at _Whereptr
; 877  :         _Alty& _Al        = _Getal();
; 878  :         auto& _My_data    = _Mypair._Myval2;
; 879  :         pointer& _Myfirst = _My_data._Myfirst;
; 880  :         pointer& _Mylast  = _My_data._Mylast;
; 881  : 
; 882  :         _STL_INTERNAL_CHECK(_Mylast == _My_data._Myend); // check that we have no unused capacity
; 883  : 
; 884  :         const auto _Whereoff = static_cast<size_type>(_Whereptr - _Myfirst);

  00007	8b 5d 08	 mov	 ebx, DWORD PTR __Whereptr$[ebp]
  0000a	56		 push	 esi
  0000b	8b f1		 mov	 esi, ecx
  0000d	57		 push	 edi
  0000e	8b 0e		 mov	 ecx, DWORD PTR [esi]
  00010	2b d9		 sub	 ebx, ecx

; 885  :         const auto _Oldsize  = static_cast<size_type>(_Mylast - _Myfirst);

  00012	8b 46 04	 mov	 eax, DWORD PTR [esi+4]
  00015	2b c1		 sub	 eax, ecx
  00017	c1 f8 04	 sar	 eax, 4

; 886  : 
; 887  :         if (_Oldsize == max_size()) {

  0001a	3d ff ff ff 0f	 cmp	 eax, 268435455		; 0fffffffH
  0001f	0f 84 18 01 00
	00		 je	 $LN119@Emplace_re

; 1924 :         return static_cast<size_type>(_My_data._Myend - _My_data._Myfirst);

  00025	8b 7e 08	 mov	 edi, DWORD PTR [esi+8]

; 889  :         }
; 890  : 
; 891  :         const size_type _Newsize = _Oldsize + 1;

  00028	8d 50 01	 lea	 edx, DWORD PTR [eax+1]

; 1924 :         return static_cast<size_type>(_My_data._Myend - _My_data._Myfirst);

  0002b	2b f9		 sub	 edi, ecx

; 889  :         }
; 890  : 
; 891  :         const size_type _Newsize = _Oldsize + 1;

  0002d	89 55 f4	 mov	 DWORD PTR __Newsize$1$[ebp], edx

; 1924 :         return static_cast<size_type>(_My_data._Myend - _My_data._Myfirst);

  00030	c1 ff 04	 sar	 edi, 4

; 2011 :         if (_Oldcapacity > _Max - _Oldcapacity / 2) {

  00033	b8 ff ff ff 0f	 mov	 eax, 268435455		; 0fffffffH
  00038	8b cf		 mov	 ecx, edi
  0003a	d1 e9		 shr	 ecx, 1
  0003c	2b c1		 sub	 eax, ecx
  0003e	3b f8		 cmp	 edi, eax
  00040	76 14		 jbe	 SHORT $LN8@Emplace_re

; 2012 :             return _Max; // geometric growth would overflow

  00042	b8 f0 ff ff ff	 mov	 eax, -16		; fffffff0H
  00047	c7 45 f8 f0 ff
	ff ff		 mov	 DWORD PTR $T1[ebp], -16	; fffffff0H
; File C:\Program Files\Microsoft Visual Studio\2022\Professional\VC\Tools\MSVC\14.44.35207\include\xmemory

; 253  :             return _Allocate_manually_vector_aligned<_Traits>(_Bytes);

  0004e	50		 push	 eax
  0004f	e8 00 00 00 00	 call	 ??$_Allocate_manually_vector_aligned@U_Default_allocate_traits@std@@@std@@YAPAXI@Z ; std::_Allocate_manually_vector_aligned<std::_Default_allocate_traits>
  00054	eb 3b		 jmp	 SHORT $LN117@Emplace_re
$LN8@Emplace_re:
; File C:\Program Files\Microsoft Visual Studio\2022\Professional\VC\Tools\MSVC\14.44.35207\include\vector

; 2015 :         const size_type _Geometric = _Oldcapacity + _Oldcapacity / 2;

  00056	8d 04 39	 lea	 eax, DWORD PTR [ecx+edi]
; File C:\Program Files\Microsoft Visual Studio\2022\Professional\VC\Tools\MSVC\14.44.35207\include\xmemory

; 117  :         if (_Count > _Max_possible) {

  00059	8b ca		 mov	 ecx, edx
  0005b	3b c2		 cmp	 eax, edx
  0005d	0f 43 c8	 cmovae	 ecx, eax
  00060	81 f9 ff ff ff
	0f		 cmp	 ecx, 268435455		; 0fffffffH
  00066	0f 87 d6 00 00
	00		 ja	 $LN120@Emplace_re

; 119  :         }
; 120  :     }
; 121  : 
; 122  :     return _Count * _Ty_size;

  0006c	c1 e1 04	 shl	 ecx, 4

; 990  :         return static_cast<_Ty*>(_STD _Allocate<_New_alignof<_Ty>>(_Get_size_of_n<sizeof(_Ty)>(_Count)));

  0006f	8b c1		 mov	 eax, ecx

; 122  :     return _Count * _Ty_size;

  00071	89 4d f8	 mov	 DWORD PTR $T1[ebp], ecx

; 227  :     if (_Bytes == 0) {

  00074	85 c0		 test	 eax, eax
  00076	75 04		 jne	 SHORT $LN23@Emplace_re

; 228  :         return nullptr;

  00078	33 ff		 xor	 edi, edi
  0007a	eb 1a		 jmp	 SHORT $LN22@Emplace_re
$LN23@Emplace_re:

; 229  :     }
; 230  : 
; 231  : #if _HAS_CXX20 // TRANSITION, GH-1532
; 232  :     if (_STD is_constant_evaluated()) {
; 233  :         return _Traits::_Allocate(_Bytes);
; 234  :     }
; 235  : #endif // _HAS_CXX20
; 236  : 
; 237  : #ifdef __cpp_aligned_new
; 238  :     if constexpr (_Align > __STDCPP_DEFAULT_NEW_ALIGNMENT__) {
; 239  :         size_t _Passed_align = _Align;
; 240  : #if defined(_M_IX86) || defined(_M_X64)
; 241  :         if (_Bytes >= _Big_allocation_threshold) {
; 242  :             // boost the alignment of big allocations to help autovectorization
; 243  :             _Passed_align = (_STD max)(_Align, _Big_allocation_alignment);
; 244  :         }
; 245  : #endif // defined(_M_IX86) || defined(_M_X64)
; 246  :         return _Traits::_Allocate_aligned(_Bytes, _Passed_align);
; 247  :     } else
; 248  : #endif // defined(__cpp_aligned_new)
; 249  :     {
; 250  : #if defined(_M_IX86) || defined(_M_X64)
; 251  :         if (_Bytes >= _Big_allocation_threshold) {

  0007c	3d 00 10 00 00	 cmp	 eax, 4096		; 00001000H
  00081	72 08		 jb	 SHORT $LN24@Emplace_re

; 253  :             return _Allocate_manually_vector_aligned<_Traits>(_Bytes);

  00083	50		 push	 eax
  00084	e8 00 00 00 00	 call	 ??$_Allocate_manually_vector_aligned@U_Default_allocate_traits@std@@@std@@YAPAXI@Z ; std::_Allocate_manually_vector_aligned<std::_Default_allocate_traits>
  00089	eb 06		 jmp	 SHORT $LN117@Emplace_re
$LN24@Emplace_re:

; 136  :         return ::operator new(_Bytes);

  0008b	50		 push	 eax
  0008c	e8 00 00 00 00	 call	 ??2@YAPAXI@Z		; operator new
$LN117@Emplace_re:
; File C:\Program Files\Microsoft Visual Studio\2022\Professional\VC\Tools\MSVC\14.44.35207\include\vector

; 900  :         _Alty_traits::construct(_Al, _STD _Unfancy(_Newvec + _Whereoff), _STD forward<_Valty>(_Val)...);

  00091	8b f8		 mov	 edi, eax
  00093	83 c4 04	 add	 esp, 4
$LN22@Emplace_re:
; File C:\Program Files\Microsoft Visual Studio\2022\Professional\VC\Tools\MSVC\14.44.35207\include\xmemory

; 732  :         ::new (const_cast<void*>(static_cast<const volatile void*>(_Ptr))) _Objty(_STD forward<_Types>(_Args)...);

  00096	8b 45 0c	 mov	 eax, DWORD PTR _<_Val_0>$[ebp]
; File C:\Program Files\Microsoft Visual Studio\2022\Professional\VC\Tools\MSVC\14.44.35207\include\vector

; 900  :         _Alty_traits::construct(_Al, _STD _Unfancy(_Newvec + _Whereoff), _STD forward<_Valty>(_Val)...);

  00099	83 e3 f0	 and	 ebx, -16		; fffffff0H
  0009c	8d 0c 3b	 lea	 ecx, DWORD PTR [ebx+edi]

; 903  :         if (_Whereptr == _Mylast) { // at back, provide strong guarantee

  0009f	8b 5d 08	 mov	 ebx, DWORD PTR __Whereptr$[ebp]
  000a2	89 4d fc	 mov	 DWORD PTR tv710[ebp], ecx
; File C:\Program Files\Microsoft Visual Studio\2022\Professional\VC\Tools\MSVC\14.44.35207\include\xmemory

; 732  :         ::new (const_cast<void*>(static_cast<const volatile void*>(_Ptr))) _Objty(_STD forward<_Types>(_Args)...);

  000a5	0f 10 00	 movups	 xmm0, XMMWORD PTR [eax]
  000a8	0f 11 01	 movups	 XMMWORD PTR [ecx], xmm0
; File C:\Program Files\Microsoft Visual Studio\2022\Professional\VC\Tools\MSVC\14.44.35207\include\vector

; 903  :         if (_Whereptr == _Mylast) { // at back, provide strong guarantee

  000ab	8b 4e 04	 mov	 ecx, DWORD PTR [esi+4]
  000ae	8b 06		 mov	 eax, DWORD PTR [esi]
  000b0	3b d9		 cmp	 ebx, ecx
  000b2	75 07		 jne	 SHORT $LN3@Emplace_re

; 909  :         } else { // provide basic guarantee

  000b4	8b 5d fc	 mov	 ebx, DWORD PTR tv710[ebp]
; File C:\Program Files\Microsoft Visual Studio\2022\Professional\VC\Tools\MSVC\14.44.35207\include\xmemory

; 1992 :             _STD _Copy_memmove(_UFirst, _ULast, _STD _Unfancy(_Dest));

  000b7	8b d7		 mov	 edx, edi
; File C:\Program Files\Microsoft Visual Studio\2022\Professional\VC\Tools\MSVC\14.44.35207\include\vector

; 909  :         } else { // provide basic guarantee

  000b9	eb 16		 jmp	 SHORT $LN58@Emplace_re
$LN3@Emplace_re:
; File C:\Program Files\Microsoft Visual Studio\2022\Professional\VC\Tools\MSVC\14.44.35207\include\xmemory

; 1992 :             _STD _Copy_memmove(_UFirst, _ULast, _STD _Unfancy(_Dest));

  000bb	57		 push	 edi
  000bc	53		 push	 ebx
  000bd	50		 push	 eax
  000be	e8 00 00 00 00	 call	 ??$_Copy_memmove@PAU?$pair@M_J@std@@PAU12@@std@@YAPAU?$pair@M_J@0@PAU10@00@Z ; std::_Copy_memmove<std::pair<float,__int64> *,std::pair<float,__int64> *>
  000c3	8b 4e 04	 mov	 ecx, DWORD PTR [esi+4]
  000c6	8b c3		 mov	 eax, ebx
; File C:\Program Files\Microsoft Visual Studio\2022\Professional\VC\Tools\MSVC\14.44.35207\include\vector

; 912  :             _STD _Uninitialized_move(_Whereptr, _Mylast, _Newvec + _Whereoff + 1, _Al);

  000c8	8b 5d fc	 mov	 ebx, DWORD PTR tv710[ebp]
; File C:\Program Files\Microsoft Visual Studio\2022\Professional\VC\Tools\MSVC\14.44.35207\include\xmemory

; 1992 :             _STD _Copy_memmove(_UFirst, _ULast, _STD _Unfancy(_Dest));

  000cb	83 c4 0c	 add	 esp, 12			; 0000000cH
; File C:\Program Files\Microsoft Visual Studio\2022\Professional\VC\Tools\MSVC\14.44.35207\include\vector

; 912  :             _STD _Uninitialized_move(_Whereptr, _Mylast, _Newvec + _Whereoff + 1, _Al);

  000ce	8d 53 10	 lea	 edx, DWORD PTR [ebx+16]
$LN58@Emplace_re:

; 913  :         }
; 914  : 
; 915  :         _Guard._New_begin = nullptr;

  000d1	52		 push	 edx
  000d2	51		 push	 ecx
  000d3	50		 push	 eax
  000d4	e8 00 00 00 00	 call	 ??$_Copy_memmove@PAU?$pair@M_J@std@@PAU12@@std@@YAPAU?$pair@M_J@0@PAU10@00@Z ; std::_Copy_memmove<std::pair<float,__int64> *,std::pair<float,__int64> *>

; 2069 :         if (_Myfirst) { // destroy and deallocate old array

  000d9	8b 06		 mov	 eax, DWORD PTR [esi]

; 913  :         }
; 914  : 
; 915  :         _Guard._New_begin = nullptr;

  000db	83 c4 0c	 add	 esp, 12			; 0000000cH

; 2069 :         if (_Myfirst) { // destroy and deallocate old array

  000de	85 c0		 test	 eax, eax
  000e0	74 2c		 je	 SHORT $LN80@Emplace_re

; 2070 :             _STD _Destroy_range(_Myfirst, _Mylast, _Al);
; 2071 :             _ASAN_VECTOR_REMOVE;
; 2072 :             _Al.deallocate(_Myfirst, static_cast<size_type>(_Myend - _Myfirst));

  000e2	8b 4e 08	 mov	 ecx, DWORD PTR [esi+8]
  000e5	2b c8		 sub	 ecx, eax
; File C:\Program Files\Microsoft Visual Studio\2022\Professional\VC\Tools\MSVC\14.44.35207\include\xmemory

; 985  :         _STD _Deallocate<_New_alignof<_Ty>>(_Ptr, sizeof(_Ty) * _Count);

  000e7	83 e1 f0	 and	 ecx, -16		; fffffff0H

; 284  :         if (_Bytes >= _Big_allocation_threshold) {

  000ea	81 f9 00 10 00
	00		 cmp	 ecx, 4096		; 00001000H
  000f0	72 12		 jb	 SHORT $LN85@Emplace_re

; 205  :     const uintptr_t _Ptr_container   = _Ptr_user[-1];

  000f2	8b 50 fc	 mov	 edx, DWORD PTR [eax-4]
  000f5	83 c1 23	 add	 ecx, 35			; 00000023H

; 206  : 
; 207  :     // If the following asserts, it likely means that we are performing
; 208  :     // an aligned delete on memory coming from an unaligned allocation.
; 209  :     _STL_ASSERT(_Ptr_user[-2] == _Big_allocation_sentinel, "invalid argument");
; 210  : 
; 211  :     // Extra paranoia on aligned allocation/deallocation; ensure _Ptr_container is
; 212  :     // in range [_Min_back_shift, _Non_user_size]
; 213  : #ifdef _DEBUG
; 214  :     constexpr uintptr_t _Min_back_shift = 2 * sizeof(void*);
; 215  : #else // ^^^ defined(_DEBUG) / !defined(_DEBUG) vvv
; 216  :     constexpr uintptr_t _Min_back_shift = sizeof(void*);
; 217  : #endif // ^^^ !defined(_DEBUG) ^^^
; 218  :     const uintptr_t _Back_shift = reinterpret_cast<uintptr_t>(_Ptr) - _Ptr_container;

  000f8	2b c2		 sub	 eax, edx

; 219  :     _STL_VERIFY(_Back_shift >= _Min_back_shift && _Back_shift <= _Non_user_size, "invalid argument");

  000fa	83 c0 fc	 add	 eax, -4			; fffffffcH
  000fd	83 f8 1f	 cmp	 eax, 31			; 0000001fH
  00100	77 2c		 ja	 SHORT $LN84@Emplace_re

; 220  :     _Ptr = reinterpret_cast<void*>(_Ptr_container);

  00102	8b c2		 mov	 eax, edx
$LN85@Emplace_re:

; 289  :         ::operator delete(_Ptr, _Bytes);

  00104	51		 push	 ecx
  00105	50		 push	 eax
  00106	e8 00 00 00 00	 call	 ??3@YAXPAXI@Z		; operator delete
  0010b	83 c4 08	 add	 esp, 8
$LN80@Emplace_re:
; File C:\Program Files\Microsoft Visual Studio\2022\Professional\VC\Tools\MSVC\14.44.35207\include\vector

; 2076 :         _Mylast  = _Newvec + _Newsize;

  0010e	8b 45 f4	 mov	 eax, DWORD PTR __Newsize$1$[ebp]

; 2077 :         _Myend   = _Newvec + _Newcapacity;

  00111	8b 4d f8	 mov	 ecx, DWORD PTR $T1[ebp]
  00114	c1 e0 04	 shl	 eax, 4
  00117	03 c7		 add	 eax, edi
  00119	89 3e		 mov	 DWORD PTR [esi], edi
  0011b	89 46 04	 mov	 DWORD PTR [esi+4], eax
  0011e	03 cf		 add	 ecx, edi

; 918  :     }

  00120	5f		 pop	 edi

; 2077 :         _Myend   = _Newvec + _Newcapacity;

  00121	89 4e 08	 mov	 DWORD PTR [esi+8], ecx

; 916  :         _Change_array(_Newvec, _Newsize, _Newcapacity);
; 917  :         return _Newvec + _Whereoff;

  00124	8b c3		 mov	 eax, ebx

; 918  :     }

  00126	5e		 pop	 esi
  00127	5b		 pop	 ebx
  00128	8b e5		 mov	 esp, ebp
  0012a	5d		 pop	 ebp
  0012b	c2 08 00	 ret	 8
$LN84@Emplace_re:
; File C:\Program Files\Microsoft Visual Studio\2022\Professional\VC\Tools\MSVC\14.44.35207\include\xmemory

; 219  :     _STL_VERIFY(_Back_shift >= _Min_back_shift && _Back_shift <= _Non_user_size, "invalid argument");

  0012e	6a 00		 push	 0
  00130	6a 00		 push	 0
  00132	6a 00		 push	 0
  00134	6a 00		 push	 0
  00136	6a 00		 push	 0
  00138	e8 00 00 00 00	 call	 __invoke_watson
$LN119@Emplace_re:
; File C:\Program Files\Microsoft Visual Studio\2022\Professional\VC\Tools\MSVC\14.44.35207\include\vector

; 888  :             _Xlength();

  0013d	e8 00 00 00 00	 call	 ?_Xlength@?$vector@U?$pair@M_J@std@@V?$allocator@U?$pair@M_J@std@@@2@@std@@CAXXZ ; std::vector<std::pair<float,__int64>,std::allocator<std::pair<float,__int64> > >::_Xlength
$LN120@Emplace_re:
; File C:\Program Files\Microsoft Visual Studio\2022\Professional\VC\Tools\MSVC\14.44.35207\include\xmemory

; 118  :             _Throw_bad_array_new_length(); // multiply overflow

  00142	e8 00 00 00 00	 call	 ?_Throw_bad_array_new_length@std@@YAXXZ ; std::_Throw_bad_array_new_length
$LN116@Emplace_re:
  00147	cc		 int	 3
??$_Emplace_reallocate@U?$pair@M_J@std@@@?$vector@U?$pair@M_J@std@@V?$allocator@U?$pair@M_J@std@@@2@@std@@AAEPAU?$pair@M_J@1@QAU21@$$QAU21@@Z ENDP ; std::vector<std::pair<float,__int64>,std::allocator<std::pair<float,__int64> > >::_Emplace_reallocate<std::pair<float,__int64> >
_TEXT	ENDS
; Function compile flags: /Ogtp
; File C:\Program Files\Microsoft Visual Studio\2022\Professional\VC\Tools\MSVC\14.44.35207\include\vector
; File C:\Program Files\Microsoft Visual Studio\2022\Professional\VC\Tools\MSVC\14.44.35207\include\xmemory
; File C:\Program Files\Microsoft Visual Studio\2022\Professional\VC\Tools\MSVC\14.44.35207\include\vector
; File C:\Program Files\Microsoft Visual Studio\2022\Professional\VC\Tools\MSVC\14.44.35207\include\xmemory
; File C:\Program Files\Microsoft Visual Studio\2022\Professional\VC\Tools\MSVC\14.44.35207\include\vector
; File C:\Program Files\Microsoft Visual Studio\2022\Professional\VC\Tools\MSVC\14.44.35207\include\xmemory
; File C:\Program Files\Microsoft Visual Studio\2022\Professional\VC\Tools\MSVC\14.44.35207\include\vector
; File C:\Program Files\Microsoft Visual Studio\2022\Professional\VC\Tools\MSVC\14.44.35207\include\xmemory
; File C:\Program Files\Microsoft Visual Studio\2022\Professional\VC\Tools\MSVC\14.44.35207\include\vector
; File C:\Program Files\Microsoft Visual Studio\2022\Professional\VC\Tools\MSVC\14.44.35207\include\xmemory
; File C:\Program Files\Microsoft Visual Studio\2022\Professional\VC\Tools\MSVC\14.44.35207\include\vector
; File C:\Program Files\Microsoft Visual Studio\2022\Professional\VC\Tools\MSVC\14.44.35207\include\xmemory
; File C:\Program Files\Microsoft Visual Studio\2022\Professional\VC\Tools\MSVC\14.44.35207\include\vector
; File C:\Program Files\Microsoft Visual Studio\2022\Professional\VC\Tools\MSVC\14.44.35207\include\xmemory
; File C:\Program Files\Microsoft Visual Studio\2022\Professional\VC\Tools\MSVC\14.44.35207\include\vector
; File C:\Program Files\Microsoft Visual Studio\2022\Professional\VC\Tools\MSVC\14.44.35207\include\xmemory
; File C:\Program Files\Microsoft Visual Studio\2022\Professional\VC\Tools\MSVC\14.44.35207\include\vector
;	COMDAT ??$_Emplace_reallocate@ABQAVCLEComponent@@@?$vector@PAVCLEComponent@@V?$allocator@PAVCLEComponent@@@std@@@std@@AAEPAPAVCLEComponent@@QAPAV2@ABQAV2@@Z
_TEXT	SEGMENT
__Newsize$1$ = -12					; size = 4
tv652 = -8						; size = 4
tv650 = -4						; size = 4
__Whereptr$ = 8						; size = 4
_<_Val_0>$ = 12						; size = 4
??$_Emplace_reallocate@ABQAVCLEComponent@@@?$vector@PAVCLEComponent@@V?$allocator@PAVCLEComponent@@@std@@@std@@AAEPAPAVCLEComponent@@QAPAV2@ABQAV2@@Z PROC ; std::vector<CLEComponent *,std::allocator<CLEComponent *> >::_Emplace_reallocate<CLEComponent * const &>, COMDAT
; _this$ = ecx

; 875  :     _CONSTEXPR20 pointer _Emplace_reallocate(const pointer _Whereptr, _Valty&&... _Val) {

  00000	55		 push	 ebp
  00001	8b ec		 mov	 ebp, esp
  00003	83 ec 0c	 sub	 esp, 12			; 0000000cH
  00006	53		 push	 ebx

; 876  :         // reallocate and insert by perfectly forwarding _Val at _Whereptr
; 877  :         _Alty& _Al        = _Getal();
; 878  :         auto& _My_data    = _Mypair._Myval2;
; 879  :         pointer& _Myfirst = _My_data._Myfirst;
; 880  :         pointer& _Mylast  = _My_data._Mylast;
; 881  : 
; 882  :         _STL_INTERNAL_CHECK(_Mylast == _My_data._Myend); // check that we have no unused capacity
; 883  : 
; 884  :         const auto _Whereoff = static_cast<size_type>(_Whereptr - _Myfirst);

  00007	8b 5d 08	 mov	 ebx, DWORD PTR __Whereptr$[ebp]
  0000a	56		 push	 esi
  0000b	8b f1		 mov	 esi, ecx
  0000d	57		 push	 edi
  0000e	8b 0e		 mov	 ecx, DWORD PTR [esi]
  00010	2b d9		 sub	 ebx, ecx

; 885  :         const auto _Oldsize  = static_cast<size_type>(_Mylast - _Myfirst);

  00012	8b 46 04	 mov	 eax, DWORD PTR [esi+4]
  00015	2b c1		 sub	 eax, ecx
  00017	c1 fb 02	 sar	 ebx, 2
  0001a	c1 f8 02	 sar	 eax, 2

; 886  : 
; 887  :         if (_Oldsize == max_size()) {

  0001d	3d ff ff ff 3f	 cmp	 eax, 1073741823		; 3fffffffH
  00022	0f 84 13 01 00
	00		 je	 $LN111@Emplace_re

; 1924 :         return static_cast<size_type>(_My_data._Myend - _My_data._Myfirst);

  00028	8b 56 08	 mov	 edx, DWORD PTR [esi+8]

; 889  :         }
; 890  : 
; 891  :         const size_type _Newsize = _Oldsize + 1;

  0002b	8d 78 01	 lea	 edi, DWORD PTR [eax+1]

; 1924 :         return static_cast<size_type>(_My_data._Myend - _My_data._Myfirst);

  0002e	2b d1		 sub	 edx, ecx

; 889  :         }
; 890  : 
; 891  :         const size_type _Newsize = _Oldsize + 1;

  00030	89 7d f4	 mov	 DWORD PTR __Newsize$1$[ebp], edi

; 1924 :         return static_cast<size_type>(_My_data._Myend - _My_data._Myfirst);

  00033	c1 fa 02	 sar	 edx, 2

; 2011 :         if (_Oldcapacity > _Max - _Oldcapacity / 2) {

  00036	b8 ff ff ff 3f	 mov	 eax, 1073741823		; 3fffffffH
  0003b	8b ca		 mov	 ecx, edx
  0003d	d1 e9		 shr	 ecx, 1
  0003f	2b c1		 sub	 eax, ecx
  00041	3b d0		 cmp	 edx, eax
  00043	76 14		 jbe	 SHORT $LN8@Emplace_re

; 2012 :             return _Max; // geometric growth would overflow

  00045	b8 fc ff ff ff	 mov	 eax, -4			; fffffffcH
  0004a	c7 45 f8 fc ff
	ff ff		 mov	 DWORD PTR tv652[ebp], -4 ; fffffffcH
; File C:\Program Files\Microsoft Visual Studio\2022\Professional\VC\Tools\MSVC\14.44.35207\include\xmemory

; 253  :             return _Allocate_manually_vector_aligned<_Traits>(_Bytes);

  00051	50		 push	 eax
  00052	e8 00 00 00 00	 call	 ??$_Allocate_manually_vector_aligned@U_Default_allocate_traits@std@@@std@@YAPAXI@Z ; std::_Allocate_manually_vector_aligned<std::_Default_allocate_traits>
  00057	eb 3d		 jmp	 SHORT $LN109@Emplace_re
$LN8@Emplace_re:
; File C:\Program Files\Microsoft Visual Studio\2022\Professional\VC\Tools\MSVC\14.44.35207\include\vector

; 2015 :         const size_type _Geometric = _Oldcapacity + _Oldcapacity / 2;

  00059	8d 04 11	 lea	 eax, DWORD PTR [ecx+edx]
; File C:\Program Files\Microsoft Visual Studio\2022\Professional\VC\Tools\MSVC\14.44.35207\include\xmemory

; 117  :         if (_Count > _Max_possible) {

  0005c	8b cf		 mov	 ecx, edi
  0005e	3b c7		 cmp	 eax, edi
  00060	0f 43 c8	 cmovae	 ecx, eax
  00063	81 f9 ff ff ff
	3f		 cmp	 ecx, 1073741823		; 3fffffffH
  00069	0f 87 d1 00 00
	00		 ja	 $LN112@Emplace_re

; 119  :         }
; 120  :     }
; 121  : 
; 122  :     return _Count * _Ty_size;

  0006f	8d 04 8d 00 00
	00 00		 lea	 eax, DWORD PTR [ecx*4]
  00076	89 45 f8	 mov	 DWORD PTR tv652[ebp], eax

; 227  :     if (_Bytes == 0) {

  00079	85 c0		 test	 eax, eax
  0007b	75 04		 jne	 SHORT $LN23@Emplace_re

; 228  :         return nullptr;

  0007d	33 ff		 xor	 edi, edi
  0007f	eb 1a		 jmp	 SHORT $LN22@Emplace_re
$LN23@Emplace_re:

; 229  :     }
; 230  : 
; 231  : #if _HAS_CXX20 // TRANSITION, GH-1532
; 232  :     if (_STD is_constant_evaluated()) {
; 233  :         return _Traits::_Allocate(_Bytes);
; 234  :     }
; 235  : #endif // _HAS_CXX20
; 236  : 
; 237  : #ifdef __cpp_aligned_new
; 238  :     if constexpr (_Align > __STDCPP_DEFAULT_NEW_ALIGNMENT__) {
; 239  :         size_t _Passed_align = _Align;
; 240  : #if defined(_M_IX86) || defined(_M_X64)
; 241  :         if (_Bytes >= _Big_allocation_threshold) {
; 242  :             // boost the alignment of big allocations to help autovectorization
; 243  :             _Passed_align = (_STD max)(_Align, _Big_allocation_alignment);
; 244  :         }
; 245  : #endif // defined(_M_IX86) || defined(_M_X64)
; 246  :         return _Traits::_Allocate_aligned(_Bytes, _Passed_align);
; 247  :     } else
; 248  : #endif // defined(__cpp_aligned_new)
; 249  :     {
; 250  : #if defined(_M_IX86) || defined(_M_X64)
; 251  :         if (_Bytes >= _Big_allocation_threshold) {

  00081	3d 00 10 00 00	 cmp	 eax, 4096		; 00001000H
  00086	72 08		 jb	 SHORT $LN24@Emplace_re

; 253  :             return _Allocate_manually_vector_aligned<_Traits>(_Bytes);

  00088	50		 push	 eax
  00089	e8 00 00 00 00	 call	 ??$_Allocate_manually_vector_aligned@U_Default_allocate_traits@std@@@std@@YAPAXI@Z ; std::_Allocate_manually_vector_aligned<std::_Default_allocate_traits>
  0008e	eb 06		 jmp	 SHORT $LN109@Emplace_re
$LN24@Emplace_re:

; 136  :         return ::operator new(_Bytes);

  00090	50		 push	 eax
  00091	e8 00 00 00 00	 call	 ??2@YAPAXI@Z		; operator new
$LN109@Emplace_re:
; File C:\Program Files\Microsoft Visual Studio\2022\Professional\VC\Tools\MSVC\14.44.35207\include\vector

; 900  :         _Alty_traits::construct(_Al, _STD _Unfancy(_Newvec + _Whereoff), _STD forward<_Valty>(_Val)...);

  00096	8b f8		 mov	 edi, eax
  00098	83 c4 04	 add	 esp, 4
$LN22@Emplace_re:
  0009b	8b 45 0c	 mov	 eax, DWORD PTR _<_Val_0>$[ebp]
  0009e	8d 0c 9f	 lea	 ecx, DWORD PTR [edi+ebx*4]

; 901  :         _Constructed_first = _Newvec + _Whereoff;
; 902  : 
; 903  :         if (_Whereptr == _Mylast) { // at back, provide strong guarantee

  000a1	8b 5d 08	 mov	 ebx, DWORD PTR __Whereptr$[ebp]
  000a4	89 4d fc	 mov	 DWORD PTR tv650[ebp], ecx
  000a7	8b 00		 mov	 eax, DWORD PTR [eax]
  000a9	89 01		 mov	 DWORD PTR [ecx], eax
  000ab	8b 46 04	 mov	 eax, DWORD PTR [esi+4]
  000ae	8b 0e		 mov	 ecx, DWORD PTR [esi]
  000b0	3b d8		 cmp	 ebx, eax
  000b2	75 07		 jne	 SHORT $LN3@Emplace_re

; 909  :         } else { // provide basic guarantee

  000b4	8b 5d fc	 mov	 ebx, DWORD PTR tv650[ebp]
; File C:\Program Files\Microsoft Visual Studio\2022\Professional\VC\Tools\MSVC\14.44.35207\include\xmemory

; 1992 :             _STD _Copy_memmove(_UFirst, _ULast, _STD _Unfancy(_Dest));

  000b7	8b d7		 mov	 edx, edi
; File C:\Program Files\Microsoft Visual Studio\2022\Professional\VC\Tools\MSVC\14.44.35207\include\vector

; 909  :         } else { // provide basic guarantee

  000b9	eb 16		 jmp	 SHORT $LN52@Emplace_re
$LN3@Emplace_re:
; File C:\Program Files\Microsoft Visual Studio\2022\Professional\VC\Tools\MSVC\14.44.35207\include\xmemory

; 1992 :             _STD _Copy_memmove(_UFirst, _ULast, _STD _Unfancy(_Dest));

  000bb	57		 push	 edi
  000bc	53		 push	 ebx
  000bd	51		 push	 ecx
  000be	e8 00 00 00 00	 call	 ??$_Copy_memmove@PAPAVCLEComponent@@PAPAV1@@std@@YAPAPAVCLEComponent@@PAPAV1@00@Z ; std::_Copy_memmove<CLEComponent * *,CLEComponent * *>
  000c3	8b 46 04	 mov	 eax, DWORD PTR [esi+4]
  000c6	8b cb		 mov	 ecx, ebx
; File C:\Program Files\Microsoft Visual Studio\2022\Professional\VC\Tools\MSVC\14.44.35207\include\vector

; 912  :             _STD _Uninitialized_move(_Whereptr, _Mylast, _Newvec + _Whereoff + 1, _Al);

  000c8	8b 5d fc	 mov	 ebx, DWORD PTR tv650[ebp]
; File C:\Program Files\Microsoft Visual Studio\2022\Professional\VC\Tools\MSVC\14.44.35207\include\xmemory

; 1992 :             _STD _Copy_memmove(_UFirst, _ULast, _STD _Unfancy(_Dest));

  000cb	83 c4 0c	 add	 esp, 12			; 0000000cH
; File C:\Program Files\Microsoft Visual Studio\2022\Professional\VC\Tools\MSVC\14.44.35207\include\vector

; 912  :             _STD _Uninitialized_move(_Whereptr, _Mylast, _Newvec + _Whereoff + 1, _Al);

  000ce	8d 53 04	 lea	 edx, DWORD PTR [ebx+4]
$LN52@Emplace_re:

; 913  :         }
; 914  : 
; 915  :         _Guard._New_begin = nullptr;

  000d1	52		 push	 edx
  000d2	50		 push	 eax
  000d3	51		 push	 ecx
  000d4	e8 00 00 00 00	 call	 ??$_Copy_memmove@PAPAVCLEComponent@@PAPAV1@@std@@YAPAPAVCLEComponent@@PAPAV1@00@Z ; std::_Copy_memmove<CLEComponent * *,CLEComponent * *>

; 2069 :         if (_Myfirst) { // destroy and deallocate old array

  000d9	8b 06		 mov	 eax, DWORD PTR [esi]

; 913  :         }
; 914  : 
; 915  :         _Guard._New_begin = nullptr;

  000db	83 c4 0c	 add	 esp, 12			; 0000000cH

; 2069 :         if (_Myfirst) { // destroy and deallocate old array

  000de	85 c0		 test	 eax, eax
  000e0	74 2c		 je	 SHORT $LN72@Emplace_re

; 2070 :             _STD _Destroy_range(_Myfirst, _Mylast, _Al);
; 2071 :             _ASAN_VECTOR_REMOVE;
; 2072 :             _Al.deallocate(_Myfirst, static_cast<size_type>(_Myend - _Myfirst));

  000e2	8b 4e 08	 mov	 ecx, DWORD PTR [esi+8]
  000e5	2b c8		 sub	 ecx, eax
; File C:\Program Files\Microsoft Visual Studio\2022\Professional\VC\Tools\MSVC\14.44.35207\include\xmemory

; 985  :         _STD _Deallocate<_New_alignof<_Ty>>(_Ptr, sizeof(_Ty) * _Count);

  000e7	83 e1 fc	 and	 ecx, -4			; fffffffcH

; 284  :         if (_Bytes >= _Big_allocation_threshold) {

  000ea	81 f9 00 10 00
	00		 cmp	 ecx, 4096		; 00001000H
  000f0	72 12		 jb	 SHORT $LN77@Emplace_re

; 205  :     const uintptr_t _Ptr_container   = _Ptr_user[-1];

  000f2	8b 50 fc	 mov	 edx, DWORD PTR [eax-4]
  000f5	83 c1 23	 add	 ecx, 35			; 00000023H

; 206  : 
; 207  :     // If the following asserts, it likely means that we are performing
; 208  :     // an aligned delete on memory coming from an unaligned allocation.
; 209  :     _STL_ASSERT(_Ptr_user[-2] == _Big_allocation_sentinel, "invalid argument");
; 210  : 
; 211  :     // Extra paranoia on aligned allocation/deallocation; ensure _Ptr_container is
; 212  :     // in range [_Min_back_shift, _Non_user_size]
; 213  : #ifdef _DEBUG
; 214  :     constexpr uintptr_t _Min_back_shift = 2 * sizeof(void*);
; 215  : #else // ^^^ defined(_DEBUG) / !defined(_DEBUG) vvv
; 216  :     constexpr uintptr_t _Min_back_shift = sizeof(void*);
; 217  : #endif // ^^^ !defined(_DEBUG) ^^^
; 218  :     const uintptr_t _Back_shift = reinterpret_cast<uintptr_t>(_Ptr) - _Ptr_container;

  000f8	2b c2		 sub	 eax, edx

; 219  :     _STL_VERIFY(_Back_shift >= _Min_back_shift && _Back_shift <= _Non_user_size, "invalid argument");

  000fa	83 c0 fc	 add	 eax, -4			; fffffffcH
  000fd	83 f8 1f	 cmp	 eax, 31			; 0000001fH
  00100	77 2a		 ja	 SHORT $LN76@Emplace_re

; 220  :     _Ptr = reinterpret_cast<void*>(_Ptr_container);

  00102	8b c2		 mov	 eax, edx
$LN77@Emplace_re:

; 289  :         ::operator delete(_Ptr, _Bytes);

  00104	51		 push	 ecx
  00105	50		 push	 eax
  00106	e8 00 00 00 00	 call	 ??3@YAXPAXI@Z		; operator delete
  0010b	83 c4 08	 add	 esp, 8
$LN72@Emplace_re:
; File C:\Program Files\Microsoft Visual Studio\2022\Professional\VC\Tools\MSVC\14.44.35207\include\vector

; 2076 :         _Mylast  = _Newvec + _Newsize;

  0010e	8b 45 f4	 mov	 eax, DWORD PTR __Newsize$1$[ebp]
  00111	89 3e		 mov	 DWORD PTR [esi], edi
  00113	8d 0c 87	 lea	 ecx, DWORD PTR [edi+eax*4]

; 916  :         _Change_array(_Newvec, _Newsize, _Newcapacity);
; 917  :         return _Newvec + _Whereoff;

  00116	8b c3		 mov	 eax, ebx

; 2076 :         _Mylast  = _Newvec + _Newsize;

  00118	89 4e 04	 mov	 DWORD PTR [esi+4], ecx

; 2077 :         _Myend   = _Newvec + _Newcapacity;

  0011b	8b 4d f8	 mov	 ecx, DWORD PTR tv652[ebp]
  0011e	03 cf		 add	 ecx, edi

; 918  :     }

  00120	5f		 pop	 edi

; 2077 :         _Myend   = _Newvec + _Newcapacity;

  00121	89 4e 08	 mov	 DWORD PTR [esi+8], ecx

; 918  :     }

  00124	5e		 pop	 esi
  00125	5b		 pop	 ebx
  00126	8b e5		 mov	 esp, ebp
  00128	5d		 pop	 ebp
  00129	c2 08 00	 ret	 8
$LN76@Emplace_re:
; File C:\Program Files\Microsoft Visual Studio\2022\Professional\VC\Tools\MSVC\14.44.35207\include\xmemory

; 219  :     _STL_VERIFY(_Back_shift >= _Min_back_shift && _Back_shift <= _Non_user_size, "invalid argument");

  0012c	6a 00		 push	 0
  0012e	6a 00		 push	 0
  00130	6a 00		 push	 0
  00132	6a 00		 push	 0
  00134	6a 00		 push	 0
  00136	e8 00 00 00 00	 call	 __invoke_watson
$LN111@Emplace_re:
; File C:\Program Files\Microsoft Visual Studio\2022\Professional\VC\Tools\MSVC\14.44.35207\include\vector

; 888  :             _Xlength();

  0013b	e8 00 00 00 00	 call	 ?_Xlength@?$vector@PAVCLEComponent@@V?$allocator@PAVCLEComponent@@@std@@@std@@CAXXZ ; std::vector<CLEComponent *,std::allocator<CLEComponent *> >::_Xlength
$LN112@Emplace_re:
; File C:\Program Files\Microsoft Visual Studio\2022\Professional\VC\Tools\MSVC\14.44.35207\include\xmemory

; 118  :             _Throw_bad_array_new_length(); // multiply overflow

  00140	e8 00 00 00 00	 call	 ?_Throw_bad_array_new_length@std@@YAXXZ ; std::_Throw_bad_array_new_length
$LN108@Emplace_re:
  00145	cc		 int	 3
??$_Emplace_reallocate@ABQAVCLEComponent@@@?$vector@PAVCLEComponent@@V?$allocator@PAVCLEComponent@@@std@@@std@@AAEPAPAVCLEComponent@@QAPAV2@ABQAV2@@Z ENDP ; std::vector<CLEComponent *,std::allocator<CLEComponent *> >::_Emplace_reallocate<CLEComponent * const &>
_TEXT	ENDS
; Function compile flags: /Ogtp
; File C:\Program Files\Microsoft Visual Studio\2022\Professional\VC\Tools\MSVC\14.44.35207\include\xutility
;	COMDAT ??$_Copy_memmove@PAPAVCLEComponent@@PAPAV1@@std@@YAPAPAVCLEComponent@@PAPAV1@00@Z
_TEXT	SEGMENT
__First$ = 8						; size = 4
__Last$ = 12						; size = 4
__Dest$ = 16						; size = 4
??$_Copy_memmove@PAPAVCLEComponent@@PAPAV1@@std@@YAPAPAVCLEComponent@@PAPAV1@00@Z PROC ; std::_Copy_memmove<CLEComponent * *,CLEComponent * *>, COMDAT

; 4762 : _OutCtgIt _Copy_memmove(_CtgIt _First, _CtgIt _Last, _OutCtgIt _Dest) {

  00000	55		 push	 ebp
  00001	8b ec		 mov	 ebp, esp

; 4763 :     _STL_INTERNAL_CHECK(_First <= _Last);
; 4764 :     const auto _First_ptr    = _STD _To_address(_First);
; 4765 :     const auto _Last_ptr     = _STD _To_address(_Last);
; 4766 :     const auto _Object_count = static_cast<size_t>(_Last_ptr - _First_ptr);

  00003	8b 55 08	 mov	 edx, DWORD PTR __First$[ebp]
  00006	8b 4d 0c	 mov	 ecx, DWORD PTR __Last$[ebp]
  00009	2b ca		 sub	 ecx, edx
  0000b	8b c1		 mov	 eax, ecx
  0000d	c1 f8 02	 sar	 eax, 2

; 4767 :     const auto _First_ch     = const_cast<const char*>(reinterpret_cast<const volatile char*>(_First_ptr));
; 4768 :     const auto _Last_ch      = const_cast<const char*>(reinterpret_cast<const volatile char*>(_Last_ptr));
; 4769 :     const auto _Byte_count   = static_cast<size_t>(_Last_ch - _First_ch);
; 4770 :     return _STD _Copy_memmove_tail(_First_ch, _STD move(_Dest), _Byte_count, _Object_count);

  00010	50		 push	 eax
  00011	51		 push	 ecx
  00012	ff 75 10	 push	 DWORD PTR __Dest$[ebp]
  00015	52		 push	 edx
  00016	e8 00 00 00 00	 call	 ??$_Copy_memmove_tail@PAPAVCLEComponent@@@std@@YAPAPAVCLEComponent@@QBDQAPAV1@II@Z ; std::_Copy_memmove_tail<CLEComponent * *>
  0001b	83 c4 10	 add	 esp, 16			; 00000010H

; 4771 : }

  0001e	5d		 pop	 ebp
  0001f	c3		 ret	 0
??$_Copy_memmove@PAPAVCLEComponent@@PAPAV1@@std@@YAPAPAVCLEComponent@@PAPAV1@00@Z ENDP ; std::_Copy_memmove<CLEComponent * *,CLEComponent * *>
_TEXT	ENDS
; Function compile flags: /Ogtp
; File C:\Program Files\Microsoft Visual Studio\2022\Professional\VC\Tools\MSVC\14.44.35207\include\algorithm
; File C:\IAGOS\server\v18\Source\Source\_Common\lord.h
; File C:\Program Files\Microsoft Visual Studio\2022\Professional\VC\Tools\MSVC\14.44.35207\include\algorithm
; File C:\IAGOS\server\v18\Source\Source\_Common\lord.h
; File C:\Program Files\Microsoft Visual Studio\2022\Professional\VC\Tools\MSVC\14.44.35207\include\algorithm
; File C:\IAGOS\server\v18\Source\Source\_Common\lord.h
; File C:\Program Files\Microsoft Visual Studio\2022\Professional\VC\Tools\MSVC\14.44.35207\include\algorithm
; File C:\IAGOS\server\v18\Source\Source\_Common\lord.h
; File C:\Program Files\Microsoft Visual Studio\2022\Professional\VC\Tools\MSVC\14.44.35207\include\algorithm
; File C:\IAGOS\server\v18\Source\Source\_Common\lord.h
; File C:\Program Files\Microsoft Visual Studio\2022\Professional\VC\Tools\MSVC\14.44.35207\include\algorithm
; File C:\IAGOS\server\v18\Source\Source\_Common\lord.h
; File C:\Program Files\Microsoft Visual Studio\2022\Professional\VC\Tools\MSVC\14.44.35207\include\algorithm
; File C:\IAGOS\server\v18\Source\Source\_Common\lord.h
; File C:\Program Files\Microsoft Visual Studio\2022\Professional\VC\Tools\MSVC\14.44.35207\include\algorithm
; File C:\IAGOS\server\v18\Source\Source\_Common\lord.h
; File C:\Program Files\Microsoft Visual Studio\2022\Professional\VC\Tools\MSVC\14.44.35207\include\algorithm
; File C:\Program Files\Microsoft Visual Studio\2022\Professional\VC\Tools\MSVC\14.44.35207\include\utility
; File C:\Program Files\Microsoft Visual Studio\2022\Professional\VC\Tools\MSVC\14.44.35207\include\algorithm
; File C:\Program Files\Microsoft Visual Studio\2022\Professional\VC\Tools\MSVC\14.44.35207\include\utility
; File C:\Program Files\Microsoft Visual Studio\2022\Professional\VC\Tools\MSVC\14.44.35207\include\algorithm
;	COMDAT ??$_Partition_by_median_guess_unchecked@PAV?$shared_ptr@VCCandidate@@@std@@UVoteCompare@@@std@@YA?AU?$pair@PAV?$shared_ptr@VCCandidate@@@std@@PAV12@@0@PAV?$shared_ptr@VCCandidate@@@0@0UVoteCompare@@@Z
_TEXT	SEGMENT
__Pred$ = -32						; size = 1
tv1270 = -32						; size = 4
tv1274 = -32						; size = 4
tv1283 = -32						; size = 4
$T1 = -32						; size = 4
tv1267 = -28						; size = 4
$T2 = -28						; size = 4
$T3 = -28						; size = 4
$T4 = -28						; size = 4
tv1254 = -24						; size = 4
$T5 = -24						; size = 4
$T6 = -20						; size = 4
$T7 = -20						; size = 4
$T8 = -20						; size = 4
tv1262 = -16						; size = 4
__Pfirst$1$ = -16					; size = 4
__Gfirst$1$ = -16					; size = 4
tv1257 = -12						; size = 4
__Plast$1$ = -12					; size = 4
__Glast$1$ = -8						; size = 4
$T9 = -1						; size = 1
$T10 = -1						; size = 1
$T11 = -1						; size = 1
___$ReturnUdt$ = 8					; size = 4
__First$ = 12						; size = 4
__Last$ = 16						; size = 4
__Pred$ = 20						; size = 1
??$_Partition_by_median_guess_unchecked@PAV?$shared_ptr@VCCandidate@@@std@@UVoteCompare@@@std@@YA?AU?$pair@PAV?$shared_ptr@VCCandidate@@@std@@PAV12@@0@PAV?$shared_ptr@VCCandidate@@@0@0UVoteCompare@@@Z PROC ; std::_Partition_by_median_guess_unchecked<std::shared_ptr<CCandidate> *,VoteCompare>, COMDAT

; 8299 : _CONSTEXPR20 pair<_RanIt, _RanIt> _Partition_by_median_guess_unchecked(_RanIt _First, _RanIt _Last, _Pr _Pred) {

  00000	55		 push	 ebp
  00001	8b ec		 mov	 ebp, esp
  00003	83 ec 20	 sub	 esp, 32			; 00000020H
  00006	53		 push	 ebx
  00007	56		 push	 esi

; 8300 :     // partition [_First, _Last)
; 8301 :     _RanIt _Mid = _First + ((_Last - _First) >> 1); // shift for codegen

  00008	8b 75 10	 mov	 esi, DWORD PTR __Last$[ebp]
  0000b	8b c6		 mov	 eax, esi
  0000d	57		 push	 edi
  0000e	8b 7d 0c	 mov	 edi, DWORD PTR __First$[ebp]
  00011	2b c7		 sub	 eax, edi

; 8286 :     if (40 < _Count) { // Tukey's ninther

  00013	ff 75 14	 push	 DWORD PTR __Pred$[ebp]

; 8300 :     // partition [_First, _Last)
; 8301 :     _RanIt _Mid = _First + ((_Last - _First) >> 1); // shift for codegen

  00016	c1 f8 04	 sar	 eax, 4

; 8302 :     _STD _Guess_median_unchecked(_First, _Mid, _STD _Prev_iter(_Last), _Pred);

  00019	8d 4e f8	 lea	 ecx, DWORD PTR [esi-8]
  0001c	8d 1c c7	 lea	 ebx, DWORD PTR [edi+eax*8]
  0001f	8a 45 14	 mov	 al, BYTE PTR __Pred$[ebp]
  00022	88 45 e0	 mov	 BYTE PTR __Pred$[ebp], al

; 8285 :     const _Diff _Count = _Last - _First;

  00025	8b c1		 mov	 eax, ecx
  00027	2b c7		 sub	 eax, edi

; 8300 :     // partition [_First, _Last)
; 8301 :     _RanIt _Mid = _First + ((_Last - _First) >> 1); // shift for codegen

  00029	89 5d f0	 mov	 DWORD PTR __Pfirst$1$[ebp], ebx

; 8285 :     const _Diff _Count = _Last - _First;

  0002c	c1 f8 03	 sar	 eax, 3

; 8286 :     if (40 < _Count) { // Tukey's ninther

  0002f	83 f8 28	 cmp	 eax, 40			; 00000028H
  00032	7e 61		 jle	 SHORT $LN70@Partition_

; 8287 :         const _Diff _Step     = (_Count + 1) >> 3; // +1 can't overflow because range was made inclusive in caller

  00034	40		 inc	 eax
  00035	c1 f8 03	 sar	 eax, 3

; 8288 :         const _Diff _Two_step = _Step << 1; // note: intentionally discards low-order bit
; 8289 :         _STD _Med3_unchecked(_First, _First + _Step, _First + _Two_step, _Pred);

  00038	8b c8		 mov	 ecx, eax
  0003a	c1 e1 04	 shl	 ecx, 4
  0003d	89 4d e4	 mov	 DWORD PTR tv1267[ebp], ecx
  00040	8d 1c c5 00 00
	00 00		 lea	 ebx, DWORD PTR [eax*8]
  00047	8d 14 3b	 lea	 edx, DWORD PTR [ebx+edi]
  0004a	8d 04 39	 lea	 eax, DWORD PTR [ecx+edi]
  0004d	50		 push	 eax
  0004e	52		 push	 edx
  0004f	57		 push	 edi
  00050	e8 00 00 00 00	 call	 ??$_Med3_unchecked@PAV?$shared_ptr@VCCandidate@@@std@@UVoteCompare@@@std@@YAXPAV?$shared_ptr@VCCandidate@@@0@00UVoteCompare@@@Z ; std::_Med3_unchecked<std::shared_ptr<CCandidate> *,VoteCompare>

; 8290 :         _STD _Med3_unchecked(_Mid - _Step, _Mid, _Mid + _Step, _Pred);

  00055	8b 4d f0	 mov	 ecx, DWORD PTR __Pfirst$1$[ebp]
  00058	8b 7d e0	 mov	 edi, DWORD PTR __Pred$[ebp]
  0005b	57		 push	 edi
  0005c	8d 04 0b	 lea	 eax, DWORD PTR [ebx+ecx]
  0005f	50		 push	 eax
  00060	51		 push	 ecx
  00061	2b cb		 sub	 ecx, ebx
  00063	51		 push	 ecx
  00064	e8 00 00 00 00	 call	 ??$_Med3_unchecked@PAV?$shared_ptr@VCCandidate@@@std@@UVoteCompare@@@std@@YAXPAV?$shared_ptr@VCCandidate@@@0@00UVoteCompare@@@Z ; std::_Med3_unchecked<std::shared_ptr<CCandidate> *,VoteCompare>

; 8291 :         _STD _Med3_unchecked(_Last - _Two_step, _Last - _Step, _Last, _Pred);

  00069	8d 46 f8	 lea	 eax, DWORD PTR [esi-8]
  0006c	8b f0		 mov	 esi, eax
  0006e	57		 push	 edi
  0006f	50		 push	 eax
  00070	2b 45 e4	 sub	 eax, DWORD PTR tv1267[ebp]
  00073	2b f3		 sub	 esi, ebx
  00075	56		 push	 esi
  00076	50		 push	 eax
  00077	e8 00 00 00 00	 call	 ??$_Med3_unchecked@PAV?$shared_ptr@VCCandidate@@@std@@UVoteCompare@@@std@@YAXPAV?$shared_ptr@VCCandidate@@@0@00UVoteCompare@@@Z ; std::_Med3_unchecked<std::shared_ptr<CCandidate> *,VoteCompare>

; 8292 :         _STD _Med3_unchecked(_First + _Step, _Mid, _Last - _Step, _Pred);

  0007c	57		 push	 edi
  0007d	56		 push	 esi
  0007e	8b 75 0c	 mov	 esi, DWORD PTR __First$[ebp]
  00081	ff 75 f0	 push	 DWORD PTR __Pfirst$1$[ebp]
  00084	8d 04 33	 lea	 eax, DWORD PTR [ebx+esi]
  00087	50		 push	 eax
  00088	e8 00 00 00 00	 call	 ??$_Med3_unchecked@PAV?$shared_ptr@VCCandidate@@@std@@UVoteCompare@@@std@@YAXPAV?$shared_ptr@VCCandidate@@@0@00UVoteCompare@@@Z ; std::_Med3_unchecked<std::shared_ptr<CCandidate> *,VoteCompare>

; 8293 :     } else {

  0008d	8b 5d f0	 mov	 ebx, DWORD PTR __Pfirst$1$[ebp]
  00090	83 c4 40	 add	 esp, 64			; 00000040H
  00093	eb 0d		 jmp	 SHORT $LN71@Partition_
$LN70@Partition_:

; 8294 :         _STD _Med3_unchecked(_First, _Mid, _Last, _Pred);

  00095	51		 push	 ecx
  00096	53		 push	 ebx
  00097	57		 push	 edi
  00098	e8 00 00 00 00	 call	 ??$_Med3_unchecked@PAV?$shared_ptr@VCCandidate@@@std@@UVoteCompare@@@std@@YAXPAV?$shared_ptr@VCCandidate@@@0@00UVoteCompare@@@Z ; std::_Med3_unchecked<std::shared_ptr<CCandidate> *,VoteCompare>
  0009d	83 c4 10	 add	 esp, 16			; 00000010H
  000a0	8b f7		 mov	 esi, edi
$LN71@Partition_:

; 8303 :     _RanIt _Pfirst = _Mid;
; 8304 :     _RanIt _Plast  = _STD _Next_iter(_Pfirst);

  000a2	8d 7b 08	 lea	 edi, DWORD PTR [ebx+8]
  000a5	89 7d f4	 mov	 DWORD PTR __Plast$1$[ebp], edi

; 8307 :            && !_Pred(*_Pfirst, *_STD _Prev_iter(_Pfirst))) {

  000a8	3b f3		 cmp	 esi, ebx
  000aa	0f 83 80 00 00
	00		 jae	 $LN75@Partition_
  000b0	8b 13		 mov	 edx, DWORD PTR [ebx]
  000b2	8b fa		 mov	 edi, edx
$LL2@Partition_:
; File C:\IAGOS\server\v18\Source\Source\_Common\lord.h

; 161  : 		return ( lhs->GetVote() == rhs->GetVote()?

  000b4	8b 92 10 01 00
	00		 mov	 edx, DWORD PTR [edx+272]
  000ba	8d 4b f8	 lea	 ecx, DWORD PTR [ebx-8]
  000bd	8d 07		 lea	 eax, DWORD PTR [edi]
  000bf	89 55 f0	 mov	 DWORD PTR tv1262[ebp], edx
  000c2	8b 39		 mov	 edi, DWORD PTR [ecx]
  000c4	8d 90 10 01 00
	00		 lea	 edx, DWORD PTR [eax+272]
  000ca	89 4d e0	 mov	 DWORD PTR tv1283[ebp], ecx
  000cd	89 55 ec	 mov	 DWORD PTR $T7[ebp], edx
  000d0	8d 90 14 01 00
	00		 lea	 edx, DWORD PTR [eax+276]
  000d6	8b 8f 10 01 00
	00		 mov	 ecx, DWORD PTR [edi+272]
  000dc	3b 4d f0	 cmp	 ecx, DWORD PTR tv1262[ebp]
  000df	75 11		 jne	 SHORT $LN55@Partition_
  000e1	8b 87 14 01 00
	00		 mov	 eax, DWORD PTR [edi+276]
  000e7	3b 02		 cmp	 eax, DWORD PTR [edx]
  000e9	8b 45 ec	 mov	 eax, DWORD PTR $T7[ebp]
  000ec	0f 9c 45 ff	 setl	 BYTE PTR $T10[ebp]
  000f0	eb 09		 jmp	 SHORT $LN56@Partition_
$LN55@Partition_:
  000f2	8b 45 ec	 mov	 eax, DWORD PTR $T7[ebp]
  000f5	3b 08		 cmp	 ecx, DWORD PTR [eax]
  000f7	0f 9f 45 ff	 setg	 BYTE PTR $T10[ebp]
$LN56@Partition_:
; File C:\Program Files\Microsoft Visual Studio\2022\Professional\VC\Tools\MSVC\14.44.35207\include\algorithm

; 8307 :            && !_Pred(*_Pfirst, *_STD _Prev_iter(_Pfirst))) {

  000fb	80 7d ff 00	 cmp	 BYTE PTR $T10[ebp], 0
  000ff	75 29		 jne	 SHORT $LN100@Partition_
; File C:\IAGOS\server\v18\Source\Source\_Common\lord.h

; 161  : 		return ( lhs->GetVote() == rhs->GetVote()?

  00101	89 7d e4	 mov	 DWORD PTR $T3[ebp], edi
  00104	39 4d f0	 cmp	 DWORD PTR tv1262[ebp], ecx
  00107	75 0d		 jne	 SHORT $LN63@Partition_
  00109	8b 02		 mov	 eax, DWORD PTR [edx]
  0010b	3b 87 14 01 00
	00		 cmp	 eax, DWORD PTR [edi+276]
  00111	0f 9c c0	 setl	 al
  00114	eb 05		 jmp	 SHORT $LN64@Partition_
$LN63@Partition_:
  00116	39 08		 cmp	 DWORD PTR [eax], ecx
  00118	0f 9f c0	 setg	 al
$LN64@Partition_:
; File C:\Program Files\Microsoft Visual Studio\2022\Professional\VC\Tools\MSVC\14.44.35207\include\algorithm

; 8307 :            && !_Pred(*_Pfirst, *_STD _Prev_iter(_Pfirst))) {

  0011b	84 c0		 test	 al, al
  0011d	75 0b		 jne	 SHORT $LN100@Partition_

; 8308 :         --_Pfirst;

  0011f	8b 5d e0	 mov	 ebx, DWORD PTR tv1283[ebp]
  00122	8b 55 e4	 mov	 edx, DWORD PTR $T3[ebp]
  00125	39 5d 0c	 cmp	 DWORD PTR __First$[ebp], ebx
  00128	72 8a		 jb	 SHORT $LL2@Partition_
$LN100@Partition_:
  0012a	8b 7d f4	 mov	 edi, DWORD PTR __Plast$1$[ebp]
  0012d	89 5d f0	 mov	 DWORD PTR __Pfirst$1$[ebp], ebx
$LN75@Partition_:

; 8311 :     while (_Plast < _Last && !_DEBUG_LT_PRED(_Pred, *_Plast, *_Pfirst) && !_Pred(*_Pfirst, *_Plast)) {

  00130	8b 45 10	 mov	 eax, DWORD PTR __Last$[ebp]
  00133	3b f8		 cmp	 edi, eax
  00135	73 5d		 jae	 SHORT $LN5@Partition_
; File C:\IAGOS\server\v18\Source\Source\_Common\lord.h

; 161  : 		return ( lhs->GetVote() == rhs->GetVote()?

  00137	8b 03		 mov	 eax, DWORD PTR [ebx]
  00139	8b d8		 mov	 ebx, eax
  0013b	8b b0 10 01 00
	00		 mov	 esi, DWORD PTR [eax+272]
$LL4@Partition_:
  00141	8b 07		 mov	 eax, DWORD PTR [edi]
  00143	8b 88 10 01 00
	00		 mov	 ecx, DWORD PTR [eax+272]
  00149	8d 90 14 01 00
	00		 lea	 edx, DWORD PTR [eax+276]
  0014f	3b ce		 cmp	 ecx, esi
  00151	75 0d		 jne	 SHORT $LN59@Partition_
  00153	8b 02		 mov	 eax, DWORD PTR [edx]
  00155	3b 83 14 01 00
	00		 cmp	 eax, DWORD PTR [ebx+276]
  0015b	0f 9c c0	 setl	 al
  0015e	eb 03		 jmp	 SHORT $LN60@Partition_
$LN59@Partition_:
  00160	0f 9f c0	 setg	 al
$LN60@Partition_:
; File C:\Program Files\Microsoft Visual Studio\2022\Professional\VC\Tools\MSVC\14.44.35207\include\algorithm

; 8311 :     while (_Plast < _Last && !_DEBUG_LT_PRED(_Pred, *_Plast, *_Pfirst) && !_Pred(*_Pfirst, *_Plast)) {

  00163	84 c0		 test	 al, al
  00165	75 24		 jne	 SHORT $LN105@Partition_
; File C:\IAGOS\server\v18\Source\Source\_Common\lord.h

; 161  : 		return ( lhs->GetVote() == rhs->GetVote()?

  00167	3b f1		 cmp	 esi, ecx
  00169	75 0d		 jne	 SHORT $LN67@Partition_
  0016b	8b 83 14 01 00
	00		 mov	 eax, DWORD PTR [ebx+276]
  00171	3b 02		 cmp	 eax, DWORD PTR [edx]
  00173	0f 9c c0	 setl	 al
  00176	eb 03		 jmp	 SHORT $LN68@Partition_
$LN67@Partition_:
  00178	0f 9f c0	 setg	 al
$LN68@Partition_:
; File C:\Program Files\Microsoft Visual Studio\2022\Professional\VC\Tools\MSVC\14.44.35207\include\algorithm

; 8311 :     while (_Plast < _Last && !_DEBUG_LT_PRED(_Pred, *_Plast, *_Pfirst) && !_Pred(*_Pfirst, *_Plast)) {

  0017b	84 c0		 test	 al, al
  0017d	8b 45 10	 mov	 eax, DWORD PTR __Last$[ebp]
  00180	75 0c		 jne	 SHORT $LN101@Partition_

; 8312 :         ++_Plast;

  00182	83 c7 08	 add	 edi, 8
  00185	3b f8		 cmp	 edi, eax
  00187	72 b8		 jb	 SHORT $LL4@Partition_

; 8311 :     while (_Plast < _Last && !_DEBUG_LT_PRED(_Pred, *_Plast, *_Pfirst) && !_Pred(*_Pfirst, *_Plast)) {

  00189	eb 03		 jmp	 SHORT $LN101@Partition_
$LN105@Partition_:
  0018b	8b 45 10	 mov	 eax, DWORD PTR __Last$[ebp]
$LN101@Partition_:
  0018e	8b 5d f0	 mov	 ebx, DWORD PTR __Pfirst$1$[ebp]
  00191	89 7d f4	 mov	 DWORD PTR __Plast$1$[ebp], edi
$LN5@Partition_:

; 8313 :     }
; 8314 : 
; 8315 :     _RanIt _Gfirst = _Plast;

  00194	8b f7		 mov	 esi, edi

; 8316 :     _RanIt _Glast  = _Pfirst;

  00196	8b d3		 mov	 edx, ebx
  00198	89 75 f0	 mov	 DWORD PTR __Gfirst$1$[ebp], esi
  0019b	89 55 f8	 mov	 DWORD PTR __Glast$1$[ebp], edx
  0019e	66 90		 npad	 2
$LL8@Partition_:

; 8317 : 
; 8318 :     for (;;) { // partition
; 8319 :         for (; _Gfirst < _Last; ++_Gfirst) {

  001a0	3b f0		 cmp	 esi, eax
  001a2	0f 83 a2 00 00
	00		 jae	 $LN79@Partition_
  001a8	0f 1f 84 00 00
	00 00 00	 npad	 8
$LL11@Partition_:
; File C:\IAGOS\server\v18\Source\Source\_Common\lord.h

; 161  : 		return ( lhs->GetVote() == rhs->GetVote()?

  001b0	8b 06		 mov	 eax, DWORD PTR [esi]
  001b2	8b 0b		 mov	 ecx, DWORD PTR [ebx]
  001b4	8b b0 10 01 00
	00		 mov	 esi, DWORD PTR [eax+272]
  001ba	05 14 01 00 00	 add	 eax, 276		; 00000114H
  001bf	8b 91 10 01 00
	00		 mov	 edx, DWORD PTR [ecx+272]
  001c5	81 c1 14 01 00
	00		 add	 ecx, 276		; 00000114H
  001cb	89 45 e8	 mov	 DWORD PTR $T5[ebp], eax
  001ce	8b c6		 mov	 eax, esi
  001d0	89 75 f4	 mov	 DWORD PTR tv1257[ebp], esi
  001d3	8b 75 f0	 mov	 esi, DWORD PTR __Gfirst$1$[ebp]
  001d6	89 4d ec	 mov	 DWORD PTR $T6[ebp], ecx
  001d9	3b d0		 cmp	 edx, eax
  001db	75 10		 jne	 SHORT $LN47@Partition_
  001dd	8b 01		 mov	 eax, DWORD PTR [ecx]
  001df	8b 4d e8	 mov	 ecx, DWORD PTR $T5[ebp]
  001e2	3b 01		 cmp	 eax, DWORD PTR [ecx]
  001e4	8b 45 f4	 mov	 eax, DWORD PTR tv1257[ebp]
  001e7	0f 9c 45 ff	 setl	 BYTE PTR $T11[ebp]
  001eb	eb 10		 jmp	 SHORT $LN48@Partition_
$LN47@Partition_:
  001ed	8b 75 ec	 mov	 esi, DWORD PTR $T6[ebp]
  001f0	0f 9f 45 ff	 setg	 BYTE PTR $T11[ebp]
  001f4	8b 4d e8	 mov	 ecx, DWORD PTR $T5[ebp]
  001f7	89 75 ec	 mov	 DWORD PTR $T6[ebp], esi
  001fa	8b 75 f0	 mov	 esi, DWORD PTR __Gfirst$1$[ebp]
$LN48@Partition_:
; File C:\Program Files\Microsoft Visual Studio\2022\Professional\VC\Tools\MSVC\14.44.35207\include\algorithm

; 8320 :             if (_DEBUG_LT_PRED(_Pred, *_Pfirst, *_Gfirst)) {

  001fd	80 7d ff 00	 cmp	 BYTE PTR $T11[ebp], 0
  00201	75 32		 jne	 SHORT $LN9@Partition_
; File C:\IAGOS\server\v18\Source\Source\_Common\lord.h

; 161  : 		return ( lhs->GetVote() == rhs->GetVote()?

  00203	3b c2		 cmp	 eax, edx
  00205	75 0c		 jne	 SHORT $LN51@Partition_
  00207	8b 01		 mov	 eax, DWORD PTR [ecx]
  00209	8b 4d ec	 mov	 ecx, DWORD PTR $T6[ebp]
  0020c	3b 01		 cmp	 eax, DWORD PTR [ecx]
  0020e	0f 9c c0	 setl	 al
  00211	eb 03		 jmp	 SHORT $LN52@Partition_
$LN51@Partition_:
  00213	0f 9f c0	 setg	 al
$LN52@Partition_:
; File C:\Program Files\Microsoft Visual Studio\2022\Professional\VC\Tools\MSVC\14.44.35207\include\algorithm

; 8322 :             } else if (_Pred(*_Gfirst, *_Pfirst)) {

  00216	84 c0		 test	 al, al
  00218	75 2a		 jne	 SHORT $LN102@Partition_

; 8323 :                 break;
; 8324 :             } else if (_Plast != _Gfirst) {

  0021a	8d 47 08	 lea	 eax, DWORD PTR [edi+8]
  0021d	89 45 e0	 mov	 DWORD PTR tv1270[ebp], eax
  00220	3b fe		 cmp	 edi, esi
  00222	74 0f		 je	 SHORT $LN19@Partition_

; 8325 :                 swap(*_Plast, *_Gfirst); // intentional ADL

  00224	56		 push	 esi
  00225	57		 push	 edi
  00226	e8 00 00 00 00	 call	 ??$swap@VCCandidate@@@std@@YAXAAV?$shared_ptr@VCCandidate@@@0@0@Z ; std::swap<CCandidate>

; 8326 :                 ++_Plast;

  0022b	8b 7d e0	 mov	 edi, DWORD PTR tv1270[ebp]
  0022e	83 c4 08	 add	 esp, 8

; 8327 :             } else {

  00231	eb 02		 jmp	 SHORT $LN9@Partition_
$LN19@Partition_:

; 8328 :                 ++_Plast;

  00233	8b f8		 mov	 edi, eax
$LN9@Partition_:

; 8317 : 
; 8318 :     for (;;) { // partition
; 8319 :         for (; _Gfirst < _Last; ++_Gfirst) {

  00235	83 c6 08	 add	 esi, 8
  00238	89 75 f0	 mov	 DWORD PTR __Gfirst$1$[ebp], esi
  0023b	3b 75 10	 cmp	 esi, DWORD PTR __Last$[ebp]
  0023e	0f 82 6c ff ff
	ff		 jb	 $LL11@Partition_
$LN102@Partition_:
  00244	8b 55 f8	 mov	 edx, DWORD PTR __Glast$1$[ebp]
  00247	89 7d f4	 mov	 DWORD PTR __Plast$1$[ebp], edi
$LN79@Partition_:

; 8329 :             }
; 8330 :         }
; 8331 : 
; 8332 :         for (; _First < _Glast; --_Glast) {

  0024a	8b 45 0c	 mov	 eax, DWORD PTR __First$[ebp]
  0024d	8b ce		 mov	 ecx, esi
  0024f	89 4d e0	 mov	 DWORD PTR $T1[ebp], ecx
  00252	3b c2		 cmp	 eax, edx
  00254	0f 83 a1 00 00
	00		 jae	 $LN80@Partition_
  0025a	8d 72 f8	 lea	 esi, DWORD PTR [edx-8]
  0025d	0f 1f 00	 npad	 3
$LL14@Partition_:
; File C:\IAGOS\server\v18\Source\Source\_Common\lord.h

; 161  : 		return ( lhs->GetVote() == rhs->GetVote()?

  00260	8b 06		 mov	 eax, DWORD PTR [esi]
  00262	8b 0b		 mov	 ecx, DWORD PTR [ebx]
  00264	8b b8 10 01 00
	00		 mov	 edi, DWORD PTR [eax+272]
  0026a	05 14 01 00 00	 add	 eax, 276		; 00000114H
  0026f	89 45 e4	 mov	 DWORD PTR $T4[ebp], eax
  00272	8d 81 14 01 00
	00		 lea	 eax, DWORD PTR [ecx+276]
  00278	89 7d e8	 mov	 DWORD PTR tv1254[ebp], edi
  0027b	8b b9 10 01 00
	00		 mov	 edi, DWORD PTR [ecx+272]
  00281	8b 4d e4	 mov	 ecx, DWORD PTR $T4[ebp]
  00284	89 45 ec	 mov	 DWORD PTR $T8[ebp], eax
  00287	8b 45 e8	 mov	 eax, DWORD PTR tv1254[ebp]
  0028a	8b 55 ec	 mov	 edx, DWORD PTR $T8[ebp]
  0028d	3b c7		 cmp	 eax, edi
  0028f	75 0d		 jne	 SHORT $LN36@Partition_
  00291	8b 01		 mov	 eax, DWORD PTR [ecx]
  00293	3b 02		 cmp	 eax, DWORD PTR [edx]
  00295	8b 45 e8	 mov	 eax, DWORD PTR tv1254[ebp]
  00298	0f 9c 45 ff	 setl	 BYTE PTR $T9[ebp]
  0029c	eb 07		 jmp	 SHORT $LN136@Partition_
$LN36@Partition_:
  0029e	0f 9f 45 ff	 setg	 BYTE PTR $T9[ebp]
  002a2	89 55 ec	 mov	 DWORD PTR $T8[ebp], edx
$LN136@Partition_:
; File C:\Program Files\Microsoft Visual Studio\2022\Professional\VC\Tools\MSVC\14.44.35207\include\algorithm

; 8334 :             if (_DEBUG_LT_PRED(_Pred, *_Glast_prev, *_Pfirst)) {

  002a5	80 7d ff 00	 cmp	 BYTE PTR $T9[ebp], 0
  002a9	8b 55 f8	 mov	 edx, DWORD PTR __Glast$1$[ebp]
  002ac	75 2b		 jne	 SHORT $LN12@Partition_
; File C:\IAGOS\server\v18\Source\Source\_Common\lord.h

; 161  : 		return ( lhs->GetVote() == rhs->GetVote()?

  002ae	3b f8		 cmp	 edi, eax
  002b0	75 0c		 jne	 SHORT $LN40@Partition_
  002b2	8b 45 ec	 mov	 eax, DWORD PTR $T8[ebp]
  002b5	8b 00		 mov	 eax, DWORD PTR [eax]
  002b7	3b 01		 cmp	 eax, DWORD PTR [ecx]
  002b9	0f 9c c0	 setl	 al
  002bc	eb 03		 jmp	 SHORT $LN41@Partition_
$LN40@Partition_:
  002be	0f 9f c0	 setg	 al
$LN41@Partition_:
; File C:\Program Files\Microsoft Visual Studio\2022\Professional\VC\Tools\MSVC\14.44.35207\include\algorithm

; 8336 :             } else if (_Pred(*_Pfirst, *_Glast_prev)) {

  002c1	84 c0		 test	 al, al
  002c3	75 2a		 jne	 SHORT $LN106@Partition_

; 8337 :                 break;
; 8338 :             } else if (--_Pfirst != _Glast_prev) {

  002c5	83 eb 08	 sub	 ebx, 8
  002c8	3b de		 cmp	 ebx, esi
  002ca	74 0d		 je	 SHORT $LN12@Partition_

; 8339 :                 swap(*_Pfirst, *_Glast_prev); // intentional ADL

  002cc	56		 push	 esi
  002cd	53		 push	 ebx
  002ce	e8 00 00 00 00	 call	 ??$swap@VCCandidate@@@std@@YAXAAV?$shared_ptr@VCCandidate@@@0@0@Z ; std::swap<CCandidate>
  002d3	8b 55 f8	 mov	 edx, DWORD PTR __Glast$1$[ebp]
  002d6	83 c4 08	 add	 esp, 8
$LN12@Partition_:

; 8329 :             }
; 8330 :         }
; 8331 : 
; 8332 :         for (; _First < _Glast; --_Glast) {

  002d9	8b 45 0c	 mov	 eax, DWORD PTR __First$[ebp]
  002dc	83 ea 08	 sub	 edx, 8
  002df	83 ee 08	 sub	 esi, 8
  002e2	89 55 f8	 mov	 DWORD PTR __Glast$1$[ebp], edx
  002e5	3b c2		 cmp	 eax, edx
  002e7	0f 82 73 ff ff
	ff		 jb	 $LL14@Partition_

; 8336 :             } else if (_Pred(*_Pfirst, *_Glast_prev)) {

  002ed	eb 03		 jmp	 SHORT $LN103@Partition_
$LN106@Partition_:
  002ef	8b 45 0c	 mov	 eax, DWORD PTR __First$[ebp]
$LN103@Partition_:
  002f2	8b 75 f0	 mov	 esi, DWORD PTR __Gfirst$1$[ebp]
  002f5	8b 7d f4	 mov	 edi, DWORD PTR __Plast$1$[ebp]
  002f8	8b 4d e0	 mov	 ecx, DWORD PTR $T1[ebp]
$LN80@Partition_:

; 8340 :             }
; 8341 :         }
; 8342 : 
; 8343 :         if (_Glast == _First && _Gfirst == _Last) {

  002fb	89 5d e4	 mov	 DWORD PTR $T2[ebp], ebx
  002fe	3b d0		 cmp	 edx, eax
  00300	75 24		 jne	 SHORT $LN27@Partition_
  00302	3b 75 10	 cmp	 esi, DWORD PTR __Last$[ebp]
  00305	74 69		 je	 SHORT $LN81@Partition_

; 8345 :         }
; 8346 : 
; 8347 :         if (_Glast == _First) { // no room at bottom, rotate pivot upward
; 8348 :             if (_Plast != _Gfirst) {

  00307	3b fe		 cmp	 edi, esi
  00309	74 0a		 je	 SHORT $LN29@Partition_

; 8349 :                 swap(*_Pfirst, *_Plast); // intentional ADL

  0030b	57		 push	 edi
  0030c	53		 push	 ebx
  0030d	e8 00 00 00 00	 call	 ??$swap@VCCandidate@@@std@@YAXAAV?$shared_ptr@VCCandidate@@@0@0@Z ; std::swap<CCandidate>
  00312	83 c4 08	 add	 esp, 8
$LN29@Partition_:

; 8350 :             }
; 8351 : 
; 8352 :             ++_Plast;
; 8353 :             swap(*_Pfirst, *_Gfirst); // intentional ADL
; 8354 :             ++_Pfirst;
; 8355 :             ++_Gfirst;

  00315	8b 45 e4	 mov	 eax, DWORD PTR $T2[ebp]
  00318	83 c7 08	 add	 edi, 8
  0031b	8b 4d e0	 mov	 ecx, DWORD PTR $T1[ebp]
  0031e	83 c3 08	 add	 ebx, 8
  00321	89 7d f4	 mov	 DWORD PTR __Plast$1$[ebp], edi
  00324	eb 2f		 jmp	 SHORT $LN137@Partition_
$LN27@Partition_:

; 8356 :         } else if (_Gfirst == _Last) { // no room at top, rotate pivot downward

  00326	83 c2 f8	 add	 edx, -8			; fffffff8H
  00329	89 55 f8	 mov	 DWORD PTR __Glast$1$[ebp], edx
  0032c	3b 75 10	 cmp	 esi, DWORD PTR __Last$[ebp]
  0032f	75 1d		 jne	 SHORT $LN30@Partition_

; 8357 :             if (--_Glast != --_Pfirst) {

  00331	83 eb 08	 sub	 ebx, 8
  00334	3b d3		 cmp	 edx, ebx
  00336	74 0a		 je	 SHORT $LN32@Partition_

; 8358 :                 swap(*_Glast, *_Pfirst); // intentional ADL

  00338	53		 push	 ebx
  00339	52		 push	 edx
  0033a	e8 00 00 00 00	 call	 ??$swap@VCCandidate@@@std@@YAXAAV?$shared_ptr@VCCandidate@@@0@0@Z ; std::swap<CCandidate>
  0033f	83 c4 08	 add	 esp, 8
$LN32@Partition_:

; 8359 :             }
; 8360 : 
; 8361 :             swap(*_Pfirst, *--_Plast); // intentional ADL

  00342	83 ef 08	 sub	 edi, 8
  00345	8b c3		 mov	 eax, ebx
  00347	89 7d f4	 mov	 DWORD PTR __Plast$1$[ebp], edi
  0034a	8b cf		 mov	 ecx, edi

; 8362 :         } else {

  0034c	eb 0d		 jmp	 SHORT $LN6@Partition_
$LN30@Partition_:

; 8363 :             swap(*_Gfirst, *--_Glast); // intentional ADL
; 8364 :             ++_Gfirst;

  0034e	8b c1		 mov	 eax, ecx
  00350	89 55 f8	 mov	 DWORD PTR __Glast$1$[ebp], edx
  00353	8b ca		 mov	 ecx, edx
$LN137@Partition_:
  00355	83 c6 08	 add	 esi, 8
  00358	89 75 f0	 mov	 DWORD PTR __Gfirst$1$[ebp], esi
$LN6@Partition_:
  0035b	51		 push	 ecx
  0035c	50		 push	 eax
  0035d	e8 00 00 00 00	 call	 ??$swap@VCCandidate@@@std@@YAXAAV?$shared_ptr@VCCandidate@@@0@0@Z ; std::swap<CCandidate>
  00362	8b 55 f8	 mov	 edx, DWORD PTR __Glast$1$[ebp]
  00365	83 c4 08	 add	 esp, 8
  00368	8b 45 10	 mov	 eax, DWORD PTR __Last$[ebp]
  0036b	e9 30 fe ff ff	 jmp	 $LL8@Partition_
$LN81@Partition_:
; File C:\Program Files\Microsoft Visual Studio\2022\Professional\VC\Tools\MSVC\14.44.35207\include\utility

; 274  :         : first(_STD forward<_Other1>(_Val1)), second(_STD forward<_Other2>(_Val2)) {

  00370	8b 45 08	 mov	 eax, DWORD PTR ___$ReturnUdt$[ebp]
  00373	89 78 04	 mov	 DWORD PTR [eax+4], edi
; File C:\Program Files\Microsoft Visual Studio\2022\Professional\VC\Tools\MSVC\14.44.35207\include\algorithm

; 8344 :             return pair<_RanIt, _RanIt>(_Pfirst, _Plast);

  00376	5f		 pop	 edi
  00377	5e		 pop	 esi
; File C:\Program Files\Microsoft Visual Studio\2022\Professional\VC\Tools\MSVC\14.44.35207\include\utility

; 274  :         : first(_STD forward<_Other1>(_Val1)), second(_STD forward<_Other2>(_Val2)) {

  00378	89 18		 mov	 DWORD PTR [eax], ebx
; File C:\Program Files\Microsoft Visual Studio\2022\Professional\VC\Tools\MSVC\14.44.35207\include\algorithm

; 8344 :             return pair<_RanIt, _RanIt>(_Pfirst, _Plast);

  0037a	5b		 pop	 ebx

; 8365 :         }
; 8366 :     }
; 8367 : }

  0037b	8b e5		 mov	 esp, ebp
  0037d	5d		 pop	 ebp
  0037e	c3		 ret	 0
??$_Partition_by_median_guess_unchecked@PAV?$shared_ptr@VCCandidate@@@std@@UVoteCompare@@@std@@YA?AU?$pair@PAV?$shared_ptr@VCCandidate@@@std@@PAV12@@0@PAV?$shared_ptr@VCCandidate@@@0@0UVoteCompare@@@Z ENDP ; std::_Partition_by_median_guess_unchecked<std::shared_ptr<CCandidate> *,VoteCompare>
_TEXT	ENDS
; Function compile flags: /Ogtp
; File C:\Program Files\Microsoft Visual Studio\2022\Professional\VC\Tools\MSVC\14.44.35207\include\algorithm
; File C:\Program Files\Microsoft Visual Studio\2022\Professional\VC\Tools\MSVC\14.44.35207\include\memory
; File C:\Program Files\Microsoft Visual Studio\2022\Professional\VC\Tools\MSVC\14.44.35207\include\algorithm
; File C:\Program Files\Microsoft Visual Studio\2022\Professional\VC\Tools\MSVC\14.44.35207\include\memory
; File C:\IAGOS\server\v18\Source\Source\_Common\lord.h
; File C:\Program Files\Microsoft Visual Studio\2022\Professional\VC\Tools\MSVC\14.44.35207\include\memory
; File C:\IAGOS\server\v18\Source\Source\_Common\lord.h
; File C:\Program Files\Microsoft Visual Studio\2022\Professional\VC\Tools\MSVC\14.44.35207\include\memory
; File C:\IAGOS\server\v18\Source\Source\_Common\lord.h
; File C:\Program Files\Microsoft Visual Studio\2022\Professional\VC\Tools\MSVC\14.44.35207\include\algorithm
; File C:\Program Files\Microsoft Visual Studio\2022\Professional\VC\Tools\MSVC\14.44.35207\include\xutility
; File C:\Program Files\Microsoft Visual Studio\2022\Professional\VC\Tools\MSVC\14.44.35207\include\memory
; File C:\Program Files\Microsoft Visual Studio\2022\Professional\VC\Tools\MSVC\14.44.35207\include\xutility
; File C:\Program Files\Microsoft Visual Studio\2022\Professional\VC\Tools\MSVC\14.44.35207\include\memory
; File C:\Program Files\Microsoft Visual Studio\2022\Professional\VC\Tools\MSVC\14.44.35207\include\xutility
; File C:\Program Files\Microsoft Visual Studio\2022\Professional\VC\Tools\MSVC\14.44.35207\include\memory
; File C:\Program Files\Microsoft Visual Studio\2022\Professional\VC\Tools\MSVC\14.44.35207\include\utility
; File C:\Program Files\Microsoft Visual Studio\2022\Professional\VC\Tools\MSVC\14.44.35207\include\memory
; File C:\Program Files\Microsoft Visual Studio\2022\Professional\VC\Tools\MSVC\14.44.35207\include\xutility
; File C:\Program Files\Microsoft Visual Studio\2022\Professional\VC\Tools\MSVC\14.44.35207\include\utility
; File C:\Program Files\Microsoft Visual Studio\2022\Professional\VC\Tools\MSVC\14.44.35207\include\memory
; File C:\Program Files\Microsoft Visual Studio\2022\Professional\VC\Tools\MSVC\14.44.35207\include\algorithm
; File C:\IAGOS\server\v18\Source\Source\_Common\lord.h
; File C:\Program Files\Microsoft Visual Studio\2022\Professional\VC\Tools\MSVC\14.44.35207\include\algorithm
; File C:\IAGOS\server\v18\Source\Source\_Common\lord.h
; File C:\Program Files\Microsoft Visual Studio\2022\Professional\VC\Tools\MSVC\14.44.35207\include\algorithm
; File C:\Program Files\Microsoft Visual Studio\2022\Professional\VC\Tools\MSVC\14.44.35207\include\memory
; File C:\Program Files\Microsoft Visual Studio\2022\Professional\VC\Tools\MSVC\14.44.35207\include\utility
; File C:\Program Files\Microsoft Visual Studio\2022\Professional\VC\Tools\MSVC\14.44.35207\include\memory
; File C:\Program Files\Microsoft Visual Studio\2022\Professional\VC\Tools\MSVC\14.44.35207\include\algorithm
; File C:\Program Files\Microsoft Visual Studio\2022\Professional\VC\Tools\MSVC\14.44.35207\include\utility
; File C:\Program Files\Microsoft Visual Studio\2022\Professional\VC\Tools\MSVC\14.44.35207\include\memory
; File C:\Program Files\Microsoft Visual Studio\2022\Professional\VC\Tools\MSVC\14.44.35207\include\utility
; File C:\Program Files\Microsoft Visual Studio\2022\Professional\VC\Tools\MSVC\14.44.35207\include\memory
; File C:\Program Files\Microsoft Visual Studio\2022\Professional\VC\Tools\MSVC\14.44.35207\include\algorithm
;	COMDAT ??$_Insertion_sort_unchecked@PAV?$shared_ptr@VCCandidate@@@std@@UVoteCompare@@@std@@YAPAV?$shared_ptr@VCCandidate@@@0@QAV10@0UVoteCompare@@@Z
_TEXT	SEGMENT
tv1004 = -12						; size = 4
__Val$1$sroa$312$1$ = -8				; size = 4
__Mid$1$ = -4						; size = 4
__First$ = 8						; size = 4
__Last$ = 12						; size = 4
__Pred$ = 16						; size = 1
??$_Insertion_sort_unchecked@PAV?$shared_ptr@VCCandidate@@@std@@UVoteCompare@@@std@@YAPAV?$shared_ptr@VCCandidate@@@0@QAV10@0UVoteCompare@@@Z PROC ; std::_Insertion_sort_unchecked<std::shared_ptr<CCandidate> *,VoteCompare>, COMDAT

; 8242 : _CONSTEXPR20 _BidIt _Insertion_sort_unchecked(const _BidIt _First, const _BidIt _Last, _Pr _Pred) {

  00000	55		 push	 ebp
  00001	8b ec		 mov	 ebp, esp

; 8243 :     // insertion sort [_First, _Last)
; 8244 :     if (_First != _Last) {

  00003	8b 45 0c	 mov	 eax, DWORD PTR __Last$[ebp]
  00006	83 ec 0c	 sub	 esp, 12			; 0000000cH
  00009	53		 push	 ebx
  0000a	8b 5d 08	 mov	 ebx, DWORD PTR __First$[ebp]
  0000d	3b d8		 cmp	 ebx, eax
  0000f	0f 84 b1 01 00
	00		 je	 $LN3@Insertion_

; 8245 :         for (_BidIt _Mid = _First; ++_Mid != _Last;) { // order next element

  00015	8d 53 08	 lea	 edx, DWORD PTR [ebx+8]
  00018	89 55 fc	 mov	 DWORD PTR __Mid$1$[ebp], edx
  0001b	3b d0		 cmp	 edx, eax
  0001d	0f 84 a3 01 00
	00		 je	 $LN3@Insertion_
  00023	56		 push	 esi
  00024	57		 push	 edi
$LL4@Insertion_:
; File C:\Program Files\Microsoft Visual Studio\2022\Professional\VC\Tools\MSVC\14.44.35207\include\memory

; 1327 :         _Ptr = _Right._Ptr;

  00025	8b 02		 mov	 eax, DWORD PTR [edx]
  00027	8d 72 04	 lea	 esi, DWORD PTR [edx+4]

; 1328 :         _Rep = _Right._Rep;

  0002a	8b 3e		 mov	 edi, DWORD PTR [esi]
; File C:\Program Files\Microsoft Visual Studio\2022\Professional\VC\Tools\MSVC\14.44.35207\include\algorithm

; 8246 :             _BidIt _Hole = _Mid;

  0002c	8b ca		 mov	 ecx, edx
; File C:\Program Files\Microsoft Visual Studio\2022\Professional\VC\Tools\MSVC\14.44.35207\include\memory

; 1330 :         _Right._Ptr = nullptr;

  0002e	c7 02 00 00 00
	00		 mov	 DWORD PTR [edx], 0

; 1331 :         _Right._Rep = nullptr;

  00034	c7 06 00 00 00
	00		 mov	 DWORD PTR [esi], 0
; File C:\IAGOS\server\v18\Source\Source\_Common\lord.h

; 161  : 		return ( lhs->GetVote() == rhs->GetVote()?

  0003a	8b 13		 mov	 edx, DWORD PTR [ebx]
; File C:\Program Files\Microsoft Visual Studio\2022\Professional\VC\Tools\MSVC\14.44.35207\include\memory

; 1327 :         _Ptr = _Right._Ptr;

  0003c	89 45 f8	 mov	 DWORD PTR __Val$1$sroa$312$1$[ebp], eax
; File C:\IAGOS\server\v18\Source\Source\_Common\lord.h

; 161  : 		return ( lhs->GetVote() == rhs->GetVote()?

  0003f	8b 80 10 01 00
	00		 mov	 eax, DWORD PTR [eax+272]
; File C:\Program Files\Microsoft Visual Studio\2022\Professional\VC\Tools\MSVC\14.44.35207\include\memory

; 1328 :         _Rep = _Right._Rep;

  00045	89 7d f4	 mov	 DWORD PTR tv1004[ebp], edi
; File C:\IAGOS\server\v18\Source\Source\_Common\lord.h

; 161  : 		return ( lhs->GetVote() == rhs->GetVote()?

  00048	3b 82 10 01 00
	00		 cmp	 eax, DWORD PTR [edx+272]
  0004e	75 14		 jne	 SHORT $LN24@Insertion_
  00050	8b 45 f8	 mov	 eax, DWORD PTR __Val$1$sroa$312$1$[ebp]
  00053	8b 80 14 01 00
	00		 mov	 eax, DWORD PTR [eax+276]
  00059	3b 82 14 01 00
	00		 cmp	 eax, DWORD PTR [edx+276]
  0005f	0f 9c c0	 setl	 al
  00062	eb 03		 jmp	 SHORT $LN25@Insertion_
$LN24@Insertion_:
  00064	0f 9f c0	 setg	 al
$LN25@Insertion_:
; File C:\Program Files\Microsoft Visual Studio\2022\Professional\VC\Tools\MSVC\14.44.35207\include\algorithm

; 8249 :             if (_DEBUG_LT_PRED(_Pred, _Val, *_First)) { // found new earliest element, move to front

  00067	84 c0		 test	 al, al
  00069	0f 84 94 00 00
	00		 je	 $LN9@Insertion_
; File C:\Program Files\Microsoft Visual Studio\2022\Professional\VC\Tools\MSVC\14.44.35207\include\xutility

; 5194 :     while (_First != _Last) {

  0006f	39 5d fc	 cmp	 DWORD PTR __Mid$1$[ebp], ebx
  00072	74 4b		 je	 SHORT $LN28@Insertion_
$LL217@Insertion_:
; File C:\Program Files\Microsoft Visual Studio\2022\Professional\VC\Tools\MSVC\14.44.35207\include\memory

; 1327 :         _Ptr = _Right._Ptr;

  00074	8b 46 f4	 mov	 eax, DWORD PTR [esi-12]
; File C:\Program Files\Microsoft Visual Studio\2022\Professional\VC\Tools\MSVC\14.44.35207\include\xutility

; 5195 :         *--_Dest = _STD move(*--_Last);

  00077	8b d6		 mov	 edx, esi
; File C:\Program Files\Microsoft Visual Studio\2022\Professional\VC\Tools\MSVC\14.44.35207\include\memory

; 1328 :         _Rep = _Right._Rep;

  00079	8b 4e f8	 mov	 ecx, DWORD PTR [esi-8]
; File C:\Program Files\Microsoft Visual Studio\2022\Professional\VC\Tools\MSVC\14.44.35207\include\xutility

; 5195 :         *--_Dest = _STD move(*--_Last);

  0007c	83 ee 08	 sub	 esi, 8
; File C:\Program Files\Microsoft Visual Studio\2022\Professional\VC\Tools\MSVC\14.44.35207\include\memory

; 1330 :         _Right._Ptr = nullptr;

  0007f	c7 46 fc 00 00
	00 00		 mov	 DWORD PTR [esi-4], 0

; 1331 :         _Right._Rep = nullptr;

  00086	c7 06 00 00 00
	00		 mov	 DWORD PTR [esi], 0
; File C:\Program Files\Microsoft Visual Studio\2022\Professional\VC\Tools\MSVC\14.44.35207\include\utility

; 140  :     _Left    = _STD move(_Right);

  0008c	8b 3a		 mov	 edi, DWORD PTR [edx]

; 141  :     _Right   = _STD move(_Tmp);

  0008e	89 46 04	 mov	 DWORD PTR [esi+4], eax
  00091	89 0a		 mov	 DWORD PTR [edx], ecx
  00093	85 ff		 test	 edi, edi
; File C:\Program Files\Microsoft Visual Studio\2022\Professional\VC\Tools\MSVC\14.44.35207\include\memory

; 1384 :         if (_Rep) {

  00095	74 21		 je	 SHORT $LN68@Insertion_

; 1159 :         if (_MT_DECR(_Uses) == 0) {

  00097	83 c8 ff	 or	 eax, -1
  0009a	f0 0f c1 47 04	 lock	  xadd	 DWORD PTR [edi+4], eax
  0009f	75 17		 jne	 SHORT $LN68@Insertion_

; 1160 :             _Destroy();

  000a1	8b 07		 mov	 eax, DWORD PTR [edi]
  000a3	8b cf		 mov	 ecx, edi
  000a5	ff 10		 call	 DWORD PTR [eax]

; 1166 :         if (_MT_DECR(_Weaks) == 0) {

  000a7	83 c8 ff	 or	 eax, -1
  000aa	f0 0f c1 47 08	 lock	  xadd	 DWORD PTR [edi+8], eax
  000af	75 07		 jne	 SHORT $LN68@Insertion_

; 1167 :             _Delete_this();

  000b1	8b 07		 mov	 eax, DWORD PTR [edi]
  000b3	8b cf		 mov	 ecx, edi
  000b5	ff 50 04	 call	 DWORD PTR [eax+4]
$LN68@Insertion_:
; File C:\Program Files\Microsoft Visual Studio\2022\Professional\VC\Tools\MSVC\14.44.35207\include\xutility

; 5194 :     while (_First != _Last) {

  000b8	8d 46 fc	 lea	 eax, DWORD PTR [esi-4]
  000bb	3b c3		 cmp	 eax, ebx
  000bd	75 b5		 jne	 SHORT $LL217@Insertion_
$LN28@Insertion_:
; File C:\Program Files\Microsoft Visual Studio\2022\Professional\VC\Tools\MSVC\14.44.35207\include\utility

; 141  :     _Right   = _STD move(_Tmp);

  000bf	8b 45 f8	 mov	 eax, DWORD PTR __Val$1$sroa$312$1$[ebp]

; 140  :     _Left    = _STD move(_Right);

  000c2	8b 73 04	 mov	 esi, DWORD PTR [ebx+4]

; 141  :     _Right   = _STD move(_Tmp);

  000c5	89 03		 mov	 DWORD PTR [ebx], eax
  000c7	8b 45 f4	 mov	 eax, DWORD PTR tv1004[ebp]
  000ca	89 43 04	 mov	 DWORD PTR [ebx+4], eax
  000cd	85 f6		 test	 esi, esi
; File C:\Program Files\Microsoft Visual Studio\2022\Professional\VC\Tools\MSVC\14.44.35207\include\memory

; 1384 :         if (_Rep) {

  000cf	0f 84 db 00 00
	00		 je	 $LN2@Insertion_

; 1159 :         if (_MT_DECR(_Uses) == 0) {

  000d5	83 c8 ff	 or	 eax, -1
  000d8	f0 0f c1 46 04	 lock	  xadd	 DWORD PTR [esi+4], eax
  000dd	0f 85 cd 00 00
	00		 jne	 $LN2@Insertion_

; 1160 :             _Destroy();

  000e3	8b 06		 mov	 eax, DWORD PTR [esi]
  000e5	8b ce		 mov	 ecx, esi
  000e7	ff 10		 call	 DWORD PTR [eax]

; 1166 :         if (_MT_DECR(_Weaks) == 0) {

  000e9	83 c8 ff	 or	 eax, -1
  000ec	f0 0f c1 46 08	 lock	  xadd	 DWORD PTR [esi+8], eax
  000f1	0f 85 b9 00 00
	00		 jne	 $LN2@Insertion_

; 1167 :             _Delete_this();

  000f7	8b 06		 mov	 eax, DWORD PTR [esi]
  000f9	8b ce		 mov	 ecx, esi
  000fb	ff 50 04	 call	 DWORD PTR [eax+4]
; File C:\Program Files\Microsoft Visual Studio\2022\Professional\VC\Tools\MSVC\14.44.35207\include\algorithm

; 8252 :             } else { // look for insertion point after first

  000fe	e9 ad 00 00 00	 jmp	 $LN2@Insertion_
$LN9@Insertion_:

; 8253 :                 for (_BidIt _Prev = _Hole; _DEBUG_LT_PRED(_Pred, _Val, *--_Prev); _Hole = _Prev) {

  00103	8b 7d fc	 mov	 edi, DWORD PTR __Mid$1$[ebp]
  00106	8b 5d f8	 mov	 ebx, DWORD PTR __Val$1$sroa$312$1$[ebp]
  00109	0f 1f 80 00 00
	00 00		 npad	 7
$LL7@Insertion_:
; File C:\IAGOS\server\v18\Source\Source\_Common\lord.h

; 161  : 		return ( lhs->GetVote() == rhs->GetVote()?

  00110	8b 57 f8	 mov	 edx, DWORD PTR [edi-8]
; File C:\Program Files\Microsoft Visual Studio\2022\Professional\VC\Tools\MSVC\14.44.35207\include\algorithm

; 8253 :                 for (_BidIt _Prev = _Hole; _DEBUG_LT_PRED(_Pred, _Val, *--_Prev); _Hole = _Prev) {

  00113	83 ef 08	 sub	 edi, 8
; File C:\IAGOS\server\v18\Source\Source\_Common\lord.h

; 161  : 		return ( lhs->GetVote() == rhs->GetVote()?

  00116	8b 83 10 01 00
	00		 mov	 eax, DWORD PTR [ebx+272]
  0011c	3b 82 10 01 00
	00		 cmp	 eax, DWORD PTR [edx+272]
  00122	75 11		 jne	 SHORT $LN114@Insertion_
  00124	8b 83 14 01 00
	00		 mov	 eax, DWORD PTR [ebx+276]
  0012a	3b 82 14 01 00
	00		 cmp	 eax, DWORD PTR [edx+276]
  00130	0f 9c c0	 setl	 al
  00133	eb 03		 jmp	 SHORT $LN115@Insertion_
$LN114@Insertion_:
  00135	0f 9f c0	 setg	 al
$LN115@Insertion_:
; File C:\Program Files\Microsoft Visual Studio\2022\Professional\VC\Tools\MSVC\14.44.35207\include\algorithm

; 8253 :                 for (_BidIt _Prev = _Hole; _DEBUG_LT_PRED(_Pred, _Val, *--_Prev); _Hole = _Prev) {

  00138	84 c0		 test	 al, al
  0013a	74 41		 je	 SHORT $LN6@Insertion_
; File C:\Program Files\Microsoft Visual Studio\2022\Professional\VC\Tools\MSVC\14.44.35207\include\memory

; 1328 :         _Rep = _Right._Rep;

  0013c	8b 47 04	 mov	 eax, DWORD PTR [edi+4]

; 1330 :         _Right._Ptr = nullptr;

  0013f	c7 07 00 00 00
	00		 mov	 DWORD PTR [edi], 0

; 1331 :         _Right._Rep = nullptr;

  00145	c7 47 04 00 00
	00 00		 mov	 DWORD PTR [edi+4], 0
; File C:\Program Files\Microsoft Visual Studio\2022\Professional\VC\Tools\MSVC\14.44.35207\include\utility

; 140  :     _Left    = _STD move(_Right);

  0014c	8b 71 04	 mov	 esi, DWORD PTR [ecx+4]

; 141  :     _Right   = _STD move(_Tmp);

  0014f	89 11		 mov	 DWORD PTR [ecx], edx
  00151	89 41 04	 mov	 DWORD PTR [ecx+4], eax
  00154	85 f6		 test	 esi, esi
; File C:\Program Files\Microsoft Visual Studio\2022\Professional\VC\Tools\MSVC\14.44.35207\include\memory

; 1384 :         if (_Rep) {

  00156	74 21		 je	 SHORT $LN5@Insertion_

; 1159 :         if (_MT_DECR(_Uses) == 0) {

  00158	83 c8 ff	 or	 eax, -1
  0015b	f0 0f c1 46 04	 lock	  xadd	 DWORD PTR [esi+4], eax
  00160	75 17		 jne	 SHORT $LN5@Insertion_

; 1160 :             _Destroy();

  00162	8b 06		 mov	 eax, DWORD PTR [esi]
  00164	8b ce		 mov	 ecx, esi
  00166	ff 10		 call	 DWORD PTR [eax]

; 1166 :         if (_MT_DECR(_Weaks) == 0) {

  00168	83 c8 ff	 or	 eax, -1
  0016b	f0 0f c1 46 08	 lock	  xadd	 DWORD PTR [esi+8], eax
  00170	75 07		 jne	 SHORT $LN5@Insertion_

; 1167 :             _Delete_this();

  00172	8b 06		 mov	 eax, DWORD PTR [esi]
  00174	8b ce		 mov	 ecx, esi
  00176	ff 50 04	 call	 DWORD PTR [eax+4]
$LN5@Insertion_:
; File C:\Program Files\Microsoft Visual Studio\2022\Professional\VC\Tools\MSVC\14.44.35207\include\algorithm

; 8253 :                 for (_BidIt _Prev = _Hole; _DEBUG_LT_PRED(_Pred, _Val, *--_Prev); _Hole = _Prev) {

  00179	8b cf		 mov	 ecx, edi
  0017b	eb 93		 jmp	 SHORT $LL7@Insertion_
$LN6@Insertion_:
; File C:\Program Files\Microsoft Visual Studio\2022\Professional\VC\Tools\MSVC\14.44.35207\include\utility

; 140  :     _Left    = _STD move(_Right);

  0017d	8b 71 04	 mov	 esi, DWORD PTR [ecx+4]

; 141  :     _Right   = _STD move(_Tmp);

  00180	8b 45 f4	 mov	 eax, DWORD PTR tv1004[ebp]
  00183	89 19		 mov	 DWORD PTR [ecx], ebx
; File C:\Program Files\Microsoft Visual Studio\2022\Professional\VC\Tools\MSVC\14.44.35207\include\memory

; 1384 :         if (_Rep) {

  00185	8b 5d 08	 mov	 ebx, DWORD PTR __First$[ebp]
; File C:\Program Files\Microsoft Visual Studio\2022\Professional\VC\Tools\MSVC\14.44.35207\include\utility

; 141  :     _Right   = _STD move(_Tmp);

  00188	89 41 04	 mov	 DWORD PTR [ecx+4], eax
  0018b	85 f6		 test	 esi, esi
; File C:\Program Files\Microsoft Visual Studio\2022\Professional\VC\Tools\MSVC\14.44.35207\include\memory

; 1384 :         if (_Rep) {

  0018d	74 21		 je	 SHORT $LN2@Insertion_

; 1159 :         if (_MT_DECR(_Uses) == 0) {

  0018f	83 c8 ff	 or	 eax, -1
  00192	f0 0f c1 46 04	 lock	  xadd	 DWORD PTR [esi+4], eax
  00197	75 17		 jne	 SHORT $LN2@Insertion_

; 1160 :             _Destroy();

  00199	8b 06		 mov	 eax, DWORD PTR [esi]
  0019b	8b ce		 mov	 ecx, esi
  0019d	ff 10		 call	 DWORD PTR [eax]

; 1166 :         if (_MT_DECR(_Weaks) == 0) {

  0019f	83 c8 ff	 or	 eax, -1
  001a2	f0 0f c1 46 08	 lock	  xadd	 DWORD PTR [esi+8], eax
  001a7	75 07		 jne	 SHORT $LN2@Insertion_

; 1167 :             _Delete_this();

  001a9	8b 16		 mov	 edx, DWORD PTR [esi]
  001ab	8b ce		 mov	 ecx, esi
  001ad	ff 52 04	 call	 DWORD PTR [edx+4]
$LN2@Insertion_:
; File C:\Program Files\Microsoft Visual Studio\2022\Professional\VC\Tools\MSVC\14.44.35207\include\algorithm

; 8245 :         for (_BidIt _Mid = _First; ++_Mid != _Last;) { // order next element

  001b0	8b 55 fc	 mov	 edx, DWORD PTR __Mid$1$[ebp]
  001b3	8b 45 0c	 mov	 eax, DWORD PTR __Last$[ebp]
  001b6	83 c2 08	 add	 edx, 8
  001b9	89 55 fc	 mov	 DWORD PTR __Mid$1$[ebp], edx
  001bc	3b d0		 cmp	 edx, eax
  001be	0f 85 61 fe ff
	ff		 jne	 $LL4@Insertion_
  001c4	5f		 pop	 edi
  001c5	5e		 pop	 esi
$LN3@Insertion_:
  001c6	5b		 pop	 ebx

; 8254 :                     *_Hole = _STD move(*_Prev); // move hole down
; 8255 :                 }
; 8256 : 
; 8257 :                 *_Hole = _STD move(_Val); // insert element in hole
; 8258 :             }
; 8259 :         }
; 8260 :     }
; 8261 : 
; 8262 :     return _Last;
; 8263 : }

  001c7	8b e5		 mov	 esp, ebp
  001c9	5d		 pop	 ebp
  001ca	c3		 ret	 0
??$_Insertion_sort_unchecked@PAV?$shared_ptr@VCCandidate@@@std@@UVoteCompare@@@std@@YAPAV?$shared_ptr@VCCandidate@@@0@QAV10@0UVoteCompare@@@Z ENDP ; std::_Insertion_sort_unchecked<std::shared_ptr<CCandidate> *,VoteCompare>
_TEXT	ENDS
; Function compile flags: /Ogtp
; File C:\Program Files\Microsoft Visual Studio\2022\Professional\VC\Tools\MSVC\14.44.35207\include\algorithm
; File C:\IAGOS\server\v18\Source\Source\_Common\lord.h
; File C:\Program Files\Microsoft Visual Studio\2022\Professional\VC\Tools\MSVC\14.44.35207\include\algorithm
; File C:\IAGOS\server\v18\Source\Source\_Common\lord.h
; File C:\Program Files\Microsoft Visual Studio\2022\Professional\VC\Tools\MSVC\14.44.35207\include\algorithm
; File C:\IAGOS\server\v18\Source\Source\_Common\lord.h
; File C:\Program Files\Microsoft Visual Studio\2022\Professional\VC\Tools\MSVC\14.44.35207\include\algorithm
; File C:\IAGOS\server\v18\Source\Source\_Common\lord.h
; File C:\Program Files\Microsoft Visual Studio\2022\Professional\VC\Tools\MSVC\14.44.35207\include\algorithm
; File C:\IAGOS\server\v18\Source\Source\_Common\lord.h
; File C:\Program Files\Microsoft Visual Studio\2022\Professional\VC\Tools\MSVC\14.44.35207\include\algorithm
; File C:\IAGOS\server\v18\Source\Source\_Common\lord.h
; File C:\Program Files\Microsoft Visual Studio\2022\Professional\VC\Tools\MSVC\14.44.35207\include\algorithm
; File C:\IAGOS\server\v18\Source\Source\_Common\lord.h
; File C:\Program Files\Microsoft Visual Studio\2022\Professional\VC\Tools\MSVC\14.44.35207\include\algorithm
; File C:\IAGOS\server\v18\Source\Source\_Common\lord.h
; File C:\Program Files\Microsoft Visual Studio\2022\Professional\VC\Tools\MSVC\14.44.35207\include\algorithm
; File C:\IAGOS\server\v18\Source\Source\_Common\lord.h
; File C:\Program Files\Microsoft Visual Studio\2022\Professional\VC\Tools\MSVC\14.44.35207\include\algorithm
; File C:\IAGOS\server\v18\Source\Source\_Common\lord.h
; File C:\Program Files\Microsoft Visual Studio\2022\Professional\VC\Tools\MSVC\14.44.35207\include\algorithm
; File C:\IAGOS\server\v18\Source\Source\_Common\lord.h
; File C:\Program Files\Microsoft Visual Studio\2022\Professional\VC\Tools\MSVC\14.44.35207\include\algorithm
; File C:\IAGOS\server\v18\Source\Source\_Common\lord.h
; File C:\Program Files\Microsoft Visual Studio\2022\Professional\VC\Tools\MSVC\14.44.35207\include\algorithm
; File C:\IAGOS\server\v18\Source\Source\_Common\lord.h
; File C:\Program Files\Microsoft Visual Studio\2022\Professional\VC\Tools\MSVC\14.44.35207\include\algorithm
; File C:\Program Files\Microsoft Visual Studio\2022\Professional\VC\Tools\MSVC\14.44.35207\include\utility
; File C:\Program Files\Microsoft Visual Studio\2022\Professional\VC\Tools\MSVC\14.44.35207\include\algorithm
; File C:\Program Files\Microsoft Visual Studio\2022\Professional\VC\Tools\MSVC\14.44.35207\include\utility
; File C:\Program Files\Microsoft Visual Studio\2022\Professional\VC\Tools\MSVC\14.44.35207\include\algorithm
;	COMDAT ??$_Partition_by_median_guess_unchecked@PAV?$shared_ptr@VCCandidate@@@std@@UDepositCompare@@@std@@YA?AU?$pair@PAV?$shared_ptr@VCCandidate@@@std@@PAV12@@0@PAV?$shared_ptr@VCCandidate@@@0@0UDepositCompare@@@Z
_TEXT	SEGMENT
__Pred$ = -20						; size = 1
tv1039 = -20						; size = 4
tv1067 = -20						; size = 4
tv1111 = -20						; size = 4
tv1115 = -20						; size = 4
$T1 = -20						; size = 4
$T2 = -20						; size = 4
tv1040 = -16						; size = 4
tv1087 = -16						; size = 4
tv1108 = -16						; size = 4
$T3 = -16						; size = 4
tv1110 = -12						; size = 4
__Plast$1$ = -12					; size = 4
$T4 = -12						; size = 4
__Pfirst$1$ = -8					; size = 4
__Gfirst$1$ = -8					; size = 4
__Glast$1$ = -4						; size = 4
___$ReturnUdt$ = 8					; size = 4
__First$ = 12						; size = 4
__Last$ = 16						; size = 4
__Pred$ = 20						; size = 1
??$_Partition_by_median_guess_unchecked@PAV?$shared_ptr@VCCandidate@@@std@@UDepositCompare@@@std@@YA?AU?$pair@PAV?$shared_ptr@VCCandidate@@@std@@PAV12@@0@PAV?$shared_ptr@VCCandidate@@@0@0UDepositCompare@@@Z PROC ; std::_Partition_by_median_guess_unchecked<std::shared_ptr<CCandidate> *,DepositCompare>, COMDAT

; 8299 : _CONSTEXPR20 pair<_RanIt, _RanIt> _Partition_by_median_guess_unchecked(_RanIt _First, _RanIt _Last, _Pr _Pred) {

  00000	55		 push	 ebp
  00001	8b ec		 mov	 ebp, esp
  00003	83 ec 14	 sub	 esp, 20			; 00000014H
  00006	53		 push	 ebx
  00007	56		 push	 esi

; 8300 :     // partition [_First, _Last)
; 8301 :     _RanIt _Mid = _First + ((_Last - _First) >> 1); // shift for codegen

  00008	8b 75 10	 mov	 esi, DWORD PTR __Last$[ebp]
  0000b	8b c6		 mov	 eax, esi
  0000d	57		 push	 edi
  0000e	8b 7d 0c	 mov	 edi, DWORD PTR __First$[ebp]
  00011	2b c7		 sub	 eax, edi

; 8286 :     if (40 < _Count) { // Tukey's ninther

  00013	ff 75 14	 push	 DWORD PTR __Pred$[ebp]

; 8300 :     // partition [_First, _Last)
; 8301 :     _RanIt _Mid = _First + ((_Last - _First) >> 1); // shift for codegen

  00016	c1 f8 04	 sar	 eax, 4

; 8302 :     _STD _Guess_median_unchecked(_First, _Mid, _STD _Prev_iter(_Last), _Pred);

  00019	8d 4e f8	 lea	 ecx, DWORD PTR [esi-8]
  0001c	8d 1c c7	 lea	 ebx, DWORD PTR [edi+eax*8]
  0001f	8a 45 14	 mov	 al, BYTE PTR __Pred$[ebp]
  00022	88 45 ec	 mov	 BYTE PTR __Pred$[ebp], al

; 8285 :     const _Diff _Count = _Last - _First;

  00025	8b c1		 mov	 eax, ecx
  00027	2b c7		 sub	 eax, edi

; 8300 :     // partition [_First, _Last)
; 8301 :     _RanIt _Mid = _First + ((_Last - _First) >> 1); // shift for codegen

  00029	89 5d f8	 mov	 DWORD PTR __Pfirst$1$[ebp], ebx

; 8285 :     const _Diff _Count = _Last - _First;

  0002c	c1 f8 03	 sar	 eax, 3

; 8286 :     if (40 < _Count) { // Tukey's ninther

  0002f	83 f8 28	 cmp	 eax, 40			; 00000028H
  00032	7e 61		 jle	 SHORT $LN86@Partition_

; 8287 :         const _Diff _Step     = (_Count + 1) >> 3; // +1 can't overflow because range was made inclusive in caller

  00034	40		 inc	 eax
  00035	c1 f8 03	 sar	 eax, 3

; 8288 :         const _Diff _Two_step = _Step << 1; // note: intentionally discards low-order bit
; 8289 :         _STD _Med3_unchecked(_First, _First + _Step, _First + _Two_step, _Pred);

  00038	8b c8		 mov	 ecx, eax
  0003a	c1 e1 04	 shl	 ecx, 4
  0003d	89 4d f0	 mov	 DWORD PTR tv1108[ebp], ecx
  00040	8d 1c c5 00 00
	00 00		 lea	 ebx, DWORD PTR [eax*8]
  00047	8d 14 3b	 lea	 edx, DWORD PTR [ebx+edi]
  0004a	8d 04 39	 lea	 eax, DWORD PTR [ecx+edi]
  0004d	50		 push	 eax
  0004e	52		 push	 edx
  0004f	57		 push	 edi
  00050	e8 00 00 00 00	 call	 ??$_Med3_unchecked@PAV?$shared_ptr@VCCandidate@@@std@@UDepositCompare@@@std@@YAXPAV?$shared_ptr@VCCandidate@@@0@00UDepositCompare@@@Z ; std::_Med3_unchecked<std::shared_ptr<CCandidate> *,DepositCompare>

; 8290 :         _STD _Med3_unchecked(_Mid - _Step, _Mid, _Mid + _Step, _Pred);

  00055	8b 4d f8	 mov	 ecx, DWORD PTR __Pfirst$1$[ebp]
  00058	8b 7d ec	 mov	 edi, DWORD PTR __Pred$[ebp]
  0005b	57		 push	 edi
  0005c	8d 04 0b	 lea	 eax, DWORD PTR [ebx+ecx]
  0005f	50		 push	 eax
  00060	51		 push	 ecx
  00061	2b cb		 sub	 ecx, ebx
  00063	51		 push	 ecx
  00064	e8 00 00 00 00	 call	 ??$_Med3_unchecked@PAV?$shared_ptr@VCCandidate@@@std@@UDepositCompare@@@std@@YAXPAV?$shared_ptr@VCCandidate@@@0@00UDepositCompare@@@Z ; std::_Med3_unchecked<std::shared_ptr<CCandidate> *,DepositCompare>

; 8291 :         _STD _Med3_unchecked(_Last - _Two_step, _Last - _Step, _Last, _Pred);

  00069	8d 46 f8	 lea	 eax, DWORD PTR [esi-8]
  0006c	8b f0		 mov	 esi, eax
  0006e	57		 push	 edi
  0006f	50		 push	 eax
  00070	2b 45 f0	 sub	 eax, DWORD PTR tv1108[ebp]
  00073	2b f3		 sub	 esi, ebx
  00075	56		 push	 esi
  00076	50		 push	 eax
  00077	e8 00 00 00 00	 call	 ??$_Med3_unchecked@PAV?$shared_ptr@VCCandidate@@@std@@UDepositCompare@@@std@@YAXPAV?$shared_ptr@VCCandidate@@@0@00UDepositCompare@@@Z ; std::_Med3_unchecked<std::shared_ptr<CCandidate> *,DepositCompare>

; 8292 :         _STD _Med3_unchecked(_First + _Step, _Mid, _Last - _Step, _Pred);

  0007c	57		 push	 edi
  0007d	56		 push	 esi
  0007e	8b 75 0c	 mov	 esi, DWORD PTR __First$[ebp]
  00081	ff 75 f8	 push	 DWORD PTR __Pfirst$1$[ebp]
  00084	8d 04 33	 lea	 eax, DWORD PTR [ebx+esi]
  00087	50		 push	 eax
  00088	e8 00 00 00 00	 call	 ??$_Med3_unchecked@PAV?$shared_ptr@VCCandidate@@@std@@UDepositCompare@@@std@@YAXPAV?$shared_ptr@VCCandidate@@@0@00UDepositCompare@@@Z ; std::_Med3_unchecked<std::shared_ptr<CCandidate> *,DepositCompare>

; 8293 :     } else {

  0008d	8b 5d f8	 mov	 ebx, DWORD PTR __Pfirst$1$[ebp]
  00090	83 c4 40	 add	 esp, 64			; 00000040H
  00093	eb 0d		 jmp	 SHORT $LN87@Partition_
$LN86@Partition_:

; 8294 :         _STD _Med3_unchecked(_First, _Mid, _Last, _Pred);

  00095	51		 push	 ecx
  00096	53		 push	 ebx
  00097	57		 push	 edi
  00098	e8 00 00 00 00	 call	 ??$_Med3_unchecked@PAV?$shared_ptr@VCCandidate@@@std@@UDepositCompare@@@std@@YAXPAV?$shared_ptr@VCCandidate@@@0@00UDepositCompare@@@Z ; std::_Med3_unchecked<std::shared_ptr<CCandidate> *,DepositCompare>
  0009d	83 c4 10	 add	 esp, 16			; 00000010H
  000a0	8b f7		 mov	 esi, edi
$LN87@Partition_:

; 8303 :     _RanIt _Pfirst = _Mid;
; 8304 :     _RanIt _Plast  = _STD _Next_iter(_Pfirst);

  000a2	8d 7b 08	 lea	 edi, DWORD PTR [ebx+8]
  000a5	89 7d f4	 mov	 DWORD PTR __Plast$1$[ebp], edi

; 8307 :            && !_Pred(*_Pfirst, *_STD _Prev_iter(_Pfirst))) {

  000a8	3b f3		 cmp	 esi, ebx
  000aa	0f 83 87 00 00
	00		 jae	 $LN121@Partition_
  000b0	8b 03		 mov	 eax, DWORD PTR [ebx]
  000b2	8b d0		 mov	 edx, eax
  000b4	89 45 ec	 mov	 DWORD PTR $T2[ebp], eax
  000b7	8b f8		 mov	 edi, eax
  000b9	0f 1f 80 00 00
	00 00		 npad	 7
$LL2@Partition_:
; File C:\IAGOS\server\v18\Source\Source\_Common\lord.h

; 149  : 		return ( lhs->GetDeposit() == rhs->GetDeposit()?

  000c0	8d 0a		 lea	 ecx, DWORD PTR [edx]
  000c2	8b 53 f8	 mov	 edx, DWORD PTR [ebx-8]
  000c5	8b 5f 08	 mov	 ebx, DWORD PTR [edi+8]
  000c8	8b 7f 0c	 mov	 edi, DWORD PTR [edi+12]
  000cb	89 5d ec	 mov	 DWORD PTR tv1039[ebp], ebx
  000ce	8b 42 08	 mov	 eax, DWORD PTR [edx+8]
  000d1	3b c3		 cmp	 eax, ebx
  000d3	8b 72 0c	 mov	 esi, DWORD PTR [edx+12]
  000d6	8b 5d f8	 mov	 ebx, DWORD PTR __Pfirst$1$[ebp]
  000d9	89 7d f0	 mov	 DWORD PTR tv1040[ebp], edi
  000dc	75 17		 jne	 SHORT $LN65@Partition_
  000de	3b f7		 cmp	 esi, edi
  000e0	75 13		 jne	 SHORT $LN65@Partition_
; File C:\Program Files\Microsoft Visual Studio\2022\Professional\VC\Tools\MSVC\14.44.35207\include\algorithm

; 8307 :            && !_Pred(*_Pfirst, *_STD _Prev_iter(_Pfirst))) {

  000e2	8b 82 14 01 00
	00		 mov	 eax, DWORD PTR [edx+276]
  000e8	3b 81 14 01 00
	00		 cmp	 eax, DWORD PTR [ecx+276]
  000ee	7c 44		 jl	 SHORT $LN138@Partition_
  000f0	8b 42 08	 mov	 eax, DWORD PTR [edx+8]
  000f3	eb 0c		 jmp	 SHORT $LN129@Partition_
$LN65@Partition_:
; File C:\IAGOS\server\v18\Source\Source\_Common\lord.h

; 149  : 		return ( lhs->GetDeposit() == rhs->GetDeposit()?

  000f5	3b 71 0c	 cmp	 esi, DWORD PTR [ecx+12]
  000f8	7f 3a		 jg	 SHORT $LN138@Partition_
  000fa	7c 05		 jl	 SHORT $LN129@Partition_
  000fc	3b 41 08	 cmp	 eax, DWORD PTR [ecx+8]
  000ff	77 33		 ja	 SHORT $LN138@Partition_
$LN129@Partition_:
  00101	8b fa		 mov	 edi, edx
  00103	39 45 ec	 cmp	 DWORD PTR tv1039[ebp], eax
  00106	75 15		 jne	 SHORT $LN77@Partition_
  00108	39 75 f0	 cmp	 DWORD PTR tv1040[ebp], esi
  0010b	75 10		 jne	 SHORT $LN77@Partition_
; File C:\Program Files\Microsoft Visual Studio\2022\Professional\VC\Tools\MSVC\14.44.35207\include\algorithm

; 8307 :            && !_Pred(*_Pfirst, *_STD _Prev_iter(_Pfirst))) {

  0010d	8b 81 14 01 00
	00		 mov	 eax, DWORD PTR [ecx+276]
  00113	3b 82 14 01 00
	00		 cmp	 eax, DWORD PTR [edx+276]
  00119	7c 19		 jl	 SHORT $LN138@Partition_
  0011b	eb 0c		 jmp	 SHORT $LN130@Partition_
$LN77@Partition_:
; File C:\IAGOS\server\v18\Source\Source\_Common\lord.h

; 149  : 		return ( lhs->GetDeposit() == rhs->GetDeposit()?

  0011d	39 71 0c	 cmp	 DWORD PTR [ecx+12], esi
  00120	7f 12		 jg	 SHORT $LN138@Partition_
  00122	7c 05		 jl	 SHORT $LN130@Partition_
  00124	39 41 08	 cmp	 DWORD PTR [ecx+8], eax
  00127	77 0b		 ja	 SHORT $LN138@Partition_
$LN130@Partition_:
; File C:\Program Files\Microsoft Visual Studio\2022\Professional\VC\Tools\MSVC\14.44.35207\include\algorithm

; 8308 :         --_Pfirst;

  00129	83 eb 08	 sub	 ebx, 8
  0012c	89 5d f8	 mov	 DWORD PTR __Pfirst$1$[ebp], ebx
  0012f	39 5d 0c	 cmp	 DWORD PTR __First$[ebp], ebx
  00132	72 8c		 jb	 SHORT $LL2@Partition_
$LN138@Partition_:
  00134	8b 7d f4	 mov	 edi, DWORD PTR __Plast$1$[ebp]
$LN121@Partition_:

; 8311 :     while (_Plast < _Last && !_DEBUG_LT_PRED(_Pred, *_Plast, *_Pfirst) && !_Pred(*_Pfirst, *_Plast)) {

  00137	8b 45 10	 mov	 eax, DWORD PTR __Last$[ebp]
  0013a	3b f8		 cmp	 edi, eax
  0013c	73 71		 jae	 SHORT $LN123@Partition_
; File C:\IAGOS\server\v18\Source\Source\_Common\lord.h

; 149  : 		return ( lhs->GetDeposit() == rhs->GetDeposit()?

  0013e	8b 0b		 mov	 ecx, DWORD PTR [ebx]
  00140	8b d9		 mov	 ebx, ecx
  00142	8b 41 0c	 mov	 eax, DWORD PTR [ecx+12]
  00145	89 45 f4	 mov	 DWORD PTR $T4[ebp], eax
$LL4@Partition_:
  00148	8b 37		 mov	 esi, DWORD PTR [edi]
  0014a	8b 56 08	 mov	 edx, DWORD PTR [esi+8]
  0014d	8b 4e 0c	 mov	 ecx, DWORD PTR [esi+12]
  00150	3b 53 08	 cmp	 edx, DWORD PTR [ebx+8]
  00153	75 17		 jne	 SHORT $LN71@Partition_
  00155	3b c8		 cmp	 ecx, eax
  00157	75 15		 jne	 SHORT $LN195@Partition_
; File C:\Program Files\Microsoft Visual Studio\2022\Professional\VC\Tools\MSVC\14.44.35207\include\algorithm

; 8311 :     while (_Plast < _Last && !_DEBUG_LT_PRED(_Pred, *_Plast, *_Pfirst) && !_Pred(*_Pfirst, *_Plast)) {

  00159	8b 86 14 01 00
	00		 mov	 eax, DWORD PTR [esi+276]
  0015f	3b 83 14 01 00
	00		 cmp	 eax, DWORD PTR [ebx+276]
  00165	7c 3f		 jl	 SHORT $LN139@Partition_
  00167	8b 45 f4	 mov	 eax, DWORD PTR $T4[ebp]
  0016a	eb 0b		 jmp	 SHORT $LN131@Partition_
$LN71@Partition_:
; File C:\IAGOS\server\v18\Source\Source\_Common\lord.h

; 149  : 		return ( lhs->GetDeposit() == rhs->GetDeposit()?

  0016c	3b c8		 cmp	 ecx, eax
$LN195@Partition_:
  0016e	7f 36		 jg	 SHORT $LN139@Partition_
  00170	7c 05		 jl	 SHORT $LN131@Partition_
  00172	3b 53 08	 cmp	 edx, DWORD PTR [ebx+8]
  00175	77 2f		 ja	 SHORT $LN139@Partition_
$LN131@Partition_:
  00177	39 53 08	 cmp	 DWORD PTR [ebx+8], edx
  0017a	75 17		 jne	 SHORT $LN83@Partition_
  0017c	3b c1		 cmp	 eax, ecx
  0017e	75 15		 jne	 SHORT $LN196@Partition_
; File C:\Program Files\Microsoft Visual Studio\2022\Professional\VC\Tools\MSVC\14.44.35207\include\algorithm

; 8311 :     while (_Plast < _Last && !_DEBUG_LT_PRED(_Pred, *_Plast, *_Pfirst) && !_Pred(*_Pfirst, *_Plast)) {

  00180	8b 83 14 01 00
	00		 mov	 eax, DWORD PTR [ebx+276]
  00186	3b 86 14 01 00
	00		 cmp	 eax, DWORD PTR [esi+276]
  0018c	7c 18		 jl	 SHORT $LN139@Partition_
  0018e	8b 45 f4	 mov	 eax, DWORD PTR $T4[ebp]
  00191	eb 0b		 jmp	 SHORT $LN132@Partition_
$LN83@Partition_:
; File C:\IAGOS\server\v18\Source\Source\_Common\lord.h

; 149  : 		return ( lhs->GetDeposit() == rhs->GetDeposit()?

  00193	3b c1		 cmp	 eax, ecx
$LN196@Partition_:
  00195	7f 0f		 jg	 SHORT $LN139@Partition_
  00197	7c 05		 jl	 SHORT $LN132@Partition_
  00199	39 53 08	 cmp	 DWORD PTR [ebx+8], edx
  0019c	77 08		 ja	 SHORT $LN139@Partition_
$LN132@Partition_:
; File C:\Program Files\Microsoft Visual Studio\2022\Professional\VC\Tools\MSVC\14.44.35207\include\algorithm

; 8312 :         ++_Plast;

  0019e	83 c7 08	 add	 edi, 8
  001a1	3b 7d 10	 cmp	 edi, DWORD PTR __Last$[ebp]
  001a4	72 a2		 jb	 SHORT $LL4@Partition_
$LN139@Partition_:
  001a6	8b 5d f8	 mov	 ebx, DWORD PTR __Pfirst$1$[ebp]
  001a9	8b 45 10	 mov	 eax, DWORD PTR __Last$[ebp]
  001ac	89 7d f4	 mov	 DWORD PTR __Plast$1$[ebp], edi
$LN123@Partition_:

; 8313 :     }
; 8314 : 
; 8315 :     _RanIt _Gfirst = _Plast;

  001af	8b f7		 mov	 esi, edi

; 8316 :     _RanIt _Glast  = _Pfirst;

  001b1	8b cb		 mov	 ecx, ebx
  001b3	89 75 f8	 mov	 DWORD PTR __Gfirst$1$[ebp], esi
  001b6	89 4d fc	 mov	 DWORD PTR __Glast$1$[ebp], ecx
  001b9	0f 1f 80 00 00
	00 00		 npad	 7
$LL8@Partition_:

; 8317 : 
; 8318 :     for (;;) { // partition
; 8319 :         for (; _Gfirst < _Last; ++_Gfirst) {

  001c0	3b f0		 cmp	 esi, eax
  001c2	0f 83 ad 00 00
	00		 jae	 $LN125@Partition_
$LL11@Partition_:
; File C:\IAGOS\server\v18\Source\Source\_Common\lord.h

; 149  : 		return ( lhs->GetDeposit() == rhs->GetDeposit()?

  001c8	8b 16		 mov	 edx, DWORD PTR [esi]
  001ca	8b 0b		 mov	 ecx, DWORD PTR [ebx]
  001cc	89 55 f4	 mov	 DWORD PTR tv1110[ebp], edx
  001cf	8b f2		 mov	 esi, edx
  001d1	8b 52 0c	 mov	 edx, DWORD PTR [edx+12]
  001d4	8b 41 08	 mov	 eax, DWORD PTR [ecx+8]
  001d7	8b 49 0c	 mov	 ecx, DWORD PTR [ecx+12]
  001da	3b 46 08	 cmp	 eax, DWORD PTR [esi+8]
  001dd	8b 75 f8	 mov	 esi, DWORD PTR __Gfirst$1$[ebp]
  001e0	89 45 ec	 mov	 DWORD PTR tv1067[ebp], eax
  001e3	75 1f		 jne	 SHORT $LN53@Partition_
  001e5	3b ca		 cmp	 ecx, edx
  001e7	75 1d		 jne	 SHORT $LN197@Partition_
; File C:\Program Files\Microsoft Visual Studio\2022\Professional\VC\Tools\MSVC\14.44.35207\include\algorithm

; 8320 :             if (_DEBUG_LT_PRED(_Pred, *_Pfirst, *_Gfirst)) {

  001e9	8b 03		 mov	 eax, DWORD PTR [ebx]
  001eb	8b 75 f4	 mov	 esi, DWORD PTR tv1110[ebp]
  001ee	8b 80 14 01 00
	00		 mov	 eax, DWORD PTR [eax+276]
  001f4	3b 86 14 01 00
	00		 cmp	 eax, DWORD PTR [esi+276]
  001fa	8b 75 f8	 mov	 esi, DWORD PTR __Gfirst$1$[ebp]
  001fd	7c 61		 jl	 SHORT $LN9@Partition_
  001ff	8b 45 ec	 mov	 eax, DWORD PTR tv1067[ebp]
  00202	eb 11		 jmp	 SHORT $LN133@Partition_
$LN53@Partition_:
; File C:\IAGOS\server\v18\Source\Source\_Common\lord.h

; 149  : 		return ( lhs->GetDeposit() == rhs->GetDeposit()?

  00204	3b ca		 cmp	 ecx, edx
$LN197@Partition_:
  00206	7f 58		 jg	 SHORT $LN9@Partition_
  00208	7c 0b		 jl	 SHORT $LN133@Partition_
  0020a	8b 75 f4	 mov	 esi, DWORD PTR tv1110[ebp]
  0020d	3b 46 08	 cmp	 eax, DWORD PTR [esi+8]
  00210	8b 75 f8	 mov	 esi, DWORD PTR __Gfirst$1$[ebp]
  00213	77 4b		 ja	 SHORT $LN9@Partition_
$LN133@Partition_:
  00215	8b 75 f4	 mov	 esi, DWORD PTR tv1110[ebp]
  00218	39 46 08	 cmp	 DWORD PTR [esi+8], eax
  0021b	8b 75 f8	 mov	 esi, DWORD PTR __Gfirst$1$[ebp]
  0021e	75 18		 jne	 SHORT $LN59@Partition_
  00220	3b d1		 cmp	 edx, ecx
  00222	75 16		 jne	 SHORT $LN198@Partition_
; File C:\Program Files\Microsoft Visual Studio\2022\Professional\VC\Tools\MSVC\14.44.35207\include\algorithm

; 8322 :             } else if (_Pred(*_Gfirst, *_Pfirst)) {

  00224	8b 06		 mov	 eax, DWORD PTR [esi]
  00226	8b 0b		 mov	 ecx, DWORD PTR [ebx]
  00228	8b 80 14 01 00
	00		 mov	 eax, DWORD PTR [eax+276]
  0022e	3b 81 14 01 00
	00		 cmp	 eax, DWORD PTR [ecx+276]
  00234	7c 39		 jl	 SHORT $LN140@Partition_
  00236	eb 0d		 jmp	 SHORT $LN134@Partition_
$LN59@Partition_:
; File C:\IAGOS\server\v18\Source\Source\_Common\lord.h

; 149  : 		return ( lhs->GetDeposit() == rhs->GetDeposit()?

  00238	3b d1		 cmp	 edx, ecx
$LN198@Partition_:
  0023a	7f 33		 jg	 SHORT $LN140@Partition_
  0023c	7c 07		 jl	 SHORT $LN134@Partition_
  0023e	8b 0e		 mov	 ecx, DWORD PTR [esi]
  00240	39 41 08	 cmp	 DWORD PTR [ecx+8], eax
  00243	77 2a		 ja	 SHORT $LN140@Partition_
$LN134@Partition_:
; File C:\Program Files\Microsoft Visual Studio\2022\Professional\VC\Tools\MSVC\14.44.35207\include\algorithm

; 8324 :             } else if (_Plast != _Gfirst) {

  00245	8d 47 08	 lea	 eax, DWORD PTR [edi+8]
  00248	89 45 ec	 mov	 DWORD PTR tv1111[ebp], eax
  0024b	3b fe		 cmp	 edi, esi
  0024d	74 0f		 je	 SHORT $LN19@Partition_

; 8325 :                 swap(*_Plast, *_Gfirst); // intentional ADL

  0024f	56		 push	 esi
  00250	57		 push	 edi
  00251	e8 00 00 00 00	 call	 ??$swap@VCCandidate@@@std@@YAXAAV?$shared_ptr@VCCandidate@@@0@0@Z ; std::swap<CCandidate>

; 8326 :                 ++_Plast;

  00256	8b 7d ec	 mov	 edi, DWORD PTR tv1111[ebp]
  00259	83 c4 08	 add	 esp, 8

; 8327 :             } else {

  0025c	eb 02		 jmp	 SHORT $LN9@Partition_
$LN19@Partition_:

; 8328 :                 ++_Plast;

  0025e	8b f8		 mov	 edi, eax
$LN9@Partition_:

; 8317 : 
; 8318 :     for (;;) { // partition
; 8319 :         for (; _Gfirst < _Last; ++_Gfirst) {

  00260	83 c6 08	 add	 esi, 8
  00263	89 75 f8	 mov	 DWORD PTR __Gfirst$1$[ebp], esi
  00266	3b 75 10	 cmp	 esi, DWORD PTR __Last$[ebp]
  00269	0f 82 59 ff ff
	ff		 jb	 $LL11@Partition_
$LN140@Partition_:
  0026f	8b 4d fc	 mov	 ecx, DWORD PTR __Glast$1$[ebp]
  00272	89 7d f4	 mov	 DWORD PTR __Plast$1$[ebp], edi
$LN125@Partition_:

; 8329 :             }
; 8330 :         }
; 8331 : 
; 8332 :         for (; _First < _Glast; --_Glast) {

  00275	8b 45 0c	 mov	 eax, DWORD PTR __First$[ebp]
  00278	8b d6		 mov	 edx, esi
  0027a	89 55 ec	 mov	 DWORD PTR $T1[ebp], edx
  0027d	3b c1		 cmp	 eax, ecx
  0027f	0f 83 81 00 00
	00		 jae	 $LN126@Partition_
  00285	8d 71 f8	 lea	 esi, DWORD PTR [ecx-8]
$LL14@Partition_:
; File C:\IAGOS\server\v18\Source\Source\_Common\lord.h

; 149  : 		return ( lhs->GetDeposit() == rhs->GetDeposit()?

  00288	8b 3b		 mov	 edi, DWORD PTR [ebx]
  0028a	8b 0e		 mov	 ecx, DWORD PTR [esi]
  0028c	8b 47 0c	 mov	 eax, DWORD PTR [edi+12]
  0028f	8b 7f 08	 mov	 edi, DWORD PTR [edi+8]
  00292	8b 51 0c	 mov	 edx, DWORD PTR [ecx+12]
  00295	39 79 08	 cmp	 DWORD PTR [ecx+8], edi
  00298	8b 4d fc	 mov	 ecx, DWORD PTR __Glast$1$[ebp]
  0029b	89 45 f0	 mov	 DWORD PTR tv1087[ebp], eax
  0029e	75 22		 jne	 SHORT $LN38@Partition_
  002a0	3b d0		 cmp	 edx, eax
  002a2	75 20		 jne	 SHORT $LN199@Partition_
; File C:\Program Files\Microsoft Visual Studio\2022\Professional\VC\Tools\MSVC\14.44.35207\include\algorithm

; 8334 :             if (_DEBUG_LT_PRED(_Pred, *_Glast_prev, *_Pfirst)) {

  002a4	8b 06		 mov	 eax, DWORD PTR [esi]
  002a6	8b 0b		 mov	 ecx, DWORD PTR [ebx]
  002a8	8b 80 14 01 00
	00		 mov	 eax, DWORD PTR [eax+276]
  002ae	3b 81 14 01 00
	00		 cmp	 eax, DWORD PTR [ecx+276]
  002b4	8b 4d fc	 mov	 ecx, DWORD PTR __Glast$1$[ebp]
  002b7	0f 8c 9e 00 00
	00		 jl	 $LN12@Partition_
  002bd	8b 45 f0	 mov	 eax, DWORD PTR tv1087[ebp]
  002c0	eb 18		 jmp	 SHORT $LN135@Partition_
$LN38@Partition_:
; File C:\IAGOS\server\v18\Source\Source\_Common\lord.h

; 149  : 		return ( lhs->GetDeposit() == rhs->GetDeposit()?

  002c2	3b d0		 cmp	 edx, eax
$LN199@Partition_:
  002c4	0f 8f 91 00 00
	00		 jg	 $LN12@Partition_
  002ca	7c 0e		 jl	 SHORT $LN135@Partition_
  002cc	8b 0e		 mov	 ecx, DWORD PTR [esi]
  002ce	39 79 08	 cmp	 DWORD PTR [ecx+8], edi
  002d1	8b 4d fc	 mov	 ecx, DWORD PTR __Glast$1$[ebp]
  002d4	0f 87 81 00 00
	00		 ja	 $LN12@Partition_
$LN135@Partition_:
  002da	8b 0e		 mov	 ecx, DWORD PTR [esi]
  002dc	3b 79 08	 cmp	 edi, DWORD PTR [ecx+8]
  002df	8b 4d fc	 mov	 ecx, DWORD PTR __Glast$1$[ebp]
  002e2	75 51		 jne	 SHORT $LN44@Partition_
  002e4	3b c2		 cmp	 eax, edx
  002e6	75 4f		 jne	 SHORT $LN200@Partition_
; File C:\Program Files\Microsoft Visual Studio\2022\Professional\VC\Tools\MSVC\14.44.35207\include\algorithm

; 8336 :             } else if (_Pred(*_Pfirst, *_Glast_prev)) {

  002e8	8b 03		 mov	 eax, DWORD PTR [ebx]
  002ea	8b 16		 mov	 edx, DWORD PTR [esi]
  002ec	8b 80 14 01 00
	00		 mov	 eax, DWORD PTR [eax+276]
  002f2	3b 82 14 01 00
	00		 cmp	 eax, DWORD PTR [edx+276]
  002f8	7d 4d		 jge	 SHORT $LN136@Partition_
$LN144@Partition_:
  002fa	8b 45 0c	 mov	 eax, DWORD PTR __First$[ebp]
$LN141@Partition_:
  002fd	8b 75 f8	 mov	 esi, DWORD PTR __Gfirst$1$[ebp]
  00300	8b 7d f4	 mov	 edi, DWORD PTR __Plast$1$[ebp]
  00303	8b 55 ec	 mov	 edx, DWORD PTR $T1[ebp]
$LN126@Partition_:

; 8340 :             }
; 8341 :         }
; 8342 : 
; 8343 :         if (_Glast == _First && _Gfirst == _Last) {

  00306	89 5d f0	 mov	 DWORD PTR $T3[ebp], ebx
  00309	3b c8		 cmp	 ecx, eax
  0030b	75 64		 jne	 SHORT $LN27@Partition_
  0030d	3b 75 10	 cmp	 esi, DWORD PTR __Last$[ebp]
  00310	0f 84 a5 00 00
	00		 je	 $LN97@Partition_

; 8345 :         }
; 8346 : 
; 8347 :         if (_Glast == _First) { // no room at bottom, rotate pivot upward
; 8348 :             if (_Plast != _Gfirst) {

  00316	3b fe		 cmp	 edi, esi
  00318	74 0a		 je	 SHORT $LN29@Partition_

; 8349 :                 swap(*_Pfirst, *_Plast); // intentional ADL

  0031a	57		 push	 edi
  0031b	53		 push	 ebx
  0031c	e8 00 00 00 00	 call	 ??$swap@VCCandidate@@@std@@YAXAAV?$shared_ptr@VCCandidate@@@0@0@Z ; std::swap<CCandidate>
  00321	83 c4 08	 add	 esp, 8
$LN29@Partition_:

; 8350 :             }
; 8351 : 
; 8352 :             ++_Plast;
; 8353 :             swap(*_Pfirst, *_Gfirst); // intentional ADL
; 8354 :             ++_Pfirst;
; 8355 :             ++_Gfirst;

  00324	8b 45 f0	 mov	 eax, DWORD PTR $T3[ebp]
  00327	83 c7 08	 add	 edi, 8
  0032a	8b 55 ec	 mov	 edx, DWORD PTR $T1[ebp]
  0032d	83 c3 08	 add	 ebx, 8
  00330	89 7d f4	 mov	 DWORD PTR __Plast$1$[ebp], edi
  00333	eb 6b		 jmp	 SHORT $LN202@Partition_
$LN44@Partition_:
; File C:\IAGOS\server\v18\Source\Source\_Common\lord.h

; 149  : 		return ( lhs->GetDeposit() == rhs->GetDeposit()?

  00335	3b c2		 cmp	 eax, edx
$LN200@Partition_:
  00337	7f c1		 jg	 SHORT $LN144@Partition_
  00339	7c 0c		 jl	 SHORT $LN136@Partition_
  0033b	8b 13		 mov	 edx, DWORD PTR [ebx]
  0033d	8b 3e		 mov	 edi, DWORD PTR [esi]
  0033f	8b 42 08	 mov	 eax, DWORD PTR [edx+8]
  00342	3b 47 08	 cmp	 eax, DWORD PTR [edi+8]
  00345	77 b3		 ja	 SHORT $LN144@Partition_
$LN136@Partition_:
; File C:\Program Files\Microsoft Visual Studio\2022\Professional\VC\Tools\MSVC\14.44.35207\include\algorithm

; 8338 :             } else if (--_Pfirst != _Glast_prev) {

  00347	83 eb 08	 sub	 ebx, 8
  0034a	3b de		 cmp	 ebx, esi
  0034c	74 0d		 je	 SHORT $LN12@Partition_

; 8339 :                 swap(*_Pfirst, *_Glast_prev); // intentional ADL

  0034e	56		 push	 esi
  0034f	53		 push	 ebx
  00350	e8 00 00 00 00	 call	 ??$swap@VCCandidate@@@std@@YAXAAV?$shared_ptr@VCCandidate@@@0@0@Z ; std::swap<CCandidate>
  00355	8b 4d fc	 mov	 ecx, DWORD PTR __Glast$1$[ebp]
  00358	83 c4 08	 add	 esp, 8
$LN12@Partition_:

; 8329 :             }
; 8330 :         }
; 8331 : 
; 8332 :         for (; _First < _Glast; --_Glast) {

  0035b	8b 45 0c	 mov	 eax, DWORD PTR __First$[ebp]
  0035e	83 e9 08	 sub	 ecx, 8
  00361	83 ee 08	 sub	 esi, 8
  00364	89 4d fc	 mov	 DWORD PTR __Glast$1$[ebp], ecx
  00367	3b c1		 cmp	 eax, ecx
  00369	0f 82 19 ff ff
	ff		 jb	 $LL14@Partition_
; File C:\IAGOS\server\v18\Source\Source\_Common\lord.h

; 149  : 		return ( lhs->GetDeposit() == rhs->GetDeposit()?

  0036f	eb 8c		 jmp	 SHORT $LN141@Partition_
$LN27@Partition_:
; File C:\Program Files\Microsoft Visual Studio\2022\Professional\VC\Tools\MSVC\14.44.35207\include\algorithm

; 8356 :         } else if (_Gfirst == _Last) { // no room at top, rotate pivot downward

  00371	83 c1 f8	 add	 ecx, -8			; fffffff8H
  00374	89 4d fc	 mov	 DWORD PTR __Glast$1$[ebp], ecx
  00377	3b 75 10	 cmp	 esi, DWORD PTR __Last$[ebp]
  0037a	75 1d		 jne	 SHORT $LN30@Partition_

; 8357 :             if (--_Glast != --_Pfirst) {

  0037c	83 eb 08	 sub	 ebx, 8
  0037f	3b cb		 cmp	 ecx, ebx
  00381	74 0a		 je	 SHORT $LN32@Partition_

; 8358 :                 swap(*_Glast, *_Pfirst); // intentional ADL

  00383	53		 push	 ebx
  00384	51		 push	 ecx
  00385	e8 00 00 00 00	 call	 ??$swap@VCCandidate@@@std@@YAXAAV?$shared_ptr@VCCandidate@@@0@0@Z ; std::swap<CCandidate>
  0038a	83 c4 08	 add	 esp, 8
$LN32@Partition_:

; 8359 :             }
; 8360 : 
; 8361 :             swap(*_Pfirst, *--_Plast); // intentional ADL

  0038d	83 ef 08	 sub	 edi, 8
  00390	8b c3		 mov	 eax, ebx
  00392	89 7d f4	 mov	 DWORD PTR __Plast$1$[ebp], edi
  00395	8b d7		 mov	 edx, edi

; 8362 :         } else {

  00397	eb 0d		 jmp	 SHORT $LN6@Partition_
$LN30@Partition_:

; 8363 :             swap(*_Gfirst, *--_Glast); // intentional ADL
; 8364 :             ++_Gfirst;

  00399	8b c2		 mov	 eax, edx
  0039b	89 4d fc	 mov	 DWORD PTR __Glast$1$[ebp], ecx
  0039e	8b d1		 mov	 edx, ecx
$LN202@Partition_:
  003a0	83 c6 08	 add	 esi, 8
  003a3	89 75 f8	 mov	 DWORD PTR __Gfirst$1$[ebp], esi
$LN6@Partition_:
  003a6	52		 push	 edx
  003a7	50		 push	 eax
  003a8	e8 00 00 00 00	 call	 ??$swap@VCCandidate@@@std@@YAXAAV?$shared_ptr@VCCandidate@@@0@0@Z ; std::swap<CCandidate>
  003ad	8b 4d fc	 mov	 ecx, DWORD PTR __Glast$1$[ebp]
  003b0	83 c4 08	 add	 esp, 8
  003b3	8b 45 10	 mov	 eax, DWORD PTR __Last$[ebp]
  003b6	e9 05 fe ff ff	 jmp	 $LL8@Partition_
$LN97@Partition_:
; File C:\Program Files\Microsoft Visual Studio\2022\Professional\VC\Tools\MSVC\14.44.35207\include\utility

; 274  :         : first(_STD forward<_Other1>(_Val1)), second(_STD forward<_Other2>(_Val2)) {

  003bb	8b 45 08	 mov	 eax, DWORD PTR ___$ReturnUdt$[ebp]
  003be	89 78 04	 mov	 DWORD PTR [eax+4], edi
; File C:\Program Files\Microsoft Visual Studio\2022\Professional\VC\Tools\MSVC\14.44.35207\include\algorithm

; 8344 :             return pair<_RanIt, _RanIt>(_Pfirst, _Plast);

  003c1	5f		 pop	 edi
  003c2	5e		 pop	 esi
; File C:\Program Files\Microsoft Visual Studio\2022\Professional\VC\Tools\MSVC\14.44.35207\include\utility

; 274  :         : first(_STD forward<_Other1>(_Val1)), second(_STD forward<_Other2>(_Val2)) {

  003c3	89 18		 mov	 DWORD PTR [eax], ebx
; File C:\Program Files\Microsoft Visual Studio\2022\Professional\VC\Tools\MSVC\14.44.35207\include\algorithm

; 8344 :             return pair<_RanIt, _RanIt>(_Pfirst, _Plast);

  003c5	5b		 pop	 ebx

; 8365 :         }
; 8366 :     }
; 8367 : }

  003c6	8b e5		 mov	 esp, ebp
  003c8	5d		 pop	 ebp
  003c9	c3		 ret	 0
??$_Partition_by_median_guess_unchecked@PAV?$shared_ptr@VCCandidate@@@std@@UDepositCompare@@@std@@YA?AU?$pair@PAV?$shared_ptr@VCCandidate@@@std@@PAV12@@0@PAV?$shared_ptr@VCCandidate@@@0@0UDepositCompare@@@Z ENDP ; std::_Partition_by_median_guess_unchecked<std::shared_ptr<CCandidate> *,DepositCompare>
_TEXT	ENDS
; Function compile flags: /Ogtp
; File C:\Program Files\Microsoft Visual Studio\2022\Professional\VC\Tools\MSVC\14.44.35207\include\algorithm
; File C:\Program Files\Microsoft Visual Studio\2022\Professional\VC\Tools\MSVC\14.44.35207\include\memory
; File C:\Program Files\Microsoft Visual Studio\2022\Professional\VC\Tools\MSVC\14.44.35207\include\algorithm
; File C:\Program Files\Microsoft Visual Studio\2022\Professional\VC\Tools\MSVC\14.44.35207\include\memory
; File C:\IAGOS\server\v18\Source\Source\_Common\lord.h
; File C:\Program Files\Microsoft Visual Studio\2022\Professional\VC\Tools\MSVC\14.44.35207\include\memory
; File C:\IAGOS\server\v18\Source\Source\_Common\lord.h
; File C:\Program Files\Microsoft Visual Studio\2022\Professional\VC\Tools\MSVC\14.44.35207\include\algorithm
; File C:\Program Files\Microsoft Visual Studio\2022\Professional\VC\Tools\MSVC\14.44.35207\include\xutility
; File C:\Program Files\Microsoft Visual Studio\2022\Professional\VC\Tools\MSVC\14.44.35207\include\memory
; File C:\Program Files\Microsoft Visual Studio\2022\Professional\VC\Tools\MSVC\14.44.35207\include\xutility
; File C:\Program Files\Microsoft Visual Studio\2022\Professional\VC\Tools\MSVC\14.44.35207\include\memory
; File C:\Program Files\Microsoft Visual Studio\2022\Professional\VC\Tools\MSVC\14.44.35207\include\xutility
; File C:\Program Files\Microsoft Visual Studio\2022\Professional\VC\Tools\MSVC\14.44.35207\include\memory
; File C:\Program Files\Microsoft Visual Studio\2022\Professional\VC\Tools\MSVC\14.44.35207\include\utility
; File C:\Program Files\Microsoft Visual Studio\2022\Professional\VC\Tools\MSVC\14.44.35207\include\memory
; File C:\Program Files\Microsoft Visual Studio\2022\Professional\VC\Tools\MSVC\14.44.35207\include\xutility
; File C:\Program Files\Microsoft Visual Studio\2022\Professional\VC\Tools\MSVC\14.44.35207\include\utility
; File C:\Program Files\Microsoft Visual Studio\2022\Professional\VC\Tools\MSVC\14.44.35207\include\memory
; File C:\Program Files\Microsoft Visual Studio\2022\Professional\VC\Tools\MSVC\14.44.35207\include\algorithm
; File C:\IAGOS\server\v18\Source\Source\_Common\lord.h
; File C:\Program Files\Microsoft Visual Studio\2022\Professional\VC\Tools\MSVC\14.44.35207\include\algorithm
; File C:\IAGOS\server\v18\Source\Source\_Common\lord.h
; File C:\Program Files\Microsoft Visual Studio\2022\Professional\VC\Tools\MSVC\14.44.35207\include\algorithm
; File C:\IAGOS\server\v18\Source\Source\_Common\lord.h
; File C:\Program Files\Microsoft Visual Studio\2022\Professional\VC\Tools\MSVC\14.44.35207\include\algorithm
; File C:\Program Files\Microsoft Visual Studio\2022\Professional\VC\Tools\MSVC\14.44.35207\include\utility
; File C:\Program Files\Microsoft Visual Studio\2022\Professional\VC\Tools\MSVC\14.44.35207\include\memory
; File C:\IAGOS\server\v18\Source\Source\_Common\lord.h
; File C:\Program Files\Microsoft Visual Studio\2022\Professional\VC\Tools\MSVC\14.44.35207\include\memory
; File C:\Program Files\Microsoft Visual Studio\2022\Professional\VC\Tools\MSVC\14.44.35207\include\utility
; File C:\Program Files\Microsoft Visual Studio\2022\Professional\VC\Tools\MSVC\14.44.35207\include\memory
; File C:\Program Files\Microsoft Visual Studio\2022\Professional\VC\Tools\MSVC\14.44.35207\include\algorithm
;	COMDAT ??$_Insertion_sort_unchecked@PAV?$shared_ptr@VCCandidate@@@std@@UDepositCompare@@@std@@YAPAV?$shared_ptr@VCCandidate@@@0@QAV10@0UDepositCompare@@@Z
_TEXT	SEGMENT
tv917 = -16						; size = 4
tv972 = -12						; size = 4
__Mid$1$ = -8						; size = 4
__Val$1$sroa$316$1$ = -4				; size = 4
__First$ = 8						; size = 4
__Last$ = 12						; size = 4
__Pred$ = 16						; size = 1
??$_Insertion_sort_unchecked@PAV?$shared_ptr@VCCandidate@@@std@@UDepositCompare@@@std@@YAPAV?$shared_ptr@VCCandidate@@@0@QAV10@0UDepositCompare@@@Z PROC ; std::_Insertion_sort_unchecked<std::shared_ptr<CCandidate> *,DepositCompare>, COMDAT

; 8242 : _CONSTEXPR20 _BidIt _Insertion_sort_unchecked(const _BidIt _First, const _BidIt _Last, _Pr _Pred) {

  00000	55		 push	 ebp
  00001	8b ec		 mov	 ebp, esp

; 8243 :     // insertion sort [_First, _Last)
; 8244 :     if (_First != _Last) {

  00003	8b 55 0c	 mov	 edx, DWORD PTR __Last$[ebp]
  00006	83 ec 10	 sub	 esp, 16			; 00000010H
  00009	8b 45 08	 mov	 eax, DWORD PTR __First$[ebp]
  0000c	3b c2		 cmp	 eax, edx
  0000e	0f 84 07 01 00
	00		 je	 $LN233@Insertion_

; 8245 :         for (_BidIt _Mid = _First; ++_Mid != _Last;) { // order next element

  00014	8d 48 08	 lea	 ecx, DWORD PTR [eax+8]
  00017	89 4d f8	 mov	 DWORD PTR __Mid$1$[ebp], ecx
  0001a	3b ca		 cmp	 ecx, edx
  0001c	0f 84 f9 00 00
	00		 je	 $LN233@Insertion_
  00022	53		 push	 ebx
  00023	56		 push	 esi
  00024	57		 push	 edi
$LL4@Insertion_:
; File C:\Program Files\Microsoft Visual Studio\2022\Professional\VC\Tools\MSVC\14.44.35207\include\memory

; 1327 :         _Ptr = _Right._Ptr;

  00025	8b 19		 mov	 ebx, DWORD PTR [ecx]
  00027	8d 71 04	 lea	 esi, DWORD PTR [ecx+4]

; 1328 :         _Rep = _Right._Rep;

  0002a	8b 3e		 mov	 edi, DWORD PTR [esi]
; File C:\Program Files\Microsoft Visual Studio\2022\Professional\VC\Tools\MSVC\14.44.35207\include\algorithm

; 8246 :             _BidIt _Hole = _Mid;

  0002c	8b d1		 mov	 edx, ecx
; File C:\Program Files\Microsoft Visual Studio\2022\Professional\VC\Tools\MSVC\14.44.35207\include\memory

; 1330 :         _Right._Ptr = nullptr;

  0002e	c7 01 00 00 00
	00		 mov	 DWORD PTR [ecx], 0

; 1331 :         _Right._Rep = nullptr;

  00034	c7 06 00 00 00
	00		 mov	 DWORD PTR [esi], 0
; File C:\IAGOS\server\v18\Source\Source\_Common\lord.h

; 149  : 		return ( lhs->GetDeposit() == rhs->GetDeposit()?

  0003a	8b 08		 mov	 ecx, DWORD PTR [eax]
; File C:\Program Files\Microsoft Visual Studio\2022\Professional\VC\Tools\MSVC\14.44.35207\include\memory

; 1327 :         _Ptr = _Right._Ptr;

  0003c	89 5d fc	 mov	 DWORD PTR __Val$1$sroa$316$1$[ebp], ebx

; 1328 :         _Rep = _Right._Rep;

  0003f	89 7d f4	 mov	 DWORD PTR tv972[ebp], edi
; File C:\IAGOS\server\v18\Source\Source\_Common\lord.h

; 149  : 		return ( lhs->GetDeposit() == rhs->GetDeposit()?

  00042	8b 7b 0c	 mov	 edi, DWORD PTR [ebx+12]
  00045	8b 5b 08	 mov	 ebx, DWORD PTR [ebx+8]
  00048	3b 59 08	 cmp	 ebx, DWORD PTR [ecx+8]
  0004b	8b 41 0c	 mov	 eax, DWORD PTR [ecx+12]
  0004e	8b 5d fc	 mov	 ebx, DWORD PTR __Val$1$sroa$316$1$[ebp]
  00051	0f 85 ca 00 00
	00		 jne	 $LN26@Insertion_
  00057	3b f8		 cmp	 edi, eax
  00059	0f 85 c4 00 00
	00		 jne	 $LN269@Insertion_
; File C:\Program Files\Microsoft Visual Studio\2022\Professional\VC\Tools\MSVC\14.44.35207\include\algorithm

; 8249 :             if (_DEBUG_LT_PRED(_Pred, _Val, *_First)) { // found new earliest element, move to front

  0005f	8b 83 14 01 00
	00		 mov	 eax, DWORD PTR [ebx+276]
  00065	3b 81 14 01 00
	00		 cmp	 eax, DWORD PTR [ecx+276]
  0006b	0f 8d c6 00 00
	00		 jge	 $LN231@Insertion_
$LN230@Insertion_:
; File C:\Program Files\Microsoft Visual Studio\2022\Professional\VC\Tools\MSVC\14.44.35207\include\xutility

; 5194 :     while (_First != _Last) {

  00071	8b 45 08	 mov	 eax, DWORD PTR __First$[ebp]
  00074	39 45 f8	 cmp	 DWORD PTR __Mid$1$[ebp], eax
  00077	74 58		 je	 SHORT $LN30@Insertion_
  00079	8b d8		 mov	 ebx, eax
  0007b	0f 1f 44 00 00	 npad	 5
$LL221@Insertion_:
; File C:\Program Files\Microsoft Visual Studio\2022\Professional\VC\Tools\MSVC\14.44.35207\include\memory

; 1327 :         _Ptr = _Right._Ptr;

  00080	8b 46 f4	 mov	 eax, DWORD PTR [esi-12]
; File C:\Program Files\Microsoft Visual Studio\2022\Professional\VC\Tools\MSVC\14.44.35207\include\xutility

; 5195 :         *--_Dest = _STD move(*--_Last);

  00083	8b d6		 mov	 edx, esi
; File C:\Program Files\Microsoft Visual Studio\2022\Professional\VC\Tools\MSVC\14.44.35207\include\memory

; 1328 :         _Rep = _Right._Rep;

  00085	8b 4e f8	 mov	 ecx, DWORD PTR [esi-8]
; File C:\Program Files\Microsoft Visual Studio\2022\Professional\VC\Tools\MSVC\14.44.35207\include\xutility

; 5195 :         *--_Dest = _STD move(*--_Last);

  00088	83 ee 08	 sub	 esi, 8
; File C:\Program Files\Microsoft Visual Studio\2022\Professional\VC\Tools\MSVC\14.44.35207\include\memory

; 1330 :         _Right._Ptr = nullptr;

  0008b	c7 46 fc 00 00
	00 00		 mov	 DWORD PTR [esi-4], 0

; 1331 :         _Right._Rep = nullptr;

  00092	c7 06 00 00 00
	00		 mov	 DWORD PTR [esi], 0
; File C:\Program Files\Microsoft Visual Studio\2022\Professional\VC\Tools\MSVC\14.44.35207\include\utility

; 140  :     _Left    = _STD move(_Right);

  00098	8b 3a		 mov	 edi, DWORD PTR [edx]

; 141  :     _Right   = _STD move(_Tmp);

  0009a	89 46 04	 mov	 DWORD PTR [esi+4], eax
  0009d	89 0a		 mov	 DWORD PTR [edx], ecx
  0009f	85 ff		 test	 edi, edi
; File C:\Program Files\Microsoft Visual Studio\2022\Professional\VC\Tools\MSVC\14.44.35207\include\memory

; 1384 :         if (_Rep) {

  000a1	74 21		 je	 SHORT $LN70@Insertion_

; 1159 :         if (_MT_DECR(_Uses) == 0) {

  000a3	83 c8 ff	 or	 eax, -1
  000a6	f0 0f c1 47 04	 lock	  xadd	 DWORD PTR [edi+4], eax
  000ab	75 17		 jne	 SHORT $LN70@Insertion_

; 1160 :             _Destroy();

  000ad	8b 07		 mov	 eax, DWORD PTR [edi]
  000af	8b cf		 mov	 ecx, edi
  000b1	ff 10		 call	 DWORD PTR [eax]

; 1166 :         if (_MT_DECR(_Weaks) == 0) {

  000b3	83 c8 ff	 or	 eax, -1
  000b6	f0 0f c1 47 08	 lock	  xadd	 DWORD PTR [edi+8], eax
  000bb	75 07		 jne	 SHORT $LN70@Insertion_

; 1167 :             _Delete_this();

  000bd	8b 07		 mov	 eax, DWORD PTR [edi]
  000bf	8b cf		 mov	 ecx, edi
  000c1	ff 50 04	 call	 DWORD PTR [eax+4]
$LN70@Insertion_:
; File C:\Program Files\Microsoft Visual Studio\2022\Professional\VC\Tools\MSVC\14.44.35207\include\xutility

; 5194 :     while (_First != _Last) {

  000c4	8d 46 fc	 lea	 eax, DWORD PTR [esi-4]
  000c7	3b c3		 cmp	 eax, ebx
  000c9	75 b5		 jne	 SHORT $LL221@Insertion_
  000cb	8b 5d fc	 mov	 ebx, DWORD PTR __Val$1$sroa$316$1$[ebp]
  000ce	8b 45 08	 mov	 eax, DWORD PTR __First$[ebp]
$LN30@Insertion_:
; File C:\Program Files\Microsoft Visual Studio\2022\Professional\VC\Tools\MSVC\14.44.35207\include\utility

; 140  :     _Left    = _STD move(_Right);

  000d1	8b 70 04	 mov	 esi, DWORD PTR [eax+4]

; 141  :     _Right   = _STD move(_Tmp);

  000d4	8b 55 f4	 mov	 edx, DWORD PTR tv972[ebp]
  000d7	89 18		 mov	 DWORD PTR [eax], ebx
  000d9	89 50 04	 mov	 DWORD PTR [eax+4], edx
  000dc	85 f6		 test	 esi, esi
; File C:\Program Files\Microsoft Visual Studio\2022\Professional\VC\Tools\MSVC\14.44.35207\include\memory

; 1384 :         if (_Rep) {

  000de	74 24		 je	 SHORT $LN2@Insertion_

; 1159 :         if (_MT_DECR(_Uses) == 0) {

  000e0	83 c8 ff	 or	 eax, -1
  000e3	f0 0f c1 46 04	 lock	  xadd	 DWORD PTR [esi+4], eax
  000e8	75 17		 jne	 SHORT $LN241@Insertion_

; 1160 :             _Destroy();

  000ea	8b 06		 mov	 eax, DWORD PTR [esi]
  000ec	8b ce		 mov	 ecx, esi
  000ee	ff 10		 call	 DWORD PTR [eax]

; 1166 :         if (_MT_DECR(_Weaks) == 0) {

  000f0	83 c8 ff	 or	 eax, -1
  000f3	f0 0f c1 46 08	 lock	  xadd	 DWORD PTR [esi+8], eax
  000f8	75 07		 jne	 SHORT $LN241@Insertion_

; 1167 :             _Delete_this();

  000fa	8b 16		 mov	 edx, DWORD PTR [esi]
  000fc	8b ce		 mov	 ecx, esi
  000fe	ff 52 04	 call	 DWORD PTR [edx+4]
$LN241@Insertion_:
; File C:\Program Files\Microsoft Visual Studio\2022\Professional\VC\Tools\MSVC\14.44.35207\include\algorithm

; 8245 :         for (_BidIt _Mid = _First; ++_Mid != _Last;) { // order next element

  00101	8b 45 08	 mov	 eax, DWORD PTR __First$[ebp]
$LN2@Insertion_:
  00104	8b 4d f8	 mov	 ecx, DWORD PTR __Mid$1$[ebp]
  00107	8b 55 0c	 mov	 edx, DWORD PTR __Last$[ebp]
  0010a	83 c1 08	 add	 ecx, 8
  0010d	89 4d f8	 mov	 DWORD PTR __Mid$1$[ebp], ecx
  00110	3b ca		 cmp	 ecx, edx
  00112	0f 85 0d ff ff
	ff		 jne	 $LL4@Insertion_
  00118	5f		 pop	 edi
  00119	5e		 pop	 esi
  0011a	5b		 pop	 ebx
$LN233@Insertion_:

; 8254 :                     *_Hole = _STD move(*_Prev); // move hole down
; 8255 :                 }
; 8256 : 
; 8257 :                 *_Hole = _STD move(_Val); // insert element in hole
; 8258 :             }
; 8259 :         }
; 8260 :     }
; 8261 : 
; 8262 :     return _Last;
; 8263 : }

  0011b	8b c2		 mov	 eax, edx
  0011d	8b e5		 mov	 esp, ebp
  0011f	5d		 pop	 ebp
  00120	c3		 ret	 0
$LN26@Insertion_:
; File C:\IAGOS\server\v18\Source\Source\_Common\lord.h

; 149  : 		return ( lhs->GetDeposit() == rhs->GetDeposit()?

  00121	3b f8		 cmp	 edi, eax
$LN269@Insertion_:
  00123	0f 8f 48 ff ff
	ff		 jg	 $LN230@Insertion_
  00129	7c 0c		 jl	 SHORT $LN231@Insertion_
  0012b	8b 43 08	 mov	 eax, DWORD PTR [ebx+8]
  0012e	3b 41 08	 cmp	 eax, DWORD PTR [ecx+8]
  00131	0f 87 3a ff ff
	ff		 ja	 $LN230@Insertion_
$LN231@Insertion_:
; File C:\Program Files\Microsoft Visual Studio\2022\Professional\VC\Tools\MSVC\14.44.35207\include\algorithm

; 8253 :                 for (_BidIt _Prev = _Hole; _DEBUG_LT_PRED(_Pred, _Val, *--_Prev); _Hole = _Prev) {

  00137	8b 7d f8	 mov	 edi, DWORD PTR __Mid$1$[ebp]
  0013a	66 0f 1f 44 00
	00		 npad	 6
$LL7@Insertion_:
; File C:\IAGOS\server\v18\Source\Source\_Common\lord.h

; 149  : 		return ( lhs->GetDeposit() == rhs->GetDeposit()?

  00140	8b 77 f8	 mov	 esi, DWORD PTR [edi-8]
; File C:\Program Files\Microsoft Visual Studio\2022\Professional\VC\Tools\MSVC\14.44.35207\include\algorithm

; 8253 :                 for (_BidIt _Prev = _Hole; _DEBUG_LT_PRED(_Pred, _Val, *--_Prev); _Hole = _Prev) {

  00143	83 ef 08	 sub	 edi, 8
; File C:\IAGOS\server\v18\Source\Source\_Common\lord.h

; 149  : 		return ( lhs->GetDeposit() == rhs->GetDeposit()?

  00146	8b 4b 08	 mov	 ecx, DWORD PTR [ebx+8]
  00149	8b 5b 0c	 mov	 ebx, DWORD PTR [ebx+12]
  0014c	8b 46 0c	 mov	 eax, DWORD PTR [esi+12]
  0014f	3b 4e 08	 cmp	 ecx, DWORD PTR [esi+8]
  00152	75 53		 jne	 SHORT $LN118@Insertion_
  00154	3b d8		 cmp	 ebx, eax
  00156	75 4f		 jne	 SHORT $LN118@Insertion_
; File C:\Program Files\Microsoft Visual Studio\2022\Professional\VC\Tools\MSVC\14.44.35207\include\algorithm

; 8253 :                 for (_BidIt _Prev = _Hole; _DEBUG_LT_PRED(_Pred, _Val, *--_Prev); _Hole = _Prev) {

  00158	8b 5d fc	 mov	 ebx, DWORD PTR __Val$1$sroa$316$1$[ebp]
  0015b	8d 4a 04	 lea	 ecx, DWORD PTR [edx+4]
  0015e	8b 83 14 01 00
	00		 mov	 eax, DWORD PTR [ebx+276]
  00164	3b 86 14 01 00
	00		 cmp	 eax, DWORD PTR [esi+276]
  0016a	7c 4f		 jl	 SHORT $LN232@Insertion_
$LN116@Insertion_:
; File C:\Program Files\Microsoft Visual Studio\2022\Professional\VC\Tools\MSVC\14.44.35207\include\utility

; 140  :     _Left    = _STD move(_Right);

  0016c	8b 31		 mov	 esi, DWORD PTR [ecx]

; 141  :     _Right   = _STD move(_Tmp);

  0016e	89 1a		 mov	 DWORD PTR [edx], ebx
  00170	8b 55 f4	 mov	 edx, DWORD PTR tv972[ebp]
  00173	89 11		 mov	 DWORD PTR [ecx], edx
  00175	85 f6		 test	 esi, esi
; File C:\Program Files\Microsoft Visual Studio\2022\Professional\VC\Tools\MSVC\14.44.35207\include\memory

; 1384 :         if (_Rep) {

  00177	74 88		 je	 SHORT $LN241@Insertion_

; 1159 :         if (_MT_DECR(_Uses) == 0) {

  00179	83 c8 ff	 or	 eax, -1
  0017c	f0 0f c1 46 04	 lock	  xadd	 DWORD PTR [esi+4], eax
  00181	0f 85 7a ff ff
	ff		 jne	 $LN241@Insertion_

; 1160 :             _Destroy();

  00187	8b 06		 mov	 eax, DWORD PTR [esi]
  00189	8b ce		 mov	 ecx, esi
  0018b	ff 10		 call	 DWORD PTR [eax]

; 1166 :         if (_MT_DECR(_Weaks) == 0) {

  0018d	83 c8 ff	 or	 eax, -1
  00190	f0 0f c1 46 08	 lock	  xadd	 DWORD PTR [esi+8], eax
  00195	0f 85 66 ff ff
	ff		 jne	 $LN241@Insertion_

; 1167 :             _Delete_this();

  0019b	8b 06		 mov	 eax, DWORD PTR [esi]
  0019d	8b ce		 mov	 ecx, esi
  0019f	ff 50 04	 call	 DWORD PTR [eax+4]
  001a2	e9 5a ff ff ff	 jmp	 $LN241@Insertion_
$LN118@Insertion_:
; File C:\IAGOS\server\v18\Source\Source\_Common\lord.h

; 149  : 		return ( lhs->GetDeposit() == rhs->GetDeposit()?

  001a7	3b d8		 cmp	 ebx, eax
  001a9	8d 4a 04	 lea	 ecx, DWORD PTR [edx+4]
  001ac	8b 5d fc	 mov	 ebx, DWORD PTR __Val$1$sroa$316$1$[ebp]
  001af	7c bb		 jl	 SHORT $LN116@Insertion_
  001b1	7f 08		 jg	 SHORT $LN232@Insertion_
  001b3	8b 43 08	 mov	 eax, DWORD PTR [ebx+8]
  001b6	3b 46 08	 cmp	 eax, DWORD PTR [esi+8]
  001b9	76 b1		 jbe	 SHORT $LN116@Insertion_
$LN232@Insertion_:
; File C:\Program Files\Microsoft Visual Studio\2022\Professional\VC\Tools\MSVC\14.44.35207\include\memory

; 1328 :         _Rep = _Right._Rep;

  001bb	8b 47 04	 mov	 eax, DWORD PTR [edi+4]

; 1330 :         _Right._Ptr = nullptr;

  001be	c7 07 00 00 00
	00		 mov	 DWORD PTR [edi], 0

; 1331 :         _Right._Rep = nullptr;

  001c4	c7 47 04 00 00
	00 00		 mov	 DWORD PTR [edi+4], 0
; File C:\Program Files\Microsoft Visual Studio\2022\Professional\VC\Tools\MSVC\14.44.35207\include\utility

; 141  :     _Right   = _STD move(_Tmp);

  001cb	89 32		 mov	 DWORD PTR [edx], esi

; 140  :     _Left    = _STD move(_Right);

  001cd	8b 31		 mov	 esi, DWORD PTR [ecx]

; 141  :     _Right   = _STD move(_Tmp);

  001cf	89 01		 mov	 DWORD PTR [ecx], eax
  001d1	85 f6		 test	 esi, esi
; File C:\Program Files\Microsoft Visual Studio\2022\Professional\VC\Tools\MSVC\14.44.35207\include\memory

; 1384 :         if (_Rep) {

  001d3	74 21		 je	 SHORT $LN5@Insertion_

; 1159 :         if (_MT_DECR(_Uses) == 0) {

  001d5	83 c8 ff	 or	 eax, -1
  001d8	f0 0f c1 46 04	 lock	  xadd	 DWORD PTR [esi+4], eax
  001dd	75 17		 jne	 SHORT $LN5@Insertion_

; 1160 :             _Destroy();

  001df	8b 06		 mov	 eax, DWORD PTR [esi]
  001e1	8b ce		 mov	 ecx, esi
  001e3	ff 10		 call	 DWORD PTR [eax]

; 1166 :         if (_MT_DECR(_Weaks) == 0) {

  001e5	83 c8 ff	 or	 eax, -1
  001e8	f0 0f c1 46 08	 lock	  xadd	 DWORD PTR [esi+8], eax
  001ed	75 07		 jne	 SHORT $LN5@Insertion_

; 1167 :             _Delete_this();

  001ef	8b 06		 mov	 eax, DWORD PTR [esi]
  001f1	8b ce		 mov	 ecx, esi
  001f3	ff 50 04	 call	 DWORD PTR [eax+4]
$LN5@Insertion_:
; File C:\Program Files\Microsoft Visual Studio\2022\Professional\VC\Tools\MSVC\14.44.35207\include\algorithm

; 8253 :                 for (_BidIt _Prev = _Hole; _DEBUG_LT_PRED(_Pred, _Val, *--_Prev); _Hole = _Prev) {

  001f6	8b d7		 mov	 edx, edi
  001f8	e9 43 ff ff ff	 jmp	 $LL7@Insertion_
??$_Insertion_sort_unchecked@PAV?$shared_ptr@VCCandidate@@@std@@UDepositCompare@@@std@@YAPAV?$shared_ptr@VCCandidate@@@0@QAV10@0UDepositCompare@@@Z ENDP ; std::_Insertion_sort_unchecked<std::shared_ptr<CCandidate> *,DepositCompare>
_TEXT	ENDS
; Function compile flags: /Ogtp
; File C:\Program Files\Microsoft Visual Studio\2022\Professional\VC\Tools\MSVC\14.44.35207\include\xmemory
; File C:\Program Files\Microsoft Visual Studio\2022\Professional\VC\Tools\MSVC\14.44.35207\include\memory
; File C:\Program Files\Microsoft Visual Studio\2022\Professional\VC\Tools\MSVC\14.44.35207\include\xmemory
;	COMDAT ??$_Destroy_range@V?$allocator@V?$shared_ptr@VCCandidate@@@std@@@std@@@std@@YAXPAV?$shared_ptr@VCCandidate@@@0@QAV10@AAV?$allocator@V?$shared_ptr@VCCandidate@@@std@@@0@@Z
_TEXT	SEGMENT
__First$ = 8						; size = 4
__Last$ = 12						; size = 4
__Al$ = 16						; size = 4
??$_Destroy_range@V?$allocator@V?$shared_ptr@VCCandidate@@@std@@@std@@@std@@YAXPAV?$shared_ptr@VCCandidate@@@0@QAV10@AAV?$allocator@V?$shared_ptr@VCCandidate@@@std@@@0@@Z PROC ; std::_Destroy_range<std::allocator<std::shared_ptr<CCandidate> > >, COMDAT

; 1098 : _CONSTEXPR20 void _Destroy_range(_Alloc_ptr_t<_Alloc> _First, const _Alloc_ptr_t<_Alloc> _Last, _Alloc& _Al) noexcept {

  00000	55		 push	 ebp
  00001	8b ec		 mov	 ebp, esp
  00003	53		 push	 ebx

; 1102 :         for (; _First != _Last; ++_First) {

  00004	8b 5d 0c	 mov	 ebx, DWORD PTR __Last$[ebp]
  00007	57		 push	 edi
  00008	8b 7d 08	 mov	 edi, DWORD PTR __First$[ebp]
  0000b	3b fb		 cmp	 edi, ebx
  0000d	74 31		 je	 SHORT $LN3@Destroy_ra
  0000f	56		 push	 esi
$LL4@Destroy_ra:
; File C:\Program Files\Microsoft Visual Studio\2022\Professional\VC\Tools\MSVC\14.44.35207\include\memory

; 1384 :         if (_Rep) {

  00010	8b 77 04	 mov	 esi, DWORD PTR [edi+4]
  00013	85 f6		 test	 esi, esi
  00015	74 21		 je	 SHORT $LN25@Destroy_ra

; 1159 :         if (_MT_DECR(_Uses) == 0) {

  00017	83 c8 ff	 or	 eax, -1
  0001a	f0 0f c1 46 04	 lock	  xadd	 DWORD PTR [esi+4], eax
  0001f	75 17		 jne	 SHORT $LN25@Destroy_ra

; 1160 :             _Destroy();

  00021	8b 06		 mov	 eax, DWORD PTR [esi]
  00023	8b ce		 mov	 ecx, esi
  00025	ff 10		 call	 DWORD PTR [eax]

; 1166 :         if (_MT_DECR(_Weaks) == 0) {

  00027	83 c8 ff	 or	 eax, -1
  0002a	f0 0f c1 46 08	 lock	  xadd	 DWORD PTR [esi+8], eax
  0002f	75 07		 jne	 SHORT $LN25@Destroy_ra

; 1167 :             _Delete_this();

  00031	8b 06		 mov	 eax, DWORD PTR [esi]
  00033	8b ce		 mov	 ecx, esi
  00035	ff 50 04	 call	 DWORD PTR [eax+4]
$LN25@Destroy_ra:
; File C:\Program Files\Microsoft Visual Studio\2022\Professional\VC\Tools\MSVC\14.44.35207\include\xmemory

; 1102 :         for (; _First != _Last; ++_First) {

  00038	83 c7 08	 add	 edi, 8
  0003b	3b fb		 cmp	 edi, ebx
  0003d	75 d1		 jne	 SHORT $LL4@Destroy_ra
  0003f	5e		 pop	 esi
$LN3@Destroy_ra:
  00040	5f		 pop	 edi

; 1103 :             allocator_traits<_Alloc>::destroy(_Al, _STD _Unfancy(_First));
; 1104 :         }
; 1105 :     }
; 1106 : }

  00041	5b		 pop	 ebx
  00042	5d		 pop	 ebp
  00043	c3		 ret	 0
??$_Destroy_range@V?$allocator@V?$shared_ptr@VCCandidate@@@std@@@std@@@std@@YAXPAV?$shared_ptr@VCCandidate@@@0@QAV10@AAV?$allocator@V?$shared_ptr@VCCandidate@@@std@@@0@@Z ENDP ; std::_Destroy_range<std::allocator<std::shared_ptr<CCandidate> > >
_TEXT	ENDS
; Function compile flags: /Ogtp
; File C:\Program Files\Microsoft Visual Studio\2022\Professional\VC\Tools\MSVC\14.44.35207\include\algorithm
; File C:\Program Files\Microsoft Visual Studio\2022\Professional\VC\Tools\MSVC\14.44.35207\include\__msvc_heap_algorithms.hpp
; File C:\Program Files\Microsoft Visual Studio\2022\Professional\VC\Tools\MSVC\14.44.35207\include\memory
; File C:\Program Files\Microsoft Visual Studio\2022\Professional\VC\Tools\MSVC\14.44.35207\include\__msvc_heap_algorithms.hpp
; File C:\Program Files\Microsoft Visual Studio\2022\Professional\VC\Tools\MSVC\14.44.35207\include\memory
; File C:\Program Files\Microsoft Visual Studio\2022\Professional\VC\Tools\MSVC\14.44.35207\include\__msvc_heap_algorithms.hpp
; File C:\Program Files\Microsoft Visual Studio\2022\Professional\VC\Tools\MSVC\14.44.35207\include\memory
; File C:\Program Files\Microsoft Visual Studio\2022\Professional\VC\Tools\MSVC\14.44.35207\include\__msvc_heap_algorithms.hpp
; File C:\Program Files\Microsoft Visual Studio\2022\Professional\VC\Tools\MSVC\14.44.35207\include\memory
; File C:\Program Files\Microsoft Visual Studio\2022\Professional\VC\Tools\MSVC\14.44.35207\include\__msvc_heap_algorithms.hpp
; File C:\Program Files\Microsoft Visual Studio\2022\Professional\VC\Tools\MSVC\14.44.35207\include\memory
; File C:\Program Files\Microsoft Visual Studio\2022\Professional\VC\Tools\MSVC\14.44.35207\include\__msvc_heap_algorithms.hpp
; File C:\Program Files\Microsoft Visual Studio\2022\Professional\VC\Tools\MSVC\14.44.35207\include\algorithm
; File C:\Program Files\Microsoft Visual Studio\2022\Professional\VC\Tools\MSVC\14.44.35207\include\memory
; File C:\Program Files\Microsoft Visual Studio\2022\Professional\VC\Tools\MSVC\14.44.35207\include\utility
; File C:\Program Files\Microsoft Visual Studio\2022\Professional\VC\Tools\MSVC\14.44.35207\include\__msvc_heap_algorithms.hpp
; File C:\Program Files\Microsoft Visual Studio\2022\Professional\VC\Tools\MSVC\14.44.35207\include\utility
; File C:\Program Files\Microsoft Visual Studio\2022\Professional\VC\Tools\MSVC\14.44.35207\include\memory
; File C:\Program Files\Microsoft Visual Studio\2022\Professional\VC\Tools\MSVC\14.44.35207\include\__msvc_heap_algorithms.hpp
; File C:\Program Files\Microsoft Visual Studio\2022\Professional\VC\Tools\MSVC\14.44.35207\include\memory
; File C:\Program Files\Microsoft Visual Studio\2022\Professional\VC\Tools\MSVC\14.44.35207\include\__msvc_heap_algorithms.hpp
; File C:\Program Files\Microsoft Visual Studio\2022\Professional\VC\Tools\MSVC\14.44.35207\include\memory
; File C:\Program Files\Microsoft Visual Studio\2022\Professional\VC\Tools\MSVC\14.44.35207\include\algorithm
;	COMDAT ??$_Sort_unchecked@PAV?$shared_ptr@VCCandidate@@@std@@UVoteCompare@@@std@@YAXPAV?$shared_ptr@VCCandidate@@@0@0HUVoteCompare@@@Z
_TEXT	SEGMENT
__Val$1 = -16						; size = 8
__Val$2 = -16						; size = 8
__Mid$3 = -8						; size = 8
__Hole$1$ = -4						; size = 4
__First$ = 8						; size = 4
__Bottom$1$ = 8						; size = 4
__Last$ = 12						; size = 4
tv623 = 12						; size = 4
__Ideal$ = 16						; size = 4
__Pred$ = 20						; size = 1
??$_Sort_unchecked@PAV?$shared_ptr@VCCandidate@@@std@@UVoteCompare@@@std@@YAXPAV?$shared_ptr@VCCandidate@@@0@0HUVoteCompare@@@Z PROC ; std::_Sort_unchecked<std::shared_ptr<CCandidate> *,VoteCompare>, COMDAT

; 8370 : _CONSTEXPR20 void _Sort_unchecked(_RanIt _First, _RanIt _Last, _Iter_diff_t<_RanIt> _Ideal, _Pr _Pred) {

  00000	55		 push	 ebp
  00001	8b ec		 mov	 ebp, esp
  00003	83 ec 10	 sub	 esp, 16			; 00000010H
  00006	53		 push	 ebx

; 8371 :     // order [_First, _Last)
; 8372 :     for (;;) {
; 8373 :         if (_Last - _First <= _ISORT_MAX) { // small

  00007	8b 5d 0c	 mov	 ebx, DWORD PTR __Last$[ebp]
  0000a	8b c3		 mov	 eax, ebx
  0000c	56		 push	 esi
  0000d	8b 75 08	 mov	 esi, DWORD PTR __First$[ebp]
  00010	2b c6		 sub	 eax, esi
  00012	83 e0 f8	 and	 eax, -8			; fffffff8H
  00015	57		 push	 edi
  00016	3d 00 01 00 00	 cmp	 eax, 256		; 00000100H
  0001b	7e 68		 jle	 SHORT $LN118@Sort_unche
  0001d	8b 7d 10	 mov	 edi, DWORD PTR __Ideal$[ebp]
$LL4@Sort_unche:

; 8375 :             return;
; 8376 :         }
; 8377 : 
; 8378 :         if (_Ideal <= 0) { // heap sort if too many divisions

  00020	85 ff		 test	 edi, edi
  00022	7e 75		 jle	 SHORT $LN119@Sort_unche

; 8381 :             return;
; 8382 :         }
; 8383 : 
; 8384 :         // divide and conquer by quicksort
; 8385 :         auto _Mid = _STD _Partition_by_median_guess_unchecked(_First, _Last, _Pred);

  00024	ff 75 14	 push	 DWORD PTR __Pred$[ebp]
  00027	8d 45 f8	 lea	 eax, DWORD PTR __Mid$3[ebp]
  0002a	53		 push	 ebx
  0002b	56		 push	 esi
  0002c	50		 push	 eax
  0002d	e8 00 00 00 00	 call	 ??$_Partition_by_median_guess_unchecked@PAV?$shared_ptr@VCCandidate@@@std@@UVoteCompare@@@std@@YA?AU?$pair@PAV?$shared_ptr@VCCandidate@@@std@@PAV12@@0@PAV?$shared_ptr@VCCandidate@@@0@0UVoteCompare@@@Z ; std::_Partition_by_median_guess_unchecked<std::shared_ptr<CCandidate> *,VoteCompare>

; 8386 : 
; 8387 :         _Ideal = (_Ideal >> 1) + (_Ideal >> 2); // allow 1.5 log2(N) divisions
; 8388 : 
; 8389 :         if (_Mid.first - _First < _Last - _Mid.second) { // loop on second half

  00032	8b 55 fc	 mov	 edx, DWORD PTR __Mid$3[ebp+4]
  00035	8b c7		 mov	 eax, edi
  00037	c1 f8 02	 sar	 eax, 2
  0003a	83 c4 10	 add	 esp, 16			; 00000010H
  0003d	d1 ff		 sar	 edi, 1
  0003f	8b cb		 mov	 ecx, ebx
  00041	03 f8		 add	 edi, eax
  00043	2b ca		 sub	 ecx, edx
  00045	8b 45 f8	 mov	 eax, DWORD PTR __Mid$3[ebp]
  00048	83 e1 f8	 and	 ecx, -8			; fffffff8H
  0004b	ff 75 14	 push	 DWORD PTR __Pred$[ebp]
  0004e	2b c6		 sub	 eax, esi
  00050	83 e0 f8	 and	 eax, -8			; fffffff8H
  00053	57		 push	 edi
  00054	3b c1		 cmp	 eax, ecx
  00056	7d 0f		 jge	 SHORT $LN7@Sort_unche

; 8390 :             _STD _Sort_unchecked(_First, _Mid.first, _Ideal, _Pred);

  00058	8b 45 f8	 mov	 eax, DWORD PTR __Mid$3[ebp]
  0005b	50		 push	 eax
  0005c	56		 push	 esi
  0005d	e8 00 00 00 00	 call	 ??$_Sort_unchecked@PAV?$shared_ptr@VCCandidate@@@std@@UVoteCompare@@@std@@YAXPAV?$shared_ptr@VCCandidate@@@0@0HUVoteCompare@@@Z ; std::_Sort_unchecked<std::shared_ptr<CCandidate> *,VoteCompare>

; 8391 :             _First = _Mid.second;

  00062	8b 75 fc	 mov	 esi, DWORD PTR __Mid$3[ebp+4]

; 8392 :         } else { // loop on first half

  00065	eb 0d		 jmp	 SHORT $LN144@Sort_unche
$LN7@Sort_unche:

; 8393 :             _STD _Sort_unchecked(_Mid.second, _Last, _Ideal, _Pred);

  00067	53		 push	 ebx
  00068	52		 push	 edx
  00069	e8 00 00 00 00	 call	 ??$_Sort_unchecked@PAV?$shared_ptr@VCCandidate@@@std@@UVoteCompare@@@std@@YAXPAV?$shared_ptr@VCCandidate@@@0@0HUVoteCompare@@@Z ; std::_Sort_unchecked<std::shared_ptr<CCandidate> *,VoteCompare>

; 8394 :             _Last = _Mid.first;

  0006e	8b 5d f8	 mov	 ebx, DWORD PTR __Mid$3[ebp]
  00071	89 5d 0c	 mov	 DWORD PTR __Last$[ebp], ebx
$LN144@Sort_unche:

; 8371 :     // order [_First, _Last)
; 8372 :     for (;;) {
; 8373 :         if (_Last - _First <= _ISORT_MAX) { // small

  00074	8b c3		 mov	 eax, ebx
  00076	83 c4 10	 add	 esp, 16			; 00000010H
  00079	2b c6		 sub	 eax, esi
  0007b	83 e0 f8	 and	 eax, -8			; fffffff8H
  0007e	3d 00 01 00 00	 cmp	 eax, 256		; 00000100H
  00083	7f 9b		 jg	 SHORT $LL4@Sort_unche
$LN118@Sort_unche:

; 8374 :             _STD _Insertion_sort_unchecked(_First, _Last, _Pred);

  00085	ff 75 14	 push	 DWORD PTR __Pred$[ebp]
  00088	53		 push	 ebx
  00089	56		 push	 esi
  0008a	e8 00 00 00 00	 call	 ??$_Insertion_sort_unchecked@PAV?$shared_ptr@VCCandidate@@@std@@UVoteCompare@@@std@@YAPAV?$shared_ptr@VCCandidate@@@0@QAV10@0UVoteCompare@@@Z ; std::_Insertion_sort_unchecked<std::shared_ptr<CCandidate> *,VoteCompare>
  0008f	83 c4 0c	 add	 esp, 12			; 0000000cH
$LN41@Sort_unche:

; 8395 :         }
; 8396 :     }
; 8397 : }

  00092	5f		 pop	 edi
  00093	5e		 pop	 esi
  00094	5b		 pop	 ebx
  00095	8b e5		 mov	 esp, ebp
  00097	5d		 pop	 ebp
  00098	c3		 ret	 0
$LN119@Sort_unche:
; File C:\Program Files\Microsoft Visual Studio\2022\Professional\VC\Tools\MSVC\14.44.35207\include\__msvc_heap_algorithms.hpp

; 124  :     _Diff _Bottom = _Last - _First;

  00099	8b d3		 mov	 edx, ebx
  0009b	2b d6		 sub	 edx, esi
  0009d	c1 fa 03	 sar	 edx, 3

; 125  :     for (_Diff _Hole = _Bottom >> 1; _Hole > 0;) { // shift for codegen

  000a0	8b ca		 mov	 ecx, edx
  000a2	89 55 08	 mov	 DWORD PTR __Bottom$1$[ebp], edx
  000a5	d1 f9		 sar	 ecx, 1
  000a7	85 c9		 test	 ecx, ecx
  000a9	7e 71		 jle	 SHORT $LN12@Sort_unche

; 124  :     _Diff _Bottom = _Last - _First;

  000ab	8d 1c cd fc ff
	ff ff		 lea	 ebx, DWORD PTR [ecx*8-4]
  000b2	03 de		 add	 ebx, esi
$LL13@Sort_unche:
; File C:\Program Files\Microsoft Visual Studio\2022\Professional\VC\Tools\MSVC\14.44.35207\include\memory

; 1327 :         _Ptr = _Right._Ptr;

  000b4	8b 43 fc	 mov	 eax, DWORD PTR [ebx-4]
  000b7	89 45 f0	 mov	 DWORD PTR __Val$1[ebp], eax

; 1328 :         _Rep = _Right._Rep;

  000ba	8b 03		 mov	 eax, DWORD PTR [ebx]
  000bc	89 45 f4	 mov	 DWORD PTR __Val$1[ebp+4], eax
; File C:\Program Files\Microsoft Visual Studio\2022\Professional\VC\Tools\MSVC\14.44.35207\include\__msvc_heap_algorithms.hpp

; 129  :         _STD _Pop_heap_hole_by_index(_First, _Hole, _Bottom, _STD move(_Val), _Pred);

  000bf	8d 41 ff	 lea	 eax, DWORD PTR [ecx-1]
; File C:\Program Files\Microsoft Visual Studio\2022\Professional\VC\Tools\MSVC\14.44.35207\include\memory

; 1330 :         _Right._Ptr = nullptr;

  000c2	c7 43 fc 00 00
	00 00		 mov	 DWORD PTR [ebx-4], 0
; File C:\Program Files\Microsoft Visual Studio\2022\Professional\VC\Tools\MSVC\14.44.35207\include\__msvc_heap_algorithms.hpp

; 129  :         _STD _Pop_heap_hole_by_index(_First, _Hole, _Bottom, _STD move(_Val), _Pred);

  000c9	8d 4d f0	 lea	 ecx, DWORD PTR __Val$1[ebp]
; File C:\Program Files\Microsoft Visual Studio\2022\Professional\VC\Tools\MSVC\14.44.35207\include\memory

; 1331 :         _Right._Rep = nullptr;

  000cc	c7 03 00 00 00
	00		 mov	 DWORD PTR [ebx], 0
; File C:\Program Files\Microsoft Visual Studio\2022\Professional\VC\Tools\MSVC\14.44.35207\include\__msvc_heap_algorithms.hpp

; 129  :         _STD _Pop_heap_hole_by_index(_First, _Hole, _Bottom, _STD move(_Val), _Pred);

  000d2	ff 75 14	 push	 DWORD PTR __Pred$[ebp]
  000d5	89 45 fc	 mov	 DWORD PTR __Hole$1$[ebp], eax
  000d8	51		 push	 ecx
  000d9	52		 push	 edx
  000da	50		 push	 eax
  000db	56		 push	 esi
  000dc	e8 00 00 00 00	 call	 ??$_Pop_heap_hole_by_index@PAV?$shared_ptr@VCCandidate@@@std@@V12@UVoteCompare@@@std@@YAXPAV?$shared_ptr@VCCandidate@@@0@HH$$QAV10@UVoteCompare@@@Z ; std::_Pop_heap_hole_by_index<std::shared_ptr<CCandidate> *,std::shared_ptr<CCandidate>,VoteCompare>
; File C:\Program Files\Microsoft Visual Studio\2022\Professional\VC\Tools\MSVC\14.44.35207\include\memory

; 1384 :         if (_Rep) {

  000e1	8b 7d f4	 mov	 edi, DWORD PTR __Val$1[ebp+4]
; File C:\Program Files\Microsoft Visual Studio\2022\Professional\VC\Tools\MSVC\14.44.35207\include\__msvc_heap_algorithms.hpp

; 129  :         _STD _Pop_heap_hole_by_index(_First, _Hole, _Bottom, _STD move(_Val), _Pred);

  000e4	83 c4 14	 add	 esp, 20			; 00000014H
; File C:\Program Files\Microsoft Visual Studio\2022\Professional\VC\Tools\MSVC\14.44.35207\include\memory

; 1384 :         if (_Rep) {

  000e7	85 ff		 test	 edi, edi
  000e9	74 21		 je	 SHORT $LN11@Sort_unche

; 1159 :         if (_MT_DECR(_Uses) == 0) {

  000eb	83 c8 ff	 or	 eax, -1
  000ee	f0 0f c1 47 04	 lock	  xadd	 DWORD PTR [edi+4], eax
  000f3	75 17		 jne	 SHORT $LN11@Sort_unche

; 1160 :             _Destroy();

  000f5	8b 07		 mov	 eax, DWORD PTR [edi]
  000f7	8b cf		 mov	 ecx, edi
  000f9	ff 10		 call	 DWORD PTR [eax]

; 1166 :         if (_MT_DECR(_Weaks) == 0) {

  000fb	83 c8 ff	 or	 eax, -1
  000fe	f0 0f c1 47 08	 lock	  xadd	 DWORD PTR [edi+8], eax
  00103	75 07		 jne	 SHORT $LN11@Sort_unche

; 1167 :             _Delete_this();

  00105	8b 07		 mov	 eax, DWORD PTR [edi]
  00107	8b cf		 mov	 ecx, edi
  00109	ff 50 04	 call	 DWORD PTR [eax+4]
$LN11@Sort_unche:
; File C:\Program Files\Microsoft Visual Studio\2022\Professional\VC\Tools\MSVC\14.44.35207\include\__msvc_heap_algorithms.hpp

; 125  :     for (_Diff _Hole = _Bottom >> 1; _Hole > 0;) { // shift for codegen

  0010c	8b 4d fc	 mov	 ecx, DWORD PTR __Hole$1$[ebp]

; 126  :         // reheap top half, bottom to top
; 127  :         --_Hole;

  0010f	83 eb 08	 sub	 ebx, 8
  00112	8b 55 08	 mov	 edx, DWORD PTR __Bottom$1$[ebp]
  00115	85 c9		 test	 ecx, ecx
  00117	7f 9b		 jg	 SHORT $LL13@Sort_unche
  00119	8b 5d 0c	 mov	 ebx, DWORD PTR __Last$[ebp]
$LN12@Sort_unche:
; File C:\Program Files\Microsoft Visual Studio\2022\Professional\VC\Tools\MSVC\14.44.35207\include\algorithm

; 7149 :     for (; _Last - _First >= 2; --_Last) {

  0011c	83 fa 02	 cmp	 edx, 2
  0011f	0f 8c 6d ff ff
	ff		 jl	 $LN41@Sort_unche

; 8379 :             _STD _Make_heap_unchecked(_First, _Last, _Pred);
; 8380 :             _STD _Sort_heap_unchecked(_First, _Last, _Pred);

  00125	8d 7b f8	 lea	 edi, DWORD PTR [ebx-8]
  00128	0f 1f 84 00 00
	00 00 00	 npad	 8
$LL42@Sort_unche:
; File C:\Program Files\Microsoft Visual Studio\2022\Professional\VC\Tools\MSVC\14.44.35207\include\memory

; 1327 :         _Ptr = _Right._Ptr;

  00130	8b 07		 mov	 eax, DWORD PTR [edi]

; 1330 :         _Right._Ptr = nullptr;

  00132	c7 07 00 00 00
	00		 mov	 DWORD PTR [edi], 0
  00138	89 45 f0	 mov	 DWORD PTR __Val$2[ebp], eax
  0013b	8b 47 04	 mov	 eax, DWORD PTR [edi+4]

; 1331 :         _Right._Rep = nullptr;

  0013e	c7 47 04 00 00
	00 00		 mov	 DWORD PTR [edi+4], 0

; 1328 :         _Rep = _Right._Rep;

  00145	8b 4e 04	 mov	 ecx, DWORD PTR [esi+4]
  00148	89 45 f4	 mov	 DWORD PTR __Val$2[ebp+4], eax

; 1327 :         _Ptr = _Right._Ptr;

  0014b	8b 06		 mov	 eax, DWORD PTR [esi]

; 1330 :         _Right._Ptr = nullptr;

  0014d	c7 06 00 00 00
	00		 mov	 DWORD PTR [esi], 0

; 1331 :         _Right._Rep = nullptr;

  00153	c7 46 04 00 00
	00 00		 mov	 DWORD PTR [esi+4], 0
; File C:\Program Files\Microsoft Visual Studio\2022\Professional\VC\Tools\MSVC\14.44.35207\include\utility

; 140  :     _Left    = _STD move(_Right);

  0015a	8b 5f 04	 mov	 ebx, DWORD PTR [edi+4]
; File C:\Program Files\Microsoft Visual Studio\2022\Professional\VC\Tools\MSVC\14.44.35207\include\__msvc_heap_algorithms.hpp

; 100  :     if (2 <= _Last - _First) {

  0015d	89 7d 0c	 mov	 DWORD PTR tv623[ebp], edi
; File C:\Program Files\Microsoft Visual Studio\2022\Professional\VC\Tools\MSVC\14.44.35207\include\utility

; 141  :     _Right   = _STD move(_Tmp);

  00160	89 07		 mov	 DWORD PTR [edi], eax
  00162	89 4f 04	 mov	 DWORD PTR [edi+4], ecx
  00165	85 db		 test	 ebx, ebx
; File C:\Program Files\Microsoft Visual Studio\2022\Professional\VC\Tools\MSVC\14.44.35207\include\memory

; 1384 :         if (_Rep) {

  00167	74 21		 je	 SHORT $LN96@Sort_unche

; 1159 :         if (_MT_DECR(_Uses) == 0) {

  00169	83 c8 ff	 or	 eax, -1
  0016c	f0 0f c1 43 04	 lock	  xadd	 DWORD PTR [ebx+4], eax
  00171	75 17		 jne	 SHORT $LN96@Sort_unche

; 1160 :             _Destroy();

  00173	8b 03		 mov	 eax, DWORD PTR [ebx]
  00175	8b cb		 mov	 ecx, ebx
  00177	ff 10		 call	 DWORD PTR [eax]

; 1166 :         if (_MT_DECR(_Weaks) == 0) {

  00179	83 c8 ff	 or	 eax, -1
  0017c	f0 0f c1 43 08	 lock	  xadd	 DWORD PTR [ebx+8], eax
  00181	75 07		 jne	 SHORT $LN96@Sort_unche

; 1167 :             _Delete_this();

  00183	8b 03		 mov	 eax, DWORD PTR [ebx]
  00185	8b cb		 mov	 ecx, ebx
  00187	ff 50 04	 call	 DWORD PTR [eax+4]
$LN96@Sort_unche:
; File C:\Program Files\Microsoft Visual Studio\2022\Professional\VC\Tools\MSVC\14.44.35207\include\__msvc_heap_algorithms.hpp

; 93   :     _STD _Pop_heap_hole_by_index(

  0018a	ff 75 14	 push	 DWORD PTR __Pred$[ebp]
  0018d	8d 45 f0	 lea	 eax, DWORD PTR __Val$2[ebp]
  00190	50		 push	 eax
  00191	8b c7		 mov	 eax, edi
  00193	2b c6		 sub	 eax, esi
  00195	c1 f8 03	 sar	 eax, 3
  00198	50		 push	 eax
  00199	6a 00		 push	 0
  0019b	56		 push	 esi
  0019c	e8 00 00 00 00	 call	 ??$_Pop_heap_hole_by_index@PAV?$shared_ptr@VCCandidate@@@std@@V12@UVoteCompare@@@std@@YAXPAV?$shared_ptr@VCCandidate@@@0@HH$$QAV10@UVoteCompare@@@Z ; std::_Pop_heap_hole_by_index<std::shared_ptr<CCandidate> *,std::shared_ptr<CCandidate>,VoteCompare>
; File C:\Program Files\Microsoft Visual Studio\2022\Professional\VC\Tools\MSVC\14.44.35207\include\memory

; 1384 :         if (_Rep) {

  001a1	8b 5d f4	 mov	 ebx, DWORD PTR __Val$2[ebp+4]
; File C:\Program Files\Microsoft Visual Studio\2022\Professional\VC\Tools\MSVC\14.44.35207\include\__msvc_heap_algorithms.hpp

; 93   :     _STD _Pop_heap_hole_by_index(

  001a4	83 c4 14	 add	 esp, 20			; 00000014H
; File C:\Program Files\Microsoft Visual Studio\2022\Professional\VC\Tools\MSVC\14.44.35207\include\memory

; 1384 :         if (_Rep) {

  001a7	85 db		 test	 ebx, ebx
  001a9	74 21		 je	 SHORT $LN40@Sort_unche

; 1159 :         if (_MT_DECR(_Uses) == 0) {

  001ab	83 c8 ff	 or	 eax, -1
  001ae	f0 0f c1 43 04	 lock	  xadd	 DWORD PTR [ebx+4], eax
  001b3	75 17		 jne	 SHORT $LN40@Sort_unche

; 1160 :             _Destroy();

  001b5	8b 03		 mov	 eax, DWORD PTR [ebx]
  001b7	8b cb		 mov	 ecx, ebx
  001b9	ff 10		 call	 DWORD PTR [eax]

; 1166 :         if (_MT_DECR(_Weaks) == 0) {

  001bb	83 c8 ff	 or	 eax, -1
  001be	f0 0f c1 43 08	 lock	  xadd	 DWORD PTR [ebx+8], eax
  001c3	75 07		 jne	 SHORT $LN40@Sort_unche

; 1167 :             _Delete_this();

  001c5	8b 03		 mov	 eax, DWORD PTR [ebx]
  001c7	8b cb		 mov	 ecx, ebx
  001c9	ff 50 04	 call	 DWORD PTR [eax+4]
$LN40@Sort_unche:
; File C:\Program Files\Microsoft Visual Studio\2022\Professional\VC\Tools\MSVC\14.44.35207\include\algorithm

; 7149 :     for (; _Last - _First >= 2; --_Last) {

  001cc	8b 45 0c	 mov	 eax, DWORD PTR tv623[ebp]
  001cf	83 ef 08	 sub	 edi, 8
  001d2	2b c6		 sub	 eax, esi
  001d4	83 e0 f8	 and	 eax, -8			; fffffff8H
  001d7	83 f8 10	 cmp	 eax, 16			; 00000010H
  001da	0f 8d 50 ff ff
	ff		 jge	 $LL42@Sort_unche

; 8395 :         }
; 8396 :     }
; 8397 : }

  001e0	5f		 pop	 edi
  001e1	5e		 pop	 esi
  001e2	5b		 pop	 ebx
  001e3	8b e5		 mov	 esp, ebp
  001e5	5d		 pop	 ebp
  001e6	c3		 ret	 0
??$_Sort_unchecked@PAV?$shared_ptr@VCCandidate@@@std@@UVoteCompare@@@std@@YAXPAV?$shared_ptr@VCCandidate@@@0@0HUVoteCompare@@@Z ENDP ; std::_Sort_unchecked<std::shared_ptr<CCandidate> *,VoteCompare>
_TEXT	ENDS
; Function compile flags: /Ogtp
; File C:\Program Files\Microsoft Visual Studio\2022\Professional\VC\Tools\MSVC\14.44.35207\include\algorithm
; File C:\Program Files\Microsoft Visual Studio\2022\Professional\VC\Tools\MSVC\14.44.35207\include\__msvc_heap_algorithms.hpp
; File C:\Program Files\Microsoft Visual Studio\2022\Professional\VC\Tools\MSVC\14.44.35207\include\memory
; File C:\Program Files\Microsoft Visual Studio\2022\Professional\VC\Tools\MSVC\14.44.35207\include\__msvc_heap_algorithms.hpp
; File C:\Program Files\Microsoft Visual Studio\2022\Professional\VC\Tools\MSVC\14.44.35207\include\memory
; File C:\Program Files\Microsoft Visual Studio\2022\Professional\VC\Tools\MSVC\14.44.35207\include\__msvc_heap_algorithms.hpp
; File C:\Program Files\Microsoft Visual Studio\2022\Professional\VC\Tools\MSVC\14.44.35207\include\memory
; File C:\Program Files\Microsoft Visual Studio\2022\Professional\VC\Tools\MSVC\14.44.35207\include\__msvc_heap_algorithms.hpp
; File C:\Program Files\Microsoft Visual Studio\2022\Professional\VC\Tools\MSVC\14.44.35207\include\memory
; File C:\Program Files\Microsoft Visual Studio\2022\Professional\VC\Tools\MSVC\14.44.35207\include\__msvc_heap_algorithms.hpp
; File C:\Program Files\Microsoft Visual Studio\2022\Professional\VC\Tools\MSVC\14.44.35207\include\memory
; File C:\Program Files\Microsoft Visual Studio\2022\Professional\VC\Tools\MSVC\14.44.35207\include\__msvc_heap_algorithms.hpp
; File C:\Program Files\Microsoft Visual Studio\2022\Professional\VC\Tools\MSVC\14.44.35207\include\algorithm
; File C:\Program Files\Microsoft Visual Studio\2022\Professional\VC\Tools\MSVC\14.44.35207\include\memory
; File C:\Program Files\Microsoft Visual Studio\2022\Professional\VC\Tools\MSVC\14.44.35207\include\utility
; File C:\Program Files\Microsoft Visual Studio\2022\Professional\VC\Tools\MSVC\14.44.35207\include\__msvc_heap_algorithms.hpp
; File C:\Program Files\Microsoft Visual Studio\2022\Professional\VC\Tools\MSVC\14.44.35207\include\utility
; File C:\Program Files\Microsoft Visual Studio\2022\Professional\VC\Tools\MSVC\14.44.35207\include\memory
; File C:\Program Files\Microsoft Visual Studio\2022\Professional\VC\Tools\MSVC\14.44.35207\include\__msvc_heap_algorithms.hpp
; File C:\Program Files\Microsoft Visual Studio\2022\Professional\VC\Tools\MSVC\14.44.35207\include\memory
; File C:\Program Files\Microsoft Visual Studio\2022\Professional\VC\Tools\MSVC\14.44.35207\include\__msvc_heap_algorithms.hpp
; File C:\Program Files\Microsoft Visual Studio\2022\Professional\VC\Tools\MSVC\14.44.35207\include\memory
; File C:\Program Files\Microsoft Visual Studio\2022\Professional\VC\Tools\MSVC\14.44.35207\include\algorithm
;	COMDAT ??$_Sort_unchecked@PAV?$shared_ptr@VCCandidate@@@std@@UDepositCompare@@@std@@YAXPAV?$shared_ptr@VCCandidate@@@0@0HUDepositCompare@@@Z
_TEXT	SEGMENT
__Val$1 = -16						; size = 8
__Val$2 = -16						; size = 8
__Mid$3 = -8						; size = 8
__Hole$1$ = -4						; size = 4
__First$ = 8						; size = 4
__Bottom$1$ = 8						; size = 4
__Last$ = 12						; size = 4
tv623 = 12						; size = 4
__Ideal$ = 16						; size = 4
__Pred$ = 20						; size = 1
??$_Sort_unchecked@PAV?$shared_ptr@VCCandidate@@@std@@UDepositCompare@@@std@@YAXPAV?$shared_ptr@VCCandidate@@@0@0HUDepositCompare@@@Z PROC ; std::_Sort_unchecked<std::shared_ptr<CCandidate> *,DepositCompare>, COMDAT

; 8370 : _CONSTEXPR20 void _Sort_unchecked(_RanIt _First, _RanIt _Last, _Iter_diff_t<_RanIt> _Ideal, _Pr _Pred) {

  00000	55		 push	 ebp
  00001	8b ec		 mov	 ebp, esp
  00003	83 ec 10	 sub	 esp, 16			; 00000010H
  00006	53		 push	 ebx

; 8371 :     // order [_First, _Last)
; 8372 :     for (;;) {
; 8373 :         if (_Last - _First <= _ISORT_MAX) { // small

  00007	8b 5d 0c	 mov	 ebx, DWORD PTR __Last$[ebp]
  0000a	8b c3		 mov	 eax, ebx
  0000c	56		 push	 esi
  0000d	8b 75 08	 mov	 esi, DWORD PTR __First$[ebp]
  00010	2b c6		 sub	 eax, esi
  00012	83 e0 f8	 and	 eax, -8			; fffffff8H
  00015	57		 push	 edi
  00016	3d 00 01 00 00	 cmp	 eax, 256		; 00000100H
  0001b	7e 68		 jle	 SHORT $LN118@Sort_unche
  0001d	8b 7d 10	 mov	 edi, DWORD PTR __Ideal$[ebp]
$LL4@Sort_unche:

; 8375 :             return;
; 8376 :         }
; 8377 : 
; 8378 :         if (_Ideal <= 0) { // heap sort if too many divisions

  00020	85 ff		 test	 edi, edi
  00022	7e 75		 jle	 SHORT $LN119@Sort_unche

; 8381 :             return;
; 8382 :         }
; 8383 : 
; 8384 :         // divide and conquer by quicksort
; 8385 :         auto _Mid = _STD _Partition_by_median_guess_unchecked(_First, _Last, _Pred);

  00024	ff 75 14	 push	 DWORD PTR __Pred$[ebp]
  00027	8d 45 f8	 lea	 eax, DWORD PTR __Mid$3[ebp]
  0002a	53		 push	 ebx
  0002b	56		 push	 esi
  0002c	50		 push	 eax
  0002d	e8 00 00 00 00	 call	 ??$_Partition_by_median_guess_unchecked@PAV?$shared_ptr@VCCandidate@@@std@@UDepositCompare@@@std@@YA?AU?$pair@PAV?$shared_ptr@VCCandidate@@@std@@PAV12@@0@PAV?$shared_ptr@VCCandidate@@@0@0UDepositCompare@@@Z ; std::_Partition_by_median_guess_unchecked<std::shared_ptr<CCandidate> *,DepositCompare>

; 8386 : 
; 8387 :         _Ideal = (_Ideal >> 1) + (_Ideal >> 2); // allow 1.5 log2(N) divisions
; 8388 : 
; 8389 :         if (_Mid.first - _First < _Last - _Mid.second) { // loop on second half

  00032	8b 55 fc	 mov	 edx, DWORD PTR __Mid$3[ebp+4]
  00035	8b c7		 mov	 eax, edi
  00037	c1 f8 02	 sar	 eax, 2
  0003a	83 c4 10	 add	 esp, 16			; 00000010H
  0003d	d1 ff		 sar	 edi, 1
  0003f	8b cb		 mov	 ecx, ebx
  00041	03 f8		 add	 edi, eax
  00043	2b ca		 sub	 ecx, edx
  00045	8b 45 f8	 mov	 eax, DWORD PTR __Mid$3[ebp]
  00048	83 e1 f8	 and	 ecx, -8			; fffffff8H
  0004b	ff 75 14	 push	 DWORD PTR __Pred$[ebp]
  0004e	2b c6		 sub	 eax, esi
  00050	83 e0 f8	 and	 eax, -8			; fffffff8H
  00053	57		 push	 edi
  00054	3b c1		 cmp	 eax, ecx
  00056	7d 0f		 jge	 SHORT $LN7@Sort_unche

; 8390 :             _STD _Sort_unchecked(_First, _Mid.first, _Ideal, _Pred);

  00058	8b 45 f8	 mov	 eax, DWORD PTR __Mid$3[ebp]
  0005b	50		 push	 eax
  0005c	56		 push	 esi
  0005d	e8 00 00 00 00	 call	 ??$_Sort_unchecked@PAV?$shared_ptr@VCCandidate@@@std@@UDepositCompare@@@std@@YAXPAV?$shared_ptr@VCCandidate@@@0@0HUDepositCompare@@@Z ; std::_Sort_unchecked<std::shared_ptr<CCandidate> *,DepositCompare>

; 8391 :             _First = _Mid.second;

  00062	8b 75 fc	 mov	 esi, DWORD PTR __Mid$3[ebp+4]

; 8392 :         } else { // loop on first half

  00065	eb 0d		 jmp	 SHORT $LN144@Sort_unche
$LN7@Sort_unche:

; 8393 :             _STD _Sort_unchecked(_Mid.second, _Last, _Ideal, _Pred);

  00067	53		 push	 ebx
  00068	52		 push	 edx
  00069	e8 00 00 00 00	 call	 ??$_Sort_unchecked@PAV?$shared_ptr@VCCandidate@@@std@@UDepositCompare@@@std@@YAXPAV?$shared_ptr@VCCandidate@@@0@0HUDepositCompare@@@Z ; std::_Sort_unchecked<std::shared_ptr<CCandidate> *,DepositCompare>

; 8394 :             _Last = _Mid.first;

  0006e	8b 5d f8	 mov	 ebx, DWORD PTR __Mid$3[ebp]
  00071	89 5d 0c	 mov	 DWORD PTR __Last$[ebp], ebx
$LN144@Sort_unche:

; 8371 :     // order [_First, _Last)
; 8372 :     for (;;) {
; 8373 :         if (_Last - _First <= _ISORT_MAX) { // small

  00074	8b c3		 mov	 eax, ebx
  00076	83 c4 10	 add	 esp, 16			; 00000010H
  00079	2b c6		 sub	 eax, esi
  0007b	83 e0 f8	 and	 eax, -8			; fffffff8H
  0007e	3d 00 01 00 00	 cmp	 eax, 256		; 00000100H
  00083	7f 9b		 jg	 SHORT $LL4@Sort_unche
$LN118@Sort_unche:

; 8374 :             _STD _Insertion_sort_unchecked(_First, _Last, _Pred);

  00085	ff 75 14	 push	 DWORD PTR __Pred$[ebp]
  00088	53		 push	 ebx
  00089	56		 push	 esi
  0008a	e8 00 00 00 00	 call	 ??$_Insertion_sort_unchecked@PAV?$shared_ptr@VCCandidate@@@std@@UDepositCompare@@@std@@YAPAV?$shared_ptr@VCCandidate@@@0@QAV10@0UDepositCompare@@@Z ; std::_Insertion_sort_unchecked<std::shared_ptr<CCandidate> *,DepositCompare>
  0008f	83 c4 0c	 add	 esp, 12			; 0000000cH
$LN41@Sort_unche:

; 8395 :         }
; 8396 :     }
; 8397 : }

  00092	5f		 pop	 edi
  00093	5e		 pop	 esi
  00094	5b		 pop	 ebx
  00095	8b e5		 mov	 esp, ebp
  00097	5d		 pop	 ebp
  00098	c3		 ret	 0
$LN119@Sort_unche:
; File C:\Program Files\Microsoft Visual Studio\2022\Professional\VC\Tools\MSVC\14.44.35207\include\__msvc_heap_algorithms.hpp

; 124  :     _Diff _Bottom = _Last - _First;

  00099	8b d3		 mov	 edx, ebx
  0009b	2b d6		 sub	 edx, esi
  0009d	c1 fa 03	 sar	 edx, 3

; 125  :     for (_Diff _Hole = _Bottom >> 1; _Hole > 0;) { // shift for codegen

  000a0	8b ca		 mov	 ecx, edx
  000a2	89 55 08	 mov	 DWORD PTR __Bottom$1$[ebp], edx
  000a5	d1 f9		 sar	 ecx, 1
  000a7	85 c9		 test	 ecx, ecx
  000a9	7e 71		 jle	 SHORT $LN12@Sort_unche

; 124  :     _Diff _Bottom = _Last - _First;

  000ab	8d 1c cd fc ff
	ff ff		 lea	 ebx, DWORD PTR [ecx*8-4]
  000b2	03 de		 add	 ebx, esi
$LL13@Sort_unche:
; File C:\Program Files\Microsoft Visual Studio\2022\Professional\VC\Tools\MSVC\14.44.35207\include\memory

; 1327 :         _Ptr = _Right._Ptr;

  000b4	8b 43 fc	 mov	 eax, DWORD PTR [ebx-4]
  000b7	89 45 f0	 mov	 DWORD PTR __Val$1[ebp], eax

; 1328 :         _Rep = _Right._Rep;

  000ba	8b 03		 mov	 eax, DWORD PTR [ebx]
  000bc	89 45 f4	 mov	 DWORD PTR __Val$1[ebp+4], eax
; File C:\Program Files\Microsoft Visual Studio\2022\Professional\VC\Tools\MSVC\14.44.35207\include\__msvc_heap_algorithms.hpp

; 129  :         _STD _Pop_heap_hole_by_index(_First, _Hole, _Bottom, _STD move(_Val), _Pred);

  000bf	8d 41 ff	 lea	 eax, DWORD PTR [ecx-1]
; File C:\Program Files\Microsoft Visual Studio\2022\Professional\VC\Tools\MSVC\14.44.35207\include\memory

; 1330 :         _Right._Ptr = nullptr;

  000c2	c7 43 fc 00 00
	00 00		 mov	 DWORD PTR [ebx-4], 0
; File C:\Program Files\Microsoft Visual Studio\2022\Professional\VC\Tools\MSVC\14.44.35207\include\__msvc_heap_algorithms.hpp

; 129  :         _STD _Pop_heap_hole_by_index(_First, _Hole, _Bottom, _STD move(_Val), _Pred);

  000c9	8d 4d f0	 lea	 ecx, DWORD PTR __Val$1[ebp]
; File C:\Program Files\Microsoft Visual Studio\2022\Professional\VC\Tools\MSVC\14.44.35207\include\memory

; 1331 :         _Right._Rep = nullptr;

  000cc	c7 03 00 00 00
	00		 mov	 DWORD PTR [ebx], 0
; File C:\Program Files\Microsoft Visual Studio\2022\Professional\VC\Tools\MSVC\14.44.35207\include\__msvc_heap_algorithms.hpp

; 129  :         _STD _Pop_heap_hole_by_index(_First, _Hole, _Bottom, _STD move(_Val), _Pred);

  000d2	ff 75 14	 push	 DWORD PTR __Pred$[ebp]
  000d5	89 45 fc	 mov	 DWORD PTR __Hole$1$[ebp], eax
  000d8	51		 push	 ecx
  000d9	52		 push	 edx
  000da	50		 push	 eax
  000db	56		 push	 esi
  000dc	e8 00 00 00 00	 call	 ??$_Pop_heap_hole_by_index@PAV?$shared_ptr@VCCandidate@@@std@@V12@UDepositCompare@@@std@@YAXPAV?$shared_ptr@VCCandidate@@@0@HH$$QAV10@UDepositCompare@@@Z ; std::_Pop_heap_hole_by_index<std::shared_ptr<CCandidate> *,std::shared_ptr<CCandidate>,DepositCompare>
; File C:\Program Files\Microsoft Visual Studio\2022\Professional\VC\Tools\MSVC\14.44.35207\include\memory

; 1384 :         if (_Rep) {

  000e1	8b 7d f4	 mov	 edi, DWORD PTR __Val$1[ebp+4]
; File C:\Program Files\Microsoft Visual Studio\2022\Professional\VC\Tools\MSVC\14.44.35207\include\__msvc_heap_algorithms.hpp

; 129  :         _STD _Pop_heap_hole_by_index(_First, _Hole, _Bottom, _STD move(_Val), _Pred);

  000e4	83 c4 14	 add	 esp, 20			; 00000014H
; File C:\Program Files\Microsoft Visual Studio\2022\Professional\VC\Tools\MSVC\14.44.35207\include\memory

; 1384 :         if (_Rep) {

  000e7	85 ff		 test	 edi, edi
  000e9	74 21		 je	 SHORT $LN11@Sort_unche

; 1159 :         if (_MT_DECR(_Uses) == 0) {

  000eb	83 c8 ff	 or	 eax, -1
  000ee	f0 0f c1 47 04	 lock	  xadd	 DWORD PTR [edi+4], eax
  000f3	75 17		 jne	 SHORT $LN11@Sort_unche

; 1160 :             _Destroy();

  000f5	8b 07		 mov	 eax, DWORD PTR [edi]
  000f7	8b cf		 mov	 ecx, edi
  000f9	ff 10		 call	 DWORD PTR [eax]

; 1166 :         if (_MT_DECR(_Weaks) == 0) {

  000fb	83 c8 ff	 or	 eax, -1
  000fe	f0 0f c1 47 08	 lock	  xadd	 DWORD PTR [edi+8], eax
  00103	75 07		 jne	 SHORT $LN11@Sort_unche

; 1167 :             _Delete_this();

  00105	8b 07		 mov	 eax, DWORD PTR [edi]
  00107	8b cf		 mov	 ecx, edi
  00109	ff 50 04	 call	 DWORD PTR [eax+4]
$LN11@Sort_unche:
; File C:\Program Files\Microsoft Visual Studio\2022\Professional\VC\Tools\MSVC\14.44.35207\include\__msvc_heap_algorithms.hpp

; 125  :     for (_Diff _Hole = _Bottom >> 1; _Hole > 0;) { // shift for codegen

  0010c	8b 4d fc	 mov	 ecx, DWORD PTR __Hole$1$[ebp]

; 126  :         // reheap top half, bottom to top
; 127  :         --_Hole;

  0010f	83 eb 08	 sub	 ebx, 8
  00112	8b 55 08	 mov	 edx, DWORD PTR __Bottom$1$[ebp]
  00115	85 c9		 test	 ecx, ecx
  00117	7f 9b		 jg	 SHORT $LL13@Sort_unche
  00119	8b 5d 0c	 mov	 ebx, DWORD PTR __Last$[ebp]
$LN12@Sort_unche:
; File C:\Program Files\Microsoft Visual Studio\2022\Professional\VC\Tools\MSVC\14.44.35207\include\algorithm

; 7149 :     for (; _Last - _First >= 2; --_Last) {

  0011c	83 fa 02	 cmp	 edx, 2
  0011f	0f 8c 6d ff ff
	ff		 jl	 $LN41@Sort_unche

; 8379 :             _STD _Make_heap_unchecked(_First, _Last, _Pred);
; 8380 :             _STD _Sort_heap_unchecked(_First, _Last, _Pred);

  00125	8d 7b f8	 lea	 edi, DWORD PTR [ebx-8]
  00128	0f 1f 84 00 00
	00 00 00	 npad	 8
$LL42@Sort_unche:
; File C:\Program Files\Microsoft Visual Studio\2022\Professional\VC\Tools\MSVC\14.44.35207\include\memory

; 1327 :         _Ptr = _Right._Ptr;

  00130	8b 07		 mov	 eax, DWORD PTR [edi]

; 1330 :         _Right._Ptr = nullptr;

  00132	c7 07 00 00 00
	00		 mov	 DWORD PTR [edi], 0
  00138	89 45 f0	 mov	 DWORD PTR __Val$2[ebp], eax
  0013b	8b 47 04	 mov	 eax, DWORD PTR [edi+4]

; 1331 :         _Right._Rep = nullptr;

  0013e	c7 47 04 00 00
	00 00		 mov	 DWORD PTR [edi+4], 0

; 1328 :         _Rep = _Right._Rep;

  00145	8b 4e 04	 mov	 ecx, DWORD PTR [esi+4]
  00148	89 45 f4	 mov	 DWORD PTR __Val$2[ebp+4], eax

; 1327 :         _Ptr = _Right._Ptr;

  0014b	8b 06		 mov	 eax, DWORD PTR [esi]

; 1330 :         _Right._Ptr = nullptr;

  0014d	c7 06 00 00 00
	00		 mov	 DWORD PTR [esi], 0

; 1331 :         _Right._Rep = nullptr;

  00153	c7 46 04 00 00
	00 00		 mov	 DWORD PTR [esi+4], 0
; File C:\Program Files\Microsoft Visual Studio\2022\Professional\VC\Tools\MSVC\14.44.35207\include\utility

; 140  :     _Left    = _STD move(_Right);

  0015a	8b 5f 04	 mov	 ebx, DWORD PTR [edi+4]
; File C:\Program Files\Microsoft Visual Studio\2022\Professional\VC\Tools\MSVC\14.44.35207\include\__msvc_heap_algorithms.hpp

; 100  :     if (2 <= _Last - _First) {

  0015d	89 7d 0c	 mov	 DWORD PTR tv623[ebp], edi
; File C:\Program Files\Microsoft Visual Studio\2022\Professional\VC\Tools\MSVC\14.44.35207\include\utility

; 141  :     _Right   = _STD move(_Tmp);

  00160	89 07		 mov	 DWORD PTR [edi], eax
  00162	89 4f 04	 mov	 DWORD PTR [edi+4], ecx
  00165	85 db		 test	 ebx, ebx
; File C:\Program Files\Microsoft Visual Studio\2022\Professional\VC\Tools\MSVC\14.44.35207\include\memory

; 1384 :         if (_Rep) {

  00167	74 21		 je	 SHORT $LN96@Sort_unche

; 1159 :         if (_MT_DECR(_Uses) == 0) {

  00169	83 c8 ff	 or	 eax, -1
  0016c	f0 0f c1 43 04	 lock	  xadd	 DWORD PTR [ebx+4], eax
  00171	75 17		 jne	 SHORT $LN96@Sort_unche

; 1160 :             _Destroy();

  00173	8b 03		 mov	 eax, DWORD PTR [ebx]
  00175	8b cb		 mov	 ecx, ebx
  00177	ff 10		 call	 DWORD PTR [eax]

; 1166 :         if (_MT_DECR(_Weaks) == 0) {

  00179	83 c8 ff	 or	 eax, -1
  0017c	f0 0f c1 43 08	 lock	  xadd	 DWORD PTR [ebx+8], eax
  00181	75 07		 jne	 SHORT $LN96@Sort_unche

; 1167 :             _Delete_this();

  00183	8b 03		 mov	 eax, DWORD PTR [ebx]
  00185	8b cb		 mov	 ecx, ebx
  00187	ff 50 04	 call	 DWORD PTR [eax+4]
$LN96@Sort_unche:
; File C:\Program Files\Microsoft Visual Studio\2022\Professional\VC\Tools\MSVC\14.44.35207\include\__msvc_heap_algorithms.hpp

; 93   :     _STD _Pop_heap_hole_by_index(

  0018a	ff 75 14	 push	 DWORD PTR __Pred$[ebp]
  0018d	8d 45 f0	 lea	 eax, DWORD PTR __Val$2[ebp]
  00190	50		 push	 eax
  00191	8b c7		 mov	 eax, edi
  00193	2b c6		 sub	 eax, esi
  00195	c1 f8 03	 sar	 eax, 3
  00198	50		 push	 eax
  00199	6a 00		 push	 0
  0019b	56		 push	 esi
  0019c	e8 00 00 00 00	 call	 ??$_Pop_heap_hole_by_index@PAV?$shared_ptr@VCCandidate@@@std@@V12@UDepositCompare@@@std@@YAXPAV?$shared_ptr@VCCandidate@@@0@HH$$QAV10@UDepositCompare@@@Z ; std::_Pop_heap_hole_by_index<std::shared_ptr<CCandidate> *,std::shared_ptr<CCandidate>,DepositCompare>
; File C:\Program Files\Microsoft Visual Studio\2022\Professional\VC\Tools\MSVC\14.44.35207\include\memory

; 1384 :         if (_Rep) {

  001a1	8b 5d f4	 mov	 ebx, DWORD PTR __Val$2[ebp+4]
; File C:\Program Files\Microsoft Visual Studio\2022\Professional\VC\Tools\MSVC\14.44.35207\include\__msvc_heap_algorithms.hpp

; 93   :     _STD _Pop_heap_hole_by_index(

  001a4	83 c4 14	 add	 esp, 20			; 00000014H
; File C:\Program Files\Microsoft Visual Studio\2022\Professional\VC\Tools\MSVC\14.44.35207\include\memory

; 1384 :         if (_Rep) {

  001a7	85 db		 test	 ebx, ebx
  001a9	74 21		 je	 SHORT $LN40@Sort_unche

; 1159 :         if (_MT_DECR(_Uses) == 0) {

  001ab	83 c8 ff	 or	 eax, -1
  001ae	f0 0f c1 43 04	 lock	  xadd	 DWORD PTR [ebx+4], eax
  001b3	75 17		 jne	 SHORT $LN40@Sort_unche

; 1160 :             _Destroy();

  001b5	8b 03		 mov	 eax, DWORD PTR [ebx]
  001b7	8b cb		 mov	 ecx, ebx
  001b9	ff 10		 call	 DWORD PTR [eax]

; 1166 :         if (_MT_DECR(_Weaks) == 0) {

  001bb	83 c8 ff	 or	 eax, -1
  001be	f0 0f c1 43 08	 lock	  xadd	 DWORD PTR [ebx+8], eax
  001c3	75 07		 jne	 SHORT $LN40@Sort_unche

; 1167 :             _Delete_this();

  001c5	8b 03		 mov	 eax, DWORD PTR [ebx]
  001c7	8b cb		 mov	 ecx, ebx
  001c9	ff 50 04	 call	 DWORD PTR [eax+4]
$LN40@Sort_unche:
; File C:\Program Files\Microsoft Visual Studio\2022\Professional\VC\Tools\MSVC\14.44.35207\include\algorithm

; 7149 :     for (; _Last - _First >= 2; --_Last) {

  001cc	8b 45 0c	 mov	 eax, DWORD PTR tv623[ebp]
  001cf	83 ef 08	 sub	 edi, 8
  001d2	2b c6		 sub	 eax, esi
  001d4	83 e0 f8	 and	 eax, -8			; fffffff8H
  001d7	83 f8 10	 cmp	 eax, 16			; 00000010H
  001da	0f 8d 50 ff ff
	ff		 jge	 $LL42@Sort_unche

; 8395 :         }
; 8396 :     }
; 8397 : }

  001e0	5f		 pop	 edi
  001e1	5e		 pop	 esi
  001e2	5b		 pop	 ebx
  001e3	8b e5		 mov	 esp, ebp
  001e5	5d		 pop	 ebp
  001e6	c3		 ret	 0
??$_Sort_unchecked@PAV?$shared_ptr@VCCandidate@@@std@@UDepositCompare@@@std@@YAXPAV?$shared_ptr@VCCandidate@@@0@0HUDepositCompare@@@Z ENDP ; std::_Sort_unchecked<std::shared_ptr<CCandidate> *,DepositCompare>
_TEXT	ENDS
; Function compile flags: /Ogtp
;	COMDAT ??_G?$_Ref_count@VCCandidate@@@std@@UAEPAXI@Z
_TEXT	SEGMENT
___flags$ = 8						; size = 4
??_G?$_Ref_count@VCCandidate@@@std@@UAEPAXI@Z PROC	; std::_Ref_count<CCandidate>::`scalar deleting destructor', COMDAT
; _this$ = ecx
  00000	55		 push	 ebp
  00001	8b ec		 mov	 ebp, esp
  00003	f6 45 08 01	 test	 BYTE PTR ___flags$[ebp], 1
  00007	56		 push	 esi
  00008	8b f1		 mov	 esi, ecx
  0000a	74 0b		 je	 SHORT $LN5@scalar
  0000c	6a 10		 push	 16			; 00000010H
  0000e	56		 push	 esi
  0000f	e8 00 00 00 00	 call	 ??3@YAXPAXI@Z		; operator delete
  00014	83 c4 08	 add	 esp, 8
$LN5@scalar:
  00017	8b c6		 mov	 eax, esi
  00019	5e		 pop	 esi
  0001a	5d		 pop	 ebp
  0001b	c2 04 00	 ret	 4
??_G?$_Ref_count@VCCandidate@@@std@@UAEPAXI@Z ENDP	; std::_Ref_count<CCandidate>::`scalar deleting destructor'
_TEXT	ENDS
; Function compile flags: /Ogtp
; File C:\Program Files\Microsoft Visual Studio\2022\Professional\VC\Tools\MSVC\14.44.35207\include\memory
;	COMDAT ?_Delete_this@?$_Ref_count@VCCandidate@@@std@@EAEXXZ
_TEXT	SEGMENT
?_Delete_this@?$_Ref_count@VCCandidate@@@std@@EAEXXZ PROC ; std::_Ref_count<CCandidate>::_Delete_this, COMDAT
; _this$ = ecx

; 1191 :         delete this;

  00000	85 c9		 test	 ecx, ecx
  00002	74 07		 je	 SHORT $LN3@Delete_thi
  00004	8b 01		 mov	 eax, DWORD PTR [ecx]
  00006	6a 01		 push	 1
  00008	ff 50 08	 call	 DWORD PTR [eax+8]
$LN3@Delete_thi:

; 1192 :     }

  0000b	c3		 ret	 0
?_Delete_this@?$_Ref_count@VCCandidate@@@std@@EAEXXZ ENDP ; std::_Ref_count<CCandidate>::_Delete_this
_TEXT	ENDS
; Function compile flags: /Ogtp
; File C:\Program Files\Microsoft Visual Studio\2022\Professional\VC\Tools\MSVC\14.44.35207\include\memory
;	COMDAT ?_Destroy@?$_Ref_count@VCCandidate@@@std@@EAEXXZ
_TEXT	SEGMENT
?_Destroy@?$_Ref_count@VCCandidate@@@std@@EAEXXZ PROC	; std::_Ref_count<CCandidate>::_Destroy, COMDAT
; _this$ = ecx

; 1187 :         delete _Ptr;

  00000	8b 41 0c	 mov	 eax, DWORD PTR [ecx+12]
  00003	85 c0		 test	 eax, eax
  00005	74 0e		 je	 SHORT $LN7@Destroy
  00007	68 18 01 00 00	 push	 280			; 00000118H
  0000c	50		 push	 eax
  0000d	e8 00 00 00 00	 call	 ??3@YAXPAXI@Z		; operator delete
  00012	83 c4 08	 add	 esp, 8
$LN7@Destroy:

; 1188 :     }

  00015	c3		 ret	 0
?_Destroy@?$_Ref_count@VCCandidate@@@std@@EAEXXZ ENDP	; std::_Ref_count<CCandidate>::_Destroy
_TEXT	ENDS
; Function compile flags: /Ogtp
; File C:\Program Files\Microsoft Visual Studio\2022\Professional\VC\Tools\MSVC\14.44.35207\include\memory
;	COMDAT ??1?$_Temporary_owner@VCCandidate@@@std@@QAE@XZ
_TEXT	SEGMENT
??1?$_Temporary_owner@VCCandidate@@@std@@QAE@XZ PROC	; std::_Temporary_owner<CCandidate>::~_Temporary_owner<CCandidate>, COMDAT
; _this$ = ecx

; 1530 :         delete _Ptr;

  00000	8b 01		 mov	 eax, DWORD PTR [ecx]
  00002	85 c0		 test	 eax, eax
  00004	74 0e		 je	 SHORT $LN7@Temporary_
  00006	68 18 01 00 00	 push	 280			; 00000118H
  0000b	50		 push	 eax
  0000c	e8 00 00 00 00	 call	 ??3@YAXPAXI@Z		; operator delete
  00011	83 c4 08	 add	 esp, 8
$LN7@Temporary_:

; 1531 :     }

  00014	c3		 ret	 0
??1?$_Temporary_owner@VCCandidate@@@std@@QAE@XZ ENDP	; std::_Temporary_owner<CCandidate>::~_Temporary_owner<CCandidate>
_TEXT	ENDS
; Function compile flags: /Ogtp
; File C:\IAGOS\server\v18\Source\Source\_Network\Misc\Include\Ar.h
;	COMDAT ??$?5I@CAr@@QAEAAV0@AAI@Z
_TEXT	SEGMENT
_t$ = 8							; size = 4
??$?5I@CAr@@QAEAAV0@AAI@Z PROC				; CAr::operator>><unsigned int>, COMDAT
; _this$ = ecx

; 302  : {

  00000	55		 push	 ebp
  00001	8b ec		 mov	 ebp, esp
  00003	8b d1		 mov	 edx, ecx

; 303  : 	if (m_lpBufCur + sizeof(T) <= m_lpBufMax)

  00005	8b 4a 08	 mov	 ecx, DWORD PTR [edx+8]
  00008	8d 41 04	 lea	 eax, DWORD PTR [ecx+4]
  0000b	3b 42 0c	 cmp	 eax, DWORD PTR [edx+12]
  0000e	8b 45 08	 mov	 eax, DWORD PTR _t$[ebp]
  00011	77 0e		 ja	 SHORT $LN2@operator

; 304  : 	{
; 305  : 		t = *(UNALIGNED T*)m_lpBufCur;

  00013	8b 09		 mov	 ecx, DWORD PTR [ecx]
  00015	89 08		 mov	 DWORD PTR [eax], ecx

; 312  : 	}
; 313  : 	return *this;
; 314  : }

  00017	8b c2		 mov	 eax, edx
  00019	83 42 08 04	 add	 DWORD PTR [edx+8], 4
  0001d	5d		 pop	 ebp
  0001e	c2 04 00	 ret	 4
$LN2@operator:

; 306  : 		m_lpBufCur += sizeof(T);
; 307  : 	}
; 308  : 	else
; 309  : 	{
; 310  : 		t = T();

  00021	c7 00 00 00 00
	00		 mov	 DWORD PTR [eax], 0

; 311  : 		m_lpBufCur = m_lpBufMax;

  00027	8b 42 0c	 mov	 eax, DWORD PTR [edx+12]
  0002a	89 42 08	 mov	 DWORD PTR [edx+8], eax

; 312  : 	}
; 313  : 	return *this;
; 314  : }

  0002d	8b c2		 mov	 eax, edx
  0002f	5d		 pop	 ebp
  00030	c2 04 00	 ret	 4
??$?5I@CAr@@QAEAAV0@AAI@Z ENDP				; CAr::operator>><unsigned int>
_TEXT	ENDS
; Function compile flags: /Ogtp
; File C:\IAGOS\server\v18\Source\Source\_Network\Misc\Include\Ar.h
;	COMDAT ??$?5M@CAr@@QAEAAV0@AAM@Z
_TEXT	SEGMENT
_t$ = 8							; size = 4
??$?5M@CAr@@QAEAAV0@AAM@Z PROC				; CAr::operator>><float>, COMDAT
; _this$ = ecx

; 302  : {

  00000	55		 push	 ebp
  00001	8b ec		 mov	 ebp, esp
  00003	8b d1		 mov	 edx, ecx

; 303  : 	if (m_lpBufCur + sizeof(T) <= m_lpBufMax)

  00005	8b 4a 08	 mov	 ecx, DWORD PTR [edx+8]
  00008	8d 41 04	 lea	 eax, DWORD PTR [ecx+4]
  0000b	3b 42 0c	 cmp	 eax, DWORD PTR [edx+12]
  0000e	8b 45 08	 mov	 eax, DWORD PTR _t$[ebp]
  00011	77 0e		 ja	 SHORT $LN2@operator

; 304  : 	{
; 305  : 		t = *(UNALIGNED T*)m_lpBufCur;

  00013	8b 09		 mov	 ecx, DWORD PTR [ecx]
  00015	89 08		 mov	 DWORD PTR [eax], ecx

; 312  : 	}
; 313  : 	return *this;
; 314  : }

  00017	8b c2		 mov	 eax, edx
  00019	83 42 08 04	 add	 DWORD PTR [edx+8], 4
  0001d	5d		 pop	 ebp
  0001e	c2 04 00	 ret	 4
$LN2@operator:

; 306  : 		m_lpBufCur += sizeof(T);
; 307  : 	}
; 308  : 	else
; 309  : 	{
; 310  : 		t = T();

  00021	c7 00 00 00 00
	00		 mov	 DWORD PTR [eax], 0

; 311  : 		m_lpBufCur = m_lpBufMax;

  00027	8b 42 0c	 mov	 eax, DWORD PTR [edx+12]
  0002a	89 42 08	 mov	 DWORD PTR [edx+8], eax

; 312  : 	}
; 313  : 	return *this;
; 314  : }

  0002d	8b c2		 mov	 eax, edx
  0002f	5d		 pop	 ebp
  00030	c2 04 00	 ret	 4
??$?5M@CAr@@QAEAAV0@AAM@Z ENDP				; CAr::operator>><float>
_TEXT	ENDS
; Function compile flags: /Ogtp
; File C:\IAGOS\server\v18\Source\Source\_Network\Misc\Include\Ar.h
;	COMDAT ??$?6I@CAr@@QAEAAV0@ABI@Z
_TEXT	SEGMENT
_t$ = 8							; size = 4
??$?6I@CAr@@QAEAAV0@ABI@Z PROC				; CAr::operator<<<unsigned int>, COMDAT
; _this$ = ecx

; 255  : {

  00000	55		 push	 ebp
  00001	8b ec		 mov	 ebp, esp
  00003	56		 push	 esi

; 256  : 	CheckBuf(sizeof(T));

  00004	6a 04		 push	 4
  00006	8b f1		 mov	 esi, ecx
  00008	e8 00 00 00 00	 call	 ?CheckBuf@CAr@@QAEXI@Z	; CAr::CheckBuf

; 257  : 	*(UNALIGNED T*)m_lpBufCur = t;

  0000d	8b 56 08	 mov	 edx, DWORD PTR [esi+8]
  00010	8b 45 08	 mov	 eax, DWORD PTR _t$[ebp]
  00013	8b 00		 mov	 eax, DWORD PTR [eax]
  00015	89 02		 mov	 DWORD PTR [edx], eax

; 258  : 	m_lpBufCur += sizeof(T);
; 259  : 	return *this;

  00017	8b c6		 mov	 eax, esi
  00019	83 46 08 04	 add	 DWORD PTR [esi+8], 4
  0001d	5e		 pop	 esi

; 260  : }

  0001e	5d		 pop	 ebp
  0001f	c2 04 00	 ret	 4
??$?6I@CAr@@QAEAAV0@ABI@Z ENDP				; CAr::operator<<<unsigned int>
_TEXT	ENDS
; Function compile flags: /Ogtp
; File C:\IAGOS\server\v18\Source\Source\_Network\Misc\Include\Ar.h
;	COMDAT ??$?6M@CAr@@QAEAAV0@ABM@Z
_TEXT	SEGMENT
_t$ = 8							; size = 4
??$?6M@CAr@@QAEAAV0@ABM@Z PROC				; CAr::operator<<<float>, COMDAT
; _this$ = ecx

; 255  : {

  00000	55		 push	 ebp
  00001	8b ec		 mov	 ebp, esp
  00003	56		 push	 esi

; 256  : 	CheckBuf(sizeof(T));

  00004	6a 04		 push	 4
  00006	8b f1		 mov	 esi, ecx
  00008	e8 00 00 00 00	 call	 ?CheckBuf@CAr@@QAEXI@Z	; CAr::CheckBuf

; 257  : 	*(UNALIGNED T*)m_lpBufCur = t;

  0000d	8b 56 08	 mov	 edx, DWORD PTR [esi+8]
  00010	8b 45 08	 mov	 eax, DWORD PTR _t$[ebp]
  00013	8b 00		 mov	 eax, DWORD PTR [eax]
  00015	89 02		 mov	 DWORD PTR [edx], eax

; 258  : 	m_lpBufCur += sizeof(T);
; 259  : 	return *this;

  00017	8b c6		 mov	 eax, esi
  00019	83 46 08 04	 add	 DWORD PTR [esi+8], 4
  0001d	5e		 pop	 esi

; 260  : }

  0001e	5d		 pop	 ebp
  0001f	c2 04 00	 ret	 4
??$?6M@CAr@@QAEAAV0@ABM@Z ENDP				; CAr::operator<<<float>
_TEXT	ENDS
; Function compile flags: /Ogtp
; File C:\IAGOS\server\v18\Source\Source\_Network\Misc\Include\Ar.h
;	COMDAT ??$?5J@CAr@@QAEAAV0@AAJ@Z
_TEXT	SEGMENT
_t$ = 8							; size = 4
??$?5J@CAr@@QAEAAV0@AAJ@Z PROC				; CAr::operator>><long>, COMDAT
; _this$ = ecx

; 302  : {

  00000	55		 push	 ebp
  00001	8b ec		 mov	 ebp, esp
  00003	8b d1		 mov	 edx, ecx

; 303  : 	if (m_lpBufCur + sizeof(T) <= m_lpBufMax)

  00005	8b 4a 08	 mov	 ecx, DWORD PTR [edx+8]
  00008	8d 41 04	 lea	 eax, DWORD PTR [ecx+4]
  0000b	3b 42 0c	 cmp	 eax, DWORD PTR [edx+12]
  0000e	8b 45 08	 mov	 eax, DWORD PTR _t$[ebp]
  00011	77 0e		 ja	 SHORT $LN2@operator

; 304  : 	{
; 305  : 		t = *(UNALIGNED T*)m_lpBufCur;

  00013	8b 09		 mov	 ecx, DWORD PTR [ecx]
  00015	89 08		 mov	 DWORD PTR [eax], ecx

; 312  : 	}
; 313  : 	return *this;
; 314  : }

  00017	8b c2		 mov	 eax, edx
  00019	83 42 08 04	 add	 DWORD PTR [edx+8], 4
  0001d	5d		 pop	 ebp
  0001e	c2 04 00	 ret	 4
$LN2@operator:

; 306  : 		m_lpBufCur += sizeof(T);
; 307  : 	}
; 308  : 	else
; 309  : 	{
; 310  : 		t = T();

  00021	c7 00 00 00 00
	00		 mov	 DWORD PTR [eax], 0

; 311  : 		m_lpBufCur = m_lpBufMax;

  00027	8b 42 0c	 mov	 eax, DWORD PTR [edx+12]
  0002a	89 42 08	 mov	 DWORD PTR [edx+8], eax

; 312  : 	}
; 313  : 	return *this;
; 314  : }

  0002d	8b c2		 mov	 eax, edx
  0002f	5d		 pop	 ebp
  00030	c2 04 00	 ret	 4
??$?5J@CAr@@QAEAAV0@AAJ@Z ENDP				; CAr::operator>><long>
_TEXT	ENDS
; Function compile flags: /Ogtp
; File C:\IAGOS\server\v18\Source\Source\_Network\Misc\Include\Ar.h
;	COMDAT ??$?5_J@CAr@@QAEAAV0@AA_J@Z
_TEXT	SEGMENT
_t$ = 8							; size = 4
??$?5_J@CAr@@QAEAAV0@AA_J@Z PROC			; CAr::operator>><__int64>, COMDAT
; _this$ = ecx

; 302  : {

  00000	55		 push	 ebp
  00001	8b ec		 mov	 ebp, esp
  00003	56		 push	 esi
  00004	8b f1		 mov	 esi, ecx

; 303  : 	if (m_lpBufCur + sizeof(T) <= m_lpBufMax)

  00006	8b 56 08	 mov	 edx, DWORD PTR [esi+8]
  00009	8d 42 08	 lea	 eax, DWORD PTR [edx+8]
  0000c	3b 46 0c	 cmp	 eax, DWORD PTR [esi+12]
  0000f	8b 45 08	 mov	 eax, DWORD PTR _t$[ebp]
  00012	77 15		 ja	 SHORT $LN2@operator

; 304  : 	{
; 305  : 		t = *(UNALIGNED T*)m_lpBufCur;

  00014	8b 0a		 mov	 ecx, DWORD PTR [edx]
  00016	8b 52 04	 mov	 edx, DWORD PTR [edx+4]
  00019	89 08		 mov	 DWORD PTR [eax], ecx
  0001b	89 50 04	 mov	 DWORD PTR [eax+4], edx

; 312  : 	}
; 313  : 	return *this;
; 314  : }

  0001e	8b c6		 mov	 eax, esi
  00020	83 46 08 08	 add	 DWORD PTR [esi+8], 8
  00024	5e		 pop	 esi
  00025	5d		 pop	 ebp
  00026	c2 04 00	 ret	 4
$LN2@operator:

; 306  : 		m_lpBufCur += sizeof(T);
; 307  : 	}
; 308  : 	else
; 309  : 	{
; 310  : 		t = T();

  00029	c7 00 00 00 00
	00		 mov	 DWORD PTR [eax], 0
  0002f	c7 40 04 00 00
	00 00		 mov	 DWORD PTR [eax+4], 0

; 311  : 		m_lpBufCur = m_lpBufMax;

  00036	8b 46 0c	 mov	 eax, DWORD PTR [esi+12]
  00039	89 46 08	 mov	 DWORD PTR [esi+8], eax

; 312  : 	}
; 313  : 	return *this;
; 314  : }

  0003c	8b c6		 mov	 eax, esi
  0003e	5e		 pop	 esi
  0003f	5d		 pop	 ebp
  00040	c2 04 00	 ret	 4
??$?5_J@CAr@@QAEAAV0@AA_J@Z ENDP			; CAr::operator>><__int64>
_TEXT	ENDS
; Function compile flags: /Ogtp
; File C:\IAGOS\server\v18\Source\Source\_Network\Misc\Include\Ar.h
;	COMDAT ??$?5K@CAr@@QAEAAV0@AAK@Z
_TEXT	SEGMENT
_t$ = 8							; size = 4
??$?5K@CAr@@QAEAAV0@AAK@Z PROC				; CAr::operator>><unsigned long>, COMDAT
; _this$ = ecx

; 302  : {

  00000	55		 push	 ebp
  00001	8b ec		 mov	 ebp, esp
  00003	8b d1		 mov	 edx, ecx

; 303  : 	if (m_lpBufCur + sizeof(T) <= m_lpBufMax)

  00005	8b 4a 08	 mov	 ecx, DWORD PTR [edx+8]
  00008	8d 41 04	 lea	 eax, DWORD PTR [ecx+4]
  0000b	3b 42 0c	 cmp	 eax, DWORD PTR [edx+12]
  0000e	8b 45 08	 mov	 eax, DWORD PTR _t$[ebp]
  00011	77 0e		 ja	 SHORT $LN2@operator

; 304  : 	{
; 305  : 		t = *(UNALIGNED T*)m_lpBufCur;

  00013	8b 09		 mov	 ecx, DWORD PTR [ecx]
  00015	89 08		 mov	 DWORD PTR [eax], ecx

; 312  : 	}
; 313  : 	return *this;
; 314  : }

  00017	8b c2		 mov	 eax, edx
  00019	83 42 08 04	 add	 DWORD PTR [edx+8], 4
  0001d	5d		 pop	 ebp
  0001e	c2 04 00	 ret	 4
$LN2@operator:

; 306  : 		m_lpBufCur += sizeof(T);
; 307  : 	}
; 308  : 	else
; 309  : 	{
; 310  : 		t = T();

  00021	c7 00 00 00 00
	00		 mov	 DWORD PTR [eax], 0

; 311  : 		m_lpBufCur = m_lpBufMax;

  00027	8b 42 0c	 mov	 eax, DWORD PTR [edx+12]
  0002a	89 42 08	 mov	 DWORD PTR [edx+8], eax

; 312  : 	}
; 313  : 	return *this;
; 314  : }

  0002d	8b c2		 mov	 eax, edx
  0002f	5d		 pop	 ebp
  00030	c2 04 00	 ret	 4
??$?5K@CAr@@QAEAAV0@AAK@Z ENDP				; CAr::operator>><unsigned long>
_TEXT	ENDS
; Function compile flags: /Ogtp
; File C:\IAGOS\server\v18\Source\Source\_Network\Misc\Include\Ar.h
;	COMDAT ??$?6J@CAr@@QAEAAV0@ABJ@Z
_TEXT	SEGMENT
_t$ = 8							; size = 4
??$?6J@CAr@@QAEAAV0@ABJ@Z PROC				; CAr::operator<<<long>, COMDAT
; _this$ = ecx

; 255  : {

  00000	55		 push	 ebp
  00001	8b ec		 mov	 ebp, esp
  00003	56		 push	 esi

; 256  : 	CheckBuf(sizeof(T));

  00004	6a 04		 push	 4
  00006	8b f1		 mov	 esi, ecx
  00008	e8 00 00 00 00	 call	 ?CheckBuf@CAr@@QAEXI@Z	; CAr::CheckBuf

; 257  : 	*(UNALIGNED T*)m_lpBufCur = t;

  0000d	8b 56 08	 mov	 edx, DWORD PTR [esi+8]
  00010	8b 45 08	 mov	 eax, DWORD PTR _t$[ebp]
  00013	8b 00		 mov	 eax, DWORD PTR [eax]
  00015	89 02		 mov	 DWORD PTR [edx], eax

; 258  : 	m_lpBufCur += sizeof(T);
; 259  : 	return *this;

  00017	8b c6		 mov	 eax, esi
  00019	83 46 08 04	 add	 DWORD PTR [esi+8], 4
  0001d	5e		 pop	 esi

; 260  : }

  0001e	5d		 pop	 ebp
  0001f	c2 04 00	 ret	 4
??$?6J@CAr@@QAEAAV0@ABJ@Z ENDP				; CAr::operator<<<long>
_TEXT	ENDS
; Function compile flags: /Ogtp
; File C:\IAGOS\server\v18\Source\Source\_Network\Misc\Include\Ar.h
;	COMDAT ??$?6_J@CAr@@QAEAAV0@AB_J@Z
_TEXT	SEGMENT
_t$ = 8							; size = 4
??$?6_J@CAr@@QAEAAV0@AB_J@Z PROC			; CAr::operator<<<__int64>, COMDAT
; _this$ = ecx

; 255  : {

  00000	55		 push	 ebp
  00001	8b ec		 mov	 ebp, esp
  00003	56		 push	 esi
  00004	57		 push	 edi

; 256  : 	CheckBuf(sizeof(T));

  00005	6a 08		 push	 8
  00007	8b f9		 mov	 edi, ecx
  00009	e8 00 00 00 00	 call	 ?CheckBuf@CAr@@QAEXI@Z	; CAr::CheckBuf

; 257  : 	*(UNALIGNED T*)m_lpBufCur = t;

  0000e	8b 45 08	 mov	 eax, DWORD PTR _t$[ebp]
  00011	8b 70 04	 mov	 esi, DWORD PTR [eax+4]
  00014	8b 10		 mov	 edx, DWORD PTR [eax]
  00016	8b 47 08	 mov	 eax, DWORD PTR [edi+8]
  00019	89 10		 mov	 DWORD PTR [eax], edx
  0001b	89 70 04	 mov	 DWORD PTR [eax+4], esi

; 258  : 	m_lpBufCur += sizeof(T);
; 259  : 	return *this;

  0001e	8b c7		 mov	 eax, edi
  00020	83 47 08 08	 add	 DWORD PTR [edi+8], 8
  00024	5f		 pop	 edi
  00025	5e		 pop	 esi

; 260  : }

  00026	5d		 pop	 ebp
  00027	c2 04 00	 ret	 4
??$?6_J@CAr@@QAEAAV0@AB_J@Z ENDP			; CAr::operator<<<__int64>
_TEXT	ENDS
; Function compile flags: /Ogtp
; File C:\IAGOS\server\v18\Source\Source\_Network\Misc\Include\Ar.h
;	COMDAT ??$?6K@CAr@@QAEAAV0@ABK@Z
_TEXT	SEGMENT
_t$ = 8							; size = 4
??$?6K@CAr@@QAEAAV0@ABK@Z PROC				; CAr::operator<<<unsigned long>, COMDAT
; _this$ = ecx

; 255  : {

  00000	55		 push	 ebp
  00001	8b ec		 mov	 ebp, esp
  00003	56		 push	 esi

; 256  : 	CheckBuf(sizeof(T));

  00004	6a 04		 push	 4
  00006	8b f1		 mov	 esi, ecx
  00008	e8 00 00 00 00	 call	 ?CheckBuf@CAr@@QAEXI@Z	; CAr::CheckBuf

; 257  : 	*(UNALIGNED T*)m_lpBufCur = t;

  0000d	8b 56 08	 mov	 edx, DWORD PTR [esi+8]
  00010	8b 45 08	 mov	 eax, DWORD PTR _t$[ebp]
  00013	8b 00		 mov	 eax, DWORD PTR [eax]
  00015	89 02		 mov	 DWORD PTR [edx], eax

; 258  : 	m_lpBufCur += sizeof(T);
; 259  : 	return *this;

  00017	8b c6		 mov	 eax, esi
  00019	83 46 08 04	 add	 DWORD PTR [esi+8], 4
  0001d	5e		 pop	 esi

; 260  : }

  0001e	5d		 pop	 ebp
  0001f	c2 04 00	 ret	 4
??$?6K@CAr@@QAEAAV0@ABK@Z ENDP				; CAr::operator<<<unsigned long>
_TEXT	ENDS
; Function compile flags: /Ogtp
; File C:\IAGOS\server\v18\Source\Source\_Common\lord.cpp
; File C:\Program Files (x86)\Windows Kits\10\Include\10.0.26100.0\ucrt\stdio.h
; File C:\IAGOS\server\v18\Source\Source\_Common\lord.cpp
;	COMDAT ?OutputDebugStringA@election@@YAXPBDZZ
_TEXT	SEGMENT
_lpString$ = -1028					; size = 1024
__$ArrayPad$ = -4					; size = 4
_lpszFormat$ = 8					; size = 4
?OutputDebugStringA@election@@YAXPBDZZ PROC		; election::OutputDebugStringA, COMDAT

; 647  : 	{

  00000	55		 push	 ebp
  00001	8b ec		 mov	 ebp, esp
  00003	81 ec 04 04 00
	00		 sub	 esp, 1028		; 00000404H
  00009	a1 00 00 00 00	 mov	 eax, DWORD PTR ___security_cookie
  0000e	33 c5		 xor	 eax, ebp
  00010	89 45 fc	 mov	 DWORD PTR __$ArrayPad$[ebp], eax

; 648  : 		char lpString[1024]		= { 0,};

  00013	68 00 04 00 00	 push	 1024			; 00000400H
  00018	8d 85 fc fb ff
	ff		 lea	 eax, DWORD PTR _lpString$[ebp]
  0001e	6a 00		 push	 0
  00020	50		 push	 eax
  00021	e8 00 00 00 00	 call	 _memset
  00026	83 c4 0c	 add	 esp, 12			; 0000000cH
; File C:\Program Files (x86)\Windows Kits\10\Include\10.0.26100.0\ucrt\stdio.h

; 1392 :         int const _Result = __stdio_common_vsprintf(

  00029	8d 45 0c	 lea	 eax, DWORD PTR _lpszFormat$[ebp+4]
  0002c	50		 push	 eax
  0002d	6a 00		 push	 0
  0002f	ff 75 08	 push	 DWORD PTR _lpszFormat$[ebp]
  00032	8d 85 fc fb ff
	ff		 lea	 eax, DWORD PTR _lpString$[ebp]
  00038	68 00 04 00 00	 push	 1024			; 00000400H
  0003d	50		 push	 eax
  0003e	e8 00 00 00 00	 call	 ___local_stdio_printf_options
  00043	8b 08		 mov	 ecx, DWORD PTR [eax]
  00045	ff 70 04	 push	 DWORD PTR [eax+4]
  00048	83 c9 01	 or	 ecx, 1
  0004b	51		 push	 ecx
  0004c	e8 00 00 00 00	 call	 ___stdio_common_vsprintf

; 1393 :             _CRT_INTERNAL_LOCAL_PRINTF_OPTIONS | _CRT_INTERNAL_PRINTF_LEGACY_VSPRINTF_NULL_TERMINATION,
; 1394 :             _Buffer, _BufferCount, _Format, _Locale, _ArgList);
; 1395 : 
; 1396 :         return _Result < 0 ? -1 : _Result;

  00051	83 c9 ff	 or	 ecx, -1
  00054	83 c4 1c	 add	 esp, 28			; 0000001cH
  00057	85 c0		 test	 eax, eax
  00059	0f 48 c1	 cmovs	 eax, ecx
; File C:\IAGOS\server\v18\Source\Source\_Common\lord.cpp

; 653  : 		if( n > 0 )

  0005c	85 c0		 test	 eax, eax
  0005e	7e 0d		 jle	 SHORT $LN2@OutputDebu

; 654  : 			::OutputDebugString( lpString );

  00060	8d 85 fc fb ff
	ff		 lea	 eax, DWORD PTR _lpString$[ebp]
  00066	50		 push	 eax
  00067	ff 15 00 00 00
	00		 call	 DWORD PTR __imp__OutputDebugStringA@4
$LN2@OutputDebu:

; 655  : 	}

  0006d	8b 4d fc	 mov	 ecx, DWORD PTR __$ArrayPad$[ebp]
  00070	33 cd		 xor	 ecx, ebp
  00072	e8 00 00 00 00	 call	 @__security_check_cookie@4
  00077	8b e5		 mov	 esp, ebp
  00079	5d		 pop	 ebp
  0007a	c3		 ret	 0
?OutputDebugStringA@election@@YAXPBDZZ ENDP		; election::OutputDebugStringA
_TEXT	ENDS
; Function compile flags: /Ogtp
; File C:\IAGOS\server\v18\Source\Source\_Network\Misc\Include\Ar.h
;	COMDAT ??$?5H@CAr@@QAEAAV0@AAH@Z
_TEXT	SEGMENT
_t$ = 8							; size = 4
??$?5H@CAr@@QAEAAV0@AAH@Z PROC				; CAr::operator>><int>, COMDAT
; _this$ = ecx

; 302  : {

  00000	55		 push	 ebp
  00001	8b ec		 mov	 ebp, esp
  00003	8b d1		 mov	 edx, ecx

; 303  : 	if (m_lpBufCur + sizeof(T) <= m_lpBufMax)

  00005	8b 4a 08	 mov	 ecx, DWORD PTR [edx+8]
  00008	8d 41 04	 lea	 eax, DWORD PTR [ecx+4]
  0000b	3b 42 0c	 cmp	 eax, DWORD PTR [edx+12]
  0000e	8b 45 08	 mov	 eax, DWORD PTR _t$[ebp]
  00011	77 0e		 ja	 SHORT $LN2@operator

; 304  : 	{
; 305  : 		t = *(UNALIGNED T*)m_lpBufCur;

  00013	8b 09		 mov	 ecx, DWORD PTR [ecx]
  00015	89 08		 mov	 DWORD PTR [eax], ecx

; 312  : 	}
; 313  : 	return *this;
; 314  : }

  00017	8b c2		 mov	 eax, edx
  00019	83 42 08 04	 add	 DWORD PTR [edx+8], 4
  0001d	5d		 pop	 ebp
  0001e	c2 04 00	 ret	 4
$LN2@operator:

; 306  : 		m_lpBufCur += sizeof(T);
; 307  : 	}
; 308  : 	else
; 309  : 	{
; 310  : 		t = T();

  00021	c7 00 00 00 00
	00		 mov	 DWORD PTR [eax], 0

; 311  : 		m_lpBufCur = m_lpBufMax;

  00027	8b 42 0c	 mov	 eax, DWORD PTR [edx+12]
  0002a	89 42 08	 mov	 DWORD PTR [edx+8], eax

; 312  : 	}
; 313  : 	return *this;
; 314  : }

  0002d	8b c2		 mov	 eax, edx
  0002f	5d		 pop	 ebp
  00030	c2 04 00	 ret	 4
??$?5H@CAr@@QAEAAV0@AAH@Z ENDP				; CAr::operator>><int>
_TEXT	ENDS
; Function compile flags: /Ogtp
; File C:\IAGOS\server\v18\Source\Source\_Network\Misc\Include\Ar.h
;	COMDAT ??$?6H@CAr@@QAEAAV0@ABH@Z
_TEXT	SEGMENT
_t$ = 8							; size = 4
??$?6H@CAr@@QAEAAV0@ABH@Z PROC				; CAr::operator<<<int>, COMDAT
; _this$ = ecx

; 255  : {

  00000	55		 push	 ebp
  00001	8b ec		 mov	 ebp, esp
  00003	56		 push	 esi

; 256  : 	CheckBuf(sizeof(T));

  00004	6a 04		 push	 4
  00006	8b f1		 mov	 esi, ecx
  00008	e8 00 00 00 00	 call	 ?CheckBuf@CAr@@QAEXI@Z	; CAr::CheckBuf

; 257  : 	*(UNALIGNED T*)m_lpBufCur = t;

  0000d	8b 56 08	 mov	 edx, DWORD PTR [esi+8]
  00010	8b 45 08	 mov	 eax, DWORD PTR _t$[ebp]
  00013	8b 00		 mov	 eax, DWORD PTR [eax]
  00015	89 02		 mov	 DWORD PTR [edx], eax

; 258  : 	m_lpBufCur += sizeof(T);
; 259  : 	return *this;

  00017	8b c6		 mov	 eax, esi
  00019	83 46 08 04	 add	 DWORD PTR [esi+8], 4
  0001d	5e		 pop	 esi

; 260  : }

  0001e	5d		 pop	 ebp
  0001f	c2 04 00	 ret	 4
??$?6H@CAr@@QAEAAV0@ABH@Z ENDP				; CAr::operator<<<int>
_TEXT	ENDS
; Function compile flags: /Ogtp
; File C:\IAGOS\server\v18\Source\Source\_Common\lord.cpp
;	COMDAT ??0CLord@@IAE@XZ
_TEXT	SEGMENT
??0CLord@@IAE@XZ PROC					; CLord::CLord, COMDAT
; _this$ = ecx

; 351  : {

  00000	c7 01 00 00 00
	00		 mov	 DWORD PTR [ecx], OFFSET ??_7CLord@@6B@

; 352  : }

  00006	8b c1		 mov	 eax, ecx
  00008	c7 41 04 ff ff
	ff ff		 mov	 DWORD PTR [ecx+4], -1
  0000f	c7 41 08 00 00
	00 00		 mov	 DWORD PTR [ecx+8], 0
  00016	c7 41 0c 00 00
	00 00		 mov	 DWORD PTR [ecx+12], 0
  0001d	c7 41 10 00 00
	00 00		 mov	 DWORD PTR [ecx+16], 0
  00024	c3		 ret	 0
??0CLord@@IAE@XZ ENDP					; CLord::CLord
_TEXT	ENDS
; Function compile flags: /Ogtp
; File C:\IAGOS\server\v18\Source\Source\_Common\lord.h
;	COMDAT ?GetController@CLord@@UAEPAVCLController@@XZ
_TEXT	SEGMENT
?GetController@CLord@@UAEPAVCLController@@XZ PROC	; CLord::GetController, COMDAT
; _this$ = ecx

; 266  : 	virtual	CLController*	GetController( void )	{	return NULL;	}

  00000	33 c0		 xor	 eax, eax
  00002	c3		 ret	 0
?GetController@CLord@@UAEPAVCLController@@XZ ENDP	; CLord::GetController
_TEXT	ENDS
; Function compile flags: /Ogtp
; File C:\IAGOS\server\v18\Source\Source\_Common\lord.cpp
; File C:\IAGOS\server\v18\Source\Source\_Network\Misc\Include\Ar.h
; File C:\IAGOS\server\v18\Source\Source\_Common\lord.cpp
; File C:\IAGOS\server\v18\Source\Source\_Network\Misc\Include\Ar.h
; File C:\IAGOS\server\v18\Source\Source\_Common\lord.cpp
;	COMDAT ?Serialize@CLord@@QAEXAAVCAr@@@Z
_TEXT	SEGMENT
_ar$ = 8						; size = 4
?Serialize@CLord@@QAEXAAVCAr@@@Z PROC			; CLord::Serialize, COMDAT
; _this$ = ecx

; 362  : {

  00000	55		 push	 ebp
  00001	8b ec		 mov	 ebp, esp
  00003	56		 push	 esi
; File C:\IAGOS\server\v18\Source\Source\_Network\Misc\Include\Ar.h

; 146  : 	return (m_nMode & CAr::load) == 0;

  00004	8b 75 08	 mov	 esi, DWORD PTR _ar$[ebp]
; File C:\IAGOS\server\v18\Source\Source\_Common\lord.cpp

; 362  : {

  00007	57		 push	 edi
  00008	8b f9		 mov	 edi, ecx

; 363  : 	if( ar.IsStoring() )

  0000a	8b ce		 mov	 ecx, esi
; File C:\IAGOS\server\v18\Source\Source\_Network\Misc\Include\Ar.h

; 146  : 	return (m_nMode & CAr::load) == 0;

  0000c	f6 06 01	 test	 BYTE PTR [esi], 1
  0000f	8d 47 04	 lea	 eax, DWORD PTR [edi+4]
; File C:\IAGOS\server\v18\Source\Source\_Common\lord.cpp

; 363  : 	if( ar.IsStoring() )

  00012	50		 push	 eax
  00013	75 07		 jne	 SHORT $LN2@Serialize

; 364  : 		ar << m_idPlayer;

  00015	e8 00 00 00 00	 call	 ??$?6K@CAr@@QAEAAV0@ABK@Z ; CAr::operator<<<unsigned long>
  0001a	eb 05		 jmp	 SHORT $LN3@Serialize
$LN2@Serialize:

; 365  : 	else
; 366  : 		ar >> m_idPlayer;

  0001c	e8 00 00 00 00	 call	 ??$?5K@CAr@@QAEAAV0@AAK@Z ; CAr::operator>><unsigned long>
$LN3@Serialize:

; 367  : 
; 368  : 	m_pElection->Serialize( ar );

  00021	8b 4f 08	 mov	 ecx, DWORD PTR [edi+8]
  00024	56		 push	 esi
  00025	e8 00 00 00 00	 call	 ?Serialize@IElection@@QAEXAAVCAr@@@Z ; IElection::Serialize

; 369  : 	m_pEvent->Serialize( ar );

  0002a	8b 4f 0c	 mov	 ecx, DWORD PTR [edi+12]
  0002d	56		 push	 esi
  0002e	e8 00 00 00 00	 call	 ?Serialize@ILordEvent@@QAEXAAVCAr@@@Z ; ILordEvent::Serialize

; 370  : 	m_pSkills->SerializeTick( ar );

  00033	8b 4f 10	 mov	 ecx, DWORD PTR [edi+16]
  00036	56		 push	 esi
  00037	e8 00 00 00 00	 call	 ?SerializeTick@CLordSkill@@QAEXAAVCAr@@@Z ; CLordSkill::SerializeTick
  0003c	5f		 pop	 edi
  0003d	5e		 pop	 esi

; 371  : }

  0003e	5d		 pop	 ebp
  0003f	c2 04 00	 ret	 4
?Serialize@CLord@@QAEXAAVCAr@@@Z ENDP			; CLord::Serialize
_TEXT	ENDS
; Function compile flags: /Ogtp
; File C:\IAGOS\server\v18\Source\Source\_Common\lord.cpp
;	COMDAT ??1CLord@@QAE@XZ
_TEXT	SEGMENT
??1CLord@@QAE@XZ PROC					; CLord::~CLord, COMDAT
; _this$ = ecx

; 355  : {

  00000	56		 push	 esi
  00001	8b f1		 mov	 esi, ecx

; 356  : 	SAFE_DELETE( m_pElection );

  00003	8b 4e 08	 mov	 ecx, DWORD PTR [esi+8]
  00006	c7 06 00 00 00
	00		 mov	 DWORD PTR [esi], OFFSET ??_7CLord@@6B@
  0000c	85 c9		 test	 ecx, ecx
  0000e	74 0d		 je	 SHORT $LN2@CLord
  00010	8b 01		 mov	 eax, DWORD PTR [ecx]
  00012	6a 01		 push	 1
  00014	ff 10		 call	 DWORD PTR [eax]
  00016	c7 46 08 00 00
	00 00		 mov	 DWORD PTR [esi+8], 0
$LN2@CLord:

; 357  : 	SAFE_DELETE( m_pEvent );

  0001d	8b 4e 0c	 mov	 ecx, DWORD PTR [esi+12]
  00020	85 c9		 test	 ecx, ecx
  00022	74 0d		 je	 SHORT $LN3@CLord
  00024	8b 01		 mov	 eax, DWORD PTR [ecx]
  00026	6a 01		 push	 1
  00028	ff 10		 call	 DWORD PTR [eax]
  0002a	c7 46 0c 00 00
	00 00		 mov	 DWORD PTR [esi+12], 0
$LN3@CLord:

; 358  : 	SAFE_DELETE( m_pSkills );

  00031	8b 4e 10	 mov	 ecx, DWORD PTR [esi+16]
  00034	85 c9		 test	 ecx, ecx
  00036	74 0d		 je	 SHORT $LN4@CLord
  00038	8b 01		 mov	 eax, DWORD PTR [ecx]
  0003a	6a 01		 push	 1
  0003c	ff 10		 call	 DWORD PTR [eax]
  0003e	c7 46 10 00 00
	00 00		 mov	 DWORD PTR [esi+16], 0
$LN4@CLord:

; 359  : }

  00045	5e		 pop	 esi
  00046	c3		 ret	 0
??1CLord@@QAE@XZ ENDP					; CLord::~CLord
_TEXT	ENDS
; Function compile flags: /Ogtp
;	COMDAT ??_GILordEvent@@UAEPAXI@Z
_TEXT	SEGMENT
___flags$ = 8						; size = 4
??_GILordEvent@@UAEPAXI@Z PROC				; ILordEvent::`scalar deleting destructor', COMDAT
; _this$ = ecx
  00000	55		 push	 ebp
  00001	8b ec		 mov	 ebp, esp
  00003	56		 push	 esi
  00004	8b f1		 mov	 esi, ecx
  00006	e8 00 00 00 00	 call	 ??1ILordEvent@@UAE@XZ	; ILordEvent::~ILordEvent
  0000b	f6 45 08 01	 test	 BYTE PTR ___flags$[ebp], 1
  0000f	74 0b		 je	 SHORT $LN5@scalar
  00011	6a 2c		 push	 44			; 0000002cH
  00013	56		 push	 esi
  00014	e8 00 00 00 00	 call	 ??3@YAXPAXI@Z		; operator delete
  00019	83 c4 08	 add	 esp, 8
$LN5@scalar:
  0001c	8b c6		 mov	 eax, esi
  0001e	5e		 pop	 esi
  0001f	5d		 pop	 ebp
  00020	c2 04 00	 ret	 4
??_GILordEvent@@UAEPAXI@Z ENDP				; ILordEvent::`scalar deleting destructor'
_TEXT	ENDS
; Function compile flags: /Ogtp
; File C:\Program Files\Microsoft Visual Studio\2022\Professional\VC\Tools\MSVC\14.44.35207\include\vector
;	COMDAT ?_Xlength@?$vector@U?$pair@M_J@std@@V?$allocator@U?$pair@M_J@std@@@2@@std@@CAXXZ
_TEXT	SEGMENT
?_Xlength@?$vector@U?$pair@M_J@std@@V?$allocator@U?$pair@M_J@std@@@2@@std@@CAXXZ PROC ; std::vector<std::pair<float,__int64>,std::allocator<std::pair<float,__int64> > >::_Xlength, COMDAT

; 2184 :         _Xlength_error("vector too long");

  00000	68 00 00 00 00	 push	 OFFSET ??_C@_0BA@FOIKENOD@vector?5too?5long@
  00005	e8 00 00 00 00	 call	 ?_Xlength_error@std@@YAXPBD@Z ; std::_Xlength_error
$LN3@Xlength:
  0000a	cc		 int	 3
?_Xlength@?$vector@U?$pair@M_J@std@@V?$allocator@U?$pair@M_J@std@@@2@@std@@CAXXZ ENDP ; std::vector<std::pair<float,__int64>,std::allocator<std::pair<float,__int64> > >::_Xlength
_TEXT	ENDS
; Function compile flags: /Ogtp
; File C:\Program Files\Microsoft Visual Studio\2022\Professional\VC\Tools\MSVC\14.44.35207\include\vector
; File C:\Program Files\Microsoft Visual Studio\2022\Professional\VC\Tools\MSVC\14.44.35207\include\xmemory
; File C:\Program Files\Microsoft Visual Studio\2022\Professional\VC\Tools\MSVC\14.44.35207\include\vector
; File C:\Program Files\Microsoft Visual Studio\2022\Professional\VC\Tools\MSVC\14.44.35207\include\xmemory
; File C:\Program Files\Microsoft Visual Studio\2022\Professional\VC\Tools\MSVC\14.44.35207\include\vector
; File C:\Program Files\Microsoft Visual Studio\2022\Professional\VC\Tools\MSVC\14.44.35207\include\xmemory
; File C:\Program Files\Microsoft Visual Studio\2022\Professional\VC\Tools\MSVC\14.44.35207\include\vector
;	COMDAT ??1?$vector@U?$pair@M_J@std@@V?$allocator@U?$pair@M_J@std@@@2@@std@@QAE@XZ
_TEXT	SEGMENT
??1?$vector@U?$pair@M_J@std@@V?$allocator@U?$pair@M_J@std@@@2@@std@@QAE@XZ PROC ; std::vector<std::pair<float,__int64>,std::allocator<std::pair<float,__int64> > >::~vector<std::pair<float,__int64>,std::allocator<std::pair<float,__int64> > >, COMDAT
; _this$ = ecx

; 829  :     _CONSTEXPR20 ~vector() noexcept {

  00000	56		 push	 esi
  00001	8b f1		 mov	 esi, ecx

; 2090 :         if (_Myfirst) { // destroy and deallocate old array

  00003	8b 06		 mov	 eax, DWORD PTR [esi]
  00005	85 c0		 test	 eax, eax
  00007	74 40		 je	 SHORT $LN5@vector

; 2091 :             _STD _Destroy_range(_Myfirst, _Mylast, _Al);
; 2092 :             _ASAN_VECTOR_REMOVE;
; 2093 :             _Al.deallocate(_Myfirst, static_cast<size_type>(_Myend - _Myfirst));

  00009	8b 4e 08	 mov	 ecx, DWORD PTR [esi+8]
  0000c	2b c8		 sub	 ecx, eax
; File C:\Program Files\Microsoft Visual Studio\2022\Professional\VC\Tools\MSVC\14.44.35207\include\xmemory

; 985  :         _STD _Deallocate<_New_alignof<_Ty>>(_Ptr, sizeof(_Ty) * _Count);

  0000e	83 e1 f0	 and	 ecx, -16		; fffffff0H

; 284  :         if (_Bytes >= _Big_allocation_threshold) {

  00011	81 f9 00 10 00
	00		 cmp	 ecx, 4096		; 00001000H
  00017	72 12		 jb	 SHORT $LN18@vector

; 205  :     const uintptr_t _Ptr_container   = _Ptr_user[-1];

  00019	8b 50 fc	 mov	 edx, DWORD PTR [eax-4]
  0001c	83 c1 23	 add	 ecx, 35			; 00000023H

; 206  : 
; 207  :     // If the following asserts, it likely means that we are performing
; 208  :     // an aligned delete on memory coming from an unaligned allocation.
; 209  :     _STL_ASSERT(_Ptr_user[-2] == _Big_allocation_sentinel, "invalid argument");
; 210  : 
; 211  :     // Extra paranoia on aligned allocation/deallocation; ensure _Ptr_container is
; 212  :     // in range [_Min_back_shift, _Non_user_size]
; 213  : #ifdef _DEBUG
; 214  :     constexpr uintptr_t _Min_back_shift = 2 * sizeof(void*);
; 215  : #else // ^^^ defined(_DEBUG) / !defined(_DEBUG) vvv
; 216  :     constexpr uintptr_t _Min_back_shift = sizeof(void*);
; 217  : #endif // ^^^ !defined(_DEBUG) ^^^
; 218  :     const uintptr_t _Back_shift = reinterpret_cast<uintptr_t>(_Ptr) - _Ptr_container;

  0001f	2b c2		 sub	 eax, edx

; 219  :     _STL_VERIFY(_Back_shift >= _Min_back_shift && _Back_shift <= _Non_user_size, "invalid argument");

  00021	83 c0 fc	 add	 eax, -4			; fffffffcH
  00024	83 f8 1f	 cmp	 eax, 31			; 0000001fH
  00027	77 22		 ja	 SHORT $LN17@vector

; 220  :     _Ptr = reinterpret_cast<void*>(_Ptr_container);

  00029	8b c2		 mov	 eax, edx
$LN18@vector:

; 289  :         ::operator delete(_Ptr, _Bytes);

  0002b	51		 push	 ecx
  0002c	50		 push	 eax
  0002d	e8 00 00 00 00	 call	 ??3@YAXPAXI@Z		; operator delete
; File C:\Program Files\Microsoft Visual Studio\2022\Professional\VC\Tools\MSVC\14.44.35207\include\vector

; 2095 :             _Myfirst = nullptr;

  00032	c7 06 00 00 00
	00		 mov	 DWORD PTR [esi], 0
; File C:\Program Files\Microsoft Visual Studio\2022\Professional\VC\Tools\MSVC\14.44.35207\include\xmemory

; 289  :         ::operator delete(_Ptr, _Bytes);

  00038	83 c4 08	 add	 esp, 8
; File C:\Program Files\Microsoft Visual Studio\2022\Professional\VC\Tools\MSVC\14.44.35207\include\vector

; 2096 :             _Mylast  = nullptr;

  0003b	c7 46 04 00 00
	00 00		 mov	 DWORD PTR [esi+4], 0

; 2097 :             _Myend   = nullptr;

  00042	c7 46 08 00 00
	00 00		 mov	 DWORD PTR [esi+8], 0
$LN5@vector:
  00049	5e		 pop	 esi

; 835  :     }

  0004a	c3		 ret	 0
$LN17@vector:
; File C:\Program Files\Microsoft Visual Studio\2022\Professional\VC\Tools\MSVC\14.44.35207\include\xmemory

; 219  :     _STL_VERIFY(_Back_shift >= _Min_back_shift && _Back_shift <= _Non_user_size, "invalid argument");

  0004b	6a 00		 push	 0
  0004d	6a 00		 push	 0
  0004f	6a 00		 push	 0
  00051	6a 00		 push	 0
  00053	6a 00		 push	 0
  00055	e8 00 00 00 00	 call	 __invoke_watson
$LN26@vector:
  0005a	cc		 int	 3
??1?$vector@U?$pair@M_J@std@@V?$allocator@U?$pair@M_J@std@@@2@@std@@QAE@XZ ENDP ; std::vector<std::pair<float,__int64>,std::allocator<std::pair<float,__int64> > >::~vector<std::pair<float,__int64>,std::allocator<std::pair<float,__int64> > >
_TEXT	ENDS
; Function compile flags: /Ogtp
; File C:\IAGOS\server\v18\Source\Source\_Common\lord.cpp
; File C:\Program Files\Microsoft Visual Studio\2022\Professional\VC\Tools\MSVC\14.44.35207\include\vector
; File C:\IAGOS\server\v18\Source\Source\_Common\lord.cpp
; File C:\Program Files\Microsoft Visual Studio\2022\Professional\VC\Tools\MSVC\14.44.35207\include\xutility
; File C:\Program Files\Microsoft Visual Studio\2022\Professional\VC\Tools\MSVC\14.44.35207\include\vector
; File C:\Program Files\Microsoft Visual Studio\2022\Professional\VC\Tools\MSVC\14.44.35207\include\xutility
; File C:\Program Files\Microsoft Visual Studio\2022\Professional\VC\Tools\MSVC\14.44.35207\include\vector
; File C:\Program Files\Microsoft Visual Studio\2022\Professional\VC\Tools\MSVC\14.44.35207\include\xutility
; File C:\Program Files\Microsoft Visual Studio\2022\Professional\VC\Tools\MSVC\14.44.35207\include\vector
; File C:\IAGOS\server\v18\Source\Source\_Common\lord.cpp
;	COMDAT ?Remove@ILordEvent@@AAE?AV?$_Vector_iterator@V?$_Vector_val@U?$_Simple_types@PAVCLEComponent@@@std@@@std@@@std@@V23@@Z
_TEXT	SEGMENT
___$ReturnUdt$ = 8					; size = 4
_i$ = 12						; size = 4
?Remove@ILordEvent@@AAE?AV?$_Vector_iterator@V?$_Vector_val@U?$_Simple_types@PAVCLEComponent@@@std@@@std@@@std@@V23@@Z PROC ; ILordEvent::Remove, COMDAT
; _this$ = ecx

; 546  : {

  00000	55		 push	 ebp
  00001	8b ec		 mov	 ebp, esp
  00003	56		 push	 esi
  00004	57		 push	 edi
; File C:\Program Files\Microsoft Visual Studio\2022\Professional\VC\Tools\MSVC\14.44.35207\include\vector

; 1764 :         const pointer _Whereptr = _Where._Ptr;

  00005	8b 7d 0c	 mov	 edi, DWORD PTR _i$[ebp]
; File C:\IAGOS\server\v18\Source\Source\_Common\lord.cpp

; 546  : {

  00008	8b f1		 mov	 esi, ecx
; File C:\Program Files\Microsoft Visual Studio\2022\Professional\VC\Tools\MSVC\14.44.35207\include\xutility

; 5147 :                 return _STD _Copy_memmove(_First, _Last, _Dest);

  0000a	57		 push	 edi
  0000b	ff 76 20	 push	 DWORD PTR [esi+32]
; File C:\Program Files\Microsoft Visual Studio\2022\Professional\VC\Tools\MSVC\14.44.35207\include\vector

; 1775 :         _STD _Move_unchecked(_Whereptr + 1, _Mylast, _Whereptr);

  0000e	8d 47 04	 lea	 eax, DWORD PTR [edi+4]
; File C:\Program Files\Microsoft Visual Studio\2022\Professional\VC\Tools\MSVC\14.44.35207\include\xutility

; 5147 :                 return _STD _Copy_memmove(_First, _Last, _Dest);

  00011	50		 push	 eax
  00012	e8 00 00 00 00	 call	 ??$_Copy_memmove@PAPAVCLEComponent@@PAPAV1@@std@@YAPAPAVCLEComponent@@PAPAV1@00@Z ; std::_Copy_memmove<CLEComponent * *,CLEComponent * *>
; File C:\Program Files\Microsoft Visual Studio\2022\Professional\VC\Tools\MSVC\14.44.35207\include\vector

; 46   :     _CONSTEXPR20 _Vector_const_iterator(_Tptr _Parg, const _Container_base* _Pvector) noexcept : _Ptr(_Parg) {

  00017	8b 45 08	 mov	 eax, DWORD PTR ___$ReturnUdt$[ebp]
; File C:\Program Files\Microsoft Visual Studio\2022\Professional\VC\Tools\MSVC\14.44.35207\include\xutility

; 5147 :                 return _STD _Copy_memmove(_First, _Last, _Dest);

  0001a	83 c4 0c	 add	 esp, 12			; 0000000cH
; File C:\Program Files\Microsoft Visual Studio\2022\Professional\VC\Tools\MSVC\14.44.35207\include\vector

; 1778 :         --_Mylast;

  0001d	83 46 20 fc	 add	 DWORD PTR [esi+32], -4	; fffffffcH

; 46   :     _CONSTEXPR20 _Vector_const_iterator(_Tptr _Parg, const _Container_base* _Pvector) noexcept : _Ptr(_Parg) {

  00021	89 38		 mov	 DWORD PTR [eax], edi
; File C:\IAGOS\server\v18\Source\Source\_Common\lord.cpp

; 547  : 	return m_vComponents.erase( i );

  00023	5f		 pop	 edi
  00024	5e		 pop	 esi

; 548  : }

  00025	5d		 pop	 ebp
  00026	c2 08 00	 ret	 8
?Remove@ILordEvent@@AAE?AV?$_Vector_iterator@V?$_Vector_val@U?$_Simple_types@PAVCLEComponent@@@std@@@std@@@std@@V23@@Z ENDP ; ILordEvent::Remove
_TEXT	ENDS
; Function compile flags: /Ogtp
; File C:\Program Files\Microsoft Visual Studio\2022\Professional\VC\Tools\MSVC\14.44.35207\include\vector
;	COMDAT ?_Xlength@?$vector@PAVCLEComponent@@V?$allocator@PAVCLEComponent@@@std@@@std@@CAXXZ
_TEXT	SEGMENT
?_Xlength@?$vector@PAVCLEComponent@@V?$allocator@PAVCLEComponent@@@std@@@std@@CAXXZ PROC ; std::vector<CLEComponent *,std::allocator<CLEComponent *> >::_Xlength, COMDAT

; 2184 :         _Xlength_error("vector too long");

  00000	68 00 00 00 00	 push	 OFFSET ??_C@_0BA@FOIKENOD@vector?5too?5long@
  00005	e8 00 00 00 00	 call	 ?_Xlength_error@std@@YAXPBD@Z ; std::_Xlength_error
$LN3@Xlength:
  0000a	cc		 int	 3
?_Xlength@?$vector@PAVCLEComponent@@V?$allocator@PAVCLEComponent@@@std@@@std@@CAXXZ ENDP ; std::vector<CLEComponent *,std::allocator<CLEComponent *> >::_Xlength
_TEXT	ENDS
; Function compile flags: /Ogtp
; File C:\Program Files\Microsoft Visual Studio\2022\Professional\VC\Tools\MSVC\14.44.35207\include\vector
; File C:\Program Files\Microsoft Visual Studio\2022\Professional\VC\Tools\MSVC\14.44.35207\include\xmemory
; File C:\Program Files\Microsoft Visual Studio\2022\Professional\VC\Tools\MSVC\14.44.35207\include\vector
; File C:\Program Files\Microsoft Visual Studio\2022\Professional\VC\Tools\MSVC\14.44.35207\include\xmemory
; File C:\Program Files\Microsoft Visual Studio\2022\Professional\VC\Tools\MSVC\14.44.35207\include\vector
; File C:\Program Files\Microsoft Visual Studio\2022\Professional\VC\Tools\MSVC\14.44.35207\include\xmemory
; File C:\Program Files\Microsoft Visual Studio\2022\Professional\VC\Tools\MSVC\14.44.35207\include\vector
;	COMDAT ??1?$vector@PAVCLEComponent@@V?$allocator@PAVCLEComponent@@@std@@@std@@QAE@XZ
_TEXT	SEGMENT
??1?$vector@PAVCLEComponent@@V?$allocator@PAVCLEComponent@@@std@@@std@@QAE@XZ PROC ; std::vector<CLEComponent *,std::allocator<CLEComponent *> >::~vector<CLEComponent *,std::allocator<CLEComponent *> >, COMDAT
; _this$ = ecx

; 829  :     _CONSTEXPR20 ~vector() noexcept {

  00000	56		 push	 esi
  00001	8b f1		 mov	 esi, ecx

; 2090 :         if (_Myfirst) { // destroy and deallocate old array

  00003	8b 06		 mov	 eax, DWORD PTR [esi]
  00005	85 c0		 test	 eax, eax
  00007	74 40		 je	 SHORT $LN5@vector

; 2091 :             _STD _Destroy_range(_Myfirst, _Mylast, _Al);
; 2092 :             _ASAN_VECTOR_REMOVE;
; 2093 :             _Al.deallocate(_Myfirst, static_cast<size_type>(_Myend - _Myfirst));

  00009	8b 4e 08	 mov	 ecx, DWORD PTR [esi+8]
  0000c	2b c8		 sub	 ecx, eax
; File C:\Program Files\Microsoft Visual Studio\2022\Professional\VC\Tools\MSVC\14.44.35207\include\xmemory

; 985  :         _STD _Deallocate<_New_alignof<_Ty>>(_Ptr, sizeof(_Ty) * _Count);

  0000e	83 e1 fc	 and	 ecx, -4			; fffffffcH

; 284  :         if (_Bytes >= _Big_allocation_threshold) {

  00011	81 f9 00 10 00
	00		 cmp	 ecx, 4096		; 00001000H
  00017	72 12		 jb	 SHORT $LN18@vector

; 205  :     const uintptr_t _Ptr_container   = _Ptr_user[-1];

  00019	8b 50 fc	 mov	 edx, DWORD PTR [eax-4]
  0001c	83 c1 23	 add	 ecx, 35			; 00000023H

; 206  : 
; 207  :     // If the following asserts, it likely means that we are performing
; 208  :     // an aligned delete on memory coming from an unaligned allocation.
; 209  :     _STL_ASSERT(_Ptr_user[-2] == _Big_allocation_sentinel, "invalid argument");
; 210  : 
; 211  :     // Extra paranoia on aligned allocation/deallocation; ensure _Ptr_container is
; 212  :     // in range [_Min_back_shift, _Non_user_size]
; 213  : #ifdef _DEBUG
; 214  :     constexpr uintptr_t _Min_back_shift = 2 * sizeof(void*);
; 215  : #else // ^^^ defined(_DEBUG) / !defined(_DEBUG) vvv
; 216  :     constexpr uintptr_t _Min_back_shift = sizeof(void*);
; 217  : #endif // ^^^ !defined(_DEBUG) ^^^
; 218  :     const uintptr_t _Back_shift = reinterpret_cast<uintptr_t>(_Ptr) - _Ptr_container;

  0001f	2b c2		 sub	 eax, edx

; 219  :     _STL_VERIFY(_Back_shift >= _Min_back_shift && _Back_shift <= _Non_user_size, "invalid argument");

  00021	83 c0 fc	 add	 eax, -4			; fffffffcH
  00024	83 f8 1f	 cmp	 eax, 31			; 0000001fH
  00027	77 22		 ja	 SHORT $LN17@vector

; 220  :     _Ptr = reinterpret_cast<void*>(_Ptr_container);

  00029	8b c2		 mov	 eax, edx
$LN18@vector:

; 289  :         ::operator delete(_Ptr, _Bytes);

  0002b	51		 push	 ecx
  0002c	50		 push	 eax
  0002d	e8 00 00 00 00	 call	 ??3@YAXPAXI@Z		; operator delete
; File C:\Program Files\Microsoft Visual Studio\2022\Professional\VC\Tools\MSVC\14.44.35207\include\vector

; 2095 :             _Myfirst = nullptr;

  00032	c7 06 00 00 00
	00		 mov	 DWORD PTR [esi], 0
; File C:\Program Files\Microsoft Visual Studio\2022\Professional\VC\Tools\MSVC\14.44.35207\include\xmemory

; 289  :         ::operator delete(_Ptr, _Bytes);

  00038	83 c4 08	 add	 esp, 8
; File C:\Program Files\Microsoft Visual Studio\2022\Professional\VC\Tools\MSVC\14.44.35207\include\vector

; 2096 :             _Mylast  = nullptr;

  0003b	c7 46 04 00 00
	00 00		 mov	 DWORD PTR [esi+4], 0

; 2097 :             _Myend   = nullptr;

  00042	c7 46 08 00 00
	00 00		 mov	 DWORD PTR [esi+8], 0
$LN5@vector:
  00049	5e		 pop	 esi

; 835  :     }

  0004a	c3		 ret	 0
$LN17@vector:
; File C:\Program Files\Microsoft Visual Studio\2022\Professional\VC\Tools\MSVC\14.44.35207\include\xmemory

; 219  :     _STL_VERIFY(_Back_shift >= _Min_back_shift && _Back_shift <= _Non_user_size, "invalid argument");

  0004b	6a 00		 push	 0
  0004d	6a 00		 push	 0
  0004f	6a 00		 push	 0
  00051	6a 00		 push	 0
  00053	6a 00		 push	 0
  00055	e8 00 00 00 00	 call	 __invoke_watson
$LN26@vector:
  0005a	cc		 int	 3
??1?$vector@PAVCLEComponent@@V?$allocator@PAVCLEComponent@@@std@@@std@@QAE@XZ ENDP ; std::vector<CLEComponent *,std::allocator<CLEComponent *> >::~vector<CLEComponent *,std::allocator<CLEComponent *> >
_TEXT	ENDS
; Function compile flags: /Ogtp
; File C:\IAGOS\server\v18\Source\Source\_Common\lord.cpp
; File C:\Program Files\Microsoft Visual Studio\2022\Professional\VC\Tools\MSVC\14.44.35207\include\vector
; File C:\IAGOS\server\v18\Source\Source\_Common\lord.cpp
; File C:\Program Files\Microsoft Visual Studio\2022\Professional\VC\Tools\MSVC\14.44.35207\include\xutility
; File C:\Program Files\Microsoft Visual Studio\2022\Professional\VC\Tools\MSVC\14.44.35207\include\vector
; File C:\IAGOS\server\v18\Source\Source\_Common\lord.cpp
; File C:\Program Files\Microsoft Visual Studio\2022\Professional\VC\Tools\MSVC\14.44.35207\include\vector
; File C:\IAGOS\server\v18\Source\Source\_Common\lord.cpp
;	COMDAT ?EraseExpiredComponents@ILordEvent@@QAEXXZ
_TEXT	SEGMENT
?EraseExpiredComponents@ILordEvent@@QAEXXZ PROC		; ILordEvent::EraseExpiredComponents, COMDAT
; _this$ = ecx

; 632  : {

  00000	56		 push	 esi
  00001	57		 push	 edi
  00002	8b f9		 mov	 edi, ecx
; File C:\Program Files\Microsoft Visual Studio\2022\Professional\VC\Tools\MSVC\14.44.35207\include\vector

; 46   :     _CONSTEXPR20 _Vector_const_iterator(_Tptr _Parg, const _Container_base* _Pvector) noexcept : _Ptr(_Parg) {

  00004	8b 77 1c	 mov	 esi, DWORD PTR [edi+28]
  00007	8b 47 20	 mov	 eax, DWORD PTR [edi+32]

; 176  :         return !(*this == _Right);

  0000a	3b f0		 cmp	 esi, eax
; File C:\IAGOS\server\v18\Source\Source\_Common\lord.cpp

; 633  : 	for( VLEC::iterator i = m_vComponents.begin(); i != m_vComponents.end(); )

  0000c	74 34		 je	 SHORT $LN3@EraseExpir
  0000e	66 90		 npad	 2
$LL4@EraseExpir:

; 634  : 	{
; 635  : 		if( ( *i )->GetTick() == 0 )

  00010	8b 0e		 mov	 ecx, DWORD PTR [esi]
  00012	83 79 04 00	 cmp	 DWORD PTR [ecx+4], 0
  00016	75 23		 jne	 SHORT $LN5@EraseExpir

; 636  : 		{
; 637  : 			safe_delete( *i );

  00018	85 c9		 test	 ecx, ecx
  0001a	74 06		 je	 SHORT $LN8@EraseExpir
  0001c	8b 01		 mov	 eax, DWORD PTR [ecx]
  0001e	6a 01		 push	 1
  00020	ff 10		 call	 DWORD PTR [eax]
$LN8@EraseExpir:
; File C:\Program Files\Microsoft Visual Studio\2022\Professional\VC\Tools\MSVC\14.44.35207\include\xutility

; 5147 :                 return _STD _Copy_memmove(_First, _Last, _Dest);

  00022	56		 push	 esi
  00023	ff 77 20	 push	 DWORD PTR [edi+32]
  00026	8d 46 04	 lea	 eax, DWORD PTR [esi+4]
  00029	50		 push	 eax
  0002a	e8 00 00 00 00	 call	 ??$_Copy_memmove@PAPAVCLEComponent@@PAPAV1@@std@@YAPAPAVCLEComponent@@PAPAV1@00@Z ; std::_Copy_memmove<CLEComponent * *,CLEComponent * *>
  0002f	83 c4 0c	 add	 esp, 12			; 0000000cH
; File C:\Program Files\Microsoft Visual Studio\2022\Professional\VC\Tools\MSVC\14.44.35207\include\vector

; 1778 :         --_Mylast;

  00032	83 47 20 fc	 add	 DWORD PTR [edi+32], -4	; fffffffcH
  00036	8b 47 20	 mov	 eax, DWORD PTR [edi+32]
; File C:\IAGOS\server\v18\Source\Source\_Common\lord.cpp

; 639  : 		}

  00039	eb 03		 jmp	 SHORT $LN2@EraseExpir
$LN5@EraseExpir:
; File C:\Program Files\Microsoft Visual Studio\2022\Professional\VC\Tools\MSVC\14.44.35207\include\vector

; 82   :         ++_Ptr;

  0003b	83 c6 04	 add	 esi, 4
$LN2@EraseExpir:

; 176  :         return !(*this == _Right);

  0003e	3b f0		 cmp	 esi, eax
; File C:\IAGOS\server\v18\Source\Source\_Common\lord.cpp

; 633  : 	for( VLEC::iterator i = m_vComponents.begin(); i != m_vComponents.end(); )

  00040	75 ce		 jne	 SHORT $LL4@EraseExpir
$LN3@EraseExpir:
  00042	5f		 pop	 edi

; 640  : 		else	++i;
; 641  : 	}
; 642  : }

  00043	5e		 pop	 esi
  00044	c3		 ret	 0
?EraseExpiredComponents@ILordEvent@@QAEXXZ ENDP		; ILordEvent::EraseExpiredComponents
_TEXT	ENDS
; Function compile flags: /Ogtp
; File C:\IAGOS\server\v18\Source\Source\_Common\lord.cpp
; File C:\IAGOS\server\v18\Source\Source\_Network\Misc\Include\Ar.h
; File C:\IAGOS\server\v18\Source\Source\_Common\lord.cpp
; File C:\IAGOS\server\v18\Source\Source\_Network\Misc\Include\Ar.h
; File C:\IAGOS\server\v18\Source\Source\_Common\lord.cpp
; File C:\Program Files\Microsoft Visual Studio\2022\Professional\VC\Tools\MSVC\14.44.35207\include\vector
; File C:\IAGOS\server\v18\Source\Source\_Common\lord.cpp
; File C:\Program Files\Microsoft Visual Studio\2022\Professional\VC\Tools\MSVC\14.44.35207\include\vector
; File C:\IAGOS\server\v18\Source\Source\_Common\lord.cpp
; File C:\Program Files\Microsoft Visual Studio\2022\Professional\VC\Tools\MSVC\14.44.35207\include\vector
; File C:\IAGOS\server\v18\Source\Source\_Common\lord.cpp
;	COMDAT ?SerializeTick@ILordEvent@@QAEXAAVCAr@@@Z
_TEXT	SEGMENT
_nTick$1 = -4						; size = 4
_ar$ = 8						; size = 4
$T2 = 8							; size = 4
$T3 = 8							; size = 4
$T4 = 8							; size = 4
_nSize$5 = 8						; size = 4
_idPlayer$6 = 8						; size = 4
?SerializeTick@ILordEvent@@QAEXAAVCAr@@@Z PROC		; ILordEvent::SerializeTick, COMDAT
; _this$ = ecx

; 605  : {

  00000	55		 push	 ebp
  00001	8b ec		 mov	 ebp, esp
  00003	51		 push	 ecx
  00004	53		 push	 ebx
  00005	56		 push	 esi
  00006	57		 push	 edi
; File C:\IAGOS\server\v18\Source\Source\_Network\Misc\Include\Ar.h

; 146  : 	return (m_nMode & CAr::load) == 0;

  00007	8b 7d 08	 mov	 edi, DWORD PTR _ar$[ebp]
; File C:\IAGOS\server\v18\Source\Source\_Common\lord.cpp

; 605  : {

  0000a	8b d9		 mov	 ebx, ecx

; 606  : 	if( ar.IsStoring() )

  0000c	8b cf		 mov	 ecx, edi
; File C:\IAGOS\server\v18\Source\Source\_Network\Misc\Include\Ar.h

; 146  : 	return (m_nMode & CAr::load) == 0;

  0000e	f6 07 01	 test	 BYTE PTR [edi], 1
; File C:\IAGOS\server\v18\Source\Source\_Common\lord.cpp

; 606  : 	if( ar.IsStoring() )

  00011	75 54		 jne	 SHORT $LN8@SerializeT
; File C:\Program Files\Microsoft Visual Studio\2022\Professional\VC\Tools\MSVC\14.44.35207\include\vector

; 1915 :         return static_cast<size_type>(_My_data._Mylast - _My_data._Myfirst);

  00013	8b 43 20	 mov	 eax, DWORD PTR [ebx+32]
  00016	2b 43 1c	 sub	 eax, DWORD PTR [ebx+28]
  00019	c1 f8 02	 sar	 eax, 2
; File C:\IAGOS\server\v18\Source\Source\_Common\lord.cpp

; 608  : 		ar << m_vComponents.size();

  0001c	89 45 08	 mov	 DWORD PTR $T2[ebp], eax
  0001f	8d 45 08	 lea	 eax, DWORD PTR $T2[ebp]
  00022	50		 push	 eax
  00023	e8 00 00 00 00	 call	 ??$?6I@CAr@@QAEAAV0@ABI@Z ; CAr::operator<<<unsigned int>
; File C:\Program Files\Microsoft Visual Studio\2022\Professional\VC\Tools\MSVC\14.44.35207\include\vector

; 46   :     _CONSTEXPR20 _Vector_const_iterator(_Tptr _Parg, const _Container_base* _Pvector) noexcept : _Ptr(_Parg) {

  00028	8b 73 1c	 mov	 esi, DWORD PTR [ebx+28]

; 176  :         return !(*this == _Right);

  0002b	3b 73 20	 cmp	 esi, DWORD PTR [ebx+32]
; File C:\IAGOS\server\v18\Source\Source\_Common\lord.cpp

; 609  : 		for( VLEC::iterator i = m_vComponents.begin(); i != m_vComponents.end(); ++i )

  0002e	74 76		 je	 SHORT $LN6@SerializeT
$LL4@SerializeT:

; 610  : 		{
; 611  : 			ar << ( *i )->GetIdPlayer();

  00030	8b 06		 mov	 eax, DWORD PTR [esi]
  00032	8b cf		 mov	 ecx, edi
  00034	8b 40 08	 mov	 eax, DWORD PTR [eax+8]
  00037	89 45 08	 mov	 DWORD PTR $T3[ebp], eax
  0003a	8d 45 08	 lea	 eax, DWORD PTR $T3[ebp]
  0003d	50		 push	 eax
  0003e	e8 00 00 00 00	 call	 ??$?6K@CAr@@QAEAAV0@ABK@Z ; CAr::operator<<<unsigned long>

; 612  : 			ar << ( *i )->GetTick();

  00043	8b 06		 mov	 eax, DWORD PTR [esi]
  00045	8b cf		 mov	 ecx, edi
  00047	8b 40 04	 mov	 eax, DWORD PTR [eax+4]
  0004a	89 45 08	 mov	 DWORD PTR $T4[ebp], eax
  0004d	8d 45 08	 lea	 eax, DWORD PTR $T4[ebp]
  00050	50		 push	 eax
  00051	e8 00 00 00 00	 call	 ??$?6H@CAr@@QAEAAV0@ABH@Z ; CAr::operator<<<int>
; File C:\Program Files\Microsoft Visual Studio\2022\Professional\VC\Tools\MSVC\14.44.35207\include\vector

; 82   :         ++_Ptr;

  00056	83 c6 04	 add	 esi, 4

; 176  :         return !(*this == _Right);

  00059	3b 73 20	 cmp	 esi, DWORD PTR [ebx+32]
; File C:\IAGOS\server\v18\Source\Source\_Common\lord.cpp

; 609  : 		for( VLEC::iterator i = m_vComponents.begin(); i != m_vComponents.end(); ++i )

  0005c	75 d2		 jne	 SHORT $LL4@SerializeT

; 627  : 		}
; 628  : 	}
; 629  : }

  0005e	5f		 pop	 edi
  0005f	5e		 pop	 esi
  00060	5b		 pop	 ebx
  00061	8b e5		 mov	 esp, ebp
  00063	5d		 pop	 ebp
  00064	c2 04 00	 ret	 4
$LN8@SerializeT:

; 613  : 		}
; 614  : 	}
; 615  : 	else
; 616  : 	{
; 617  : 		size_t nSize;
; 618  : 		ar >> nSize;

  00067	8d 45 08	 lea	 eax, DWORD PTR _nSize$5[ebp]
  0006a	50		 push	 eax
  0006b	e8 00 00 00 00	 call	 ??$?5I@CAr@@QAEAAV0@AAI@Z ; CAr::operator>><unsigned int>

; 619  : 		for( size_t i = 0; i < nSize; i++ )

  00070	8b 75 08	 mov	 esi, DWORD PTR _nSize$5[ebp]
  00073	85 f6		 test	 esi, esi
  00075	74 2f		 je	 SHORT $LN6@SerializeT
$LL7@SerializeT:

; 620  : 		{
; 621  : 			u_long idPlayer;
; 622  : 			int nTick;
; 623  : 			ar >> idPlayer >> nTick;

  00077	8d 45 fc	 lea	 eax, DWORD PTR _nTick$1[ebp]
  0007a	8b cf		 mov	 ecx, edi
  0007c	50		 push	 eax
  0007d	8d 45 08	 lea	 eax, DWORD PTR _idPlayer$6[ebp]
  00080	50		 push	 eax
  00081	e8 00 00 00 00	 call	 ??$?5K@CAr@@QAEAAV0@AAK@Z ; CAr::operator>><unsigned long>
  00086	8b c8		 mov	 ecx, eax
  00088	e8 00 00 00 00	 call	 ??$?5H@CAr@@QAEAAV0@AAH@Z ; CAr::operator>><int>

; 624  : 			CLEComponent* pComponent	= GetComponent( idPlayer );

  0008d	ff 75 08	 push	 DWORD PTR _idPlayer$6[ebp]
  00090	8b cb		 mov	 ecx, ebx
  00092	e8 00 00 00 00	 call	 ?GetComponent@ILordEvent@@QAEPAVCLEComponent@@K@Z ; ILordEvent::GetComponent

; 625  : 			if( pComponent )

  00097	85 c0		 test	 eax, eax
  00099	74 06		 je	 SHORT $LN5@SerializeT

; 626  : 				pComponent->SetTick( nTick );

  0009b	8b 4d fc	 mov	 ecx, DWORD PTR _nTick$1[ebp]
  0009e	89 48 04	 mov	 DWORD PTR [eax+4], ecx
$LN5@SerializeT:

; 619  : 		for( size_t i = 0; i < nSize; i++ )

  000a1	83 ee 01	 sub	 esi, 1
  000a4	75 d1		 jne	 SHORT $LL7@SerializeT
$LN6@SerializeT:
  000a6	5f		 pop	 edi

; 627  : 		}
; 628  : 	}
; 629  : }

  000a7	5e		 pop	 esi
  000a8	5b		 pop	 ebx
  000a9	8b e5		 mov	 esp, ebp
  000ab	5d		 pop	 ebp
  000ac	c2 04 00	 ret	 4
?SerializeTick@ILordEvent@@QAEXAAVCAr@@@Z ENDP		; ILordEvent::SerializeTick
_TEXT	ENDS
; Function compile flags: /Ogtp
; File C:\IAGOS\server\v18\Source\Source\_Common\lord.cpp
; File C:\Program Files\Microsoft Visual Studio\2022\Professional\VC\Tools\MSVC\14.44.35207\atlmfc\include\cstringt.h
; File C:\IAGOS\server\v18\Source\Source\_Common\lord.cpp
; File C:\Program Files\Microsoft Visual Studio\2022\Professional\VC\Tools\MSVC\14.44.35207\include\utility
; File C:\IAGOS\server\v18\Source\Source\_Common\lord.cpp
; File C:\Program Files\Microsoft Visual Studio\2022\Professional\VC\Tools\MSVC\14.44.35207\include\utility
; File C:\IAGOS\server\v18\Source\Source\_Common\lord.cpp
; File C:\Program Files\Microsoft Visual Studio\2022\Professional\VC\Tools\MSVC\14.44.35207\include\utility
; File C:\Program Files\Microsoft Visual Studio\2022\Professional\VC\Tools\MSVC\14.44.35207\include\vector
; File C:\Program Files\Microsoft Visual Studio\2022\Professional\VC\Tools\MSVC\14.44.35207\include\utility
; File C:\Program Files\Microsoft Visual Studio\2022\Professional\VC\Tools\MSVC\14.44.35207\include\vector
; File C:\Program Files\Microsoft Visual Studio\2022\Professional\VC\Tools\MSVC\14.44.35207\include\xutility
; File C:\Program Files\Microsoft Visual Studio\2022\Professional\VC\Tools\MSVC\14.44.35207\include\vector
; File C:\IAGOS\server\v18\Source\Source\_Common\lord.cpp
; File C:\Program Files\Microsoft Visual Studio\2022\Professional\VC\Tools\MSVC\14.44.35207\atlmfc\include\cstringt.h
; File C:\IAGOS\server\v18\Source\Source\_Common\lord.cpp
; File C:\Program Files\Microsoft Visual Studio\2022\Professional\VC\Tools\MSVC\14.44.35207\include\utility
; File C:\IAGOS\server\v18\Source\Source\_Common\lord.cpp
; File C:\Program Files\Microsoft Visual Studio\2022\Professional\VC\Tools\MSVC\14.44.35207\include\utility
; File C:\IAGOS\server\v18\Source\Source\_Common\lord.cpp
; File C:\Program Files\Microsoft Visual Studio\2022\Professional\VC\Tools\MSVC\14.44.35207\include\utility
; File C:\Program Files\Microsoft Visual Studio\2022\Professional\VC\Tools\MSVC\14.44.35207\include\vector
; File C:\Program Files\Microsoft Visual Studio\2022\Professional\VC\Tools\MSVC\14.44.35207\include\utility
; File C:\Program Files\Microsoft Visual Studio\2022\Professional\VC\Tools\MSVC\14.44.35207\include\vector
; File C:\Program Files\Microsoft Visual Studio\2022\Professional\VC\Tools\MSVC\14.44.35207\include\xutility
; File C:\Program Files\Microsoft Visual Studio\2022\Professional\VC\Tools\MSVC\14.44.35207\include\vector
; File C:\IAGOS\server\v18\Source\Source\_Common\lord.cpp
;	COMDAT ?Initialize@ILordEvent@@QAEHPBD@Z
_TEXT	SEGMENT
$T2 = -7836						; size = 16
$T3 = -7820						; size = 16
_fRate$4 = -7804					; size = 4
_fRate$5 = -7804					; size = 4
_s$ = -7800						; size = 7784
__$ArrayPad$ = -16					; size = 4
__$EHRec$ = -12						; size = 12
_szFile$ = 8						; size = 4
?Initialize@ILordEvent@@QAEHPBD@Z PROC			; ILordEvent::Initialize, COMDAT
; _this$ = ecx

; 449  : {

  00000	55		 push	 ebp
  00001	8b ec		 mov	 ebp, esp
  00003	6a ff		 push	 -1
  00005	68 00 00 00 00	 push	 __ehhandler$?Initialize@ILordEvent@@QAEHPBD@Z
  0000a	64 a1 00 00 00
	00		 mov	 eax, DWORD PTR fs:0
  00010	50		 push	 eax
  00011	b8 90 1e 00 00	 mov	 eax, 7824		; 00001e90H
  00016	e8 00 00 00 00	 call	 __chkstk
  0001b	a1 00 00 00 00	 mov	 eax, DWORD PTR ___security_cookie
  00020	33 c5		 xor	 eax, ebp
  00022	89 45 f0	 mov	 DWORD PTR __$ArrayPad$[ebp], eax
  00025	56		 push	 esi
  00026	57		 push	 edi
  00027	50		 push	 eax
  00028	8d 45 f4	 lea	 eax, DWORD PTR __$EHRec$[ebp]
  0002b	64 a3 00 00 00
	00		 mov	 DWORD PTR fs:0, eax
  00031	8b f9		 mov	 edi, ecx
  00033	8b 75 08	 mov	 esi, DWORD PTR _szFile$[ebp]

; 450  : 	CScript s;

  00036	8d 8d 88 e1 ff
	ff		 lea	 ecx, DWORD PTR _s$[ebp]
  0003c	6a 00		 push	 0
  0003e	e8 00 00 00 00	 call	 ??0CScript@@QAE@H@Z	; CScript::CScript

; 451  : 	if( s.Load( szFile ) == FALSE )

  00043	6a 00		 push	 0
  00045	6a 01		 push	 1
  00047	56		 push	 esi
  00048	8d 8d 88 e1 ff
	ff		 lea	 ecx, DWORD PTR _s$[ebp]
  0004e	c7 45 fc 00 00
	00 00		 mov	 DWORD PTR __$EHRec$[ebp+8], 0
  00055	e8 00 00 00 00	 call	 ?Load@CScript@@QAEHPBDHH@Z ; CScript::Load
  0005a	85 c0		 test	 eax, eax
  0005c	75 07		 jne	 SHORT $LN8@Initialize
  0005e	33 f6		 xor	 esi, esi
  00060	e9 b9 01 00 00	 jmp	 $LN14@Initialize
$LN8@Initialize:

; 452  : 		return FALSE;
; 453  : 
; 454  : 	s.GetToken();

  00065	6a 00		 push	 0
  00067	8d 8d 88 e1 ff
	ff		 lea	 ecx, DWORD PTR _s$[ebp]
  0006d	e8 00 00 00 00	 call	 ?GetToken@CScript@@UAEHH@Z ; CScript::GetToken

; 455  : 	while( s.tok != FINISHED )

  00072	83 bd cc e9 ff
	ff 15		 cmp	 DWORD PTR _s$[ebp+2116], 21 ; 00000015H
  00079	0f 84 9a 01 00
	00		 je	 $LN3@Initialize
  0007f	90		 npad	 1
$LL2@Initialize:
; File C:\Program Files\Microsoft Visual Studio\2022\Professional\VC\Tools\MSVC\14.44.35207\atlmfc\include\cstringt.h

; 184  : 		return _mbscmp( reinterpret_cast< const unsigned char* >( pszA ), reinterpret_cast< const unsigned char* >( pszB ) );

  00080	68 00 00 00 00	 push	 OFFSET ??_C@_03KHJOGHMM@exp@
  00085	ff b5 a8 e1 ff
	ff		 push	 DWORD PTR _s$[ebp+32]
  0008b	e8 00 00 00 00	 call	 __mbscmp
  00090	83 c4 08	 add	 esp, 8

; 2490 : 		return(str1.Compare(psz2) == 0);

  00093	85 c0		 test	 eax, eax
; File C:\IAGOS\server\v18\Source\Source\_Common\lord.cpp

; 457  : 		if( s.Token == _T( "exp" ) )

  00095	0f 85 a9 00 00
	00		 jne	 $LN53@Initialize

; 458  : 		{
; 459  : 			s.GetToken();	// {

  0009b	50		 push	 eax
  0009c	8d 8d 88 e1 ff
	ff		 lea	 ecx, DWORD PTR _s$[ebp]
  000a2	e8 00 00 00 00	 call	 ?GetToken@CScript@@UAEHH@Z ; CScript::GetToken

; 460  : 			float fRate	= s.GetFloat();

  000a7	6a 00		 push	 0
  000a9	8d 8d 88 e1 ff
	ff		 lea	 ecx, DWORD PTR _s$[ebp]
  000af	e8 00 00 00 00	 call	 ?GetFloat@CScanner@@QAEMH@Z ; CScanner::GetFloat

; 461  : 			while( *s.token != '}' )

  000b4	8b 85 c4 e1 ff
	ff		 mov	 eax, DWORD PTR _s$[ebp+60]
  000ba	d9 9d 84 e1 ff
	ff		 fstp	 DWORD PTR _fRate$4[ebp]
  000c0	80 38 7d	 cmp	 BYTE PTR [eax], 125	; 0000007dH
  000c3	0f 84 36 01 00
	00		 je	 $LN7@Initialize
  000c9	0f 1f 80 00 00
	00 00		 npad	 7
$LL4@Initialize:
; File C:\Program Files\Microsoft Visual Studio\2022\Professional\VC\Tools\MSVC\14.44.35207\include\utility

; 274  :         : first(_STD forward<_Other1>(_Val1)), second(_STD forward<_Other2>(_Val2)) {

  000d0	f3 0f 10 85 84
	e1 ff ff	 movss	 xmm0, DWORD PTR _fRate$4[ebp]
; File C:\IAGOS\server\v18\Source\Source\_Common\lord.cpp

; 463  : 				__int64 iCost	= s.GetInt64();

  000d8	8d 8d 88 e1 ff
	ff		 lea	 ecx, DWORD PTR _s$[ebp]
  000de	6a 00		 push	 0
; File C:\Program Files\Microsoft Visual Studio\2022\Professional\VC\Tools\MSVC\14.44.35207\include\utility

; 274  :         : first(_STD forward<_Other1>(_Val1)), second(_STD forward<_Other2>(_Val2)) {

  000e0	f3 0f 11 85 74
	e1 ff ff	 movss	 DWORD PTR $T3[ebp], xmm0
; File C:\IAGOS\server\v18\Source\Source\_Common\lord.cpp

; 463  : 				__int64 iCost	= s.GetInt64();

  000e8	e8 00 00 00 00	 call	 ?GetInt64@CScanner@@QAE_JH@Z ; CScanner::GetInt64
; File C:\Program Files\Microsoft Visual Studio\2022\Professional\VC\Tools\MSVC\14.44.35207\include\utility

; 274  :         : first(_STD forward<_Other1>(_Val1)), second(_STD forward<_Other2>(_Val2)) {

  000ed	89 85 7c e1 ff
	ff		 mov	 DWORD PTR $T3[ebp+8], eax
; File C:\Program Files\Microsoft Visual Studio\2022\Professional\VC\Tools\MSVC\14.44.35207\include\vector

; 844  :         if (_Mylast != _My_data._Myend) {

  000f3	8b 47 08	 mov	 eax, DWORD PTR [edi+8]
; File C:\Program Files\Microsoft Visual Studio\2022\Professional\VC\Tools\MSVC\14.44.35207\include\utility

; 274  :         : first(_STD forward<_Other1>(_Val1)), second(_STD forward<_Other2>(_Val2)) {

  000f6	89 95 80 e1 ff
	ff		 mov	 DWORD PTR $T3[ebp+12], edx
; File C:\Program Files\Microsoft Visual Studio\2022\Professional\VC\Tools\MSVC\14.44.35207\include\vector

; 844  :         if (_Mylast != _My_data._Myend) {

  000fc	3b 47 0c	 cmp	 eax, DWORD PTR [edi+12]
  000ff	74 10		 je	 SHORT $LN41@Initialize
; File C:\Program Files\Microsoft Visual Studio\2022\Professional\VC\Tools\MSVC\14.44.35207\include\xutility

; 476  :         ::new (static_cast<void*>(_STD addressof(_Obj))) _Ty(_STD forward<_Types>(_Args)...);

  00101	0f 10 85 74 e1
	ff ff		 movups	 xmm0, XMMWORD PTR $T3[ebp]
  00108	0f 11 00	 movups	 XMMWORD PTR [eax], xmm0
; File C:\Program Files\Microsoft Visual Studio\2022\Professional\VC\Tools\MSVC\14.44.35207\include\vector

; 869  :         ++_Mylast;

  0010b	83 47 08 10	 add	 DWORD PTR [edi+8], 16	; 00000010H

; 845  :             return _Emplace_back_with_unused_capacity(_STD forward<_Valty>(_Val)...);

  0010f	eb 10		 jmp	 SHORT $LN40@Initialize
$LN41@Initialize:

; 846  :         }
; 847  : 
; 848  :         return *_Emplace_reallocate(_Mylast, _STD forward<_Valty>(_Val)...);

  00111	8d 8d 74 e1 ff
	ff		 lea	 ecx, DWORD PTR $T3[ebp]
  00117	51		 push	 ecx
  00118	50		 push	 eax
  00119	8d 4f 04	 lea	 ecx, DWORD PTR [edi+4]
  0011c	e8 00 00 00 00	 call	 ??$_Emplace_reallocate@U?$pair@M_J@std@@@?$vector@U?$pair@M_J@std@@V?$allocator@U?$pair@M_J@std@@@2@@std@@AAEPAU?$pair@M_J@1@QAU21@$$QAU21@@Z ; std::vector<std::pair<float,__int64>,std::allocator<std::pair<float,__int64> > >::_Emplace_reallocate<std::pair<float,__int64> >
$LN40@Initialize:
; File C:\IAGOS\server\v18\Source\Source\_Common\lord.cpp

; 465  : 				fRate	= s.GetFloat();

  00121	6a 00		 push	 0
  00123	8d 8d 88 e1 ff
	ff		 lea	 ecx, DWORD PTR _s$[ebp]
  00129	e8 00 00 00 00	 call	 ?GetFloat@CScanner@@QAEMH@Z ; CScanner::GetFloat
  0012e	8b 85 c4 e1 ff
	ff		 mov	 eax, DWORD PTR _s$[ebp+60]
  00134	d9 9d 84 e1 ff
	ff		 fstp	 DWORD PTR _fRate$4[ebp]
  0013a	80 38 7d	 cmp	 BYTE PTR [eax], 125	; 0000007dH
  0013d	75 91		 jne	 SHORT $LL4@Initialize

; 466  : 			}
; 467  : 		}

  0013f	e9 bb 00 00 00	 jmp	 $LN7@Initialize
$LN53@Initialize:
; File C:\Program Files\Microsoft Visual Studio\2022\Professional\VC\Tools\MSVC\14.44.35207\atlmfc\include\cstringt.h

; 184  : 		return _mbscmp( reinterpret_cast< const unsigned char* >( pszA ), reinterpret_cast< const unsigned char* >( pszB ) );

  00144	68 00 00 00 00	 push	 OFFSET ??_C@_04NHONDGDE@item@
  00149	ff b5 a8 e1 ff
	ff		 push	 DWORD PTR _s$[ebp+32]
  0014f	e8 00 00 00 00	 call	 __mbscmp
  00154	83 c4 08	 add	 esp, 8

; 2490 : 		return(str1.Compare(psz2) == 0);

  00157	85 c0		 test	 eax, eax
; File C:\IAGOS\server\v18\Source\Source\_Common\lord.cpp

; 468  : 		else if( s.Token == _T( "item" ) )

  00159	0f 85 a0 00 00
	00		 jne	 $LN7@Initialize

; 469  : 		{
; 470  : 			s.GetToken();	// {

  0015f	50		 push	 eax
  00160	8d 8d 88 e1 ff
	ff		 lea	 ecx, DWORD PTR _s$[ebp]
  00166	e8 00 00 00 00	 call	 ?GetToken@CScript@@UAEHH@Z ; CScript::GetToken

; 471  : 			float fRate	= s.GetFloat();

  0016b	6a 00		 push	 0
  0016d	8d 8d 88 e1 ff
	ff		 lea	 ecx, DWORD PTR _s$[ebp]
  00173	e8 00 00 00 00	 call	 ?GetFloat@CScanner@@QAEMH@Z ; CScanner::GetFloat

; 472  : 			while( *s.token != '}' )

  00178	8b 85 c4 e1 ff
	ff		 mov	 eax, DWORD PTR _s$[ebp+60]
  0017e	d9 9d 84 e1 ff
	ff		 fstp	 DWORD PTR _fRate$5[ebp]
  00184	80 38 7d	 cmp	 BYTE PTR [eax], 125	; 0000007dH
  00187	0f 84 72 00 00
	00		 je	 $LN7@Initialize
  0018d	0f 1f 00	 npad	 3
$LL6@Initialize:
; File C:\Program Files\Microsoft Visual Studio\2022\Professional\VC\Tools\MSVC\14.44.35207\include\utility

; 274  :         : first(_STD forward<_Other1>(_Val1)), second(_STD forward<_Other2>(_Val2)) {

  00190	f3 0f 10 85 84
	e1 ff ff	 movss	 xmm0, DWORD PTR _fRate$5[ebp]
; File C:\IAGOS\server\v18\Source\Source\_Common\lord.cpp

; 474  : 				__int64 iCost	= s.GetInt64();

  00198	8d 8d 88 e1 ff
	ff		 lea	 ecx, DWORD PTR _s$[ebp]
  0019e	6a 00		 push	 0
; File C:\Program Files\Microsoft Visual Studio\2022\Professional\VC\Tools\MSVC\14.44.35207\include\utility

; 274  :         : first(_STD forward<_Other1>(_Val1)), second(_STD forward<_Other2>(_Val2)) {

  001a0	f3 0f 11 85 64
	e1 ff ff	 movss	 DWORD PTR $T2[ebp], xmm0
; File C:\IAGOS\server\v18\Source\Source\_Common\lord.cpp

; 474  : 				__int64 iCost	= s.GetInt64();

  001a8	e8 00 00 00 00	 call	 ?GetInt64@CScanner@@QAE_JH@Z ; CScanner::GetInt64
; File C:\Program Files\Microsoft Visual Studio\2022\Professional\VC\Tools\MSVC\14.44.35207\include\utility

; 274  :         : first(_STD forward<_Other1>(_Val1)), second(_STD forward<_Other2>(_Val2)) {

  001ad	89 85 6c e1 ff
	ff		 mov	 DWORD PTR $T2[ebp+8], eax
; File C:\Program Files\Microsoft Visual Studio\2022\Professional\VC\Tools\MSVC\14.44.35207\include\vector

; 844  :         if (_Mylast != _My_data._Myend) {

  001b3	8b 47 14	 mov	 eax, DWORD PTR [edi+20]
; File C:\Program Files\Microsoft Visual Studio\2022\Professional\VC\Tools\MSVC\14.44.35207\include\utility

; 274  :         : first(_STD forward<_Other1>(_Val1)), second(_STD forward<_Other2>(_Val2)) {

  001b6	89 95 70 e1 ff
	ff		 mov	 DWORD PTR $T2[ebp+12], edx
; File C:\Program Files\Microsoft Visual Studio\2022\Professional\VC\Tools\MSVC\14.44.35207\include\vector

; 844  :         if (_Mylast != _My_data._Myend) {

  001bc	3b 47 18	 cmp	 eax, DWORD PTR [edi+24]
  001bf	74 10		 je	 SHORT $LN73@Initialize
; File C:\Program Files\Microsoft Visual Studio\2022\Professional\VC\Tools\MSVC\14.44.35207\include\xutility

; 476  :         ::new (static_cast<void*>(_STD addressof(_Obj))) _Ty(_STD forward<_Types>(_Args)...);

  001c1	0f 10 85 64 e1
	ff ff		 movups	 xmm0, XMMWORD PTR $T2[ebp]
  001c8	0f 11 00	 movups	 XMMWORD PTR [eax], xmm0
; File C:\Program Files\Microsoft Visual Studio\2022\Professional\VC\Tools\MSVC\14.44.35207\include\vector

; 869  :         ++_Mylast;

  001cb	83 47 14 10	 add	 DWORD PTR [edi+20], 16	; 00000010H

; 845  :             return _Emplace_back_with_unused_capacity(_STD forward<_Valty>(_Val)...);

  001cf	eb 10		 jmp	 SHORT $LN72@Initialize
$LN73@Initialize:

; 846  :         }
; 847  : 
; 848  :         return *_Emplace_reallocate(_Mylast, _STD forward<_Valty>(_Val)...);

  001d1	8d 8d 64 e1 ff
	ff		 lea	 ecx, DWORD PTR $T2[ebp]
  001d7	51		 push	 ecx
  001d8	50		 push	 eax
  001d9	8d 4f 10	 lea	 ecx, DWORD PTR [edi+16]
  001dc	e8 00 00 00 00	 call	 ??$_Emplace_reallocate@U?$pair@M_J@std@@@?$vector@U?$pair@M_J@std@@V?$allocator@U?$pair@M_J@std@@@2@@std@@AAEPAU?$pair@M_J@1@QAU21@$$QAU21@@Z ; std::vector<std::pair<float,__int64>,std::allocator<std::pair<float,__int64> > >::_Emplace_reallocate<std::pair<float,__int64> >
$LN72@Initialize:
; File C:\IAGOS\server\v18\Source\Source\_Common\lord.cpp

; 476  : 				fRate	= s.GetFloat();

  001e1	6a 00		 push	 0
  001e3	8d 8d 88 e1 ff
	ff		 lea	 ecx, DWORD PTR _s$[ebp]
  001e9	e8 00 00 00 00	 call	 ?GetFloat@CScanner@@QAEMH@Z ; CScanner::GetFloat
  001ee	8b 85 c4 e1 ff
	ff		 mov	 eax, DWORD PTR _s$[ebp+60]
  001f4	d9 9d 84 e1 ff
	ff		 fstp	 DWORD PTR _fRate$5[ebp]
  001fa	80 38 7d	 cmp	 BYTE PTR [eax], 125	; 0000007dH
  001fd	75 91		 jne	 SHORT $LL6@Initialize
$LN7@Initialize:

; 477  : 			}
; 478  : 		}
; 479  : 		s.GetToken();

  001ff	6a 00		 push	 0
  00201	8d 8d 88 e1 ff
	ff		 lea	 ecx, DWORD PTR _s$[ebp]
  00207	e8 00 00 00 00	 call	 ?GetToken@CScript@@UAEHH@Z ; CScript::GetToken
  0020c	83 bd cc e9 ff
	ff 15		 cmp	 DWORD PTR _s$[ebp+2116], 21 ; 00000015H
  00213	0f 85 67 fe ff
	ff		 jne	 $LL2@Initialize
$LN3@Initialize:

; 480  : 	}
; 481  : 	return TRUE;

  00219	be 01 00 00 00	 mov	 esi, 1
$LN14@Initialize:
  0021e	8d 8d 88 e1 ff
	ff		 lea	 ecx, DWORD PTR _s$[ebp]
  00224	e8 00 00 00 00	 call	 ??1CScript@@UAE@XZ	; CScript::~CScript
  00229	8b c6		 mov	 eax, esi

; 482  : }

  0022b	8b 4d f4	 mov	 ecx, DWORD PTR __$EHRec$[ebp]
  0022e	64 89 0d 00 00
	00 00		 mov	 DWORD PTR fs:0, ecx
  00235	59		 pop	 ecx
  00236	5f		 pop	 edi
  00237	5e		 pop	 esi
  00238	8b 4d f0	 mov	 ecx, DWORD PTR __$ArrayPad$[ebp]
  0023b	33 cd		 xor	 ecx, ebp
  0023d	e8 00 00 00 00	 call	 @__security_check_cookie@4
  00242	8b e5		 mov	 esp, ebp
  00244	5d		 pop	 ebp
  00245	c2 04 00	 ret	 4
_TEXT	ENDS
;	COMDAT text$x
text$x	SEGMENT
__unwindfunclet$?Initialize@ILordEvent@@QAEHPBD@Z$0:
  00000	8d 8d 88 e1 ff
	ff		 lea	 ecx, DWORD PTR _s$[ebp]
  00006	e9 00 00 00 00	 jmp	 ??1CScript@@UAE@XZ	; CScript::~CScript
  0000b	cc		 int	 3
  0000c	cc		 int	 3
  0000d	cc		 int	 3
  0000e	cc		 int	 3
  0000f	cc		 int	 3
__ehhandler$?Initialize@ILordEvent@@QAEHPBD@Z:
  00010	90		 npad	 1
  00011	90		 npad	 1
  00012	8b 54 24 08	 mov	 edx, DWORD PTR [esp+8]
  00016	8d 42 0c	 lea	 eax, DWORD PTR [edx+12]
  00019	8b 8a 64 e1 ff
	ff		 mov	 ecx, DWORD PTR [edx-7836]
  0001f	33 c8		 xor	 ecx, eax
  00021	e8 00 00 00 00	 call	 @__security_check_cookie@4
  00026	8b 4a fc	 mov	 ecx, DWORD PTR [edx-4]
  00029	33 c8		 xor	 ecx, eax
  0002b	e8 00 00 00 00	 call	 @__security_check_cookie@4
  00030	b8 00 00 00 00	 mov	 eax, OFFSET __ehfuncinfo$?Initialize@ILordEvent@@QAEHPBD@Z
  00035	e9 00 00 00 00	 jmp	 ___CxxFrameHandler3
text$x	ENDS
?Initialize@ILordEvent@@QAEHPBD@Z ENDP			; ILordEvent::Initialize
; Function compile flags: /Ogtp
; File C:\IAGOS\server\v18\Source\Source\_Common\lord.cpp
; File C:\IAGOS\server\v18\Source\Source\_Network\Misc\Include\Ar.h
; File C:\IAGOS\server\v18\Source\Source\_Common\lord.cpp
; File C:\IAGOS\server\v18\Source\Source\_Network\Misc\Include\Ar.h
; File C:\IAGOS\server\v18\Source\Source\_Common\lord.cpp
; File C:\Program Files\Microsoft Visual Studio\2022\Professional\VC\Tools\MSVC\14.44.35207\include\vector
; File C:\IAGOS\server\v18\Source\Source\_Common\lord.cpp
; File C:\Program Files\Microsoft Visual Studio\2022\Professional\VC\Tools\MSVC\14.44.35207\include\vector
; File C:\IAGOS\server\v18\Source\Source\_Common\lord.cpp
; File C:\Program Files\Microsoft Visual Studio\2022\Professional\VC\Tools\MSVC\14.44.35207\include\vector
; File C:\IAGOS\server\v18\Source\Source\_Common\lord.cpp
; File C:\Program Files\Microsoft Visual Studio\2022\Professional\VC\Tools\MSVC\14.44.35207\include\vector
; File C:\IAGOS\server\v18\Source\Source\_Common\lord.cpp
;	COMDAT ?Serialize@ILordEvent@@QAEXAAVCAr@@@Z
_TEXT	SEGMENT
$T1 = -4						; size = 4
_ar$ = 8						; size = 4
$T2 = 8							; size = 4
_nSize$3 = 8						; size = 4
_nSize$1$ = 8						; size = 4
?Serialize@ILordEvent@@QAEXAAVCAr@@@Z PROC		; ILordEvent::Serialize, COMDAT
; _this$ = ecx

; 583  : {

  00000	55		 push	 ebp
  00001	8b ec		 mov	 ebp, esp
  00003	51		 push	 ecx
  00004	53		 push	 ebx
; File C:\IAGOS\server\v18\Source\Source\_Network\Misc\Include\Ar.h

; 146  : 	return (m_nMode & CAr::load) == 0;

  00005	8b 5d 08	 mov	 ebx, DWORD PTR _ar$[ebp]
; File C:\IAGOS\server\v18\Source\Source\_Common\lord.cpp

; 583  : {

  00008	56		 push	 esi
  00009	57		 push	 edi
  0000a	8b f9		 mov	 edi, ecx
; File C:\IAGOS\server\v18\Source\Source\_Network\Misc\Include\Ar.h

; 146  : 	return (m_nMode & CAr::load) == 0;

  0000c	f6 03 01	 test	 BYTE PTR [ebx], 1
; File C:\IAGOS\server\v18\Source\Source\_Common\lord.cpp

; 584  : 	if( ar.IsStoring() )

  0000f	75 38		 jne	 SHORT $LN8@Serialize
; File C:\Program Files\Microsoft Visual Studio\2022\Professional\VC\Tools\MSVC\14.44.35207\include\vector

; 1915 :         return static_cast<size_type>(_My_data._Mylast - _My_data._Myfirst);

  00011	8b 47 20	 mov	 eax, DWORD PTR [edi+32]
; File C:\IAGOS\server\v18\Source\Source\_Common\lord.cpp

; 586  : 		ar << m_vComponents.size();

  00014	8b cb		 mov	 ecx, ebx
; File C:\Program Files\Microsoft Visual Studio\2022\Professional\VC\Tools\MSVC\14.44.35207\include\vector

; 1915 :         return static_cast<size_type>(_My_data._Mylast - _My_data._Myfirst);

  00016	2b 47 1c	 sub	 eax, DWORD PTR [edi+28]
  00019	c1 f8 02	 sar	 eax, 2
; File C:\IAGOS\server\v18\Source\Source\_Common\lord.cpp

; 586  : 		ar << m_vComponents.size();

  0001c	89 45 08	 mov	 DWORD PTR $T2[ebp], eax
  0001f	8d 45 08	 lea	 eax, DWORD PTR $T2[ebp]
  00022	50		 push	 eax
  00023	e8 00 00 00 00	 call	 ??$?6I@CAr@@QAEAAV0@ABI@Z ; CAr::operator<<<unsigned int>
; File C:\Program Files\Microsoft Visual Studio\2022\Professional\VC\Tools\MSVC\14.44.35207\include\vector

; 46   :     _CONSTEXPR20 _Vector_const_iterator(_Tptr _Parg, const _Container_base* _Pvector) noexcept : _Ptr(_Parg) {

  00028	8b 77 1c	 mov	 esi, DWORD PTR [edi+28]

; 176  :         return !(*this == _Right);

  0002b	3b 77 20	 cmp	 esi, DWORD PTR [edi+32]
; File C:\IAGOS\server\v18\Source\Source\_Common\lord.cpp

; 587  : 		for( VLEC::iterator i = m_vComponents.begin(); i != m_vComponents.end(); ++i )

  0002e	74 69		 je	 SHORT $LN6@Serialize
$LL4@Serialize:

; 588  : 			( *i )->Serialize( ar );

  00030	8b 0e		 mov	 ecx, DWORD PTR [esi]
  00032	53		 push	 ebx
  00033	e8 00 00 00 00	 call	 ?Serialize@CLEComponent@@QAEXAAVCAr@@@Z ; CLEComponent::Serialize
; File C:\Program Files\Microsoft Visual Studio\2022\Professional\VC\Tools\MSVC\14.44.35207\include\vector

; 82   :         ++_Ptr;

  00038	83 c6 04	 add	 esi, 4

; 176  :         return !(*this == _Right);

  0003b	3b 77 20	 cmp	 esi, DWORD PTR [edi+32]
; File C:\IAGOS\server\v18\Source\Source\_Common\lord.cpp

; 587  : 		for( VLEC::iterator i = m_vComponents.begin(); i != m_vComponents.end(); ++i )

  0003e	75 f0		 jne	 SHORT $LL4@Serialize

; 600  : 		}
; 601  : 	}
; 602  : }

  00040	5f		 pop	 edi
  00041	5e		 pop	 esi
  00042	5b		 pop	 ebx
  00043	8b e5		 mov	 esp, ebp
  00045	5d		 pop	 ebp
  00046	c2 04 00	 ret	 4
$LN8@Serialize:

; 589  : 	}
; 590  : 	else
; 591  : 	{
; 592  : 		Clear();

  00049	e8 00 00 00 00	 call	 ?Clear@ILordEvent@@QAEXXZ ; ILordEvent::Clear

; 593  : 		size_t nSize;
; 594  : 		ar >> nSize;

  0004e	8d 45 08	 lea	 eax, DWORD PTR _nSize$3[ebp]
  00051	8b cb		 mov	 ecx, ebx
  00053	50		 push	 eax
  00054	e8 00 00 00 00	 call	 ??$?5I@CAr@@QAEAAV0@AAI@Z ; CAr::operator>><unsigned int>

; 595  : 		for( size_t i = 0; i < nSize; i++ )

  00059	8b 45 08	 mov	 eax, DWORD PTR _nSize$3[ebp]
  0005c	89 45 08	 mov	 DWORD PTR _nSize$1$[ebp], eax
  0005f	85 c0		 test	 eax, eax
  00061	74 36		 je	 SHORT $LN6@Serialize
$LL7@Serialize:

; 596  : 		{
; 597  : 			CLEComponent* pComponent	= new CLEComponent;

  00063	6a 14		 push	 20			; 00000014H
  00065	e8 00 00 00 00	 call	 ??2@YAPAXI@Z		; operator new
  0006a	83 c4 04	 add	 esp, 4
  0006d	89 45 fc	 mov	 DWORD PTR $T1[ebp], eax
  00070	85 c0		 test	 eax, eax
  00072	74 0b		 je	 SHORT $LN11@Serialize
  00074	8b c8		 mov	 ecx, eax
  00076	e8 00 00 00 00	 call	 ??0CLEComponent@@QAE@XZ	; CLEComponent::CLEComponent
  0007b	8b f0		 mov	 esi, eax
  0007d	eb 02		 jmp	 SHORT $LN12@Serialize
$LN11@Serialize:
  0007f	33 f6		 xor	 esi, esi
$LN12@Serialize:

; 598  : 			pComponent->Serialize( ar );

  00081	53		 push	 ebx
  00082	8b ce		 mov	 ecx, esi
  00084	e8 00 00 00 00	 call	 ?Serialize@CLEComponent@@QAEXAAVCAr@@@Z ; CLEComponent::Serialize

; 599  : 			AddComponent( pComponent, FALSE );

  00089	6a 00		 push	 0
  0008b	56		 push	 esi
  0008c	8b cf		 mov	 ecx, edi
  0008e	e8 00 00 00 00	 call	 ?AddComponent@ILordEvent@@QAEXPAVCLEComponent@@H@Z ; ILordEvent::AddComponent
  00093	83 6d 08 01	 sub	 DWORD PTR _nSize$1$[ebp], 1
  00097	75 ca		 jne	 SHORT $LL7@Serialize
$LN6@Serialize:
  00099	5f		 pop	 edi

; 600  : 		}
; 601  : 	}
; 602  : }

  0009a	5e		 pop	 esi
  0009b	5b		 pop	 ebx
  0009c	8b e5		 mov	 esp, ebp
  0009e	5d		 pop	 ebp
  0009f	c2 04 00	 ret	 4
?Serialize@ILordEvent@@QAEXAAVCAr@@@Z ENDP		; ILordEvent::Serialize
_TEXT	ENDS
; Function compile flags: /Ogtp
; File C:\IAGOS\server\v18\Source\Source\_Common\lord.cpp
; File C:\Program Files\Microsoft Visual Studio\2022\Professional\VC\Tools\MSVC\14.44.35207\include\vector
; File C:\IAGOS\server\v18\Source\Source\_Common\lord.cpp
; File C:\Program Files\Microsoft Visual Studio\2022\Professional\VC\Tools\MSVC\14.44.35207\include\vector
; File C:\IAGOS\server\v18\Source\Source\_Common\lord.cpp
; File C:\Program Files\Microsoft Visual Studio\2022\Professional\VC\Tools\MSVC\14.44.35207\include\vector
; File C:\IAGOS\server\v18\Source\Source\_Common\lord.cpp
; File C:\Program Files\Microsoft Visual Studio\2022\Professional\VC\Tools\MSVC\14.44.35207\include\vector
; File C:\IAGOS\server\v18\Source\Source\_Common\lord.cpp
;	COMDAT ?GetIFactor@ILordEvent@@QAEMXZ
_TEXT	SEGMENT
_fItemFactor$ = -4					; size = 4
?GetIFactor@ILordEvent@@QAEMXZ PROC			; ILordEvent::GetIFactor, COMDAT
; _this$ = ecx

; 575  : {

  00000	55		 push	 ebp
  00001	8b ec		 mov	 ebp, esp
  00003	51		 push	 ecx

; 576  : 	float fItemFactor		= 1.0F;

  00004	f3 0f 10 05 00
	00 00 00	 movss	 xmm0, DWORD PTR __real@3f800000
; File C:\Program Files\Microsoft Visual Studio\2022\Professional\VC\Tools\MSVC\14.44.35207\include\vector

; 46   :     _CONSTEXPR20 _Vector_const_iterator(_Tptr _Parg, const _Container_base* _Pvector) noexcept : _Ptr(_Parg) {

  0000c	8b 41 1c	 mov	 eax, DWORD PTR [ecx+28]
  0000f	8b 51 20	 mov	 edx, DWORD PTR [ecx+32]
; File C:\IAGOS\server\v18\Source\Source\_Common\lord.cpp

; 576  : 	float fItemFactor		= 1.0F;

  00012	f3 0f 11 45 fc	 movss	 DWORD PTR _fItemFactor$[ebp], xmm0
; File C:\Program Files\Microsoft Visual Studio\2022\Professional\VC\Tools\MSVC\14.44.35207\include\vector

; 176  :         return !(*this == _Right);

  00017	3b c2		 cmp	 eax, edx
; File C:\IAGOS\server\v18\Source\Source\_Common\lord.cpp

; 577  : 	for( VLEC::iterator i = m_vComponents.begin(); i != m_vComponents.end(); ++i )

  00019	74 18		 je	 SHORT $LN40@GetIFactor
  0001b	0f 1f 44 00 00	 npad	 5
$LL4@GetIFactor:

; 578  : 		fItemFactor		+= ( *i )->GetIFactor();

  00020	8b 08		 mov	 ecx, DWORD PTR [eax]
; File C:\Program Files\Microsoft Visual Studio\2022\Professional\VC\Tools\MSVC\14.44.35207\include\vector

; 82   :         ++_Ptr;

  00022	83 c0 04	 add	 eax, 4
; File C:\IAGOS\server\v18\Source\Source\_Common\lord.cpp

; 578  : 		fItemFactor		+= ( *i )->GetIFactor();

  00025	f3 0f 58 41 10	 addss	 xmm0, DWORD PTR [ecx+16]
; File C:\Program Files\Microsoft Visual Studio\2022\Professional\VC\Tools\MSVC\14.44.35207\include\vector

; 176  :         return !(*this == _Right);

  0002a	3b c2		 cmp	 eax, edx
; File C:\IAGOS\server\v18\Source\Source\_Common\lord.cpp

; 577  : 	for( VLEC::iterator i = m_vComponents.begin(); i != m_vComponents.end(); ++i )

  0002c	75 f2		 jne	 SHORT $LL4@GetIFactor

; 578  : 		fItemFactor		+= ( *i )->GetIFactor();

  0002e	f3 0f 11 45 fc	 movss	 DWORD PTR _fItemFactor$[ebp], xmm0
$LN40@GetIFactor:

; 579  : 	return fItemFactor;
; 580  : }

  00033	d9 45 fc	 fld	 DWORD PTR _fItemFactor$[ebp]
  00036	8b e5		 mov	 esp, ebp
  00038	5d		 pop	 ebp
  00039	c3		 ret	 0
?GetIFactor@ILordEvent@@QAEMXZ ENDP			; ILordEvent::GetIFactor
_TEXT	ENDS
; Function compile flags: /Ogtp
; File C:\IAGOS\server\v18\Source\Source\_Common\lord.cpp
; File C:\Program Files\Microsoft Visual Studio\2022\Professional\VC\Tools\MSVC\14.44.35207\include\vector
; File C:\IAGOS\server\v18\Source\Source\_Common\lord.cpp
; File C:\Program Files\Microsoft Visual Studio\2022\Professional\VC\Tools\MSVC\14.44.35207\include\vector
; File C:\IAGOS\server\v18\Source\Source\_Common\lord.cpp
; File C:\Program Files\Microsoft Visual Studio\2022\Professional\VC\Tools\MSVC\14.44.35207\include\vector
; File C:\IAGOS\server\v18\Source\Source\_Common\lord.cpp
; File C:\Program Files\Microsoft Visual Studio\2022\Professional\VC\Tools\MSVC\14.44.35207\include\vector
; File C:\IAGOS\server\v18\Source\Source\_Common\lord.cpp
;	COMDAT ?GetEFactor@ILordEvent@@QAEMXZ
_TEXT	SEGMENT
_fExpFactor$ = -4					; size = 4
?GetEFactor@ILordEvent@@QAEMXZ PROC			; ILordEvent::GetEFactor, COMDAT
; _this$ = ecx

; 567  : {

  00000	55		 push	 ebp
  00001	8b ec		 mov	 ebp, esp
  00003	51		 push	 ecx

; 568  : 	float fExpFactor	= 1.0F;

  00004	f3 0f 10 05 00
	00 00 00	 movss	 xmm0, DWORD PTR __real@3f800000
; File C:\Program Files\Microsoft Visual Studio\2022\Professional\VC\Tools\MSVC\14.44.35207\include\vector

; 46   :     _CONSTEXPR20 _Vector_const_iterator(_Tptr _Parg, const _Container_base* _Pvector) noexcept : _Ptr(_Parg) {

  0000c	8b 41 1c	 mov	 eax, DWORD PTR [ecx+28]
  0000f	8b 51 20	 mov	 edx, DWORD PTR [ecx+32]
; File C:\IAGOS\server\v18\Source\Source\_Common\lord.cpp

; 568  : 	float fExpFactor	= 1.0F;

  00012	f3 0f 11 45 fc	 movss	 DWORD PTR _fExpFactor$[ebp], xmm0
; File C:\Program Files\Microsoft Visual Studio\2022\Professional\VC\Tools\MSVC\14.44.35207\include\vector

; 176  :         return !(*this == _Right);

  00017	3b c2		 cmp	 eax, edx
; File C:\IAGOS\server\v18\Source\Source\_Common\lord.cpp

; 569  : 	for( VLEC::iterator i = m_vComponents.begin(); i != m_vComponents.end(); ++i )

  00019	74 18		 je	 SHORT $LN40@GetEFactor
  0001b	0f 1f 44 00 00	 npad	 5
$LL4@GetEFactor:

; 570  : 		fExpFactor	+= ( *i )->GetEFactor();

  00020	8b 08		 mov	 ecx, DWORD PTR [eax]
; File C:\Program Files\Microsoft Visual Studio\2022\Professional\VC\Tools\MSVC\14.44.35207\include\vector

; 82   :         ++_Ptr;

  00022	83 c0 04	 add	 eax, 4
; File C:\IAGOS\server\v18\Source\Source\_Common\lord.cpp

; 570  : 		fExpFactor	+= ( *i )->GetEFactor();

  00025	f3 0f 58 41 0c	 addss	 xmm0, DWORD PTR [ecx+12]
; File C:\Program Files\Microsoft Visual Studio\2022\Professional\VC\Tools\MSVC\14.44.35207\include\vector

; 176  :         return !(*this == _Right);

  0002a	3b c2		 cmp	 eax, edx
; File C:\IAGOS\server\v18\Source\Source\_Common\lord.cpp

; 569  : 	for( VLEC::iterator i = m_vComponents.begin(); i != m_vComponents.end(); ++i )

  0002c	75 f2		 jne	 SHORT $LL4@GetEFactor

; 570  : 		fExpFactor	+= ( *i )->GetEFactor();

  0002e	f3 0f 11 45 fc	 movss	 DWORD PTR _fExpFactor$[ebp], xmm0
$LN40@GetEFactor:

; 571  : 	return fExpFactor;
; 572  : }

  00033	d9 45 fc	 fld	 DWORD PTR _fExpFactor$[ebp]
  00036	8b e5		 mov	 esp, ebp
  00038	5d		 pop	 ebp
  00039	c3		 ret	 0
?GetEFactor@ILordEvent@@QAEMXZ ENDP			; ILordEvent::GetEFactor
_TEXT	ENDS
; Function compile flags: /Ogtp
; File C:\IAGOS\server\v18\Source\Source\_Common\lord.cpp
; File C:\Program Files\Microsoft Visual Studio\2022\Professional\VC\Tools\MSVC\14.44.35207\include\vector
; File C:\IAGOS\server\v18\Source\Source\_Common\lord.cpp
; File C:\Program Files\Microsoft Visual Studio\2022\Professional\VC\Tools\MSVC\14.44.35207\include\vector
; File C:\IAGOS\server\v18\Source\Source\_Common\lord.cpp
; File C:\Program Files\Microsoft Visual Studio\2022\Professional\VC\Tools\MSVC\14.44.35207\include\vector
; File C:\IAGOS\server\v18\Source\Source\_Common\lord.cpp
;	COMDAT ?GetIFactor@ILordEvent@@QAEMH@Z
_TEXT	SEGMENT
_iIEvent$ = 8						; size = 4
?GetIFactor@ILordEvent@@QAEMH@Z PROC			; ILordEvent::GetIFactor, COMDAT
; _this$ = ecx

; 502  : {

  00000	55		 push	 ebp
  00001	8b ec		 mov	 ebp, esp
; File C:\Program Files\Microsoft Visual Studio\2022\Professional\VC\Tools\MSVC\14.44.35207\include\vector

; 1915 :         return static_cast<size_type>(_My_data._Mylast - _My_data._Myfirst);

  00003	8b 41 14	 mov	 eax, DWORD PTR [ecx+20]
  00006	8b 51 10	 mov	 edx, DWORD PTR [ecx+16]
  00009	2b c2		 sub	 eax, edx
; File C:\IAGOS\server\v18\Source\Source\_Common\lord.cpp

; 503  : 	if( iIEvent >= (int)( m_vIFactor.size() ) )

  0000b	8b 4d 08	 mov	 ecx, DWORD PTR _iIEvent$[ebp]
; File C:\Program Files\Microsoft Visual Studio\2022\Professional\VC\Tools\MSVC\14.44.35207\include\vector

; 1915 :         return static_cast<size_type>(_My_data._Mylast - _My_data._Myfirst);

  0000e	c1 f8 04	 sar	 eax, 4
; File C:\IAGOS\server\v18\Source\Source\_Common\lord.cpp

; 503  : 	if( iIEvent >= (int)( m_vIFactor.size() ) )

  00011	3b c8		 cmp	 ecx, eax
  00013	7c 06		 jl	 SHORT $LN2@GetIFactor

; 504  : 		return 1.0F;

  00015	d9 e8		 fld1

; 506  : }

  00017	5d		 pop	 ebp
  00018	c2 04 00	 ret	 4
$LN2@GetIFactor:
; File C:\Program Files\Microsoft Visual Studio\2022\Professional\VC\Tools\MSVC\14.44.35207\include\vector

; 1934 :         return _My_data._Myfirst[_Pos];

  0001b	c1 e1 04	 shl	 ecx, 4
; File C:\IAGOS\server\v18\Source\Source\_Common\lord.cpp

; 505  : 	return m_vIFactor[iIEvent].first;

  0001e	d9 04 11	 fld	 DWORD PTR [ecx+edx]

; 506  : }

  00021	5d		 pop	 ebp
  00022	c2 04 00	 ret	 4
?GetIFactor@ILordEvent@@QAEMH@Z ENDP			; ILordEvent::GetIFactor
_TEXT	ENDS
; Function compile flags: /Ogtp
; File C:\IAGOS\server\v18\Source\Source\_Common\lord.cpp
; File C:\Program Files\Microsoft Visual Studio\2022\Professional\VC\Tools\MSVC\14.44.35207\include\vector
; File C:\IAGOS\server\v18\Source\Source\_Common\lord.cpp
; File C:\Program Files\Microsoft Visual Studio\2022\Professional\VC\Tools\MSVC\14.44.35207\include\vector
; File C:\IAGOS\server\v18\Source\Source\_Common\lord.cpp
; File C:\Program Files\Microsoft Visual Studio\2022\Professional\VC\Tools\MSVC\14.44.35207\include\vector
; File C:\IAGOS\server\v18\Source\Source\_Common\lord.cpp
;	COMDAT ?GetEFactor@ILordEvent@@QAEMH@Z
_TEXT	SEGMENT
_iEEvent$ = 8						; size = 4
?GetEFactor@ILordEvent@@QAEMH@Z PROC			; ILordEvent::GetEFactor, COMDAT
; _this$ = ecx

; 494  : {

  00000	55		 push	 ebp
  00001	8b ec		 mov	 ebp, esp
; File C:\Program Files\Microsoft Visual Studio\2022\Professional\VC\Tools\MSVC\14.44.35207\include\vector

; 1915 :         return static_cast<size_type>(_My_data._Mylast - _My_data._Myfirst);

  00003	8b 41 08	 mov	 eax, DWORD PTR [ecx+8]
  00006	8b 51 04	 mov	 edx, DWORD PTR [ecx+4]
  00009	2b c2		 sub	 eax, edx
; File C:\IAGOS\server\v18\Source\Source\_Common\lord.cpp

; 495  : 	if( iEEvent >= (int)( m_vEFactor.size() ) )

  0000b	8b 4d 08	 mov	 ecx, DWORD PTR _iEEvent$[ebp]
; File C:\Program Files\Microsoft Visual Studio\2022\Professional\VC\Tools\MSVC\14.44.35207\include\vector

; 1915 :         return static_cast<size_type>(_My_data._Mylast - _My_data._Myfirst);

  0000e	c1 f8 04	 sar	 eax, 4
; File C:\IAGOS\server\v18\Source\Source\_Common\lord.cpp

; 495  : 	if( iEEvent >= (int)( m_vEFactor.size() ) )

  00011	3b c8		 cmp	 ecx, eax
  00013	7c 06		 jl	 SHORT $LN2@GetEFactor

; 496  : 		return 1.0F;

  00015	d9 e8		 fld1

; 499  : }

  00017	5d		 pop	 ebp
  00018	c2 04 00	 ret	 4
$LN2@GetEFactor:
; File C:\Program Files\Microsoft Visual Studio\2022\Professional\VC\Tools\MSVC\14.44.35207\include\vector

; 1934 :         return _My_data._Myfirst[_Pos];

  0001b	c1 e1 04	 shl	 ecx, 4
; File C:\IAGOS\server\v18\Source\Source\_Common\lord.cpp

; 498  : 	return m_vEFactor[iEEvent].first;

  0001e	d9 04 11	 fld	 DWORD PTR [ecx+edx]

; 499  : }

  00021	5d		 pop	 ebp
  00022	c2 04 00	 ret	 4
?GetEFactor@ILordEvent@@QAEMH@Z ENDP			; ILordEvent::GetEFactor
_TEXT	ENDS
; Function compile flags: /Ogtp
; File C:\IAGOS\server\v18\Source\Source\_Common\lord.cpp
; File C:\Program Files\Microsoft Visual Studio\2022\Professional\VC\Tools\MSVC\14.44.35207\include\vector
; File C:\IAGOS\server\v18\Source\Source\_Common\lord.cpp
; File C:\Program Files\Microsoft Visual Studio\2022\Professional\VC\Tools\MSVC\14.44.35207\include\vector
; File C:\IAGOS\server\v18\Source\Source\_Common\lord.cpp
; File C:\Program Files\Microsoft Visual Studio\2022\Professional\VC\Tools\MSVC\14.44.35207\include\vector
; File C:\IAGOS\server\v18\Source\Source\_Common\lord.cpp
;	COMDAT ?GetCost@ILordEvent@@QAE_JHH@Z
_TEXT	SEGMENT
_iEEvent$ = 8						; size = 4
_iIEvent$ = 12						; size = 4
?GetCost@ILordEvent@@QAE_JHH@Z PROC			; ILordEvent::GetCost, COMDAT
; _this$ = ecx

; 485  : {

  00000	55		 push	 ebp
  00001	8b ec		 mov	 ebp, esp

; 486  : 	if( iEEvent == 0 && iIEvent == 0 )

  00003	8b 55 0c	 mov	 edx, DWORD PTR _iIEvent$[ebp]
  00006	53		 push	 ebx
  00007	56		 push	 esi
  00008	8b 75 08	 mov	 esi, DWORD PTR _iEEvent$[ebp]
  0000b	57		 push	 edi
  0000c	85 f6		 test	 esi, esi
  0000e	75 04		 jne	 SHORT $LN2@GetCost
  00010	85 d2		 test	 edx, edx
  00012	74 3a		 je	 SHORT $LN4@GetCost
$LN2@GetCost:
; File C:\Program Files\Microsoft Visual Studio\2022\Professional\VC\Tools\MSVC\14.44.35207\include\vector

; 1915 :         return static_cast<size_type>(_My_data._Mylast - _My_data._Myfirst);

  00014	8b 41 08	 mov	 eax, DWORD PTR [ecx+8]
  00017	8b 79 04	 mov	 edi, DWORD PTR [ecx+4]
  0001a	2b c7		 sub	 eax, edi
  0001c	c1 f8 04	 sar	 eax, 4
; File C:\IAGOS\server\v18\Source\Source\_Common\lord.cpp

; 488  : 	if( iEEvent >= (int)( m_vEFactor.size() ) || iIEvent >= (int)( m_vIFactor.size() ) )

  0001f	3b f0		 cmp	 esi, eax
  00021	7d 2b		 jge	 SHORT $LN4@GetCost
; File C:\Program Files\Microsoft Visual Studio\2022\Professional\VC\Tools\MSVC\14.44.35207\include\vector

; 1915 :         return static_cast<size_type>(_My_data._Mylast - _My_data._Myfirst);

  00023	8b 41 14	 mov	 eax, DWORD PTR [ecx+20]
  00026	8b 59 10	 mov	 ebx, DWORD PTR [ecx+16]
  00029	2b c3		 sub	 eax, ebx
  0002b	c1 f8 04	 sar	 eax, 4
; File C:\IAGOS\server\v18\Source\Source\_Common\lord.cpp

; 488  : 	if( iEEvent >= (int)( m_vEFactor.size() ) || iIEvent >= (int)( m_vIFactor.size() ) )

  0002e	3b d0		 cmp	 edx, eax
  00030	7d 1c		 jge	 SHORT $LN4@GetCost
; File C:\Program Files\Microsoft Visual Studio\2022\Professional\VC\Tools\MSVC\14.44.35207\include\vector

; 1934 :         return _My_data._Myfirst[_Pos];

  00032	03 d2		 add	 edx, edx
  00034	c1 e6 04	 shl	 esi, 4
; File C:\IAGOS\server\v18\Source\Source\_Common\lord.cpp

; 490  : 	return m_vEFactor[iEEvent].second + m_vIFactor[iIEvent].second;

  00037	8b 44 d3 08	 mov	 eax, DWORD PTR [ebx+edx*8+8]
  0003b	03 44 3e 08	 add	 eax, DWORD PTR [esi+edi+8]
  0003f	8b 54 d3 0c	 mov	 edx, DWORD PTR [ebx+edx*8+12]
  00043	13 54 3e 0c	 adc	 edx, DWORD PTR [esi+edi+12]
  00047	5f		 pop	 edi

; 491  : }

  00048	5e		 pop	 esi
  00049	5b		 pop	 ebx
  0004a	5d		 pop	 ebp
  0004b	c2 08 00	 ret	 8
$LN4@GetCost:
  0004e	5f		 pop	 edi
  0004f	5e		 pop	 esi
  00050	33 c0		 xor	 eax, eax
  00052	33 d2		 xor	 edx, edx
  00054	5b		 pop	 ebx
  00055	5d		 pop	 ebp
  00056	c2 08 00	 ret	 8
?GetCost@ILordEvent@@QAE_JHH@Z ENDP			; ILordEvent::GetCost
_TEXT	ENDS
; Function compile flags: /Ogtp
; File C:\IAGOS\server\v18\Source\Source\_Common\lord.cpp
;	COMDAT ?GetComponentAt@ILordEvent@@QAEPAVCLEComponent@@H@Z
_TEXT	SEGMENT
_i$ = 8							; size = 4
?GetComponentAt@ILordEvent@@QAEPAVCLEComponent@@H@Z PROC ; ILordEvent::GetComponentAt, COMDAT
; _this$ = ecx

; 561  : {

  00000	55		 push	 ebp
  00001	8b ec		 mov	 ebp, esp

; 562  : 	ASSERT( i >= 0 && i < GetComponentSize() );
; 563  : 	return m_vComponents[i];

  00003	8b 49 1c	 mov	 ecx, DWORD PTR [ecx+28]
  00006	8b 45 08	 mov	 eax, DWORD PTR _i$[ebp]
  00009	8b 04 81	 mov	 eax, DWORD PTR [ecx+eax*4]

; 564  : }

  0000c	5d		 pop	 ebp
  0000d	c2 04 00	 ret	 4
?GetComponentAt@ILordEvent@@QAEPAVCLEComponent@@H@Z ENDP ; ILordEvent::GetComponentAt
_TEXT	ENDS
; Function compile flags: /Ogtp
; File C:\IAGOS\server\v18\Source\Source\_Common\lord.cpp
; File C:\Program Files\Microsoft Visual Studio\2022\Professional\VC\Tools\MSVC\14.44.35207\include\vector
; File C:\IAGOS\server\v18\Source\Source\_Common\lord.cpp
; File C:\Program Files\Microsoft Visual Studio\2022\Professional\VC\Tools\MSVC\14.44.35207\include\vector
; File C:\IAGOS\server\v18\Source\Source\_Common\lord.cpp
; File C:\Program Files\Microsoft Visual Studio\2022\Professional\VC\Tools\MSVC\14.44.35207\include\vector
; File C:\IAGOS\server\v18\Source\Source\_Common\lord.cpp
;	COMDAT ?GetComponent@ILordEvent@@QAEPAVCLEComponent@@K@Z
_TEXT	SEGMENT
_idPlayer$ = 8						; size = 4
?GetComponent@ILordEvent@@QAEPAVCLEComponent@@K@Z PROC	; ILordEvent::GetComponent, COMDAT
; _this$ = ecx

; 551  : {

  00000	55		 push	 ebp
  00001	8b ec		 mov	 ebp, esp
; File C:\Program Files\Microsoft Visual Studio\2022\Professional\VC\Tools\MSVC\14.44.35207\include\vector

; 46   :     _CONSTEXPR20 _Vector_const_iterator(_Tptr _Parg, const _Container_base* _Pvector) noexcept : _Ptr(_Parg) {

  00003	8b 41 1c	 mov	 eax, DWORD PTR [ecx+28]
  00006	8b 51 20	 mov	 edx, DWORD PTR [ecx+32]
; File C:\IAGOS\server\v18\Source\Source\_Common\lord.cpp

; 551  : {

  00009	56		 push	 esi
; File C:\Program Files\Microsoft Visual Studio\2022\Professional\VC\Tools\MSVC\14.44.35207\include\vector

; 176  :         return !(*this == _Right);

  0000a	3b c2		 cmp	 eax, edx
; File C:\IAGOS\server\v18\Source\Source\_Common\lord.cpp

; 552  : 	for( VLEC::iterator i = m_vComponents.begin(); i != m_vComponents.end(); ++i )

  0000c	74 11		 je	 SHORT $LN3@GetCompone
  0000e	8b 75 08	 mov	 esi, DWORD PTR _idPlayer$[ebp]
$LL4@GetCompone:

; 553  : 	{
; 554  : 		if( ( *i )->GetIdPlayer() == idPlayer )

  00011	8b 08		 mov	 ecx, DWORD PTR [eax]
  00013	39 71 08	 cmp	 DWORD PTR [ecx+8], esi
  00016	74 0e		 je	 SHORT $LN38@GetCompone
; File C:\Program Files\Microsoft Visual Studio\2022\Professional\VC\Tools\MSVC\14.44.35207\include\vector

; 82   :         ++_Ptr;

  00018	83 c0 04	 add	 eax, 4

; 176  :         return !(*this == _Right);

  0001b	3b c2		 cmp	 eax, edx
; File C:\IAGOS\server\v18\Source\Source\_Common\lord.cpp

; 552  : 	for( VLEC::iterator i = m_vComponents.begin(); i != m_vComponents.end(); ++i )

  0001d	75 f2		 jne	 SHORT $LL4@GetCompone
$LN3@GetCompone:

; 556  : 	}
; 557  : 	return NULL;

  0001f	33 c0		 xor	 eax, eax
  00021	5e		 pop	 esi

; 558  : }

  00022	5d		 pop	 ebp
  00023	c2 04 00	 ret	 4
$LN38@GetCompone:

; 555  : 			return( *i );

  00026	8b c1		 mov	 eax, ecx
  00028	5e		 pop	 esi

; 558  : }

  00029	5d		 pop	 ebp
  0002a	c2 04 00	 ret	 4
?GetComponent@ILordEvent@@QAEPAVCLEComponent@@K@Z ENDP	; ILordEvent::GetComponent
_TEXT	ENDS
; Function compile flags: /Ogtp
; File C:\IAGOS\server\v18\Source\Source\_Common\lord.cpp
;	COMDAT ?Initialize@ILordEvent@@QAEXXZ
_TEXT	SEGMENT
?Initialize@ILordEvent@@QAEXXZ PROC			; ILordEvent::Initialize, COMDAT
; _this$ = ecx

; 509  : {

  00000	56		 push	 esi
  00001	8b f1		 mov	 esi, ecx

; 510  : 	if( DoTestInitialize() )

  00003	8b 06		 mov	 eax, DWORD PTR [esi]
  00005	ff 50 08	 call	 DWORD PTR [eax+8]
  00008	85 c0		 test	 eax, eax
  0000a	74 08		 je	 SHORT $LN2@Initialize

; 511  : 		Clear();

  0000c	8b ce		 mov	 ecx, esi
  0000e	5e		 pop	 esi
  0000f	e9 00 00 00 00	 jmp	 ?Clear@ILordEvent@@QAEXXZ ; ILordEvent::Clear
$LN2@Initialize:
  00014	5e		 pop	 esi

; 512  : }

  00015	c3		 ret	 0
?Initialize@ILordEvent@@QAEXXZ ENDP			; ILordEvent::Initialize
_TEXT	ENDS
; Function compile flags: /Ogtp
; File C:\IAGOS\server\v18\Source\Source\_Common\lord.cpp
; File C:\Program Files\Microsoft Visual Studio\2022\Professional\VC\Tools\MSVC\14.44.35207\include\vector
; File C:\IAGOS\server\v18\Source\Source\_Common\lord.cpp
; File C:\Program Files\Microsoft Visual Studio\2022\Professional\VC\Tools\MSVC\14.44.35207\include\vector
; File C:\IAGOS\server\v18\Source\Source\_Common\lord.cpp
; File C:\Program Files\Microsoft Visual Studio\2022\Professional\VC\Tools\MSVC\14.44.35207\include\vector
; File C:\IAGOS\server\v18\Source\Source\_Common\lord.cpp
; File C:\Program Files\Microsoft Visual Studio\2022\Professional\VC\Tools\MSVC\14.44.35207\include\vector
; File C:\IAGOS\server\v18\Source\Source\_Common\lord.cpp
; File C:\Program Files\Microsoft Visual Studio\2022\Professional\VC\Tools\MSVC\14.44.35207\include\vector
; File C:\IAGOS\server\v18\Source\Source\_Common\lord.cpp
;	COMDAT ?AddComponent@ILordEvent@@QAEXKHH@Z
_TEXT	SEGMENT
_idPlayer$ = 8						; size = 4
_iEEvent$ = 12						; size = 4
$T1 = 12						; size = 4
_iIEvent$ = 16						; size = 4
?AddComponent@ILordEvent@@QAEXKHH@Z PROC		; ILordEvent::AddComponent, COMDAT
; _this$ = ecx

; 515  : {

  00000	55		 push	 ebp
  00001	8b ec		 mov	 ebp, esp
  00003	53		 push	 ebx

; 516  : 	if( iEEvent == 0 && iIEvent == 0 )

  00004	8b 5d 0c	 mov	 ebx, DWORD PTR _iEEvent$[ebp]
  00007	56		 push	 esi
  00008	8b f1		 mov	 esi, ecx
  0000a	57		 push	 edi
  0000b	8b 7d 10	 mov	 edi, DWORD PTR _iIEvent$[ebp]
  0000e	85 db		 test	 ebx, ebx
  00010	75 18		 jne	 SHORT $LN2@AddCompone
  00012	85 ff		 test	 edi, edi
  00014	75 14		 jne	 SHORT $LN2@AddCompone

; 517  : 	{
; 518  : #ifdef __DBSERVER
; 519  : 		Error( "iEEvent == 0 && iIEvent == 0" );

  00016	68 00 00 00 00	 push	 OFFSET ??_C@_0BN@IJOANHHL@iEEvent?5?$DN?$DN?50?5?$CG?$CG?5iIEvent?5?$DN?$DN?50@

; 533  : }

  0001b	e8 00 00 00 00	 call	 ?Error@@YAPBDPBDZZ	; Error
  00020	83 c4 04	 add	 esp, 4
  00023	5f		 pop	 edi
  00024	5e		 pop	 esi
  00025	5b		 pop	 ebx
  00026	5d		 pop	 ebp
  00027	c2 0c 00	 ret	 12			; 0000000cH
$LN2@AddCompone:
; File C:\Program Files\Microsoft Visual Studio\2022\Professional\VC\Tools\MSVC\14.44.35207\include\vector

; 1915 :         return static_cast<size_type>(_My_data._Mylast - _My_data._Myfirst);

  0002a	8b 46 08	 mov	 eax, DWORD PTR [esi+8]
  0002d	2b 46 04	 sub	 eax, DWORD PTR [esi+4]
  00030	c1 f8 04	 sar	 eax, 4
; File C:\IAGOS\server\v18\Source\Source\_Common\lord.cpp

; 523  : 	if( iEEvent >= (int)( m_vEFactor.size() ) || iIEvent >= (int)( m_vIFactor.size() ) )

  00033	3b d8		 cmp	 ebx, eax
  00035	7d 70		 jge	 SHORT $LN4@AddCompone
; File C:\Program Files\Microsoft Visual Studio\2022\Professional\VC\Tools\MSVC\14.44.35207\include\vector

; 1915 :         return static_cast<size_type>(_My_data._Mylast - _My_data._Myfirst);

  00037	8b 46 14	 mov	 eax, DWORD PTR [esi+20]
  0003a	2b 46 10	 sub	 eax, DWORD PTR [esi+16]
  0003d	c1 f8 04	 sar	 eax, 4
; File C:\IAGOS\server\v18\Source\Source\_Common\lord.cpp

; 523  : 	if( iEEvent >= (int)( m_vEFactor.size() ) || iIEvent >= (int)( m_vIFactor.size() ) )

  00040	3b f8		 cmp	 edi, eax
  00042	7d 63		 jge	 SHORT $LN4@AddCompone

; 531  : 		= new CLEComponent( eTick, idPlayer, m_vEFactor[iEEvent].first, m_vIFactor[iIEvent].first );

  00044	6a 14		 push	 20			; 00000014H
  00046	e8 00 00 00 00	 call	 ??2@YAPAXI@Z		; operator new
  0004b	83 c4 04	 add	 esp, 4
  0004e	89 45 0c	 mov	 DWORD PTR $T1[ebp], eax
  00051	85 c0		 test	 eax, eax
  00053	74 3f		 je	 SHORT $LN6@AddCompone
; File C:\Program Files\Microsoft Visual Studio\2022\Professional\VC\Tools\MSVC\14.44.35207\include\vector

; 1934 :         return _My_data._Myfirst[_Pos];

  00055	c1 e7 04	 shl	 edi, 4
; File C:\IAGOS\server\v18\Source\Source\_Common\lord.cpp

; 531  : 		= new CLEComponent( eTick, idPlayer, m_vEFactor[iEEvent].first, m_vIFactor[iIEvent].first );

  00058	83 ec 08	 sub	 esp, 8
; File C:\Program Files\Microsoft Visual Studio\2022\Professional\VC\Tools\MSVC\14.44.35207\include\vector

; 1934 :         return _My_data._Myfirst[_Pos];

  0005b	03 7e 10	 add	 edi, DWORD PTR [esi+16]
; File C:\IAGOS\server\v18\Source\Source\_Common\lord.cpp

; 531  : 		= new CLEComponent( eTick, idPlayer, m_vEFactor[iEEvent].first, m_vIFactor[iIEvent].first );

  0005e	8b c8		 mov	 ecx, eax
; File C:\Program Files\Microsoft Visual Studio\2022\Professional\VC\Tools\MSVC\14.44.35207\include\vector

; 1934 :         return _My_data._Myfirst[_Pos];

  00060	c1 e3 04	 shl	 ebx, 4
  00063	03 5e 04	 add	 ebx, DWORD PTR [esi+4]
; File C:\IAGOS\server\v18\Source\Source\_Common\lord.cpp

; 531  : 		= new CLEComponent( eTick, idPlayer, m_vEFactor[iEEvent].first, m_vIFactor[iIEvent].first );

  00066	f3 0f 10 07	 movss	 xmm0, DWORD PTR [edi]
  0006a	f3 0f 11 44 24
	04		 movss	 DWORD PTR [esp+4], xmm0
  00070	f3 0f 10 03	 movss	 xmm0, DWORD PTR [ebx]
  00074	f3 0f 11 04 24	 movss	 DWORD PTR [esp], xmm0
  00079	ff 75 08	 push	 DWORD PTR _idPlayer$[ebp]
  0007c	6a 3c		 push	 60			; 0000003cH
  0007e	e8 00 00 00 00	 call	 ??0CLEComponent@@QAE@HKMM@Z ; CLEComponent::CLEComponent

; 532  : 	AddComponent( pComponent );

  00083	6a 01		 push	 1
  00085	50		 push	 eax
  00086	8b ce		 mov	 ecx, esi
  00088	e8 00 00 00 00	 call	 ?AddComponent@ILordEvent@@QAEXPAVCLEComponent@@H@Z ; ILordEvent::AddComponent
  0008d	5f		 pop	 edi

; 533  : }

  0008e	5e		 pop	 esi
  0008f	5b		 pop	 ebx
  00090	5d		 pop	 ebp
  00091	c2 0c 00	 ret	 12			; 0000000cH
$LN6@AddCompone:

; 531  : 		= new CLEComponent( eTick, idPlayer, m_vEFactor[iEEvent].first, m_vIFactor[iIEvent].first );

  00094	33 c0		 xor	 eax, eax

; 532  : 	AddComponent( pComponent );

  00096	8b ce		 mov	 ecx, esi
  00098	6a 01		 push	 1
  0009a	50		 push	 eax
  0009b	e8 00 00 00 00	 call	 ?AddComponent@ILordEvent@@QAEXPAVCLEComponent@@H@Z ; ILordEvent::AddComponent
  000a0	5f		 pop	 edi

; 533  : }

  000a1	5e		 pop	 esi
  000a2	5b		 pop	 ebx
  000a3	5d		 pop	 ebp
  000a4	c2 0c 00	 ret	 12			; 0000000cH
$LN4@AddCompone:

; 524  : 	{
; 525  : #ifdef __DBSERVER
; 526  : 		Error( "iEEvent >= m_vEFactor.size() || iIEvent >= m_vIFactor.size()" );

  000a7	68 00 00 00 00	 push	 OFFSET ??_C@_0DN@FBKHNNAO@iEEvent?5?$DO?$DN?5m_vEFactor?4size?$CI?$CJ?5?$HM?$HM@

; 533  : }

  000ac	e8 00 00 00 00	 call	 ?Error@@YAPBDPBDZZ	; Error
  000b1	83 c4 04	 add	 esp, 4
  000b4	5f		 pop	 edi
  000b5	5e		 pop	 esi
  000b6	5b		 pop	 ebx
  000b7	5d		 pop	 ebp
  000b8	c2 0c 00	 ret	 12			; 0000000cH
?AddComponent@ILordEvent@@QAEXKHH@Z ENDP		; ILordEvent::AddComponent
_TEXT	ENDS
; Function compile flags: /Ogtp
; File C:\IAGOS\server\v18\Source\Source\_Common\lord.cpp
; File C:\Program Files\Microsoft Visual Studio\2022\Professional\VC\Tools\MSVC\14.44.35207\include\vector
; File C:\IAGOS\server\v18\Source\Source\_Common\lord.cpp
; File C:\Program Files\Microsoft Visual Studio\2022\Professional\VC\Tools\MSVC\14.44.35207\include\vector
; File C:\IAGOS\server\v18\Source\Source\_Common\lord.cpp
; File C:\Program Files\Microsoft Visual Studio\2022\Professional\VC\Tools\MSVC\14.44.35207\include\vector
; File C:\IAGOS\server\v18\Source\Source\_Common\lord.cpp
;	COMDAT ?AddComponent@ILordEvent@@QAEXPAVCLEComponent@@H@Z
_TEXT	SEGMENT
_pComponent$ = 8					; size = 4
_bHook$ = 12						; size = 4
?AddComponent@ILordEvent@@QAEXPAVCLEComponent@@H@Z PROC	; ILordEvent::AddComponent, COMDAT
; _this$ = ecx

; 536  : {

  00000	55		 push	 ebp
  00001	8b ec		 mov	 ebp, esp

; 537  : 	if( !bHook || DoTestAddComponent( pComponent ) )

  00003	83 7d 0c 00	 cmp	 DWORD PTR _bHook$[ebp], 0
  00007	56		 push	 esi
  00008	8b 75 08	 mov	 esi, DWORD PTR _pComponent$[ebp]
  0000b	57		 push	 edi
  0000c	8b f9		 mov	 edi, ecx
  0000e	74 1c		 je	 SHORT $LN4@AddCompone
  00010	8b 07		 mov	 eax, DWORD PTR [edi]
  00012	56		 push	 esi
  00013	ff 50 04	 call	 DWORD PTR [eax+4]
  00016	85 c0		 test	 eax, eax
  00018	75 12		 jne	 SHORT $LN4@AddCompone

; 540  : 	}
; 541  : 	else
; 542  : 		safe_delete( pComponent );

  0001a	85 f6		 test	 esi, esi
  0001c	74 2f		 je	 SHORT $LN10@AddCompone
  0001e	8b 06		 mov	 eax, DWORD PTR [esi]
  00020	8b ce		 mov	 ecx, esi
  00022	6a 01		 push	 1
  00024	ff 10		 call	 DWORD PTR [eax]
  00026	5f		 pop	 edi

; 543  : }

  00027	5e		 pop	 esi
  00028	5d		 pop	 ebp
  00029	c2 08 00	 ret	 8
$LN4@AddCompone:
; File C:\Program Files\Microsoft Visual Studio\2022\Professional\VC\Tools\MSVC\14.44.35207\include\vector

; 844  :         if (_Mylast != _My_data._Myend) {

  0002c	8b 47 20	 mov	 eax, DWORD PTR [edi+32]
; File C:\IAGOS\server\v18\Source\Source\_Common\lord.cpp

; 539  : 		m_vComponents.push_back( pComponent );

  0002f	8d 4f 1c	 lea	 ecx, DWORD PTR [edi+28]
; File C:\Program Files\Microsoft Visual Studio\2022\Professional\VC\Tools\MSVC\14.44.35207\include\vector

; 844  :         if (_Mylast != _My_data._Myend) {

  00032	3b 41 08	 cmp	 eax, DWORD PTR [ecx+8]
  00035	74 0c		 je	 SHORT $LN11@AddCompone

; 860  :             _STD _Construct_in_place(*_Mylast, _STD forward<_Valty>(_Val)...);

  00037	89 30		 mov	 DWORD PTR [eax], esi

; 861  :         } else {
; 862  :             _ASAN_VECTOR_EXTEND_GUARD(static_cast<size_type>(_Mylast - _My_data._Myfirst) + 1);
; 863  :             _Alty_traits::construct(_Getal(), _Unfancy(_Mylast), _STD forward<_Valty>(_Val)...);
; 864  :             _ASAN_VECTOR_RELEASE_GUARD;
; 865  :         }
; 866  : 
; 867  :         _Orphan_range(_Mylast, _Mylast);
; 868  :         _Ty& _Result = *_Mylast;
; 869  :         ++_Mylast;

  00039	83 41 04 04	 add	 DWORD PTR [ecx+4], 4
  0003d	5f		 pop	 edi
; File C:\IAGOS\server\v18\Source\Source\_Common\lord.cpp

; 543  : }

  0003e	5e		 pop	 esi
  0003f	5d		 pop	 ebp
  00040	c2 08 00	 ret	 8
$LN11@AddCompone:
; File C:\Program Files\Microsoft Visual Studio\2022\Professional\VC\Tools\MSVC\14.44.35207\include\vector

; 848  :         return *_Emplace_reallocate(_Mylast, _STD forward<_Valty>(_Val)...);

  00043	8d 55 08	 lea	 edx, DWORD PTR _pComponent$[ebp]
  00046	52		 push	 edx
  00047	50		 push	 eax
  00048	e8 00 00 00 00	 call	 ??$_Emplace_reallocate@ABQAVCLEComponent@@@?$vector@PAVCLEComponent@@V?$allocator@PAVCLEComponent@@@std@@@std@@AAEPAPAVCLEComponent@@QAPAV2@ABQAV2@@Z ; std::vector<CLEComponent *,std::allocator<CLEComponent *> >::_Emplace_reallocate<CLEComponent * const &>
$LN10@AddCompone:
  0004d	5f		 pop	 edi
; File C:\IAGOS\server\v18\Source\Source\_Common\lord.cpp

; 543  : }

  0004e	5e		 pop	 esi
  0004f	5d		 pop	 ebp
  00050	c2 08 00	 ret	 8
?AddComponent@ILordEvent@@QAEXPAVCLEComponent@@H@Z ENDP	; ILordEvent::AddComponent
_TEXT	ENDS
; Function compile flags: /Ogtp
; File C:\IAGOS\server\v18\Source\Source\_Common\lord.cpp
; File C:\Program Files\Microsoft Visual Studio\2022\Professional\VC\Tools\MSVC\14.44.35207\include\vector
; File C:\IAGOS\server\v18\Source\Source\_Common\lord.cpp
; File C:\Program Files\Microsoft Visual Studio\2022\Professional\VC\Tools\MSVC\14.44.35207\include\vector
; File C:\IAGOS\server\v18\Source\Source\_Common\lord.cpp
; File C:\Program Files\Microsoft Visual Studio\2022\Professional\VC\Tools\MSVC\14.44.35207\include\vector
; File C:\IAGOS\server\v18\Source\Source\_Common\lord.cpp
;	COMDAT ?Clear@ILordEvent@@QAEXXZ
_TEXT	SEGMENT
?Clear@ILordEvent@@QAEXXZ PROC				; ILordEvent::Clear, COMDAT
; _this$ = ecx

; 442  : {

  00000	56		 push	 esi
  00001	57		 push	 edi
  00002	8b f9		 mov	 edi, ecx
; File C:\Program Files\Microsoft Visual Studio\2022\Professional\VC\Tools\MSVC\14.44.35207\include\vector

; 46   :     _CONSTEXPR20 _Vector_const_iterator(_Tptr _Parg, const _Container_base* _Pvector) noexcept : _Ptr(_Parg) {

  00004	8b 77 1c	 mov	 esi, DWORD PTR [edi+28]

; 176  :         return !(*this == _Right);

  00007	3b 77 20	 cmp	 esi, DWORD PTR [edi+32]
; File C:\IAGOS\server\v18\Source\Source\_Common\lord.cpp

; 443  : 	for( VLEC::iterator i = m_vComponents.begin(); i != m_vComponents.end(); ++i )

  0000a	74 18		 je	 SHORT $LN3@Clear
  0000c	0f 1f 40 00	 npad	 4
$LL4@Clear:

; 444  : 		safe_delete( *i );

  00010	8b 0e		 mov	 ecx, DWORD PTR [esi]
  00012	85 c9		 test	 ecx, ecx
  00014	74 06		 je	 SHORT $LN2@Clear
  00016	8b 01		 mov	 eax, DWORD PTR [ecx]
  00018	6a 01		 push	 1
  0001a	ff 10		 call	 DWORD PTR [eax]
$LN2@Clear:
; File C:\Program Files\Microsoft Visual Studio\2022\Professional\VC\Tools\MSVC\14.44.35207\include\vector

; 82   :         ++_Ptr;

  0001c	83 c6 04	 add	 esi, 4

; 176  :         return !(*this == _Right);

  0001f	3b 77 20	 cmp	 esi, DWORD PTR [edi+32]
; File C:\IAGOS\server\v18\Source\Source\_Common\lord.cpp

; 443  : 	for( VLEC::iterator i = m_vComponents.begin(); i != m_vComponents.end(); ++i )

  00022	75 ec		 jne	 SHORT $LL4@Clear
$LN3@Clear:
; File C:\Program Files\Microsoft Visual Studio\2022\Professional\VC\Tools\MSVC\14.44.35207\include\vector

; 1812 :         if (_Myfirst == _Mylast) { // already empty, nothing to do

  00024	8b 47 1c	 mov	 eax, DWORD PTR [edi+28]
  00027	3b 47 20	 cmp	 eax, DWORD PTR [edi+32]
  0002a	74 03		 je	 SHORT $LN38@Clear

; 1813 :             // This is an optimization for debug mode: we can avoid taking the debug lock to invalidate iterators.
; 1814 :             // Note that when clearing an empty vector, this will preserve past-the-end iterators, which is allowed by
; 1815 :             // N4950 [sequence.reqmts]/54 "a.clear() [...] may invalidate the past-the-end iterator".
; 1816 :             return;
; 1817 :         }
; 1818 : 
; 1819 :         _My_data._Orphan_all();
; 1820 :         _Destroy_range(_Myfirst, _Mylast, _Getal());
; 1821 :         _ASAN_VECTOR_MODIFY(static_cast<difference_type>(_Myfirst - _Mylast)); // negative when destroying elements
; 1822 :         _Mylast = _Myfirst;

  0002c	89 47 20	 mov	 DWORD PTR [edi+32], eax
$LN38@Clear:
  0002f	5f		 pop	 edi
; File C:\IAGOS\server\v18\Source\Source\_Common\lord.cpp

; 446  : }

  00030	5e		 pop	 esi
  00031	c3		 ret	 0
?Clear@ILordEvent@@QAEXXZ ENDP				; ILordEvent::Clear
_TEXT	ENDS
; Function compile flags: /Ogtp
; File C:\IAGOS\server\v18\Source\Source\_Common\lord.cpp
;	COMDAT ??1ILordEvent@@UAE@XZ
_TEXT	SEGMENT
??1ILordEvent@@UAE@XZ PROC				; ILordEvent::~ILordEvent, COMDAT
; _this$ = ecx

; 437  : {

  00000	56		 push	 esi
  00001	8b f1		 mov	 esi, ecx
  00003	c7 06 00 00 00
	00		 mov	 DWORD PTR [esi], OFFSET ??_7ILordEvent@@6B@

; 438  : 	Clear();

  00009	e8 00 00 00 00	 call	 ?Clear@ILordEvent@@QAEXXZ ; ILordEvent::Clear

; 439  : }

  0000e	8d 4e 1c	 lea	 ecx, DWORD PTR [esi+28]
  00011	e8 00 00 00 00	 call	 ??1?$vector@PAVCLEComponent@@V?$allocator@PAVCLEComponent@@@std@@@std@@QAE@XZ ; std::vector<CLEComponent *,std::allocator<CLEComponent *> >::~vector<CLEComponent *,std::allocator<CLEComponent *> >
  00016	8d 4e 10	 lea	 ecx, DWORD PTR [esi+16]
  00019	e8 00 00 00 00	 call	 ??1?$vector@U?$pair@M_J@std@@V?$allocator@U?$pair@M_J@std@@@2@@std@@QAE@XZ ; std::vector<std::pair<float,__int64>,std::allocator<std::pair<float,__int64> > >::~vector<std::pair<float,__int64>,std::allocator<std::pair<float,__int64> > >
  0001e	8d 4e 04	 lea	 ecx, DWORD PTR [esi+4]
  00021	5e		 pop	 esi
  00022	e9 00 00 00 00	 jmp	 ??1?$vector@U?$pair@M_J@std@@V?$allocator@U?$pair@M_J@std@@@2@@std@@QAE@XZ ; std::vector<std::pair<float,__int64>,std::allocator<std::pair<float,__int64> > >::~vector<std::pair<float,__int64>,std::allocator<std::pair<float,__int64> > >
??1ILordEvent@@UAE@XZ ENDP				; ILordEvent::~ILordEvent
_TEXT	ENDS
; Function compile flags: /Ogtp
; File C:\IAGOS\server\v18\Source\Source\_Common\lord.cpp
; File C:\Program Files\Microsoft Visual Studio\2022\Professional\VC\Tools\MSVC\14.44.35207\include\vector
; File C:\IAGOS\server\v18\Source\Source\_Common\lord.cpp
;	COMDAT ??0ILordEvent@@IAE@PAVCLord@@@Z
_TEXT	SEGMENT
_this$ = -4						; size = 4
_pLord$ = 8						; size = 4
??0ILordEvent@@IAE@PAVCLord@@@Z PROC			; ILordEvent::ILordEvent, COMDAT
; _this$ = ecx

; 433  : {

  00000	55		 push	 ebp
  00001	8b ec		 mov	 ebp, esp
  00003	51		 push	 ecx

; 432  : m_pLord( pLord )

  00004	8b 45 08	 mov	 eax, DWORD PTR _pLord$[ebp]
  00007	c7 01 00 00 00
	00		 mov	 DWORD PTR [ecx], OFFSET ??_7ILordEvent@@6B@
; File C:\Program Files\Microsoft Visual Studio\2022\Professional\VC\Tools\MSVC\14.44.35207\include\vector

; 400  :     _CONSTEXPR20 _Vector_val() noexcept : _Myfirst(), _Mylast(), _Myend() {}

  0000d	c7 41 04 00 00
	00 00		 mov	 DWORD PTR [ecx+4], 0
  00014	c7 41 08 00 00
	00 00		 mov	 DWORD PTR [ecx+8], 0
  0001b	c7 41 0c 00 00
	00 00		 mov	 DWORD PTR [ecx+12], 0
  00022	c7 41 10 00 00
	00 00		 mov	 DWORD PTR [ecx+16], 0
  00029	c7 41 14 00 00
	00 00		 mov	 DWORD PTR [ecx+20], 0
  00030	c7 41 18 00 00
	00 00		 mov	 DWORD PTR [ecx+24], 0
  00037	c7 41 1c 00 00
	00 00		 mov	 DWORD PTR [ecx+28], 0
  0003e	c7 41 20 00 00
	00 00		 mov	 DWORD PTR [ecx+32], 0
  00045	c7 41 24 00 00
	00 00		 mov	 DWORD PTR [ecx+36], 0
; File C:\IAGOS\server\v18\Source\Source\_Common\lord.cpp

; 432  : m_pLord( pLord )

  0004c	89 41 28	 mov	 DWORD PTR [ecx+40], eax

; 434  : }

  0004f	8b c1		 mov	 eax, ecx
  00051	89 4d fc	 mov	 DWORD PTR _this$[ebp], ecx
  00054	8b e5		 mov	 esp, ebp
  00056	5d		 pop	 ebp
  00057	c2 04 00	 ret	 4
??0ILordEvent@@IAE@PAVCLord@@@Z ENDP			; ILordEvent::ILordEvent
_TEXT	ENDS
; Function compile flags: /Ogtp
;	COMDAT ??_GCLEComponent@@UAEPAXI@Z
_TEXT	SEGMENT
___flags$ = 8						; size = 4
??_GCLEComponent@@UAEPAXI@Z PROC			; CLEComponent::`scalar deleting destructor', COMDAT
; _this$ = ecx
  00000	55		 push	 ebp
  00001	8b ec		 mov	 ebp, esp
  00003	56		 push	 esi
  00004	8b f1		 mov	 esi, ecx
  00006	e8 00 00 00 00	 call	 ??1CLEComponent@@UAE@XZ	; CLEComponent::~CLEComponent
  0000b	f6 45 08 01	 test	 BYTE PTR ___flags$[ebp], 1
  0000f	74 0b		 je	 SHORT $LN5@scalar
  00011	6a 14		 push	 20			; 00000014H
  00013	56		 push	 esi
  00014	e8 00 00 00 00	 call	 ??3@YAXPAXI@Z		; operator delete
  00019	83 c4 08	 add	 esp, 8
$LN5@scalar:
  0001c	8b c6		 mov	 eax, esi
  0001e	5e		 pop	 esi
  0001f	5d		 pop	 ebp
  00020	c2 04 00	 ret	 4
??_GCLEComponent@@UAEPAXI@Z ENDP			; CLEComponent::`scalar deleting destructor'
_TEXT	ENDS
; Function compile flags: /Ogtp
; File C:\IAGOS\server\v18\Source\Source\_Common\lord.cpp
;	COMDAT ?Decrement@CLEComponent@@QAEHXZ
_TEXT	SEGMENT
?Decrement@CLEComponent@@QAEHXZ PROC			; CLEComponent::Decrement, COMDAT
; _this$ = ecx

; 417  : 	if( nTick > 0 )

  00000	8b 41 04	 mov	 eax, DWORD PTR [ecx+4]
  00003	85 c0		 test	 eax, eax
  00005	7e 04		 jle	 SHORT $LN2@Decrement

; 418  : 		nTick--;

  00007	48		 dec	 eax
  00008	89 41 04	 mov	 DWORD PTR [ecx+4], eax
$LN2@Decrement:

; 419  : 	return nTick;
; 420  : }

  0000b	c3		 ret	 0
?Decrement@CLEComponent@@QAEHXZ ENDP			; CLEComponent::Decrement
_TEXT	ENDS
; Function compile flags: /Ogtp
; File C:\IAGOS\server\v18\Source\Source\_Common\lord.cpp
; File C:\IAGOS\server\v18\Source\Source\_Network\Misc\Include\Ar.h
; File C:\IAGOS\server\v18\Source\Source\_Common\lord.cpp
; File C:\IAGOS\server\v18\Source\Source\_Network\Misc\Include\Ar.h
; File C:\IAGOS\server\v18\Source\Source\_Common\lord.cpp
;	COMDAT ?Serialize@CLEComponent@@QAEXAAVCAr@@@Z
_TEXT	SEGMENT
_ar$ = 8						; size = 4
?Serialize@CLEComponent@@QAEXAAVCAr@@@Z PROC		; CLEComponent::Serialize, COMDAT
; _this$ = ecx

; 403  : {

  00000	55		 push	 ebp
  00001	8b ec		 mov	 ebp, esp
  00003	56		 push	 esi
  00004	57		 push	 edi
; File C:\IAGOS\server\v18\Source\Source\_Network\Misc\Include\Ar.h

; 146  : 	return (m_nMode & CAr::load) == 0;

  00005	8d 41 10	 lea	 eax, DWORD PTR [ecx+16]
  00008	8d 51 0c	 lea	 edx, DWORD PTR [ecx+12]
  0000b	8d 71 08	 lea	 esi, DWORD PTR [ecx+8]
  0000e	8d 79 04	 lea	 edi, DWORD PTR [ecx+4]
  00011	8b 4d 08	 mov	 ecx, DWORD PTR _ar$[ebp]
; File C:\IAGOS\server\v18\Source\Source\_Common\lord.cpp

; 404  : 	if( ar.IsStoring() )

  00014	50		 push	 eax
  00015	52		 push	 edx
  00016	56		 push	 esi
; File C:\IAGOS\server\v18\Source\Source\_Network\Misc\Include\Ar.h

; 146  : 	return (m_nMode & CAr::load) == 0;

  00017	f6 01 01	 test	 BYTE PTR [ecx], 1
; File C:\IAGOS\server\v18\Source\Source\_Common\lord.cpp

; 404  : 	if( ar.IsStoring() )

  0001a	57		 push	 edi
  0001b	75 20		 jne	 SHORT $LN2@Serialize

; 405  : 		ar << nTick << idPlayer << fEFactor<< fIFactor;

  0001d	e8 00 00 00 00	 call	 ??$?6H@CAr@@QAEAAV0@ABH@Z ; CAr::operator<<<int>
  00022	8b c8		 mov	 ecx, eax
  00024	e8 00 00 00 00	 call	 ??$?6K@CAr@@QAEAAV0@ABK@Z ; CAr::operator<<<unsigned long>
  00029	8b c8		 mov	 ecx, eax
  0002b	e8 00 00 00 00	 call	 ??$?6M@CAr@@QAEAAV0@ABM@Z ; CAr::operator<<<float>
  00030	8b c8		 mov	 ecx, eax
  00032	e8 00 00 00 00	 call	 ??$?6M@CAr@@QAEAAV0@ABM@Z ; CAr::operator<<<float>
  00037	5f		 pop	 edi

; 409  : #ifdef __CLIENT
; 410  : 		SetTexture();
; 411  : #endif	// __CLIENT
; 412  : 	}
; 413  : }

  00038	5e		 pop	 esi
  00039	5d		 pop	 ebp
  0003a	c2 04 00	 ret	 4
$LN2@Serialize:

; 406  : 	else
; 407  : 	{
; 408  : 		ar >> nTick >> idPlayer >> fEFactor >> fIFactor;

  0003d	e8 00 00 00 00	 call	 ??$?5H@CAr@@QAEAAV0@AAH@Z ; CAr::operator>><int>
  00042	8b c8		 mov	 ecx, eax
  00044	e8 00 00 00 00	 call	 ??$?5K@CAr@@QAEAAV0@AAK@Z ; CAr::operator>><unsigned long>
  00049	8b c8		 mov	 ecx, eax
  0004b	e8 00 00 00 00	 call	 ??$?5M@CAr@@QAEAAV0@AAM@Z ; CAr::operator>><float>
  00050	8b c8		 mov	 ecx, eax
  00052	e8 00 00 00 00	 call	 ??$?5M@CAr@@QAEAAV0@AAM@Z ; CAr::operator>><float>
  00057	5f		 pop	 edi

; 409  : #ifdef __CLIENT
; 410  : 		SetTexture();
; 411  : #endif	// __CLIENT
; 412  : 	}
; 413  : }

  00058	5e		 pop	 esi
  00059	5d		 pop	 ebp
  0005a	c2 04 00	 ret	 4
?Serialize@CLEComponent@@QAEXAAVCAr@@@Z ENDP		; CLEComponent::Serialize
_TEXT	ENDS
; Function compile flags: /Ogtp
; File C:\IAGOS\server\v18\Source\Source\_Common\lord.cpp
;	COMDAT ??1CLEComponent@@UAE@XZ
_TEXT	SEGMENT
??1CLEComponent@@UAE@XZ PROC				; CLEComponent::~CLEComponent, COMDAT
; _this$ = ecx

; 399  : {

  00000	c7 01 00 00 00
	00		 mov	 DWORD PTR [ecx], OFFSET ??_7CLEComponent@@6B@

; 400  : }

  00006	c3		 ret	 0
??1CLEComponent@@UAE@XZ ENDP				; CLEComponent::~CLEComponent
_TEXT	ENDS
; Function compile flags: /Ogtp
; File C:\IAGOS\server\v18\Source\Source\_Common\lord.cpp
;	COMDAT ??0CLEComponent@@QAE@HKMM@Z
_TEXT	SEGMENT
_t$ = 8							; size = 4
_p$ = 12						; size = 4
_e$ = 16						; size = 4
_i$ = 20						; size = 4
??0CLEComponent@@QAE@HKMM@Z PROC			; CLEComponent::CLEComponent, COMDAT
; _this$ = ecx

; 395  : {

  00000	55		 push	 ebp
  00001	8b ec		 mov	 ebp, esp

; 390  : fEFactor( e ),

  00003	f3 0f 10 45 10	 movss	 xmm0, DWORD PTR _e$[ebp]
  00008	8b 45 08	 mov	 eax, DWORD PTR _t$[ebp]
  0000b	89 41 04	 mov	 DWORD PTR [ecx+4], eax
  0000e	8b 45 0c	 mov	 eax, DWORD PTR _p$[ebp]
  00011	f3 0f 11 41 0c	 movss	 DWORD PTR [ecx+12], xmm0

; 391  : #ifdef __CLIENT
; 392  : m_pTexture( NULL ),
; 393  : #endif	// __CLIENT
; 394  : fIFactor( i )

  00016	f3 0f 10 45 14	 movss	 xmm0, DWORD PTR _i$[ebp]
  0001b	89 41 08	 mov	 DWORD PTR [ecx+8], eax

; 396  : }

  0001e	8b c1		 mov	 eax, ecx
  00020	c7 01 00 00 00
	00		 mov	 DWORD PTR [ecx], OFFSET ??_7CLEComponent@@6B@
  00026	f3 0f 11 41 10	 movss	 DWORD PTR [ecx+16], xmm0
  0002b	5d		 pop	 ebp
  0002c	c2 10 00	 ret	 16			; 00000010H
??0CLEComponent@@QAE@HKMM@Z ENDP			; CLEComponent::CLEComponent
_TEXT	ENDS
; Function compile flags: /Ogtp
; File C:\IAGOS\server\v18\Source\Source\_Common\lord.cpp
;	COMDAT ??0CLEComponent@@QAE@XZ
_TEXT	SEGMENT
??0CLEComponent@@QAE@XZ PROC				; CLEComponent::CLEComponent, COMDAT
; _this$ = ecx

; 383  : {

  00000	c7 01 00 00 00
	00		 mov	 DWORD PTR [ecx], OFFSET ??_7CLEComponent@@6B@

; 384  : }

  00006	8b c1		 mov	 eax, ecx
  00008	c7 41 04 00 00
	00 00		 mov	 DWORD PTR [ecx+4], 0
  0000f	c7 41 08 ff ff
	ff ff		 mov	 DWORD PTR [ecx+8], -1
  00016	c7 41 0c 00 00
	80 3f		 mov	 DWORD PTR [ecx+12], 1065353216 ; 3f800000H
  0001d	c7 41 10 00 00
	80 3f		 mov	 DWORD PTR [ecx+16], 1065353216 ; 3f800000H
  00024	c3		 ret	 0
??0CLEComponent@@QAE@XZ ENDP				; CLEComponent::CLEComponent
_TEXT	ENDS
; Function compile flags: /Ogtp
; File C:\Program Files\Microsoft Visual Studio\2022\Professional\VC\Tools\MSVC\14.44.35207\include\memory
; File C:\Program Files\Microsoft Visual Studio\2022\Professional\VC\Tools\MSVC\14.44.35207\include\utility
; File C:\Program Files\Microsoft Visual Studio\2022\Professional\VC\Tools\MSVC\14.44.35207\include\memory
;	COMDAT ??4?$shared_ptr@VCCandidate@@@std@@QAEAAV01@$$QAV01@@Z
_TEXT	SEGMENT
__Right$ = 8						; size = 4
??4?$shared_ptr@VCCandidate@@@std@@QAEAAV01@$$QAV01@@Z PROC ; std::shared_ptr<CCandidate>::operator=, COMDAT
; _this$ = ecx

; 1704 :     shared_ptr& operator=(shared_ptr&& _Right) noexcept { // take resource from _Right

  00000	55		 push	 ebp
  00001	8b ec		 mov	 ebp, esp

; 1327 :         _Ptr = _Right._Ptr;

  00003	8b 45 08	 mov	 eax, DWORD PTR __Right$[ebp]

; 1704 :     shared_ptr& operator=(shared_ptr&& _Right) noexcept { // take resource from _Right

  00006	53		 push	 ebx
  00007	56		 push	 esi
  00008	57		 push	 edi

; 1327 :         _Ptr = _Right._Ptr;

  00009	8b 10		 mov	 edx, DWORD PTR [eax]

; 1704 :     shared_ptr& operator=(shared_ptr&& _Right) noexcept { // take resource from _Right

  0000b	8b f9		 mov	 edi, ecx

; 1328 :         _Rep = _Right._Rep;

  0000d	8b 70 04	 mov	 esi, DWORD PTR [eax+4]

; 1329 : 
; 1330 :         _Right._Ptr = nullptr;

  00010	c7 00 00 00 00
	00		 mov	 DWORD PTR [eax], 0

; 1331 :         _Right._Rep = nullptr;

  00016	c7 40 04 00 00
	00 00		 mov	 DWORD PTR [eax+4], 0
; File C:\Program Files\Microsoft Visual Studio\2022\Professional\VC\Tools\MSVC\14.44.35207\include\utility

; 140  :     _Left    = _STD move(_Right);

  0001d	8b 5f 04	 mov	 ebx, DWORD PTR [edi+4]

; 141  :     _Right   = _STD move(_Tmp);

  00020	89 17		 mov	 DWORD PTR [edi], edx
  00022	89 77 04	 mov	 DWORD PTR [edi+4], esi
  00025	85 db		 test	 ebx, ebx
; File C:\Program Files\Microsoft Visual Studio\2022\Professional\VC\Tools\MSVC\14.44.35207\include\memory

; 1384 :         if (_Rep) {

  00027	74 21		 je	 SHORT $LN42@operator

; 1159 :         if (_MT_DECR(_Uses) == 0) {

  00029	83 ce ff	 or	 esi, -1
  0002c	8b c6		 mov	 eax, esi
  0002e	f0 0f c1 43 04	 lock	  xadd	 DWORD PTR [ebx+4], eax
  00033	75 15		 jne	 SHORT $LN42@operator

; 1160 :             _Destroy();

  00035	8b 03		 mov	 eax, DWORD PTR [ebx]
  00037	8b cb		 mov	 ecx, ebx
  00039	ff 10		 call	 DWORD PTR [eax]

; 1166 :         if (_MT_DECR(_Weaks) == 0) {

  0003b	f0 0f c1 73 08	 lock	  xadd	 DWORD PTR [ebx+8], esi
  00040	4e		 dec	 esi
  00041	75 07		 jne	 SHORT $LN42@operator

; 1167 :             _Delete_this();

  00043	8b 03		 mov	 eax, DWORD PTR [ebx]
  00045	8b cb		 mov	 ecx, ebx
  00047	ff 50 04	 call	 DWORD PTR [eax+4]
$LN42@operator:

; 1705 :         shared_ptr(_STD move(_Right)).swap(*this);
; 1706 :         return *this;
; 1707 :     }

  0004a	8b c7		 mov	 eax, edi
  0004c	5f		 pop	 edi
  0004d	5e		 pop	 esi
  0004e	5b		 pop	 ebx
  0004f	5d		 pop	 ebp
  00050	c2 04 00	 ret	 4
??4?$shared_ptr@VCCandidate@@@std@@QAEAAV01@$$QAV01@@Z ENDP ; std::shared_ptr<CCandidate>::operator=
_TEXT	ENDS
; Function compile flags: /Ogtp
; File C:\Program Files\Microsoft Visual Studio\2022\Professional\VC\Tools\MSVC\14.44.35207\include\memory
;	COMDAT ??1?$shared_ptr@VCCandidate@@@std@@QAE@XZ
_TEXT	SEGMENT
??1?$shared_ptr@VCCandidate@@@std@@QAE@XZ PROC		; std::shared_ptr<CCandidate>::~shared_ptr<CCandidate>, COMDAT
; _this$ = ecx

; 1689 :     ~shared_ptr() noexcept { // release resource

  00000	56		 push	 esi

; 1384 :         if (_Rep) {

  00001	8b 71 04	 mov	 esi, DWORD PTR [ecx+4]
  00004	85 f6		 test	 esi, esi
  00006	74 25		 je	 SHORT $LN13@shared_ptr
  00008	57		 push	 edi

; 1159 :         if (_MT_DECR(_Uses) == 0) {

  00009	83 cf ff	 or	 edi, -1
  0000c	8b c7		 mov	 eax, edi
  0000e	f0 0f c1 46 04	 lock	  xadd	 DWORD PTR [esi+4], eax
  00013	75 17		 jne	 SHORT $LN19@shared_ptr

; 1160 :             _Destroy();

  00015	8b 06		 mov	 eax, DWORD PTR [esi]
  00017	8b ce		 mov	 ecx, esi
  00019	ff 10		 call	 DWORD PTR [eax]

; 1166 :         if (_MT_DECR(_Weaks) == 0) {

  0001b	f0 0f c1 7e 08	 lock	  xadd	 DWORD PTR [esi+8], edi
  00020	4f		 dec	 edi
  00021	75 09		 jne	 SHORT $LN19@shared_ptr

; 1167 :             _Delete_this();

  00023	8b 06		 mov	 eax, DWORD PTR [esi]
  00025	8b ce		 mov	 ecx, esi
  00027	5f		 pop	 edi
  00028	5e		 pop	 esi
  00029	ff 60 04	 jmp	 DWORD PTR [eax+4]
$LN19@shared_ptr:
  0002c	5f		 pop	 edi
$LN13@shared_ptr:
  0002d	5e		 pop	 esi

; 1690 :         this->_Decref();
; 1691 :     }

  0002e	c3		 ret	 0
??1?$shared_ptr@VCCandidate@@@std@@QAE@XZ ENDP		; std::shared_ptr<CCandidate>::~shared_ptr<CCandidate>
_TEXT	ENDS
; Function compile flags: /Ogtp
; File C:\IAGOS\server\v18\Source\Source\_Common\lord.cpp
; File C:\IAGOS\server\v18\Source\Source\_Network\Misc\Include\Ar.h
; File C:\IAGOS\server\v18\Source\Source\_Common\lord.cpp
; File C:\IAGOS\server\v18\Source\Source\_Network\Misc\Include\Ar.h
; File C:\IAGOS\server\v18\Source\Source\_Common\lord.cpp
; File C:\IAGOS\server\v18\Source\Source\_Network\Misc\Include\Ar.h
; File C:\IAGOS\server\v18\Source\Source\_Common\lord.cpp
; File C:\Program Files\Microsoft Visual Studio\2022\Professional\VC\Tools\MSVC\14.44.35207\include\vector
; File C:\IAGOS\server\v18\Source\Source\_Common\lord.cpp
; File C:\Program Files\Microsoft Visual Studio\2022\Professional\VC\Tools\MSVC\14.44.35207\include\vector
; File C:\IAGOS\server\v18\Source\Source\_Common\lord.cpp
; File C:\Program Files\Microsoft Visual Studio\2022\Professional\VC\Tools\MSVC\14.44.35207\include\vector
; File C:\IAGOS\server\v18\Source\Source\_Common\lord.cpp
; File C:\Program Files\Microsoft Visual Studio\2022\Professional\VC\Tools\MSVC\14.44.35207\include\vector
; File C:\IAGOS\server\v18\Source\Source\_Common\lord.cpp
; File C:\Program Files\Microsoft Visual Studio\2022\Professional\VC\Tools\MSVC\14.44.35207\include\vector
; File C:\IAGOS\server\v18\Source\Source\_Common\lord.cpp
; File C:\Program Files\Microsoft Visual Studio\2022\Professional\VC\Tools\MSVC\14.44.35207\include\vector
; File C:\IAGOS\server\v18\Source\Source\_Common\lord.cpp
; File C:\Program Files\Microsoft Visual Studio\2022\Professional\VC\Tools\MSVC\14.44.35207\include\vector
; File C:\IAGOS\server\v18\Source\Source\_Common\lord.cpp
; File C:\Program Files\Microsoft Visual Studio\2022\Professional\VC\Tools\MSVC\14.44.35207\include\vector
; File C:\IAGOS\server\v18\Source\Source\_Common\lord.cpp
; File C:\Program Files\Microsoft Visual Studio\2022\Professional\VC\Tools\MSVC\14.44.35207\include\vector
; File C:\IAGOS\server\v18\Source\Source\_Common\lord.cpp
; File C:\Program Files\Microsoft Visual Studio\2022\Professional\VC\Tools\MSVC\14.44.35207\include\vector
; File C:\Program Files\Microsoft Visual Studio\2022\Professional\VC\Tools\MSVC\14.44.35207\include\xutility
; File C:\Program Files\Microsoft Visual Studio\2022\Professional\VC\Tools\MSVC\14.44.35207\include\vector
; File C:\IAGOS\server\v18\Source\Source\_Common\lord.cpp
; File C:\Program Files\Microsoft Visual Studio\2022\Professional\VC\Tools\MSVC\14.44.35207\include\vector
; File C:\IAGOS\server\v18\Source\Source\_Common\lord.cpp
; File C:\Program Files\Microsoft Visual Studio\2022\Professional\VC\Tools\MSVC\14.44.35207\include\vector
; File C:\IAGOS\server\v18\Source\Source\_Common\lord.cpp
;	COMDAT ?Serialize@sProperty@IElection@@QAEXAAVCAr@@@Z
_TEXT	SEGMENT
$T1 = -8						; size = 4
_this$1$ = -8						; size = 4
tv979 = -8						; size = 4
_f$2 = -4						; size = 4
_n$3 = -4						; size = 4
_ar$ = 8						; size = 4
$T4 = 8							; size = 4
_nSize$5 = 8						; size = 4
tv978 = 8						; size = 4
?Serialize@sProperty@IElection@@QAEXAAVCAr@@@Z PROC	; IElection::sProperty::Serialize, COMDAT
; _this$ = ecx

; 57   : {

  00000	55		 push	 ebp
  00001	8b ec		 mov	 ebp, esp
  00003	83 ec 08	 sub	 esp, 8
  00006	53		 push	 ebx
  00007	8b d9		 mov	 ebx, ecx
  00009	56		 push	 esi
  0000a	57		 push	 edi
; File C:\IAGOS\server\v18\Source\Source\_Network\Misc\Include\Ar.h

; 146  : 	return (m_nMode & CAr::load) == 0;

  0000b	8b 7d 08	 mov	 edi, DWORD PTR _ar$[ebp]
  0000e	8d 43 10	 lea	 eax, DWORD PTR [ebx+16]
; File C:\IAGOS\server\v18\Source\Source\_Common\lord.cpp

; 57   : {

  00011	89 5d f8	 mov	 DWORD PTR _this$1$[ebp], ebx

; 58   : 	if( ar.IsStoring() )

  00014	50		 push	 eax
; File C:\IAGOS\server\v18\Source\Source\_Network\Misc\Include\Ar.h

; 146  : 	return (m_nMode & CAr::load) == 0;

  00015	8d 4b 38	 lea	 ecx, DWORD PTR [ebx+56]
  00018	f6 07 01	 test	 BYTE PTR [edi], 1
  0001b	8d 53 0c	 lea	 edx, DWORD PTR [ebx+12]
; File C:\IAGOS\server\v18\Source\Source\_Common\lord.cpp

; 58   : 	if( ar.IsStoring() )

  0001e	51		 push	 ecx
  0001f	52		 push	 edx
  00020	8d 43 08	 lea	 eax, DWORD PTR [ebx+8]
  00023	8b cf		 mov	 ecx, edi
  00025	50		 push	 eax
  00026	8d 43 04	 lea	 eax, DWORD PTR [ebx+4]
  00029	50		 push	 eax
; File C:\IAGOS\server\v18\Source\Source\_Network\Misc\Include\Ar.h

; 146  : 	return (m_nMode & CAr::load) == 0;

  0002a	8d 73 14	 lea	 esi, DWORD PTR [ebx+20]
; File C:\IAGOS\server\v18\Source\Source\_Common\lord.cpp

; 58   : 	if( ar.IsStoring() )

  0002d	53		 push	 ebx
  0002e	0f 85 ae 00 00
	00		 jne	 $LN20@Serialize

; 59   : 	{
; 60   : 		ar << nDayOfWeek << nHour << tCandidacy << tVote << fRequirementFactor << nDays;

  00034	e8 00 00 00 00	 call	 ??$?6H@CAr@@QAEAAV0@ABH@Z ; CAr::operator<<<int>
  00039	8b c8		 mov	 ecx, eax
  0003b	e8 00 00 00 00	 call	 ??$?6H@CAr@@QAEAAV0@ABH@Z ; CAr::operator<<<int>
  00040	8b c8		 mov	 ecx, eax
  00042	e8 00 00 00 00	 call	 ??$?6J@CAr@@QAEAAV0@ABJ@Z ; CAr::operator<<<long>
  00047	8b c8		 mov	 ecx, eax
  00049	e8 00 00 00 00	 call	 ??$?6J@CAr@@QAEAAV0@ABJ@Z ; CAr::operator<<<long>
  0004e	8b c8		 mov	 ecx, eax
  00050	e8 00 00 00 00	 call	 ??$?6M@CAr@@QAEAAV0@ABM@Z ; CAr::operator<<<float>
  00055	8b c8		 mov	 ecx, eax
  00057	e8 00 00 00 00	 call	 ??$?6H@CAr@@QAEAAV0@ABH@Z ; CAr::operator<<<int>
; File C:\Program Files\Microsoft Visual Studio\2022\Professional\VC\Tools\MSVC\14.44.35207\include\vector

; 1915 :         return static_cast<size_type>(_My_data._Mylast - _My_data._Myfirst);

  0005c	8b 46 04	 mov	 eax, DWORD PTR [esi+4]
; File C:\IAGOS\server\v18\Source\Source\_Common\lord.cpp

; 61   : 		ar << m_vReturnDepositRates.size();

  0005f	8b cf		 mov	 ecx, edi
; File C:\Program Files\Microsoft Visual Studio\2022\Professional\VC\Tools\MSVC\14.44.35207\include\vector

; 1915 :         return static_cast<size_type>(_My_data._Mylast - _My_data._Myfirst);

  00061	2b 06		 sub	 eax, DWORD PTR [esi]
  00063	c1 f8 02	 sar	 eax, 2
; File C:\IAGOS\server\v18\Source\Source\_Common\lord.cpp

; 61   : 		ar << m_vReturnDepositRates.size();

  00066	89 45 08	 mov	 DWORD PTR $T4[ebp], eax
  00069	8d 45 08	 lea	 eax, DWORD PTR $T4[ebp]
  0006c	50		 push	 eax
  0006d	e8 00 00 00 00	 call	 ??$?6I@CAr@@QAEAAV0@ABI@Z ; CAr::operator<<<unsigned int>
; File C:\Program Files\Microsoft Visual Studio\2022\Professional\VC\Tools\MSVC\14.44.35207\include\vector

; 46   :     _CONSTEXPR20 _Vector_const_iterator(_Tptr _Parg, const _Container_base* _Pvector) noexcept : _Ptr(_Parg) {

  00072	8b 36		 mov	 esi, DWORD PTR [esi]

; 176  :         return !(*this == _Right);

  00074	3b 73 18	 cmp	 esi, DWORD PTR [ebx+24]
; File C:\IAGOS\server\v18\Source\Source\_Common\lord.cpp

; 62   : 		for( vector<float>::iterator i1 = m_vReturnDepositRates.begin(); i1 != m_vReturnDepositRates.end(); ++i1 )

  00077	74 17		 je	 SHORT $LN3@Serialize
  00079	0f 1f 80 00 00
	00 00		 npad	 7
$LL4@Serialize:

; 63   : 			ar << *( i1 );

  00080	56		 push	 esi
  00081	8b cf		 mov	 ecx, edi
  00083	e8 00 00 00 00	 call	 ??$?6M@CAr@@QAEAAV0@ABM@Z ; CAr::operator<<<float>
; File C:\Program Files\Microsoft Visual Studio\2022\Professional\VC\Tools\MSVC\14.44.35207\include\vector

; 82   :         ++_Ptr;

  00088	83 c6 04	 add	 esi, 4

; 176  :         return !(*this == _Right);

  0008b	3b 73 18	 cmp	 esi, DWORD PTR [ebx+24]
; File C:\IAGOS\server\v18\Source\Source\_Common\lord.cpp

; 62   : 		for( vector<float>::iterator i1 = m_vReturnDepositRates.begin(); i1 != m_vReturnDepositRates.end(); ++i1 )

  0008e	75 f0		 jne	 SHORT $LL4@Serialize
$LN3@Serialize:

; 64   : 		for( int iIndex = 0; iIndex < 2; iIndex++ )

  00090	83 c3 20	 add	 ebx, 32			; 00000020H
  00093	c7 45 08 02 00
	00 00		 mov	 DWORD PTR tv978[ebp], 2
  0009a	66 0f 1f 44 00
	00		 npad	 6
$LL7@Serialize:
; File C:\Program Files\Microsoft Visual Studio\2022\Professional\VC\Tools\MSVC\14.44.35207\include\vector

; 1915 :         return static_cast<size_type>(_My_data._Mylast - _My_data._Myfirst);

  000a0	8b 43 04	 mov	 eax, DWORD PTR [ebx+4]
; File C:\IAGOS\server\v18\Source\Source\_Common\lord.cpp

; 66   : 			ar << m_vItems[iIndex].size();

  000a3	8b cf		 mov	 ecx, edi
; File C:\Program Files\Microsoft Visual Studio\2022\Professional\VC\Tools\MSVC\14.44.35207\include\vector

; 1915 :         return static_cast<size_type>(_My_data._Mylast - _My_data._Myfirst);

  000a5	2b 03		 sub	 eax, DWORD PTR [ebx]
  000a7	c1 f8 02	 sar	 eax, 2
; File C:\IAGOS\server\v18\Source\Source\_Common\lord.cpp

; 66   : 			ar << m_vItems[iIndex].size();

  000aa	89 45 f8	 mov	 DWORD PTR $T1[ebp], eax
  000ad	8d 45 f8	 lea	 eax, DWORD PTR $T1[ebp]
  000b0	50		 push	 eax
  000b1	e8 00 00 00 00	 call	 ??$?6I@CAr@@QAEAAV0@ABI@Z ; CAr::operator<<<unsigned int>
; File C:\Program Files\Microsoft Visual Studio\2022\Professional\VC\Tools\MSVC\14.44.35207\include\vector

; 46   :     _CONSTEXPR20 _Vector_const_iterator(_Tptr _Parg, const _Container_base* _Pvector) noexcept : _Ptr(_Parg) {

  000b6	8b 33		 mov	 esi, DWORD PTR [ebx]

; 176  :         return !(*this == _Right);

  000b8	3b 73 04	 cmp	 esi, DWORD PTR [ebx+4]
; File C:\IAGOS\server\v18\Source\Source\_Common\lord.cpp

; 67   : 			for( vector<int>::iterator i2 = m_vItems[iIndex].begin(); i2 != m_vItems[iIndex].end(); ++i2 )

  000bb	74 13		 je	 SHORT $LN5@Serialize
  000bd	0f 1f 00	 npad	 3
$LL10@Serialize:

; 68   : 				ar << *( i2 );

  000c0	56		 push	 esi
  000c1	8b cf		 mov	 ecx, edi
  000c3	e8 00 00 00 00	 call	 ??$?6H@CAr@@QAEAAV0@ABH@Z ; CAr::operator<<<int>
; File C:\Program Files\Microsoft Visual Studio\2022\Professional\VC\Tools\MSVC\14.44.35207\include\vector

; 82   :         ++_Ptr;

  000c8	83 c6 04	 add	 esi, 4

; 176  :         return !(*this == _Right);

  000cb	3b 73 04	 cmp	 esi, DWORD PTR [ebx+4]
; File C:\IAGOS\server\v18\Source\Source\_Common\lord.cpp

; 67   : 			for( vector<int>::iterator i2 = m_vItems[iIndex].begin(); i2 != m_vItems[iIndex].end(); ++i2 )

  000ce	75 f0		 jne	 SHORT $LL10@Serialize
$LN5@Serialize:

; 64   : 		for( int iIndex = 0; iIndex < 2; iIndex++ )

  000d0	83 c3 0c	 add	 ebx, 12			; 0000000cH
  000d3	83 6d 08 01	 sub	 DWORD PTR tv978[ebp], 1
  000d7	75 c7		 jne	 SHORT $LL7@Serialize

; 91   : 				m_vItems[iIndex].push_back( n );
; 92   : 			}
; 93   : 		}
; 94   : 	}
; 95   : }

  000d9	5f		 pop	 edi
  000da	5e		 pop	 esi
  000db	5b		 pop	 ebx
  000dc	8b e5		 mov	 esp, ebp
  000de	5d		 pop	 ebp
  000df	c2 04 00	 ret	 4
$LN20@Serialize:

; 69   : 		}
; 70   : 	}
; 71   : 	else
; 72   : 	{
; 73   : 		ar >> nDayOfWeek >> nHour >> tCandidacy >> tVote >> fRequirementFactor >> nDays;

  000e2	e8 00 00 00 00	 call	 ??$?5H@CAr@@QAEAAV0@AAH@Z ; CAr::operator>><int>
  000e7	8b c8		 mov	 ecx, eax
  000e9	e8 00 00 00 00	 call	 ??$?5H@CAr@@QAEAAV0@AAH@Z ; CAr::operator>><int>
  000ee	8b c8		 mov	 ecx, eax
  000f0	e8 00 00 00 00	 call	 ??$?5J@CAr@@QAEAAV0@AAJ@Z ; CAr::operator>><long>
  000f5	8b c8		 mov	 ecx, eax
  000f7	e8 00 00 00 00	 call	 ??$?5J@CAr@@QAEAAV0@AAJ@Z ; CAr::operator>><long>
  000fc	8b c8		 mov	 ecx, eax
  000fe	e8 00 00 00 00	 call	 ??$?5M@CAr@@QAEAAV0@AAM@Z ; CAr::operator>><float>
  00103	8b c8		 mov	 ecx, eax
  00105	e8 00 00 00 00	 call	 ??$?5H@CAr@@QAEAAV0@AAH@Z ; CAr::operator>><int>
; File C:\Program Files\Microsoft Visual Studio\2022\Professional\VC\Tools\MSVC\14.44.35207\include\vector

; 1812 :         if (_Myfirst == _Mylast) { // already empty, nothing to do

  0010a	8b 06		 mov	 eax, DWORD PTR [esi]
  0010c	3b 46 04	 cmp	 eax, DWORD PTR [esi+4]
  0010f	74 03		 je	 SHORT $LN112@Serialize

; 1813 :             // This is an optimization for debug mode: we can avoid taking the debug lock to invalidate iterators.
; 1814 :             // Note that when clearing an empty vector, this will preserve past-the-end iterators, which is allowed by
; 1815 :             // N4950 [sequence.reqmts]/54 "a.clear() [...] may invalidate the past-the-end iterator".
; 1816 :             return;
; 1817 :         }
; 1818 : 
; 1819 :         _My_data._Orphan_all();
; 1820 :         _Destroy_range(_Myfirst, _Mylast, _Getal());
; 1821 :         _ASAN_VECTOR_MODIFY(static_cast<difference_type>(_Myfirst - _Mylast)); // negative when destroying elements
; 1822 :         _Mylast = _Myfirst;

  00111	89 46 04	 mov	 DWORD PTR [esi+4], eax
$LN112@Serialize:
; File C:\IAGOS\server\v18\Source\Source\_Common\lord.cpp

; 76   : 		ar >> nSize;

  00114	8d 45 08	 lea	 eax, DWORD PTR _nSize$5[ebp]
  00117	8b cf		 mov	 ecx, edi
  00119	50		 push	 eax
  0011a	e8 00 00 00 00	 call	 ??$?5I@CAr@@QAEAAV0@AAI@Z ; CAr::operator>><unsigned int>

; 78   : 		for( size_t i = 0; i < nSize; i++ )

  0011f	83 7d 08 00	 cmp	 DWORD PTR _nSize$5[ebp], 0
  00123	76 3b		 jbe	 SHORT $LN12@Serialize

; 76   : 		ar >> nSize;

  00125	8b 5d 08	 mov	 ebx, DWORD PTR _nSize$5[ebp]
$LL13@Serialize:

; 79   : 		{
; 80   : 			ar >> f;

  00128	8d 45 fc	 lea	 eax, DWORD PTR _f$2[ebp]
  0012b	8b cf		 mov	 ecx, edi
  0012d	50		 push	 eax
  0012e	e8 00 00 00 00	 call	 ??$?5M@CAr@@QAEAAV0@AAM@Z ; CAr::operator>><float>
; File C:\Program Files\Microsoft Visual Studio\2022\Professional\VC\Tools\MSVC\14.44.35207\include\vector

; 844  :         if (_Mylast != _My_data._Myend) {

  00133	8b 46 04	 mov	 eax, DWORD PTR [esi+4]
  00136	3b 46 08	 cmp	 eax, DWORD PTR [esi+8]
  00139	74 11		 je	 SHORT $LN91@Serialize
; File C:\Program Files\Microsoft Visual Studio\2022\Professional\VC\Tools\MSVC\14.44.35207\include\xutility

; 476  :         ::new (static_cast<void*>(_STD addressof(_Obj))) _Ty(_STD forward<_Types>(_Args)...);

  0013b	f3 0f 10 45 fc	 movss	 xmm0, DWORD PTR _f$2[ebp]
  00140	f3 0f 11 00	 movss	 DWORD PTR [eax], xmm0
; File C:\Program Files\Microsoft Visual Studio\2022\Professional\VC\Tools\MSVC\14.44.35207\include\vector

; 869  :         ++_Mylast;

  00144	83 c0 04	 add	 eax, 4
  00147	89 46 04	 mov	 DWORD PTR [esi+4], eax

; 845  :             return _Emplace_back_with_unused_capacity(_STD forward<_Valty>(_Val)...);

  0014a	eb 0c		 jmp	 SHORT $LN11@Serialize
$LN91@Serialize:

; 846  :         }
; 847  : 
; 848  :         return *_Emplace_reallocate(_Mylast, _STD forward<_Valty>(_Val)...);

  0014c	8d 4d fc	 lea	 ecx, DWORD PTR _f$2[ebp]
  0014f	51		 push	 ecx
  00150	50		 push	 eax
  00151	8b ce		 mov	 ecx, esi
  00153	e8 00 00 00 00	 call	 ??$_Emplace_reallocate@ABM@?$vector@MV?$allocator@M@std@@@std@@AAEPAMQAMABM@Z ; std::vector<float,std::allocator<float> >::_Emplace_reallocate<float const &>
$LN11@Serialize:
; File C:\IAGOS\server\v18\Source\Source\_Common\lord.cpp

; 78   : 		for( size_t i = 0; i < nSize; i++ )

  00158	83 eb 01	 sub	 ebx, 1
  0015b	75 cb		 jne	 SHORT $LL13@Serialize
  0015d	8b 5d f8	 mov	 ebx, DWORD PTR _this$1$[ebp]
$LN12@Serialize:

; 81   : 			m_vReturnDepositRates.push_back( f );
; 82   : 		}
; 83   : 		for( int iIndex = 0; iIndex < 2; iIndex++ )

  00160	8d 73 24	 lea	 esi, DWORD PTR [ebx+36]
  00163	c7 45 f8 02 00
	00 00		 mov	 DWORD PTR tv979[ebp], 2
  0016a	66 0f 1f 44 00
	00		 npad	 6
$LL16@Serialize:
; File C:\Program Files\Microsoft Visual Studio\2022\Professional\VC\Tools\MSVC\14.44.35207\include\vector

; 1812 :         if (_Myfirst == _Mylast) { // already empty, nothing to do

  00170	8b 46 fc	 mov	 eax, DWORD PTR [esi-4]
  00173	3b 06		 cmp	 eax, DWORD PTR [esi]
  00175	74 02		 je	 SHORT $LN63@Serialize

; 1813 :             // This is an optimization for debug mode: we can avoid taking the debug lock to invalidate iterators.
; 1814 :             // Note that when clearing an empty vector, this will preserve past-the-end iterators, which is allowed by
; 1815 :             // N4950 [sequence.reqmts]/54 "a.clear() [...] may invalidate the past-the-end iterator".
; 1816 :             return;
; 1817 :         }
; 1818 : 
; 1819 :         _My_data._Orphan_all();
; 1820 :         _Destroy_range(_Myfirst, _Mylast, _Getal());
; 1821 :         _ASAN_VECTOR_MODIFY(static_cast<difference_type>(_Myfirst - _Mylast)); // negative when destroying elements
; 1822 :         _Mylast = _Myfirst;

  00177	89 06		 mov	 DWORD PTR [esi], eax
$LN63@Serialize:
; File C:\IAGOS\server\v18\Source\Source\_Common\lord.cpp

; 86   : 			ar >> nSize;

  00179	8d 45 08	 lea	 eax, DWORD PTR _nSize$5[ebp]
  0017c	8b cf		 mov	 ecx, edi
  0017e	50		 push	 eax
  0017f	e8 00 00 00 00	 call	 ??$?5I@CAr@@QAEAAV0@AAI@Z ; CAr::operator>><unsigned int>

; 88   : 			for( int i = 0; i < nSize; i++ )

  00184	8b 5d 08	 mov	 ebx, DWORD PTR _nSize$5[ebp]
  00187	85 db		 test	 ebx, ebx
  00189	74 33		 je	 SHORT $LN14@Serialize
  0018b	0f 1f 44 00 00	 npad	 5
$LL19@Serialize:

; 89   : 			{
; 90   : 				ar >> n;

  00190	8d 45 fc	 lea	 eax, DWORD PTR _n$3[ebp]
  00193	8b cf		 mov	 ecx, edi
  00195	50		 push	 eax
  00196	e8 00 00 00 00	 call	 ??$?5H@CAr@@QAEAAV0@AAH@Z ; CAr::operator>><int>
; File C:\Program Files\Microsoft Visual Studio\2022\Professional\VC\Tools\MSVC\14.44.35207\include\vector

; 844  :         if (_Mylast != _My_data._Myend) {

  0019b	8b 0e		 mov	 ecx, DWORD PTR [esi]
  0019d	3b 4e 04	 cmp	 ecx, DWORD PTR [esi+4]
  001a0	74 0a		 je	 SHORT $LN47@Serialize

; 860  :             _STD _Construct_in_place(*_Mylast, _STD forward<_Valty>(_Val)...);

  001a2	8b 45 fc	 mov	 eax, DWORD PTR _n$3[ebp]
  001a5	89 01		 mov	 DWORD PTR [ecx], eax

; 869  :         ++_Mylast;

  001a7	83 06 04	 add	 DWORD PTR [esi], 4

; 845  :             return _Emplace_back_with_unused_capacity(_STD forward<_Valty>(_Val)...);

  001aa	eb 0d		 jmp	 SHORT $LN17@Serialize
$LN47@Serialize:

; 846  :         }
; 847  : 
; 848  :         return *_Emplace_reallocate(_Mylast, _STD forward<_Valty>(_Val)...);

  001ac	8d 45 fc	 lea	 eax, DWORD PTR _n$3[ebp]
  001af	50		 push	 eax
  001b0	51		 push	 ecx
  001b1	8d 4e fc	 lea	 ecx, DWORD PTR [esi-4]
  001b4	e8 00 00 00 00	 call	 ??$_Emplace_reallocate@ABH@?$vector@HV?$allocator@H@std@@@std@@AAEPAHQAHABH@Z ; std::vector<int,std::allocator<int> >::_Emplace_reallocate<int const &>
$LN17@Serialize:
; File C:\IAGOS\server\v18\Source\Source\_Common\lord.cpp

; 88   : 			for( int i = 0; i < nSize; i++ )

  001b9	83 eb 01	 sub	 ebx, 1
  001bc	75 d2		 jne	 SHORT $LL19@Serialize
$LN14@Serialize:

; 81   : 			m_vReturnDepositRates.push_back( f );
; 82   : 		}
; 83   : 		for( int iIndex = 0; iIndex < 2; iIndex++ )

  001be	83 c6 0c	 add	 esi, 12			; 0000000cH
  001c1	83 6d f8 01	 sub	 DWORD PTR tv979[ebp], 1
  001c5	75 a9		 jne	 SHORT $LL16@Serialize

; 91   : 				m_vItems[iIndex].push_back( n );
; 92   : 			}
; 93   : 		}
; 94   : 	}
; 95   : }

  001c7	5f		 pop	 edi
  001c8	5e		 pop	 esi
  001c9	5b		 pop	 ebx
  001ca	8b e5		 mov	 esp, ebp
  001cc	5d		 pop	 ebp
  001cd	c2 04 00	 ret	 4
?Serialize@sProperty@IElection@@QAEXAAVCAr@@@Z ENDP	; IElection::sProperty::Serialize
_TEXT	ENDS
; Function compile flags: /Ogtp
; File C:\Program Files\Microsoft Visual Studio\2022\Professional\VC\Tools\MSVC\14.44.35207\include\vector
;	COMDAT ?_Xlength@?$vector@HV?$allocator@H@std@@@std@@CAXXZ
_TEXT	SEGMENT
?_Xlength@?$vector@HV?$allocator@H@std@@@std@@CAXXZ PROC ; std::vector<int,std::allocator<int> >::_Xlength, COMDAT

; 2184 :         _Xlength_error("vector too long");

  00000	68 00 00 00 00	 push	 OFFSET ??_C@_0BA@FOIKENOD@vector?5too?5long@
  00005	e8 00 00 00 00	 call	 ?_Xlength_error@std@@YAXPBD@Z ; std::_Xlength_error
$LN3@Xlength:
  0000a	cc		 int	 3
?_Xlength@?$vector@HV?$allocator@H@std@@@std@@CAXXZ ENDP ; std::vector<int,std::allocator<int> >::_Xlength
_TEXT	ENDS
; Function compile flags: /Ogtp
; File C:\Program Files\Microsoft Visual Studio\2022\Professional\VC\Tools\MSVC\14.44.35207\include\vector
; File C:\Program Files\Microsoft Visual Studio\2022\Professional\VC\Tools\MSVC\14.44.35207\include\xmemory
; File C:\Program Files\Microsoft Visual Studio\2022\Professional\VC\Tools\MSVC\14.44.35207\include\vector
; File C:\Program Files\Microsoft Visual Studio\2022\Professional\VC\Tools\MSVC\14.44.35207\include\xmemory
; File C:\Program Files\Microsoft Visual Studio\2022\Professional\VC\Tools\MSVC\14.44.35207\include\vector
; File C:\Program Files\Microsoft Visual Studio\2022\Professional\VC\Tools\MSVC\14.44.35207\include\xmemory
; File C:\Program Files\Microsoft Visual Studio\2022\Professional\VC\Tools\MSVC\14.44.35207\include\vector
;	COMDAT ??1?$vector@HV?$allocator@H@std@@@std@@QAE@XZ
_TEXT	SEGMENT
??1?$vector@HV?$allocator@H@std@@@std@@QAE@XZ PROC	; std::vector<int,std::allocator<int> >::~vector<int,std::allocator<int> >, COMDAT
; _this$ = ecx

; 829  :     _CONSTEXPR20 ~vector() noexcept {

  00000	56		 push	 esi
  00001	8b f1		 mov	 esi, ecx

; 2090 :         if (_Myfirst) { // destroy and deallocate old array

  00003	8b 06		 mov	 eax, DWORD PTR [esi]
  00005	85 c0		 test	 eax, eax
  00007	74 40		 je	 SHORT $LN5@vector

; 2091 :             _STD _Destroy_range(_Myfirst, _Mylast, _Al);
; 2092 :             _ASAN_VECTOR_REMOVE;
; 2093 :             _Al.deallocate(_Myfirst, static_cast<size_type>(_Myend - _Myfirst));

  00009	8b 4e 08	 mov	 ecx, DWORD PTR [esi+8]
  0000c	2b c8		 sub	 ecx, eax
; File C:\Program Files\Microsoft Visual Studio\2022\Professional\VC\Tools\MSVC\14.44.35207\include\xmemory

; 985  :         _STD _Deallocate<_New_alignof<_Ty>>(_Ptr, sizeof(_Ty) * _Count);

  0000e	83 e1 fc	 and	 ecx, -4			; fffffffcH

; 284  :         if (_Bytes >= _Big_allocation_threshold) {

  00011	81 f9 00 10 00
	00		 cmp	 ecx, 4096		; 00001000H
  00017	72 12		 jb	 SHORT $LN18@vector

; 205  :     const uintptr_t _Ptr_container   = _Ptr_user[-1];

  00019	8b 50 fc	 mov	 edx, DWORD PTR [eax-4]
  0001c	83 c1 23	 add	 ecx, 35			; 00000023H

; 206  : 
; 207  :     // If the following asserts, it likely means that we are performing
; 208  :     // an aligned delete on memory coming from an unaligned allocation.
; 209  :     _STL_ASSERT(_Ptr_user[-2] == _Big_allocation_sentinel, "invalid argument");
; 210  : 
; 211  :     // Extra paranoia on aligned allocation/deallocation; ensure _Ptr_container is
; 212  :     // in range [_Min_back_shift, _Non_user_size]
; 213  : #ifdef _DEBUG
; 214  :     constexpr uintptr_t _Min_back_shift = 2 * sizeof(void*);
; 215  : #else // ^^^ defined(_DEBUG) / !defined(_DEBUG) vvv
; 216  :     constexpr uintptr_t _Min_back_shift = sizeof(void*);
; 217  : #endif // ^^^ !defined(_DEBUG) ^^^
; 218  :     const uintptr_t _Back_shift = reinterpret_cast<uintptr_t>(_Ptr) - _Ptr_container;

  0001f	2b c2		 sub	 eax, edx

; 219  :     _STL_VERIFY(_Back_shift >= _Min_back_shift && _Back_shift <= _Non_user_size, "invalid argument");

  00021	83 c0 fc	 add	 eax, -4			; fffffffcH
  00024	83 f8 1f	 cmp	 eax, 31			; 0000001fH
  00027	77 22		 ja	 SHORT $LN17@vector

; 220  :     _Ptr = reinterpret_cast<void*>(_Ptr_container);

  00029	8b c2		 mov	 eax, edx
$LN18@vector:

; 289  :         ::operator delete(_Ptr, _Bytes);

  0002b	51		 push	 ecx
  0002c	50		 push	 eax
  0002d	e8 00 00 00 00	 call	 ??3@YAXPAXI@Z		; operator delete
; File C:\Program Files\Microsoft Visual Studio\2022\Professional\VC\Tools\MSVC\14.44.35207\include\vector

; 2095 :             _Myfirst = nullptr;

  00032	c7 06 00 00 00
	00		 mov	 DWORD PTR [esi], 0
; File C:\Program Files\Microsoft Visual Studio\2022\Professional\VC\Tools\MSVC\14.44.35207\include\xmemory

; 289  :         ::operator delete(_Ptr, _Bytes);

  00038	83 c4 08	 add	 esp, 8
; File C:\Program Files\Microsoft Visual Studio\2022\Professional\VC\Tools\MSVC\14.44.35207\include\vector

; 2096 :             _Mylast  = nullptr;

  0003b	c7 46 04 00 00
	00 00		 mov	 DWORD PTR [esi+4], 0

; 2097 :             _Myend   = nullptr;

  00042	c7 46 08 00 00
	00 00		 mov	 DWORD PTR [esi+8], 0
$LN5@vector:
  00049	5e		 pop	 esi

; 835  :     }

  0004a	c3		 ret	 0
$LN17@vector:
; File C:\Program Files\Microsoft Visual Studio\2022\Professional\VC\Tools\MSVC\14.44.35207\include\xmemory

; 219  :     _STL_VERIFY(_Back_shift >= _Min_back_shift && _Back_shift <= _Non_user_size, "invalid argument");

  0004b	6a 00		 push	 0
  0004d	6a 00		 push	 0
  0004f	6a 00		 push	 0
  00051	6a 00		 push	 0
  00053	6a 00		 push	 0
  00055	e8 00 00 00 00	 call	 __invoke_watson
$LN26@vector:
  0005a	cc		 int	 3
??1?$vector@HV?$allocator@H@std@@@std@@QAE@XZ ENDP	; std::vector<int,std::allocator<int> >::~vector<int,std::allocator<int> >
_TEXT	ENDS
; Function compile flags: /Ogtp
; File C:\Program Files\Microsoft Visual Studio\2022\Professional\VC\Tools\MSVC\14.44.35207\include\vector
;	COMDAT ??0?$vector@HV?$allocator@H@std@@@std@@QAE@XZ
_TEXT	SEGMENT
??0?$vector@HV?$allocator@H@std@@@std@@QAE@XZ PROC	; std::vector<int,std::allocator<int> >::vector<int,std::allocator<int> >, COMDAT
; _this$ = ecx

; 400  :     _CONSTEXPR20 _Vector_val() noexcept : _Myfirst(), _Mylast(), _Myend() {}

  00000	c7 01 00 00 00
	00		 mov	 DWORD PTR [ecx], 0

; 671  :         _Mypair._Myval2._Alloc_proxy(_GET_PROXY_ALLOCATOR(_Alty, _Getal()));
; 672  :     }

  00006	8b c1		 mov	 eax, ecx

; 400  :     _CONSTEXPR20 _Vector_val() noexcept : _Myfirst(), _Mylast(), _Myend() {}

  00008	c7 41 04 00 00
	00 00		 mov	 DWORD PTR [ecx+4], 0
  0000f	c7 41 08 00 00
	00 00		 mov	 DWORD PTR [ecx+8], 0

; 671  :         _Mypair._Myval2._Alloc_proxy(_GET_PROXY_ALLOCATOR(_Alty, _Getal()));
; 672  :     }

  00016	c3		 ret	 0
??0?$vector@HV?$allocator@H@std@@@std@@QAE@XZ ENDP	; std::vector<int,std::allocator<int> >::vector<int,std::allocator<int> >
_TEXT	ENDS
; Function compile flags: /Ogtp
; File C:\Program Files\Microsoft Visual Studio\2022\Professional\VC\Tools\MSVC\14.44.35207\include\vector
;	COMDAT ?_Xlength@?$vector@MV?$allocator@M@std@@@std@@CAXXZ
_TEXT	SEGMENT
?_Xlength@?$vector@MV?$allocator@M@std@@@std@@CAXXZ PROC ; std::vector<float,std::allocator<float> >::_Xlength, COMDAT

; 2184 :         _Xlength_error("vector too long");

  00000	68 00 00 00 00	 push	 OFFSET ??_C@_0BA@FOIKENOD@vector?5too?5long@
  00005	e8 00 00 00 00	 call	 ?_Xlength_error@std@@YAXPBD@Z ; std::_Xlength_error
$LN3@Xlength:
  0000a	cc		 int	 3
?_Xlength@?$vector@MV?$allocator@M@std@@@std@@CAXXZ ENDP ; std::vector<float,std::allocator<float> >::_Xlength
_TEXT	ENDS
; Function compile flags: /Ogtp
; File C:\Program Files\Microsoft Visual Studio\2022\Professional\VC\Tools\MSVC\14.44.35207\include\vector
; File C:\Program Files\Microsoft Visual Studio\2022\Professional\VC\Tools\MSVC\14.44.35207\include\xmemory
; File C:\Program Files\Microsoft Visual Studio\2022\Professional\VC\Tools\MSVC\14.44.35207\include\vector
; File C:\Program Files\Microsoft Visual Studio\2022\Professional\VC\Tools\MSVC\14.44.35207\include\xmemory
; File C:\Program Files\Microsoft Visual Studio\2022\Professional\VC\Tools\MSVC\14.44.35207\include\vector
; File C:\Program Files\Microsoft Visual Studio\2022\Professional\VC\Tools\MSVC\14.44.35207\include\xmemory
; File C:\Program Files\Microsoft Visual Studio\2022\Professional\VC\Tools\MSVC\14.44.35207\include\vector
;	COMDAT ??1?$vector@MV?$allocator@M@std@@@std@@QAE@XZ
_TEXT	SEGMENT
??1?$vector@MV?$allocator@M@std@@@std@@QAE@XZ PROC	; std::vector<float,std::allocator<float> >::~vector<float,std::allocator<float> >, COMDAT
; _this$ = ecx

; 829  :     _CONSTEXPR20 ~vector() noexcept {

  00000	56		 push	 esi
  00001	8b f1		 mov	 esi, ecx

; 2090 :         if (_Myfirst) { // destroy and deallocate old array

  00003	8b 06		 mov	 eax, DWORD PTR [esi]
  00005	85 c0		 test	 eax, eax
  00007	74 40		 je	 SHORT $LN5@vector

; 2091 :             _STD _Destroy_range(_Myfirst, _Mylast, _Al);
; 2092 :             _ASAN_VECTOR_REMOVE;
; 2093 :             _Al.deallocate(_Myfirst, static_cast<size_type>(_Myend - _Myfirst));

  00009	8b 4e 08	 mov	 ecx, DWORD PTR [esi+8]
  0000c	2b c8		 sub	 ecx, eax
; File C:\Program Files\Microsoft Visual Studio\2022\Professional\VC\Tools\MSVC\14.44.35207\include\xmemory

; 985  :         _STD _Deallocate<_New_alignof<_Ty>>(_Ptr, sizeof(_Ty) * _Count);

  0000e	83 e1 fc	 and	 ecx, -4			; fffffffcH

; 284  :         if (_Bytes >= _Big_allocation_threshold) {

  00011	81 f9 00 10 00
	00		 cmp	 ecx, 4096		; 00001000H
  00017	72 12		 jb	 SHORT $LN18@vector

; 205  :     const uintptr_t _Ptr_container   = _Ptr_user[-1];

  00019	8b 50 fc	 mov	 edx, DWORD PTR [eax-4]
  0001c	83 c1 23	 add	 ecx, 35			; 00000023H

; 206  : 
; 207  :     // If the following asserts, it likely means that we are performing
; 208  :     // an aligned delete on memory coming from an unaligned allocation.
; 209  :     _STL_ASSERT(_Ptr_user[-2] == _Big_allocation_sentinel, "invalid argument");
; 210  : 
; 211  :     // Extra paranoia on aligned allocation/deallocation; ensure _Ptr_container is
; 212  :     // in range [_Min_back_shift, _Non_user_size]
; 213  : #ifdef _DEBUG
; 214  :     constexpr uintptr_t _Min_back_shift = 2 * sizeof(void*);
; 215  : #else // ^^^ defined(_DEBUG) / !defined(_DEBUG) vvv
; 216  :     constexpr uintptr_t _Min_back_shift = sizeof(void*);
; 217  : #endif // ^^^ !defined(_DEBUG) ^^^
; 218  :     const uintptr_t _Back_shift = reinterpret_cast<uintptr_t>(_Ptr) - _Ptr_container;

  0001f	2b c2		 sub	 eax, edx

; 219  :     _STL_VERIFY(_Back_shift >= _Min_back_shift && _Back_shift <= _Non_user_size, "invalid argument");

  00021	83 c0 fc	 add	 eax, -4			; fffffffcH
  00024	83 f8 1f	 cmp	 eax, 31			; 0000001fH
  00027	77 22		 ja	 SHORT $LN17@vector

; 220  :     _Ptr = reinterpret_cast<void*>(_Ptr_container);

  00029	8b c2		 mov	 eax, edx
$LN18@vector:

; 289  :         ::operator delete(_Ptr, _Bytes);

  0002b	51		 push	 ecx
  0002c	50		 push	 eax
  0002d	e8 00 00 00 00	 call	 ??3@YAXPAXI@Z		; operator delete
; File C:\Program Files\Microsoft Visual Studio\2022\Professional\VC\Tools\MSVC\14.44.35207\include\vector

; 2095 :             _Myfirst = nullptr;

  00032	c7 06 00 00 00
	00		 mov	 DWORD PTR [esi], 0
; File C:\Program Files\Microsoft Visual Studio\2022\Professional\VC\Tools\MSVC\14.44.35207\include\xmemory

; 289  :         ::operator delete(_Ptr, _Bytes);

  00038	83 c4 08	 add	 esp, 8
; File C:\Program Files\Microsoft Visual Studio\2022\Professional\VC\Tools\MSVC\14.44.35207\include\vector

; 2096 :             _Mylast  = nullptr;

  0003b	c7 46 04 00 00
	00 00		 mov	 DWORD PTR [esi+4], 0

; 2097 :             _Myend   = nullptr;

  00042	c7 46 08 00 00
	00 00		 mov	 DWORD PTR [esi+8], 0
$LN5@vector:
  00049	5e		 pop	 esi

; 835  :     }

  0004a	c3		 ret	 0
$LN17@vector:
; File C:\Program Files\Microsoft Visual Studio\2022\Professional\VC\Tools\MSVC\14.44.35207\include\xmemory

; 219  :     _STL_VERIFY(_Back_shift >= _Min_back_shift && _Back_shift <= _Non_user_size, "invalid argument");

  0004b	6a 00		 push	 0
  0004d	6a 00		 push	 0
  0004f	6a 00		 push	 0
  00051	6a 00		 push	 0
  00053	6a 00		 push	 0
  00055	e8 00 00 00 00	 call	 __invoke_watson
$LN26@vector:
  0005a	cc		 int	 3
??1?$vector@MV?$allocator@M@std@@@std@@QAE@XZ ENDP	; std::vector<float,std::allocator<float> >::~vector<float,std::allocator<float> >
_TEXT	ENDS
; Function compile flags: /Ogtp
; File C:\Program Files\Microsoft Visual Studio\2022\Professional\VC\Tools\MSVC\14.44.35207\include\vector
;	COMDAT ?_Xlength@?$vector@V?$shared_ptr@VCCandidate@@@std@@V?$allocator@V?$shared_ptr@VCCandidate@@@std@@@2@@std@@CAXXZ
_TEXT	SEGMENT
?_Xlength@?$vector@V?$shared_ptr@VCCandidate@@@std@@V?$allocator@V?$shared_ptr@VCCandidate@@@std@@@2@@std@@CAXXZ PROC ; std::vector<std::shared_ptr<CCandidate>,std::allocator<std::shared_ptr<CCandidate> > >::_Xlength, COMDAT

; 2184 :         _Xlength_error("vector too long");

  00000	68 00 00 00 00	 push	 OFFSET ??_C@_0BA@FOIKENOD@vector?5too?5long@
  00005	e8 00 00 00 00	 call	 ?_Xlength_error@std@@YAXPBD@Z ; std::_Xlength_error
$LN3@Xlength:
  0000a	cc		 int	 3
?_Xlength@?$vector@V?$shared_ptr@VCCandidate@@@std@@V?$allocator@V?$shared_ptr@VCCandidate@@@std@@@2@@std@@CAXXZ ENDP ; std::vector<std::shared_ptr<CCandidate>,std::allocator<std::shared_ptr<CCandidate> > >::_Xlength
_TEXT	ENDS
; Function compile flags: /Ogtp
; File C:\Program Files\Microsoft Visual Studio\2022\Professional\VC\Tools\MSVC\14.44.35207\include\vector
; File C:\Program Files\Microsoft Visual Studio\2022\Professional\VC\Tools\MSVC\14.44.35207\include\xmemory
; File C:\Program Files\Microsoft Visual Studio\2022\Professional\VC\Tools\MSVC\14.44.35207\include\vector
; File C:\Program Files\Microsoft Visual Studio\2022\Professional\VC\Tools\MSVC\14.44.35207\include\xmemory
; File C:\Program Files\Microsoft Visual Studio\2022\Professional\VC\Tools\MSVC\14.44.35207\include\vector
; File C:\Program Files\Microsoft Visual Studio\2022\Professional\VC\Tools\MSVC\14.44.35207\include\xmemory
; File C:\Program Files\Microsoft Visual Studio\2022\Professional\VC\Tools\MSVC\14.44.35207\include\vector
;	COMDAT ??1?$vector@V?$shared_ptr@VCCandidate@@@std@@V?$allocator@V?$shared_ptr@VCCandidate@@@std@@@2@@std@@QAE@XZ
_TEXT	SEGMENT
??1?$vector@V?$shared_ptr@VCCandidate@@@std@@V?$allocator@V?$shared_ptr@VCCandidate@@@std@@@2@@std@@QAE@XZ PROC ; std::vector<std::shared_ptr<CCandidate>,std::allocator<std::shared_ptr<CCandidate> > >::~vector<std::shared_ptr<CCandidate>,std::allocator<std::shared_ptr<CCandidate> > >, COMDAT
; _this$ = ecx

; 829  :     _CONSTEXPR20 ~vector() noexcept {

  00000	56		 push	 esi
  00001	8b f1		 mov	 esi, ecx

; 2090 :         if (_Myfirst) { // destroy and deallocate old array

  00003	8b 06		 mov	 eax, DWORD PTR [esi]
  00005	85 c0		 test	 eax, eax
  00007	74 4f		 je	 SHORT $LN5@vector

; 2091 :             _STD _Destroy_range(_Myfirst, _Mylast, _Al);

  00009	56		 push	 esi
  0000a	ff 76 04	 push	 DWORD PTR [esi+4]
  0000d	50		 push	 eax
  0000e	e8 00 00 00 00	 call	 ??$_Destroy_range@V?$allocator@V?$shared_ptr@VCCandidate@@@std@@@std@@@std@@YAXPAV?$shared_ptr@VCCandidate@@@0@QAV10@AAV?$allocator@V?$shared_ptr@VCCandidate@@@std@@@0@@Z ; std::_Destroy_range<std::allocator<std::shared_ptr<CCandidate> > >

; 2092 :             _ASAN_VECTOR_REMOVE;
; 2093 :             _Al.deallocate(_Myfirst, static_cast<size_type>(_Myend - _Myfirst));

  00013	8b 4e 08	 mov	 ecx, DWORD PTR [esi+8]
  00016	83 c4 0c	 add	 esp, 12			; 0000000cH
  00019	8b 06		 mov	 eax, DWORD PTR [esi]
  0001b	2b c8		 sub	 ecx, eax
; File C:\Program Files\Microsoft Visual Studio\2022\Professional\VC\Tools\MSVC\14.44.35207\include\xmemory

; 985  :         _STD _Deallocate<_New_alignof<_Ty>>(_Ptr, sizeof(_Ty) * _Count);

  0001d	83 e1 f8	 and	 ecx, -8			; fffffff8H

; 284  :         if (_Bytes >= _Big_allocation_threshold) {

  00020	81 f9 00 10 00
	00		 cmp	 ecx, 4096		; 00001000H
  00026	72 12		 jb	 SHORT $LN18@vector

; 205  :     const uintptr_t _Ptr_container   = _Ptr_user[-1];

  00028	8b 50 fc	 mov	 edx, DWORD PTR [eax-4]
  0002b	83 c1 23	 add	 ecx, 35			; 00000023H

; 206  : 
; 207  :     // If the following asserts, it likely means that we are performing
; 208  :     // an aligned delete on memory coming from an unaligned allocation.
; 209  :     _STL_ASSERT(_Ptr_user[-2] == _Big_allocation_sentinel, "invalid argument");
; 210  : 
; 211  :     // Extra paranoia on aligned allocation/deallocation; ensure _Ptr_container is
; 212  :     // in range [_Min_back_shift, _Non_user_size]
; 213  : #ifdef _DEBUG
; 214  :     constexpr uintptr_t _Min_back_shift = 2 * sizeof(void*);
; 215  : #else // ^^^ defined(_DEBUG) / !defined(_DEBUG) vvv
; 216  :     constexpr uintptr_t _Min_back_shift = sizeof(void*);
; 217  : #endif // ^^^ !defined(_DEBUG) ^^^
; 218  :     const uintptr_t _Back_shift = reinterpret_cast<uintptr_t>(_Ptr) - _Ptr_container;

  0002e	2b c2		 sub	 eax, edx

; 219  :     _STL_VERIFY(_Back_shift >= _Min_back_shift && _Back_shift <= _Non_user_size, "invalid argument");

  00030	83 c0 fc	 add	 eax, -4			; fffffffcH
  00033	83 f8 1f	 cmp	 eax, 31			; 0000001fH
  00036	77 22		 ja	 SHORT $LN17@vector

; 220  :     _Ptr = reinterpret_cast<void*>(_Ptr_container);

  00038	8b c2		 mov	 eax, edx
$LN18@vector:

; 289  :         ::operator delete(_Ptr, _Bytes);

  0003a	51		 push	 ecx
  0003b	50		 push	 eax
  0003c	e8 00 00 00 00	 call	 ??3@YAXPAXI@Z		; operator delete
; File C:\Program Files\Microsoft Visual Studio\2022\Professional\VC\Tools\MSVC\14.44.35207\include\vector

; 2095 :             _Myfirst = nullptr;

  00041	c7 06 00 00 00
	00		 mov	 DWORD PTR [esi], 0
; File C:\Program Files\Microsoft Visual Studio\2022\Professional\VC\Tools\MSVC\14.44.35207\include\xmemory

; 289  :         ::operator delete(_Ptr, _Bytes);

  00047	83 c4 08	 add	 esp, 8
; File C:\Program Files\Microsoft Visual Studio\2022\Professional\VC\Tools\MSVC\14.44.35207\include\vector

; 2096 :             _Mylast  = nullptr;

  0004a	c7 46 04 00 00
	00 00		 mov	 DWORD PTR [esi+4], 0

; 2097 :             _Myend   = nullptr;

  00051	c7 46 08 00 00
	00 00		 mov	 DWORD PTR [esi+8], 0
$LN5@vector:
  00058	5e		 pop	 esi

; 835  :     }

  00059	c3		 ret	 0
$LN17@vector:
; File C:\Program Files\Microsoft Visual Studio\2022\Professional\VC\Tools\MSVC\14.44.35207\include\xmemory

; 219  :     _STL_VERIFY(_Back_shift >= _Min_back_shift && _Back_shift <= _Non_user_size, "invalid argument");

  0005a	6a 00		 push	 0
  0005c	6a 00		 push	 0
  0005e	6a 00		 push	 0
  00060	6a 00		 push	 0
  00062	6a 00		 push	 0
  00064	e8 00 00 00 00	 call	 __invoke_watson
$LN26@vector:
  00069	cc		 int	 3
??1?$vector@V?$shared_ptr@VCCandidate@@@std@@V?$allocator@V?$shared_ptr@VCCandidate@@@std@@@2@@std@@QAE@XZ ENDP ; std::vector<std::shared_ptr<CCandidate>,std::allocator<std::shared_ptr<CCandidate> > >::~vector<std::shared_ptr<CCandidate>,std::allocator<std::shared_ptr<CCandidate> > >
_TEXT	ENDS
; Function compile flags: /Ogtp
; File C:\IAGOS\server\v18\Source\Source\_Common\lord.cpp
; File C:\Program Files\Microsoft Visual Studio\2022\Professional\VC\Tools\MSVC\14.44.35207\include\vector
; File C:\Program Files\Microsoft Visual Studio\2022\Professional\VC\Tools\MSVC\14.44.35207\include\algorithm
; File C:\Program Files\Microsoft Visual Studio\2022\Professional\VC\Tools\MSVC\14.44.35207\include\vector
; File C:\Program Files\Microsoft Visual Studio\2022\Professional\VC\Tools\MSVC\14.44.35207\include\algorithm
; File C:\IAGOS\server\v18\Source\Source\_Common\lord.cpp
;	COMDAT ?SortVote@IElection@@IAEXXZ
_TEXT	SEGMENT
$T1 = -4						; size = 1
?SortVote@IElection@@IAEXXZ PROC			; IElection::SortVote, COMDAT
; _this$ = ecx

; 323  : {

  00000	55		 push	 ebp
  00001	8b ec		 mov	 ebp, esp
  00003	51		 push	 ecx
; File C:\Program Files\Microsoft Visual Studio\2022\Professional\VC\Tools\MSVC\14.44.35207\include\vector

; 46   :     _CONSTEXPR20 _Vector_const_iterator(_Tptr _Parg, const _Container_base* _Pvector) noexcept : _Ptr(_Parg) {

  00004	8b 51 18	 mov	 edx, DWORD PTR [ecx+24]
; File C:\Program Files\Microsoft Visual Studio\2022\Professional\VC\Tools\MSVC\14.44.35207\include\algorithm

; 8404 :     _STD _Sort_unchecked(_UFirst, _ULast, _ULast - _UFirst, _STD _Pass_fn(_Pred));

  00007	8b c2		 mov	 eax, edx
; File C:\Program Files\Microsoft Visual Studio\2022\Professional\VC\Tools\MSVC\14.44.35207\include\vector

; 46   :     _CONSTEXPR20 _Vector_const_iterator(_Tptr _Parg, const _Container_base* _Pvector) noexcept : _Ptr(_Parg) {

  00009	8b 49 14	 mov	 ecx, DWORD PTR [ecx+20]
; File C:\Program Files\Microsoft Visual Studio\2022\Professional\VC\Tools\MSVC\14.44.35207\include\algorithm

; 8404 :     _STD _Sort_unchecked(_UFirst, _ULast, _ULast - _UFirst, _STD _Pass_fn(_Pred));

  0000c	2b c1		 sub	 eax, ecx
  0000e	ff 75 fc	 push	 DWORD PTR $T1[ebp]
  00011	c1 f8 03	 sar	 eax, 3
  00014	50		 push	 eax
  00015	52		 push	 edx
  00016	51		 push	 ecx
  00017	e8 00 00 00 00	 call	 ??$_Sort_unchecked@PAV?$shared_ptr@VCCandidate@@@std@@UVoteCompare@@@std@@YAXPAV?$shared_ptr@VCCandidate@@@0@0HUVoteCompare@@@Z ; std::_Sort_unchecked<std::shared_ptr<CCandidate> *,VoteCompare>
  0001c	83 c4 10	 add	 esp, 16			; 00000010H
; File C:\IAGOS\server\v18\Source\Source\_Common\lord.cpp

; 325  : }

  0001f	8b e5		 mov	 esp, ebp
  00021	5d		 pop	 ebp
  00022	c3		 ret	 0
?SortVote@IElection@@IAEXXZ ENDP			; IElection::SortVote
_TEXT	ENDS
; Function compile flags: /Ogtp
; File C:\IAGOS\server\v18\Source\Source\_Common\lord.cpp
; File C:\Program Files\Microsoft Visual Studio\2022\Professional\VC\Tools\MSVC\14.44.35207\include\vector
; File C:\Program Files\Microsoft Visual Studio\2022\Professional\VC\Tools\MSVC\14.44.35207\include\algorithm
; File C:\Program Files\Microsoft Visual Studio\2022\Professional\VC\Tools\MSVC\14.44.35207\include\vector
; File C:\Program Files\Microsoft Visual Studio\2022\Professional\VC\Tools\MSVC\14.44.35207\include\algorithm
; File C:\IAGOS\server\v18\Source\Source\_Common\lord.cpp
;	COMDAT ?SortDeposit@IElection@@IAEXXZ
_TEXT	SEGMENT
$T1 = -4						; size = 1
?SortDeposit@IElection@@IAEXXZ PROC			; IElection::SortDeposit, COMDAT
; _this$ = ecx

; 318  : {

  00000	55		 push	 ebp
  00001	8b ec		 mov	 ebp, esp
  00003	51		 push	 ecx
; File C:\Program Files\Microsoft Visual Studio\2022\Professional\VC\Tools\MSVC\14.44.35207\include\vector

; 46   :     _CONSTEXPR20 _Vector_const_iterator(_Tptr _Parg, const _Container_base* _Pvector) noexcept : _Ptr(_Parg) {

  00004	8b 51 18	 mov	 edx, DWORD PTR [ecx+24]
; File C:\Program Files\Microsoft Visual Studio\2022\Professional\VC\Tools\MSVC\14.44.35207\include\algorithm

; 8404 :     _STD _Sort_unchecked(_UFirst, _ULast, _ULast - _UFirst, _STD _Pass_fn(_Pred));

  00007	8b c2		 mov	 eax, edx
; File C:\Program Files\Microsoft Visual Studio\2022\Professional\VC\Tools\MSVC\14.44.35207\include\vector

; 46   :     _CONSTEXPR20 _Vector_const_iterator(_Tptr _Parg, const _Container_base* _Pvector) noexcept : _Ptr(_Parg) {

  00009	8b 49 14	 mov	 ecx, DWORD PTR [ecx+20]
; File C:\Program Files\Microsoft Visual Studio\2022\Professional\VC\Tools\MSVC\14.44.35207\include\algorithm

; 8404 :     _STD _Sort_unchecked(_UFirst, _ULast, _ULast - _UFirst, _STD _Pass_fn(_Pred));

  0000c	2b c1		 sub	 eax, ecx
  0000e	ff 75 fc	 push	 DWORD PTR $T1[ebp]
  00011	c1 f8 03	 sar	 eax, 3
  00014	50		 push	 eax
  00015	52		 push	 edx
  00016	51		 push	 ecx
  00017	e8 00 00 00 00	 call	 ??$_Sort_unchecked@PAV?$shared_ptr@VCCandidate@@@std@@UDepositCompare@@@std@@YAXPAV?$shared_ptr@VCCandidate@@@0@0HUDepositCompare@@@Z ; std::_Sort_unchecked<std::shared_ptr<CCandidate> *,DepositCompare>
  0001c	83 c4 10	 add	 esp, 16			; 00000010H
; File C:\IAGOS\server\v18\Source\Source\_Common\lord.cpp

; 320  : }

  0001f	8b e5		 mov	 esp, ebp
  00021	5d		 pop	 ebp
  00022	c3		 ret	 0
?SortDeposit@IElection@@IAEXXZ ENDP			; IElection::SortDeposit
_TEXT	ENDS
; Function compile flags: /Ogtp
; File C:\IAGOS\server\v18\Source\Source\_Common\lord.cpp
; File C:\IAGOS\server\v18\Source\Source\_Common\lord.h
; File C:\IAGOS\server\v18\Source\Source\_Common\lord.cpp
;	COMDAT ?SetNextBegin@IElection@@IAEXXZ
_TEXT	SEGMENT
?SetNextBegin@IElection@@IAEXXZ PROC			; IElection::SetNextBegin, COMDAT
; _this$ = ecx

; 180  : {

  00000	56		 push	 esi
  00001	8b f1		 mov	 esi, ecx

; 181  : 	SetBegin( GetNextBegin() );

  00003	e8 00 00 00 00	 call	 ?GetNextBegin@IElection@@QAEJXZ ; IElection::GetNextBegin
; File C:\IAGOS\server\v18\Source\Source\_Common\lord.h

; 77   : 	void	SetBegin( time_t tBegin )	{	m_tBegin	= tBegin;	}

  00008	89 46 20	 mov	 DWORD PTR [esi+32], eax
  0000b	5e		 pop	 esi
; File C:\IAGOS\server\v18\Source\Source\_Common\lord.cpp

; 182  : }

  0000c	c3		 ret	 0
?SetNextBegin@IElection@@IAEXXZ ENDP			; IElection::SetNextBegin
_TEXT	ENDS
; Function compile flags: /Ogtp
; File C:\IAGOS\server\v18\Source\Source\_Common\lord.cpp
; File C:\Program Files\Microsoft Visual Studio\2022\Professional\VC\Tools\MSVC\14.44.35207\atlmfc\include\atltime.h
; File C:\IAGOS\server\v18\Source\Source\_Common\lord.cpp
; File C:\Program Files\Microsoft Visual Studio\2022\Professional\VC\Tools\MSVC\14.44.35207\atlmfc\include\atltime.h
; File C:\IAGOS\server\v18\Source\Source\_Common\lord.cpp
; File C:\Program Files\Microsoft Visual Studio\2022\Professional\VC\Tools\MSVC\14.44.35207\atlmfc\include\atltime.h
; File C:\IAGOS\server\v18\Source\Source\_Common\lord.cpp
; File C:\Program Files\Microsoft Visual Studio\2022\Professional\VC\Tools\MSVC\14.44.35207\atlmfc\include\atltime.h
; File C:\IAGOS\server\v18\Source\Source\_Common\lord.cpp
; File C:\Program Files\Microsoft Visual Studio\2022\Professional\VC\Tools\MSVC\14.44.35207\atlmfc\include\atltime.h
; File C:\IAGOS\server\v18\Source\Source\_Common\lord.cpp
; File C:\Program Files\Microsoft Visual Studio\2022\Professional\VC\Tools\MSVC\14.44.35207\atlmfc\include\atltime.h
; File C:\IAGOS\server\v18\Source\Source\_Common\lord.cpp
; File C:\Program Files\Microsoft Visual Studio\2022\Professional\VC\Tools\MSVC\14.44.35207\atlmfc\include\atltime.h
; File C:\IAGOS\server\v18\Source\Source\_Common\lord.cpp
;	COMDAT ?GetNextBegin@IElection@@QAEJXZ
_TEXT	SEGMENT
$T1 = -200						; size = 4
$T2 = -196						; size = 4
_timeCur$3 = -192					; size = 8
_ttm$4 = -184						; size = 36
_ttm$5 = -148						; size = 36
_ttm$6 = -112						; size = 36
_ttm$7 = -76						; size = 36
_ptmTemp$8 = -40					; size = 36
_ptmTemp$9 = -40					; size = 36
_ptmTemp$10 = -40					; size = 36
_ptmTemp$11 = -40					; size = 36
_atm$12 = -40						; size = 36
__$ArrayPad$ = -4					; size = 4
?GetNextBegin@IElection@@QAEJXZ PROC			; IElection::GetNextBegin, COMDAT
; _this$ = ecx

; 185  : {

  00000	55		 push	 ebp
  00001	8b ec		 mov	 ebp, esp
  00003	81 ec c8 00 00
	00		 sub	 esp, 200		; 000000c8H
  00009	a1 00 00 00 00	 mov	 eax, DWORD PTR ___security_cookie
  0000e	33 c5		 xor	 eax, ebp
  00010	89 45 fc	 mov	 DWORD PTR __$ArrayPad$[ebp], eax
  00013	56		 push	 esi
  00014	57		 push	 edi
  00015	8b f9		 mov	 edi, ecx
; File C:\Program Files\Microsoft Visual Studio\2022\Professional\VC\Tools\MSVC\14.44.35207\atlmfc\include\atltime.h

; 276  :  	m_timeSpan = nSecs + 60* (nMins + 60* (nHours + __int64(24) * lDays));

  00017	69 77 34 80 51
	01 00		 imul	 esi, DWORD PTR [edi+52], 86400
; File C:\IAGOS\server\v18\Source\Source\_Common\lord.cpp

; 187  : 	CTime timeNext	= CTime( GetBegin() ) + CTimeSpan( property.nDays, 0, 0, 0 );

  0001e	8b 47 20	 mov	 eax, DWORD PTR [edi+32]
; File C:\Program Files\Microsoft Visual Studio\2022\Professional\VC\Tools\MSVC\14.44.35207\atlmfc\include\atltime.h

; 420  : 	m_time( time )

  00021	03 f0		 add	 esi, eax
; File C:\IAGOS\server\v18\Source\Source\_Common\lord.cpp

; 188  : 	if( !GetBegin() )	// ĂÖĂĘ Ľ±°Ĺ¶ó¸é

  00023	85 c0		 test	 eax, eax
  00025	0f 85 be 01 00
	00		 jne	 $LN4@GetNextBeg
; File C:\Program Files\Microsoft Visual Studio\2022\Professional\VC\Tools\MSVC\14.44.35207\atlmfc\include\atltime.h

; 377  : 	return( CTime( ::_time64( NULL ) ) );

  0002b	50		 push	 eax
  0002c	e8 00 00 00 00	 call	 __time64

; 420  : 	m_time( time )

  00031	89 85 40 ff ff
	ff		 mov	 DWORD PTR _timeCur$3[ebp], eax

; 617  : 		errno_t err = _localtime64_s(&ptmTemp, &m_time);

  00037	8d 85 40 ff ff
	ff		 lea	 eax, DWORD PTR _timeCur$3[ebp]
  0003d	50		 push	 eax
  0003e	8d 45 d8	 lea	 eax, DWORD PTR _ptmTemp$8[ebp]

; 420  : 	m_time( time )

  00041	89 95 44 ff ff
	ff		 mov	 DWORD PTR _timeCur$3[ebp+4], edx

; 617  : 		errno_t err = _localtime64_s(&ptmTemp, &m_time);

  00047	50		 push	 eax
  00048	e8 00 00 00 00	 call	 __localtime64_s
  0004d	83 c4 0c	 add	 esp, 12			; 0000000cH

; 618  : 
; 619  : 		if (err != 0)

  00050	85 c0		 test	 eax, eax
  00052	75 1f		 jne	 SHORT $LN20@GetNextBeg

; 620  : 		{
; 621  : 			return NULL;    // indicates that m_time was not initialized!
; 622  : 		}
; 623  : 
; 624  : 		*ptm = ptmTemp;

  00054	0f 10 45 d8	 movups	 xmm0, XMMWORD PTR _ptmTemp$8[ebp]
  00058	8b 45 f8	 mov	 eax, DWORD PTR _ptmTemp$8[ebp+32]
  0005b	89 45 d4	 mov	 DWORD PTR _ttm$7[ebp+32], eax

; 625  : 		return ptm;

  0005e	8d 45 b4	 lea	 eax, DWORD PTR _ttm$7[ebp]
  00061	0f 11 45 b4	 movups	 XMMWORD PTR _ttm$7[ebp], xmm0
  00065	0f 10 45 e8	 movups	 xmm0, XMMWORD PTR _ptmTemp$8[ebp+16]
  00069	0f 11 45 c4	 movups	 XMMWORD PTR _ttm$7[ebp+16], xmm0

; 719  : 	return ptm ? ptm->tm_wday + 1 : 0 ;

  0006d	8b 40 18	 mov	 eax, DWORD PTR [eax+24]
  00070	40		 inc	 eax
  00071	eb 02		 jmp	 SHORT $LN21@GetNextBeg
$LN20@GetNextBeg:
  00073	33 c0		 xor	 eax, eax
$LN21@GetNextBeg:
; File C:\IAGOS\server\v18\Source\Source\_Common\lord.cpp

; 192  : 		int d	= property.nDayOfWeek - nDayOfWeek;

  00075	8b 4f 24	 mov	 ecx, DWORD PTR [edi+36]
  00078	2b c8		 sub	 ecx, eax
  0007a	53		 push	 ebx
; File C:\Program Files\Microsoft Visual Studio\2022\Professional\VC\Tools\MSVC\14.44.35207\atlmfc\include\atltime.h

; 276  :  	m_timeSpan = nSecs + 60* (nMins + 60* (nHours + __int64(24) * lDays));

  0007b	6a 00		 push	 0
  0007d	68 10 0e 00 00	 push	 3600			; 00000e10H
  00082	8d 41 07	 lea	 eax, DWORD PTR [ecx+7]
  00085	0f 49 c1	 cmovns	 eax, ecx
  00088	b9 18 00 00 00	 mov	 ecx, 24			; 00000018H
  0008d	f7 e9		 imul	 ecx
  0008f	52		 push	 edx
  00090	50		 push	 eax
  00091	e8 00 00 00 00	 call	 __allmul
  00096	89 85 3c ff ff
	ff		 mov	 DWORD PTR $T2[ebp], eax

; 617  : 		errno_t err = _localtime64_s(&ptmTemp, &m_time);

  0009c	8d 85 40 ff ff
	ff		 lea	 eax, DWORD PTR _timeCur$3[ebp]
  000a2	50		 push	 eax
  000a3	8d 45 d8	 lea	 eax, DWORD PTR _ptmTemp$9[ebp]

; 276  :  	m_timeSpan = nSecs + 60* (nMins + 60* (nHours + __int64(24) * lDays));

  000a6	89 95 38 ff ff
	ff		 mov	 DWORD PTR $T1[ebp], edx

; 617  : 		errno_t err = _localtime64_s(&ptmTemp, &m_time);

  000ac	50		 push	 eax
  000ad	e8 00 00 00 00	 call	 __localtime64_s
  000b2	83 c4 08	 add	 esp, 8

; 618  : 
; 619  : 		if (err != 0)

  000b5	85 c0		 test	 eax, eax
  000b7	75 1e		 jne	 SHORT $LN39@GetNextBeg

; 620  : 		{
; 621  : 			return NULL;    // indicates that m_time was not initialized!
; 622  : 		}
; 623  : 
; 624  : 		*ptm = ptmTemp;

  000b9	0f 10 45 d8	 movups	 xmm0, XMMWORD PTR _ptmTemp$9[ebp]
  000bd	8b 45 f8	 mov	 eax, DWORD PTR _ptmTemp$9[ebp+32]

; 625  : 		return ptm;

  000c0	8d 5d 90	 lea	 ebx, DWORD PTR _ttm$6[ebp]
  000c3	89 45 b0	 mov	 DWORD PTR _ttm$6[ebp+32], eax
  000c6	0f 11 45 90	 movups	 XMMWORD PTR _ttm$6[ebp], xmm0
  000ca	0f 10 45 e8	 movups	 xmm0, XMMWORD PTR _ptmTemp$9[ebp+16]
  000ce	0f 11 45 a0	 movups	 XMMWORD PTR _ttm$6[ebp+16], xmm0

; 683  : 	return ptm ? ptm->tm_mday : 0 ;

  000d2	8b 5b 0c	 mov	 ebx, DWORD PTR [ebx+12]
  000d5	eb 02		 jmp	 SHORT $LN40@GetNextBeg
$LN39@GetNextBeg:
  000d7	33 db		 xor	 ebx, ebx
$LN40@GetNextBeg:

; 617  : 		errno_t err = _localtime64_s(&ptmTemp, &m_time);

  000d9	8d 85 40 ff ff
	ff		 lea	 eax, DWORD PTR _timeCur$3[ebp]
  000df	50		 push	 eax
  000e0	8d 45 d8	 lea	 eax, DWORD PTR _ptmTemp$10[ebp]
  000e3	50		 push	 eax
  000e4	e8 00 00 00 00	 call	 __localtime64_s
  000e9	83 c4 08	 add	 esp, 8

; 618  : 
; 619  : 		if (err != 0)

  000ec	85 c0		 test	 eax, eax
  000ee	75 27		 jne	 SHORT $LN55@GetNextBeg

; 620  : 		{
; 621  : 			return NULL;    // indicates that m_time was not initialized!
; 622  : 		}
; 623  : 
; 624  : 		*ptm = ptmTemp;

  000f0	0f 10 45 d8	 movups	 xmm0, XMMWORD PTR _ptmTemp$10[ebp]
  000f4	8b 45 f8	 mov	 eax, DWORD PTR _ptmTemp$10[ebp+32]

; 625  : 		return ptm;

  000f7	8d b5 6c ff ff
	ff		 lea	 esi, DWORD PTR _ttm$5[ebp]
  000fd	89 45 8c	 mov	 DWORD PTR _ttm$5[ebp+32], eax
  00100	0f 11 85 6c ff
	ff ff		 movups	 XMMWORD PTR _ttm$5[ebp], xmm0
  00107	0f 10 45 e8	 movups	 xmm0, XMMWORD PTR _ptmTemp$10[ebp+16]
  0010b	0f 11 85 7c ff
	ff ff		 movups	 XMMWORD PTR _ttm$5[ebp+16], xmm0

; 674  : 	return ptm ? ptm->tm_mon + 1 : 0;

  00112	8b 76 10	 mov	 esi, DWORD PTR [esi+16]
  00115	eb 03		 jmp	 SHORT $LN56@GetNextBeg
$LN55@GetNextBeg:
  00117	83 ce ff	 or	 esi, -1
$LN56@GetNextBeg:

; 617  : 		errno_t err = _localtime64_s(&ptmTemp, &m_time);

  0011a	8d 85 40 ff ff
	ff		 lea	 eax, DWORD PTR _timeCur$3[ebp]
  00120	50		 push	 eax
  00121	8d 45 d8	 lea	 eax, DWORD PTR _ptmTemp$11[ebp]
  00124	50		 push	 eax
  00125	e8 00 00 00 00	 call	 __localtime64_s
  0012a	83 c4 08	 add	 esp, 8

; 618  : 
; 619  : 		if (err != 0)

  0012d	85 c0		 test	 eax, eax
  0012f	75 30		 jne	 SHORT $LN71@GetNextBeg

; 620  : 		{
; 621  : 			return NULL;    // indicates that m_time was not initialized!
; 622  : 		}
; 623  : 
; 624  : 		*ptm = ptmTemp;

  00131	0f 10 45 d8	 movups	 xmm0, XMMWORD PTR _ptmTemp$11[ebp]
  00135	8b 45 f8	 mov	 eax, DWORD PTR _ptmTemp$11[ebp+32]

; 625  : 		return ptm;

  00138	8d 8d 48 ff ff
	ff		 lea	 ecx, DWORD PTR _ttm$4[ebp]
  0013e	89 85 68 ff ff
	ff		 mov	 DWORD PTR _ttm$4[ebp+32], eax
  00144	0f 11 85 48 ff
	ff ff		 movups	 XMMWORD PTR _ttm$4[ebp], xmm0
  0014b	0f 10 45 e8	 movups	 xmm0, XMMWORD PTR _ptmTemp$11[ebp+16]
  0014f	0f 11 85 58 ff
	ff ff		 movups	 XMMWORD PTR _ttm$4[ebp+16], xmm0

; 665  : 	return ptm ? (ptm->tm_year) + 1900 : 0 ;

  00156	8b 49 14	 mov	 ecx, DWORD PTR [ecx+20]
  00159	81 c1 6c 07 00
	00		 add	 ecx, 1900		; 0000076cH
  0015f	eb 02		 jmp	 SHORT $LN72@GetNextBeg
$LN71@GetNextBeg:
  00161	33 c9		 xor	 ecx, ecx
$LN72@GetNextBeg:
; File C:\IAGOS\server\v18\Source\Source\_Common\lord.cpp

; 195  : 		timeNext	= CTime( timeCur.GetYear(), timeCur.GetMonth(), timeCur.GetDay(), property.nHour, 0, 0 ) + CTimeSpan( d, 0, 0, 0 );

  00163	8b 57 28	 mov	 edx, DWORD PTR [edi+40]
; File C:\Program Files\Microsoft Visual Studio\2022\Professional\VC\Tools\MSVC\14.44.35207\atlmfc\include\atltime.h

; 436  : 	ATLENSURE( nYear >= 1970 );

  00166	81 f9 b2 07 00
	00		 cmp	 ecx, 1970		; 000007b2H
  0016c	0f 8c 89 00 00
	00		 jl	 $LN156@GetNextBeg

; 437  : 	ATLENSURE( nMonth >= 1 && nMonth <= 12 );

  00172	83 fe 0b	 cmp	 esi, 11			; 0000000bH
  00175	0f 87 80 00 00
	00		 ja	 $LN156@GetNextBeg

; 438  : 	ATLENSURE( nDay >= 1 && nDay <= 31 );

  0017b	8d 43 ff	 lea	 eax, DWORD PTR [ebx-1]
  0017e	83 f8 1e	 cmp	 eax, 30			; 0000001eH
  00181	77 78		 ja	 SHORT $LN156@GetNextBeg

; 439  : 	ATLENSURE( nHour >= 0 && nHour <= 23 );

  00183	83 fa 17	 cmp	 edx, 23			; 00000017H
  00186	77 73		 ja	 SHORT $LN156@GetNextBeg

; 440  : 	ATLENSURE( nMin >= 0 && nMin <= 59 );
; 441  : 	ATLENSURE( nSec >= 0 && nSec <= 59 );
; 442  : 
; 443  : #pragma warning (pop)
; 444  : 
; 445  : 	struct tm atm;
; 446  : 
; 447  : 	atm.tm_sec = nSec;
; 448  : 	atm.tm_min = nMin;
; 449  : 	atm.tm_hour = nHour;
; 450  : 	atm.tm_mday = nDay;
; 451  : 	atm.tm_mon = nMonth - 1;        // tm_mon is 0 based
; 452  : 	atm.tm_year = nYear - 1900;     // tm_year is 1900 based

  00188	8d 81 94 f8 ff
	ff		 lea	 eax, DWORD PTR [ecx-1900]
  0018e	c7 45 d8 00 00
	00 00		 mov	 DWORD PTR _atm$12[ebp], 0
  00195	89 45 ec	 mov	 DWORD PTR _atm$12[ebp+20], eax

; 453  : 	atm.tm_isdst = nDST;
; 454  : 
; 455  : 	m_time = _mktime64(&atm);

  00198	8d 45 d8	 lea	 eax, DWORD PTR _atm$12[ebp]
  0019b	50		 push	 eax
  0019c	c7 45 dc 00 00
	00 00		 mov	 DWORD PTR _atm$12[ebp+4], 0
  001a3	89 55 e0	 mov	 DWORD PTR _atm$12[ebp+8], edx
  001a6	89 5d e4	 mov	 DWORD PTR _atm$12[ebp+12], ebx
  001a9	89 75 e8	 mov	 DWORD PTR _atm$12[ebp+16], esi
  001ac	c7 45 f8 ff ff
	ff ff		 mov	 DWORD PTR _atm$12[ebp+32], -1
  001b3	e8 00 00 00 00	 call	 __mktime64
  001b8	83 c4 04	 add	 esp, 4
  001bb	8b f0		 mov	 esi, eax
  001bd	23 c2		 and	 eax, edx
  001bf	5b		 pop	 ebx
  001c0	83 f8 ff	 cmp	 eax, -1

; 456  : 	ATLASSUME(m_time != -1);       // indicates an illegal input time
; 457  : 	if(m_time == -1)

  001c3	74 40		 je	 SHORT $LN179@GetNextBeg

; 556  : 	return( CTime( m_time+span.GetTimeSpan() ) );

  001c5	03 b5 3c ff ff
	ff		 add	 esi, DWORD PTR $T2[ebp]
  001cb	13 95 38 ff ff
	ff		 adc	 edx, DWORD PTR $T1[ebp]
; File C:\IAGOS\server\v18\Source\Source\_Common\lord.cpp

; 195  : 		timeNext	= CTime( timeCur.GetYear(), timeCur.GetMonth(), timeCur.GetDay(), property.nHour, 0, 0 ) + CTimeSpan( d, 0, 0, 0 );

  001d1	3b 95 44 ff ff
	ff		 cmp	 edx, DWORD PTR _timeCur$3[ebp+4]
  001d7	7f 10		 jg	 SHORT $LN4@GetNextBeg
  001d9	7c 08		 jl	 SHORT $LN164@GetNextBeg
  001db	3b b5 40 ff ff
	ff		 cmp	 esi, DWORD PTR _timeCur$3[ebp]
; File C:\Program Files\Microsoft Visual Studio\2022\Professional\VC\Tools\MSVC\14.44.35207\atlmfc\include\atltime.h

; 581  : 	return( m_time <= time.m_time );

  001e1	77 06		 ja	 SHORT $LN4@GetNextBeg
$LN164@GetNextBeg:

; 276  :  	m_timeSpan = nSecs + 60* (nMins + 60* (nHours + __int64(24) * lDays));

  001e3	81 c6 80 3a 09
	00		 add	 esi, 604800		; 00093a80H
$LN4@GetNextBeg:
; File C:\IAGOS\server\v18\Source\Source\_Common\lord.cpp

; 200  : }

  001e9	8b 4d fc	 mov	 ecx, DWORD PTR __$ArrayPad$[ebp]
  001ec	8b c6		 mov	 eax, esi
  001ee	5f		 pop	 edi
  001ef	33 cd		 xor	 ecx, ebp
  001f1	5e		 pop	 esi
  001f2	e8 00 00 00 00	 call	 @__security_check_cookie@4
  001f7	8b e5		 mov	 esp, ebp
  001f9	5d		 pop	 ebp
  001fa	c3		 ret	 0
$LN156@GetNextBeg:
; File C:\Program Files\Microsoft Visual Studio\2022\Professional\VC\Tools\MSVC\14.44.35207\atlmfc\include\atltime.h

; 439  : 	ATLENSURE( nHour >= 0 && nHour <= 23 );

  001fb	68 05 40 00 80	 push	 -2147467259		; 80004005H
  00200	e8 00 00 00 00	 call	 ?AtlThrowImpl@ATL@@YGXJ@Z ; ATL::AtlThrowImpl
$LN179@GetNextBeg:

; 458  : 	{
; 459  : 		AtlThrow(E_INVALIDARG);

  00205	68 57 00 07 80	 push	 -2147024809		; 80070057H
  0020a	e8 00 00 00 00	 call	 ?AtlThrowImpl@ATL@@YGXJ@Z ; ATL::AtlThrowImpl
$LN177@GetNextBeg:
  0020f	cc		 int	 3
?GetNextBegin@IElection@@QAEJXZ ENDP			; IElection::GetNextBegin
_TEXT	ENDS
; Function compile flags: /Ogtp
; File C:\IAGOS\server\v18\Source\Source\_Common\lord.cpp
; File C:\IAGOS\server\v18\Source\Source\_Common\lord.h
; File C:\IAGOS\server\v18\Source\Source\_Common\lord.cpp
; File C:\Program Files\Microsoft Visual Studio\2022\Professional\VC\Tools\MSVC\14.44.35207\include\vector
; File C:\IAGOS\server\v18\Source\Source\_Common\lord.cpp
;	COMDAT ?GetResult@IElection@@QAEKXZ
_TEXT	SEGMENT
?GetResult@IElection@@QAEKXZ PROC			; IElection::GetResult, COMDAT
; _this$ = ecx

; 336  : {

  00000	56		 push	 esi
  00001	8b f1		 mov	 esi, ecx
; File C:\IAGOS\server\v18\Source\Source\_Common\lord.h

; 109  : 	BOOL	IsValid( void )		{	return( GetVote() >= m_nRequirement );	}

  00003	e8 00 00 00 00	 call	 ?GetVote@IElection@@QAEHXZ ; IElection::GetVote
  00008	3b 46 0c	 cmp	 eax, DWORD PTR [esi+12]
; File C:\IAGOS\server\v18\Source\Source\_Common\lord.cpp

; 337  : 	if( !IsValid() )

  0000b	7c 0e		 jl	 SHORT $LN13@GetResult
; File C:\Program Files\Microsoft Visual Studio\2022\Professional\VC\Tools\MSVC\14.44.35207\include\vector

; 1910 :         return _My_data._Myfirst == _My_data._Mylast;

  0000d	8b 46 14	 mov	 eax, DWORD PTR [esi+20]
  00010	3b 46 18	 cmp	 eax, DWORD PTR [esi+24]
; File C:\IAGOS\server\v18\Source\Source\_Common\lord.cpp

; 339  : 	if( m_vCandidates.empty() )

  00013	74 06		 je	 SHORT $LN13@GetResult

; 341  : 	return m_vCandidates[0]->GetIdPlayer();

  00015	8b 00		 mov	 eax, DWORD PTR [eax]
  00017	5e		 pop	 esi
  00018	8b 00		 mov	 eax, DWORD PTR [eax]

; 342  : }

  0001a	c3		 ret	 0
$LN13@GetResult:

; 340  : 		return NULL_ID;

  0001b	83 c8 ff	 or	 eax, -1
  0001e	5e		 pop	 esi

; 342  : }

  0001f	c3		 ret	 0
?GetResult@IElection@@QAEKXZ ENDP			; IElection::GetResult
_TEXT	ENDS
; Function compile flags: /Ogtp
; File C:\IAGOS\server\v18\Source\Source\_Common\lord.cpp
; File C:\Program Files\Microsoft Visual Studio\2022\Professional\VC\Tools\MSVC\14.44.35207\include\vector
; File C:\IAGOS\server\v18\Source\Source\_Common\lord.cpp
; File C:\Program Files\Microsoft Visual Studio\2022\Professional\VC\Tools\MSVC\14.44.35207\include\vector
; File C:\IAGOS\server\v18\Source\Source\_Common\lord.cpp
; File C:\Program Files\Microsoft Visual Studio\2022\Professional\VC\Tools\MSVC\14.44.35207\include\vector
; File C:\IAGOS\server\v18\Source\Source\_Common\lord.cpp
; File C:\Program Files\Microsoft Visual Studio\2022\Professional\VC\Tools\MSVC\14.44.35207\include\vector
; File C:\IAGOS\server\v18\Source\Source\_Common\lord.cpp
;	COMDAT ?GetVote@IElection@@QAEHXZ
_TEXT	SEGMENT
?GetVote@IElection@@QAEHXZ PROC				; IElection::GetVote, COMDAT
; _this$ = ecx
; File C:\Program Files\Microsoft Visual Studio\2022\Professional\VC\Tools\MSVC\14.44.35207\include\vector

; 46   :     _CONSTEXPR20 _Vector_const_iterator(_Tptr _Parg, const _Container_base* _Pvector) noexcept : _Ptr(_Parg) {

  00000	8b 51 14	 mov	 edx, DWORD PTR [ecx+20]
; File C:\IAGOS\server\v18\Source\Source\_Common\lord.cpp

; 329  : 	int nTotal	= 0;

  00003	33 c0		 xor	 eax, eax
  00005	56		 push	 esi
; File C:\Program Files\Microsoft Visual Studio\2022\Professional\VC\Tools\MSVC\14.44.35207\include\vector

; 46   :     _CONSTEXPR20 _Vector_const_iterator(_Tptr _Parg, const _Container_base* _Pvector) noexcept : _Ptr(_Parg) {

  00006	8b 71 18	 mov	 esi, DWORD PTR [ecx+24]

; 176  :         return !(*this == _Right);

  00009	3b d6		 cmp	 edx, esi
; File C:\IAGOS\server\v18\Source\Source\_Common\lord.cpp

; 330  : 	for( VSPC::iterator i = m_vCandidates.begin(); i != m_vCandidates.end(); ++i )

  0000b	74 12		 je	 SHORT $LN3@GetVote
  0000d	0f 1f 00	 npad	 3
$LL4@GetVote:

; 331  : 		nTotal	+= ( *i )->GetVote();

  00010	8b 0a		 mov	 ecx, DWORD PTR [edx]
; File C:\Program Files\Microsoft Visual Studio\2022\Professional\VC\Tools\MSVC\14.44.35207\include\vector

; 82   :         ++_Ptr;

  00012	83 c2 08	 add	 edx, 8
; File C:\IAGOS\server\v18\Source\Source\_Common\lord.cpp

; 331  : 		nTotal	+= ( *i )->GetVote();

  00015	03 81 10 01 00
	00		 add	 eax, DWORD PTR [ecx+272]
; File C:\Program Files\Microsoft Visual Studio\2022\Professional\VC\Tools\MSVC\14.44.35207\include\vector

; 176  :         return !(*this == _Right);

  0001b	3b d6		 cmp	 edx, esi
; File C:\IAGOS\server\v18\Source\Source\_Common\lord.cpp

; 330  : 	for( VSPC::iterator i = m_vCandidates.begin(); i != m_vCandidates.end(); ++i )

  0001d	75 f1		 jne	 SHORT $LL4@GetVote
$LN3@GetVote:
  0001f	5e		 pop	 esi

; 332  : 	return nTotal;
; 333  : }

  00020	c3		 ret	 0
?GetVote@IElection@@QAEHXZ ENDP				; IElection::GetVote
_TEXT	ENDS
; Function compile flags: /Ogtp
; File C:\IAGOS\server\v18\Source\Source\_Common\lord.cpp
;	COMDAT ?HasPledge@IElection@@QAEHK@Z
_TEXT	SEGMENT
_idPlayer$ = 8						; size = 4
?HasPledge@IElection@@QAEHK@Z PROC			; IElection::HasPledge, COMDAT
; _this$ = ecx

; 298  : {

  00000	55		 push	 ebp
  00001	8b ec		 mov	 ebp, esp

; 299  : 	CCandidate* pCandidate	= GetCandidate( idPlayer );

  00003	ff 75 08	 push	 DWORD PTR _idPlayer$[ebp]
  00006	e8 00 00 00 00	 call	 ?GetCandidate@IElection@@QAEPAVCCandidate@@K@Z ; IElection::GetCandidate

; 300  : 	return( pCandidate && lstrlen( pCandidate->GetPledge() ) > 0 );

  0000b	85 c0		 test	 eax, eax
  0000d	74 17		 je	 SHORT $LN3@HasPledge
  0000f	83 c0 10	 add	 eax, 16			; 00000010H
  00012	50		 push	 eax
  00013	ff 15 00 00 00
	00		 call	 DWORD PTR __imp__lstrlenA@4
  00019	85 c0		 test	 eax, eax
  0001b	7e 09		 jle	 SHORT $LN3@HasPledge
  0001d	b8 01 00 00 00	 mov	 eax, 1

; 301  : }

  00022	5d		 pop	 ebp
  00023	c2 04 00	 ret	 4
$LN3@HasPledge:

; 300  : 	return( pCandidate && lstrlen( pCandidate->GetPledge() ) > 0 );

  00026	33 c0		 xor	 eax, eax

; 301  : }

  00028	5d		 pop	 ebp
  00029	c2 04 00	 ret	 4
?HasPledge@IElection@@QAEHK@Z ENDP			; IElection::HasPledge
_TEXT	ENDS
; Function compile flags: /Ogtp
; File C:\IAGOS\server\v18\Source\Source\_Common\lord.cpp
;	COMDAT ?IncVote@IElection@@QAEXKK@Z
_TEXT	SEGMENT
_idPlayer$ = 8						; size = 4
_idElector$ = 12					; size = 4
?IncVote@IElection@@QAEXKK@Z PROC			; IElection::IncVote, COMDAT
; _this$ = ecx

; 304  : {

  00000	55		 push	 ebp
  00001	8b ec		 mov	 ebp, esp
  00003	53		 push	 ebx

; 305  : 	election::OutputDebugString( "IElection::IncVote( %07d, %07d )", idPlayer, idElector );

  00004	8b 5d 08	 mov	 ebx, DWORD PTR _idPlayer$[ebp]
  00007	57		 push	 edi
  00008	ff 75 0c	 push	 DWORD PTR _idElector$[ebp]
  0000b	8b f9		 mov	 edi, ecx
  0000d	53		 push	 ebx
  0000e	68 00 00 00 00	 push	 OFFSET ??_C@_0CB@HABGPKEI@IElection?3?3IncVote?$CI?5?$CF07d?0?5?$CF07d?5@
  00013	e8 00 00 00 00	 call	 ?OutputDebugStringA@election@@YAXPBDZZ ; election::OutputDebugStringA

; 306  : 	if( DoTestIncVote( idPlayer, idElector ) )

  00018	8b 07		 mov	 eax, DWORD PTR [edi]
  0001a	83 c4 0c	 add	 esp, 12			; 0000000cH
  0001d	8b cf		 mov	 ecx, edi
  0001f	ff 75 0c	 push	 DWORD PTR _idElector$[ebp]
  00022	53		 push	 ebx
  00023	ff 50 24	 call	 DWORD PTR [eax+36]
  00026	85 c0		 test	 eax, eax
  00028	74 19		 je	 SHORT $LN3@IncVote

; 307  : 	{
; 308  : 		CCandidate* pCandidate	= GetCandidate( idPlayer );

  0002a	53		 push	 ebx
  0002b	8b cf		 mov	 ecx, edi
  0002d	e8 00 00 00 00	 call	 ?GetCandidate@IElection@@QAEPAVCCandidate@@K@Z ; IElection::GetCandidate

; 309  : 		if( pCandidate )

  00032	85 c0		 test	 eax, eax
  00034	74 0d		 je	 SHORT $LN3@IncVote

; 310  : 		{
; 311  : 			pCandidate->SetVote( pCandidate->GetVote() + 1 );

  00036	ff 80 10 01 00
	00		 inc	 DWORD PTR [eax+272]

; 312  : 			DoIncVoteComplete();

  0003c	8b cf		 mov	 ecx, edi
  0003e	8b 07		 mov	 eax, DWORD PTR [edi]
  00040	ff 50 28	 call	 DWORD PTR [eax+40]
$LN3@IncVote:

; 313  : 		}
; 314  : 	}
; 315  : }

  00043	5f		 pop	 edi
  00044	5b		 pop	 ebx
  00045	5d		 pop	 ebp
  00046	c2 08 00	 ret	 8
?IncVote@IElection@@QAEXKK@Z ENDP			; IElection::IncVote
_TEXT	ENDS
; Function compile flags: /Ogtp
; File C:\IAGOS\server\v18\Source\Source\_Common\lord.cpp
; File C:\IAGOS\server\v18\Source\Source\_Common\lord.h
; File C:\IAGOS\server\v18\Source\Source\_Common\lord.cpp
;	COMDAT ?SetPledge@IElection@@QAEXKPBD@Z
_TEXT	SEGMENT
_idPlayer$ = 8						; size = 4
_szPledge$ = 12						; size = 4
?SetPledge@IElection@@QAEXKPBD@Z PROC			; IElection::SetPledge, COMDAT
; _this$ = ecx

; 284  : {

  00000	55		 push	 ebp
  00001	8b ec		 mov	 ebp, esp
  00003	53		 push	 ebx

; 285  : 	election::OutputDebugString( "IElection::SetPledge( %07d, %s )", idPlayer, szPledge );

  00004	8b 5d 0c	 mov	 ebx, DWORD PTR _szPledge$[ebp]
  00007	56		 push	 esi
  00008	57		 push	 edi
  00009	8b 7d 08	 mov	 edi, DWORD PTR _idPlayer$[ebp]
  0000c	8b f1		 mov	 esi, ecx
  0000e	53		 push	 ebx
  0000f	57		 push	 edi
  00010	68 00 00 00 00	 push	 OFFSET ??_C@_0CB@MMIDMHIF@IElection?3?3SetPledge?$CI?5?$CF07d?0?5?$CFs?5@
  00015	e8 00 00 00 00	 call	 ?OutputDebugStringA@election@@YAXPBDZZ ; election::OutputDebugStringA

; 286  : 	if( DoTestSetPledge( idPlayer, szPledge ) )

  0001a	8b 06		 mov	 eax, DWORD PTR [esi]
  0001c	83 c4 0c	 add	 esp, 12			; 0000000cH
  0001f	8b ce		 mov	 ecx, esi
  00021	53		 push	 ebx
  00022	57		 push	 edi
  00023	ff 50 1c	 call	 DWORD PTR [eax+28]
  00026	85 c0		 test	 eax, eax
  00028	74 1e		 je	 SHORT $LN3@SetPledge

; 287  : 	{
; 288  : 		CCandidate* pCandidate	= GetCandidate( idPlayer );

  0002a	57		 push	 edi
  0002b	8b ce		 mov	 ecx, esi
  0002d	e8 00 00 00 00	 call	 ?GetCandidate@IElection@@QAEPAVCCandidate@@K@Z ; IElection::GetCandidate

; 289  : 		if( pCandidate )

  00032	85 c0		 test	 eax, eax
  00034	74 12		 je	 SHORT $LN3@SetPledge
; File C:\IAGOS\server\v18\Source\Source\_Common\lord.h

; 32   : 	void	SetPledge( const char*	szPledge )	{	lstrcpy( m_szPledge, szPledge );	}

  00036	53		 push	 ebx
  00037	83 c0 10	 add	 eax, 16			; 00000010H
  0003a	50		 push	 eax
  0003b	ff 15 00 00 00
	00		 call	 DWORD PTR __imp__lstrcpyA@8
; File C:\IAGOS\server\v18\Source\Source\_Common\lord.cpp

; 292  : 			DoSetPlegeComplete();

  00041	8b 06		 mov	 eax, DWORD PTR [esi]
  00043	8b ce		 mov	 ecx, esi
  00045	ff 50 20	 call	 DWORD PTR [eax+32]
$LN3@SetPledge:

; 293  : 		}
; 294  : 	}
; 295  : }

  00048	5f		 pop	 edi
  00049	5e		 pop	 esi
  0004a	5b		 pop	 ebx
  0004b	5d		 pop	 ebp
  0004c	c2 08 00	 ret	 8
?SetPledge@IElection@@QAEXKPBD@Z ENDP			; IElection::SetPledge
_TEXT	ENDS
; Function compile flags: /Ogtp
; File C:\IAGOS\server\v18\Source\Source\_Common\lord.cpp
;	COMDAT ?AddDeposit@IElection@@QAEXK_JJ@Z
_TEXT	SEGMENT
_idPlayer$ = 8						; size = 4
_iDeposit$ = 12						; size = 8
_tCreate$ = 20						; size = 4
?AddDeposit@IElection@@QAEXK_JJ@Z PROC			; IElection::AddDeposit, COMDAT
; _this$ = ecx

; 270  : {

  00000	55		 push	 ebp
  00001	8b ec		 mov	 ebp, esp
  00003	53		 push	 ebx

; 271  : 	election::OutputDebugString( "IElection::AddDeposit( %07d, %I64d, %d )", idPlayer, iDeposit, tCreate );

  00004	8b 5d 14	 mov	 ebx, DWORD PTR _tCreate$[ebp]
  00007	56		 push	 esi
  00008	57		 push	 edi
  00009	8b 7d 08	 mov	 edi, DWORD PTR _idPlayer$[ebp]
  0000c	8b f1		 mov	 esi, ecx
  0000e	53		 push	 ebx
  0000f	ff 75 10	 push	 DWORD PTR _iDeposit$[ebp+4]
  00012	ff 75 0c	 push	 DWORD PTR _iDeposit$[ebp]
  00015	57		 push	 edi
  00016	68 00 00 00 00	 push	 OFFSET ??_C@_0CJ@OGFOFGHI@IElection?3?3AddDeposit?$CI?5?$CF07d?0?5?$CFI@
  0001b	e8 00 00 00 00	 call	 ?OutputDebugStringA@election@@YAXPBDZZ ; election::OutputDebugStringA

; 272  : 	if( DoTestAddDeposit( idPlayer, iDeposit, tCreate ) )

  00020	8b 06		 mov	 eax, DWORD PTR [esi]
  00022	83 c4 14	 add	 esp, 20			; 00000014H
  00025	8b ce		 mov	 ecx, esi
  00027	53		 push	 ebx
  00028	ff 75 10	 push	 DWORD PTR _iDeposit$[ebp+4]
  0002b	ff 75 0c	 push	 DWORD PTR _iDeposit$[ebp]
  0002e	57		 push	 edi
  0002f	ff 50 14	 call	 DWORD PTR [eax+20]
  00032	85 c0		 test	 eax, eax
  00034	74 40		 je	 SHORT $LN2@AddDeposit

; 273  : 	{
; 274  : 		CCandidate* pCandidate	= GetCandidate( idPlayer );

  00036	57		 push	 edi
  00037	8b ce		 mov	 ecx, esi
  00039	e8 00 00 00 00	 call	 ?GetCandidate@IElection@@QAEPAVCCandidate@@K@Z ; IElection::GetCandidate

; 275  : 		if( !pCandidate )

  0003e	85 c0		 test	 eax, eax
  00040	75 11		 jne	 SHORT $LN3@AddDeposit

; 276  : 			pCandidate	= AddCandidate( idPlayer, 0, "", 0, tCreate );

  00042	53		 push	 ebx
  00043	50		 push	 eax
  00044	68 00 00 00 00	 push	 OFFSET ??_C@_00CNPNBAHC@@
  00049	50		 push	 eax
  0004a	50		 push	 eax
  0004b	57		 push	 edi
  0004c	8b ce		 mov	 ecx, esi
  0004e	e8 00 00 00 00	 call	 ?AddCandidate@IElection@@QAEPAVCCandidate@@K_JPBDHJ@Z ; IElection::AddCandidate
$LN3@AddDeposit:

; 277  : 		pCandidate->AddDeposit( iDeposit );

  00053	ff 75 10	 push	 DWORD PTR _iDeposit$[ebp+4]
  00056	8b c8		 mov	 ecx, eax
  00058	ff 75 0c	 push	 DWORD PTR _iDeposit$[ebp]
  0005b	e8 00 00 00 00	 call	 ?AddDeposit@CCandidate@@QAE_J_J@Z ; CCandidate::AddDeposit

; 278  : 		SortDeposit();

  00060	8b ce		 mov	 ecx, esi
  00062	e8 00 00 00 00	 call	 ?SortDeposit@IElection@@IAEXXZ ; IElection::SortDeposit

; 279  : 		DoAddDepositComplete( idPlayer, iDeposit, tCreate );

  00067	8b 06		 mov	 eax, DWORD PTR [esi]
  00069	8b ce		 mov	 ecx, esi
  0006b	53		 push	 ebx
  0006c	ff 75 10	 push	 DWORD PTR _iDeposit$[ebp+4]
  0006f	ff 75 0c	 push	 DWORD PTR _iDeposit$[ebp]
  00072	57		 push	 edi
  00073	ff 50 18	 call	 DWORD PTR [eax+24]
$LN2@AddDeposit:

; 280  : 	}
; 281  : }

  00076	5f		 pop	 edi
  00077	5e		 pop	 esi
  00078	5b		 pop	 ebx
  00079	5d		 pop	 ebp
  0007a	c2 10 00	 ret	 16			; 00000010H
?AddDeposit@IElection@@QAEXK_JJ@Z ENDP			; IElection::AddDeposit
_TEXT	ENDS
; Function compile flags: /Ogtp
; File C:\IAGOS\server\v18\Source\Source\_Common\lord.cpp
; File C:\IAGOS\server\v18\Source\Source\_Common\lord.h
; File C:\IAGOS\server\v18\Source\Source\_Common\lord.cpp
;	COMDAT ?EndVote@IElection@@QAEXK@Z
_TEXT	SEGMENT
_idPlayer$ = 8						; size = 4
?EndVote@IElection@@QAEXK@Z PROC			; IElection::EndVote, COMDAT
; _this$ = ecx

; 243  : {

  00000	55		 push	 ebp
  00001	8b ec		 mov	 ebp, esp
  00003	56		 push	 esi
  00004	57		 push	 edi

; 244  : 	election::OutputDebugString( "IElection::EndVote( %d )", idPlayer );

  00005	8b 7d 08	 mov	 edi, DWORD PTR _idPlayer$[ebp]
  00008	8b f1		 mov	 esi, ecx
  0000a	57		 push	 edi
  0000b	68 00 00 00 00	 push	 OFFSET ??_C@_0BJ@OADJGDLJ@IElection?3?3EndVote?$CI?5?$CFd?5?$CJ@
  00010	e8 00 00 00 00	 call	 ?OutputDebugStringA@election@@YAXPBDZZ ; election::OutputDebugStringA
  00015	83 c4 08	 add	 esp, 8

; 245  : 	SortVote();

  00018	8b ce		 mov	 ecx, esi
  0001a	e8 00 00 00 00	 call	 ?SortVote@IElection@@IAEXXZ ; IElection::SortVote

; 246  : 
; 247  : 	if( idPlayer == 0 )

  0001f	85 ff		 test	 edi, edi
  00021	75 09		 jne	 SHORT $LN2@EndVote

; 248  : 		idPlayer	= GetResult();	// ĹőÇĄ °á°ú ąÝČŻ

  00023	8b ce		 mov	 ecx, esi
  00025	e8 00 00 00 00	 call	 ?GetResult@IElection@@QAEKXZ ; IElection::GetResult
  0002a	8b f8		 mov	 edi, eax
$LN2@EndVote:

; 249  : 	if( DoTestEndVote( idPlayer ) )

  0002c	8b 16		 mov	 edx, DWORD PTR [esi]
  0002e	8b ce		 mov	 ecx, esi
  00030	57		 push	 edi
  00031	ff 52 10	 call	 DWORD PTR [edx+16]
  00034	85 c0		 test	 eax, eax
  00036	74 18		 je	 SHORT $LN3@EndVote

; 250  : 	{
; 251  : 		m_pLord->Set( idPlayer );	// ±şÁÖ ĽłÁ¤

  00038	8b 46 04	 mov	 eax, DWORD PTR [esi+4]
  0003b	89 78 04	 mov	 DWORD PTR [eax+4], edi
; File C:\IAGOS\server\v18\Source\Source\_Common\lord.h

; 259  : 	void	ResetSkill( void )	{	m_pSkills->Reset();		}

  0003e	8b 4e 04	 mov	 ecx, DWORD PTR [esi+4]
  00041	8b 49 10	 mov	 ecx, DWORD PTR [ecx+16]
  00044	e8 00 00 00 00	 call	 ?Reset@CLordSkill@@QAEXXZ ; CLordSkill::Reset
; File C:\IAGOS\server\v18\Source\Source\_Common\lord.cpp

; 253  : 		PrepareNext();	// Ľ±°Ĺ ÁŘşń »óĹÂ·Î şŻ°ć

  00049	8b ce		 mov	 ecx, esi
  0004b	e8 00 00 00 00	 call	 ?PrepareNext@IElection@@QAEXXZ ; IElection::PrepareNext
$LN3@EndVote:

; 254  : 									// ŔÔČÄş¸ŔÚ ¸ń·Ď ĂĘ±âČ­
; 255  : 									// °ł˝Ă ˝Ă°Ł ĽłÁ¤
; 256  : 									// Ľ±°Ĺ ˝Äş°ŔÚ Áő°ˇ
; 257  : 	}
; 258  : 	DoEndVoteComplete();

  00050	8b 06		 mov	 eax, DWORD PTR [esi]
  00052	8b ce		 mov	 ecx, esi
  00054	ff 50 2c	 call	 DWORD PTR [eax+44]
  00057	5f		 pop	 edi
  00058	5e		 pop	 esi

; 259  : }

  00059	5d		 pop	 ebp
  0005a	c2 04 00	 ret	 4
?EndVote@IElection@@QAEXK@Z ENDP			; IElection::EndVote
_TEXT	ENDS
; Function compile flags: /Ogtp
; File C:\IAGOS\server\v18\Source\Source\_Common\lord.cpp
; File C:\Program Files\Microsoft Visual Studio\2022\Professional\VC\Tools\MSVC\14.44.35207\include\vector
; File C:\IAGOS\server\v18\Source\Source\_Common\lord.cpp
; File C:\Program Files\Microsoft Visual Studio\2022\Professional\VC\Tools\MSVC\14.44.35207\include\vector
; File C:\Program Files\Microsoft Visual Studio\2022\Professional\VC\Tools\MSVC\14.44.35207\include\memory
; File C:\Program Files\Microsoft Visual Studio\2022\Professional\VC\Tools\MSVC\14.44.35207\include\xmemory
; File C:\Program Files\Microsoft Visual Studio\2022\Professional\VC\Tools\MSVC\14.44.35207\include\vector
; File C:\Program Files\Microsoft Visual Studio\2022\Professional\VC\Tools\MSVC\14.44.35207\include\xmemory
; File C:\Program Files\Microsoft Visual Studio\2022\Professional\VC\Tools\MSVC\14.44.35207\include\vector
; File C:\IAGOS\server\v18\Source\Source\_Common\lord.cpp
;	COMDAT ?BeginVote@IElection@@QAEXH@Z
_TEXT	SEGMENT
__Dest$1$ = -8						; size = 4
__Last$1$ = -4						; size = 4
_nRequirement$ = 8					; size = 4
?BeginVote@IElection@@QAEXH@Z PROC			; IElection::BeginVote, COMDAT
; _this$ = ecx

; 228  : {

  00000	55		 push	 ebp
  00001	8b ec		 mov	 ebp, esp
  00003	83 ec 08	 sub	 esp, 8
  00006	53		 push	 ebx

; 229  : 	election::OutputDebugString( "IElection.BeginVote" );

  00007	68 00 00 00 00	 push	 OFFSET ??_C@_0BE@FFJMPPDN@IElection?4BeginVote@
  0000c	8b d9		 mov	 ebx, ecx
  0000e	e8 00 00 00 00	 call	 ?OutputDebugStringA@election@@YAXPBDZZ ; election::OutputDebugStringA

; 230  : 	if( DoTestBeginVote( nRequirement ) )

  00013	8b 03		 mov	 eax, DWORD PTR [ebx]
  00015	8d 4d 08	 lea	 ecx, DWORD PTR _nRequirement$[ebp]
  00018	83 c4 04	 add	 esp, 4
  0001b	51		 push	 ecx
  0001c	8b cb		 mov	 ecx, ebx
  0001e	ff 50 0c	 call	 DWORD PTR [eax+12]
  00021	85 c0		 test	 eax, eax
  00023	74 7b		 je	 SHORT $LN2@BeginVote

; 231  : 	{
; 232  : 		SetState( eVote );

  00025	c7 43 10 02 00
	00 00		 mov	 DWORD PTR [ebx+16], 2
; File C:\Program Files\Microsoft Visual Studio\2022\Professional\VC\Tools\MSVC\14.44.35207\include\vector

; 1915 :         return static_cast<size_type>(_My_data._Mylast - _My_data._Myfirst);

  0002c	8b 43 18	 mov	 eax, DWORD PTR [ebx+24]
  0002f	2b 43 14	 sub	 eax, DWORD PTR [ebx+20]
  00032	c1 f8 03	 sar	 eax, 3
; File C:\IAGOS\server\v18\Source\Source\_Common\lord.cpp

; 233  : 		if( m_vCandidates.size() > nMaxCandidates )

  00035	83 f8 0a	 cmp	 eax, 10			; 0000000aH
  00038	76 60		 jbe	 SHORT $LN36@BeginVote

; 234  : 		{
; 235  : 			DoReturnDeposit();

  0003a	8b 03		 mov	 eax, DWORD PTR [ebx]
  0003c	8b cb		 mov	 ecx, ebx
  0003e	56		 push	 esi
  0003f	ff 50 08	 call	 DWORD PTR [eax+8]
; File C:\Program Files\Microsoft Visual Studio\2022\Professional\VC\Tools\MSVC\14.44.35207\include\vector

; 46   :     _CONSTEXPR20 _Vector_const_iterator(_Tptr _Parg, const _Container_base* _Pvector) noexcept : _Ptr(_Parg) {

  00042	8b 43 14	 mov	 eax, DWORD PTR [ebx+20]
  00045	8b 73 18	 mov	 esi, DWORD PTR [ebx+24]
  00048	83 c0 50	 add	 eax, 80			; 00000050H
  0004b	89 75 fc	 mov	 DWORD PTR __Last$1$[ebp], esi
  0004e	89 45 f8	 mov	 DWORD PTR __Dest$1$[ebp], eax

; 1795 :         if (_Firstptr != _Lastptr) { // something to do, invalidate iterators

  00051	3b c6		 cmp	 eax, esi
  00053	74 44		 je	 SHORT $LN135@BeginVote
  00055	57		 push	 edi

; 1796 :             _Orphan_range(_Firstptr, _Mylast);
; 1797 : 
; 1798 :             const pointer _Newlast = _STD _Move_unchecked(_Lastptr, _Mylast, _Firstptr);
; 1799 :             _Destroy_range(_Newlast, _Mylast, _Getal());

  00056	8b f8		 mov	 edi, eax
  00058	8b c6		 mov	 eax, esi
  0005a	66 0f 1f 44 00
	00		 npad	 6
$LL88@BeginVote:
; File C:\Program Files\Microsoft Visual Studio\2022\Professional\VC\Tools\MSVC\14.44.35207\include\memory

; 1384 :         if (_Rep) {

  00060	8b 77 04	 mov	 esi, DWORD PTR [edi+4]
  00063	85 f6		 test	 esi, esi
  00065	74 24		 je	 SHORT $LN109@BeginVote

; 1159 :         if (_MT_DECR(_Uses) == 0) {

  00067	83 c8 ff	 or	 eax, -1
  0006a	f0 0f c1 46 04	 lock	  xadd	 DWORD PTR [esi+4], eax
  0006f	75 17		 jne	 SHORT $LN127@BeginVote

; 1160 :             _Destroy();

  00071	8b 06		 mov	 eax, DWORD PTR [esi]
  00073	8b ce		 mov	 ecx, esi
  00075	ff 10		 call	 DWORD PTR [eax]

; 1166 :         if (_MT_DECR(_Weaks) == 0) {

  00077	83 c8 ff	 or	 eax, -1
  0007a	f0 0f c1 46 08	 lock	  xadd	 DWORD PTR [esi+8], eax
  0007f	75 07		 jne	 SHORT $LN127@BeginVote

; 1167 :             _Delete_this();

  00081	8b 06		 mov	 eax, DWORD PTR [esi]
  00083	8b ce		 mov	 ecx, esi
  00085	ff 50 04	 call	 DWORD PTR [eax+4]
$LN127@BeginVote:
; File C:\Program Files\Microsoft Visual Studio\2022\Professional\VC\Tools\MSVC\14.44.35207\include\xmemory

; 1102 :         for (; _First != _Last; ++_First) {

  00088	8b 45 fc	 mov	 eax, DWORD PTR __Last$1$[ebp]
$LN109@BeginVote:
  0008b	83 c7 08	 add	 edi, 8
  0008e	3b f8		 cmp	 edi, eax
  00090	75 ce		 jne	 SHORT $LL88@BeginVote
; File C:\Program Files\Microsoft Visual Studio\2022\Professional\VC\Tools\MSVC\14.44.35207\include\vector

; 1801 :             _Mylast = _Newlast;

  00092	8b 45 f8	 mov	 eax, DWORD PTR __Dest$1$[ebp]
; File C:\Program Files\Microsoft Visual Studio\2022\Professional\VC\Tools\MSVC\14.44.35207\include\xmemory

; 1102 :         for (; _First != _Last; ++_First) {

  00095	5f		 pop	 edi
; File C:\Program Files\Microsoft Visual Studio\2022\Professional\VC\Tools\MSVC\14.44.35207\include\vector

; 1801 :             _Mylast = _Newlast;

  00096	89 43 18	 mov	 DWORD PTR [ebx+24], eax
$LN135@BeginVote:
  00099	5e		 pop	 esi
$LN36@BeginVote:
; File C:\IAGOS\server\v18\Source\Source\_Common\lord.cpp

; 238  : 		SetRequirement( nRequirement );

  0009a	8b 45 08	 mov	 eax, DWORD PTR _nRequirement$[ebp]
  0009d	89 43 0c	 mov	 DWORD PTR [ebx+12], eax
$LN2@BeginVote:
  000a0	5b		 pop	 ebx

; 239  : 	}
; 240  : }

  000a1	8b e5		 mov	 esp, ebp
  000a3	5d		 pop	 ebp
  000a4	c2 04 00	 ret	 4
?BeginVote@IElection@@QAEXH@Z ENDP			; IElection::BeginVote
_TEXT	ENDS
; Function compile flags: /Ogtp
; File C:\IAGOS\server\v18\Source\Source\_Common\lord.cpp
;	COMDAT ?BeginCandidacy@IElection@@QAEXXZ
_TEXT	SEGMENT
?BeginCandidacy@IElection@@QAEXXZ PROC			; IElection::BeginCandidacy, COMDAT
; _this$ = ecx

; 222  : {

  00000	56		 push	 esi
  00001	8b f1		 mov	 esi, ecx

; 223  : 	if( DoTestBeginCandidacy() )

  00003	8b 06		 mov	 eax, DWORD PTR [esi]
  00005	ff 50 04	 call	 DWORD PTR [eax+4]
  00008	85 c0		 test	 eax, eax
  0000a	74 07		 je	 SHORT $LN2@BeginCandi

; 224  : 		SetState( eCandidacy );

  0000c	c7 46 10 01 00
	00 00		 mov	 DWORD PTR [esi+16], 1
$LN2@BeginCandi:
  00013	5e		 pop	 esi

; 225  : }

  00014	c3		 ret	 0
?BeginCandidacy@IElection@@QAEXXZ ENDP			; IElection::BeginCandidacy
_TEXT	ENDS
; Function compile flags: /Ogtp
; File C:\IAGOS\server\v18\Source\Source\_Common\lord.h
;	COMDAT ?DoEndVoteComplete@IElection@@MAEXXZ
_TEXT	SEGMENT
?DoEndVoteComplete@IElection@@MAEXXZ PROC		; IElection::DoEndVoteComplete, COMDAT
; _this$ = ecx

; 94   : 	virtual	void	DoEndVoteComplete( void )	{}

  00000	c2 00 00	 ret	 0
?DoEndVoteComplete@IElection@@MAEXXZ ENDP		; IElection::DoEndVoteComplete
_TEXT	ENDS
; Function compile flags: /Ogtp
; File C:\IAGOS\server\v18\Source\Source\_Common\lord.h
;	COMDAT ?DoIncVoteComplete@IElection@@MAEXXZ
_TEXT	SEGMENT
?DoIncVoteComplete@IElection@@MAEXXZ PROC		; IElection::DoIncVoteComplete, COMDAT
; _this$ = ecx

; 93   : 	virtual	void	DoIncVoteComplete( void )	{}

  00000	c2 00 00	 ret	 0
?DoIncVoteComplete@IElection@@MAEXXZ ENDP		; IElection::DoIncVoteComplete
_TEXT	ENDS
; Function compile flags: /Ogtp
; File C:\IAGOS\server\v18\Source\Source\_Common\lord.h
;	COMDAT ?DoTestIncVote@IElection@@MAEHKK@Z
_TEXT	SEGMENT
_idPlayer$ = 8						; size = 4
_idElector$ = 12					; size = 4
?DoTestIncVote@IElection@@MAEHKK@Z PROC			; IElection::DoTestIncVote, COMDAT
; _this$ = ecx

; 92   : 	virtual	BOOL	DoTestIncVote( u_long idPlayer, u_long idElector )	{	return TRUE;	}

  00000	b8 01 00 00 00	 mov	 eax, 1
  00005	c2 08 00	 ret	 8
?DoTestIncVote@IElection@@MAEHKK@Z ENDP			; IElection::DoTestIncVote
_TEXT	ENDS
; Function compile flags: /Ogtp
; File C:\IAGOS\server\v18\Source\Source\_Common\lord.h
;	COMDAT ?DoSetPlegeComplete@IElection@@MAEXXZ
_TEXT	SEGMENT
?DoSetPlegeComplete@IElection@@MAEXXZ PROC		; IElection::DoSetPlegeComplete, COMDAT
; _this$ = ecx

; 91   : 	virtual	void	DoSetPlegeComplete( void )		{}

  00000	c2 00 00	 ret	 0
?DoSetPlegeComplete@IElection@@MAEXXZ ENDP		; IElection::DoSetPlegeComplete
_TEXT	ENDS
; Function compile flags: /Ogtp
; File C:\IAGOS\server\v18\Source\Source\_Common\lord.h
;	COMDAT ?DoTestSetPledge@IElection@@MAEHKPBD@Z
_TEXT	SEGMENT
_idPlayer$ = 8						; size = 4
_szPledge$ = 12						; size = 4
?DoTestSetPledge@IElection@@MAEHKPBD@Z PROC		; IElection::DoTestSetPledge, COMDAT
; _this$ = ecx

; 90   : 	virtual	BOOL	DoTestSetPledge( u_long idPlayer, const char* szPledge )	{	return TRUE;	}

  00000	b8 01 00 00 00	 mov	 eax, 1
  00005	c2 08 00	 ret	 8
?DoTestSetPledge@IElection@@MAEHKPBD@Z ENDP		; IElection::DoTestSetPledge
_TEXT	ENDS
; Function compile flags: /Ogtp
; File C:\IAGOS\server\v18\Source\Source\_Common\lord.h
;	COMDAT ?DoAddDepositComplete@IElection@@MAEXK_JJ@Z
_TEXT	SEGMENT
_idPlayer$ = 8						; size = 4
_iDeposit$ = 12						; size = 8
_tCreate$ = 20						; size = 4
?DoAddDepositComplete@IElection@@MAEXK_JJ@Z PROC	; IElection::DoAddDepositComplete, COMDAT
; _this$ = ecx

; 89   : 	virtual	void	DoAddDepositComplete( u_long idPlayer, __int64 iDeposit, time_t tCreate )	{}

  00000	c2 10 00	 ret	 16			; 00000010H
?DoAddDepositComplete@IElection@@MAEXK_JJ@Z ENDP	; IElection::DoAddDepositComplete
_TEXT	ENDS
; Function compile flags: /Ogtp
; File C:\IAGOS\server\v18\Source\Source\_Common\lord.h
;	COMDAT ?DoTestAddDeposit@IElection@@MAEHK_JJ@Z
_TEXT	SEGMENT
_idPlayer$ = 8						; size = 4
_iDeposit$ = 12						; size = 8
_tCreate$ = 20						; size = 4
?DoTestAddDeposit@IElection@@MAEHK_JJ@Z PROC		; IElection::DoTestAddDeposit, COMDAT
; _this$ = ecx

; 88   : 	virtual	BOOL	DoTestAddDeposit( u_long idPlayer, __int64 iDeposit, time_t tCreate )		{	return TRUE;	}

  00000	b8 01 00 00 00	 mov	 eax, 1
  00005	c2 10 00	 ret	 16			; 00000010H
?DoTestAddDeposit@IElection@@MAEHK_JJ@Z ENDP		; IElection::DoTestAddDeposit
_TEXT	ENDS
; Function compile flags: /Ogtp
; File C:\IAGOS\server\v18\Source\Source\_Common\lord.h
;	COMDAT ?DoReturnDeposit@IElection@@MAEXXZ
_TEXT	SEGMENT
?DoReturnDeposit@IElection@@MAEXXZ PROC			; IElection::DoReturnDeposit, COMDAT
; _this$ = ecx

; 85   : 	virtual	void	DoReturnDeposit( void )		{}

  00000	c2 00 00	 ret	 0
?DoReturnDeposit@IElection@@MAEXXZ ENDP			; IElection::DoReturnDeposit
_TEXT	ENDS
; Function compile flags: /Ogtp
; File C:\IAGOS\server\v18\Source\Source\_Common\lord.cpp
; File C:\Program Files\Microsoft Visual Studio\2022\Professional\VC\Tools\MSVC\14.44.35207\include\vector
; File C:\IAGOS\server\v18\Source\Source\_Common\lord.cpp
;	COMDAT ?PrepareNext@IElection@@QAEXXZ
_TEXT	SEGMENT
?PrepareNext@IElection@@QAEXXZ PROC			; IElection::PrepareNext, COMDAT
; _this$ = ecx

; 262  : {

  00000	56		 push	 esi
  00001	8b f1		 mov	 esi, ecx
  00003	57		 push	 edi

; 263  : 	SetState( eReady );
; 264  : 	m_vCandidates.clear();

  00004	8d 7e 14	 lea	 edi, DWORD PTR [esi+20]
  00007	c7 46 10 00 00
	00 00		 mov	 DWORD PTR [esi+16], 0
; File C:\Program Files\Microsoft Visual Studio\2022\Professional\VC\Tools\MSVC\14.44.35207\include\vector

; 1812 :         if (_Myfirst == _Mylast) { // already empty, nothing to do

  0000e	8b 07		 mov	 eax, DWORD PTR [edi]
  00010	8b 4f 04	 mov	 ecx, DWORD PTR [edi+4]
  00013	3b c1		 cmp	 eax, ecx
  00015	74 10		 je	 SHORT $LN3@PrepareNex

; 1813 :             // This is an optimization for debug mode: we can avoid taking the debug lock to invalidate iterators.
; 1814 :             // Note that when clearing an empty vector, this will preserve past-the-end iterators, which is allowed by
; 1815 :             // N4950 [sequence.reqmts]/54 "a.clear() [...] may invalidate the past-the-end iterator".
; 1816 :             return;
; 1817 :         }
; 1818 : 
; 1819 :         _My_data._Orphan_all();
; 1820 :         _Destroy_range(_Myfirst, _Mylast, _Getal());

  00017	57		 push	 edi
  00018	51		 push	 ecx
  00019	50		 push	 eax
  0001a	e8 00 00 00 00	 call	 ??$_Destroy_range@V?$allocator@V?$shared_ptr@VCCandidate@@@std@@@std@@@std@@YAXPAV?$shared_ptr@VCCandidate@@@0@QAV10@AAV?$allocator@V?$shared_ptr@VCCandidate@@@std@@@0@@Z ; std::_Destroy_range<std::allocator<std::shared_ptr<CCandidate> > >

; 1821 :         _ASAN_VECTOR_MODIFY(static_cast<difference_type>(_Myfirst - _Mylast)); // negative when destroying elements
; 1822 :         _Mylast = _Myfirst;

  0001f	8b 07		 mov	 eax, DWORD PTR [edi]
  00021	83 c4 0c	 add	 esp, 12			; 0000000cH
  00024	89 47 04	 mov	 DWORD PTR [edi+4], eax
$LN3@PrepareNex:
; File C:\IAGOS\server\v18\Source\Source\_Common\lord.cpp

; 265  : 	SetNextBegin();

  00027	8b ce		 mov	 ecx, esi
  00029	e8 00 00 00 00	 call	 ?SetNextBegin@IElection@@IAEXXZ ; IElection::SetNextBegin

; 266  : 	m_idElection++;

  0002e	ff 46 08	 inc	 DWORD PTR [esi+8]
  00031	5f		 pop	 edi
  00032	5e		 pop	 esi

; 267  : }

  00033	c3		 ret	 0
?PrepareNext@IElection@@QAEXXZ ENDP			; IElection::PrepareNext
_TEXT	ENDS
; Function compile flags: /Ogtp
; File C:\IAGOS\server\v18\Source\Source\_Common\lord.cpp
; File C:\Program Files (x86)\Windows Kits\10\Include\10.0.26100.0\ucrt\time.h
; File C:\IAGOS\server\v18\Source\Source\_Common\lord.cpp
; File C:\Program Files (x86)\Windows Kits\10\Include\10.0.26100.0\ucrt\time.h
; File C:\IAGOS\server\v18\Source\Source\_Common\lord.cpp
;	COMDAT ?GetPropertyState@IElection@@QAE?AW4ELECTION_STATE@1@XZ
_TEXT	SEGMENT
?GetPropertyState@IElection@@QAE?AW4ELECTION_STATE@1@XZ PROC ; IElection::GetPropertyState, COMDAT
; _this$ = ecx

; 203  : {

  00000	57		 push	 edi
  00001	8b f9		 mov	 edi, ecx

; 204  : 	if( !GetBegin() )

  00003	83 7f 20 00	 cmp	 DWORD PTR [edi+32], 0
  00007	74 4c		 je	 SHORT $LN7@GetPropert
  00009	56		 push	 esi
; File C:\Program Files (x86)\Windows Kits\10\Include\10.0.26100.0\ucrt\time.h

; 428  :             return _time32(_Time);

  0000a	6a 00		 push	 0
  0000c	e8 00 00 00 00	 call	 __time32
; File C:\IAGOS\server\v18\Source\Source\_Common\lord.cpp

; 208  : 	time_t	tEndCandidacy	= GetBegin() + property.tCandidacy;

  00011	8b 57 20	 mov	 edx, DWORD PTR [edi+32]
  00014	8b f0		 mov	 esi, eax
  00016	8b 4f 2c	 mov	 ecx, DWORD PTR [edi+44]
; File C:\Program Files (x86)\Windows Kits\10\Include\10.0.26100.0\ucrt\time.h

; 428  :             return _time32(_Time);

  00019	83 c4 04	 add	 esp, 4
; File C:\IAGOS\server\v18\Source\Source\_Common\lord.cpp

; 209  : 	time_t	tEndVote	= GetBegin() + property.tCandidacy + property.tVote;

  0001c	8b 7f 30	 mov	 edi, DWORD PTR [edi+48]
  0001f	03 fa		 add	 edi, edx
  00021	03 f9		 add	 edi, ecx
  00023	8d 04 0a	 lea	 eax, DWORD PTR [edx+ecx]

; 210  : 
; 211  : 	if( tCur >= GetBegin() && tCur < tEndCandidacy )

  00026	3b f2		 cmp	 esi, edx
  00028	7c 0c		 jl	 SHORT $LN3@GetPropert
  0002a	3b f0		 cmp	 esi, eax
  0002c	7d 0c		 jge	 SHORT $LN11@GetPropert

; 212  : 		return eCandidacy;

  0002e	5e		 pop	 esi
  0002f	b8 01 00 00 00	 mov	 eax, 1
  00034	5f		 pop	 edi

; 219  : }

  00035	c3		 ret	 0
$LN3@GetPropert:

; 213  : 	else if( tCur >= tEndCandidacy && tCur < tEndVote )

  00036	3b f0		 cmp	 esi, eax
  00038	7c 0c		 jl	 SHORT $LN5@GetPropert
$LN11@GetPropert:
  0003a	3b f7		 cmp	 esi, edi
  0003c	7d 08		 jge	 SHORT $LN5@GetPropert

; 214  : 		return eVote;

  0003e	5e		 pop	 esi
  0003f	b8 02 00 00 00	 mov	 eax, 2
  00044	5f		 pop	 edi

; 219  : }

  00045	c3		 ret	 0
$LN5@GetPropert:

; 215  : 	else if( tCur > tEndVote )

  00046	33 c0		 xor	 eax, eax
  00048	b9 03 00 00 00	 mov	 ecx, 3
  0004d	3b f7		 cmp	 esi, edi
  0004f	5e		 pop	 esi
  00050	0f 4f c1	 cmovg	 eax, ecx
  00053	5f		 pop	 edi

; 219  : }

  00054	c3		 ret	 0
$LN7@GetPropert:

; 216  : 		return eExpired;
; 217  : 
; 218  : 	return eReady;

  00055	33 c0		 xor	 eax, eax
  00057	5f		 pop	 edi

; 219  : }

  00058	c3		 ret	 0
?GetPropertyState@IElection@@QAE?AW4ELECTION_STATE@1@XZ ENDP ; IElection::GetPropertyState
_TEXT	ENDS
; Function compile flags: /Ogtp
; File C:\IAGOS\server\v18\Source\Source\_Common\lord.cpp
; File C:\IAGOS\server\v18\Source\Source\_Network\Misc\Include\Ar.h
; File C:\IAGOS\server\v18\Source\Source\_Common\lord.cpp
; File C:\IAGOS\server\v18\Source\Source\_Network\Misc\Include\Ar.h
; File C:\IAGOS\server\v18\Source\Source\_Common\lord.cpp
; File C:\IAGOS\server\v18\Source\Source\_Common\lord.h
; File C:\IAGOS\server\v18\Source\Source\_Common\lord.cpp
; File C:\Program Files\Microsoft Visual Studio\2022\Professional\VC\Tools\MSVC\14.44.35207\include\vector
; File C:\IAGOS\server\v18\Source\Source\_Common\lord.cpp
; File C:\Program Files\Microsoft Visual Studio\2022\Professional\VC\Tools\MSVC\14.44.35207\include\vector
; File C:\IAGOS\server\v18\Source\Source\_Common\lord.cpp
; File C:\Program Files\Microsoft Visual Studio\2022\Professional\VC\Tools\MSVC\14.44.35207\include\vector
; File C:\IAGOS\server\v18\Source\Source\_Common\lord.cpp
; File C:\Program Files\Microsoft Visual Studio\2022\Professional\VC\Tools\MSVC\14.44.35207\include\vector
; File C:\IAGOS\server\v18\Source\Source\_Common\lord.cpp
; File C:\Program Files\Microsoft Visual Studio\2022\Professional\VC\Tools\MSVC\14.44.35207\include\vector
; File C:\IAGOS\server\v18\Source\Source\_Common\lord.cpp
; File C:\Program Files\Microsoft Visual Studio\2022\Professional\VC\Tools\MSVC\14.44.35207\include\vector
; File C:\IAGOS\server\v18\Source\Source\_Common\lord.cpp
; File C:\IAGOS\server\v18\Source\Source\_Common\lord.h
; File C:\IAGOS\server\v18\Source\Source\_Common\lord.cpp
;	COMDAT ?Serialize@IElection@@QAEXAAVCAr@@@Z
_TEXT	SEGMENT
$T1 = -4						; size = 4
_ar$ = 8						; size = 4
$T2 = 8							; size = 4
_nSize$3 = 8						; size = 4
$T4 = 8							; size = 4
_nSize$1$ = 8						; size = 4
?Serialize@IElection@@QAEXAAVCAr@@@Z PROC		; IElection::Serialize, COMDAT
; _this$ = ecx

; 152  : {

  00000	55		 push	 ebp
  00001	8b ec		 mov	 ebp, esp
  00003	51		 push	 ecx
  00004	53		 push	 ebx
; File C:\IAGOS\server\v18\Source\Source\_Network\Misc\Include\Ar.h

; 146  : 	return (m_nMode & CAr::load) == 0;

  00005	8b 5d 08	 mov	 ebx, DWORD PTR _ar$[ebp]
; File C:\IAGOS\server\v18\Source\Source\_Common\lord.cpp

; 152  : {

  00008	56		 push	 esi
  00009	57		 push	 edi
  0000a	8b f9		 mov	 edi, ecx
; File C:\IAGOS\server\v18\Source\Source\_Network\Misc\Include\Ar.h

; 146  : 	return (m_nMode & CAr::load) == 0;

  0000c	f6 03 01	 test	 BYTE PTR [ebx], 1
; File C:\IAGOS\server\v18\Source\Source\_Common\lord.cpp

; 153  : 	if( ar.IsStoring() )

  0000f	75 78		 jne	 SHORT $LN8@Serialize

; 155  : 		ar << m_idElection << m_eState << m_tBegin;

  00011	8b 77 10	 mov	 esi, DWORD PTR [edi+16]
  00014	8d 47 08	 lea	 eax, DWORD PTR [edi+8]
  00017	50		 push	 eax
  00018	8b cb		 mov	 ecx, ebx
  0001a	e8 00 00 00 00	 call	 ??$?6K@CAr@@QAEAAV0@ABK@Z ; CAr::operator<<<unsigned long>
; File C:\IAGOS\server\v18\Source\Source\_Common\lord.h

; 278  : 	{	return ar.operator<<( (int)e );		}

  0001f	8d 4d 08	 lea	 ecx, DWORD PTR $T4[ebp]
  00022	89 75 08	 mov	 DWORD PTR $T4[ebp], esi
  00025	51		 push	 ecx
  00026	8b c8		 mov	 ecx, eax
  00028	e8 00 00 00 00	 call	 ??$?6H@CAr@@QAEAAV0@ABH@Z ; CAr::operator<<<int>
; File C:\IAGOS\server\v18\Source\Source\_Common\lord.cpp

; 155  : 		ar << m_idElection << m_eState << m_tBegin;

  0002d	8d 4f 20	 lea	 ecx, DWORD PTR [edi+32]
  00030	51		 push	 ecx
  00031	8b c8		 mov	 ecx, eax
  00033	e8 00 00 00 00	 call	 ??$?6J@CAr@@QAEAAV0@ABJ@Z ; CAr::operator<<<long>

; 156  : 		ar << m_nRequirement;

  00038	8d 47 0c	 lea	 eax, DWORD PTR [edi+12]
  0003b	8b cb		 mov	 ecx, ebx
  0003d	50		 push	 eax
  0003e	e8 00 00 00 00	 call	 ??$?6H@CAr@@QAEAAV0@ABH@Z ; CAr::operator<<<int>

; 157  : 		property.Serialize( ar );

  00043	53		 push	 ebx
  00044	8d 4f 24	 lea	 ecx, DWORD PTR [edi+36]
  00047	e8 00 00 00 00	 call	 ?Serialize@sProperty@IElection@@QAEXAAVCAr@@@Z ; IElection::sProperty::Serialize
; File C:\Program Files\Microsoft Visual Studio\2022\Professional\VC\Tools\MSVC\14.44.35207\include\vector

; 1915 :         return static_cast<size_type>(_My_data._Mylast - _My_data._Myfirst);

  0004c	8b 47 18	 mov	 eax, DWORD PTR [edi+24]
; File C:\IAGOS\server\v18\Source\Source\_Common\lord.cpp

; 158  : 		ar << m_vCandidates.size();

  0004f	8b cb		 mov	 ecx, ebx
; File C:\Program Files\Microsoft Visual Studio\2022\Professional\VC\Tools\MSVC\14.44.35207\include\vector

; 1915 :         return static_cast<size_type>(_My_data._Mylast - _My_data._Myfirst);

  00051	2b 47 14	 sub	 eax, DWORD PTR [edi+20]
  00054	c1 f8 03	 sar	 eax, 3
; File C:\IAGOS\server\v18\Source\Source\_Common\lord.cpp

; 158  : 		ar << m_vCandidates.size();

  00057	89 45 08	 mov	 DWORD PTR $T2[ebp], eax
  0005a	8d 45 08	 lea	 eax, DWORD PTR $T2[ebp]
  0005d	50		 push	 eax
  0005e	e8 00 00 00 00	 call	 ??$?6I@CAr@@QAEAAV0@ABI@Z ; CAr::operator<<<unsigned int>
; File C:\Program Files\Microsoft Visual Studio\2022\Professional\VC\Tools\MSVC\14.44.35207\include\vector

; 46   :     _CONSTEXPR20 _Vector_const_iterator(_Tptr _Parg, const _Container_base* _Pvector) noexcept : _Ptr(_Parg) {

  00063	8b 77 14	 mov	 esi, DWORD PTR [edi+20]

; 176  :         return !(*this == _Right);

  00066	3b 77 18	 cmp	 esi, DWORD PTR [edi+24]
; File C:\IAGOS\server\v18\Source\Source\_Common\lord.cpp

; 159  : 		for( VSPC::iterator i = m_vCandidates.begin(); i != m_vCandidates.end(); ++i )

  00069	0f 84 b8 00 00
	00		 je	 $LN6@Serialize
  0006f	90		 npad	 1
$LL4@Serialize:

; 160  : 			( *i )->Serialize( ar );

  00070	8b 0e		 mov	 ecx, DWORD PTR [esi]
  00072	53		 push	 ebx
  00073	e8 00 00 00 00	 call	 ?Serialize@CCandidate@@QAEXAAVCAr@@@Z ; CCandidate::Serialize
; File C:\Program Files\Microsoft Visual Studio\2022\Professional\VC\Tools\MSVC\14.44.35207\include\vector

; 82   :         ++_Ptr;

  00078	83 c6 08	 add	 esi, 8

; 176  :         return !(*this == _Right);

  0007b	3b 77 18	 cmp	 esi, DWORD PTR [edi+24]
; File C:\IAGOS\server\v18\Source\Source\_Common\lord.cpp

; 159  : 		for( VSPC::iterator i = m_vCandidates.begin(); i != m_vCandidates.end(); ++i )

  0007e	75 f0		 jne	 SHORT $LL4@Serialize

; 175  : 		}
; 176  : 	}
; 177  : }

  00080	5f		 pop	 edi
  00081	5e		 pop	 esi
  00082	5b		 pop	 ebx
  00083	8b e5		 mov	 esp, ebp
  00085	5d		 pop	 ebp
  00086	c2 04 00	 ret	 4
$LN8@Serialize:
; File C:\Program Files\Microsoft Visual Studio\2022\Professional\VC\Tools\MSVC\14.44.35207\include\vector

; 1812 :         if (_Myfirst == _Mylast) { // already empty, nothing to do

  00089	8b 47 14	 mov	 eax, DWORD PTR [edi+20]
; File C:\IAGOS\server\v18\Source\Source\_Common\lord.cpp

; 164  : 		m_vCandidates.clear();

  0008c	8d 77 14	 lea	 esi, DWORD PTR [edi+20]
; File C:\Program Files\Microsoft Visual Studio\2022\Professional\VC\Tools\MSVC\14.44.35207\include\vector

; 1812 :         if (_Myfirst == _Mylast) { // already empty, nothing to do

  0008f	8b 4e 04	 mov	 ecx, DWORD PTR [esi+4]
  00092	3b c1		 cmp	 eax, ecx
  00094	74 10		 je	 SHORT $LN51@Serialize

; 1813 :             // This is an optimization for debug mode: we can avoid taking the debug lock to invalidate iterators.
; 1814 :             // Note that when clearing an empty vector, this will preserve past-the-end iterators, which is allowed by
; 1815 :             // N4950 [sequence.reqmts]/54 "a.clear() [...] may invalidate the past-the-end iterator".
; 1816 :             return;
; 1817 :         }
; 1818 : 
; 1819 :         _My_data._Orphan_all();
; 1820 :         _Destroy_range(_Myfirst, _Mylast, _Getal());

  00096	56		 push	 esi
  00097	51		 push	 ecx
  00098	50		 push	 eax
  00099	e8 00 00 00 00	 call	 ??$_Destroy_range@V?$allocator@V?$shared_ptr@VCCandidate@@@std@@@std@@@std@@YAXPAV?$shared_ptr@VCCandidate@@@0@QAV10@AAV?$allocator@V?$shared_ptr@VCCandidate@@@std@@@0@@Z ; std::_Destroy_range<std::allocator<std::shared_ptr<CCandidate> > >

; 1821 :         _ASAN_VECTOR_MODIFY(static_cast<difference_type>(_Myfirst - _Mylast)); // negative when destroying elements
; 1822 :         _Mylast = _Myfirst;

  0009e	8b 06		 mov	 eax, DWORD PTR [esi]
  000a0	83 c4 0c	 add	 esp, 12			; 0000000cH
  000a3	89 46 04	 mov	 DWORD PTR [esi+4], eax
$LN51@Serialize:
; File C:\IAGOS\server\v18\Source\Source\_Common\lord.cpp

; 165  : 		ar >> m_idElection >> m_eState >> m_tBegin;

  000a6	8d 47 08	 lea	 eax, DWORD PTR [edi+8]
  000a9	8b cb		 mov	 ecx, ebx
  000ab	50		 push	 eax
  000ac	e8 00 00 00 00	 call	 ??$?5K@CAr@@QAEAAV0@AAK@Z ; CAr::operator>><unsigned long>
  000b1	8d 4f 10	 lea	 ecx, DWORD PTR [edi+16]
; File C:\IAGOS\server\v18\Source\Source\_Common\lord.h

; 281  : 	{	return ar.operator>>( (int&)e );	}

  000b4	51		 push	 ecx
  000b5	8b c8		 mov	 ecx, eax
  000b7	e8 00 00 00 00	 call	 ??$?5H@CAr@@QAEAAV0@AAH@Z ; CAr::operator>><int>
; File C:\IAGOS\server\v18\Source\Source\_Common\lord.cpp

; 165  : 		ar >> m_idElection >> m_eState >> m_tBegin;

  000bc	8d 4f 20	 lea	 ecx, DWORD PTR [edi+32]
  000bf	51		 push	 ecx
  000c0	8b c8		 mov	 ecx, eax
  000c2	e8 00 00 00 00	 call	 ??$?5J@CAr@@QAEAAV0@AAJ@Z ; CAr::operator>><long>

; 166  : 		ar >> m_nRequirement;

  000c7	8d 47 0c	 lea	 eax, DWORD PTR [edi+12]
  000ca	8b cb		 mov	 ecx, ebx
  000cc	50		 push	 eax
  000cd	e8 00 00 00 00	 call	 ??$?5H@CAr@@QAEAAV0@AAH@Z ; CAr::operator>><int>

; 167  : 		property.Serialize( ar );

  000d2	53		 push	 ebx
  000d3	8d 4f 24	 lea	 ecx, DWORD PTR [edi+36]
  000d6	e8 00 00 00 00	 call	 ?Serialize@sProperty@IElection@@QAEXAAVCAr@@@Z ; IElection::sProperty::Serialize

; 168  : 		size_t nSize;
; 169  : 		ar >> nSize;

  000db	8d 45 08	 lea	 eax, DWORD PTR _nSize$3[ebp]
  000de	8b cb		 mov	 ecx, ebx
  000e0	50		 push	 eax
  000e1	e8 00 00 00 00	 call	 ??$?5I@CAr@@QAEAAV0@AAI@Z ; CAr::operator>><unsigned int>

; 170  : 		for( size_t i = 0; i < nSize; i++ )

  000e6	8b 45 08	 mov	 eax, DWORD PTR _nSize$3[ebp]
  000e9	89 45 08	 mov	 DWORD PTR _nSize$1$[ebp], eax
  000ec	85 c0		 test	 eax, eax
  000ee	74 37		 je	 SHORT $LN6@Serialize
$LL7@Serialize:

; 171  : 		{
; 172  : 			CCandidate* pCandidate	= new CCandidate;

  000f0	68 18 01 00 00	 push	 280			; 00000118H
  000f5	e8 00 00 00 00	 call	 ??2@YAPAXI@Z		; operator new
  000fa	83 c4 04	 add	 esp, 4
  000fd	89 45 fc	 mov	 DWORD PTR $T1[ebp], eax
  00100	85 c0		 test	 eax, eax
  00102	74 0b		 je	 SHORT $LN11@Serialize
  00104	8b c8		 mov	 ecx, eax
  00106	e8 00 00 00 00	 call	 ??0CCandidate@@QAE@XZ	; CCandidate::CCandidate
  0010b	8b f0		 mov	 esi, eax
  0010d	eb 02		 jmp	 SHORT $LN12@Serialize
$LN11@Serialize:
  0010f	33 f6		 xor	 esi, esi
$LN12@Serialize:

; 173  : 			pCandidate->Serialize( ar );

  00111	53		 push	 ebx
  00112	8b ce		 mov	 ecx, esi
  00114	e8 00 00 00 00	 call	 ?Serialize@CCandidate@@QAEXAAVCAr@@@Z ; CCandidate::Serialize

; 174  : 			AddCandidate( pCandidate );

  00119	56		 push	 esi
  0011a	8b cf		 mov	 ecx, edi
  0011c	e8 00 00 00 00	 call	 ?AddCandidate@IElection@@QAEPAVCCandidate@@PAV2@@Z ; IElection::AddCandidate
  00121	83 6d 08 01	 sub	 DWORD PTR _nSize$1$[ebp], 1
  00125	75 c9		 jne	 SHORT $LL7@Serialize
$LN6@Serialize:
  00127	5f		 pop	 edi

; 175  : 		}
; 176  : 	}
; 177  : }

  00128	5e		 pop	 esi
  00129	5b		 pop	 ebx
  0012a	8b e5		 mov	 esp, ebp
  0012c	5d		 pop	 ebp
  0012d	c2 04 00	 ret	 4
?Serialize@IElection@@QAEXAAVCAr@@@Z ENDP		; IElection::Serialize
_TEXT	ENDS
; Function compile flags: /Ogtp
; File C:\IAGOS\server\v18\Source\Source\_Common\lord.cpp
;	COMDAT ?SetProperty@IElection@@QAEXHHJJ@Z
_TEXT	SEGMENT
_nDayOfWeek$ = 8					; size = 4
_nHour$ = 12						; size = 4
_tCandidacy$ = 16					; size = 4
_tVote$ = 20						; size = 4
?SetProperty@IElection@@QAEXHHJJ@Z PROC			; IElection::SetProperty, COMDAT
; _this$ = ecx

; 144  : {

  00000	55		 push	 ebp
  00001	8b ec		 mov	 ebp, esp

; 145  : 	property.nDayOfWeek	= nDayOfWeek;

  00003	8b 45 08	 mov	 eax, DWORD PTR _nDayOfWeek$[ebp]
  00006	89 41 24	 mov	 DWORD PTR [ecx+36], eax

; 146  : 	property.nHour	= nHour;

  00009	8b 45 0c	 mov	 eax, DWORD PTR _nHour$[ebp]
  0000c	89 41 28	 mov	 DWORD PTR [ecx+40], eax

; 147  : 	property.tCandidacy	= tCandidacy;

  0000f	8b 45 10	 mov	 eax, DWORD PTR _tCandidacy$[ebp]
  00012	89 41 2c	 mov	 DWORD PTR [ecx+44], eax

; 148  : 	property.tVote	= tVote;

  00015	8b 45 14	 mov	 eax, DWORD PTR _tVote$[ebp]
  00018	89 41 30	 mov	 DWORD PTR [ecx+48], eax

; 149  : }

  0001b	5d		 pop	 ebp
  0001c	c2 10 00	 ret	 16			; 00000010H
?SetProperty@IElection@@QAEXHHJJ@Z ENDP			; IElection::SetProperty
_TEXT	ENDS
; Function compile flags: /Ogtp
; File C:\IAGOS\server\v18\Source\Source\_Common\lord.cpp
; File C:\Program Files\Microsoft Visual Studio\2022\Professional\VC\Tools\MSVC\14.44.35207\include\vector
; File C:\IAGOS\server\v18\Source\Source\_Common\lord.cpp
; File C:\Program Files\Microsoft Visual Studio\2022\Professional\VC\Tools\MSVC\14.44.35207\include\vector
; File C:\IAGOS\server\v18\Source\Source\_Common\lord.cpp
; File C:\Program Files\Microsoft Visual Studio\2022\Professional\VC\Tools\MSVC\14.44.35207\include\vector
; File C:\IAGOS\server\v18\Source\Source\_Common\lord.cpp
; File C:\Program Files\Microsoft Visual Studio\2022\Professional\VC\Tools\MSVC\14.44.35207\include\vector
; File C:\IAGOS\server\v18\Source\Source\_Common\lord.cpp
;	COMDAT ?GetOrder@IElection@@QAEHK@Z
_TEXT	SEGMENT
_idPlayer$ = 8						; size = 4
?GetOrder@IElection@@QAEHK@Z PROC			; IElection::GetOrder, COMDAT
; _this$ = ecx

; 134  : {

  00000	55		 push	 ebp
  00001	8b ec		 mov	 ebp, esp
; File C:\Program Files\Microsoft Visual Studio\2022\Professional\VC\Tools\MSVC\14.44.35207\include\vector

; 46   :     _CONSTEXPR20 _Vector_const_iterator(_Tptr _Parg, const _Container_base* _Pvector) noexcept : _Ptr(_Parg) {

  00003	8b 51 18	 mov	 edx, DWORD PTR [ecx+24]
; File C:\IAGOS\server\v18\Source\Source\_Common\lord.cpp

; 134  : {

  00006	56		 push	 esi
  00007	57		 push	 edi
; File C:\Program Files\Microsoft Visual Studio\2022\Professional\VC\Tools\MSVC\14.44.35207\include\vector

; 46   :     _CONSTEXPR20 _Vector_const_iterator(_Tptr _Parg, const _Container_base* _Pvector) noexcept : _Ptr(_Parg) {

  00008	8b 79 14	 mov	 edi, DWORD PTR [ecx+20]
  0000b	8b c7		 mov	 eax, edi

; 176  :         return !(*this == _Right);

  0000d	3b fa		 cmp	 edi, edx
; File C:\IAGOS\server\v18\Source\Source\_Common\lord.cpp

; 135  : 	for( VSPC::iterator i = m_vCandidates.begin(); i != m_vCandidates.end(); ++i )

  0000f	74 10		 je	 SHORT $LN3@GetOrder
  00011	8b 75 08	 mov	 esi, DWORD PTR _idPlayer$[ebp]
$LL4@GetOrder:

; 136  : 	{
; 137  : 		if( ( *i )->GetIdPlayer() == idPlayer )

  00014	8b 08		 mov	 ecx, DWORD PTR [eax]
  00016	39 31		 cmp	 DWORD PTR [ecx], esi
  00018	74 10		 je	 SHORT $LN52@GetOrder
; File C:\Program Files\Microsoft Visual Studio\2022\Professional\VC\Tools\MSVC\14.44.35207\include\vector

; 82   :         ++_Ptr;

  0001a	83 c0 08	 add	 eax, 8

; 176  :         return !(*this == _Right);

  0001d	3b c2		 cmp	 eax, edx
; File C:\IAGOS\server\v18\Source\Source\_Common\lord.cpp

; 135  : 	for( VSPC::iterator i = m_vCandidates.begin(); i != m_vCandidates.end(); ++i )

  0001f	75 f3		 jne	 SHORT $LL4@GetOrder
$LN3@GetOrder:
  00021	5f		 pop	 edi

; 138  : 			return std::distance( m_vCandidates.begin(), i );
; 139  : 	}
; 140  : 	return -1;

  00022	83 c8 ff	 or	 eax, -1

; 141  : }

  00025	5e		 pop	 esi
  00026	5d		 pop	 ebp
  00027	c2 04 00	 ret	 4
$LN52@GetOrder:
; File C:\Program Files\Microsoft Visual Studio\2022\Professional\VC\Tools\MSVC\14.44.35207\include\vector

; 46   :     _CONSTEXPR20 _Vector_const_iterator(_Tptr _Parg, const _Container_base* _Pvector) noexcept : _Ptr(_Parg) {

  0002a	2b c7		 sub	 eax, edi
  0002c	5f		 pop	 edi

; 157  :         return static_cast<difference_type>(_Ptr - _Right._Ptr);

  0002d	c1 f8 03	 sar	 eax, 3
; File C:\IAGOS\server\v18\Source\Source\_Common\lord.cpp

; 141  : }

  00030	5e		 pop	 esi
  00031	5d		 pop	 ebp
  00032	c2 04 00	 ret	 4
?GetOrder@IElection@@QAEHK@Z ENDP			; IElection::GetOrder
_TEXT	ENDS
; Function compile flags: /Ogtp
; File C:\IAGOS\server\v18\Source\Source\_Common\lord.cpp
; File C:\Program Files\Microsoft Visual Studio\2022\Professional\VC\Tools\MSVC\14.44.35207\include\vector
; File C:\IAGOS\server\v18\Source\Source\_Common\lord.cpp
; File C:\Program Files\Microsoft Visual Studio\2022\Professional\VC\Tools\MSVC\14.44.35207\include\vector
; File C:\IAGOS\server\v18\Source\Source\_Common\lord.cpp
; File C:\Program Files\Microsoft Visual Studio\2022\Professional\VC\Tools\MSVC\14.44.35207\include\vector
; File C:\IAGOS\server\v18\Source\Source\_Common\lord.cpp
;	COMDAT ?GetCandidate@IElection@@QAEPAVCCandidate@@K@Z
_TEXT	SEGMENT
_idPlayer$ = 8						; size = 4
?GetCandidate@IElection@@QAEPAVCCandidate@@K@Z PROC	; IElection::GetCandidate, COMDAT
; _this$ = ecx

; 124  : {

  00000	55		 push	 ebp
  00001	8b ec		 mov	 ebp, esp
; File C:\Program Files\Microsoft Visual Studio\2022\Professional\VC\Tools\MSVC\14.44.35207\include\vector

; 46   :     _CONSTEXPR20 _Vector_const_iterator(_Tptr _Parg, const _Container_base* _Pvector) noexcept : _Ptr(_Parg) {

  00003	8b 41 14	 mov	 eax, DWORD PTR [ecx+20]
  00006	8b 51 18	 mov	 edx, DWORD PTR [ecx+24]
; File C:\IAGOS\server\v18\Source\Source\_Common\lord.cpp

; 124  : {

  00009	56		 push	 esi
; File C:\Program Files\Microsoft Visual Studio\2022\Professional\VC\Tools\MSVC\14.44.35207\include\vector

; 176  :         return !(*this == _Right);

  0000a	3b c2		 cmp	 eax, edx
; File C:\IAGOS\server\v18\Source\Source\_Common\lord.cpp

; 125  : 	for( VSPC::iterator i = m_vCandidates.begin(); i != m_vCandidates.end(); ++i )

  0000c	74 10		 je	 SHORT $LN3@GetCandida
  0000e	8b 75 08	 mov	 esi, DWORD PTR _idPlayer$[ebp]
$LL4@GetCandida:

; 126  : 	{
; 127  : 		if( ( *i )->GetIdPlayer() == idPlayer )

  00011	8b 08		 mov	 ecx, DWORD PTR [eax]
  00013	39 31		 cmp	 DWORD PTR [ecx], esi
  00015	74 0e		 je	 SHORT $LN38@GetCandida
; File C:\Program Files\Microsoft Visual Studio\2022\Professional\VC\Tools\MSVC\14.44.35207\include\vector

; 82   :         ++_Ptr;

  00017	83 c0 08	 add	 eax, 8

; 176  :         return !(*this == _Right);

  0001a	3b c2		 cmp	 eax, edx
; File C:\IAGOS\server\v18\Source\Source\_Common\lord.cpp

; 125  : 	for( VSPC::iterator i = m_vCandidates.begin(); i != m_vCandidates.end(); ++i )

  0001c	75 f3		 jne	 SHORT $LL4@GetCandida
$LN3@GetCandida:

; 129  : 	}
; 130  : 	return NULL;

  0001e	33 c0		 xor	 eax, eax
  00020	5e		 pop	 esi

; 131  : }

  00021	5d		 pop	 ebp
  00022	c2 04 00	 ret	 4
$LN38@GetCandida:

; 128  : 			return ( *i ).get();

  00025	8b c1		 mov	 eax, ecx
  00027	5e		 pop	 esi

; 131  : }

  00028	5d		 pop	 ebp
  00029	c2 04 00	 ret	 4
?GetCandidate@IElection@@QAEPAVCCandidate@@K@Z ENDP	; IElection::GetCandidate
_TEXT	ENDS
; Function compile flags: /Ogtp
; File C:\IAGOS\server\v18\Source\Source\_Common\lord.cpp
; File C:\Program Files\Microsoft Visual Studio\2022\Professional\VC\Tools\MSVC\14.44.35207\include\memory
; File C:\Program Files\Microsoft Visual Studio\2022\Professional\VC\Tools\MSVC\14.44.35207\include\vector
; File C:\IAGOS\server\v18\Source\Source\_Common\lord.cpp
; File C:\Program Files\Microsoft Visual Studio\2022\Professional\VC\Tools\MSVC\14.44.35207\include\vector
; File C:\Program Files\Microsoft Visual Studio\2022\Professional\VC\Tools\MSVC\14.44.35207\include\memory
; File C:\Program Files\Microsoft Visual Studio\2022\Professional\VC\Tools\MSVC\14.44.35207\include\vector
; File C:\Program Files\Microsoft Visual Studio\2022\Professional\VC\Tools\MSVC\14.44.35207\include\memory
; File C:\IAGOS\server\v18\Source\Source\_Common\lord.cpp
;	COMDAT ?AddCandidate@IElection@@QAEPAVCCandidate@@PAV2@@Z
_TEXT	SEGMENT
$T2 = -20						; size = 8
__$EHRec$ = -12						; size = 12
_pCandidate$ = 8					; size = 4
__Owner$3 = 8						; size = 4
$T4 = 8							; size = 4
?AddCandidate@IElection@@QAEPAVCCandidate@@PAV2@@Z PROC	; IElection::AddCandidate, COMDAT
; _this$ = ecx

; 118  : {

  00000	55		 push	 ebp
  00001	8b ec		 mov	 ebp, esp
  00003	6a ff		 push	 -1
  00005	68 00 00 00 00	 push	 __ehhandler$?AddCandidate@IElection@@QAEPAVCCandidate@@PAV2@@Z
  0000a	64 a1 00 00 00
	00		 mov	 eax, DWORD PTR fs:0
  00010	50		 push	 eax
  00011	83 ec 08	 sub	 esp, 8
  00014	53		 push	 ebx
  00015	56		 push	 esi
  00016	57		 push	 edi
  00017	a1 00 00 00 00	 mov	 eax, DWORD PTR ___security_cookie
  0001c	33 c5		 xor	 eax, ebp
  0001e	50		 push	 eax
  0001f	8d 45 f4	 lea	 eax, DWORD PTR __$EHRec$[ebp]
  00022	64 a3 00 00 00
	00		 mov	 DWORD PTR fs:0, eax
  00028	8b f9		 mov	 edi, ecx
; File C:\Program Files\Microsoft Visual Studio\2022\Professional\VC\Tools\MSVC\14.44.35207\include\memory

; 1526 :     explicit _Temporary_owner(_Ux* const _Ptr_) noexcept : _Ptr(_Ptr_) {}

  0002a	8b 75 08	 mov	 esi, DWORD PTR _pCandidate$[ebp]
  0002d	89 75 08	 mov	 DWORD PTR __Owner$3[ebp], esi

; 1589 :             _Set_ptr_rep_and_enable_shared(_Owner._Ptr, new _Ref_count<_Ux>(_Owner._Ptr));

  00030	6a 10		 push	 16			; 00000010H
  00032	c7 45 fc 00 00
	00 00		 mov	 DWORD PTR __$EHRec$[ebp+8], 0
  00039	e8 00 00 00 00	 call	 ??2@YAPAXI@Z		; operator new
  0003e	83 c4 04	 add	 esp, 4
  00041	89 45 08	 mov	 DWORD PTR $T4[ebp], eax
  00044	85 c0		 test	 eax, eax
  00046	74 27		 je	 SHORT $LN6@AddCandida
  00048	0f 57 c0	 xorps	 xmm0, xmm0

; 1183 :     explicit _Ref_count(_Ty* _Px) : _Ref_count_base(), _Ptr(_Px) {}

  0004b	66 0f d6 00	 movq	 QWORD PTR [eax], xmm0
  0004f	c7 40 08 00 00
	00 00		 mov	 DWORD PTR [eax+8], 0

; 1119 :     _Atomic_counter_t _Uses  = 1;

  00056	c7 40 04 01 00
	00 00		 mov	 DWORD PTR [eax+4], 1

; 1120 :     _Atomic_counter_t _Weaks = 1;

  0005d	c7 40 08 01 00
	00 00		 mov	 DWORD PTR [eax+8], 1

; 1183 :     explicit _Ref_count(_Ty* _Px) : _Ref_count_base(), _Ptr(_Px) {}

  00064	c7 00 00 00 00
	00		 mov	 DWORD PTR [eax], OFFSET ??_7?$_Ref_count@VCCandidate@@@std@@6B@
  0006a	89 70 0c	 mov	 DWORD PTR [eax+12], esi

; 1589 :             _Set_ptr_rep_and_enable_shared(_Owner._Ptr, new _Ref_count<_Ux>(_Owner._Ptr));

  0006d	eb 02		 jmp	 SHORT $LN7@AddCandida
$LN6@AddCandida:
  0006f	33 c0		 xor	 eax, eax
$LN7@AddCandida:

; 1856 :         this->_Ptr = _Px;

  00071	89 75 ec	 mov	 DWORD PTR $T2[ebp], esi

; 1857 :         this->_Rep = _Rx;

  00074	89 45 f0	 mov	 DWORD PTR $T2[ebp+4], eax
; File C:\Program Files\Microsoft Visual Studio\2022\Professional\VC\Tools\MSVC\14.44.35207\include\vector

; 844  :         if (_Mylast != _My_data._Myend) {

  00077	8b 57 18	 mov	 edx, DWORD PTR [edi+24]
; File C:\IAGOS\server\v18\Source\Source\_Common\lord.cpp

; 119  : 	m_vCandidates.push_back( SPC( pCandidate ) );

  0007a	8d 4f 14	 lea	 ecx, DWORD PTR [edi+20]
  0007d	c7 45 fc 01 00
	00 00		 mov	 DWORD PTR __$EHRec$[ebp+8], 1
; File C:\Program Files\Microsoft Visual Studio\2022\Professional\VC\Tools\MSVC\14.44.35207\include\vector

; 844  :         if (_Mylast != _My_data._Myend) {

  00084	3b 51 08	 cmp	 edx, DWORD PTR [ecx+8]
  00087	74 0b		 je	 SHORT $LN36@AddCandida
; File C:\Program Files\Microsoft Visual Studio\2022\Professional\VC\Tools\MSVC\14.44.35207\include\memory

; 1327 :         _Ptr = _Right._Ptr;

  00089	89 32		 mov	 DWORD PTR [edx], esi

; 1328 :         _Rep = _Right._Rep;

  0008b	89 42 04	 mov	 DWORD PTR [edx+4], eax
; File C:\Program Files\Microsoft Visual Studio\2022\Professional\VC\Tools\MSVC\14.44.35207\include\vector

; 869  :         ++_Mylast;

  0008e	83 41 04 08	 add	 DWORD PTR [ecx+4], 8

; 845  :             return _Emplace_back_with_unused_capacity(_STD forward<_Valty>(_Val)...);

  00092	eb 32		 jmp	 SHORT $LN69@AddCandida
$LN36@AddCandida:

; 846  :         }
; 847  : 
; 848  :         return *_Emplace_reallocate(_Mylast, _STD forward<_Valty>(_Val)...);

  00094	8d 45 ec	 lea	 eax, DWORD PTR $T2[ebp]
  00097	50		 push	 eax
  00098	52		 push	 edx
  00099	e8 00 00 00 00	 call	 ??$_Emplace_reallocate@V?$shared_ptr@VCCandidate@@@std@@@?$vector@V?$shared_ptr@VCCandidate@@@std@@V?$allocator@V?$shared_ptr@VCCandidate@@@std@@@2@@std@@AAEPAV?$shared_ptr@VCCandidate@@@1@QAV21@$$QAV21@@Z ; std::vector<std::shared_ptr<CCandidate>,std::allocator<std::shared_ptr<CCandidate> > >::_Emplace_reallocate<std::shared_ptr<CCandidate> >
; File C:\Program Files\Microsoft Visual Studio\2022\Professional\VC\Tools\MSVC\14.44.35207\include\memory

; 1384 :         if (_Rep) {

  0009e	8b 7d f0	 mov	 edi, DWORD PTR $T2[ebp+4]
  000a1	85 ff		 test	 edi, edi
  000a3	74 21		 je	 SHORT $LN69@AddCandida

; 1159 :         if (_MT_DECR(_Uses) == 0) {

  000a5	83 cb ff	 or	 ebx, -1
  000a8	8b c3		 mov	 eax, ebx
  000aa	f0 0f c1 47 04	 lock	  xadd	 DWORD PTR [edi+4], eax
  000af	75 15		 jne	 SHORT $LN69@AddCandida

; 1160 :             _Destroy();

  000b1	8b 07		 mov	 eax, DWORD PTR [edi]
  000b3	8b cf		 mov	 ecx, edi
  000b5	ff 10		 call	 DWORD PTR [eax]

; 1166 :         if (_MT_DECR(_Weaks) == 0) {

  000b7	f0 0f c1 5f 08	 lock	  xadd	 DWORD PTR [edi+8], ebx
  000bc	4b		 dec	 ebx
  000bd	75 07		 jne	 SHORT $LN69@AddCandida

; 1167 :             _Delete_this();

  000bf	8b 07		 mov	 eax, DWORD PTR [edi]
  000c1	8b cf		 mov	 ecx, edi
  000c3	ff 50 04	 call	 DWORD PTR [eax+4]
$LN69@AddCandida:
; File C:\IAGOS\server\v18\Source\Source\_Common\lord.cpp

; 121  : }

  000c6	8b c6		 mov	 eax, esi
  000c8	8b 4d f4	 mov	 ecx, DWORD PTR __$EHRec$[ebp]
  000cb	64 89 0d 00 00
	00 00		 mov	 DWORD PTR fs:0, ecx
  000d2	59		 pop	 ecx
  000d3	5f		 pop	 edi
  000d4	5e		 pop	 esi
  000d5	5b		 pop	 ebx
  000d6	8b e5		 mov	 esp, ebp
  000d8	5d		 pop	 ebp
  000d9	c2 04 00	 ret	 4
_TEXT	ENDS
;	COMDAT text$x
text$x	SEGMENT
__unwindfunclet$?AddCandidate@IElection@@QAEPAVCCandidate@@PAV2@@Z$1:
  00000	8d 4d 08	 lea	 ecx, DWORD PTR __Owner$3[ebp]
  00003	e9 00 00 00 00	 jmp	 ??1?$_Temporary_owner@VCCandidate@@@std@@QAE@XZ ; std::_Temporary_owner<CCandidate>::~_Temporary_owner<CCandidate>
__unwindfunclet$?AddCandidate@IElection@@QAEPAVCCandidate@@PAV2@@Z$0:
  00008	8d 4d ec	 lea	 ecx, DWORD PTR $T2[ebp]
  0000b	e9 00 00 00 00	 jmp	 ??1?$shared_ptr@VCCandidate@@@std@@QAE@XZ ; std::shared_ptr<CCandidate>::~shared_ptr<CCandidate>
  00010	cc		 int	 3
  00011	cc		 int	 3
  00012	cc		 int	 3
  00013	cc		 int	 3
  00014	cc		 int	 3
__ehhandler$?AddCandidate@IElection@@QAEPAVCCandidate@@PAV2@@Z:
  00015	90		 npad	 1
  00016	90		 npad	 1
  00017	8b 54 24 08	 mov	 edx, DWORD PTR [esp+8]
  0001b	8d 42 0c	 lea	 eax, DWORD PTR [edx+12]
  0001e	8b 4a e8	 mov	 ecx, DWORD PTR [edx-24]
  00021	33 c8		 xor	 ecx, eax
  00023	e8 00 00 00 00	 call	 @__security_check_cookie@4
  00028	b8 00 00 00 00	 mov	 eax, OFFSET __ehfuncinfo$?AddCandidate@IElection@@QAEPAVCCandidate@@PAV2@@Z
  0002d	e9 00 00 00 00	 jmp	 ___CxxFrameHandler3
text$x	ENDS
?AddCandidate@IElection@@QAEPAVCCandidate@@PAV2@@Z ENDP	; IElection::AddCandidate
; Function compile flags: /Ogtp
; File C:\IAGOS\server\v18\Source\Source\_Common\lord.cpp
;	COMDAT ?AddCandidate@IElection@@QAEPAVCCandidate@@K_JPBDHJ@Z
_TEXT	SEGMENT
$T1 = -4						; size = 4
_idPlayer$ = 8						; size = 4
_iDeposit$ = 12						; size = 8
_szPledge$ = 20						; size = 4
_nVote$ = 24						; size = 4
_tCreate$ = 28						; size = 4
?AddCandidate@IElection@@QAEPAVCCandidate@@K_JPBDHJ@Z PROC ; IElection::AddCandidate, COMDAT
; _this$ = ecx

; 113  : {

  00000	55		 push	 ebp
  00001	8b ec		 mov	 ebp, esp
  00003	51		 push	 ecx
  00004	56		 push	 esi

; 114  : 	return AddCandidate( new CCandidate( idPlayer, iDeposit, szPledge, nVote, tCreate ) );

  00005	68 18 01 00 00	 push	 280			; 00000118H
  0000a	8b f1		 mov	 esi, ecx
  0000c	e8 00 00 00 00	 call	 ??2@YAPAXI@Z		; operator new
  00011	83 c4 04	 add	 esp, 4
  00014	89 45 fc	 mov	 DWORD PTR $T1[ebp], eax
  00017	85 c0		 test	 eax, eax
  00019	74 28		 je	 SHORT $LN3@AddCandida
  0001b	ff 75 1c	 push	 DWORD PTR _tCreate$[ebp]
  0001e	8b c8		 mov	 ecx, eax
  00020	ff 75 18	 push	 DWORD PTR _nVote$[ebp]
  00023	ff 75 14	 push	 DWORD PTR _szPledge$[ebp]
  00026	ff 75 10	 push	 DWORD PTR _iDeposit$[ebp+4]
  00029	ff 75 0c	 push	 DWORD PTR _iDeposit$[ebp]
  0002c	ff 75 08	 push	 DWORD PTR _idPlayer$[ebp]
  0002f	e8 00 00 00 00	 call	 ??0CCandidate@@QAE@K_JPBDHJ@Z ; CCandidate::CCandidate
  00034	50		 push	 eax
  00035	8b ce		 mov	 ecx, esi
  00037	e8 00 00 00 00	 call	 ?AddCandidate@IElection@@QAEPAVCCandidate@@PAV2@@Z ; IElection::AddCandidate
  0003c	5e		 pop	 esi

; 115  : }

  0003d	8b e5		 mov	 esp, ebp
  0003f	5d		 pop	 ebp
  00040	c2 18 00	 ret	 24			; 00000018H
$LN3@AddCandida:

; 114  : 	return AddCandidate( new CCandidate( idPlayer, iDeposit, szPledge, nVote, tCreate ) );

  00043	33 c0		 xor	 eax, eax
  00045	8b ce		 mov	 ecx, esi
  00047	50		 push	 eax
  00048	e8 00 00 00 00	 call	 ?AddCandidate@IElection@@QAEPAVCCandidate@@PAV2@@Z ; IElection::AddCandidate
  0004d	5e		 pop	 esi

; 115  : }

  0004e	8b e5		 mov	 esp, ebp
  00050	5d		 pop	 ebp
  00051	c2 18 00	 ret	 24			; 00000018H
?AddCandidate@IElection@@QAEPAVCCandidate@@K_JPBDHJ@Z ENDP ; IElection::AddCandidate
_TEXT	ENDS
; Function compile flags: /Ogtp
; File C:\IAGOS\server\v18\Source\Source\_Common\lord.cpp
; File C:\Program Files\Microsoft Visual Studio\2022\Professional\VC\Tools\MSVC\14.44.35207\include\vector
; File C:\IAGOS\server\v18\Source\Source\_Common\lord.cpp
;	COMDAT ??1IElection@@UAE@XZ
_TEXT	SEGMENT
__$EHRec$ = -12						; size = 12
??1IElection@@UAE@XZ PROC				; IElection::~IElection, COMDAT
; _this$ = ecx

; 108  : {

  00000	55		 push	 ebp
  00001	8b ec		 mov	 ebp, esp
  00003	6a ff		 push	 -1
  00005	68 00 00 00 00	 push	 __ehhandler$??1IElection@@UAE@XZ
  0000a	64 a1 00 00 00
	00		 mov	 eax, DWORD PTR fs:0
  00010	50		 push	 eax
  00011	56		 push	 esi
  00012	57		 push	 edi
  00013	a1 00 00 00 00	 mov	 eax, DWORD PTR ___security_cookie
  00018	33 c5		 xor	 eax, ebp
  0001a	50		 push	 eax
  0001b	8d 45 f4	 lea	 eax, DWORD PTR __$EHRec$[ebp]
  0001e	64 a3 00 00 00
	00		 mov	 DWORD PTR fs:0, eax
  00024	8b f9		 mov	 edi, ecx

; 109  : 	m_vCandidates.clear();

  00026	8d 77 14	 lea	 esi, DWORD PTR [edi+20]
  00029	c7 07 00 00 00
	00		 mov	 DWORD PTR [edi], OFFSET ??_7IElection@@6B@
; File C:\Program Files\Microsoft Visual Studio\2022\Professional\VC\Tools\MSVC\14.44.35207\include\vector

; 1812 :         if (_Myfirst == _Mylast) { // already empty, nothing to do

  0002f	8b 06		 mov	 eax, DWORD PTR [esi]
  00031	8b 4e 04	 mov	 ecx, DWORD PTR [esi+4]
  00034	3b c1		 cmp	 eax, ecx
  00036	74 10		 je	 SHORT $LN4@IElection

; 1813 :             // This is an optimization for debug mode: we can avoid taking the debug lock to invalidate iterators.
; 1814 :             // Note that when clearing an empty vector, this will preserve past-the-end iterators, which is allowed by
; 1815 :             // N4950 [sequence.reqmts]/54 "a.clear() [...] may invalidate the past-the-end iterator".
; 1816 :             return;
; 1817 :         }
; 1818 : 
; 1819 :         _My_data._Orphan_all();
; 1820 :         _Destroy_range(_Myfirst, _Mylast, _Getal());

  00038	56		 push	 esi
  00039	51		 push	 ecx
  0003a	50		 push	 eax
  0003b	e8 00 00 00 00	 call	 ??$_Destroy_range@V?$allocator@V?$shared_ptr@VCCandidate@@@std@@@std@@@std@@YAXPAV?$shared_ptr@VCCandidate@@@0@QAV10@AAV?$allocator@V?$shared_ptr@VCCandidate@@@std@@@0@@Z ; std::_Destroy_range<std::allocator<std::shared_ptr<CCandidate> > >

; 1821 :         _ASAN_VECTOR_MODIFY(static_cast<difference_type>(_Myfirst - _Mylast)); // negative when destroying elements
; 1822 :         _Mylast = _Myfirst;

  00040	8b 06		 mov	 eax, DWORD PTR [esi]
  00042	83 c4 0c	 add	 esp, 12			; 0000000cH
  00045	89 46 04	 mov	 DWORD PTR [esi+4], eax
$LN4@IElection:
  00048	68 00 00 00 00	 push	 OFFSET ??1?$vector@HV?$allocator@H@std@@@std@@QAE@XZ ; std::vector<int,std::allocator<int> >::~vector<int,std::allocator<int> >
  0004d	6a 02		 push	 2
  0004f	6a 0c		 push	 12			; 0000000cH
; File C:\IAGOS\server\v18\Source\Source\_Common\lord.cpp

; 110  : }

  00051	8d 47 44	 lea	 eax, DWORD PTR [edi+68]
  00054	c7 45 fc 00 00
	00 00		 mov	 DWORD PTR __$EHRec$[ebp+8], 0
  0005b	50		 push	 eax
  0005c	e8 00 00 00 00	 call	 ??_M@YGXPAXIIP6EX0@Z@Z
  00061	8d 4f 38	 lea	 ecx, DWORD PTR [edi+56]
  00064	e8 00 00 00 00	 call	 ??1?$vector@MV?$allocator@M@std@@@std@@QAE@XZ ; std::vector<float,std::allocator<float> >::~vector<float,std::allocator<float> >
  00069	8b ce		 mov	 ecx, esi
  0006b	e8 00 00 00 00	 call	 ??1?$vector@V?$shared_ptr@VCCandidate@@@std@@V?$allocator@V?$shared_ptr@VCCandidate@@@std@@@2@@std@@QAE@XZ ; std::vector<std::shared_ptr<CCandidate>,std::allocator<std::shared_ptr<CCandidate> > >::~vector<std::shared_ptr<CCandidate>,std::allocator<std::shared_ptr<CCandidate> > >
  00070	8b 4d f4	 mov	 ecx, DWORD PTR __$EHRec$[ebp]
  00073	64 89 0d 00 00
	00 00		 mov	 DWORD PTR fs:0, ecx
  0007a	59		 pop	 ecx
  0007b	5f		 pop	 edi
  0007c	5e		 pop	 esi
  0007d	8b e5		 mov	 esp, ebp
  0007f	5d		 pop	 ebp
  00080	c3		 ret	 0
  00081	cc		 int	 3
  00082	cc		 int	 3
  00083	cc		 int	 3
  00084	cc		 int	 3
  00085	cc		 int	 3
_TEXT	ENDS
;	COMDAT text$x
text$x	SEGMENT
__ehhandler$??1IElection@@UAE@XZ:
  00000	90		 npad	 1
  00001	90		 npad	 1
  00002	8b 54 24 08	 mov	 edx, DWORD PTR [esp+8]
  00006	8d 42 0c	 lea	 eax, DWORD PTR [edx+12]
  00009	8b 4a f4	 mov	 ecx, DWORD PTR [edx-12]
  0000c	33 c8		 xor	 ecx, eax
  0000e	e8 00 00 00 00	 call	 @__security_check_cookie@4
  00013	b8 00 00 00 00	 mov	 eax, OFFSET __ehfuncinfo$??1IElection@@UAE@XZ
  00018	e9 00 00 00 00	 jmp	 ___CxxFrameHandler3
text$x	ENDS
??1IElection@@UAE@XZ ENDP				; IElection::~IElection
; Function compile flags: /Ogtp
; File C:\IAGOS\server\v18\Source\Source\_Common\lord.cpp
; File C:\Program Files\Microsoft Visual Studio\2022\Professional\VC\Tools\MSVC\14.44.35207\include\vector
; File C:\IAGOS\server\v18\Source\Source\_Common\lord.cpp
; File C:\IAGOS\server\v18\Source\Source\_Common\lord.h
; File C:\IAGOS\server\v18\Source\Source\_Common\lord.cpp
; File C:\Program Files\Microsoft Visual Studio\2022\Professional\VC\Tools\MSVC\14.44.35207\include\vector
; File C:\IAGOS\server\v18\Source\Source\_Common\lord.h
; File C:\IAGOS\server\v18\Source\Source\_Common\lord.cpp
;	COMDAT ??0IElection@@IAE@PAVCLord@@@Z
_TEXT	SEGMENT
_this$ = -16						; size = 4
__$EHRec$ = -12						; size = 12
_pLord$ = 8						; size = 4
_this$ = 8						; size = 4
??0IElection@@IAE@PAVCLord@@@Z PROC			; IElection::IElection, COMDAT
; _this$ = ecx

; 104  : {

  00000	55		 push	 ebp
  00001	8b ec		 mov	 ebp, esp
  00003	6a ff		 push	 -1
  00005	68 00 00 00 00	 push	 __ehhandler$??0IElection@@IAE@PAVCLord@@@Z
  0000a	64 a1 00 00 00
	00		 mov	 eax, DWORD PTR fs:0
  00010	50		 push	 eax
  00011	51		 push	 ecx
  00012	56		 push	 esi
  00013	57		 push	 edi
  00014	a1 00 00 00 00	 mov	 eax, DWORD PTR ___security_cookie
  00019	33 c5		 xor	 eax, ebp
  0001b	50		 push	 eax
  0001c	8d 45 f4	 lea	 eax, DWORD PTR __$EHRec$[ebp]
  0001f	64 a3 00 00 00
	00		 mov	 DWORD PTR fs:0, eax
  00025	8b f9		 mov	 edi, ecx
  00027	89 7d f0	 mov	 DWORD PTR _this$[ebp], edi

; 101  : m_tBegin( 0 ),
; 102  : m_pLord( pLord ),

  0002a	8b 45 08	 mov	 eax, DWORD PTR _pLord$[ebp]
  0002d	c7 07 00 00 00
	00		 mov	 DWORD PTR [edi], OFFSET ??_7IElection@@6B@
  00033	89 47 04	 mov	 DWORD PTR [edi+4], eax

; 99   : m_idElection( 0 ),

  00036	c7 47 08 00 00
	00 00		 mov	 DWORD PTR [edi+8], 0

; 103  : m_nRequirement( 0 )

  0003d	c7 47 0c 00 00
	00 00		 mov	 DWORD PTR [edi+12], 0

; 100  : m_eState( eReady ),

  00044	c7 47 10 00 00
	00 00		 mov	 DWORD PTR [edi+16], 0
; File C:\Program Files\Microsoft Visual Studio\2022\Professional\VC\Tools\MSVC\14.44.35207\include\vector

; 400  :     _CONSTEXPR20 _Vector_val() noexcept : _Myfirst(), _Mylast(), _Myend() {}

  0004b	c7 47 14 00 00
	00 00		 mov	 DWORD PTR [edi+20], 0
  00052	c7 47 18 00 00
	00 00		 mov	 DWORD PTR [edi+24], 0
  00059	c7 47 1c 00 00
	00 00		 mov	 DWORD PTR [edi+28], 0
; File C:\IAGOS\server\v18\Source\Source\_Common\lord.cpp

; 104  : {

  00060	8d 77 24	 lea	 esi, DWORD PTR [edi+36]
  00063	c7 47 20 00 00
	00 00		 mov	 DWORD PTR [edi+32], 0
  0006a	89 75 08	 mov	 DWORD PTR _this$[ebp], esi
; File C:\IAGOS\server\v18\Source\Source\_Common\lord.h

; 138  : 			sProperty()	: nDayOfWeek( 0 ), nHour( 0 ), tCandidacy( 0 ), tVote( 0 ), fRequirementFactor( 0.0f ), nDays( 0 )	{}

  0006d	c7 06 00 00 00
	00		 mov	 DWORD PTR [esi], 0
  00073	c7 46 04 00 00
	00 00		 mov	 DWORD PTR [esi+4], 0
  0007a	c7 46 08 00 00
	00 00		 mov	 DWORD PTR [esi+8], 0
  00081	c7 46 0c 00 00
	00 00		 mov	 DWORD PTR [esi+12], 0
  00088	c7 46 10 00 00
	00 00		 mov	 DWORD PTR [esi+16], 0
; File C:\IAGOS\server\v18\Source\Source\_Common\lord.cpp

; 104  : {

  0008f	c7 45 fc 00 00
	00 00		 mov	 DWORD PTR __$EHRec$[ebp+8], 0
; File C:\Program Files\Microsoft Visual Studio\2022\Professional\VC\Tools\MSVC\14.44.35207\include\vector

; 400  :     _CONSTEXPR20 _Vector_val() noexcept : _Myfirst(), _Mylast(), _Myend() {}

  00096	c7 46 14 00 00
	00 00		 mov	 DWORD PTR [esi+20], 0
  0009d	c7 46 18 00 00
	00 00		 mov	 DWORD PTR [esi+24], 0
  000a4	c7 46 1c 00 00
	00 00		 mov	 DWORD PTR [esi+28], 0
; File C:\IAGOS\server\v18\Source\Source\_Common\lord.h

; 138  : 			sProperty()	: nDayOfWeek( 0 ), nHour( 0 ), tCandidacy( 0 ), tVote( 0 ), fRequirementFactor( 0.0f ), nDays( 0 )	{}

  000ab	68 00 00 00 00	 push	 OFFSET ??1?$vector@HV?$allocator@H@std@@@std@@QAE@XZ ; std::vector<int,std::allocator<int> >::~vector<int,std::allocator<int> >
  000b0	68 00 00 00 00	 push	 OFFSET ??0?$vector@HV?$allocator@H@std@@@std@@QAE@XZ ; std::vector<int,std::allocator<int> >::vector<int,std::allocator<int> >
  000b5	6a 02		 push	 2
  000b7	6a 0c		 push	 12			; 0000000cH
  000b9	8d 46 20	 lea	 eax, DWORD PTR [esi+32]
  000bc	c6 45 fc 01	 mov	 BYTE PTR __$EHRec$[ebp+8], 1
  000c0	50		 push	 eax
  000c1	e8 00 00 00 00	 call	 ??_L@YGXPAXIIP6EX0@Z1@Z
  000c6	c7 46 38 00 00
	00 00		 mov	 DWORD PTR [esi+56], 0
; File C:\IAGOS\server\v18\Source\Source\_Common\lord.cpp

; 105  : }

  000cd	8b c7		 mov	 eax, edi
  000cf	8b 4d f4	 mov	 ecx, DWORD PTR __$EHRec$[ebp]
  000d2	64 89 0d 00 00
	00 00		 mov	 DWORD PTR fs:0, ecx
  000d9	59		 pop	 ecx
  000da	5f		 pop	 edi
  000db	5e		 pop	 esi
  000dc	8b e5		 mov	 esp, ebp
  000de	5d		 pop	 ebp
  000df	c2 04 00	 ret	 4
_TEXT	ENDS
;	COMDAT text$x
text$x	SEGMENT
__unwindfunclet$??0IElection@@IAE@PAVCLord@@@Z$0:
  00000	8b 4d f0	 mov	 ecx, DWORD PTR _this$[ebp]
  00003	83 c1 14	 add	 ecx, 20			; 00000014H
  00006	e9 00 00 00 00	 jmp	 ??1?$vector@V?$shared_ptr@VCCandidate@@@std@@V?$allocator@V?$shared_ptr@VCCandidate@@@std@@@2@@std@@QAE@XZ ; std::vector<std::shared_ptr<CCandidate>,std::allocator<std::shared_ptr<CCandidate> > >::~vector<std::shared_ptr<CCandidate>,std::allocator<std::shared_ptr<CCandidate> > >
__unwindfunclet$??0IElection@@IAE@PAVCLord@@@Z$2:
  0000b	8b 4d 08	 mov	 ecx, DWORD PTR _this$[ebp]
  0000e	83 c1 14	 add	 ecx, 20			; 00000014H
  00011	e9 00 00 00 00	 jmp	 ??1?$vector@MV?$allocator@M@std@@@std@@QAE@XZ ; std::vector<float,std::allocator<float> >::~vector<float,std::allocator<float> >
  00016	cc		 int	 3
  00017	cc		 int	 3
  00018	cc		 int	 3
  00019	cc		 int	 3
  0001a	cc		 int	 3
__ehhandler$??0IElection@@IAE@PAVCLord@@@Z:
  0001b	90		 npad	 1
  0001c	90		 npad	 1
  0001d	8b 54 24 08	 mov	 edx, DWORD PTR [esp+8]
  00021	8d 42 0c	 lea	 eax, DWORD PTR [edx+12]
  00024	8b 4a f0	 mov	 ecx, DWORD PTR [edx-16]
  00027	33 c8		 xor	 ecx, eax
  00029	e8 00 00 00 00	 call	 @__security_check_cookie@4
  0002e	b8 00 00 00 00	 mov	 eax, OFFSET __ehfuncinfo$??0IElection@@IAE@PAVCLord@@@Z
  00033	e9 00 00 00 00	 jmp	 ___CxxFrameHandler3
text$x	ENDS
??0IElection@@IAE@PAVCLord@@@Z ENDP			; IElection::IElection
; Function compile flags: /Ogtp
; File C:\IAGOS\server\v18\Source\Source\_Common\lord.cpp
; File C:\IAGOS\server\v18\Source\Source\_Network\Misc\Include\Ar.h
; File C:\IAGOS\server\v18\Source\Source\_Common\lord.cpp
; File C:\IAGOS\server\v18\Source\Source\_Network\Misc\Include\Ar.h
; File C:\IAGOS\server\v18\Source\Source\_Common\lord.cpp
; File C:\IAGOS\server\v18\Source\Source\_Network\Misc\Include\Ar.h
; File C:\IAGOS\server\v18\Source\Source\_Common\lord.cpp
; File C:\IAGOS\server\v18\Source\Source\_Network\Misc\Include\Ar.h
; File C:\IAGOS\server\v18\Source\Source\_Common\lord.cpp
;	COMDAT ?Serialize@CCandidate@@QAEXAAVCAr@@@Z
_TEXT	SEGMENT
_ar$ = 8						; size = 4
?Serialize@CCandidate@@QAEXAAVCAr@@@Z PROC		; CCandidate::Serialize, COMDAT
; _this$ = ecx

; 40   : {

  00000	55		 push	 ebp
  00001	8b ec		 mov	 ebp, esp
  00003	53		 push	 ebx
  00004	56		 push	 esi
; File C:\IAGOS\server\v18\Source\Source\_Network\Misc\Include\Ar.h

; 146  : 	return (m_nMode & CAr::load) == 0;

  00005	8b 75 08	 mov	 esi, DWORD PTR _ar$[ebp]
  00008	8d 81 10 01 00
	00		 lea	 eax, DWORD PTR [ecx+272]
; File C:\IAGOS\server\v18\Source\Source\_Common\lord.cpp

; 40   : {

  0000e	57		 push	 edi
; File C:\IAGOS\server\v18\Source\Source\_Network\Misc\Include\Ar.h

; 146  : 	return (m_nMode & CAr::load) == 0;

  0000f	8d 51 08	 lea	 edx, DWORD PTR [ecx+8]
; File C:\IAGOS\server\v18\Source\Source\_Common\lord.cpp

; 41   : 	if( ar.IsStoring() )

  00012	50		 push	 eax
; File C:\IAGOS\server\v18\Source\Source\_Network\Misc\Include\Ar.h

; 146  : 	return (m_nMode & CAr::load) == 0;

  00013	f6 06 01	 test	 BYTE PTR [esi], 1
  00016	8d b9 14 01 00
	00		 lea	 edi, DWORD PTR [ecx+276]
; File C:\IAGOS\server\v18\Source\Source\_Common\lord.cpp

; 41   : 	if( ar.IsStoring() )

  0001c	52		 push	 edx
; File C:\IAGOS\server\v18\Source\Source\_Network\Misc\Include\Ar.h

; 146  : 	return (m_nMode & CAr::load) == 0;

  0001d	8d 59 10	 lea	 ebx, DWORD PTR [ecx+16]
; File C:\IAGOS\server\v18\Source\Source\_Common\lord.cpp

; 41   : 	if( ar.IsStoring() )

  00020	51		 push	 ecx
  00021	8b ce		 mov	 ecx, esi
  00023	75 2a		 jne	 SHORT $LN2@Serialize

; 42   : 	{
; 43   : 		ar << m_idPlayer << m_iDeposit << m_nVote;

  00025	e8 00 00 00 00	 call	 ??$?6K@CAr@@QAEAAV0@ABK@Z ; CAr::operator<<<unsigned long>
  0002a	8b c8		 mov	 ecx, eax
  0002c	e8 00 00 00 00	 call	 ??$?6_J@CAr@@QAEAAV0@AB_J@Z ; CAr::operator<<<__int64>
  00031	8b c8		 mov	 ecx, eax
  00033	e8 00 00 00 00	 call	 ??$?6H@CAr@@QAEAAV0@ABH@Z ; CAr::operator<<<int>

; 44   : 		ar << m_tCreate;

  00038	57		 push	 edi
  00039	8b ce		 mov	 ecx, esi
  0003b	e8 00 00 00 00	 call	 ??$?6J@CAr@@QAEAAV0@ABJ@Z ; CAr::operator<<<long>

; 45   : 		ar.WriteString( m_szPledge );

  00040	53		 push	 ebx
  00041	8b ce		 mov	 ecx, esi
  00043	e8 00 00 00 00	 call	 ?WriteString@CAr@@QAEXPBD@Z ; CAr::WriteString
  00048	5f		 pop	 edi

; 52   : 	}
; 53   : }

  00049	5e		 pop	 esi
  0004a	5b		 pop	 ebx
  0004b	5d		 pop	 ebp
  0004c	c2 04 00	 ret	 4
$LN2@Serialize:

; 46   : 	}
; 47   : 	else
; 48   : 	{
; 49   : 		ar >> m_idPlayer >> m_iDeposit >> m_nVote;

  0004f	e8 00 00 00 00	 call	 ??$?5K@CAr@@QAEAAV0@AAK@Z ; CAr::operator>><unsigned long>
  00054	8b c8		 mov	 ecx, eax
  00056	e8 00 00 00 00	 call	 ??$?5_J@CAr@@QAEAAV0@AA_J@Z ; CAr::operator>><__int64>
  0005b	8b c8		 mov	 ecx, eax
  0005d	e8 00 00 00 00	 call	 ??$?5H@CAr@@QAEAAV0@AAH@Z ; CAr::operator>><int>

; 50   : 		ar >> m_tCreate;

  00062	57		 push	 edi
  00063	8b ce		 mov	 ecx, esi
  00065	e8 00 00 00 00	 call	 ??$?5J@CAr@@QAEAAV0@AAJ@Z ; CAr::operator>><long>

; 51   : 		ar.ReadString( m_szPledge, nMaxPledgeLen );

  0006a	68 ff 00 00 00	 push	 255			; 000000ffH
  0006f	53		 push	 ebx
  00070	8b ce		 mov	 ecx, esi
  00072	e8 00 00 00 00	 call	 ?ReadString@CAr@@QAEPADPADH@Z ; CAr::ReadString
  00077	5f		 pop	 edi

; 52   : 	}
; 53   : }

  00078	5e		 pop	 esi
  00079	5b		 pop	 ebx
  0007a	5d		 pop	 ebp
  0007b	c2 04 00	 ret	 4
?Serialize@CCandidate@@QAEXAAVCAr@@@Z ENDP		; CCandidate::Serialize
_TEXT	ENDS
; Function compile flags: /Ogtp
; File C:\IAGOS\server\v18\Source\Source\_Common\lord.cpp
;	COMDAT ?AddDeposit@CCandidate@@QAE_J_J@Z
_TEXT	SEGMENT
_iDeposit$ = 8						; size = 8
?AddDeposit@CCandidate@@QAE_J_J@Z PROC			; CCandidate::AddDeposit, COMDAT
; _this$ = ecx

; 34   : {

  00000	55		 push	 ebp
  00001	8b ec		 mov	 ebp, esp

; 35   : 	m_iDeposit		+= iDeposit;

  00003	8b 45 08	 mov	 eax, DWORD PTR _iDeposit$[ebp]
  00006	03 41 08	 add	 eax, DWORD PTR [ecx+8]
  00009	8b 55 0c	 mov	 edx, DWORD PTR _iDeposit$[ebp+4]
  0000c	13 51 0c	 adc	 edx, DWORD PTR [ecx+12]
  0000f	89 41 08	 mov	 DWORD PTR [ecx+8], eax
  00012	89 51 0c	 mov	 DWORD PTR [ecx+12], edx

; 36   : 	return m_iDeposit;
; 37   : }

  00015	5d		 pop	 ebp
  00016	c2 08 00	 ret	 8
?AddDeposit@CCandidate@@QAE_J_J@Z ENDP			; CCandidate::AddDeposit
_TEXT	ENDS
; Function compile flags: /Ogtp
; File C:\IAGOS\server\v18\Source\Source\_Common\lord.cpp
;	COMDAT ??1CCandidate@@QAE@XZ
_TEXT	SEGMENT
??1CCandidate@@QAE@XZ PROC				; CCandidate::~CCandidate, COMDAT
; _this$ = ecx

; 31   : }

  00000	c2 00 00	 ret	 0
??1CCandidate@@QAE@XZ ENDP				; CCandidate::~CCandidate
_TEXT	ENDS
; Function compile flags: /Ogtp
; File C:\IAGOS\server\v18\Source\Source\_Common\lord.cpp
;	COMDAT ??0CCandidate@@QAE@K_JPBDHJ@Z
_TEXT	SEGMENT
_idPlayer$ = 8						; size = 4
_iDeposit$ = 12						; size = 8
_szPledge$ = 20						; size = 4
_nVote$ = 24						; size = 4
_tCreate$ = 28						; size = 4
??0CCandidate@@QAE@K_JPBDHJ@Z PROC			; CCandidate::CCandidate, COMDAT
; _this$ = ecx

; 25   : {

  00000	55		 push	 ebp
  00001	8b ec		 mov	 ebp, esp

; 21   : m_idPlayer( idPlayer ),

  00003	8b 45 08	 mov	 eax, DWORD PTR _idPlayer$[ebp]

; 22   : m_iDeposit( iDeposit ),

  00006	8b 55 10	 mov	 edx, DWORD PTR _iDeposit$[ebp+4]
  00009	56		 push	 esi

; 26   : 	lstrcpy( m_szPledge, szPledge );

  0000a	ff 75 14	 push	 DWORD PTR _szPledge$[ebp]
  0000d	8b f1		 mov	 esi, ecx
  0000f	89 06		 mov	 DWORD PTR [esi], eax
  00011	8b 45 0c	 mov	 eax, DWORD PTR _iDeposit$[ebp]
  00014	89 46 08	 mov	 DWORD PTR [esi+8], eax
  00017	8b 45 18	 mov	 eax, DWORD PTR _nVote$[ebp]
  0001a	89 86 10 01 00
	00		 mov	 DWORD PTR [esi+272], eax
  00020	8b 45 1c	 mov	 eax, DWORD PTR _tCreate$[ebp]
  00023	89 86 14 01 00
	00		 mov	 DWORD PTR [esi+276], eax
  00029	8d 46 10	 lea	 eax, DWORD PTR [esi+16]
  0002c	50		 push	 eax
  0002d	89 56 0c	 mov	 DWORD PTR [esi+12], edx
  00030	ff 15 00 00 00
	00		 call	 DWORD PTR __imp__lstrcpyA@8

; 27   : }

  00036	8b c6		 mov	 eax, esi
  00038	5e		 pop	 esi
  00039	5d		 pop	 ebp
  0003a	c2 18 00	 ret	 24			; 00000018H
??0CCandidate@@QAE@K_JPBDHJ@Z ENDP			; CCandidate::CCandidate
_TEXT	ENDS
; Function compile flags: /Ogtp
; File C:\IAGOS\server\v18\Source\Source\_Common\lord.cpp
;	COMDAT ??0CCandidate@@QAE@XZ
_TEXT	SEGMENT
??0CCandidate@@QAE@XZ PROC				; CCandidate::CCandidate, COMDAT
; _this$ = ecx

; 11   : m_idPlayer( 0 ),

  00000	c7 01 00 00 00
	00		 mov	 DWORD PTR [ecx], 0

; 16   : 	*m_szPledge		= '\0';
; 17   : }

  00006	8b c1		 mov	 eax, ecx
  00008	c7 41 08 00 00
	00 00		 mov	 DWORD PTR [ecx+8], 0
  0000f	c7 41 0c 00 00
	00 00		 mov	 DWORD PTR [ecx+12], 0
  00016	c7 81 10 01 00
	00 00 00 00 00	 mov	 DWORD PTR [ecx+272], 0
  00020	c7 81 14 01 00
	00 00 00 00 00	 mov	 DWORD PTR [ecx+276], 0
  0002a	c6 41 10 00	 mov	 BYTE PTR [ecx+16], 0
  0002e	c3		 ret	 0
??0CCandidate@@QAE@XZ ENDP				; CCandidate::CCandidate
_TEXT	ENDS
; Function compile flags: /Ogtp
; File C:\Program Files\Microsoft Visual Studio\2022\Professional\VC\Tools\MSVC\14.44.35207\include\memory
;	COMDAT ?_Get_deleter@_Ref_count_base@std@@UBEPAXABVtype_info@@@Z
_TEXT	SEGMENT
___formal$ = 8						; size = 4
?_Get_deleter@_Ref_count_base@std@@UBEPAXABVtype_info@@@Z PROC ; std::_Ref_count_base::_Get_deleter, COMDAT
; _this$ = ecx

; 1176 :         return nullptr;

  00000	33 c0		 xor	 eax, eax

; 1177 :     }

  00002	c2 04 00	 ret	 4
?_Get_deleter@_Ref_count_base@std@@UBEPAXABVtype_info@@@Z ENDP ; std::_Ref_count_base::_Get_deleter
_TEXT	ENDS
; Function compile flags: /Ogtp
; File C:\Program Files\Microsoft Visual Studio\2022\Professional\VC\Tools\MSVC\14.44.35207\include\memory
;	COMDAT ??1_Ref_count_base@std@@UAE@XZ
_TEXT	SEGMENT
??1_Ref_count_base@std@@UAE@XZ PROC			; std::_Ref_count_base::~_Ref_count_base, COMDAT
; _this$ = ecx

; 1129 :     virtual ~_Ref_count_base() noexcept {} // TRANSITION, should be non-virtual

  00000	c2 00 00	 ret	 0
??1_Ref_count_base@std@@UAE@XZ ENDP			; std::_Ref_count_base::~_Ref_count_base
_TEXT	ENDS
; Function compile flags: /Ogtp
; File C:\Program Files\Microsoft Visual Studio\2022\Professional\VC\Tools\MSVC\14.44.35207\include\xmemory
;	COMDAT ??$_Allocate_manually_vector_aligned@U_Default_allocate_traits@std@@@std@@YAPAXI@Z
_TEXT	SEGMENT
__Bytes$ = 8						; size = 4
??$_Allocate_manually_vector_aligned@U_Default_allocate_traits@std@@@std@@YAPAXI@Z PROC ; std::_Allocate_manually_vector_aligned<std::_Default_allocate_traits>, COMDAT

; 182  : __declspec(allocator) void* _Allocate_manually_vector_aligned(const size_t _Bytes) {

  00000	55		 push	 ebp
  00001	8b ec		 mov	 ebp, esp

; 183  :     // allocate _Bytes manually aligned to at least _Big_allocation_alignment
; 184  :     const size_t _Block_size = _Non_user_size + _Bytes;

  00003	8b 45 08	 mov	 eax, DWORD PTR __Bytes$[ebp]
  00006	8d 48 23	 lea	 ecx, DWORD PTR [eax+35]

; 185  :     if (_Block_size <= _Bytes) {

  00009	3b c8		 cmp	 ecx, eax
  0000b	0f 86 00 00 00
	00		 jbe	 ?_Throw_bad_array_new_length@std@@YAXXZ ; std::_Throw_bad_array_new_length

; 136  :         return ::operator new(_Bytes);

  00011	51		 push	 ecx
  00012	e8 00 00 00 00	 call	 ??2@YAPAXI@Z		; operator new

; 186  :         _Throw_bad_array_new_length(); // add overflow
; 187  :     }
; 188  : 
; 189  :     const uintptr_t _Ptr_container = reinterpret_cast<uintptr_t>(_Traits::_Allocate(_Block_size));

  00017	8b c8		 mov	 ecx, eax

; 136  :         return ::operator new(_Bytes);

  00019	83 c4 04	 add	 esp, 4

; 190  :     _STL_VERIFY(_Ptr_container != 0, "invalid argument"); // validate even in release since we're doing p[-1]

  0001c	85 c9		 test	 ecx, ecx
  0001e	74 0b		 je	 SHORT $LN9@Allocate_m

; 191  :     void* const _Ptr = reinterpret_cast<void*>((_Ptr_container + _Non_user_size) & ~(_Big_allocation_alignment - 1));

  00020	8d 41 23	 lea	 eax, DWORD PTR [ecx+35]
  00023	83 e0 e0	 and	 eax, -32		; ffffffe0H

; 192  :     static_cast<uintptr_t*>(_Ptr)[-1] = _Ptr_container;

  00026	89 48 fc	 mov	 DWORD PTR [eax-4], ecx

; 193  : 
; 194  : #ifdef _DEBUG
; 195  :     static_cast<uintptr_t*>(_Ptr)[-2] = _Big_allocation_sentinel;
; 196  : #endif // defined(_DEBUG)
; 197  :     return _Ptr;
; 198  : }

  00029	5d		 pop	 ebp
  0002a	c3		 ret	 0
$LN9@Allocate_m:

; 190  :     _STL_VERIFY(_Ptr_container != 0, "invalid argument"); // validate even in release since we're doing p[-1]

  0002b	6a 00		 push	 0
  0002d	6a 00		 push	 0
  0002f	6a 00		 push	 0
  00031	6a 00		 push	 0
  00033	6a 00		 push	 0
  00035	e8 00 00 00 00	 call	 __invoke_watson
$LN7@Allocate_m:
  0003a	cc		 int	 3
??$_Allocate_manually_vector_aligned@U_Default_allocate_traits@std@@@std@@YAPAXI@Z ENDP ; std::_Allocate_manually_vector_aligned<std::_Default_allocate_traits>
_TEXT	ENDS
; Function compile flags: /Ogtp
; File C:\Program Files\Microsoft Visual Studio\2022\Professional\VC\Tools\MSVC\14.44.35207\include\xmemory
;	COMDAT ?_Throw_bad_array_new_length@std@@YAXXZ
_TEXT	SEGMENT
$T1 = -12						; size = 12
?_Throw_bad_array_new_length@std@@YAXXZ PROC		; std::_Throw_bad_array_new_length, COMDAT

; 107  : [[noreturn]] inline void _Throw_bad_array_new_length() {

  00000	55		 push	 ebp
  00001	8b ec		 mov	 ebp, esp
  00003	83 ec 0c	 sub	 esp, 12			; 0000000cH

; 108  :     _THROW(bad_array_new_length{});

  00006	8d 4d f4	 lea	 ecx, DWORD PTR $T1[ebp]
  00009	e8 00 00 00 00	 call	 ??0bad_array_new_length@std@@QAE@XZ ; std::bad_array_new_length::bad_array_new_length
  0000e	68 00 00 00 00	 push	 OFFSET __TI3?AVbad_array_new_length@std@@
  00013	8d 45 f4	 lea	 eax, DWORD PTR $T1[ebp]
  00016	50		 push	 eax
  00017	e8 00 00 00 00	 call	 __CxxThrowException@8
$LN3@Throw_bad_:
  0001c	cc		 int	 3
?_Throw_bad_array_new_length@std@@YAXXZ ENDP		; std::_Throw_bad_array_new_length
_TEXT	ENDS
; Function compile flags: /Ogtp
; File C:\Program Files\Microsoft Visual Studio\2022\Professional\VC\Tools\MSVC\14.44.35207\include\vcruntime_exception.h
;	COMDAT ??_Gbad_array_new_length@std@@UAEPAXI@Z
_TEXT	SEGMENT
___flags$ = 8						; size = 4
??_Gbad_array_new_length@std@@UAEPAXI@Z PROC		; std::bad_array_new_length::`scalar deleting destructor', COMDAT
; _this$ = ecx
  00000	55		 push	 ebp
  00001	8b ec		 mov	 ebp, esp

; 90   :     {

  00003	56		 push	 esi
  00004	8b f1		 mov	 esi, ecx

; 91   :         __std_exception_destroy(&_Data);

  00006	8d 46 04	 lea	 eax, DWORD PTR [esi+4]
  00009	c7 06 00 00 00
	00		 mov	 DWORD PTR [esi], OFFSET ??_7exception@std@@6B@
  0000f	50		 push	 eax
  00010	e8 00 00 00 00	 call	 ___std_exception_destroy
  00015	83 c4 04	 add	 esp, 4
  00018	f6 45 08 01	 test	 BYTE PTR ___flags$[ebp], 1
  0001c	74 0b		 je	 SHORT $LN18@scalar
  0001e	6a 0c		 push	 12			; 0000000cH
  00020	56		 push	 esi
  00021	e8 00 00 00 00	 call	 ??3@YAXPAXI@Z		; operator delete
  00026	83 c4 08	 add	 esp, 8
$LN18@scalar:
  00029	8b c6		 mov	 eax, esi
  0002b	5e		 pop	 esi
  0002c	5d		 pop	 ebp
  0002d	c2 04 00	 ret	 4
??_Gbad_array_new_length@std@@UAEPAXI@Z ENDP		; std::bad_array_new_length::`scalar deleting destructor'
_TEXT	ENDS
; Function compile flags: /Ogtp
; File C:\Program Files\Microsoft Visual Studio\2022\Professional\VC\Tools\MSVC\14.44.35207\include\vcruntime_exception.h
;	COMDAT ??0bad_array_new_length@std@@QAE@ABV01@@Z
_TEXT	SEGMENT
___that$ = 8						; size = 4
??0bad_array_new_length@std@@QAE@ABV01@@Z PROC		; std::bad_array_new_length::bad_array_new_length, COMDAT
; _this$ = ecx
  00000	55		 push	 ebp
  00001	8b ec		 mov	 ebp, esp

; 73   :     {

  00003	56		 push	 esi
  00004	8b f1		 mov	 esi, ecx
  00006	0f 57 c0	 xorps	 xmm0, xmm0

; 72   :         : _Data()

  00009	8d 46 04	 lea	 eax, DWORD PTR [esi+4]

; 74   :         __std_exception_copy(&_Other._Data, &_Data);

  0000c	50		 push	 eax
  0000d	c7 06 00 00 00
	00		 mov	 DWORD PTR [esi], OFFSET ??_7exception@std@@6B@
  00013	66 0f d6 00	 movq	 QWORD PTR [eax], xmm0
  00017	8b 45 08	 mov	 eax, DWORD PTR ___that$[ebp]
  0001a	83 c0 04	 add	 eax, 4
  0001d	50		 push	 eax
  0001e	e8 00 00 00 00	 call	 ___std_exception_copy
  00023	83 c4 08	 add	 esp, 8
  00026	c7 06 00 00 00
	00		 mov	 DWORD PTR [esi], OFFSET ??_7bad_array_new_length@std@@6B@
  0002c	8b c6		 mov	 eax, esi
  0002e	5e		 pop	 esi
  0002f	5d		 pop	 ebp
  00030	c2 04 00	 ret	 4
??0bad_array_new_length@std@@QAE@ABV01@@Z ENDP		; std::bad_array_new_length::bad_array_new_length
_TEXT	ENDS
; Function compile flags: /Ogtp
; File C:\Program Files\Microsoft Visual Studio\2022\Professional\VC\Tools\MSVC\14.44.35207\include\vcruntime_exception.h
;	COMDAT ??1bad_array_new_length@std@@UAE@XZ
_TEXT	SEGMENT
??1bad_array_new_length@std@@UAE@XZ PROC		; std::bad_array_new_length::~bad_array_new_length, COMDAT
; _this$ = ecx

; 91   :         __std_exception_destroy(&_Data);

  00000	8d 41 04	 lea	 eax, DWORD PTR [ecx+4]
  00003	c7 01 00 00 00
	00		 mov	 DWORD PTR [ecx], OFFSET ??_7exception@std@@6B@
  00009	50		 push	 eax
  0000a	e8 00 00 00 00	 call	 ___std_exception_destroy
  0000f	59		 pop	 ecx
  00010	c3		 ret	 0
??1bad_array_new_length@std@@UAE@XZ ENDP		; std::bad_array_new_length::~bad_array_new_length
_TEXT	ENDS
; Function compile flags: /Ogtp
; File C:\Program Files\Microsoft Visual Studio\2022\Professional\VC\Tools\MSVC\14.44.35207\include\vcruntime_exception.h
;	COMDAT ??0bad_array_new_length@std@@QAE@XZ
_TEXT	SEGMENT
??0bad_array_new_length@std@@QAE@XZ PROC		; std::bad_array_new_length::bad_array_new_length, COMDAT
; _this$ = ecx

; 144  :     {

  00000	0f 57 c0	 xorps	 xmm0, xmm0

; 145  :     }

  00003	8b c1		 mov	 eax, ecx

; 66   :         : _Data()

  00005	66 0f d6 41 04	 movq	 QWORD PTR [ecx+4], xmm0

; 67   :     {
; 68   :         _Data._What = _Message;

  0000a	c7 41 04 00 00
	00 00		 mov	 DWORD PTR [ecx+4], OFFSET ??_C@_0BF@KINCDENJ@bad?5array?5new?5length@

; 144  :     {

  00011	c7 01 00 00 00
	00		 mov	 DWORD PTR [ecx], OFFSET ??_7bad_array_new_length@std@@6B@

; 145  :     }

  00017	c3		 ret	 0
??0bad_array_new_length@std@@QAE@XZ ENDP		; std::bad_array_new_length::bad_array_new_length
_TEXT	ENDS
; Function compile flags: /Ogtp
; File C:\Program Files\Microsoft Visual Studio\2022\Professional\VC\Tools\MSVC\14.44.35207\include\vcruntime_exception.h
;	COMDAT ??_Gbad_alloc@std@@UAEPAXI@Z
_TEXT	SEGMENT
___flags$ = 8						; size = 4
??_Gbad_alloc@std@@UAEPAXI@Z PROC			; std::bad_alloc::`scalar deleting destructor', COMDAT
; _this$ = ecx
  00000	55		 push	 ebp
  00001	8b ec		 mov	 ebp, esp

; 90   :     {

  00003	56		 push	 esi
  00004	8b f1		 mov	 esi, ecx

; 91   :         __std_exception_destroy(&_Data);

  00006	8d 46 04	 lea	 eax, DWORD PTR [esi+4]
  00009	c7 06 00 00 00
	00		 mov	 DWORD PTR [esi], OFFSET ??_7exception@std@@6B@
  0000f	50		 push	 eax
  00010	e8 00 00 00 00	 call	 ___std_exception_destroy
  00015	83 c4 04	 add	 esp, 4
  00018	f6 45 08 01	 test	 BYTE PTR ___flags$[ebp], 1
  0001c	74 0b		 je	 SHORT $LN13@scalar
  0001e	6a 0c		 push	 12			; 0000000cH
  00020	56		 push	 esi
  00021	e8 00 00 00 00	 call	 ??3@YAXPAXI@Z		; operator delete
  00026	83 c4 08	 add	 esp, 8
$LN13@scalar:
  00029	8b c6		 mov	 eax, esi
  0002b	5e		 pop	 esi
  0002c	5d		 pop	 ebp
  0002d	c2 04 00	 ret	 4
??_Gbad_alloc@std@@UAEPAXI@Z ENDP			; std::bad_alloc::`scalar deleting destructor'
_TEXT	ENDS
; Function compile flags: /Ogtp
; File C:\Program Files\Microsoft Visual Studio\2022\Professional\VC\Tools\MSVC\14.44.35207\include\vcruntime_exception.h
;	COMDAT ??0bad_alloc@std@@QAE@ABV01@@Z
_TEXT	SEGMENT
___that$ = 8						; size = 4
??0bad_alloc@std@@QAE@ABV01@@Z PROC			; std::bad_alloc::bad_alloc, COMDAT
; _this$ = ecx
  00000	55		 push	 ebp
  00001	8b ec		 mov	 ebp, esp

; 73   :     {

  00003	56		 push	 esi
  00004	8b f1		 mov	 esi, ecx
  00006	0f 57 c0	 xorps	 xmm0, xmm0

; 72   :         : _Data()

  00009	8d 46 04	 lea	 eax, DWORD PTR [esi+4]

; 74   :         __std_exception_copy(&_Other._Data, &_Data);

  0000c	50		 push	 eax
  0000d	c7 06 00 00 00
	00		 mov	 DWORD PTR [esi], OFFSET ??_7exception@std@@6B@
  00013	66 0f d6 00	 movq	 QWORD PTR [eax], xmm0
  00017	8b 45 08	 mov	 eax, DWORD PTR ___that$[ebp]
  0001a	83 c0 04	 add	 eax, 4
  0001d	50		 push	 eax
  0001e	e8 00 00 00 00	 call	 ___std_exception_copy
  00023	83 c4 08	 add	 esp, 8
  00026	c7 06 00 00 00
	00		 mov	 DWORD PTR [esi], OFFSET ??_7bad_alloc@std@@6B@
  0002c	8b c6		 mov	 eax, esi
  0002e	5e		 pop	 esi
  0002f	5d		 pop	 ebp
  00030	c2 04 00	 ret	 4
??0bad_alloc@std@@QAE@ABV01@@Z ENDP			; std::bad_alloc::bad_alloc
_TEXT	ENDS
; Function compile flags: /Ogtp
; File C:\Program Files\Microsoft Visual Studio\2022\Professional\VC\Tools\MSVC\14.44.35207\include\vcruntime_exception.h
;	COMDAT ??_Gexception@std@@UAEPAXI@Z
_TEXT	SEGMENT
___flags$ = 8						; size = 4
??_Gexception@std@@UAEPAXI@Z PROC			; std::exception::`scalar deleting destructor', COMDAT
; _this$ = ecx
  00000	55		 push	 ebp
  00001	8b ec		 mov	 ebp, esp

; 90   :     {

  00003	56		 push	 esi
  00004	8b f1		 mov	 esi, ecx

; 91   :         __std_exception_destroy(&_Data);

  00006	8d 46 04	 lea	 eax, DWORD PTR [esi+4]
  00009	c7 06 00 00 00
	00		 mov	 DWORD PTR [esi], OFFSET ??_7exception@std@@6B@
  0000f	50		 push	 eax
  00010	e8 00 00 00 00	 call	 ___std_exception_destroy
  00015	83 c4 04	 add	 esp, 4
  00018	f6 45 08 01	 test	 BYTE PTR ___flags$[ebp], 1
  0001c	74 0b		 je	 SHORT $LN8@scalar
  0001e	6a 0c		 push	 12			; 0000000cH
  00020	56		 push	 esi
  00021	e8 00 00 00 00	 call	 ??3@YAXPAXI@Z		; operator delete
  00026	83 c4 08	 add	 esp, 8
$LN8@scalar:
  00029	8b c6		 mov	 eax, esi
  0002b	5e		 pop	 esi
  0002c	5d		 pop	 ebp
  0002d	c2 04 00	 ret	 4
??_Gexception@std@@UAEPAXI@Z ENDP			; std::exception::`scalar deleting destructor'
_TEXT	ENDS
; Function compile flags: /Ogtp
; File C:\Program Files\Microsoft Visual Studio\2022\Professional\VC\Tools\MSVC\14.44.35207\include\vcruntime_exception.h
;	COMDAT ?what@exception@std@@UBEPBDXZ
_TEXT	SEGMENT
?what@exception@std@@UBEPBDXZ PROC			; std::exception::what, COMDAT
; _this$ = ecx

; 96   :         return _Data._What ? _Data._What : "Unknown exception";

  00000	8b 49 04	 mov	 ecx, DWORD PTR [ecx+4]
  00003	b8 00 00 00 00	 mov	 eax, OFFSET ??_C@_0BC@EOODALEL@Unknown?5exception@
  00008	85 c9		 test	 ecx, ecx
  0000a	0f 45 c1	 cmovne	 eax, ecx

; 97   :     }

  0000d	c3		 ret	 0
?what@exception@std@@UBEPBDXZ ENDP			; std::exception::what
_TEXT	ENDS
; Function compile flags: /Ogtp
; File C:\Program Files\Microsoft Visual Studio\2022\Professional\VC\Tools\MSVC\14.44.35207\include\vcruntime_exception.h
;	COMDAT ??1exception@std@@UAE@XZ
_TEXT	SEGMENT
??1exception@std@@UAE@XZ PROC				; std::exception::~exception, COMDAT
; _this$ = ecx

; 91   :         __std_exception_destroy(&_Data);

  00000	8d 41 04	 lea	 eax, DWORD PTR [ecx+4]
  00003	c7 01 00 00 00
	00		 mov	 DWORD PTR [ecx], OFFSET ??_7exception@std@@6B@
  00009	50		 push	 eax
  0000a	e8 00 00 00 00	 call	 ___std_exception_destroy
  0000f	59		 pop	 ecx

; 92   :     }

  00010	c3		 ret	 0
??1exception@std@@UAE@XZ ENDP				; std::exception::~exception
_TEXT	ENDS
; Function compile flags: /Ogtp
; File C:\Program Files\Microsoft Visual Studio\2022\Professional\VC\Tools\MSVC\14.44.35207\include\vcruntime_exception.h
;	COMDAT ??0exception@std@@QAE@ABV01@@Z
_TEXT	SEGMENT
__Other$ = 8						; size = 4
??0exception@std@@QAE@ABV01@@Z PROC			; std::exception::exception, COMDAT
; _this$ = ecx

; 73   :     {

  00000	55		 push	 ebp
  00001	8b ec		 mov	 ebp, esp
  00003	56		 push	 esi
  00004	8b f1		 mov	 esi, ecx
  00006	0f 57 c0	 xorps	 xmm0, xmm0
  00009	8d 46 04	 lea	 eax, DWORD PTR [esi+4]

; 74   :         __std_exception_copy(&_Other._Data, &_Data);

  0000c	50		 push	 eax
  0000d	c7 06 00 00 00
	00		 mov	 DWORD PTR [esi], OFFSET ??_7exception@std@@6B@
  00013	66 0f d6 00	 movq	 QWORD PTR [eax], xmm0
  00017	8b 45 08	 mov	 eax, DWORD PTR __Other$[ebp]
  0001a	83 c0 04	 add	 eax, 4
  0001d	50		 push	 eax
  0001e	e8 00 00 00 00	 call	 ___std_exception_copy
  00023	83 c4 08	 add	 esp, 8

; 75   :     }

  00026	8b c6		 mov	 eax, esi
  00028	5e		 pop	 esi
  00029	5d		 pop	 ebp
  0002a	c2 04 00	 ret	 4
??0exception@std@@QAE@ABV01@@Z ENDP			; std::exception::exception
_TEXT	ENDS
; Function compile flags: /Ogtp
; File C:\Program Files\Microsoft Visual Studio\2022\Professional\VC\Tools\MSVC\14.44.35207\atlmfc\include\atlexcept.h
;	COMDAT ?AtlThrowImpl@ATL@@YGXJ@Z
_TEXT	SEGMENT
_hr$ = 8						; size = 4
?AtlThrowImpl@ATL@@YGXJ@Z PROC				; ATL::AtlThrowImpl, COMDAT

; 69   : {

  00000	55		 push	 ebp
  00001	8b ec		 mov	 ebp, esp

; 70   : 	ATLTRACE(atlTraceException, 0, _T("AtlThrow: hr = 0x%x\n"), hr );
; 71   : #ifdef _AFX
; 72   : 	if( hr == E_OUTOFMEMORY )

  00003	8b 45 08	 mov	 eax, DWORD PTR _hr$[ebp]
  00006	3d 0e 00 07 80	 cmp	 eax, -2147024882	; 8007000eH
  0000b	75 05		 jne	 SHORT $LN2@AtlThrowIm

; 73   : 	{
; 74   : 		AfxThrowMemoryException();

  0000d	e8 00 00 00 00	 call	 ?AfxThrowMemoryException@@YGXXZ ; AfxThrowMemoryException
$LN2@AtlThrowIm:

; 75   : 	}
; 76   : 	else
; 77   : 	{
; 78   : 		AfxThrowOleException( hr );

  00012	50		 push	 eax
  00013	e8 00 00 00 00	 call	 ?AfxThrowOleException@@YGXJ@Z ; AfxThrowOleException
$LN5@AtlThrowIm:
  00018	cc		 int	 3
?AtlThrowImpl@ATL@@YGXJ@Z ENDP				; ATL::AtlThrowImpl
_TEXT	ENDS
; Function compile flags: /Ogtp
; File C:\Program Files (x86)\Windows Kits\10\Include\10.0.26100.0\ucrt\corecrt_stdio_config.h
;	COMDAT ___local_stdio_printf_options
_TEXT	SEGMENT
___local_stdio_printf_options PROC			; COMDAT

; 91   :         static unsigned __int64 _OptionsStorage;
; 92   :         return &_OptionsStorage;

  00000	b8 00 00 00 00	 mov	 eax, OFFSET ?_OptionsStorage@?1??__local_stdio_printf_options@@9@4_KA ; `__local_stdio_printf_options'::`2'::_OptionsStorage

; 93   :     }

  00005	c3		 ret	 0
___local_stdio_printf_options ENDP
_TEXT	ENDS
; Function compile flags: /Ogtp
; File C:\IAGOS\server\v18\Source\Source\_Common\lord.cpp
;	COMDAT ?__empty_global_delete@@YAXPAXI@Z
_TEXT	SEGMENT
___formal$ = 8						; size = 4
___formal$ = 12						; size = 4
?__empty_global_delete@@YAXPAXI@Z PROC			; __empty_global_delete, COMDAT

  00000	c2 00 00	 ret	 0
?__empty_global_delete@@YAXPAXI@Z ENDP			; __empty_global_delete
_TEXT	ENDS
; Function compile flags: /Ogtp
; File C:\IAGOS\server\v18\Source\Source\_Common\lord.cpp
;	COMDAT ?__empty_global_delete@@YAXPAX@Z
_TEXT	SEGMENT
___formal$ = 8						; size = 4
?__empty_global_delete@@YAXPAX@Z PROC			; __empty_global_delete, COMDAT

  00000	c2 00 00	 ret	 0
?__empty_global_delete@@YAXPAX@Z ENDP			; __empty_global_delete
_TEXT	ENDS
END
