; Listing generated by Microsoft (R) Optimizing Compiler Version 19.44.35225.0 

	TITLE	C:\IAGOS\server\v18\Source\Output\DatabaseServer\Release\lordskillexecutable.obj
	.686P
	.XMM
	include listing.inc
	.model	flat

INCLUDELIB LIBCMT
INCLUDELIB OLDNAMES

PUBLIC	?__empty_global_delete@@YAXPAX@Z		; __empty_global_delete
PUBLIC	?__empty_global_delete@@YAXPAXI@Z		; __empty_global_delete
PUBLIC	??1CLordSkillComponentExecutable@@UAE@XZ	; CLordSkillComponentExecutable::~CLordSkillComponentExecutable
PUBLIC	?Execute@CLordSkillComponentExecutable@@UAEXKKPAX@Z ; CLordSkillComponentExecutable::Execute
PUBLIC	??_GCLordSkillComponentExecutable@@UAEPAXI@Z	; CLordSkillComponentExecutable::`scalar deleting destructor'
PUBLIC	??0CLordSkillComponentODBC@@QAE@XZ		; CLordSkillComponentODBC::CLordSkillComponentODBC
PUBLIC	??1CLordSkillComponentODBC@@UAE@XZ		; CLordSkillComponentODBC::~CLordSkillComponentODBC
PUBLIC	?Execute@CLordSkillComponentODBC@@UAEXKKPAX@Z	; CLordSkillComponentODBC::Execute
PUBLIC	??_GCLordSkillComponentODBC@@UAEPAXI@Z		; CLordSkillComponentODBC::`scalar deleting destructor'
PUBLIC	??_7CLordSkillComponentExecutable@@6B@		; CLordSkillComponentExecutable::`vftable'
PUBLIC	??_7CLordSkillComponentODBC@@6B@		; CLordSkillComponentODBC::`vftable'
PUBLIC	??_R4CLordSkillComponentExecutable@@6B@		; CLordSkillComponentExecutable::`RTTI Complete Object Locator'
PUBLIC	??_R0?AVCLordSkillComponentExecutable@@@8	; CLordSkillComponentExecutable `RTTI Type Descriptor'
PUBLIC	??_R3CLordSkillComponentExecutable@@8		; CLordSkillComponentExecutable::`RTTI Class Hierarchy Descriptor'
PUBLIC	??_R2CLordSkillComponentExecutable@@8		; CLordSkillComponentExecutable::`RTTI Base Class Array'
PUBLIC	??_R1A@?0A@EA@CLordSkillComponentExecutable@@8	; CLordSkillComponentExecutable::`RTTI Base Class Descriptor at (0,-1,0,64)'
PUBLIC	??_R1A@?0A@EA@CLordSkillComponent@@8		; CLordSkillComponent::`RTTI Base Class Descriptor at (0,-1,0,64)'
PUBLIC	??_R0?AVCLordSkillComponent@@@8			; CLordSkillComponent `RTTI Type Descriptor'
PUBLIC	??_R3CLordSkillComponent@@8			; CLordSkillComponent::`RTTI Class Hierarchy Descriptor'
PUBLIC	??_R2CLordSkillComponent@@8			; CLordSkillComponent::`RTTI Base Class Array'
PUBLIC	??_R4CLordSkillComponentODBC@@6B@		; CLordSkillComponentODBC::`RTTI Complete Object Locator'
PUBLIC	??_R0?AVCLordSkillComponentODBC@@@8		; CLordSkillComponentODBC `RTTI Type Descriptor'
PUBLIC	??_R3CLordSkillComponentODBC@@8			; CLordSkillComponentODBC::`RTTI Class Hierarchy Descriptor'
PUBLIC	??_R2CLordSkillComponentODBC@@8			; CLordSkillComponentODBC::`RTTI Base Class Array'
PUBLIC	??_R1A@?0A@EA@CLordSkillComponentODBC@@8	; CLordSkillComponentODBC::`RTTI Base Class Descriptor at (0,-1,0,64)'
EXTRN	??3@YAXPAXI@Z:PROC				; operator delete
EXTRN	??0CLordSkillComponent@@QAE@XZ:PROC		; CLordSkillComponent::CLordSkillComponent
EXTRN	??1CLordSkillComponent@@UAE@XZ:PROC		; CLordSkillComponent::~CLordSkillComponent
EXTRN	??_ECLordSkillComponentExecutable@@UAEPAXI@Z:PROC ; CLordSkillComponentExecutable::`vector deleting destructor'
EXTRN	?UpdateLordSkillTick@CLController@@QAEHPAVCLordSkillComponent@@H@Z:PROC ; CLController::UpdateLordSkillTick
EXTRN	??_ECLordSkillComponentODBC@@UAEPAXI@Z:PROC	; CLordSkillComponentODBC::`vector deleting destructor'
EXTRN	?GetInstance@CDPTrans@@SAPAV1@XZ:PROC		; CDPTrans::GetInstance
EXTRN	?SendLordSkillUse@CDPTrans@@QAEXKKHH@Z:PROC	; CDPTrans::SendLordSkillUse
EXTRN	??_7type_info@@6B@:QWORD			; type_info::`vftable'
;	COMDAT ??_R1A@?0A@EA@CLordSkillComponentODBC@@8
rdata$r	SEGMENT
??_R1A@?0A@EA@CLordSkillComponentODBC@@8 DD FLAT:??_R0?AVCLordSkillComponentODBC@@@8 ; CLordSkillComponentODBC::`RTTI Base Class Descriptor at (0,-1,0,64)'
	DD	02H
	DD	00H
	DD	0ffffffffH
	DD	00H
	DD	040H
	DD	FLAT:??_R3CLordSkillComponentODBC@@8
rdata$r	ENDS
;	COMDAT ??_R2CLordSkillComponentODBC@@8
rdata$r	SEGMENT
??_R2CLordSkillComponentODBC@@8 DD FLAT:??_R1A@?0A@EA@CLordSkillComponentODBC@@8 ; CLordSkillComponentODBC::`RTTI Base Class Array'
	DD	FLAT:??_R1A@?0A@EA@CLordSkillComponentExecutable@@8
	DD	FLAT:??_R1A@?0A@EA@CLordSkillComponent@@8
rdata$r	ENDS
;	COMDAT ??_R3CLordSkillComponentODBC@@8
rdata$r	SEGMENT
??_R3CLordSkillComponentODBC@@8 DD 00H			; CLordSkillComponentODBC::`RTTI Class Hierarchy Descriptor'
	DD	00H
	DD	03H
	DD	FLAT:??_R2CLordSkillComponentODBC@@8
rdata$r	ENDS
;	COMDAT ??_R0?AVCLordSkillComponentODBC@@@8
data$rs	SEGMENT
??_R0?AVCLordSkillComponentODBC@@@8 DD FLAT:??_7type_info@@6B@ ; CLordSkillComponentODBC `RTTI Type Descriptor'
	DD	00H
	DB	'.?AVCLordSkillComponentODBC@@', 00H
data$rs	ENDS
;	COMDAT ??_R4CLordSkillComponentODBC@@6B@
rdata$r	SEGMENT
??_R4CLordSkillComponentODBC@@6B@ DD 00H		; CLordSkillComponentODBC::`RTTI Complete Object Locator'
	DD	00H
	DD	00H
	DD	FLAT:??_R0?AVCLordSkillComponentODBC@@@8
	DD	FLAT:??_R3CLordSkillComponentODBC@@8
rdata$r	ENDS
;	COMDAT ??_R2CLordSkillComponent@@8
rdata$r	SEGMENT
??_R2CLordSkillComponent@@8 DD FLAT:??_R1A@?0A@EA@CLordSkillComponent@@8 ; CLordSkillComponent::`RTTI Base Class Array'
rdata$r	ENDS
;	COMDAT ??_R3CLordSkillComponent@@8
rdata$r	SEGMENT
??_R3CLordSkillComponent@@8 DD 00H			; CLordSkillComponent::`RTTI Class Hierarchy Descriptor'
	DD	00H
	DD	01H
	DD	FLAT:??_R2CLordSkillComponent@@8
rdata$r	ENDS
;	COMDAT ??_R0?AVCLordSkillComponent@@@8
data$rs	SEGMENT
??_R0?AVCLordSkillComponent@@@8 DD FLAT:??_7type_info@@6B@ ; CLordSkillComponent `RTTI Type Descriptor'
	DD	00H
	DB	'.?AVCLordSkillComponent@@', 00H
data$rs	ENDS
;	COMDAT ??_R1A@?0A@EA@CLordSkillComponent@@8
rdata$r	SEGMENT
??_R1A@?0A@EA@CLordSkillComponent@@8 DD FLAT:??_R0?AVCLordSkillComponent@@@8 ; CLordSkillComponent::`RTTI Base Class Descriptor at (0,-1,0,64)'
	DD	00H
	DD	00H
	DD	0ffffffffH
	DD	00H
	DD	040H
	DD	FLAT:??_R3CLordSkillComponent@@8
rdata$r	ENDS
;	COMDAT ??_R1A@?0A@EA@CLordSkillComponentExecutable@@8
rdata$r	SEGMENT
??_R1A@?0A@EA@CLordSkillComponentExecutable@@8 DD FLAT:??_R0?AVCLordSkillComponentExecutable@@@8 ; CLordSkillComponentExecutable::`RTTI Base Class Descriptor at (0,-1,0,64)'
	DD	01H
	DD	00H
	DD	0ffffffffH
	DD	00H
	DD	040H
	DD	FLAT:??_R3CLordSkillComponentExecutable@@8
rdata$r	ENDS
;	COMDAT ??_R2CLordSkillComponentExecutable@@8
rdata$r	SEGMENT
??_R2CLordSkillComponentExecutable@@8 DD FLAT:??_R1A@?0A@EA@CLordSkillComponentExecutable@@8 ; CLordSkillComponentExecutable::`RTTI Base Class Array'
	DD	FLAT:??_R1A@?0A@EA@CLordSkillComponent@@8
rdata$r	ENDS
;	COMDAT ??_R3CLordSkillComponentExecutable@@8
rdata$r	SEGMENT
??_R3CLordSkillComponentExecutable@@8 DD 00H		; CLordSkillComponentExecutable::`RTTI Class Hierarchy Descriptor'
	DD	00H
	DD	02H
	DD	FLAT:??_R2CLordSkillComponentExecutable@@8
rdata$r	ENDS
;	COMDAT ??_R0?AVCLordSkillComponentExecutable@@@8
data$rs	SEGMENT
??_R0?AVCLordSkillComponentExecutable@@@8 DD FLAT:??_7type_info@@6B@ ; CLordSkillComponentExecutable `RTTI Type Descriptor'
	DD	00H
	DB	'.?AVCLordSkillComponentExecutable@@', 00H
data$rs	ENDS
;	COMDAT ??_R4CLordSkillComponentExecutable@@6B@
rdata$r	SEGMENT
??_R4CLordSkillComponentExecutable@@6B@ DD 00H		; CLordSkillComponentExecutable::`RTTI Complete Object Locator'
	DD	00H
	DD	00H
	DD	FLAT:??_R0?AVCLordSkillComponentExecutable@@@8
	DD	FLAT:??_R3CLordSkillComponentExecutable@@8
rdata$r	ENDS
;	COMDAT ??_7CLordSkillComponentODBC@@6B@
CONST	SEGMENT
??_7CLordSkillComponentODBC@@6B@ DD FLAT:??_R4CLordSkillComponentODBC@@6B@ ; CLordSkillComponentODBC::`vftable'
	DD	FLAT:??_ECLordSkillComponentODBC@@UAEPAXI@Z
	DD	FLAT:?Execute@CLordSkillComponentODBC@@UAEXKKPAX@Z
CONST	ENDS
;	COMDAT ??_7CLordSkillComponentExecutable@@6B@
CONST	SEGMENT
??_7CLordSkillComponentExecutable@@6B@ DD FLAT:??_R4CLordSkillComponentExecutable@@6B@ ; CLordSkillComponentExecutable::`vftable'
	DD	FLAT:??_ECLordSkillComponentExecutable@@UAEPAXI@Z
	DD	FLAT:?Execute@CLordSkillComponentExecutable@@UAEXKKPAX@Z
CONST	ENDS
; Function compile flags: /Ogtp
;	COMDAT ??_GCLordSkillComponentODBC@@UAEPAXI@Z
_TEXT	SEGMENT
___flags$ = 8						; size = 4
??_GCLordSkillComponentODBC@@UAEPAXI@Z PROC		; CLordSkillComponentODBC::`scalar deleting destructor', COMDAT
; _this$ = ecx
  00000	55		 push	 ebp
  00001	8b ec		 mov	 ebp, esp
  00003	56		 push	 esi
  00004	8b f1		 mov	 esi, ecx
  00006	e8 00 00 00 00	 call	 ??1CLordSkillComponentODBC@@UAE@XZ ; CLordSkillComponentODBC::~CLordSkillComponentODBC
  0000b	f6 45 08 01	 test	 BYTE PTR ___flags$[ebp], 1
  0000f	74 0e		 je	 SHORT $LN5@scalar
  00011	68 fc 00 00 00	 push	 252			; 000000fcH
  00016	56		 push	 esi
  00017	e8 00 00 00 00	 call	 ??3@YAXPAXI@Z		; operator delete
  0001c	83 c4 08	 add	 esp, 8
$LN5@scalar:
  0001f	8b c6		 mov	 eax, esi
  00021	5e		 pop	 esi
  00022	5d		 pop	 ebp
  00023	c2 04 00	 ret	 4
??_GCLordSkillComponentODBC@@UAEPAXI@Z ENDP		; CLordSkillComponentODBC::`scalar deleting destructor'
_TEXT	ENDS
; Function compile flags: /Ogtp
; File C:\IAGOS\server\v18\Source\Source\DatabaseServer\lordskillexecutable.cpp
;	COMDAT ?Execute@CLordSkillComponentODBC@@UAEXKKPAX@Z
_TEXT	SEGMENT
_idPlayer$ = 8						; size = 4
_idTarget$ = 12						; size = 4
_pParam$ = 16						; size = 4
?Execute@CLordSkillComponentODBC@@UAEXKKPAX@Z PROC	; CLordSkillComponentODBC::Execute, COMDAT
; _this$ = ecx

; 19   : {	// ЦЎЗЃНК М­ЙіРЧ БКСж НКХГ НЧЧр

  00000	55		 push	 ebp
  00001	8b ec		 mov	 ebp, esp
  00003	56		 push	 esi
  00004	8b f1		 mov	 esi, ecx
  00006	57		 push	 edi

; 20   : 	int nRet	= 0;

  00007	33 ff		 xor	 edi, edi

; 21   : 	if( GetTick() > 0 )		// РчЛчПы ДыБт НУАЃРЬ ГВОЦРжРИИщ КвАЁ

  00009	39 7e 0c	 cmp	 DWORD PTR [esi+12], edi
  0000c	7e 07		 jle	 SHORT $LN8@Execute

; 22   : 		nRet	= TID_GAME_LORD_SKILL_USE_E005;

  0000e	bf cb 0e 00 00	 mov	 edi, 3787		; 00000ecbH
  00013	eb 1d		 jmp	 SHORT $LN5@Execute
$LN8@Execute:

; 23   : 	if( !nRet )
; 24   : 	{	// РчЛчПы ДыБт НУАЃ МГСЄ ФѕИЎ ПфУЛ
; 25   : 		CLController* pController	= reinterpret_cast<CLController*>( pParam );
; 26   : 		if( !pController->UpdateLordSkillTick( this, GetCooltime() ) )

  00015	ff 76 08	 push	 DWORD PTR [esi+8]
  00018	8b 4d 10	 mov	 ecx, DWORD PTR _pParam$[ebp]
  0001b	56		 push	 esi
  0001c	e8 00 00 00 00	 call	 ?UpdateLordSkillTick@CLController@@QAEHPAVCLordSkillComponent@@H@Z ; CLController::UpdateLordSkillTick
  00021	85 c0		 test	 eax, eax
  00023	75 07		 jne	 SHORT $LN7@Execute

; 27   : 			nRet	= TID_GAME_LORD_SKILL_USE_E006;

  00025	bf cc 0e 00 00	 mov	 edi, 3788		; 00000eccH
  0002a	eb 06		 jmp	 SHORT $LN5@Execute
$LN7@Execute:

; 28   : 	}
; 29   : 	if( !nRet )		// ФѕИЎ МКАјЧЯИщ РчЛчПы ДыБт НУАЃ МГСЄ
; 30   : 		Use();

  0002c	8b 46 08	 mov	 eax, DWORD PTR [esi+8]
  0002f	89 46 0c	 mov	 DWORD PTR [esi+12], eax
$LN5@Execute:

; 31   : 	// ПљЕх М­ЙіПЁ АсАњ РќМл
; 32   : 	CDPTrans::GetInstance()->SendLordSkillUse( idPlayer, idTarget, GetId(), nRet );

  00032	57		 push	 edi
  00033	ff 76 04	 push	 DWORD PTR [esi+4]
  00036	ff 75 0c	 push	 DWORD PTR _idTarget$[ebp]
  00039	ff 75 08	 push	 DWORD PTR _idPlayer$[ebp]
  0003c	e8 00 00 00 00	 call	 ?GetInstance@CDPTrans@@SAPAV1@XZ ; CDPTrans::GetInstance
  00041	8b c8		 mov	 ecx, eax
  00043	e8 00 00 00 00	 call	 ?SendLordSkillUse@CDPTrans@@QAEXKKHH@Z ; CDPTrans::SendLordSkillUse
  00048	5f		 pop	 edi
  00049	5e		 pop	 esi

; 33   : }

  0004a	5d		 pop	 ebp
  0004b	c2 0c 00	 ret	 12			; 0000000cH
?Execute@CLordSkillComponentODBC@@UAEXKKPAX@Z ENDP	; CLordSkillComponentODBC::Execute
_TEXT	ENDS
; Function compile flags: /Ogtp
; File C:\IAGOS\server\v18\Source\Source\DatabaseServer\lordskillexecutable.cpp
; File C:\IAGOS\server\v18\Source\Source\_Common\lordskill.h
; File C:\IAGOS\server\v18\Source\Source\DatabaseServer\lordskillexecutable.cpp
;	COMDAT ??1CLordSkillComponentODBC@@UAE@XZ
_TEXT	SEGMENT
??1CLordSkillComponentODBC@@UAE@XZ PROC			; CLordSkillComponentODBC::~CLordSkillComponentODBC, COMDAT
; _this$ = ecx
; File C:\IAGOS\server\v18\Source\Source\_Common\lordskill.h

; 68   : 	virtual	~CLordSkillComponentExecutable()	{}

  00000	c7 01 00 00 00
	00		 mov	 DWORD PTR [ecx], OFFSET ??_7CLordSkillComponentExecutable@@6B@
  00006	e9 00 00 00 00	 jmp	 ??1CLordSkillComponent@@UAE@XZ ; CLordSkillComponent::~CLordSkillComponent
??1CLordSkillComponentODBC@@UAE@XZ ENDP			; CLordSkillComponentODBC::~CLordSkillComponentODBC
_TEXT	ENDS
; Function compile flags: /Ogtp
; File C:\IAGOS\server\v18\Source\Source\DatabaseServer\lordskillexecutable.cpp
; File C:\IAGOS\server\v18\Source\Source\_Common\lordskill.h
; File C:\IAGOS\server\v18\Source\Source\DatabaseServer\lordskillexecutable.cpp
;	COMDAT ??0CLordSkillComponentODBC@@QAE@XZ
_TEXT	SEGMENT
_this$ = -4						; size = 4
??0CLordSkillComponentODBC@@QAE@XZ PROC			; CLordSkillComponentODBC::CLordSkillComponentODBC, COMDAT
; _this$ = ecx

; 11   : {

  00000	55		 push	 ebp
  00001	8b ec		 mov	 ebp, esp
  00003	51		 push	 ecx
  00004	56		 push	 esi
  00005	8b f1		 mov	 esi, ecx
  00007	89 75 fc	 mov	 DWORD PTR _this$[ebp], esi
; File C:\IAGOS\server\v18\Source\Source\_Common\lordskill.h

; 67   : 	CLordSkillComponentExecutable() : CLordSkillComponent()	{}

  0000a	e8 00 00 00 00	 call	 ??0CLordSkillComponent@@QAE@XZ ; CLordSkillComponent::CLordSkillComponent
; File C:\IAGOS\server\v18\Source\Source\DatabaseServer\lordskillexecutable.cpp

; 11   : {

  0000f	c7 06 00 00 00
	00		 mov	 DWORD PTR [esi], OFFSET ??_7CLordSkillComponentODBC@@6B@

; 12   : }

  00015	8b c6		 mov	 eax, esi
  00017	5e		 pop	 esi
  00018	8b e5		 mov	 esp, ebp
  0001a	5d		 pop	 ebp
  0001b	c3		 ret	 0
??0CLordSkillComponentODBC@@QAE@XZ ENDP			; CLordSkillComponentODBC::CLordSkillComponentODBC
_TEXT	ENDS
; Function compile flags: /Ogtp
; File C:\IAGOS\server\v18\Source\Source\_Common\lordskill.h
;	COMDAT ??_GCLordSkillComponentExecutable@@UAEPAXI@Z
_TEXT	SEGMENT
___flags$ = 8						; size = 4
??_GCLordSkillComponentExecutable@@UAEPAXI@Z PROC	; CLordSkillComponentExecutable::`scalar deleting destructor', COMDAT
; _this$ = ecx
  00000	55		 push	 ebp
  00001	8b ec		 mov	 ebp, esp

; 68   : 	virtual	~CLordSkillComponentExecutable()	{}

  00003	56		 push	 esi
  00004	8b f1		 mov	 esi, ecx
  00006	c7 06 00 00 00
	00		 mov	 DWORD PTR [esi], OFFSET ??_7CLordSkillComponentExecutable@@6B@
  0000c	e8 00 00 00 00	 call	 ??1CLordSkillComponent@@UAE@XZ ; CLordSkillComponent::~CLordSkillComponent
  00011	f6 45 08 01	 test	 BYTE PTR ___flags$[ebp], 1
  00015	74 0e		 je	 SHORT $LN10@scalar
  00017	68 fc 00 00 00	 push	 252			; 000000fcH
  0001c	56		 push	 esi
  0001d	e8 00 00 00 00	 call	 ??3@YAXPAXI@Z		; operator delete
  00022	83 c4 08	 add	 esp, 8
$LN10@scalar:
  00025	8b c6		 mov	 eax, esi
  00027	5e		 pop	 esi
  00028	5d		 pop	 ebp
  00029	c2 04 00	 ret	 4
??_GCLordSkillComponentExecutable@@UAEPAXI@Z ENDP	; CLordSkillComponentExecutable::`scalar deleting destructor'
_TEXT	ENDS
; Function compile flags: /Ogtp
; File C:\IAGOS\server\v18\Source\Source\_Common\lordskill.h
;	COMDAT ?Execute@CLordSkillComponentExecutable@@UAEXKKPAX@Z
_TEXT	SEGMENT
_idPlayer$ = 8						; size = 4
_idTarget$ = 12						; size = 4
_pParam$ = 16						; size = 4
?Execute@CLordSkillComponentExecutable@@UAEXKKPAX@Z PROC ; CLordSkillComponentExecutable::Execute, COMDAT
; _this$ = ecx

; 72   : 	virtual	void	Execute( u_long idPlayer, u_long idTarget, VOID* pParam )	{	Use();	}

  00000	8b 41 08	 mov	 eax, DWORD PTR [ecx+8]
  00003	89 41 0c	 mov	 DWORD PTR [ecx+12], eax
  00006	c2 0c 00	 ret	 12			; 0000000cH
?Execute@CLordSkillComponentExecutable@@UAEXKKPAX@Z ENDP ; CLordSkillComponentExecutable::Execute
_TEXT	ENDS
; Function compile flags: /Ogtp
; File C:\IAGOS\server\v18\Source\Source\_Common\lordskill.h
;	COMDAT ??1CLordSkillComponentExecutable@@UAE@XZ
_TEXT	SEGMENT
??1CLordSkillComponentExecutable@@UAE@XZ PROC		; CLordSkillComponentExecutable::~CLordSkillComponentExecutable, COMDAT
; _this$ = ecx

; 68   : 	virtual	~CLordSkillComponentExecutable()	{}

  00000	c7 01 00 00 00
	00		 mov	 DWORD PTR [ecx], OFFSET ??_7CLordSkillComponentExecutable@@6B@
  00006	e9 00 00 00 00	 jmp	 ??1CLordSkillComponent@@UAE@XZ ; CLordSkillComponent::~CLordSkillComponent
??1CLordSkillComponentExecutable@@UAE@XZ ENDP		; CLordSkillComponentExecutable::~CLordSkillComponentExecutable
_TEXT	ENDS
; Function compile flags: /Ogtp
; File C:\IAGOS\server\v18\Source\Source\DatabaseServer\lordskillexecutable.cpp
;	COMDAT ?__empty_global_delete@@YAXPAXI@Z
_TEXT	SEGMENT
___formal$ = 8						; size = 4
___formal$ = 12						; size = 4
?__empty_global_delete@@YAXPAXI@Z PROC			; __empty_global_delete, COMDAT

  00000	c2 00 00	 ret	 0
?__empty_global_delete@@YAXPAXI@Z ENDP			; __empty_global_delete
_TEXT	ENDS
; Function compile flags: /Ogtp
; File C:\IAGOS\server\v18\Source\Source\DatabaseServer\lordskillexecutable.cpp
;	COMDAT ?__empty_global_delete@@YAXPAX@Z
_TEXT	SEGMENT
___formal$ = 8						; size = 4
?__empty_global_delete@@YAXPAX@Z PROC			; __empty_global_delete, COMDAT

  00000	c2 00 00	 ret	 0
?__empty_global_delete@@YAXPAX@Z ENDP			; __empty_global_delete
_TEXT	ENDS
END
