; Listing generated by Microsoft (R) Optimizing Compiler Version 19.44.35225.0 

	TITLE	C:\IAGOS\server\v18\Source\Output\DatabaseServer\Release\MyTrace.obj
	.686P
	.XMM
	include listing.inc
	.model	flat

INCLUDELIB LIBCMT
INCLUDELIB OLDNAMES

PUBLIC	?__empty_global_delete@@YAXPAX@Z		; __empty_global_delete
PUBLIC	?__empty_global_delete@@YAXPAXI@Z		; __empty_global_delete
PUBLIC	___local_stdio_printf_options
PUBLIC	??1CMclCritSec@@UAE@XZ				; CMclCritSec::~CMclCritSec
PUBLIC	??_GCMclCritSec@@UAEPAXI@Z			; CMclCritSec::`scalar deleting destructor'
PUBLIC	?TextOutA@CMyTrace@@AAEXPAUHDC__@@HHPBDH@Z	; CMyTrace::TextOutA
PUBLIC	?FindKey@CMyTrace@@AAEHK@Z			; CMyTrace::FindKey
PUBLIC	??0CMyTrace@@QAE@XZ				; CMyTrace::CMyTrace
PUBLIC	??1CMyTrace@@UAE@XZ				; CMyTrace::~CMyTrace
PUBLIC	?Add@CMyTrace@@QAAXKHPBDZZ			; CMyTrace::Add
PUBLIC	?AddLine@CMyTrace@@QAEXD@Z			; CMyTrace::AddLine
PUBLIC	?Paint@CMyTrace@@QAEXPAUHDC__@@@Z		; CMyTrace::Paint
PUBLIC	?GetText@CMyTrace@@QAEXKPAD@Z			; CMyTrace::GetText
PUBLIC	?Key@CMyTrace@@SAKPBD@Z				; CMyTrace::Key
PUBLIC	??_GCMyTrace@@UAEPAXI@Z				; CMyTrace::`scalar deleting destructor'
PUBLIC	?_OptionsStorage@?1??__local_stdio_printf_options@@9@4_KA ; `__local_stdio_printf_options'::`2'::_OptionsStorage
PUBLIC	??_7CMclCritSec@@6B@				; CMclCritSec::`vftable'
PUBLIC	??_R4CMclCritSec@@6B@				; CMclCritSec::`RTTI Complete Object Locator'
PUBLIC	??_R0?AVCMclCritSec@@@8				; CMclCritSec `RTTI Type Descriptor'
PUBLIC	??_R3CMclCritSec@@8				; CMclCritSec::`RTTI Class Hierarchy Descriptor'
PUBLIC	??_R2CMclCritSec@@8				; CMclCritSec::`RTTI Base Class Array'
PUBLIC	??_R1A@?0A@EA@CMclCritSec@@8			; CMclCritSec::`RTTI Base Class Descriptor at (0,-1,0,64)'
PUBLIC	??_7CMyTrace@@6B@				; CMyTrace::`vftable'
PUBLIC	??_C@_06DJIHEMFI@status@			; `string'
PUBLIC	??_C@_0KB@FMFNHDFD@_______________________________@ ; `string'
PUBLIC	?g_MyTrace@@3VCMyTrace@@A			; g_MyTrace
PUBLIC	??_R4CMyTrace@@6B@				; CMyTrace::`RTTI Complete Object Locator'
PUBLIC	??_R0?AVCMyTrace@@@8				; CMyTrace `RTTI Type Descriptor'
PUBLIC	??_R3CMyTrace@@8				; CMyTrace::`RTTI Class Hierarchy Descriptor'
PUBLIC	??_R2CMyTrace@@8				; CMyTrace::`RTTI Base Class Array'
PUBLIC	??_R1A@?0A@EA@CMyTrace@@8			; CMyTrace::`RTTI Base Class Descriptor at (0,-1,0,64)'
EXTRN	??3@YAXPAXI@Z:PROC				; operator delete
EXTRN	_atexit:PROC
EXTRN	__Init_thread_header:PROC
EXTRN	__Init_thread_footer:PROC
EXTRN	_strlwr:PROC
EXTRN	__imp__InitializeCriticalSection@4:PROC
EXTRN	__imp__EnterCriticalSection@4:PROC
EXTRN	__imp__LeaveCriticalSection@4:PROC
EXTRN	__imp__DeleteCriticalSection@4:PROC
EXTRN	__imp__DeleteObject@4:PROC
EXTRN	__imp__SelectObject@8:PROC
EXTRN	__imp__SetBkColor@8:PROC
EXTRN	__imp__SetBkMode@8:PROC
EXTRN	__imp__SetTextColor@8:PROC
EXTRN	__imp__TextOutA@20:PROC
EXTRN	__imp__InvalidateRect@12:PROC
EXTRN	___stdio_common_vsprintf:PROC
EXTRN	??_ECMclCritSec@@UAEPAXI@Z:PROC			; CMclCritSec::`vector deleting destructor'
EXTRN	??_ECMyTrace@@UAEPAXI@Z:PROC			; CMyTrace::`vector deleting destructor'
EXTRN	@__security_check_cookie@4:PROC
EXTRN	_memset:PROC
EXTRN	__Init_thread_epoch:DWORD
EXTRN	??_7type_info@@6B@:QWORD			; type_info::`vftable'
EXTRN	___security_cookie:DWORD
EXTRN	__tls_array:DWORD
EXTRN	__tls_index:DWORD
;	COMDAT ?_OptionsStorage@?1??__local_stdio_printf_options@@9@4_KA
_BSS	SEGMENT
?_OptionsStorage@?1??__local_stdio_printf_options@@9@4_KA DQ 01H DUP (?) ; `__local_stdio_printf_options'::`2'::_OptionsStorage
_BSS	ENDS
;	COMDAT ?uKeyStatusBar@?1??Add@CMyTrace@@QAAXKHPBDZZ@4KA
_BSS	SEGMENT
?uKeyStatusBar@?1??Add@CMyTrace@@QAAXKHPBDZZ@4KA DD 01H DUP (?) ; `CMyTrace::Add'::`2'::uKeyStatusBar
_BSS	ENDS
;	COMDAT ?$TSS0@?1??Add@CMyTrace@@QAAXKHPBDZZ@4HA
_BSS	SEGMENT
?$TSS0@?1??Add@CMyTrace@@QAAXKHPBDZZ@4HA DD 01H DUP (?)	; `CMyTrace::Add'::`2'::$TSS0
_BSS	ENDS
_BSS	SEGMENT
?g_MyTrace@@3VCMyTrace@@A DB 011e8H DUP (?)		; g_MyTrace
_BSS	ENDS
CRT$XCU	SEGMENT
?g_MyTrace$initializer$@@3P6AXXZA DD FLAT:??__Eg_MyTrace@@YAXXZ ; g_MyTrace$initializer$
CRT$XCU	ENDS
;	COMDAT ??_R1A@?0A@EA@CMyTrace@@8
rdata$r	SEGMENT
??_R1A@?0A@EA@CMyTrace@@8 DD FLAT:??_R0?AVCMyTrace@@@8	; CMyTrace::`RTTI Base Class Descriptor at (0,-1,0,64)'
	DD	00H
	DD	00H
	DD	0ffffffffH
	DD	00H
	DD	040H
	DD	FLAT:??_R3CMyTrace@@8
rdata$r	ENDS
;	COMDAT ??_R2CMyTrace@@8
rdata$r	SEGMENT
??_R2CMyTrace@@8 DD FLAT:??_R1A@?0A@EA@CMyTrace@@8	; CMyTrace::`RTTI Base Class Array'
rdata$r	ENDS
;	COMDAT ??_R3CMyTrace@@8
rdata$r	SEGMENT
??_R3CMyTrace@@8 DD 00H					; CMyTrace::`RTTI Class Hierarchy Descriptor'
	DD	00H
	DD	01H
	DD	FLAT:??_R2CMyTrace@@8
rdata$r	ENDS
;	COMDAT ??_R0?AVCMyTrace@@@8
data$rs	SEGMENT
??_R0?AVCMyTrace@@@8 DD FLAT:??_7type_info@@6B@		; CMyTrace `RTTI Type Descriptor'
	DD	00H
	DB	'.?AVCMyTrace@@', 00H
data$rs	ENDS
;	COMDAT ??_R4CMyTrace@@6B@
rdata$r	SEGMENT
??_R4CMyTrace@@6B@ DD 00H				; CMyTrace::`RTTI Complete Object Locator'
	DD	00H
	DD	00H
	DD	FLAT:??_R0?AVCMyTrace@@@8
	DD	FLAT:??_R3CMyTrace@@8
rdata$r	ENDS
;	COMDAT ??_C@_0KB@FMFNHDFD@_______________________________@
CONST	SEGMENT
??_C@_0KB@FMFNHDFD@_______________________________@ DB '_________________'
	DB	'_____________________________________________________________'
	DB	'_____________________________________________________________'
	DB	'_____________________', 00H			; `string'
CONST	ENDS
;	COMDAT ?nYStatusBar@?1??Paint@CMyTrace@@QAEXPAUHDC__@@@Z@4HA
_DATA	SEGMENT
?nYStatusBar@?1??Paint@CMyTrace@@QAEXPAUHDC__@@@Z@4HA DD 0163H ; `CMyTrace::Paint'::`2'::nYStatusBar
_DATA	ENDS
;	COMDAT ??_C@_06DJIHEMFI@status@
CONST	SEGMENT
??_C@_06DJIHEMFI@status@ DB 'status', 00H		; `string'
CONST	ENDS
;	COMDAT ??_7CMyTrace@@6B@
CONST	SEGMENT
??_7CMyTrace@@6B@ DD FLAT:??_R4CMyTrace@@6B@		; CMyTrace::`vftable'
	DD	FLAT:??_ECMyTrace@@UAEPAXI@Z
CONST	ENDS
;	COMDAT ??_R1A@?0A@EA@CMclCritSec@@8
rdata$r	SEGMENT
??_R1A@?0A@EA@CMclCritSec@@8 DD FLAT:??_R0?AVCMclCritSec@@@8 ; CMclCritSec::`RTTI Base Class Descriptor at (0,-1,0,64)'
	DD	00H
	DD	00H
	DD	0ffffffffH
	DD	00H
	DD	040H
	DD	FLAT:??_R3CMclCritSec@@8
rdata$r	ENDS
;	COMDAT ??_R2CMclCritSec@@8
rdata$r	SEGMENT
??_R2CMclCritSec@@8 DD FLAT:??_R1A@?0A@EA@CMclCritSec@@8 ; CMclCritSec::`RTTI Base Class Array'
rdata$r	ENDS
;	COMDAT ??_R3CMclCritSec@@8
rdata$r	SEGMENT
??_R3CMclCritSec@@8 DD 00H				; CMclCritSec::`RTTI Class Hierarchy Descriptor'
	DD	00H
	DD	01H
	DD	FLAT:??_R2CMclCritSec@@8
rdata$r	ENDS
;	COMDAT ??_R0?AVCMclCritSec@@@8
data$rs	SEGMENT
??_R0?AVCMclCritSec@@@8 DD FLAT:??_7type_info@@6B@	; CMclCritSec `RTTI Type Descriptor'
	DD	00H
	DB	'.?AVCMclCritSec@@', 00H
data$rs	ENDS
;	COMDAT ??_R4CMclCritSec@@6B@
rdata$r	SEGMENT
??_R4CMclCritSec@@6B@ DD 00H				; CMclCritSec::`RTTI Complete Object Locator'
	DD	00H
	DD	00H
	DD	FLAT:??_R0?AVCMclCritSec@@@8
	DD	FLAT:??_R3CMclCritSec@@8
rdata$r	ENDS
;	COMDAT ??_7CMclCritSec@@6B@
CONST	SEGMENT
??_7CMclCritSec@@6B@ DD FLAT:??_R4CMclCritSec@@6B@	; CMclCritSec::`vftable'
	DD	FLAT:??_ECMclCritSec@@UAEPAXI@Z
CONST	ENDS
; Function compile flags: /Ogtp
;	COMDAT ??__Fg_MyTrace@@YAXXZ
text$yd	SEGMENT
??__Fg_MyTrace@@YAXXZ PROC				; `dynamic atexit destructor for 'g_MyTrace'', COMDAT
  00000	b9 00 00 00 00	 mov	 ecx, OFFSET ?g_MyTrace@@3VCMyTrace@@A ; g_MyTrace
  00005	e9 00 00 00 00	 jmp	 ??1CMyTrace@@UAE@XZ	; CMyTrace::~CMyTrace
??__Fg_MyTrace@@YAXXZ ENDP				; `dynamic atexit destructor for 'g_MyTrace''
text$yd	ENDS
; Function compile flags: /Ogtp
; File C:\IAGOS\server\v18\Source\Source\_network\misc\src\MyTrace.cpp
;	COMDAT ??__Eg_MyTrace@@YAXXZ
text$di	SEGMENT
??__Eg_MyTrace@@YAXXZ PROC				; `dynamic initializer for 'g_MyTrace'', COMDAT

; 168  : CMyTrace	g_MyTrace;

  00000	b9 00 00 00 00	 mov	 ecx, OFFSET ?g_MyTrace@@3VCMyTrace@@A ; g_MyTrace
  00005	e8 00 00 00 00	 call	 ??0CMyTrace@@QAE@XZ	; CMyTrace::CMyTrace
  0000a	68 00 00 00 00	 push	 OFFSET ??__Fg_MyTrace@@YAXXZ ; `dynamic atexit destructor for 'g_MyTrace''
  0000f	e8 00 00 00 00	 call	 _atexit
  00014	59		 pop	 ecx
  00015	c3		 ret	 0
??__Eg_MyTrace@@YAXXZ ENDP				; `dynamic initializer for 'g_MyTrace''
text$di	ENDS
; Function compile flags: /Ogtp
;	COMDAT ??_GCMyTrace@@UAEPAXI@Z
_TEXT	SEGMENT
___flags$ = 8						; size = 4
??_GCMyTrace@@UAEPAXI@Z PROC				; CMyTrace::`scalar deleting destructor', COMDAT
; _this$ = ecx
  00000	55		 push	 ebp
  00001	8b ec		 mov	 ebp, esp
  00003	56		 push	 esi
  00004	8b f1		 mov	 esi, ecx
  00006	e8 00 00 00 00	 call	 ??1CMyTrace@@UAE@XZ	; CMyTrace::~CMyTrace
  0000b	f6 45 08 01	 test	 BYTE PTR ___flags$[ebp], 1
  0000f	74 0e		 je	 SHORT $LN5@scalar
  00011	68 e8 11 00 00	 push	 4584			; 000011e8H
  00016	56		 push	 esi
  00017	e8 00 00 00 00	 call	 ??3@YAXPAXI@Z		; operator delete
  0001c	83 c4 08	 add	 esp, 8
$LN5@scalar:
  0001f	8b c6		 mov	 eax, esi
  00021	5e		 pop	 esi
  00022	5d		 pop	 ebp
  00023	c2 04 00	 ret	 4
??_GCMyTrace@@UAEPAXI@Z ENDP				; CMyTrace::`scalar deleting destructor'
_TEXT	ENDS
; Function compile flags: /Ogtp
; File C:\IAGOS\server\v18\Source\Source\_network\misc\src\MyTrace.cpp
;	COMDAT ?Key@CMyTrace@@SAKPBD@Z
_TEXT	SEGMENT
_szLwr$ = -260						; size = 256
__$ArrayPad$ = -4					; size = 4
_szKey$ = 8						; size = 4
?Key@CMyTrace@@SAKPBD@Z PROC				; CMyTrace::Key, COMDAT

; 95   : {

  00000	55		 push	 ebp
  00001	8b ec		 mov	 ebp, esp
  00003	81 ec 04 01 00
	00		 sub	 esp, 260		; 00000104H
  00009	a1 00 00 00 00	 mov	 eax, DWORD PTR ___security_cookie
  0000e	33 c5		 xor	 eax, ebp
  00010	89 45 fc	 mov	 DWORD PTR __$ArrayPad$[ebp], eax

; 96   : 	char szLwr[256];
; 97   : 	strcpy( szLwr, szKey );

  00013	8b 4d 08	 mov	 ecx, DWORD PTR _szKey$[ebp]
  00016	8d 95 fc fe ff
	ff		 lea	 edx, DWORD PTR _szLwr$[ebp]
  0001c	2b d1		 sub	 edx, ecx
  0001e	66 90		 npad	 2
$LL6@Key:
  00020	8a 01		 mov	 al, BYTE PTR [ecx]
  00022	8d 49 01	 lea	 ecx, DWORD PTR [ecx+1]
  00025	88 44 0a ff	 mov	 BYTE PTR [edx+ecx-1], al
  00029	84 c0		 test	 al, al
  0002b	75 f3		 jne	 SHORT $LL6@Key

; 98   : 	strlwr( szLwr );

  0002d	8d 85 fc fe ff
	ff		 lea	 eax, DWORD PTR _szLwr$[ebp]
  00033	56		 push	 esi
  00034	50		 push	 eax
  00035	e8 00 00 00 00	 call	 _strlwr

; 99   : 
; 100  : 	u_long uKey		= 0, num;
; 101  : 
; 102  : 	for( int i	= strlen( szLwr ), j = 0; i > 0 && j < 4; j++, i-- )

  0003a	8d 95 fc fe ff
	ff		 lea	 edx, DWORD PTR _szLwr$[ebp]
  00040	83 c4 04	 add	 esp, 4
  00043	33 f6		 xor	 esi, esi
  00045	8d 4a 01	 lea	 ecx, DWORD PTR [edx+1]
$LL14@Key:
  00048	8a 02		 mov	 al, BYTE PTR [edx]
  0004a	42		 inc	 edx
  0004b	84 c0		 test	 al, al
  0004d	75 f9		 jne	 SHORT $LL14@Key
  0004f	2b d1		 sub	 edx, ecx
  00051	33 c0		 xor	 eax, eax
  00053	85 d2		 test	 edx, edx
  00055	7e 20		 jle	 SHORT $LN3@Key

; 98   : 	strlwr( szLwr );

  00057	57		 push	 edi
  00058	8d bc 15 fb fe
	ff ff		 lea	 edi, DWORD PTR _szLwr$[ebp+edx-1]
  0005f	90		 npad	 1
$LL4@Key:

; 99   : 
; 100  : 	u_long uKey		= 0, num;
; 101  : 
; 102  : 	for( int i	= strlen( szLwr ), j = 0; i > 0 && j < 4; j++, i-- )

  00060	83 f8 04	 cmp	 eax, 4
  00063	7d 0f		 jge	 SHORT $LN16@Key

; 103  : 	{
; 104  : 		uKey	= uKey << 8;
; 105  : 		num		= szLwr[i-1];

  00065	0f be 0f	 movsx	 ecx, BYTE PTR [edi]
  00068	4a		 dec	 edx
  00069	c1 e6 08	 shl	 esi, 8
  0006c	40		 inc	 eax

; 106  : 		uKey |= num;

  0006d	0b f1		 or	 esi, ecx
  0006f	4f		 dec	 edi
  00070	85 d2		 test	 edx, edx
  00072	7f ec		 jg	 SHORT $LL4@Key
$LN16@Key:

; 107  : 	}
; 108  : 	return uKey;

  00074	8b c6		 mov	 eax, esi
  00076	5f		 pop	 edi
$LN3@Key:

; 109  : }

  00077	8b 4d fc	 mov	 ecx, DWORD PTR __$ArrayPad$[ebp]
  0007a	33 cd		 xor	 ecx, ebp
  0007c	5e		 pop	 esi
  0007d	e8 00 00 00 00	 call	 @__security_check_cookie@4
  00082	8b e5		 mov	 esp, ebp
  00084	5d		 pop	 ebp
  00085	c3		 ret	 0
?Key@CMyTrace@@SAKPBD@Z ENDP				; CMyTrace::Key
_TEXT	ENDS
; Function compile flags: /Ogtp
; File C:\IAGOS\server\v18\Source\Source\_network\misc\src\MyTrace.cpp
;	COMDAT ?GetText@CMyTrace@@QAEXKPAD@Z
_TEXT	SEGMENT
_uKey$ = 8						; size = 4
_lpszText$ = 12						; size = 4
?GetText@CMyTrace@@QAEXKPAD@Z PROC			; CMyTrace::GetText, COMDAT
; _this$ = ecx

; 158  : {

  00000	55		 push	 ebp
  00001	8b ec		 mov	 ebp, esp
  00003	56		 push	 esi

; 159  : 	int nIndex	= FindKey( uKey );

  00004	ff 75 08	 push	 DWORD PTR _uKey$[ebp]
  00007	8b f1		 mov	 esi, ecx
  00009	e8 00 00 00 00	 call	 ?FindKey@CMyTrace@@AAEHK@Z ; CMyTrace::FindKey

; 160  : 	if( nIndex < 0 ) {

  0000e	85 c0		 test	 eax, eax
  00010	78 1d		 js	 SHORT $LN3@GetText

; 161  : 
; 162  : 	}
; 163  : 	else {
; 164  : 		strcpy( lpszText, m_mts[nIndex].szText );

  00012	8b 55 0c	 mov	 edx, DWORD PTR _lpszText$[ebp]
  00015	69 c0 a8 00 00
	00		 imul	 eax, eax, 168
  0001b	83 c0 0c	 add	 eax, 12			; 0000000cH
  0001e	03 c6		 add	 eax, esi
  00020	2b d0		 sub	 edx, eax
$LL5@GetText:
  00022	8a 08		 mov	 cl, BYTE PTR [eax]
  00024	8d 40 01	 lea	 eax, DWORD PTR [eax+1]
  00027	88 4c 02 ff	 mov	 BYTE PTR [edx+eax-1], cl
  0002b	84 c9		 test	 cl, cl
  0002d	75 f3		 jne	 SHORT $LL5@GetText
$LN3@GetText:
  0002f	5e		 pop	 esi

; 165  : 	}
; 166  : }

  00030	5d		 pop	 ebp
  00031	c2 08 00	 ret	 8
?GetText@CMyTrace@@QAEXKPAD@Z ENDP			; CMyTrace::GetText
_TEXT	ENDS
; Function compile flags: /Ogtp
; File C:\IAGOS\server\v18\Source\Source\_network\misc\src\MyTrace.cpp
; File C:\IAGOS\server\v18\Source\Source\_Network\Mcl\Include\CMclCritSec.h
; File C:\IAGOS\server\v18\Source\Source\_network\misc\src\MyTrace.cpp
; File C:\IAGOS\server\v18\Source\Source\_Network\Mcl\Include\CMclCritSec.h
; File C:\IAGOS\server\v18\Source\Source\_network\misc\src\MyTrace.cpp
; File C:\IAGOS\server\v18\Source\Source\_Network\Mcl\Include\CMclCritSec.h
; File C:\IAGOS\server\v18\Source\Source\_network\misc\src\MyTrace.cpp
;	COMDAT ?Paint@CMyTrace@@QAEXPAUHDC__@@@Z
_TEXT	SEGMENT
_hfontOld$1$ = -8					; size = 4
_i$1$ = -4						; size = 4
_i$1$ = -4						; size = 4
tv526 = -4						; size = 4
tv528 = -4						; size = 4
_hDC$ = 8						; size = 4
?Paint@CMyTrace@@QAEXPAUHDC__@@@Z PROC			; CMyTrace::Paint, COMDAT
; _this$ = ecx

; 112  : {

  00000	55		 push	 ebp
  00001	8b ec		 mov	 ebp, esp
  00003	83 ec 08	 sub	 esp, 8
  00006	53		 push	 ebx

; 113  : 	static int nYStatusBar	= 14 * ( MAX_LOG - 1 ) + 5;
; 114  : 
; 115  : 	HFONT hfontOld	= (HFONT)SelectObject( hDC, m_hfont );

  00007	8b 5d 08	 mov	 ebx, DWORD PTR _hDC$[ebp]
  0000a	56		 push	 esi
  0000b	57		 push	 edi
  0000c	8b f9		 mov	 edi, ecx
  0000e	ff b7 1c 11 00
	00		 push	 DWORD PTR [edi+4380]
  00014	53		 push	 ebx
  00015	ff 15 00 00 00
	00		 call	 DWORD PTR __imp__SelectObject@8

; 116  : 	SetBkColor( hDC, m_cr );

  0001b	ff b7 24 11 00
	00		 push	 DWORD PTR [edi+4388]
  00021	89 45 f8	 mov	 DWORD PTR _hfontOld$1$[ebp], eax
  00024	53		 push	 ebx
  00025	ff 15 00 00 00
	00		 call	 DWORD PTR __imp__SetBkColor@8
; File C:\IAGOS\server\v18\Source\Source\_Network\Mcl\Include\CMclCritSec.h

; 33   : 		::EnterCriticalSection( &m_CritSec );

  0002b	8d 87 d0 11 00
	00		 lea	 eax, DWORD PTR [edi+4560]
; File C:\IAGOS\server\v18\Source\Source\_network\misc\src\MyTrace.cpp

; 118  : 	int cy	= 0;

  00031	33 f6		 xor	 esi, esi
; File C:\IAGOS\server\v18\Source\Source\_Network\Mcl\Include\CMclCritSec.h

; 33   : 		::EnterCriticalSection( &m_CritSec );

  00033	50		 push	 eax
  00034	ff 15 00 00 00
	00		 call	 DWORD PTR __imp__EnterCriticalSection@4
; File C:\IAGOS\server\v18\Source\Source\_network\misc\src\MyTrace.cpp

; 122  : 	if( m_uHead <= m_uTail ) {

  0003a	0f b7 87 16 11
	00 00		 movzx	 eax, WORD PTR [edi+4374]
  00041	0f b7 8f 18 11
	00 00		 movzx	 ecx, WORD PTR [edi+4376]
  00048	8b d8		 mov	 ebx, eax
  0004a	89 5d fc	 mov	 DWORD PTR _i$1$[ebp], ebx
  0004d	66 3b c1	 cmp	 ax, cx
  00050	77 44		 ja	 SHORT $LN11@Paint

; 123  : 		for( int i =m_uHead; i < m_uTail; i++, cy += 14 ) {

  00052	3b d9		 cmp	 ebx, ecx
  00054	0f 83 b8 00 00
	00		 jae	 $LN9@Paint
  0005a	69 cb a8 00 00
	00		 imul	 ecx, ebx, 168
  00060	83 c1 0c	 add	 ecx, 12			; 0000000cH
  00063	03 cf		 add	 ecx, edi
  00065	89 4d fc	 mov	 DWORD PTR tv528[ebp], ecx
$LL4@Paint:

; 124  : 			CMyTrace::TextOut( hDC, 4, cy, m_mts[i].szText, m_mts[i].fInverse );

  00068	ff 71 fc	 push	 DWORD PTR [ecx-4]
  0006b	51		 push	 ecx
  0006c	56		 push	 esi
  0006d	6a 04		 push	 4
  0006f	ff 75 08	 push	 DWORD PTR _hDC$[ebp]
  00072	8b cf		 mov	 ecx, edi
  00074	e8 00 00 00 00	 call	 ?TextOutA@CMyTrace@@AAEXPAUHDC__@@HHPBDH@Z ; CMyTrace::TextOutA
  00079	8b 4d fc	 mov	 ecx, DWORD PTR tv528[ebp]
  0007c	43		 inc	 ebx
  0007d	0f b7 87 18 11
	00 00		 movzx	 eax, WORD PTR [edi+4376]
  00084	81 c1 a8 00 00
	00		 add	 ecx, 168		; 000000a8H
  0008a	83 c6 0e	 add	 esi, 14			; 0000000eH
  0008d	89 4d fc	 mov	 DWORD PTR tv528[ebp], ecx
  00090	3b d8		 cmp	 ebx, eax
  00092	7c d4		 jl	 SHORT $LL4@Paint

; 125  : 		}
; 126  : 	}

  00094	eb 7c		 jmp	 SHORT $LN9@Paint
$LN11@Paint:

; 127  : 	else
; 128  : 	{
; 129  : 		for( int i = m_uHead; i < MAX_LOG; i++, cy += 14 ) {

  00096	83 fb 1a	 cmp	 ebx, 26			; 0000001aH
  00099	73 36		 jae	 SHORT $LN6@Paint
  0009b	69 db a8 00 00
	00		 imul	 ebx, ebx, 168
  000a1	b8 1a 00 00 00	 mov	 eax, 26			; 0000001aH
  000a6	83 c3 0c	 add	 ebx, 12			; 0000000cH
  000a9	03 df		 add	 ebx, edi
  000ab	2b 45 fc	 sub	 eax, DWORD PTR _i$1$[ebp]
  000ae	89 45 fc	 mov	 DWORD PTR tv526[ebp], eax
$LL7@Paint:

; 130  : 			CMyTrace::TextOut( hDC, 4, cy, m_mts[i].szText, m_mts[i].fInverse );

  000b1	ff 73 fc	 push	 DWORD PTR [ebx-4]
  000b4	8b cf		 mov	 ecx, edi
  000b6	53		 push	 ebx
  000b7	56		 push	 esi
  000b8	6a 04		 push	 4
  000ba	ff 75 08	 push	 DWORD PTR _hDC$[ebp]
  000bd	e8 00 00 00 00	 call	 ?TextOutA@CMyTrace@@AAEXPAUHDC__@@HHPBDH@Z ; CMyTrace::TextOutA
  000c2	81 c3 a8 00 00
	00		 add	 ebx, 168		; 000000a8H
  000c8	83 c6 0e	 add	 esi, 14			; 0000000eH
  000cb	83 6d fc 01	 sub	 DWORD PTR tv526[ebp], 1
  000cf	75 e0		 jne	 SHORT $LL7@Paint
$LN6@Paint:

; 131  : 		}
; 132  : 		for( int i = 0; i < m_uTail; i++, cy += 14 ) {

  000d1	33 c0		 xor	 eax, eax
  000d3	c7 45 fc 00 00
	00 00		 mov	 DWORD PTR _i$1$[ebp], 0
  000da	66 3b 87 18 11
	00 00		 cmp	 ax, WORD PTR [edi+4376]
  000e1	73 2f		 jae	 SHORT $LN9@Paint
  000e3	8d 5f 0c	 lea	 ebx, DWORD PTR [edi+12]
$LL10@Paint:

; 133  : 			CMyTrace::TextOut( hDC, 4, cy, m_mts[i].szText, m_mts[i].fInverse );

  000e6	ff 73 fc	 push	 DWORD PTR [ebx-4]
  000e9	8b cf		 mov	 ecx, edi
  000eb	53		 push	 ebx
  000ec	56		 push	 esi
  000ed	6a 04		 push	 4
  000ef	ff 75 08	 push	 DWORD PTR _hDC$[ebp]
  000f2	e8 00 00 00 00	 call	 ?TextOutA@CMyTrace@@AAEXPAUHDC__@@HHPBDH@Z ; CMyTrace::TextOutA
  000f7	8b 4d fc	 mov	 ecx, DWORD PTR _i$1$[ebp]
  000fa	81 c3 a8 00 00
	00		 add	 ebx, 168		; 000000a8H
  00100	0f b7 87 18 11
	00 00		 movzx	 eax, WORD PTR [edi+4376]
  00107	41		 inc	 ecx
  00108	83 c6 0e	 add	 esi, 14			; 0000000eH
  0010b	89 4d fc	 mov	 DWORD PTR _i$1$[ebp], ecx
  0010e	3b c8		 cmp	 ecx, eax
  00110	7c d4		 jl	 SHORT $LL10@Paint
$LN9@Paint:

; 134  : 		}
; 135  : 	}
; 136  : 
; 137  : 	if( m_szStatusBar[0] != '\0' )

  00112	80 bf 2c 11 00
	00 00		 cmp	 BYTE PTR [edi+4396], 0
  00119	8d b7 2c 11 00
	00		 lea	 esi, DWORD PTR [edi+4396]
  0011f	8b 5d 08	 mov	 ebx, DWORD PTR _hDC$[ebp]
  00122	74 2d		 je	 SHORT $LN13@Paint

; 138  : 	{
; 139  : 		CMyTrace::TextOut( hDC, 0, nYStatusBar-14, "________________________________________________________________________________________________________________________________________________________________", FALSE );

  00124	a1 00 00 00 00	 mov	 eax, DWORD PTR ?nYStatusBar@?1??Paint@CMyTrace@@QAEXPAUHDC__@@@Z@4HA
  00129	8b cf		 mov	 ecx, edi
  0012b	6a 00		 push	 0
  0012d	68 00 00 00 00	 push	 OFFSET ??_C@_0KB@FMFNHDFD@_______________________________@
  00132	83 c0 f2	 add	 eax, -14		; fffffff2H
  00135	50		 push	 eax
  00136	6a 00		 push	 0
  00138	53		 push	 ebx
  00139	e8 00 00 00 00	 call	 ?TextOutA@CMyTrace@@AAEXPAUHDC__@@HHPBDH@Z ; CMyTrace::TextOutA

; 140  : 		CMyTrace::TextOut( hDC, 4, nYStatusBar, m_szStatusBar, FALSE );

  0013e	6a 00		 push	 0
  00140	56		 push	 esi
  00141	ff 35 00 00 00
	00		 push	 DWORD PTR ?nYStatusBar@?1??Paint@CMyTrace@@QAEXPAUHDC__@@@Z@4HA
  00147	8b cf		 mov	 ecx, edi
  00149	6a 04		 push	 4
  0014b	53		 push	 ebx
  0014c	e8 00 00 00 00	 call	 ?TextOutA@CMyTrace@@AAEXPAUHDC__@@HHPBDH@Z ; CMyTrace::TextOutA
$LN13@Paint:
; File C:\IAGOS\server\v18\Source\Source\_Network\Mcl\Include\CMclCritSec.h

; 39   : 		::LeaveCriticalSection( &m_CritSec );

  00151	8d 87 d0 11 00
	00		 lea	 eax, DWORD PTR [edi+4560]
  00157	50		 push	 eax
  00158	ff 15 00 00 00
	00		 call	 DWORD PTR __imp__LeaveCriticalSection@4
; File C:\IAGOS\server\v18\Source\Source\_network\misc\src\MyTrace.cpp

; 145  : 	SelectObject( hDC, hfontOld );

  0015e	ff 75 f8	 push	 DWORD PTR _hfontOld$1$[ebp]
  00161	53		 push	 ebx
  00162	ff 15 00 00 00
	00		 call	 DWORD PTR __imp__SelectObject@8
  00168	5f		 pop	 edi
  00169	5e		 pop	 esi
  0016a	5b		 pop	 ebx

; 146  : }

  0016b	8b e5		 mov	 esp, ebp
  0016d	5d		 pop	 ebp
  0016e	c2 04 00	 ret	 4
?Paint@CMyTrace@@QAEXPAUHDC__@@@Z ENDP			; CMyTrace::Paint
_TEXT	ENDS
; Function compile flags: /Ogtp
; File C:\IAGOS\server\v18\Source\Source\_network\misc\src\MyTrace.cpp
;	COMDAT ?AddLine@CMyTrace@@QAEXD@Z
_TEXT	SEGMENT
_szLine$ = -164						; size = 160
__$ArrayPad$ = -4					; size = 4
_ch$ = 8						; size = 1
?AddLine@CMyTrace@@QAEXD@Z PROC				; CMyTrace::AddLine, COMDAT
; _this$ = ecx

; 87   : {

  00000	55		 push	 ebp
  00001	8b ec		 mov	 ebp, esp
  00003	81 ec a4 00 00
	00		 sub	 esp, 164		; 000000a4H
  00009	a1 00 00 00 00	 mov	 eax, DWORD PTR ___security_cookie
  0000e	33 c5		 xor	 eax, ebp
  00010	89 45 fc	 mov	 DWORD PTR __$ArrayPad$[ebp], eax

; 88   : 	char szLine[160];
; 89   : 	memset( szLine, ch, 159 );

  00013	0f be 45 08	 movsx	 eax, BYTE PTR _ch$[ebp]
  00017	56		 push	 esi
  00018	68 9f 00 00 00	 push	 159			; 0000009fH
  0001d	50		 push	 eax
  0001e	8d 85 5c ff ff
	ff		 lea	 eax, DWORD PTR _szLine$[ebp]
  00024	8b f1		 mov	 esi, ecx
  00026	50		 push	 eax
  00027	e8 00 00 00 00	 call	 _memset

; 90   : 	szLine[159]		= '\0';
; 91   : 	Add( 0, FALSE, szLine );

  0002c	8d 85 5c ff ff
	ff		 lea	 eax, DWORD PTR _szLine$[ebp]
  00032	c6 45 fb 00	 mov	 BYTE PTR _szLine$[ebp+159], 0
  00036	50		 push	 eax
  00037	6a 00		 push	 0
  00039	6a 00		 push	 0
  0003b	56		 push	 esi
  0003c	e8 00 00 00 00	 call	 ?Add@CMyTrace@@QAAXKHPBDZZ ; CMyTrace::Add

; 92   : }

  00041	8b 4d fc	 mov	 ecx, DWORD PTR __$ArrayPad$[ebp]
  00044	83 c4 1c	 add	 esp, 28			; 0000001cH
  00047	33 cd		 xor	 ecx, ebp
  00049	5e		 pop	 esi
  0004a	e8 00 00 00 00	 call	 @__security_check_cookie@4
  0004f	8b e5		 mov	 esp, ebp
  00051	5d		 pop	 ebp
  00052	c2 04 00	 ret	 4
?AddLine@CMyTrace@@QAEXD@Z ENDP				; CMyTrace::AddLine
_TEXT	ENDS
; Function compile flags: /Ogtp
; File C:\IAGOS\server\v18\Source\Source\_network\misc\src\MyTrace.cpp
; File C:\Program Files (x86)\Windows Kits\10\Include\10.0.26100.0\ucrt\stdio.h
; File C:\IAGOS\server\v18\Source\Source\_network\misc\src\MyTrace.cpp
; File C:\IAGOS\server\v18\Source\Source\_Network\Mcl\Include\CMclCritSec.h
; File C:\IAGOS\server\v18\Source\Source\_network\misc\src\MyTrace.cpp
; File C:\IAGOS\server\v18\Source\Source\_Network\Mcl\Include\CMclCritSec.h
; File C:\IAGOS\server\v18\Source\Source\_network\misc\src\MyTrace.cpp
;	COMDAT ?Add@CMyTrace@@QAAXKHPBDZZ
_TEXT	SEGMENT
_szBuffer$ = -516					; size = 512
__$ArrayPad$ = -4					; size = 4
_this$ = 8						; size = 4
_uKey$ = 12						; size = 4
_fInverse$ = 16						; size = 4
_lpszFormat$ = 20					; size = 4
?Add@CMyTrace@@QAAXKHPBDZZ PROC				; CMyTrace::Add, COMDAT

; 40   : {

  00000	55		 push	 ebp
  00001	8b ec		 mov	 ebp, esp
  00003	81 ec 04 02 00
	00		 sub	 esp, 516		; 00000204H
  00009	a1 00 00 00 00	 mov	 eax, DWORD PTR ___security_cookie
  0000e	33 c5		 xor	 eax, ebp
  00010	89 45 fc	 mov	 DWORD PTR __$ArrayPad$[ebp], eax

; 41   : 	static u_long uKeyStatusBar		= CMyTrace::Key( "status" );

  00013	64 a1 00 00 00
	00		 mov	 eax, DWORD PTR fs:__tls_array
  00019	8b 0d 00 00 00
	00		 mov	 ecx, DWORD PTR __tls_index
  0001f	53		 push	 ebx
  00020	56		 push	 esi
  00021	8b 75 08	 mov	 esi, DWORD PTR _this$[ebp]
  00024	8b 0c 88	 mov	 ecx, DWORD PTR [eax+ecx*4]
  00027	a1 00 00 00 00	 mov	 eax, DWORD PTR ?$TSS0@?1??Add@CMyTrace@@QAAXKHPBDZZ@4HA
  0002c	57		 push	 edi
  0002d	3b 81 00 00 00
	00		 cmp	 eax, DWORD PTR __Init_thread_epoch[ecx]
  00033	0f 8f a2 01 00
	00		 jg	 $LN45@Add
$LN2@Add:

; 42   : 
; 43   : 	va_list args;
; 44   : 	va_start( args, lpszFormat );
; 45   : 	int nBuf;
; 46   : 	TCHAR szBuffer[512]	= { 0,};

  00039	68 00 02 00 00	 push	 512			; 00000200H
  0003e	8d 85 fc fd ff
	ff		 lea	 eax, DWORD PTR _szBuffer$[ebp]
  00044	6a 00		 push	 0
  00046	50		 push	 eax
  00047	e8 00 00 00 00	 call	 _memset
  0004c	83 c4 0c	 add	 esp, 12			; 0000000cH
; File C:\Program Files (x86)\Windows Kits\10\Include\10.0.26100.0\ucrt\stdio.h

; 1392 :         int const _Result = __stdio_common_vsprintf(

  0004f	8d 45 18	 lea	 eax, DWORD PTR _lpszFormat$[ebp+4]
  00052	50		 push	 eax
  00053	6a 00		 push	 0
  00055	ff 75 14	 push	 DWORD PTR _lpszFormat$[ebp]
  00058	8d 85 fc fd ff
	ff		 lea	 eax, DWORD PTR _szBuffer$[ebp]
  0005e	68 00 02 00 00	 push	 512			; 00000200H
  00063	50		 push	 eax
  00064	e8 00 00 00 00	 call	 ___local_stdio_printf_options
  00069	8b 08		 mov	 ecx, DWORD PTR [eax]
  0006b	ff 70 04	 push	 DWORD PTR [eax+4]
  0006e	83 c9 01	 or	 ecx, 1
  00071	51		 push	 ecx
  00072	e8 00 00 00 00	 call	 ___stdio_common_vsprintf
  00077	83 c4 1c	 add	 esp, 28			; 0000001cH
; File C:\IAGOS\server\v18\Source\Source\_network\misc\src\MyTrace.cpp

; 50   : 	if( fInverse )

  0007a	83 7d 10 00	 cmp	 DWORD PTR _fInverse$[ebp], 0
  0007e	74 3b		 je	 SHORT $LN3@Add

; 51   : 	{
; 52   : 		int cbString	= strlen( szBuffer );

  00080	8d 8d fc fd ff
	ff		 lea	 ecx, DWORD PTR _szBuffer$[ebp]
  00086	8d 51 01	 lea	 edx, DWORD PTR [ecx+1]
  00089	0f 1f 80 00 00
	00 00		 npad	 7
$LL34@Add:
  00090	8a 01		 mov	 al, BYTE PTR [ecx]
  00092	41		 inc	 ecx
  00093	84 c0		 test	 al, al
  00095	75 f9		 jne	 SHORT $LL34@Add
  00097	2b ca		 sub	 ecx, edx

; 53   : 		memset( &szBuffer[cbString], 0x20, 160 - cbString );

  00099	b8 a0 00 00 00	 mov	 eax, 160		; 000000a0H
  0009e	2b c1		 sub	 eax, ecx
  000a0	50		 push	 eax
  000a1	8d 85 fc fd ff
	ff		 lea	 eax, DWORD PTR _szBuffer$[ebp]
  000a7	03 c1		 add	 eax, ecx
  000a9	6a 20		 push	 32			; 00000020H
  000ab	50		 push	 eax
  000ac	e8 00 00 00 00	 call	 _memset
  000b1	83 c4 0c	 add	 esp, 12			; 0000000cH

; 54   : 		szBuffer[159]	= '\0';

  000b4	c6 85 9b fe ff
	ff 00		 mov	 BYTE PTR _szBuffer$[ebp+159], 0
$LN3@Add:
; File C:\IAGOS\server\v18\Source\Source\_Network\Mcl\Include\CMclCritSec.h

; 33   : 		::EnterCriticalSection( &m_CritSec );

  000bb	8d 9e d0 11 00
	00		 lea	 ebx, DWORD PTR [esi+4560]
  000c1	53		 push	 ebx
  000c2	ff 15 00 00 00
	00		 call	 DWORD PTR __imp__EnterCriticalSection@4
; File C:\IAGOS\server\v18\Source\Source\_network\misc\src\MyTrace.cpp

; 60   : 	if( uKey == uKeyStatusBar ) {

  000c8	8b 7d 0c	 mov	 edi, DWORD PTR _uKey$[ebp]
  000cb	3b 3d 00 00 00
	00		 cmp	 edi, DWORD PTR ?uKeyStatusBar@?1??Add@CMyTrace@@QAAXKHPBDZZ@4KA
  000d1	75 22		 jne	 SHORT $LN4@Add

; 61   : 		strcpy( m_szStatusBar, szBuffer );

  000d3	8d 8d fc fd ff
	ff		 lea	 ecx, DWORD PTR _szBuffer$[ebp]
  000d9	8b d6		 mov	 edx, esi
  000db	8b c1		 mov	 eax, ecx
  000dd	2b d0		 sub	 edx, eax
  000df	90		 npad	 1
$LL13@Add:
  000e0	8a 01		 mov	 al, BYTE PTR [ecx]
  000e2	8d 49 01	 lea	 ecx, DWORD PTR [ecx+1]
  000e5	88 84 0a 2b 11
	00 00		 mov	 BYTE PTR [edx+ecx+4395], al
  000ec	84 c0		 test	 al, al
  000ee	75 f0		 jne	 SHORT $LL13@Add

; 62   : 	}

  000f0	e9 be 00 00 00	 jmp	 $LN9@Add
$LN4@Add:

; 63   : 	else {
; 64   : 		if( uKey == 0 || ( nIndex = FindKey( uKey ) ) < 0 ) {

  000f5	85 ff		 test	 edi, edi
  000f7	74 39		 je	 SHORT $LN8@Add
  000f9	57		 push	 edi
  000fa	8b ce		 mov	 ecx, esi
  000fc	e8 00 00 00 00	 call	 ?FindKey@CMyTrace@@AAEHK@Z ; CMyTrace::FindKey
  00101	85 c0		 test	 eax, eax
  00103	78 2d		 js	 SHORT $LN8@Add

; 73   : 			}
; 74   : 		}
; 75   : 		else {
; 76   : 			m_mts[nIndex].fInverse	= fInverse;

  00105	69 d0 a8 00 00
	00		 imul	 edx, eax, 168

; 77   : 			strcpy( m_mts[nIndex].szText, szBuffer );

  0010b	8d 8d fc fd ff
	ff		 lea	 ecx, DWORD PTR _szBuffer$[ebp]
  00111	8b 45 10	 mov	 eax, DWORD PTR _fInverse$[ebp]
  00114	03 d6		 add	 edx, esi
  00116	89 42 08	 mov	 DWORD PTR [edx+8], eax
  00119	8b c1		 mov	 eax, ecx
  0011b	2b d0		 sub	 edx, eax
  0011d	0f 1f 00	 npad	 3
$LL15@Add:
  00120	8a 01		 mov	 al, BYTE PTR [ecx]
  00122	8d 49 01	 lea	 ecx, DWORD PTR [ecx+1]
  00125	88 44 0a 0b	 mov	 BYTE PTR [edx+ecx+11], al
  00129	84 c0		 test	 al, al
  0012b	75 f3		 jne	 SHORT $LL15@Add
  0012d	e9 81 00 00 00	 jmp	 $LN9@Add
$LN8@Add:

; 65   : 			m_mts[m_uTail].uKey		= uKey;

  00132	0f b7 86 18 11
	00 00		 movzx	 eax, WORD PTR [esi+4376]

; 66   : 			m_mts[m_uTail].fInverse		= fInverse;

  00139	8b 4d 10	 mov	 ecx, DWORD PTR _fInverse$[ebp]
  0013c	69 c0 a8 00 00
	00		 imul	 eax, eax, 168
  00142	89 7c 30 04	 mov	 DWORD PTR [eax+esi+4], edi
  00146	0f b7 86 18 11
	00 00		 movzx	 eax, WORD PTR [esi+4376]
  0014d	69 c0 a8 00 00
	00		 imul	 eax, eax, 168
  00153	89 4c 30 08	 mov	 DWORD PTR [eax+esi+8], ecx

; 67   : 
; 68   : 			strcpy( m_mts[m_uTail].szText, szBuffer );

  00157	8d 8d fc fd ff
	ff		 lea	 ecx, DWORD PTR _szBuffer$[ebp]
  0015d	0f b7 86 18 11
	00 00		 movzx	 eax, WORD PTR [esi+4376]
  00164	69 d0 a8 00 00
	00		 imul	 edx, eax, 168
  0016a	83 c2 0c	 add	 edx, 12			; 0000000cH
  0016d	03 d6		 add	 edx, esi
  0016f	90		 npad	 1
$LL14@Add:
  00170	8a 01		 mov	 al, BYTE PTR [ecx]
  00172	8d 49 01	 lea	 ecx, DWORD PTR [ecx+1]
  00175	88 02		 mov	 BYTE PTR [edx], al
  00177	8d 52 01	 lea	 edx, DWORD PTR [edx+1]
  0017a	84 c0		 test	 al, al
  0017c	75 f2		 jne	 SHORT $LL14@Add

; 69   : 
; 70   : 			m_uTail		= ( m_uTail + 1 ) % MAX_LOG;

  0017e	0f b7 86 18 11
	00 00		 movzx	 eax, WORD PTR [esi+4376]
  00185	33 d2		 xor	 edx, edx
  00187	40		 inc	 eax

; 71   : 			if( m_uTail == m_uHead ) {

  00188	0f b7 8e 16 11
	00 00		 movzx	 ecx, WORD PTR [esi+4374]
  0018f	bf 1a 00 00 00	 mov	 edi, 26			; 0000001aH
  00194	f7 f7		 div	 edi
  00196	0f b7 c2	 movzx	 eax, dx
  00199	66 89 86 18 11
	00 00		 mov	 WORD PTR [esi+4376], ax
  001a0	66 3b c1	 cmp	 ax, cx
  001a3	75 0e		 jne	 SHORT $LN9@Add

; 72   : 				m_uHead		= ( m_uHead + 1 ) % MAX_LOG;

  001a5	8d 41 01	 lea	 eax, DWORD PTR [ecx+1]
  001a8	33 d2		 xor	 edx, edx
  001aa	f7 f7		 div	 edi
  001ac	66 89 96 16 11
	00 00		 mov	 WORD PTR [esi+4374], dx
$LN9@Add:
; File C:\IAGOS\server\v18\Source\Source\_Network\Mcl\Include\CMclCritSec.h

; 39   : 		::LeaveCriticalSection( &m_CritSec );

  001b3	53		 push	 ebx
  001b4	ff 15 00 00 00
	00		 call	 DWORD PTR __imp__LeaveCriticalSection@4
; File C:\IAGOS\server\v18\Source\Source\_network\misc\src\MyTrace.cpp

; 83   : 	InvalidateRect( m_hWnd, NULL, TRUE );

  001ba	6a 01		 push	 1
  001bc	6a 00		 push	 0
  001be	ff b6 20 11 00
	00		 push	 DWORD PTR [esi+4384]
  001c4	ff 15 00 00 00
	00		 call	 DWORD PTR __imp__InvalidateRect@12

; 84   : }

  001ca	8b 4d fc	 mov	 ecx, DWORD PTR __$ArrayPad$[ebp]
  001cd	5f		 pop	 edi
  001ce	5e		 pop	 esi
  001cf	33 cd		 xor	 ecx, ebp
  001d1	5b		 pop	 ebx
  001d2	e8 00 00 00 00	 call	 @__security_check_cookie@4
  001d7	8b e5		 mov	 esp, ebp
  001d9	5d		 pop	 ebp
  001da	c3		 ret	 0
$LN45@Add:

; 41   : 	static u_long uKeyStatusBar		= CMyTrace::Key( "status" );

  001db	68 00 00 00 00	 push	 OFFSET ?$TSS0@?1??Add@CMyTrace@@QAAXKHPBDZZ@4HA
  001e0	e8 00 00 00 00	 call	 __Init_thread_header
  001e5	83 c4 04	 add	 esp, 4
  001e8	83 3d 00 00 00
	00 ff		 cmp	 DWORD PTR ?$TSS0@?1??Add@CMyTrace@@QAAXKHPBDZZ@4HA, -1
  001ef	0f 85 44 fe ff
	ff		 jne	 $LN2@Add
  001f5	68 00 00 00 00	 push	 OFFSET ??_C@_06DJIHEMFI@status@
  001fa	e8 00 00 00 00	 call	 ?Key@CMyTrace@@SAKPBD@Z	; CMyTrace::Key
  001ff	68 00 00 00 00	 push	 OFFSET ?$TSS0@?1??Add@CMyTrace@@QAAXKHPBDZZ@4HA
  00204	a3 00 00 00 00	 mov	 DWORD PTR ?uKeyStatusBar@?1??Add@CMyTrace@@QAAXKHPBDZZ@4KA, eax
  00209	e8 00 00 00 00	 call	 __Init_thread_footer
  0020e	83 c4 08	 add	 esp, 8
  00211	e9 23 fe ff ff	 jmp	 $LN2@Add
?Add@CMyTrace@@QAAXKHPBDZZ ENDP				; CMyTrace::Add
_TEXT	ENDS
; Function compile flags: /Ogtp
; File C:\IAGOS\server\v18\Source\Source\_network\misc\src\MyTrace.cpp
; File C:\IAGOS\server\v18\Source\Source\_Network\Mcl\Include\CMclCritSec.h
; File C:\IAGOS\server\v18\Source\Source\_network\misc\src\MyTrace.cpp
;	COMDAT ??1CMyTrace@@UAE@XZ
_TEXT	SEGMENT
??1CMyTrace@@UAE@XZ PROC				; CMyTrace::~CMyTrace, COMDAT
; _this$ = ecx

; 12   : {

  00000	56		 push	 esi
  00001	8b f1		 mov	 esi, ecx

; 13   : 	if( m_hfont )

  00003	8b 86 1c 11 00
	00		 mov	 eax, DWORD PTR [esi+4380]
  00009	c7 06 00 00 00
	00		 mov	 DWORD PTR [esi], OFFSET ??_7CMyTrace@@6B@
  0000f	85 c0		 test	 eax, eax
  00011	74 07		 je	 SHORT $LN2@CMyTrace

; 14   : 		::DeleteObject( m_hfont );

  00013	50		 push	 eax
  00014	ff 15 00 00 00
	00		 call	 DWORD PTR __imp__DeleteObject@4
$LN2@CMyTrace:
; File C:\IAGOS\server\v18\Source\Source\_Network\Mcl\Include\CMclCritSec.h

; 27   : 		::DeleteCriticalSection( &m_CritSec );

  0001a	8d 86 d0 11 00
	00		 lea	 eax, DWORD PTR [esi+4560]
  00020	c7 86 cc 11 00
	00 00 00 00 00	 mov	 DWORD PTR [esi+4556], OFFSET ??_7CMclCritSec@@6B@
  0002a	50		 push	 eax
  0002b	ff 15 00 00 00
	00		 call	 DWORD PTR __imp__DeleteCriticalSection@4
  00031	5e		 pop	 esi
; File C:\IAGOS\server\v18\Source\Source\_network\misc\src\MyTrace.cpp

; 15   : }

  00032	c3		 ret	 0
??1CMyTrace@@UAE@XZ ENDP				; CMyTrace::~CMyTrace
_TEXT	ENDS
; Function compile flags: /Ogtp
; File C:\IAGOS\server\v18\Source\Source\_network\misc\src\MyTrace.cpp
; File C:\IAGOS\server\v18\Source\Source\_Network\Mcl\Include\CMclCritSec.h
; File C:\IAGOS\server\v18\Source\Source\_network\misc\src\MyTrace.cpp
; File C:\IAGOS\server\v18\Source\Source\_Network\Mcl\Include\CMclCritSec.h
; File C:\IAGOS\server\v18\Source\Source\_network\misc\src\MyTrace.cpp
;	COMDAT ??0CMyTrace@@QAE@XZ
_TEXT	SEGMENT
_this$ = -4						; size = 4
??0CMyTrace@@QAE@XZ PROC				; CMyTrace::CMyTrace, COMDAT
; _this$ = ecx

; 5    : {

  00000	55		 push	 ebp
  00001	8b ec		 mov	 ebp, esp
  00003	51		 push	 ecx
  00004	56		 push	 esi
  00005	8b f1		 mov	 esi, ecx
  00007	89 75 fc	 mov	 DWORD PTR _this$[ebp], esi
; File C:\IAGOS\server\v18\Source\Source\_Network\Mcl\Include\CMclCritSec.h

; 21   : 		::InitializeCriticalSection( &m_CritSec );

  0000a	8d 86 d0 11 00
	00		 lea	 eax, DWORD PTR [esi+4560]
; File C:\IAGOS\server\v18\Source\Source\_network\misc\src\MyTrace.cpp

; 5    : {

  00010	c7 06 00 00 00
	00		 mov	 DWORD PTR [esi], OFFSET ??_7CMyTrace@@6B@
; File C:\IAGOS\server\v18\Source\Source\_Network\Mcl\Include\CMclCritSec.h

; 21   : 		::InitializeCriticalSection( &m_CritSec );

  00016	50		 push	 eax
  00017	c7 86 cc 11 00
	00 00 00 00 00	 mov	 DWORD PTR [esi+4556], OFFSET ??_7CMclCritSec@@6B@
  00021	ff 15 00 00 00
	00		 call	 DWORD PTR __imp__InitializeCriticalSection@4
; File C:\IAGOS\server\v18\Source\Source\_network\misc\src\MyTrace.cpp

; 7    : 	m_uHead		= m_uTail	= 0;

  00027	33 c0		 xor	 eax, eax
  00029	c7 86 1c 11 00
	00 00 00 00 00	 mov	 DWORD PTR [esi+4380], 0

; 8    : 	memset( m_szStatusBar, 0, sizeof(m_szStatusBar) );

  00033	68 a0 00 00 00	 push	 160			; 000000a0H
  00038	50		 push	 eax
  00039	89 86 16 11 00
	00		 mov	 DWORD PTR [esi+4374], eax
  0003f	8d 86 2c 11 00
	00		 lea	 eax, DWORD PTR [esi+4396]
  00045	50		 push	 eax
  00046	e8 00 00 00 00	 call	 _memset
  0004b	83 c4 0c	 add	 esp, 12			; 0000000cH

; 9    : }

  0004e	8b c6		 mov	 eax, esi
  00050	5e		 pop	 esi
  00051	8b e5		 mov	 esp, ebp
  00053	5d		 pop	 ebp
  00054	c3		 ret	 0
??0CMyTrace@@QAE@XZ ENDP				; CMyTrace::CMyTrace
_TEXT	ENDS
; Function compile flags: /Ogtp
; File C:\IAGOS\server\v18\Source\Source\_network\misc\src\MyTrace.cpp
;	COMDAT ?FindKey@CMyTrace@@AAEHK@Z
_TEXT	SEGMENT
_uKey$ = 8						; size = 4
?FindKey@CMyTrace@@AAEHK@Z PROC				; CMyTrace::FindKey, COMDAT
; _this$ = ecx

; 18   : {

  00000	55		 push	 ebp
  00001	8b ec		 mov	 ebp, esp
  00003	56		 push	 esi
  00004	57		 push	 edi
  00005	8b f9		 mov	 edi, ecx

; 19   : 	if( m_uHead <= m_uTail ) {

  00007	0f b7 87 16 11
	00 00		 movzx	 eax, WORD PTR [edi+4374]
  0000e	0f b7 8f 18 11
	00 00		 movzx	 ecx, WORD PTR [edi+4376]
  00015	8b d0		 mov	 edx, eax
  00017	66 3b c1	 cmp	 ax, cx
  0001a	77 33		 ja	 SHORT $LN11@FindKey

; 20   : 		for( int i =m_uHead; i < m_uTail; i++ ) {

  0001c	3b d1		 cmp	 edx, ecx
  0001e	73 6f		 jae	 SHORT $LN9@FindKey
  00020	8b 75 08	 mov	 esi, DWORD PTR _uKey$[ebp]
  00023	69 c2 a8 00 00
	00		 imul	 eax, edx, 168
  00029	83 c0 04	 add	 eax, 4
  0002c	03 c7		 add	 eax, edi
  0002e	66 90		 npad	 2
$LL4@FindKey:

; 21   : 			if( m_mts[i].uKey == uKey )

  00030	39 30		 cmp	 DWORD PTR [eax], esi
  00032	74 13		 je	 SHORT $LN20@FindKey

; 20   : 		for( int i =m_uHead; i < m_uTail; i++ ) {

  00034	42		 inc	 edx
  00035	05 a8 00 00 00	 add	 eax, 168		; 000000a8H
  0003a	3b d1		 cmp	 edx, ecx
  0003c	7c f2		 jl	 SHORT $LL4@FindKey

; 33   : 				return i;
; 34   : 		}
; 35   : 	}
; 36   : 	return -1;

  0003e	5f		 pop	 edi
  0003f	83 c8 ff	 or	 eax, -1

; 37   : }

  00042	5e		 pop	 esi
  00043	5d		 pop	 ebp
  00044	c2 04 00	 ret	 4
$LN20@FindKey:
  00047	5f		 pop	 edi
  00048	8b c2		 mov	 eax, edx
  0004a	5e		 pop	 esi
  0004b	5d		 pop	 ebp
  0004c	c2 04 00	 ret	 4
$LN11@FindKey:

; 22   : 				return i;
; 23   : 		}
; 24   : 	}
; 25   : 	else
; 26   : 	{
; 27   : 		for( int i = m_uHead; i < MAX_LOG; i++ ) {

  0004f	8b 75 08	 mov	 esi, DWORD PTR _uKey$[ebp]
  00052	83 fa 1a	 cmp	 edx, 26			; 0000001aH
  00055	73 1a		 jae	 SHORT $LN6@FindKey
  00057	69 c2 a8 00 00
	00		 imul	 eax, edx, 168
  0005d	83 c0 04	 add	 eax, 4
  00060	03 c7		 add	 eax, edi
$LL7@FindKey:

; 28   : 			if( m_mts[i].uKey == uKey )

  00062	39 30		 cmp	 DWORD PTR [eax], esi
  00064	74 e1		 je	 SHORT $LN20@FindKey

; 22   : 				return i;
; 23   : 		}
; 24   : 	}
; 25   : 	else
; 26   : 	{
; 27   : 		for( int i = m_uHead; i < MAX_LOG; i++ ) {

  00066	42		 inc	 edx
  00067	05 a8 00 00 00	 add	 eax, 168		; 000000a8H
  0006c	83 fa 1a	 cmp	 edx, 26			; 0000001aH
  0006f	7c f1		 jl	 SHORT $LL7@FindKey
$LN6@FindKey:

; 29   : 				return i;
; 30   : 		}
; 31   : 		for( int i = 0; i < m_uTail; i++ ) {

  00071	8b d1		 mov	 edx, ecx
  00073	33 c0		 xor	 eax, eax
  00075	85 d2		 test	 edx, edx
  00077	74 16		 je	 SHORT $LN9@FindKey
  00079	8d 4f 04	 lea	 ecx, DWORD PTR [edi+4]
  0007c	0f 1f 40 00	 npad	 4
$LL10@FindKey:

; 32   : 			if( m_mts[i].uKey == uKey )

  00080	39 31		 cmp	 DWORD PTR [ecx], esi
  00082	74 0e		 je	 SHORT $LN1@FindKey

; 29   : 				return i;
; 30   : 		}
; 31   : 		for( int i = 0; i < m_uTail; i++ ) {

  00084	40		 inc	 eax
  00085	81 c1 a8 00 00
	00		 add	 ecx, 168		; 000000a8H
  0008b	3b c2		 cmp	 eax, edx
  0008d	7c f1		 jl	 SHORT $LL10@FindKey
$LN9@FindKey:

; 33   : 				return i;
; 34   : 		}
; 35   : 	}
; 36   : 	return -1;

  0008f	83 c8 ff	 or	 eax, -1
$LN1@FindKey:
  00092	5f		 pop	 edi

; 37   : }

  00093	5e		 pop	 esi
  00094	5d		 pop	 ebp
  00095	c2 04 00	 ret	 4
?FindKey@CMyTrace@@AAEHK@Z ENDP				; CMyTrace::FindKey
_TEXT	ENDS
; Function compile flags: /Ogtp
; File C:\IAGOS\server\v18\Source\Source\_network\misc\src\MyTrace.cpp
;	COMDAT ?TextOutA@CMyTrace@@AAEXPAUHDC__@@HHPBDH@Z
_TEXT	SEGMENT
_hDC$ = 8						; size = 4
_x$ = 12						; size = 4
_y$ = 16						; size = 4
_lpString$ = 20						; size = 4
_fInverse$ = 24						; size = 4
?TextOutA@CMyTrace@@AAEXPAUHDC__@@HHPBDH@Z PROC		; CMyTrace::TextOutA, COMDAT
; _this$ = ecx

; 149  : {

  00000	55		 push	 ebp
  00001	8b ec		 mov	 ebp, esp
  00003	53		 push	 ebx

; 150  : 	SetBkMode( hDC, fInverse? OPAQUE : TRANSPARENT );

  00004	8b 5d 08	 mov	 ebx, DWORD PTR _hDC$[ebp]
  00007	33 c0		 xor	 eax, eax
  00009	56		 push	 esi
  0000a	8b 75 18	 mov	 esi, DWORD PTR _fInverse$[ebp]
  0000d	85 f6		 test	 esi, esi
  0000f	57		 push	 edi
  00010	0f 95 c0	 setne	 al
  00013	8b f9		 mov	 edi, ecx
  00015	40		 inc	 eax
  00016	50		 push	 eax
  00017	53		 push	 ebx
  00018	ff 15 00 00 00
	00		 call	 DWORD PTR __imp__SetBkMode@8

; 151  : 	SetTextColor( hDC, fInverse? m_crBk : m_cr );

  0001e	33 c0		 xor	 eax, eax
  00020	85 f6		 test	 esi, esi
  00022	0f 95 c0	 setne	 al
  00025	8d 04 85 24 11
	00 00		 lea	 eax, DWORD PTR [eax*4+4388]
  0002c	ff 34 38	 push	 DWORD PTR [eax+edi]
  0002f	53		 push	 ebx
  00030	ff 15 00 00 00
	00		 call	 DWORD PTR __imp__SetTextColor@8

; 152  : 
; 153  : 	int cbString	= strlen( lpString );

  00036	8b 55 14	 mov	 edx, DWORD PTR _lpString$[ebp]
  00039	8b c2		 mov	 eax, edx
  0003b	8d 70 01	 lea	 esi, DWORD PTR [eax+1]
  0003e	66 90		 npad	 2
$LL5@TextOutA:
  00040	8a 08		 mov	 cl, BYTE PTR [eax]
  00042	40		 inc	 eax
  00043	84 c9		 test	 cl, cl
  00045	75 f9		 jne	 SHORT $LL5@TextOutA
  00047	2b c6		 sub	 eax, esi

; 154  : 	::TextOut( hDC, x, y, lpString, cbString );

  00049	50		 push	 eax
  0004a	52		 push	 edx
  0004b	ff 75 10	 push	 DWORD PTR _y$[ebp]
  0004e	ff 75 0c	 push	 DWORD PTR _x$[ebp]
  00051	53		 push	 ebx
  00052	ff 15 00 00 00
	00		 call	 DWORD PTR __imp__TextOutA@20
  00058	5f		 pop	 edi
  00059	5e		 pop	 esi
  0005a	5b		 pop	 ebx

; 155  : }

  0005b	5d		 pop	 ebp
  0005c	c2 14 00	 ret	 20			; 00000014H
?TextOutA@CMyTrace@@AAEXPAUHDC__@@HHPBDH@Z ENDP		; CMyTrace::TextOutA
_TEXT	ENDS
; Function compile flags: /Ogtp
; File C:\IAGOS\server\v18\Source\Source\_Network\Mcl\Include\CMclCritSec.h
;	COMDAT ??_GCMclCritSec@@UAEPAXI@Z
_TEXT	SEGMENT
___flags$ = 8						; size = 4
??_GCMclCritSec@@UAEPAXI@Z PROC				; CMclCritSec::`scalar deleting destructor', COMDAT
; _this$ = ecx
  00000	55		 push	 ebp
  00001	8b ec		 mov	 ebp, esp

; 26   : 	{

  00003	56		 push	 esi
  00004	8b f1		 mov	 esi, ecx

; 27   : 		::DeleteCriticalSection( &m_CritSec );

  00006	8d 46 04	 lea	 eax, DWORD PTR [esi+4]
  00009	c7 06 00 00 00
	00		 mov	 DWORD PTR [esi], OFFSET ??_7CMclCritSec@@6B@
  0000f	50		 push	 eax
  00010	ff 15 00 00 00
	00		 call	 DWORD PTR __imp__DeleteCriticalSection@4
  00016	f6 45 08 01	 test	 BYTE PTR ___flags$[ebp], 1
  0001a	74 0b		 je	 SHORT $LN8@scalar
  0001c	6a 1c		 push	 28			; 0000001cH
  0001e	56		 push	 esi
  0001f	e8 00 00 00 00	 call	 ??3@YAXPAXI@Z		; operator delete
  00024	83 c4 08	 add	 esp, 8
$LN8@scalar:
  00027	8b c6		 mov	 eax, esi
  00029	5e		 pop	 esi
  0002a	5d		 pop	 ebp
  0002b	c2 04 00	 ret	 4
??_GCMclCritSec@@UAEPAXI@Z ENDP				; CMclCritSec::`scalar deleting destructor'
_TEXT	ENDS
; Function compile flags: /Ogtp
; File C:\IAGOS\server\v18\Source\Source\_Network\Mcl\Include\CMclCritSec.h
;	COMDAT ??1CMclCritSec@@UAE@XZ
_TEXT	SEGMENT
??1CMclCritSec@@UAE@XZ PROC				; CMclCritSec::~CMclCritSec, COMDAT
; _this$ = ecx

; 27   : 		::DeleteCriticalSection( &m_CritSec );

  00000	8d 41 04	 lea	 eax, DWORD PTR [ecx+4]
  00003	c7 01 00 00 00
	00		 mov	 DWORD PTR [ecx], OFFSET ??_7CMclCritSec@@6B@
  00009	50		 push	 eax
  0000a	ff 15 00 00 00
	00		 call	 DWORD PTR __imp__DeleteCriticalSection@4

; 28   : 	}

  00010	c3		 ret	 0
??1CMclCritSec@@UAE@XZ ENDP				; CMclCritSec::~CMclCritSec
_TEXT	ENDS
; Function compile flags: /Ogtp
; File C:\Program Files (x86)\Windows Kits\10\Include\10.0.26100.0\ucrt\corecrt_stdio_config.h
;	COMDAT ___local_stdio_printf_options
_TEXT	SEGMENT
___local_stdio_printf_options PROC			; COMDAT

; 91   :         static unsigned __int64 _OptionsStorage;
; 92   :         return &_OptionsStorage;

  00000	b8 00 00 00 00	 mov	 eax, OFFSET ?_OptionsStorage@?1??__local_stdio_printf_options@@9@4_KA ; `__local_stdio_printf_options'::`2'::_OptionsStorage

; 93   :     }

  00005	c3		 ret	 0
___local_stdio_printf_options ENDP
_TEXT	ENDS
; Function compile flags: /Ogtp
; File C:\IAGOS\server\v18\Source\Source\_network\misc\src\MyTrace.cpp
;	COMDAT ?__empty_global_delete@@YAXPAXI@Z
_TEXT	SEGMENT
___formal$ = 8						; size = 4
___formal$ = 12						; size = 4
?__empty_global_delete@@YAXPAXI@Z PROC			; __empty_global_delete, COMDAT

  00000	c2 00 00	 ret	 0
?__empty_global_delete@@YAXPAXI@Z ENDP			; __empty_global_delete
_TEXT	ENDS
; Function compile flags: /Ogtp
; File C:\IAGOS\server\v18\Source\Source\_network\misc\src\MyTrace.cpp
;	COMDAT ?__empty_global_delete@@YAXPAX@Z
_TEXT	SEGMENT
___formal$ = 8						; size = 4
?__empty_global_delete@@YAXPAX@Z PROC			; __empty_global_delete, COMDAT

  00000	c2 00 00	 ret	 0
?__empty_global_delete@@YAXPAX@Z ENDP			; __empty_global_delete
_TEXT	ENDS
END
