; Listing generated by Microsoft (R) Optimizing Compiler Version 19.44.35225.0 

	TITLE	C:\IAGOS\server\v18\Source\Output\DatabaseServer\Release\Obj.obj
	.686P
	.XMM
	include listing.inc
	.model	flat

INCLUDELIB LIBCMT
INCLUDELIB OLDNAMES

PUBLIC	?m_nMethod@CObj@@2HA				; CObj::m_nMethod
PUBLIC	??_C@_0O@NKNMEGII@list?5too?5long@		; `string'
PUBLIC	??_R4exception@std@@6B@				; std::exception::`RTTI Complete Object Locator'
PUBLIC	??_R3exception@std@@8				; std::exception::`RTTI Class Hierarchy Descriptor'
PUBLIC	??_R2exception@std@@8				; std::exception::`RTTI Base Class Array'
PUBLIC	??_R1A@?0A@EA@exception@std@@8			; std::exception::`RTTI Base Class Descriptor at (0,-1,0,64)'
PUBLIC	??_R4bad_array_new_length@std@@6B@		; std::bad_array_new_length::`RTTI Complete Object Locator'
PUBLIC	??_R3bad_array_new_length@std@@8		; std::bad_array_new_length::`RTTI Class Hierarchy Descriptor'
PUBLIC	??_R2bad_array_new_length@std@@8		; std::bad_array_new_length::`RTTI Base Class Array'
PUBLIC	??_R1A@?0A@EA@bad_array_new_length@std@@8	; std::bad_array_new_length::`RTTI Base Class Descriptor at (0,-1,0,64)'
PUBLIC	??_R1A@?0A@EA@bad_alloc@std@@8			; std::bad_alloc::`RTTI Base Class Descriptor at (0,-1,0,64)'
PUBLIC	??_R3bad_alloc@std@@8				; std::bad_alloc::`RTTI Class Hierarchy Descriptor'
PUBLIC	??_R2bad_alloc@std@@8				; std::bad_alloc::`RTTI Base Class Array'
PUBLIC	??_R4bad_alloc@std@@6B@				; std::bad_alloc::`RTTI Complete Object Locator'
PUBLIC	??0exception@std@@QAE@ABV01@@Z			; std::exception::exception
PUBLIC	?what@exception@std@@UBEPBDXZ			; std::exception::what
PUBLIC	??_7exception@std@@6B@				; std::exception::`vftable'
PUBLIC	??_Gexception@std@@UAEPAXI@Z			; std::exception::`scalar deleting destructor'
PUBLIC	??_C@_0BC@EOODALEL@Unknown?5exception@		; `string'
PUBLIC	??0bad_alloc@std@@QAE@ABV01@@Z			; std::bad_alloc::bad_alloc
PUBLIC	??_7bad_alloc@std@@6B@				; std::bad_alloc::`vftable'
PUBLIC	??_Gbad_alloc@std@@UAEPAXI@Z			; std::bad_alloc::`scalar deleting destructor'
PUBLIC	??1bad_array_new_length@std@@UAE@XZ		; std::bad_array_new_length::~bad_array_new_length
PUBLIC	??0bad_array_new_length@std@@QAE@ABV01@@Z	; std::bad_array_new_length::bad_array_new_length
PUBLIC	??_7bad_array_new_length@std@@6B@		; std::bad_array_new_length::`vftable'
PUBLIC	??_Gbad_array_new_length@std@@UAEPAXI@Z		; std::bad_array_new_length::`scalar deleting destructor'
PUBLIC	??_C@_0BF@KINCDENJ@bad?5array?5new?5length@	; `string'
PUBLIC	??_R0?AVexception@std@@@8			; std::exception `RTTI Type Descriptor'
PUBLIC	__CT??_R0?AVexception@std@@@8??0exception@std@@QAE@ABV01@@Z12
PUBLIC	__TI3?AVbad_array_new_length@std@@
PUBLIC	__CTA3?AVbad_array_new_length@std@@
PUBLIC	??_R0?AVbad_array_new_length@std@@@8		; std::bad_array_new_length `RTTI Type Descriptor'
PUBLIC	__CT??_R0?AVbad_array_new_length@std@@@8??0bad_array_new_length@std@@QAE@ABV01@@Z12
PUBLIC	??_R0?AVbad_alloc@std@@@8			; std::bad_alloc `RTTI Type Descriptor'
PUBLIC	__CT??_R0?AVbad_alloc@std@@@8??0bad_alloc@std@@QAE@ABV01@@Z12
PUBLIC	??_C@_09PKKCPLIP@bad?5alloc@			; `string'
EXTRN	??_Eexception@std@@UAEPAXI@Z:PROC		; std::exception::`vector deleting destructor'
EXTRN	??_Ebad_alloc@std@@UAEPAXI@Z:PROC		; std::bad_alloc::`vector deleting destructor'
EXTRN	??_Ebad_array_new_length@std@@UAEPAXI@Z:PROC	; std::bad_array_new_length::`vector deleting destructor'
EXTRN	??_7type_info@@6B@:QWORD			; type_info::`vftable'
_BSS	SEGMENT
?m_nMethod@CObj@@2HA DD 01H DUP (?)			; CObj::m_nMethod
_BSS	ENDS
;	COMDAT ??_C@_09PKKCPLIP@bad?5alloc@
CONST	SEGMENT
??_C@_09PKKCPLIP@bad?5alloc@ DB 'bad alloc', 00H	; `string'
CONST	ENDS
;	COMDAT __CT??_R0?AVbad_alloc@std@@@8??0bad_alloc@std@@QAE@ABV01@@Z12
xdata$x	SEGMENT
__CT??_R0?AVbad_alloc@std@@@8??0bad_alloc@std@@QAE@ABV01@@Z12 DD 010H
	DD	FLAT:??_R0?AVbad_alloc@std@@@8
	DD	00H
	DD	0ffffffffH
	ORG $+4
	DD	0cH
	DD	FLAT:??0bad_alloc@std@@QAE@ABV01@@Z
xdata$x	ENDS
;	COMDAT ??_R0?AVbad_alloc@std@@@8
data$r	SEGMENT
??_R0?AVbad_alloc@std@@@8 DD FLAT:??_7type_info@@6B@	; std::bad_alloc `RTTI Type Descriptor'
	DD	00H
	DB	'.?AVbad_alloc@std@@', 00H
data$r	ENDS
;	COMDAT __CT??_R0?AVbad_array_new_length@std@@@8??0bad_array_new_length@std@@QAE@ABV01@@Z12
xdata$x	SEGMENT
__CT??_R0?AVbad_array_new_length@std@@@8??0bad_array_new_length@std@@QAE@ABV01@@Z12 DD 00H
	DD	FLAT:??_R0?AVbad_array_new_length@std@@@8
	DD	00H
	DD	0ffffffffH
	ORG $+4
	DD	0cH
	DD	FLAT:??0bad_array_new_length@std@@QAE@ABV01@@Z
xdata$x	ENDS
;	COMDAT ??_R0?AVbad_array_new_length@std@@@8
data$r	SEGMENT
??_R0?AVbad_array_new_length@std@@@8 DD FLAT:??_7type_info@@6B@ ; std::bad_array_new_length `RTTI Type Descriptor'
	DD	00H
	DB	'.?AVbad_array_new_length@std@@', 00H
data$r	ENDS
;	COMDAT __CTA3?AVbad_array_new_length@std@@
xdata$x	SEGMENT
__CTA3?AVbad_array_new_length@std@@ DD 03H
	DD	FLAT:__CT??_R0?AVbad_array_new_length@std@@@8??0bad_array_new_length@std@@QAE@ABV01@@Z12
	DD	FLAT:__CT??_R0?AVbad_alloc@std@@@8??0bad_alloc@std@@QAE@ABV01@@Z12
	DD	FLAT:__CT??_R0?AVexception@std@@@8??0exception@std@@QAE@ABV01@@Z12
xdata$x	ENDS
;	COMDAT __TI3?AVbad_array_new_length@std@@
xdata$x	SEGMENT
__TI3?AVbad_array_new_length@std@@ DD 00H
	DD	FLAT:??1bad_array_new_length@std@@UAE@XZ
	DD	00H
	DD	FLAT:__CTA3?AVbad_array_new_length@std@@
xdata$x	ENDS
;	COMDAT __CT??_R0?AVexception@std@@@8??0exception@std@@QAE@ABV01@@Z12
xdata$x	SEGMENT
__CT??_R0?AVexception@std@@@8??0exception@std@@QAE@ABV01@@Z12 DD 00H
	DD	FLAT:??_R0?AVexception@std@@@8
	DD	00H
	DD	0ffffffffH
	ORG $+4
	DD	0cH
	DD	FLAT:??0exception@std@@QAE@ABV01@@Z
xdata$x	ENDS
;	COMDAT ??_R0?AVexception@std@@@8
data$r	SEGMENT
??_R0?AVexception@std@@@8 DD FLAT:??_7type_info@@6B@	; std::exception `RTTI Type Descriptor'
	DD	00H
	DB	'.?AVexception@std@@', 00H
data$r	ENDS
;	COMDAT ??_C@_0BF@KINCDENJ@bad?5array?5new?5length@
CONST	SEGMENT
??_C@_0BF@KINCDENJ@bad?5array?5new?5length@ DB 'bad array new length', 00H ; `string'
CONST	ENDS
;	COMDAT ??_7bad_array_new_length@std@@6B@
CONST	SEGMENT
??_7bad_array_new_length@std@@6B@ DD FLAT:??_R4bad_array_new_length@std@@6B@ ; std::bad_array_new_length::`vftable'
	DD	FLAT:??_Ebad_array_new_length@std@@UAEPAXI@Z
	DD	FLAT:?what@exception@std@@UBEPBDXZ
CONST	ENDS
;	COMDAT ??_7bad_alloc@std@@6B@
CONST	SEGMENT
??_7bad_alloc@std@@6B@ DD FLAT:??_R4bad_alloc@std@@6B@	; std::bad_alloc::`vftable'
	DD	FLAT:??_Ebad_alloc@std@@UAEPAXI@Z
	DD	FLAT:?what@exception@std@@UBEPBDXZ
CONST	ENDS
;	COMDAT ??_C@_0BC@EOODALEL@Unknown?5exception@
CONST	SEGMENT
??_C@_0BC@EOODALEL@Unknown?5exception@ DB 'Unknown exception', 00H ; `string'
CONST	ENDS
;	COMDAT ??_7exception@std@@6B@
CONST	SEGMENT
??_7exception@std@@6B@ DD FLAT:??_R4exception@std@@6B@	; std::exception::`vftable'
	DD	FLAT:??_Eexception@std@@UAEPAXI@Z
	DD	FLAT:?what@exception@std@@UBEPBDXZ
CONST	ENDS
;	COMDAT ??_R4bad_alloc@std@@6B@
rdata$r	SEGMENT
??_R4bad_alloc@std@@6B@ DD 00H				; std::bad_alloc::`RTTI Complete Object Locator'
	DD	00H
	DD	00H
	DD	FLAT:??_R0?AVbad_alloc@std@@@8
	DD	FLAT:??_R3bad_alloc@std@@8
rdata$r	ENDS
;	COMDAT ??_R2bad_alloc@std@@8
rdata$r	SEGMENT
??_R2bad_alloc@std@@8 DD FLAT:??_R1A@?0A@EA@bad_alloc@std@@8 ; std::bad_alloc::`RTTI Base Class Array'
	DD	FLAT:??_R1A@?0A@EA@exception@std@@8
rdata$r	ENDS
;	COMDAT ??_R3bad_alloc@std@@8
rdata$r	SEGMENT
??_R3bad_alloc@std@@8 DD 00H				; std::bad_alloc::`RTTI Class Hierarchy Descriptor'
	DD	00H
	DD	02H
	DD	FLAT:??_R2bad_alloc@std@@8
rdata$r	ENDS
;	COMDAT ??_R1A@?0A@EA@bad_alloc@std@@8
rdata$r	SEGMENT
??_R1A@?0A@EA@bad_alloc@std@@8 DD FLAT:??_R0?AVbad_alloc@std@@@8 ; std::bad_alloc::`RTTI Base Class Descriptor at (0,-1,0,64)'
	DD	01H
	DD	00H
	DD	0ffffffffH
	DD	00H
	DD	040H
	DD	FLAT:??_R3bad_alloc@std@@8
rdata$r	ENDS
;	COMDAT ??_R1A@?0A@EA@bad_array_new_length@std@@8
rdata$r	SEGMENT
??_R1A@?0A@EA@bad_array_new_length@std@@8 DD FLAT:??_R0?AVbad_array_new_length@std@@@8 ; std::bad_array_new_length::`RTTI Base Class Descriptor at (0,-1,0,64)'
	DD	02H
	DD	00H
	DD	0ffffffffH
	DD	00H
	DD	040H
	DD	FLAT:??_R3bad_array_new_length@std@@8
rdata$r	ENDS
;	COMDAT ??_R2bad_array_new_length@std@@8
rdata$r	SEGMENT
??_R2bad_array_new_length@std@@8 DD FLAT:??_R1A@?0A@EA@bad_array_new_length@std@@8 ; std::bad_array_new_length::`RTTI Base Class Array'
	DD	FLAT:??_R1A@?0A@EA@bad_alloc@std@@8
	DD	FLAT:??_R1A@?0A@EA@exception@std@@8
rdata$r	ENDS
;	COMDAT ??_R3bad_array_new_length@std@@8
rdata$r	SEGMENT
??_R3bad_array_new_length@std@@8 DD 00H			; std::bad_array_new_length::`RTTI Class Hierarchy Descriptor'
	DD	00H
	DD	03H
	DD	FLAT:??_R2bad_array_new_length@std@@8
rdata$r	ENDS
;	COMDAT ??_R4bad_array_new_length@std@@6B@
rdata$r	SEGMENT
??_R4bad_array_new_length@std@@6B@ DD 00H		; std::bad_array_new_length::`RTTI Complete Object Locator'
	DD	00H
	DD	00H
	DD	FLAT:??_R0?AVbad_array_new_length@std@@@8
	DD	FLAT:??_R3bad_array_new_length@std@@8
rdata$r	ENDS
;	COMDAT ??_R1A@?0A@EA@exception@std@@8
rdata$r	SEGMENT
??_R1A@?0A@EA@exception@std@@8 DD FLAT:??_R0?AVexception@std@@@8 ; std::exception::`RTTI Base Class Descriptor at (0,-1,0,64)'
	DD	00H
	DD	00H
	DD	0ffffffffH
	DD	00H
	DD	040H
	DD	FLAT:??_R3exception@std@@8
rdata$r	ENDS
;	COMDAT ??_R2exception@std@@8
rdata$r	SEGMENT
??_R2exception@std@@8 DD FLAT:??_R1A@?0A@EA@exception@std@@8 ; std::exception::`RTTI Base Class Array'
rdata$r	ENDS
;	COMDAT ??_R3exception@std@@8
rdata$r	SEGMENT
??_R3exception@std@@8 DD 00H				; std::exception::`RTTI Class Hierarchy Descriptor'
	DD	00H
	DD	01H
	DD	FLAT:??_R2exception@std@@8
rdata$r	ENDS
;	COMDAT ??_R4exception@std@@6B@
rdata$r	SEGMENT
??_R4exception@std@@6B@ DD 00H				; std::exception::`RTTI Complete Object Locator'
	DD	00H
	DD	00H
	DD	FLAT:??_R0?AVexception@std@@@8
	DD	FLAT:??_R3exception@std@@8
rdata$r	ENDS
;	COMDAT ??_C@_0O@NKNMEGII@list?5too?5long@
CONST	SEGMENT
??_C@_0O@NKNMEGII@list?5too?5long@ DB 'list too long', 00H ; `string'
CONST	ENDS
PUBLIC	?__empty_global_delete@@YAXPAX@Z		; __empty_global_delete
PUBLIC	?__empty_global_delete@@YAXPAXI@Z		; __empty_global_delete
PUBLIC	??1exception@std@@UAE@XZ			; std::exception::~exception
PUBLIC	??0bad_array_new_length@std@@QAE@XZ		; std::bad_array_new_length::bad_array_new_length
PUBLIC	?_Throw_bad_array_new_length@std@@YAXXZ		; std::_Throw_bad_array_new_length
PUBLIC	??1CMclCritSec@@UAE@XZ				; CMclCritSec::~CMclCritSec
PUBLIC	??_GCMclCritSec@@UAEPAXI@Z			; CMclCritSec::`scalar deleting destructor'
PUBLIC	??1?$list@PAXV?$allocator@PAX@std@@@std@@QAE@XZ	; std::list<void *,std::allocator<void *> >::~list<void *,std::allocator<void *> >
PUBLIC	??0CObj@@QAE@XZ					; CObj::CObj
PUBLIC	??1CObj@@UAE@XZ					; CObj::~CObj
PUBLIC	??_GCObj@@UAEPAXI@Z				; CObj::`scalar deleting destructor'
PUBLIC	??0CCtrl@@QAE@XZ				; CCtrl::CCtrl
PUBLIC	??1CCtrl@@UAE@XZ				; CCtrl::~CCtrl
PUBLIC	??_GCCtrl@@UAEPAXI@Z				; CCtrl::`scalar deleting destructor'
PUBLIC	??0CItemBase@@QAE@XZ				; CItemBase::CItemBase
PUBLIC	??1CItemBase@@UAE@XZ				; CItemBase::~CItemBase
PUBLIC	?Empty@CItemBase@@UAEXXZ			; CItemBase::Empty
PUBLIC	??4CItemBase@@UAEAAV0@AAV0@@Z			; CItemBase::operator=
PUBLIC	??_GCItemBase@@UAEPAXI@Z			; CItemBase::`scalar deleting destructor'
PUBLIC	?IsPierceAble@CItemElem@@QAEHKH@Z		; CItemElem::IsPierceAble
PUBLIC	??0CItemElem@@QAE@XZ				; CItemElem::CItemElem
PUBLIC	??1CItemElem@@UAE@XZ				; CItemElem::~CItemElem
PUBLIC	?IsInvalid@CItemElem@@QAEHXZ			; CItemElem::IsInvalid
PUBLIC	?Empty@CItemElem@@UAEXXZ			; CItemElem::Empty
PUBLIC	??4CItemElem@@UAEAAV0@AAV0@@Z			; CItemElem::operator=
PUBLIC	??_ECItemElem@@UAEPAXI@Z			; CItemElem::`vector deleting destructor'
PUBLIC	??0CItem@@QAE@XZ				; CItem::CItem
PUBLIC	??1CItem@@UAE@XZ				; CItem::~CItem
PUBLIC	??_GCItem@@UAEPAXI@Z				; CItem::`scalar deleting destructor'
PUBLIC	??1CAction@@UAE@XZ				; CAction::~CAction
PUBLIC	??_GCAction@@UAEPAXI@Z				; CAction::`scalar deleting destructor'
PUBLIC	??1CActionMover@@UAE@XZ				; CActionMover::~CActionMover
PUBLIC	??_GCActionMover@@UAEPAXI@Z			; CActionMover::`scalar deleting destructor'
PUBLIC	??0?$CItemContainer@VCItemElem@@@@QAE@XZ	; CItemContainer<CItemElem>::CItemContainer<CItemElem>
PUBLIC	??1?$CItemContainer@VCItemElem@@@@UAE@XZ	; CItemContainer<CItemElem>::~CItemContainer<CItemElem>
PUBLIC	?SetItemContainer@?$CItemContainer@VCItemElem@@@@QAEXKKK@Z ; CItemContainer<CItemElem>::SetItemContainer
PUBLIC	?Add@?$CItemContainer@VCItemElem@@@@QAEHKFHKHHPAEPAF0HHKKKKKK_J@Z ; CItemContainer<CItemElem>::Add
PUBLIC	?IsFull@?$CItemContainer@VCItemElem@@@@QAEHPAUItemProp@@FH@Z ; CItemContainer<CItemElem>::IsFull
PUBLIC	?GetAtId@?$CItemContainer@VCItemElem@@@@QAEPAVCItemElem@@K@Z ; CItemContainer<CItemElem>::GetAtId
PUBLIC	?IsEquip@?$CItemContainer@VCItemElem@@@@QAEHK@Z	; CItemContainer<CItemElem>::IsEquip
PUBLIC	?RemoveAt@?$CItemContainer@VCItemElem@@@@QAEXK@Z ; CItemContainer<CItemElem>::RemoveAt
PUBLIC	?UnEquip@?$CItemContainer@VCItemElem@@@@QAEHK@Z	; CItemContainer<CItemElem>::UnEquip
PUBLIC	?Copy@?$CItemContainer@VCItemElem@@@@QAEXAAV1@@Z ; CItemContainer<CItemElem>::Copy
PUBLIC	??_G?$CItemContainer@VCItemElem@@@@UAEPAXI@Z	; CItemContainer<CItemElem>::`scalar deleting destructor'
PUBLIC	?GetPetItem@CMover@@QAEPAVCItemElem@@XZ		; CMover::GetPetItem
PUBLIC	??0CMover@@QAE@XZ				; CMover::CMover
PUBLIC	??1CMover@@UAE@XZ				; CMover::~CMover
PUBLIC	?InitProp@CMover@@QAEXXZ			; CMover::InitProp
PUBLIC	?RemoveQuest@CMover@@QAEHH@Z			; CMover::RemoveQuest
PUBLIC	?AddItem@CMover@@QAEHKKKHKHHHHKKKKKK_J@Z	; CMover::AddItem
PUBLIC	?AddItemBank@CMover@@QAEHHKKHK@Z		; CMover::AddItemBank
PUBLIC	?IsAbnormalPlayerData@CMover@@QAEHXZ		; CMover::IsAbnormalPlayerData
PUBLIC	?NormalizePlayerData@CMover@@QAEHXZ		; CMover::NormalizePlayerData
PUBLIC	?RemoveItemIK3@CMover@@QAEHXZ			; CMover::RemoveItemIK3
PUBLIC	?Copy@CMover@@QAEXPAV1@H@Z			; CMover::Copy
PUBLIC	?PeriodTick@CMover@@QAEXXZ			; CMover::PeriodTick
PUBLIC	??_GCMover@@UAEPAXI@Z				; CMover::`scalar deleting destructor'
PUBLIC	??1?$_Alloc_construct_ptr@V?$allocator@U?$_List_node@PAXPAX@std@@@std@@@std@@QAE@XZ ; std::_Alloc_construct_ptr<std::allocator<std::_List_node<void *,void *> > >::~_Alloc_construct_ptr<std::allocator<std::_List_node<void *,void *> > >
PUBLIC	??$_Allocate_manually_vector_aligned@U_Default_allocate_traits@std@@@std@@YAPAXI@Z ; std::_Allocate_manually_vector_aligned<std::_Default_allocate_traits>
PUBLIC	??_7CMclCritSec@@6B@				; CMclCritSec::`vftable'
PUBLIC	??_C@_0CL@NHHPIJBJ@CProject?3?3GetMoverProp?5out?5of?5r@ ; `string'
PUBLIC	??_7CObj@@6B@					; CObj::`vftable'
PUBLIC	??_7CCtrl@@6B@					; CCtrl::`vftable'
PUBLIC	??_7CItemBase@@6B@				; CItemBase::`vftable'
PUBLIC	??_7CItemElem@@6B@				; CItemElem::`vftable'
PUBLIC	??_7CItem@@6B@					; CItem::`vftable'
PUBLIC	??_7CAction@@6B@				; CAction::`vftable'
PUBLIC	??_7CActionMover@@6B@				; CActionMover::`vftable'
PUBLIC	??_7?$CItemContainer@VCItemElem@@@@6B@		; CItemContainer<CItemElem>::`vftable'
PUBLIC	?m_pPool@CMover@@2PAV?$MemPooler@VCMover@@@@A	; CMover::m_pPool
PUBLIC	??_7CMover@@6B@					; CMover::`vftable'
PUBLIC	??_R4CMclCritSec@@6B@				; CMclCritSec::`RTTI Complete Object Locator'
PUBLIC	??_R0?AVCMclCritSec@@@8				; CMclCritSec `RTTI Type Descriptor'
PUBLIC	??_R3CMclCritSec@@8				; CMclCritSec::`RTTI Class Hierarchy Descriptor'
PUBLIC	??_R2CMclCritSec@@8				; CMclCritSec::`RTTI Base Class Array'
PUBLIC	??_R1A@?0A@EA@CMclCritSec@@8			; CMclCritSec::`RTTI Base Class Descriptor at (0,-1,0,64)'
PUBLIC	??_R4CObj@@6B@					; CObj::`RTTI Complete Object Locator'
PUBLIC	??_R0?AVCObj@@@8				; CObj `RTTI Type Descriptor'
PUBLIC	??_R3CObj@@8					; CObj::`RTTI Class Hierarchy Descriptor'
PUBLIC	??_R2CObj@@8					; CObj::`RTTI Base Class Array'
PUBLIC	??_R1A@?0A@EA@CObj@@8				; CObj::`RTTI Base Class Descriptor at (0,-1,0,64)'
PUBLIC	??_R4CCtrl@@6B@					; CCtrl::`RTTI Complete Object Locator'
PUBLIC	??_R0?AVCCtrl@@@8				; CCtrl `RTTI Type Descriptor'
PUBLIC	??_R3CCtrl@@8					; CCtrl::`RTTI Class Hierarchy Descriptor'
PUBLIC	??_R2CCtrl@@8					; CCtrl::`RTTI Base Class Array'
PUBLIC	??_R1A@?0A@EA@CCtrl@@8				; CCtrl::`RTTI Base Class Descriptor at (0,-1,0,64)'
PUBLIC	??_R4CItemBase@@6B@				; CItemBase::`RTTI Complete Object Locator'
PUBLIC	??_R0?AVCItemBase@@@8				; CItemBase `RTTI Type Descriptor'
PUBLIC	??_R3CItemBase@@8				; CItemBase::`RTTI Class Hierarchy Descriptor'
PUBLIC	??_R2CItemBase@@8				; CItemBase::`RTTI Base Class Array'
PUBLIC	??_R1A@?0A@EA@CItemBase@@8			; CItemBase::`RTTI Base Class Descriptor at (0,-1,0,64)'
PUBLIC	??_R4CAction@@6B@				; CAction::`RTTI Complete Object Locator'
PUBLIC	??_R0?AVCAction@@@8				; CAction `RTTI Type Descriptor'
PUBLIC	??_R3CAction@@8					; CAction::`RTTI Class Hierarchy Descriptor'
PUBLIC	??_R2CAction@@8					; CAction::`RTTI Base Class Array'
PUBLIC	??_R1A@?0A@EA@CAction@@8			; CAction::`RTTI Base Class Descriptor at (0,-1,0,64)'
PUBLIC	??_R4CActionMover@@6B@				; CActionMover::`RTTI Complete Object Locator'
PUBLIC	??_R0?AVCActionMover@@@8			; CActionMover `RTTI Type Descriptor'
PUBLIC	??_R3CActionMover@@8				; CActionMover::`RTTI Class Hierarchy Descriptor'
PUBLIC	??_R2CActionMover@@8				; CActionMover::`RTTI Base Class Array'
PUBLIC	??_R1A@?0A@EA@CActionMover@@8			; CActionMover::`RTTI Base Class Descriptor at (0,-1,0,64)'
PUBLIC	??_R4?$CItemContainer@VCItemElem@@@@6B@		; CItemContainer<CItemElem>::`RTTI Complete Object Locator'
PUBLIC	??_R0?AV?$CItemContainer@VCItemElem@@@@@8	; CItemContainer<CItemElem> `RTTI Type Descriptor'
PUBLIC	??_R3?$CItemContainer@VCItemElem@@@@8		; CItemContainer<CItemElem>::`RTTI Class Hierarchy Descriptor'
PUBLIC	??_R2?$CItemContainer@VCItemElem@@@@8		; CItemContainer<CItemElem>::`RTTI Base Class Array'
PUBLIC	??_R1A@?0A@EA@?$CItemContainer@VCItemElem@@@@8	; CItemContainer<CItemElem>::`RTTI Base Class Descriptor at (0,-1,0,64)'
PUBLIC	??_C@_0CI@FEMGPALB@Not?5UnEquip?5RemoveItemIK3?5?5?3?5?$CFs@ ; `string'
PUBLIC	??_C@_0CG@DAKLJMI@Not?5ItemProp?5RemoveItemIK3?5?5?3?5?$CF@ ; `string'
PUBLIC	??_C@_0FA@MKEIOHMC@template?5?$DMclass?5T?$DO?5BOOL?5CItemCo@ ; `string'
PUBLIC	??_R4CMover@@6B@				; CMover::`RTTI Complete Object Locator'
PUBLIC	??_R0?AVCMover@@@8				; CMover `RTTI Type Descriptor'
PUBLIC	??_R3CMover@@8					; CMover::`RTTI Class Hierarchy Descriptor'
PUBLIC	??_R2CMover@@8					; CMover::`RTTI Base Class Array'
PUBLIC	??_R1A@?0A@EA@CMover@@8				; CMover::`RTTI Base Class Descriptor at (0,-1,0,64)'
PUBLIC	??_R4CItemElem@@6B@				; CItemElem::`RTTI Complete Object Locator'
PUBLIC	??_R0?AVCItemElem@@@8				; CItemElem `RTTI Type Descriptor'
PUBLIC	??_R3CItemElem@@8				; CItemElem::`RTTI Class Hierarchy Descriptor'
PUBLIC	??_R2CItemElem@@8				; CItemElem::`RTTI Base Class Array'
PUBLIC	??_R1A@?0A@EA@CItemElem@@8			; CItemElem::`RTTI Base Class Descriptor at (0,-1,0,64)'
PUBLIC	??_R4CItem@@6B@					; CItem::`RTTI Complete Object Locator'
PUBLIC	??_R0?AVCItem@@@8				; CItem `RTTI Type Descriptor'
PUBLIC	??_R3CItem@@8					; CItem::`RTTI Class Hierarchy Descriptor'
PUBLIC	??_R2CItem@@8					; CItem::`RTTI Base Class Array'
PUBLIC	??_R1A@?0A@EA@CItem@@8				; CItem::`RTTI Base Class Descriptor at (0,-1,0,64)'
EXTRN	??_L@YGXPAXIIP6EX0@Z1@Z:PROC			; `eh vector constructor iterator'
EXTRN	??_M@YGXPAXIIP6EX0@Z@Z:PROC			; `eh vector destructor iterator'
EXTRN	??2@YAPAXI@Z:PROC				; operator new
EXTRN	??3@YAXPAXI@Z:PROC				; operator delete
EXTRN	?__global_delete@@YAXPAXI@Z:PROC		; __global_delete
EXTRN	??_U@YAPAXI@Z:PROC				; operator new[]
EXTRN	??_V@YAXPAX@Z:PROC				; operator delete[]
EXTRN	??_V@YAXPAXI@Z:PROC				; operator delete[]
EXTRN	__invoke_watson:PROC
EXTRN	__imp__InitializeCriticalSection@4:PROC
EXTRN	__imp__EnterCriticalSection@4:PROC
EXTRN	__imp__LeaveCriticalSection@4:PROC
EXTRN	__imp__InitializeCriticalSectionAndSpinCount@8:PROC
EXTRN	__imp__DeleteCriticalSection@4:PROC
EXTRN	__imp__GetTickCount@0:PROC
EXTRN	__imp__VirtualAlloc@16:PROC
EXTRN	__imp__lstrcpyA@8:PROC
EXTRN	?_Xlength_error@std@@YAXPBD@Z:PROC		; std::_Xlength_error
EXTRN	___std_exception_copy:PROC
EXTRN	___std_exception_destroy:PROC
EXTRN	??_ECMclCritSec@@UAEPAXI@Z:PROC			; CMclCritSec::`vector deleting destructor'
EXTRN	?Error@@YAPBDPBDZZ:PROC				; Error
EXTRN	?WriteLog@@YAXPBDZZ:PROC			; WriteLog
EXTRN	??0CUserTaskBar@@QAE@XZ:PROC			; CUserTaskBar::CUserTaskBar
EXTRN	??1CUserTaskBar@@UAE@XZ:PROC			; CUserTaskBar::~CUserTaskBar
EXTRN	??0CRTMessenger@@QAE@XZ:PROC			; CRTMessenger::CRTMessenger
EXTRN	??1CRTMessenger@@UAE@XZ:PROC			; CRTMessenger::~CRTMessenger
EXTRN	??0CBuffMgr@@QAE@PAVCMover@@@Z:PROC		; CBuffMgr::CBuffMgr
EXTRN	??1CBuffMgr@@UAE@XZ:PROC			; CBuffMgr::~CBuffMgr
EXTRN	??4CBuffMgr@@QAEAAV0@AAV0@@Z:PROC		; CBuffMgr::operator=
EXTRN	??0CPet@@QAE@XZ:PROC				; CPet::CPet
EXTRN	??4CPet@@QAEAAV0@AAV0@@Z:PROC			; CPet::operator=
EXTRN	??0CPiercing@@QAE@XZ:PROC			; CPiercing::CPiercing
EXTRN	??1CPiercing@@UAE@XZ:PROC			; CPiercing::~CPiercing
EXTRN	??4CPiercing@@QAEAAV0@ABV0@@Z:PROC		; CPiercing::operator=
EXTRN	?SetPiercingSize@CPiercing@@QAEXH@Z:PROC	; CPiercing::SetPiercingSize
EXTRN	?GetPiercingSize@CPiercing@@QAEHXZ:PROC		; CPiercing::GetPiercingSize
EXTRN	?SetPiercingItem@CPiercing@@QAEXHK@Z:PROC	; CPiercing::SetPiercingItem
EXTRN	?Serialize@CObj@@UAEXAAVCAr@@@Z:PROC		; CObj::Serialize
EXTRN	??_ECObj@@UAEPAXI@Z:PROC			; CObj::`vector deleting destructor'
EXTRN	?Serialize@CCtrl@@UAEXAAVCAr@@@Z:PROC		; CCtrl::Serialize
EXTRN	??_ECCtrl@@UAEPAXI@Z:PROC			; CCtrl::`vector deleting destructor'
EXTRN	?Serialize@CItemBase@@UAEXAAVCAr@@@Z:PROC	; CItemBase::Serialize
EXTRN	??_ECItemBase@@UAEPAXI@Z:PROC			; CItemBase::`vector deleting destructor'
EXTRN	?Serialize@CItemElem@@UAEXAAVCAr@@@Z:PROC	; CItemElem::Serialize
EXTRN	?Serialize@CItem@@UAEXAAVCAr@@@Z:PROC		; CItem::Serialize
EXTRN	??_ECItem@@UAEPAXI@Z:PROC			; CItem::`vector deleting destructor'
EXTRN	??_ECAction@@UAEPAXI@Z:PROC			; CAction::`vector deleting destructor'
EXTRN	??_ECActionMover@@UAEPAXI@Z:PROC		; CActionMover::`vector deleting destructor'
EXTRN	??_E?$CItemContainer@VCItemElem@@@@UAEPAXI@Z:PROC ; CItemContainer<CItemElem>::`vector deleting destructor'
EXTRN	??0CPocketController@@QAE@XZ:PROC		; CPocketController::CPocketController
EXTRN	??1CPocketController@@UAE@XZ:PROC		; CPocketController::~CPocketController
EXTRN	?Copy@CPocketController@@QAEXAAV1@@Z:PROC	; CPocketController::Copy
EXTRN	?Serialize@CMover@@UAEXAAVCAr@@@Z:PROC		; CMover::Serialize
EXTRN	??_ECMover@@UAEPAXI@Z:PROC			; CMover::`vector deleting destructor'
EXTRN	?Get@CSerialNumber@@QAEKXZ:PROC			; CSerialNumber::Get
EXTRN	?GetInstance@CSerialNumber@@SAPAV1@XZ:PROC	; CSerialNumber::GetInstance
EXTRN	@__security_check_cookie@4:PROC
EXTRN	__CxxThrowException@8:PROC
EXTRN	___CxxFrameHandler3:PROC
EXTRN	_memcpy:PROC
EXTRN	_memset:PROC
EXTRN	?prj@@3VCProject@@A:BYTE			; prj
EXTRN	___security_cookie:DWORD
EXTRN	__fltused:DWORD
_BSS	SEGMENT
?m_pPool@CMover@@2PAV?$MemPooler@VCMover@@@@A DD 01H DUP (?) ; CMover::m_pPool
_BSS	ENDS
CRT$XCU	SEGMENT
??m_pPool$initializer$@CMover@@2P6AXXZA@@3P6AXXZA DD FLAT:??__E?m_pPool@CMover@@2PAV?$MemPooler@VCMover@@@@A@@YAXXZ ; ??m_pPool$initializer$@CMover@@2P6AXXZA@@3P6AXXZA
CRT$XCU	ENDS
;	COMDAT ??_R1A@?0A@EA@CItem@@8
rdata$r	SEGMENT
??_R1A@?0A@EA@CItem@@8 DD FLAT:??_R0?AVCItem@@@8	; CItem::`RTTI Base Class Descriptor at (0,-1,0,64)'
	DD	02H
	DD	00H
	DD	0ffffffffH
	DD	00H
	DD	040H
	DD	FLAT:??_R3CItem@@8
rdata$r	ENDS
;	COMDAT ??_R2CItem@@8
rdata$r	SEGMENT
??_R2CItem@@8 DD FLAT:??_R1A@?0A@EA@CItem@@8		; CItem::`RTTI Base Class Array'
	DD	FLAT:??_R1A@?0A@EA@CCtrl@@8
	DD	FLAT:??_R1A@?0A@EA@CObj@@8
rdata$r	ENDS
;	COMDAT ??_R3CItem@@8
rdata$r	SEGMENT
??_R3CItem@@8 DD 00H					; CItem::`RTTI Class Hierarchy Descriptor'
	DD	00H
	DD	03H
	DD	FLAT:??_R2CItem@@8
rdata$r	ENDS
;	COMDAT ??_R0?AVCItem@@@8
data$rs	SEGMENT
??_R0?AVCItem@@@8 DD FLAT:??_7type_info@@6B@		; CItem `RTTI Type Descriptor'
	DD	00H
	DB	'.?AVCItem@@', 00H
data$rs	ENDS
;	COMDAT ??_R4CItem@@6B@
rdata$r	SEGMENT
??_R4CItem@@6B@ DD 00H					; CItem::`RTTI Complete Object Locator'
	DD	00H
	DD	00H
	DD	FLAT:??_R0?AVCItem@@@8
	DD	FLAT:??_R3CItem@@8
rdata$r	ENDS
;	COMDAT ??_R1A@?0A@EA@CItemElem@@8
rdata$r	SEGMENT
??_R1A@?0A@EA@CItemElem@@8 DD FLAT:??_R0?AVCItemElem@@@8 ; CItemElem::`RTTI Base Class Descriptor at (0,-1,0,64)'
	DD	01H
	DD	00H
	DD	0ffffffffH
	DD	00H
	DD	040H
	DD	FLAT:??_R3CItemElem@@8
rdata$r	ENDS
;	COMDAT ??_R2CItemElem@@8
rdata$r	SEGMENT
??_R2CItemElem@@8 DD FLAT:??_R1A@?0A@EA@CItemElem@@8	; CItemElem::`RTTI Base Class Array'
	DD	FLAT:??_R1A@?0A@EA@CItemBase@@8
rdata$r	ENDS
;	COMDAT ??_R3CItemElem@@8
rdata$r	SEGMENT
??_R3CItemElem@@8 DD 00H				; CItemElem::`RTTI Class Hierarchy Descriptor'
	DD	00H
	DD	02H
	DD	FLAT:??_R2CItemElem@@8
rdata$r	ENDS
;	COMDAT ??_R0?AVCItemElem@@@8
data$rs	SEGMENT
??_R0?AVCItemElem@@@8 DD FLAT:??_7type_info@@6B@	; CItemElem `RTTI Type Descriptor'
	DD	00H
	DB	'.?AVCItemElem@@', 00H
data$rs	ENDS
;	COMDAT ??_R4CItemElem@@6B@
rdata$r	SEGMENT
??_R4CItemElem@@6B@ DD 00H				; CItemElem::`RTTI Complete Object Locator'
	DD	00H
	DD	00H
	DD	FLAT:??_R0?AVCItemElem@@@8
	DD	FLAT:??_R3CItemElem@@8
rdata$r	ENDS
;	COMDAT ??_R1A@?0A@EA@CMover@@8
rdata$r	SEGMENT
??_R1A@?0A@EA@CMover@@8 DD FLAT:??_R0?AVCMover@@@8	; CMover::`RTTI Base Class Descriptor at (0,-1,0,64)'
	DD	02H
	DD	00H
	DD	0ffffffffH
	DD	00H
	DD	040H
	DD	FLAT:??_R3CMover@@8
rdata$r	ENDS
;	COMDAT ??_R2CMover@@8
rdata$r	SEGMENT
??_R2CMover@@8 DD FLAT:??_R1A@?0A@EA@CMover@@8		; CMover::`RTTI Base Class Array'
	DD	FLAT:??_R1A@?0A@EA@CCtrl@@8
	DD	FLAT:??_R1A@?0A@EA@CObj@@8
rdata$r	ENDS
;	COMDAT ??_R3CMover@@8
rdata$r	SEGMENT
??_R3CMover@@8 DD 00H					; CMover::`RTTI Class Hierarchy Descriptor'
	DD	00H
	DD	03H
	DD	FLAT:??_R2CMover@@8
rdata$r	ENDS
;	COMDAT ??_R0?AVCMover@@@8
data$rs	SEGMENT
??_R0?AVCMover@@@8 DD FLAT:??_7type_info@@6B@		; CMover `RTTI Type Descriptor'
	DD	00H
	DB	'.?AVCMover@@', 00H
data$rs	ENDS
;	COMDAT ??_R4CMover@@6B@
rdata$r	SEGMENT
??_R4CMover@@6B@ DD 00H					; CMover::`RTTI Complete Object Locator'
	DD	00H
	DD	00H
	DD	FLAT:??_R0?AVCMover@@@8
	DD	FLAT:??_R3CMover@@8
rdata$r	ENDS
;	COMDAT ??_C@_0FA@MKEIOHMC@template?5?$DMclass?5T?$DO?5BOOL?5CItemCo@
CONST	SEGMENT
??_C@_0FA@MKEIOHMC@template?5?$DMclass?5T?$DO?5BOOL?5CItemCo@ DB 'templat'
	DB	'e <class T> BOOL CItemContainer<T>::Add( DWORD dwItemId... : '
	DB	'nNumtmp > 0', 00H				; `string'
CONST	ENDS
;	COMDAT ??_C@_0CG@DAKLJMI@Not?5ItemProp?5RemoveItemIK3?5?5?3?5?$CF@
CONST	SEGMENT
??_C@_0CG@DAKLJMI@Not?5ItemProp?5RemoveItemIK3?5?5?3?5?$CF@ DB 'Not ItemP'
	DB	'rop RemoveItemIK3  : %s, %d ', 00H		; `string'
CONST	ENDS
;	COMDAT ??_C@_0CI@FEMGPALB@Not?5UnEquip?5RemoveItemIK3?5?5?3?5?$CFs@
CONST	SEGMENT
??_C@_0CI@FEMGPALB@Not?5UnEquip?5RemoveItemIK3?5?5?3?5?$CFs@ DB 'Not UnEq'
	DB	'uip RemoveItemIK3  : %s, %d, %d', 00H	; `string'
CONST	ENDS
;	COMDAT ??_R1A@?0A@EA@?$CItemContainer@VCItemElem@@@@8
rdata$r	SEGMENT
??_R1A@?0A@EA@?$CItemContainer@VCItemElem@@@@8 DD FLAT:??_R0?AV?$CItemContainer@VCItemElem@@@@@8 ; CItemContainer<CItemElem>::`RTTI Base Class Descriptor at (0,-1,0,64)'
	DD	00H
	DD	00H
	DD	0ffffffffH
	DD	00H
	DD	040H
	DD	FLAT:??_R3?$CItemContainer@VCItemElem@@@@8
rdata$r	ENDS
;	COMDAT ??_R2?$CItemContainer@VCItemElem@@@@8
rdata$r	SEGMENT
??_R2?$CItemContainer@VCItemElem@@@@8 DD FLAT:??_R1A@?0A@EA@?$CItemContainer@VCItemElem@@@@8 ; CItemContainer<CItemElem>::`RTTI Base Class Array'
rdata$r	ENDS
;	COMDAT ??_R3?$CItemContainer@VCItemElem@@@@8
rdata$r	SEGMENT
??_R3?$CItemContainer@VCItemElem@@@@8 DD 00H		; CItemContainer<CItemElem>::`RTTI Class Hierarchy Descriptor'
	DD	00H
	DD	01H
	DD	FLAT:??_R2?$CItemContainer@VCItemElem@@@@8
rdata$r	ENDS
;	COMDAT ??_R0?AV?$CItemContainer@VCItemElem@@@@@8
data$rs	SEGMENT
??_R0?AV?$CItemContainer@VCItemElem@@@@@8 DD FLAT:??_7type_info@@6B@ ; CItemContainer<CItemElem> `RTTI Type Descriptor'
	DD	00H
	DB	'.?AV?$CItemContainer@VCItemElem@@@@', 00H
data$rs	ENDS
;	COMDAT ??_R4?$CItemContainer@VCItemElem@@@@6B@
rdata$r	SEGMENT
??_R4?$CItemContainer@VCItemElem@@@@6B@ DD 00H		; CItemContainer<CItemElem>::`RTTI Complete Object Locator'
	DD	00H
	DD	00H
	DD	FLAT:??_R0?AV?$CItemContainer@VCItemElem@@@@@8
	DD	FLAT:??_R3?$CItemContainer@VCItemElem@@@@8
rdata$r	ENDS
;	COMDAT ??_R1A@?0A@EA@CActionMover@@8
rdata$r	SEGMENT
??_R1A@?0A@EA@CActionMover@@8 DD FLAT:??_R0?AVCActionMover@@@8 ; CActionMover::`RTTI Base Class Descriptor at (0,-1,0,64)'
	DD	01H
	DD	00H
	DD	0ffffffffH
	DD	00H
	DD	040H
	DD	FLAT:??_R3CActionMover@@8
rdata$r	ENDS
;	COMDAT ??_R2CActionMover@@8
rdata$r	SEGMENT
??_R2CActionMover@@8 DD FLAT:??_R1A@?0A@EA@CActionMover@@8 ; CActionMover::`RTTI Base Class Array'
	DD	FLAT:??_R1A@?0A@EA@CAction@@8
rdata$r	ENDS
;	COMDAT ??_R3CActionMover@@8
rdata$r	SEGMENT
??_R3CActionMover@@8 DD 00H				; CActionMover::`RTTI Class Hierarchy Descriptor'
	DD	00H
	DD	02H
	DD	FLAT:??_R2CActionMover@@8
rdata$r	ENDS
;	COMDAT ??_R0?AVCActionMover@@@8
data$rs	SEGMENT
??_R0?AVCActionMover@@@8 DD FLAT:??_7type_info@@6B@	; CActionMover `RTTI Type Descriptor'
	DD	00H
	DB	'.?AVCActionMover@@', 00H
data$rs	ENDS
;	COMDAT ??_R4CActionMover@@6B@
rdata$r	SEGMENT
??_R4CActionMover@@6B@ DD 00H				; CActionMover::`RTTI Complete Object Locator'
	DD	00H
	DD	00H
	DD	FLAT:??_R0?AVCActionMover@@@8
	DD	FLAT:??_R3CActionMover@@8
rdata$r	ENDS
;	COMDAT ??_R1A@?0A@EA@CAction@@8
rdata$r	SEGMENT
??_R1A@?0A@EA@CAction@@8 DD FLAT:??_R0?AVCAction@@@8	; CAction::`RTTI Base Class Descriptor at (0,-1,0,64)'
	DD	00H
	DD	00H
	DD	0ffffffffH
	DD	00H
	DD	040H
	DD	FLAT:??_R3CAction@@8
rdata$r	ENDS
;	COMDAT ??_R2CAction@@8
rdata$r	SEGMENT
??_R2CAction@@8 DD FLAT:??_R1A@?0A@EA@CAction@@8	; CAction::`RTTI Base Class Array'
rdata$r	ENDS
;	COMDAT ??_R3CAction@@8
rdata$r	SEGMENT
??_R3CAction@@8 DD 00H					; CAction::`RTTI Class Hierarchy Descriptor'
	DD	00H
	DD	01H
	DD	FLAT:??_R2CAction@@8
rdata$r	ENDS
;	COMDAT ??_R0?AVCAction@@@8
data$rs	SEGMENT
??_R0?AVCAction@@@8 DD FLAT:??_7type_info@@6B@		; CAction `RTTI Type Descriptor'
	DD	00H
	DB	'.?AVCAction@@', 00H
data$rs	ENDS
;	COMDAT ??_R4CAction@@6B@
rdata$r	SEGMENT
??_R4CAction@@6B@ DD 00H				; CAction::`RTTI Complete Object Locator'
	DD	00H
	DD	00H
	DD	FLAT:??_R0?AVCAction@@@8
	DD	FLAT:??_R3CAction@@8
rdata$r	ENDS
;	COMDAT ??_R1A@?0A@EA@CItemBase@@8
rdata$r	SEGMENT
??_R1A@?0A@EA@CItemBase@@8 DD FLAT:??_R0?AVCItemBase@@@8 ; CItemBase::`RTTI Base Class Descriptor at (0,-1,0,64)'
	DD	00H
	DD	00H
	DD	0ffffffffH
	DD	00H
	DD	040H
	DD	FLAT:??_R3CItemBase@@8
rdata$r	ENDS
;	COMDAT ??_R2CItemBase@@8
rdata$r	SEGMENT
??_R2CItemBase@@8 DD FLAT:??_R1A@?0A@EA@CItemBase@@8	; CItemBase::`RTTI Base Class Array'
rdata$r	ENDS
;	COMDAT ??_R3CItemBase@@8
rdata$r	SEGMENT
??_R3CItemBase@@8 DD 00H				; CItemBase::`RTTI Class Hierarchy Descriptor'
	DD	00H
	DD	01H
	DD	FLAT:??_R2CItemBase@@8
rdata$r	ENDS
;	COMDAT ??_R0?AVCItemBase@@@8
data$rs	SEGMENT
??_R0?AVCItemBase@@@8 DD FLAT:??_7type_info@@6B@	; CItemBase `RTTI Type Descriptor'
	DD	00H
	DB	'.?AVCItemBase@@', 00H
data$rs	ENDS
;	COMDAT ??_R4CItemBase@@6B@
rdata$r	SEGMENT
??_R4CItemBase@@6B@ DD 00H				; CItemBase::`RTTI Complete Object Locator'
	DD	00H
	DD	00H
	DD	FLAT:??_R0?AVCItemBase@@@8
	DD	FLAT:??_R3CItemBase@@8
rdata$r	ENDS
;	COMDAT ??_R1A@?0A@EA@CCtrl@@8
rdata$r	SEGMENT
??_R1A@?0A@EA@CCtrl@@8 DD FLAT:??_R0?AVCCtrl@@@8	; CCtrl::`RTTI Base Class Descriptor at (0,-1,0,64)'
	DD	01H
	DD	00H
	DD	0ffffffffH
	DD	00H
	DD	040H
	DD	FLAT:??_R3CCtrl@@8
rdata$r	ENDS
;	COMDAT ??_R2CCtrl@@8
rdata$r	SEGMENT
??_R2CCtrl@@8 DD FLAT:??_R1A@?0A@EA@CCtrl@@8		; CCtrl::`RTTI Base Class Array'
	DD	FLAT:??_R1A@?0A@EA@CObj@@8
rdata$r	ENDS
;	COMDAT ??_R3CCtrl@@8
rdata$r	SEGMENT
??_R3CCtrl@@8 DD 00H					; CCtrl::`RTTI Class Hierarchy Descriptor'
	DD	00H
	DD	02H
	DD	FLAT:??_R2CCtrl@@8
rdata$r	ENDS
;	COMDAT ??_R0?AVCCtrl@@@8
data$rs	SEGMENT
??_R0?AVCCtrl@@@8 DD FLAT:??_7type_info@@6B@		; CCtrl `RTTI Type Descriptor'
	DD	00H
	DB	'.?AVCCtrl@@', 00H
data$rs	ENDS
;	COMDAT ??_R4CCtrl@@6B@
rdata$r	SEGMENT
??_R4CCtrl@@6B@ DD 00H					; CCtrl::`RTTI Complete Object Locator'
	DD	00H
	DD	00H
	DD	FLAT:??_R0?AVCCtrl@@@8
	DD	FLAT:??_R3CCtrl@@8
rdata$r	ENDS
;	COMDAT ??_R1A@?0A@EA@CObj@@8
rdata$r	SEGMENT
??_R1A@?0A@EA@CObj@@8 DD FLAT:??_R0?AVCObj@@@8		; CObj::`RTTI Base Class Descriptor at (0,-1,0,64)'
	DD	00H
	DD	00H
	DD	0ffffffffH
	DD	00H
	DD	040H
	DD	FLAT:??_R3CObj@@8
rdata$r	ENDS
;	COMDAT ??_R2CObj@@8
rdata$r	SEGMENT
??_R2CObj@@8 DD	FLAT:??_R1A@?0A@EA@CObj@@8		; CObj::`RTTI Base Class Array'
rdata$r	ENDS
;	COMDAT ??_R3CObj@@8
rdata$r	SEGMENT
??_R3CObj@@8 DD	00H					; CObj::`RTTI Class Hierarchy Descriptor'
	DD	00H
	DD	01H
	DD	FLAT:??_R2CObj@@8
rdata$r	ENDS
;	COMDAT ??_R0?AVCObj@@@8
data$rs	SEGMENT
??_R0?AVCObj@@@8 DD FLAT:??_7type_info@@6B@		; CObj `RTTI Type Descriptor'
	DD	00H
	DB	'.?AVCObj@@', 00H
data$rs	ENDS
;	COMDAT ??_R4CObj@@6B@
rdata$r	SEGMENT
??_R4CObj@@6B@ DD 00H					; CObj::`RTTI Complete Object Locator'
	DD	00H
	DD	00H
	DD	FLAT:??_R0?AVCObj@@@8
	DD	FLAT:??_R3CObj@@8
rdata$r	ENDS
;	COMDAT ??_R1A@?0A@EA@CMclCritSec@@8
rdata$r	SEGMENT
??_R1A@?0A@EA@CMclCritSec@@8 DD FLAT:??_R0?AVCMclCritSec@@@8 ; CMclCritSec::`RTTI Base Class Descriptor at (0,-1,0,64)'
	DD	00H
	DD	00H
	DD	0ffffffffH
	DD	00H
	DD	040H
	DD	FLAT:??_R3CMclCritSec@@8
rdata$r	ENDS
;	COMDAT ??_R2CMclCritSec@@8
rdata$r	SEGMENT
??_R2CMclCritSec@@8 DD FLAT:??_R1A@?0A@EA@CMclCritSec@@8 ; CMclCritSec::`RTTI Base Class Array'
rdata$r	ENDS
;	COMDAT ??_R3CMclCritSec@@8
rdata$r	SEGMENT
??_R3CMclCritSec@@8 DD 00H				; CMclCritSec::`RTTI Class Hierarchy Descriptor'
	DD	00H
	DD	01H
	DD	FLAT:??_R2CMclCritSec@@8
rdata$r	ENDS
;	COMDAT ??_R0?AVCMclCritSec@@@8
data$rs	SEGMENT
??_R0?AVCMclCritSec@@@8 DD FLAT:??_7type_info@@6B@	; CMclCritSec `RTTI Type Descriptor'
	DD	00H
	DB	'.?AVCMclCritSec@@', 00H
data$rs	ENDS
;	COMDAT ??_R4CMclCritSec@@6B@
rdata$r	SEGMENT
??_R4CMclCritSec@@6B@ DD 00H				; CMclCritSec::`RTTI Complete Object Locator'
	DD	00H
	DD	00H
	DD	FLAT:??_R0?AVCMclCritSec@@@8
	DD	FLAT:??_R3CMclCritSec@@8
rdata$r	ENDS
;	COMDAT ??_7CMover@@6B@
CONST	SEGMENT
??_7CMover@@6B@ DD FLAT:??_R4CMover@@6B@		; CMover::`vftable'
	DD	FLAT:??_ECMover@@UAEPAXI@Z
	DD	FLAT:?Serialize@CMover@@UAEXAAVCAr@@@Z
CONST	ENDS
;	COMDAT ??_7?$CItemContainer@VCItemElem@@@@6B@
CONST	SEGMENT
??_7?$CItemContainer@VCItemElem@@@@6B@ DD FLAT:??_R4?$CItemContainer@VCItemElem@@@@6B@ ; CItemContainer<CItemElem>::`vftable'
	DD	FLAT:??_E?$CItemContainer@VCItemElem@@@@UAEPAXI@Z
CONST	ENDS
;	COMDAT ??_7CActionMover@@6B@
CONST	SEGMENT
??_7CActionMover@@6B@ DD FLAT:??_R4CActionMover@@6B@	; CActionMover::`vftable'
	DD	FLAT:??_ECActionMover@@UAEPAXI@Z
CONST	ENDS
;	COMDAT ??_7CAction@@6B@
CONST	SEGMENT
??_7CAction@@6B@ DD FLAT:??_R4CAction@@6B@		; CAction::`vftable'
	DD	FLAT:??_ECAction@@UAEPAXI@Z
CONST	ENDS
;	COMDAT ??_7CItem@@6B@
CONST	SEGMENT
??_7CItem@@6B@ DD FLAT:??_R4CItem@@6B@			; CItem::`vftable'
	DD	FLAT:??_ECItem@@UAEPAXI@Z
	DD	FLAT:?Serialize@CItem@@UAEXAAVCAr@@@Z
CONST	ENDS
;	COMDAT ??_7CItemElem@@6B@
CONST	SEGMENT
??_7CItemElem@@6B@ DD FLAT:??_R4CItemElem@@6B@		; CItemElem::`vftable'
	DD	FLAT:??_ECItemElem@@UAEPAXI@Z
	DD	FLAT:?Empty@CItemElem@@UAEXXZ
	DD	FLAT:??4CItemBase@@UAEAAV0@AAV0@@Z
	DD	FLAT:?Serialize@CItemElem@@UAEXAAVCAr@@@Z
	DD	FLAT:??4CItemElem@@UAEAAV0@AAV0@@Z
CONST	ENDS
;	COMDAT ??_7CItemBase@@6B@
CONST	SEGMENT
??_7CItemBase@@6B@ DD FLAT:??_R4CItemBase@@6B@		; CItemBase::`vftable'
	DD	FLAT:??_ECItemBase@@UAEPAXI@Z
	DD	FLAT:?Empty@CItemBase@@UAEXXZ
	DD	FLAT:??4CItemBase@@UAEAAV0@AAV0@@Z
	DD	FLAT:?Serialize@CItemBase@@UAEXAAVCAr@@@Z
CONST	ENDS
;	COMDAT ??_7CCtrl@@6B@
CONST	SEGMENT
??_7CCtrl@@6B@ DD FLAT:??_R4CCtrl@@6B@			; CCtrl::`vftable'
	DD	FLAT:??_ECCtrl@@UAEPAXI@Z
	DD	FLAT:?Serialize@CCtrl@@UAEXAAVCAr@@@Z
CONST	ENDS
;	COMDAT ??_7CObj@@6B@
CONST	SEGMENT
??_7CObj@@6B@ DD FLAT:??_R4CObj@@6B@			; CObj::`vftable'
	DD	FLAT:??_ECObj@@UAEPAXI@Z
	DD	FLAT:?Serialize@CObj@@UAEXAAVCAr@@@Z
CONST	ENDS
;	COMDAT ??_C@_0CL@NHHPIJBJ@CProject?3?3GetMoverProp?5out?5of?5r@
CONST	SEGMENT
??_C@_0CL@NHHPIJBJ@CProject?3?3GetMoverProp?5out?5of?5r@ DB 'CProject::Ge'
	DB	'tMoverProp out of range. %d %d', 00H	; `string'
CONST	ENDS
;	COMDAT ??_7CMclCritSec@@6B@
CONST	SEGMENT
??_7CMclCritSec@@6B@ DD FLAT:??_R4CMclCritSec@@6B@	; CMclCritSec::`vftable'
	DD	FLAT:??_ECMclCritSec@@UAEPAXI@Z
CONST	ENDS
;	COMDAT xdata$x
xdata$x	SEGMENT
__unwindtable$??__E?m_pPool@CMover@@2PAV?$MemPooler@VCMover@@@@A@@YAXXZ DD 0ffffffffH
	DD	FLAT:__unwindfunclet$??__E?m_pPool@CMover@@2PAV?$MemPooler@VCMover@@@@A@@YAXXZ$0
	DD	00H
	DD	FLAT:__unwindfunclet$??__E?m_pPool@CMover@@2PAV?$MemPooler@VCMover@@@@A@@YAXXZ$1
	DD	01H
	DD	FLAT:__unwindfunclet$??__E?m_pPool@CMover@@2PAV?$MemPooler@VCMover@@@@A@@YAXXZ$3
__ehfuncinfo$??__E?m_pPool@CMover@@2PAV?$MemPooler@VCMover@@@@A@@YAXXZ DD 019930522H
	DD	03H
	DD	FLAT:__unwindtable$??__E?m_pPool@CMover@@2PAV?$MemPooler@VCMover@@@@A@@YAXXZ
	DD	2 DUP(00H)
	DD	2 DUP(00H)
	DD	00H
	DD	01H
xdata$x	ENDS
;	COMDAT xdata$x
xdata$x	SEGMENT
__unwindtable$??$?0ABQAX@?$_List_node_emplace_op2@V?$allocator@U?$_List_node@PAXPAX@std@@@std@@@std@@QAE@AAV?$allocator@U?$_List_node@PAXPAX@std@@@1@ABQAX@Z DD 0ffffffffH
	DD	FLAT:__unwindfunclet$??$?0ABQAX@?$_List_node_emplace_op2@V?$allocator@U?$_List_node@PAXPAX@std@@@std@@@std@@QAE@AAV?$allocator@U?$_List_node@PAXPAX@std@@@1@ABQAX@Z$0
__ehfuncinfo$??$?0ABQAX@?$_List_node_emplace_op2@V?$allocator@U?$_List_node@PAXPAX@std@@@std@@@std@@QAE@AAV?$allocator@U?$_List_node@PAXPAX@std@@@1@ABQAX@Z DD 019930522H
	DD	01H
	DD	FLAT:__unwindtable$??$?0ABQAX@?$_List_node_emplace_op2@V?$allocator@U?$_List_node@PAXPAX@std@@@std@@@std@@QAE@AAV?$allocator@U?$_List_node@PAXPAX@std@@@1@ABQAX@Z
	DD	2 DUP(00H)
	DD	2 DUP(00H)
	DD	00H
	DD	01H
xdata$x	ENDS
;	COMDAT xdata$x
xdata$x	SEGMENT
__unwindtable$??$_Emplace@ABQAX@?$list@PAXV?$allocator@PAX@std@@@std@@QAEPAU?$_List_node@PAXPAX@1@QAU21@ABQAX@Z DD 0ffffffffH
	DD	FLAT:__unwindfunclet$??$_Emplace@ABQAX@?$list@PAXV?$allocator@PAX@std@@@std@@QAEPAU?$_List_node@PAXPAX@1@QAU21@ABQAX@Z$1
__ehfuncinfo$??$_Emplace@ABQAX@?$list@PAXV?$allocator@PAX@std@@@std@@QAEPAU?$_List_node@PAXPAX@1@QAU21@ABQAX@Z DD 019930522H
	DD	01H
	DD	FLAT:__unwindtable$??$_Emplace@ABQAX@?$list@PAXV?$allocator@PAX@std@@@std@@QAEPAU?$_List_node@PAXPAX@1@QAU21@ABQAX@Z
	DD	2 DUP(00H)
	DD	2 DUP(00H)
	DD	00H
	DD	01H
xdata$x	ENDS
;	COMDAT xdata$x
xdata$x	SEGMENT
__unwindtable$?Create@?$MemPooler@VCMover@@@@IAEXXZ DD 0ffffffffH
	DD	FLAT:__unwindfunclet$?Create@?$MemPooler@VCMover@@@@IAEXXZ$1
__ehfuncinfo$?Create@?$MemPooler@VCMover@@@@IAEXXZ DD 019930522H
	DD	01H
	DD	FLAT:__unwindtable$?Create@?$MemPooler@VCMover@@@@IAEXXZ
	DD	2 DUP(00H)
	DD	2 DUP(00H)
	DD	00H
	DD	01H
xdata$x	ENDS
;	COMDAT xdata$x
xdata$x	SEGMENT
__unwindtable$??0?$MemPooler@VCMover@@@@QAE@H@Z DD 0ffffffffH
	DD	FLAT:__unwindfunclet$??0?$MemPooler@VCMover@@@@QAE@H@Z$0
	DD	00H
	DD	FLAT:__unwindfunclet$??0?$MemPooler@VCMover@@@@QAE@H@Z$2
__ehfuncinfo$??0?$MemPooler@VCMover@@@@QAE@H@Z DD 019930522H
	DD	02H
	DD	FLAT:__unwindtable$??0?$MemPooler@VCMover@@@@QAE@H@Z
	DD	2 DUP(00H)
	DD	2 DUP(00H)
	DD	00H
	DD	01H
xdata$x	ENDS
;	COMDAT xdata$x
xdata$x	SEGMENT
__ehfuncinfo$??1CMover@@UAE@XZ DD 019930522H
	DD	00H
	DD	00H
	DD	2 DUP(00H)
	DD	2 DUP(00H)
	DD	00H
	DD	05H
xdata$x	ENDS
;	COMDAT xdata$x
xdata$x	SEGMENT
__ehfuncinfo$??0CMover@@QAE@XZ DD 019930522H
	DD	08H
	DD	FLAT:__unwindtable$??0CMover@@QAE@XZ
	DD	2 DUP(00H)
	DD	2 DUP(00H)
	DD	00H
	DD	01H
__unwindtable$??0CMover@@QAE@XZ DD 0ffffffffH
	DD	FLAT:__unwindfunclet$??0CMover@@QAE@XZ$0
	DD	00H
	DD	FLAT:__unwindfunclet$??0CMover@@QAE@XZ$1
	DD	01H
	DD	FLAT:__unwindfunclet$??0CMover@@QAE@XZ$2
	DD	02H
	DD	FLAT:__unwindfunclet$??0CMover@@QAE@XZ$3
	DD	03H
	DD	FLAT:__unwindfunclet$??0CMover@@QAE@XZ$4
	DD	04H
	DD	FLAT:__unwindfunclet$??0CMover@@QAE@XZ$5
	DD	05H
	DD	FLAT:__unwindfunclet$??0CMover@@QAE@XZ$6
	DD	06H
	DD	FLAT:__unwindfunclet$??0CMover@@QAE@XZ$7
xdata$x	ENDS
;	COMDAT xdata$x
xdata$x	SEGMENT
__unwindtable$?SetItemContainer@?$CItemContainer@VCItemElem@@@@QAEXKKK@Z DD 0ffffffffH
	DD	FLAT:__unwindfunclet$?SetItemContainer@?$CItemContainer@VCItemElem@@@@QAEXKKK@Z$0
__ehfuncinfo$?SetItemContainer@?$CItemContainer@VCItemElem@@@@QAEXKKK@Z DD 019930522H
	DD	01H
	DD	FLAT:__unwindtable$?SetItemContainer@?$CItemContainer@VCItemElem@@@@QAEXKKK@Z
	DD	2 DUP(00H)
	DD	2 DUP(00H)
	DD	00H
	DD	01H
xdata$x	ENDS
;	COMDAT xdata$x
xdata$x	SEGMENT
__ehfuncinfo$??_ECItemElem@@UAEPAXI@Z DD 019930522H
	DD	00H
	DD	00H
	DD	2 DUP(00H)
	DD	2 DUP(00H)
	DD	00H
	DD	05H
xdata$x	ENDS
;	COMDAT xdata$x
xdata$x	SEGMENT
__unwindtable$??4CItemElem@@UAEAAV0@AAV0@@Z DD 0ffffffffH
	DD	FLAT:__unwindfunclet$??4CItemElem@@UAEAAV0@AAV0@@Z$0
__ehfuncinfo$??4CItemElem@@UAEAAV0@AAV0@@Z DD 019930522H
	DD	01H
	DD	FLAT:__unwindtable$??4CItemElem@@UAEAAV0@AAV0@@Z
	DD	2 DUP(00H)
	DD	2 DUP(00H)
	DD	00H
	DD	01H
xdata$x	ENDS
;	COMDAT xdata$x
xdata$x	SEGMENT
__unwindtable$??0CItemElem@@QAE@XZ DD 0ffffffffH
	DD	FLAT:__unwindfunclet$??0CItemElem@@QAE@XZ$0
__ehfuncinfo$??0CItemElem@@QAE@XZ DD 019930522H
	DD	01H
	DD	FLAT:__unwindtable$??0CItemElem@@QAE@XZ
	DD	2 DUP(00H)
	DD	2 DUP(00H)
	DD	00H
	DD	01H
xdata$x	ENDS
;	COMDAT xdata$x
xdata$x	SEGMENT
__unwindtable$?push_back@?$list@PAXV?$allocator@PAX@std@@@std@@QAEXABQAX@Z DD 0ffffffffH
	DD	FLAT:__unwindfunclet$?push_back@?$list@PAXV?$allocator@PAX@std@@@std@@QAEXABQAX@Z$1
__ehfuncinfo$?push_back@?$list@PAXV?$allocator@PAX@std@@@std@@QAEXABQAX@Z DD 019930522H
	DD	01H
	DD	FLAT:__unwindtable$?push_back@?$list@PAXV?$allocator@PAX@std@@@std@@QAEXABQAX@Z
	DD	2 DUP(00H)
	DD	2 DUP(00H)
	DD	00H
	DD	01H
xdata$x	ENDS
; Function compile flags: /Ogtp
; File C:\IAGOS\server\v18\Source\Source\_network\objects\Obj.cpp
; File C:\IAGOS\server\v18\Source\Source\_Network\Misc\Include\mempooler.h
; File C:\Program Files\Microsoft Visual Studio\2022\Professional\VC\Tools\MSVC\14.44.35207\include\xmemory
; File C:\Program Files\Microsoft Visual Studio\2022\Professional\VC\Tools\MSVC\14.44.35207\include\list
; File C:\Program Files\Microsoft Visual Studio\2022\Professional\VC\Tools\MSVC\14.44.35207\include\xmemory
; File C:\Program Files\Microsoft Visual Studio\2022\Professional\VC\Tools\MSVC\14.44.35207\include\list
; File C:\IAGOS\server\v18\Source\Source\_Network\Misc\Include\mempooler.h
; File C:\Program Files\Microsoft Visual Studio\2022\Professional\VC\Tools\MSVC\14.44.35207\include\list
; File C:\Program Files\Microsoft Visual Studio\2022\Professional\VC\Tools\MSVC\14.44.35207\include\xmemory
; File C:\Program Files\Microsoft Visual Studio\2022\Professional\VC\Tools\MSVC\14.44.35207\include\list
; File C:\Program Files\Microsoft Visual Studio\2022\Professional\VC\Tools\MSVC\14.44.35207\include\xmemory
; File C:\Program Files\Microsoft Visual Studio\2022\Professional\VC\Tools\MSVC\14.44.35207\include\list
; File C:\Program Files\Microsoft Visual Studio\2022\Professional\VC\Tools\MSVC\14.44.35207\include\xmemory
; File C:\Program Files\Microsoft Visual Studio\2022\Professional\VC\Tools\MSVC\14.44.35207\include\list
; File C:\IAGOS\server\v18\Source\Source\_Network\Misc\Include\mempooler.h
; File C:\IAGOS\server\v18\Source\Source\_network\objects\Obj.cpp
; File C:\Program Files\Microsoft Visual Studio\2022\Professional\VC\Tools\MSVC\14.44.35207\include\list
; File C:\IAGOS\server\v18\Source\Source\_network\objects\Obj.cpp
;	COMDAT ??__E?m_pPool@CMover@@2PAV?$MemPooler@VCMover@@@@A@@YAXXZ
text$di	SEGMENT
__Op$2 = -28						; size = 8
$T3 = -20						; size = 4
_pMemBlock$1$ = -16					; size = 4
__$EHRec$ = -12						; size = 12
??__E?m_pPool@CMover@@2PAV?$MemPooler@VCMover@@@@A@@YAXXZ PROC ; `dynamic initializer for 'CMover::m_pPool'', COMDAT

; 99   : CMoverPool*	CMover::m_pPool	= new CMoverPool( 1024 );

  00000	55		 push	 ebp
  00001	8b ec		 mov	 ebp, esp
  00003	6a ff		 push	 -1
  00005	68 00 00 00 00	 push	 __ehhandler$??__E?m_pPool@CMover@@2PAV?$MemPooler@VCMover@@@@A@@YAXXZ
  0000a	64 a1 00 00 00
	00		 mov	 eax, DWORD PTR fs:0
  00010	50		 push	 eax
  00011	83 ec 10	 sub	 esp, 16			; 00000010H
  00014	53		 push	 ebx
  00015	56		 push	 esi
  00016	57		 push	 edi
  00017	a1 00 00 00 00	 mov	 eax, DWORD PTR ___security_cookie
  0001c	33 c5		 xor	 eax, ebp
  0001e	50		 push	 eax
  0001f	8d 45 f4	 lea	 eax, DWORD PTR __$EHRec$[ebp]
  00022	64 a3 00 00 00
	00		 mov	 DWORD PTR fs:0, eax
  00028	68 94 00 00 00	 push	 148			; 00000094H
  0002d	e8 00 00 00 00	 call	 ??2@YAPAXI@Z		; operator new
  00032	8b f0		 mov	 esi, eax
  00034	83 c4 04	 add	 esp, 4
  00037	89 75 ec	 mov	 DWORD PTR $T3[ebp], esi
  0003a	c7 45 fc 00 00
	00 00		 mov	 DWORD PTR __$EHRec$[ebp+8], 0
  00041	85 f6		 test	 esi, esi
  00043	0f 84 d7 00 00
	00		 je	 $LN3@m_pPool
; File C:\IAGOS\server\v18\Source\Source\_Network\Misc\Include\mempooler.h

; 36   : 													m_pFreeList( NULL ),

  00049	c7 06 00 00 00
	00		 mov	 DWORD PTR [esi], 0

; 37   : 													m_nAllocCount( 0 )
; 38   : #endif	// __VM_0819
; 39   : 		{

  0004f	8d 7e 04	 lea	 edi, DWORD PTR [esi+4]
; File C:\Program Files\Microsoft Visual Studio\2022\Professional\VC\Tools\MSVC\14.44.35207\include\xmemory

; 136  :         return ::operator new(_Bytes);

  00052	6a 0c		 push	 12			; 0000000cH
; File C:\Program Files\Microsoft Visual Studio\2022\Professional\VC\Tools\MSVC\14.44.35207\include\list

; 353  :     _List_val() noexcept : _Myhead(), _Mysize(0) {} // initialize data

  00054	c7 07 00 00 00
	00		 mov	 DWORD PTR [edi], 0
  0005a	c7 47 04 00 00
	00 00		 mov	 DWORD PTR [edi+4], 0
; File C:\Program Files\Microsoft Visual Studio\2022\Professional\VC\Tools\MSVC\14.44.35207\include\xmemory

; 136  :         return ::operator new(_Bytes);

  00061	e8 00 00 00 00	 call	 ??2@YAPAXI@Z		; operator new
  00066	83 c4 04	 add	 esp, 4
; File C:\Program Files\Microsoft Visual Studio\2022\Professional\VC\Tools\MSVC\14.44.35207\include\list

; 1852 :         _Construct_in_place(_Newhead->_Next, _Newhead);

  00069	89 00		 mov	 DWORD PTR [eax], eax

; 1853 :         _Construct_in_place(_Newhead->_Prev, _Newhead);

  0006b	89 40 04	 mov	 DWORD PTR [eax+4], eax

; 1854 :         _Mypair._Myval2._Myhead = _Newhead;

  0006e	89 07		 mov	 DWORD PTR [edi], eax
; File C:\IAGOS\server\v18\Source\Source\_Network\Misc\Include\mempooler.h

; 48   : 			InitializeCriticalSectionAndSpinCount( &m_cs, 2000 );

  00070	68 d0 07 00 00	 push	 2000			; 000007d0H
  00075	8d 46 18	 lea	 eax, DWORD PTR [esi+24]
  00078	c6 45 fc 01	 mov	 BYTE PTR __$EHRec$[ebp+8], 1
  0007c	50		 push	 eax
  0007d	c7 46 0c 00 04
	00 00		 mov	 DWORD PTR [esi+12], 1024 ; 00000400H
  00084	c7 46 14 00 00
	00 00		 mov	 DWORD PTR [esi+20], 0
  0008b	c7 46 10 54 41
	00 00		 mov	 DWORD PTR [esi+16], 16724 ; 00004154H
  00092	ff 15 00 00 00
	00		 call	 DWORD PTR __imp__InitializeCriticalSectionAndSpinCount@8

; 127  : 			const int AllocationSize	= m_nListBlockSize * m_nNumOfBlock;

  00098	8b 46 10	 mov	 eax, DWORD PTR [esi+16]
  0009b	0f af 46 0c	 imul	 eax, DWORD PTR [esi+12]

; 128  : 			void* pMemBlock		= VirtualAlloc( NULL, AllocationSize, MEM_RESERVE | MEM_COMMIT, PAGE_READWRITE );

  0009f	6a 04		 push	 4
  000a1	68 00 30 00 00	 push	 12288			; 00003000H
  000a6	50		 push	 eax
  000a7	6a 00		 push	 0
  000a9	ff 15 00 00 00
	00		 call	 DWORD PTR __imp__VirtualAlloc@16
  000af	89 45 f0	 mov	 DWORD PTR _pMemBlock$1$[ebp], eax
  000b2	85 c0		 test	 eax, eax

; 129  : 			ASSERT( pMemBlock );
; 130  : 			if( !pMemBlock )

  000b4	75 0d		 jne	 SHORT $LN38@m_pPool

; 131  : 				Error( "bad alloc" );

  000b6	68 00 00 00 00	 push	 OFFSET ??_C@_09PKKCPLIP@bad?5alloc@
  000bb	e8 00 00 00 00	 call	 ?Error@@YAPBDPBDZZ	; Error
  000c0	83 c4 04	 add	 esp, 4
$LN38@m_pPool:
; File C:\Program Files\Microsoft Visual Studio\2022\Professional\VC\Tools\MSVC\14.44.35207\include\list

; 1030 :         if (_Mysize == max_size()) {

  000c3	81 7f 04 55 55
	55 15		 cmp	 DWORD PTR [edi+4], 357913941 ; 15555555H

; 1274 :         _Emplace(_Mypair._Myval2._Myhead, _Val);

  000ca	8b 1f		 mov	 ebx, DWORD PTR [edi]

; 1030 :         if (_Mysize == max_size()) {

  000cc	74 6c		 je	 SHORT $LN106@m_pPool
; File C:\Program Files\Microsoft Visual Studio\2022\Professional\VC\Tools\MSVC\14.44.35207\include\xmemory

; 1160 :     _CONSTEXPR20 explicit _Alloc_construct_ptr(_Alloc& _Al_) : _Al(_Al_), _Ptr(nullptr) {}

  000ce	89 7d e4	 mov	 DWORD PTR __Op$2[ebp], edi

; 136  :         return ::operator new(_Bytes);

  000d1	6a 0c		 push	 12			; 0000000cH
; File C:\Program Files\Microsoft Visual Studio\2022\Professional\VC\Tools\MSVC\14.44.35207\include\list

; 593  :     explicit _List_node_emplace_op2(_Alnode& _Al_, _Valtys&&... _Vals) : _Alloc_construct_ptr<_Alnode>(_Al_) {

  000d3	c6 45 fc 02	 mov	 BYTE PTR __$EHRec$[ebp+8], 2
; File C:\Program Files\Microsoft Visual Studio\2022\Professional\VC\Tools\MSVC\14.44.35207\include\xmemory

; 1167 :         _Ptr = nullptr; // if allocate throws, prevents double-free

  000d7	c7 45 e8 00 00
	00 00		 mov	 DWORD PTR __Op$2[ebp+4], 0

; 136  :         return ::operator new(_Bytes);

  000de	e8 00 00 00 00	 call	 ??2@YAPAXI@Z		; operator new
; File C:\Program Files\Microsoft Visual Studio\2022\Professional\VC\Tools\MSVC\14.44.35207\include\list

; 595  :         _Alnode_traits::construct(this->_Al, _STD addressof(this->_Ptr->_Myval), _STD forward<_Valtys>(_Vals)...);

  000e3	8b 4d f0	 mov	 ecx, DWORD PTR _pMemBlock$1$[ebp]
; File C:\Program Files\Microsoft Visual Studio\2022\Professional\VC\Tools\MSVC\14.44.35207\include\xmemory

; 136  :         return ::operator new(_Bytes);

  000e6	83 c4 04	 add	 esp, 4
; File C:\Program Files\Microsoft Visual Studio\2022\Professional\VC\Tools\MSVC\14.44.35207\include\list

; 595  :         _Alnode_traits::construct(this->_Al, _STD addressof(this->_Ptr->_Myval), _STD forward<_Valtys>(_Vals)...);

  000e9	89 48 08	 mov	 DWORD PTR [eax+8], ecx

; 1035 :         ++_Mysize;

  000ec	ff 47 04	 inc	 DWORD PTR [edi+4]

; 608  :         const pointer _Insert_after = _Insert_before->_Prev;

  000ef	8b 4b 04	 mov	 ecx, DWORD PTR [ebx+4]

; 609  :         _Construct_in_place(this->_Ptr->_Next, _Insert_before);

  000f2	89 18		 mov	 DWORD PTR [eax], ebx

; 610  :         _Construct_in_place(this->_Ptr->_Prev, _Insert_after);

  000f4	89 48 04	 mov	 DWORD PTR [eax+4], ecx

; 611  :         const auto _Result    = this->_Ptr;
; 612  :         this->_Ptr            = pointer{};
; 613  :         _Insert_before->_Prev = _Result;

  000f7	89 43 04	 mov	 DWORD PTR [ebx+4], eax

; 614  :         _Insert_after->_Next  = _Result;

  000fa	89 01		 mov	 DWORD PTR [ecx], eax
; File C:\IAGOS\server\v18\Source\Source\_Network\Misc\Include\mempooler.h

; 134  : 			pNode	= reinterpret_cast<BlockNode*>( ( reinterpret_cast<DWORD>( pNode ) ) + ( m_nNumOfBlock - 1 ) * ( m_nListBlockSize ) );	// set pNode to last

  000fc	8b 56 0c	 mov	 edx, DWORD PTR [esi+12]
  000ff	8b 4e 10	 mov	 ecx, DWORD PTR [esi+16]
  00102	4a		 dec	 edx
  00103	0f af ca	 imul	 ecx, edx
  00106	03 4d f0	 add	 ecx, DWORD PTR _pMemBlock$1$[ebp]

; 135  : 			for( int i = m_nNumOfBlock - 1; i >= 0; i-- )

  00109	85 d2		 test	 edx, edx
  0010b	78 15		 js	 SHORT $LN4@m_pPool
  0010d	0f 1f 00	 npad	 3
$LL37@m_pPool:

; 136  : 			{
; 137  : 				pNode->pNext	= m_pFreeList;

  00110	8b 06		 mov	 eax, DWORD PTR [esi]
  00112	89 01		 mov	 DWORD PTR [ecx], eax

; 138  : 				m_pFreeList	= pNode;

  00114	89 0e		 mov	 DWORD PTR [esi], ecx

; 139  : 				pNode	= reinterpret_cast<BlockNode*>( ( reinterpret_cast<DWORD>( pNode ) ) - m_nListBlockSize );	// set pNode to previous

  00116	2b 4e 10	 sub	 ecx, DWORD PTR [esi+16]
  00119	83 ea 01	 sub	 edx, 1
  0011c	79 f2		 jns	 SHORT $LL37@m_pPool
; File C:\IAGOS\server\v18\Source\Source\_network\objects\Obj.cpp

; 99   : CMoverPool*	CMover::m_pPool	= new CMoverPool( 1024 );

  0011e	eb 02		 jmp	 SHORT $LN4@m_pPool
$LN3@m_pPool:
  00120	33 f6		 xor	 esi, esi
$LN4@m_pPool:
  00122	89 35 00 00 00
	00		 mov	 DWORD PTR ?m_pPool@CMover@@2PAV?$MemPooler@VCMover@@@@A, esi ; CMover::m_pPool
  00128	8b 4d f4	 mov	 ecx, DWORD PTR __$EHRec$[ebp]
  0012b	64 89 0d 00 00
	00 00		 mov	 DWORD PTR fs:0, ecx
  00132	59		 pop	 ecx
  00133	5f		 pop	 edi
  00134	5e		 pop	 esi
  00135	5b		 pop	 ebx
  00136	8b e5		 mov	 esp, ebp
  00138	5d		 pop	 ebp
  00139	c3		 ret	 0
$LN106@m_pPool:
; File C:\Program Files\Microsoft Visual Studio\2022\Professional\VC\Tools\MSVC\14.44.35207\include\list

; 1031 :             _Xlength_error("list too long");

  0013a	68 00 00 00 00	 push	 OFFSET ??_C@_0O@NKNMEGII@list?5too?5long@
  0013f	e8 00 00 00 00	 call	 ?_Xlength_error@std@@YAXPBD@Z ; std::_Xlength_error
$LN104@m_pPool:
  00144	cc		 int	 3
text$di	ENDS
;	COMDAT text$x
text$x	SEGMENT
__unwindfunclet$??__E?m_pPool@CMover@@2PAV?$MemPooler@VCMover@@@@A@@YAXXZ$0:
  00000	68 94 00 00 00	 push	 148			; 00000094H
  00005	8b 45 ec	 mov	 eax, DWORD PTR $T3[ebp]
  00008	50		 push	 eax
  00009	e8 00 00 00 00	 call	 ??3@YAXPAXI@Z		; operator delete
  0000e	83 c4 08	 add	 esp, 8
  00011	c3		 ret	 0
__unwindfunclet$??__E?m_pPool@CMover@@2PAV?$MemPooler@VCMover@@@@A@@YAXXZ$1:
  00012	8b 4d ec	 mov	 ecx, DWORD PTR $T3[ebp]
  00015	83 c1 04	 add	 ecx, 4
  00018	e9 00 00 00 00	 jmp	 ??1?$list@PAXV?$allocator@PAX@std@@@std@@QAE@XZ ; std::list<void *,std::allocator<void *> >::~list<void *,std::allocator<void *> >
__unwindfunclet$??__E?m_pPool@CMover@@2PAV?$MemPooler@VCMover@@@@A@@YAXXZ$3:
  0001d	8d 4d e4	 lea	 ecx, DWORD PTR __Op$2[ebp]
  00020	e9 00 00 00 00	 jmp	 ??1?$_Alloc_construct_ptr@V?$allocator@U?$_List_node@PAXPAX@std@@@std@@@std@@QAE@XZ ; std::_Alloc_construct_ptr<std::allocator<std::_List_node<void *,void *> > >::~_Alloc_construct_ptr<std::allocator<std::_List_node<void *,void *> > >
  00025	cc		 int	 3
  00026	cc		 int	 3
  00027	cc		 int	 3
  00028	cc		 int	 3
  00029	cc		 int	 3
__ehhandler$??__E?m_pPool@CMover@@2PAV?$MemPooler@VCMover@@@@A@@YAXXZ:
  0002a	90		 npad	 1
  0002b	90		 npad	 1
  0002c	8b 54 24 08	 mov	 edx, DWORD PTR [esp+8]
  00030	8d 42 0c	 lea	 eax, DWORD PTR [edx+12]
  00033	8b 4a e0	 mov	 ecx, DWORD PTR [edx-32]
  00036	33 c8		 xor	 ecx, eax
  00038	e8 00 00 00 00	 call	 @__security_check_cookie@4
  0003d	b8 00 00 00 00	 mov	 eax, OFFSET __ehfuncinfo$??__E?m_pPool@CMover@@2PAV?$MemPooler@VCMover@@@@A@@YAXXZ
  00042	e9 00 00 00 00	 jmp	 ___CxxFrameHandler3
text$x	ENDS
??__E?m_pPool@CMover@@2PAV?$MemPooler@VCMover@@@@A@@YAXXZ ENDP ; `dynamic initializer for 'CMover::m_pPool''
; Function compile flags: /Ogtp
; File C:\Program Files\Microsoft Visual Studio\2022\Professional\VC\Tools\MSVC\14.44.35207\include\xmemory
;	COMDAT ??$_Allocate_manually_vector_aligned@U_Default_allocate_traits@std@@@std@@YAPAXI@Z
_TEXT	SEGMENT
__Bytes$ = 8						; size = 4
??$_Allocate_manually_vector_aligned@U_Default_allocate_traits@std@@@std@@YAPAXI@Z PROC ; std::_Allocate_manually_vector_aligned<std::_Default_allocate_traits>, COMDAT

; 182  : __declspec(allocator) void* _Allocate_manually_vector_aligned(const size_t _Bytes) {

  00000	55		 push	 ebp
  00001	8b ec		 mov	 ebp, esp

; 183  :     // allocate _Bytes manually aligned to at least _Big_allocation_alignment
; 184  :     const size_t _Block_size = _Non_user_size + _Bytes;

  00003	8b 45 08	 mov	 eax, DWORD PTR __Bytes$[ebp]
  00006	8d 48 23	 lea	 ecx, DWORD PTR [eax+35]

; 185  :     if (_Block_size <= _Bytes) {

  00009	3b c8		 cmp	 ecx, eax
  0000b	0f 86 00 00 00
	00		 jbe	 ?_Throw_bad_array_new_length@std@@YAXXZ ; std::_Throw_bad_array_new_length

; 136  :         return ::operator new(_Bytes);

  00011	51		 push	 ecx
  00012	e8 00 00 00 00	 call	 ??2@YAPAXI@Z		; operator new

; 186  :         _Throw_bad_array_new_length(); // add overflow
; 187  :     }
; 188  : 
; 189  :     const uintptr_t _Ptr_container = reinterpret_cast<uintptr_t>(_Traits::_Allocate(_Block_size));

  00017	8b c8		 mov	 ecx, eax

; 136  :         return ::operator new(_Bytes);

  00019	83 c4 04	 add	 esp, 4

; 190  :     _STL_VERIFY(_Ptr_container != 0, "invalid argument"); // validate even in release since we're doing p[-1]

  0001c	85 c9		 test	 ecx, ecx
  0001e	74 0b		 je	 SHORT $LN9@Allocate_m

; 191  :     void* const _Ptr = reinterpret_cast<void*>((_Ptr_container + _Non_user_size) & ~(_Big_allocation_alignment - 1));

  00020	8d 41 23	 lea	 eax, DWORD PTR [ecx+35]
  00023	83 e0 e0	 and	 eax, -32		; ffffffe0H

; 192  :     static_cast<uintptr_t*>(_Ptr)[-1] = _Ptr_container;

  00026	89 48 fc	 mov	 DWORD PTR [eax-4], ecx

; 193  : 
; 194  : #ifdef _DEBUG
; 195  :     static_cast<uintptr_t*>(_Ptr)[-2] = _Big_allocation_sentinel;
; 196  : #endif // defined(_DEBUG)
; 197  :     return _Ptr;
; 198  : }

  00029	5d		 pop	 ebp
  0002a	c3		 ret	 0
$LN9@Allocate_m:

; 190  :     _STL_VERIFY(_Ptr_container != 0, "invalid argument"); // validate even in release since we're doing p[-1]

  0002b	6a 00		 push	 0
  0002d	6a 00		 push	 0
  0002f	6a 00		 push	 0
  00031	6a 00		 push	 0
  00033	6a 00		 push	 0
  00035	e8 00 00 00 00	 call	 __invoke_watson
$LN7@Allocate_m:
  0003a	cc		 int	 3
??$_Allocate_manually_vector_aligned@U_Default_allocate_traits@std@@@std@@YAPAXI@Z ENDP ; std::_Allocate_manually_vector_aligned<std::_Default_allocate_traits>
_TEXT	ENDS
; Function compile flags: /Ogtp
; File C:\Program Files\Microsoft Visual Studio\2022\Professional\VC\Tools\MSVC\14.44.35207\include\xmemory
;	COMDAT ??1?$_Alloc_construct_ptr@V?$allocator@U?$_List_node@PAXPAX@std@@@std@@@std@@QAE@XZ
_TEXT	SEGMENT
??1?$_Alloc_construct_ptr@V?$allocator@U?$_List_node@PAXPAX@std@@@std@@@std@@QAE@XZ PROC ; std::_Alloc_construct_ptr<std::allocator<std::_List_node<void *,void *> > >::~_Alloc_construct_ptr<std::allocator<std::_List_node<void *,void *> > >, COMDAT
; _this$ = ecx

; 1172 :         if (_Ptr) {

  00000	8b 41 04	 mov	 eax, DWORD PTR [ecx+4]
  00003	85 c0		 test	 eax, eax
  00005	74 0b		 je	 SHORT $LN10@Alloc_cons

; 289  :         ::operator delete(_Ptr, _Bytes);

  00007	6a 0c		 push	 12			; 0000000cH
  00009	50		 push	 eax
  0000a	e8 00 00 00 00	 call	 ??3@YAXPAXI@Z		; operator delete
  0000f	83 c4 08	 add	 esp, 8
$LN10@Alloc_cons:

; 1173 :             _Al.deallocate(_Ptr, 1);
; 1174 :         }
; 1175 :     }

  00012	c3		 ret	 0
??1?$_Alloc_construct_ptr@V?$allocator@U?$_List_node@PAXPAX@std@@@std@@@std@@QAE@XZ ENDP ; std::_Alloc_construct_ptr<std::allocator<std::_List_node<void *,void *> > >::~_Alloc_construct_ptr<std::allocator<std::_List_node<void *,void *> > >
_TEXT	ENDS
; Function compile flags: /Ogtp
; File C:\IAGOS\server\v18\Source\Source\_Network\Objects\Obj.h
; File C:\IAGOS\server\v18\Source\Source\_Network\Misc\Include\mempooler.h
;	COMDAT ??_GCMover@@UAEPAXI@Z
_TEXT	SEGMENT
___flags$ = 8						; size = 4
??_GCMover@@UAEPAXI@Z PROC				; CMover::`scalar deleting destructor', COMDAT
; _this$ = ecx
  00000	55		 push	 ebp
  00001	8b ec		 mov	 ebp, esp
  00003	56		 push	 esi
  00004	8b f1		 mov	 esi, ecx
  00006	e8 00 00 00 00	 call	 ??1CMover@@UAE@XZ	; CMover::~CMover
  0000b	8b 45 08	 mov	 eax, DWORD PTR ___flags$[ebp]
  0000e	a8 01		 test	 al, 1
  00010	74 56		 je	 SHORT $LN14@scalar
  00012	a8 04		 test	 al, 4
  00014	75 44		 jne	 SHORT $LN3@scalar
  00016	53		 push	 ebx
  00017	57		 push	 edi
; File C:\IAGOS\server\v18\Source\Source\_Network\Objects\Obj.h

; 1215 : 	void	operator delete( void* lpMem )	{	CMover::m_pPool->Free( (CMover*)lpMem );	}

  00018	8b 3d 00 00 00
	00		 mov	 edi, DWORD PTR ?m_pPool@CMover@@2PAV?$MemPooler@VCMover@@@@A ; CMover::m_pPool
; File C:\IAGOS\server\v18\Source\Source\_Network\Misc\Include\mempooler.h

; 88   : 			EnterCriticalSection( &m_cs );

  0001e	8d 5f 18	 lea	 ebx, DWORD PTR [edi+24]
  00021	53		 push	 ebx
  00022	ff 15 00 00 00
	00		 call	 DWORD PTR __imp__EnterCriticalSection@4

; 89   : 
; 90   : 			pNode	= ( reinterpret_cast<BlockNode*>( lpMem ) ) - 1;
; 91   : 			if( m_nAllocCount > 0 )

  00028	83 7f 14 00	 cmp	 DWORD PTR [edi+20], 0
  0002c	8d 4e fc	 lea	 ecx, DWORD PTR [esi-4]
  0002f	7e 09		 jle	 SHORT $LN12@scalar

; 92   : 			{
; 93   : 				pNode->pNext	= m_pFreeList;

  00031	8b 07		 mov	 eax, DWORD PTR [edi]
  00033	89 01		 mov	 DWORD PTR [ecx], eax

; 94   : 				m_pFreeList		= pNode;
; 95   : 				m_nAllocCount--;

  00035	ff 4f 14	 dec	 DWORD PTR [edi+20]
  00038	89 0f		 mov	 DWORD PTR [edi], ecx
$LN12@scalar:

; 96   : 			}
; 97   : 
; 98   : 			//	mulcom	BEGIN100422	¸Ţ¸đ¸®Ç® ĂĘ±âČ­
; 99   : 			::memset( lpMem, 0, sizeof(T) );

  0003a	68 50 41 00 00	 push	 16720			; 00004150H
  0003f	6a 00		 push	 0
  00041	56		 push	 esi
  00042	e8 00 00 00 00	 call	 _memset
  00047	83 c4 0c	 add	 esp, 12			; 0000000cH

; 100  : 			//	mulcom	END100422	¸Ţ¸đ¸®Ç® ĂĘ±âČ­
; 101  : 
; 102  : 			LeaveCriticalSection( &m_cs );

  0004a	53		 push	 ebx
  0004b	ff 15 00 00 00
	00		 call	 DWORD PTR __imp__LeaveCriticalSection@4
  00051	5f		 pop	 edi
  00052	5b		 pop	 ebx
  00053	8b c6		 mov	 eax, esi
  00055	5e		 pop	 esi
  00056	5d		 pop	 ebp
  00057	c2 04 00	 ret	 4
$LN3@scalar:
  0005a	68 50 41 00 00	 push	 16720			; 00004150H
  0005f	56		 push	 esi
  00060	e8 00 00 00 00	 call	 ?__global_delete@@YAXPAXI@Z ; __global_delete
  00065	83 c4 08	 add	 esp, 8
$LN14@scalar:
  00068	8b c6		 mov	 eax, esi
  0006a	5e		 pop	 esi
  0006b	5d		 pop	 ebp
  0006c	c2 04 00	 ret	 4
??_GCMover@@UAEPAXI@Z ENDP				; CMover::`scalar deleting destructor'
_TEXT	ENDS
; Function compile flags: /Ogtp
; File C:\IAGOS\server\v18\Source\Source\_network\objects\Obj.cpp
;	COMDAT ?PeriodTick@CMover@@QAEXXZ
_TEXT	SEGMENT
?PeriodTick@CMover@@QAEXXZ PROC				; CMover::PeriodTick, COMDAT
; _this$ = ecx

; 896  : {

  00000	53		 push	 ebx
  00001	56		 push	 esi
  00002	57		 push	 edi
  00003	8b f9		 mov	 edi, ecx

; 897  : 	char ch	= m_dwPeriodicTick == 0 ? 'O': 'P';
; 898  : 	BOOL bPut	= ( ch != 'P' );

  00005	33 db		 xor	 ebx, ebx
  00007	8b b7 f8 40 00
	00		 mov	 esi, DWORD PTR [edi+16632]
  0000d	85 f6		 test	 esi, esi
  0000f	0f 94 c3	 sete	 bl

; 899  : 	DWORD dwTick	= GetTickCount();

  00012	ff 15 00 00 00
	00		 call	 DWORD PTR __imp__GetTickCount@0

; 900  : 	if( !bPut )

  00018	85 f6		 test	 esi, esi
  0001a	74 08		 je	 SHORT $LN3@PeriodTick

; 901  : 	{
; 902  : 		if( m_dwPeriodicTick < dwTick )

  0001c	39 87 f8 40 00
	00		 cmp	 DWORD PTR [edi+16632], eax
  00022	72 04		 jb	 SHORT $LN6@PeriodTick
$LN3@PeriodTick:

; 903  : 			bPut	= TRUE;
; 904  : 	}
; 905  : 	if( bPut )

  00024	85 db		 test	 ebx, ebx
  00026	74 0b		 je	 SHORT $LN4@PeriodTick
$LN6@PeriodTick:

; 906  : 		m_dwPeriodicTick	= dwTick + MIN( 120 );

  00028	05 00 dd 6d 00	 add	 eax, 7200000		; 006ddd00H
  0002d	89 87 f8 40 00
	00		 mov	 DWORD PTR [edi+16632], eax
$LN4@PeriodTick:

; 907  : }

  00033	5f		 pop	 edi
  00034	5e		 pop	 esi
  00035	5b		 pop	 ebx
  00036	c3		 ret	 0
?PeriodTick@CMover@@QAEXXZ ENDP				; CMover::PeriodTick
_TEXT	ENDS
; Function compile flags: /Ogtp
; File C:\IAGOS\server\v18\Source\Source\_network\objects\Obj.cpp
;	COMDAT ?Copy@CMover@@QAEXPAV1@H@Z
_TEXT	SEGMENT
_this$1$ = -4						; size = 4
_pMover$ = 8						; size = 4
_bAll$ = 12						; size = 4
tv949 = 12						; size = 4
?Copy@CMover@@QAEXPAV1@H@Z PROC				; CMover::Copy, COMDAT
; _this$ = ecx

; 722  : {

  00000	55		 push	 ebp
  00001	8b ec		 mov	 ebp, esp
  00003	51		 push	 ecx
  00004	53		 push	 ebx
  00005	8b d9		 mov	 ebx, ecx
  00007	56		 push	 esi

; 723  : 	m_nSlot	= pMover->m_nSlot;

  00008	8b 75 08	 mov	 esi, DWORD PTR _pMover$[ebp]
  0000b	89 5d fc	 mov	 DWORD PTR _this$1$[ebp], ebx
  0000e	8a 86 c8 00 00
	00		 mov	 al, BYTE PTR [esi+200]
  00014	88 83 c8 00 00
	00		 mov	 BYTE PTR [ebx+200], al

; 724  : 	m_dwIndex	= pMover->m_dwIndex;

  0001a	8b 46 08	 mov	 eax, DWORD PTR [esi+8]
  0001d	89 43 08	 mov	 DWORD PTR [ebx+8], eax

; 725  : 	m_idPlayer	= pMover->m_idPlayer;

  00020	8b 86 90 00 00
	00		 mov	 eax, DWORD PTR [esi+144]
  00026	89 83 90 00 00
	00		 mov	 DWORD PTR [ebx+144], eax

; 726  : 	m_dwAuthorization	= pMover->m_dwAuthorization;

  0002c	8b 86 e0 02 00
	00		 mov	 eax, DWORD PTR [esi+736]
  00032	89 83 e0 02 00
	00		 mov	 DWORD PTR [ebx+736], eax

; 727  : 	m_idGuild	= pMover->m_idGuild;

  00038	8b 86 70 3b 00
	00		 mov	 eax, DWORD PTR [esi+15216]
  0003e	89 83 70 3b 00
	00		 mov	 DWORD PTR [ebx+15216], eax

; 728  : 	m_idWar		= pMover->m_idWar;

  00044	8b 86 74 3b 00
	00		 mov	 eax, DWORD PTR [esi+15220]
  0004a	89 83 74 3b 00
	00		 mov	 DWORD PTR [ebx+15220], eax

; 729  : 	m_dwMode	= pMover->m_dwMode;

  00050	8b 86 e4 02 00
	00		 mov	 eax, DWORD PTR [esi+740]
  00056	89 83 e4 02 00
	00		 mov	 DWORD PTR [ebx+740], eax

; 730  : 	lstrcpy( m_szBankPass, pMover->m_szBankPass );

  0005c	8d 86 c9 00 00
	00		 lea	 eax, DWORD PTR [esi+201]
  00062	50		 push	 eax
  00063	8d 83 c9 00 00
	00		 lea	 eax, DWORD PTR [ebx+201]
  00069	50		 push	 eax
  0006a	ff 15 00 00 00
	00		 call	 DWORD PTR __imp__lstrcpyA@8

; 731  : 	m_dwPeriodicTick	= pMover->m_dwPeriodicTick;

  00070	8b 86 f8 40 00
	00		 mov	 eax, DWORD PTR [esi+16632]

; 732  : #ifdef __RT_1025
; 733  : 	m_RTMessenger	= pMover->m_RTMessenger;

  00076	8d 8b 5c 3b 00
	00		 lea	 ecx, DWORD PTR [ebx+15196]
  0007c	8b 11		 mov	 edx, DWORD PTR [ecx]
  0007e	89 83 f8 40 00
	00		 mov	 DWORD PTR [ebx+16632], eax
  00084	8d 86 5c 3b 00
	00		 lea	 eax, DWORD PTR [esi+15196]
  0008a	50		 push	 eax
  0008b	ff 52 04	 call	 DWORD PTR [edx+4]

; 734  : #else	// __RT_1025
; 735  : 	m_Messenger		= pMover->m_Messenger;
; 736  : #endif	// __RT_1025
; 737  : #ifdef __BUFF_1107
; 738  : 	m_buffs	= pMover->m_buffs;

  0008e	8d 86 60 3f 00
	00		 lea	 eax, DWORD PTR [esi+16224]
  00094	50		 push	 eax
  00095	8d 8b 60 3f 00
	00		 lea	 ecx, DWORD PTR [ebx+16224]
  0009b	e8 00 00 00 00	 call	 ??4CBuffMgr@@QAEAAV0@AAV0@@Z ; CBuffMgr::operator=

; 739  : #endif	// __BUFF_1107
; 740  : #if __VER >= 14 // __PCBANG
; 741  : 	m_dwPCBangClass = pMover->m_dwPCBangClass;
; 742  : #endif // __PCBANG
; 743  : #if __VER >= 15 // __CAMPUS
; 744  : 	m_idCampus	= pMover->m_idCampus;
; 745  : 	m_nCampusPoint	= pMover->m_nCampusPoint;
; 746  : #endif // __CAMPUS
; 747  : 
; 748  : 	if( bAll )

  000a0	83 7d 0c 00	 cmp	 DWORD PTR _bAll$[ebp], 0
  000a4	8b 86 04 41 00
	00		 mov	 eax, DWORD PTR [esi+16644]
  000aa	89 83 04 41 00
	00		 mov	 DWORD PTR [ebx+16644], eax
  000b0	8b 86 10 41 00
	00		 mov	 eax, DWORD PTR [esi+16656]
  000b6	89 83 10 41 00
	00		 mov	 DWORD PTR [ebx+16656], eax
  000bc	8b 86 14 41 00
	00		 mov	 eax, DWORD PTR [esi+16660]
  000c2	89 83 14 41 00
	00		 mov	 DWORD PTR [ebx+16660], eax
  000c8	0f 84 43 05 00
	00		 je	 $LN5@Copy

; 749  : 	{
; 750  : 		m_Inventory.Copy( pMover->m_Inventory );

  000ce	57		 push	 edi
  000cf	8d 86 b4 3b 00
	00		 lea	 eax, DWORD PTR [esi+15284]
  000d5	50		 push	 eax
  000d6	8d 8b b4 3b 00
	00		 lea	 ecx, DWORD PTR [ebx+15284]
  000dc	e8 00 00 00 00	 call	 ?Copy@?$CItemContainer@VCItemElem@@@@QAEXAAV1@@Z ; CItemContainer<CItemElem>::Copy

; 751  : #if __VER >= 11 // __SYS_POCKET
; 752  : 		m_Pocket.Copy( pMover->m_Pocket );

  000e1	8d 86 c8 3b 00
	00		 lea	 eax, DWORD PTR [esi+15304]
  000e7	50		 push	 eax
  000e8	8d 8b c8 3b 00
	00		 lea	 ecx, DWORD PTR [ebx+15304]
  000ee	e8 00 00 00 00	 call	 ?Copy@CPocketController@@QAEXAAV1@@Z ; CPocketController::Copy

; 753  : #endif	// __SYS_POCKET
; 754  : 		memcpy( m_aEquipInfo, pMover->m_aEquipInfo, sizeof(EQUIP_INFO) * MAX_HUMAN_PARTS );
; 755  : 		memcpy( m_UserTaskBar.m_aSlotApplet, pMover->m_UserTaskBar.m_aSlotApplet, sizeof(m_UserTaskBar.m_aSlotApplet) );

  000f3	8b 45 08	 mov	 eax, DWORD PTR _pMover$[ebp]
  000f6	8d bb 70 3f 00
	00		 lea	 edi, DWORD PTR [ebx+16240]
  000fc	81 c6 70 3f 00
	00		 add	 esi, 16240		; 00003f70H
  00102	b9 5d 00 00 00	 mov	 ecx, 93			; 0000005dH
  00107	f3 a5		 rep movsd
  00109	8d b0 ec 02 00
	00		 lea	 esi, DWORD PTR [eax+748]
  0010f	b9 ac 02 00 00	 mov	 ecx, 684		; 000002acH

; 756  : 		memcpy( m_UserTaskBar.m_aSlotItem, pMover->m_UserTaskBar.m_aSlotItem, sizeof(m_UserTaskBar.m_aSlotItem) );

  00114	05 9c 0d 00 00	 add	 eax, 3484		; 00000d9cH
  00119	8d bb ec 02 00
	00		 lea	 edi, DWORD PTR [ebx+748]
  0011f	68 c0 2a 00 00	 push	 10944			; 00002ac0H
  00124	50		 push	 eax
  00125	8d 83 9c 0d 00
	00		 lea	 eax, DWORD PTR [ebx+3484]
  0012b	f3 a5		 rep movsd
  0012d	50		 push	 eax
  0012e	e8 00 00 00 00	 call	 _memcpy

; 757  : 		memcpy( m_UserTaskBar.m_aSlotQueue, pMover->m_UserTaskBar.m_aSlotQueue, sizeof(m_UserTaskBar.m_aSlotQueue) );

  00133	8b 75 08	 mov	 esi, DWORD PTR _pMover$[ebp]
  00136	8d bb 5c 38 00
	00		 lea	 edi, DWORD PTR [ebx+14428]
  0013c	81 c6 5c 38 00
	00		 add	 esi, 14428		; 0000385cH
  00142	b9 be 00 00 00	 mov	 ecx, 190		; 000000beH
  00147	f3 a5		 rep movsd

; 758  : 		m_UserTaskBar.m_nActionPoint	= pMover->m_UserTaskBar.m_nActionPoint;

  00149	8b 75 08	 mov	 esi, DWORD PTR _pMover$[ebp]
  0014c	83 c4 0c	 add	 esp, 12			; 0000000cH

; 759  : 		lstrcpy( m_szName, pMover->m_szName );

  0014f	8b 3d 00 00 00
	00		 mov	 edi, DWORD PTR __imp__lstrcpyA@8
  00155	8b 86 54 3b 00
	00		 mov	 eax, DWORD PTR [esi+15188]
  0015b	89 83 54 3b 00
	00		 mov	 DWORD PTR [ebx+15188], eax
  00161	8d 46 6c	 lea	 eax, DWORD PTR [esi+108]
  00164	50		 push	 eax
  00165	8d 43 6c	 lea	 eax, DWORD PTR [ebx+108]
  00168	50		 push	 eax
  00169	ff d7		 call	 edi

; 760  : 		m_vScale	= pMover->m_vScale;

  0016b	f3 0f 7e 46 0c	 movq	 xmm0, QWORD PTR [esi+12]
  00170	66 0f d6 43 0c	 movq	 QWORD PTR [ebx+12], xmm0
  00175	8b 46 14	 mov	 eax, DWORD PTR [esi+20]
  00178	89 43 14	 mov	 DWORD PTR [ebx+20], eax

; 761  : 		m_dwMotion	= pMover->m_dwMotion;

  0017b	8b 46 18	 mov	 eax, DWORD PTR [esi+24]
  0017e	89 43 18	 mov	 DWORD PTR [ebx+24], eax

; 762  : #ifdef __DBSERVER
; 763  : 		m_dwWorldID	= pMover->m_dwWorldID;

  00181	8b 86 44 3c 00
	00		 mov	 eax, DWORD PTR [esi+15428]
  00187	89 83 44 3c 00
	00		 mov	 DWORD PTR [ebx+15428], eax

; 764  : #endif	// __DBSERVER
; 765  : #ifdef __LAYER_1015
; 766  : 		SetLayer( pMover->GetLayer() );

  0018d	8b 46 2c	 mov	 eax, DWORD PTR [esi+44]
  00190	89 43 2c	 mov	 DWORD PTR [ebx+44], eax

; 767  : #endif	// __LAYER_1015
; 768  : 		m_vPos	= pMover->m_vPos;

  00193	f3 0f 7e 46 1c	 movq	 xmm0, QWORD PTR [esi+28]
  00198	66 0f d6 43 1c	 movq	 QWORD PTR [ebx+28], xmm0
  0019d	8b 46 24	 mov	 eax, DWORD PTR [esi+36]
  001a0	89 43 24	 mov	 DWORD PTR [ebx+36], eax

; 769  : 		m_fAngle	= pMover->m_fAngle;

  001a3	8b 46 28	 mov	 eax, DWORD PTR [esi+40]
  001a6	89 43 28	 mov	 DWORD PTR [ebx+40], eax

; 770  : 		lstrcpy( m_szCharacterKey, pMover->m_szCharacterKey );

  001a9	8d 46 38	 lea	 eax, DWORD PTR [esi+56]
  001ac	50		 push	 eax
  001ad	8d 43 38	 lea	 eax, DWORD PTR [ebx+56]
  001b0	50		 push	 eax
  001b1	ff d7		 call	 edi

; 771  : 		m_nHitPoint	= pMover->m_nHitPoint;

  001b3	8b d6		 mov	 edx, esi
  001b5	8b 82 94 00 00
	00		 mov	 eax, DWORD PTR [edx+148]
  001bb	89 83 94 00 00
	00		 mov	 DWORD PTR [ebx+148], eax

; 772  : 		m_nManaPoint	= pMover->m_nManaPoint;

  001c1	8b 82 98 00 00
	00		 mov	 eax, DWORD PTR [edx+152]
  001c7	89 83 98 00 00
	00		 mov	 DWORD PTR [ebx+152], eax

; 773  : 		m_nFatiguePoint	= pMover->m_nFatiguePoint;

  001cd	8b 82 9c 00 00
	00		 mov	 eax, DWORD PTR [edx+156]
  001d3	89 83 9c 00 00
	00		 mov	 DWORD PTR [ebx+156], eax

; 774  : 		m_dwSkinSet	= pMover->m_dwSkinSet;

  001d9	8b 82 a0 00 00
	00		 mov	 eax, DWORD PTR [edx+160]
  001df	89 83 a0 00 00
	00		 mov	 DWORD PTR [ebx+160], eax

; 775  : 		m_dwHairMesh	= pMover->m_dwHairMesh;

  001e5	8b 82 a4 00 00
	00		 mov	 eax, DWORD PTR [edx+164]
  001eb	89 83 a4 00 00
	00		 mov	 DWORD PTR [ebx+164], eax

; 776  : 		m_dwHairColor	= pMover->m_dwHairColor;

  001f1	8b 82 a8 00 00
	00		 mov	 eax, DWORD PTR [edx+168]
  001f7	89 83 a8 00 00
	00		 mov	 DWORD PTR [ebx+168], eax

; 777  : 		m_dwHeadMesh	= pMover->m_dwHeadMesh;

  001fd	8b 82 ac 00 00
	00		 mov	 eax, DWORD PTR [edx+172]
  00203	89 83 ac 00 00
	00		 mov	 DWORD PTR [ebx+172], eax

; 778  : 		SetSex( pMover->GetSex() );

  00209	0f b6 82 b8 00
	00 00		 movzx	 eax, BYTE PTR [edx+184]
  00210	88 83 b8 00 00
	00		 mov	 BYTE PTR [ebx+184], al

; 779  : 		m_dwRideItemIdx	= pMover->m_dwRideItemIdx;

  00216	8b 82 bc 00 00
	00		 mov	 eax, DWORD PTR [edx+188]
  0021c	89 83 bc 00 00
	00		 mov	 DWORD PTR [ebx+188], eax

; 780  : 		SetGold( pMover->GetGold() );

  00222	8b 42 34	 mov	 eax, DWORD PTR [edx+52]
  00225	89 43 34	 mov	 DWORD PTR [ebx+52], eax

; 781  : 		m_nJob	= pMover->m_nJob;

  00228	8b 82 c4 00 00
	00		 mov	 eax, DWORD PTR [edx+196]

; 782  : 		m_idparty	= pMover->m_idparty;
; 783  : #if __VER >= 8 // __S8_PK
; 784  : 		m_dwPKTime			= pMover->m_dwPKTime;
; 785  : 		m_nPKValue			= pMover->m_nPKValue;
; 786  : 		m_dwPKPropensity	= pMover->m_dwPKPropensity;
; 787  : 		m_dwPKExp			= pMover->m_dwPKExp;
; 788  : #else // __VER >= 8 // __S8_PK
; 789  : 		m_nNumKill	= pMover->m_nNumKill;
; 790  : 		m_nSlaughter	= pMover->m_nSlaughter;
; 791  : #endif // __VER >= 8 // __S8_PK
; 792  : #if __VER >= 8 // __CSC_VER8_5
; 793  : 		m_nAngelExp			= pMover->m_nAngelExp;
; 794  : 		m_nAngelLevel		= pMover->m_nAngelLevel;
; 795  : #endif // __CSC_VER8_5
; 796  : 		m_idMurderer	= pMover->m_idMurderer;
; 797  : 		m_nFame	= pMover->m_nFame;
; 798  : 		m_pActMover->m_dwState	= pMover->m_pActMover->GetState();
; 799  : 		m_pActMover->m_dwStateFlag	= pMover->m_pActMover->GetStateFlag();
; 800  : 		m_nStr	= pMover->m_nStr;
; 801  : 		m_nSta	= pMover->m_nSta;
; 802  : 		m_nDex	= pMover->m_nDex;
; 803  : 		m_nInt	= pMover->m_nInt;
; 804  : 		m_nLevel	= pMover->m_nLevel;
; 805  : 		m_nExp1	= pMover->m_nExp1;
; 806  : 		m_nFuel	= pMover->m_nFuel;
; 807  : 		m_tmAccFuel	= pMover->m_tmAccFuel;
; 808  : 		m_nSkillLevel	= pMover->m_nSkillLevel;
; 809  : 		m_nSkillPoint	= pMover->m_nSkillPoint;
; 810  : 		
; 811  : 		m_idMarkingWorld	= pMover->m_idMarkingWorld;
; 812  : 		m_vMarkingPos	= pMover->m_vMarkingPos;
; 813  : 		m_nRemainGP	= pMover->m_nRemainGP;
; 814  : #if __VER >= 12 // __MOD_TUTORIAL
; 815  : 		m_nTutorialState	= pMover->m_nTutorialState;
; 816  : #else	// __MOD_TUTORIAL
; 817  : 		m_nFlightLv	= pMover->m_nFlightLv;
; 818  : #endif	// __MOD_TUTORIAL
; 819  : 		m_nFxp	= pMover->m_nFxp;
; 820  : 		m_bPlayer	= TRUE;
; 821  : 		m_nDeathExp	= pMover->m_nDeathExp;
; 822  : 		m_nDeathLevel = pMover->m_nDeathLevel;
; 823  : 		memcpy( m_aJobSkill, pMover->m_aJobSkill, sizeof(m_aJobSkill) );

  0022e	8d b2 00 01 00
	00		 lea	 esi, DWORD PTR [edx+256]
  00234	89 83 c4 00 00
	00		 mov	 DWORD PTR [ebx+196], eax
  0023a	8d bb 00 01 00
	00		 lea	 edi, DWORD PTR [ebx+256]
  00240	8b 82 6c 3b 00
	00		 mov	 eax, DWORD PTR [edx+15212]
  00246	89 83 6c 3b 00
	00		 mov	 DWORD PTR [ebx+15212], eax
  0024c	8b 82 78 3b 00
	00		 mov	 eax, DWORD PTR [edx+15224]
  00252	89 83 78 3b 00
	00		 mov	 DWORD PTR [ebx+15224], eax
  00258	8b 82 7c 3b 00
	00		 mov	 eax, DWORD PTR [edx+15228]
  0025e	89 83 7c 3b 00
	00		 mov	 DWORD PTR [ebx+15228], eax
  00264	8b 82 80 3b 00
	00		 mov	 eax, DWORD PTR [edx+15232]
  0026a	89 83 80 3b 00
	00		 mov	 DWORD PTR [ebx+15232], eax
  00270	8b 82 84 3b 00
	00		 mov	 eax, DWORD PTR [edx+15236]
  00276	89 83 84 3b 00
	00		 mov	 DWORD PTR [ebx+15236], eax
  0027c	8b 82 88 3b 00
	00		 mov	 eax, DWORD PTR [edx+15240]
  00282	8b 8a 8c 3b 00
	00		 mov	 ecx, DWORD PTR [edx+15244]
  00288	89 8b 8c 3b 00
	00		 mov	 DWORD PTR [ebx+15244], ecx
  0028e	89 83 88 3b 00
	00		 mov	 DWORD PTR [ebx+15240], eax
  00294	8b 82 90 3b 00
	00		 mov	 eax, DWORD PTR [edx+15248]
  0029a	89 83 90 3b 00
	00		 mov	 DWORD PTR [ebx+15248], eax
  002a0	8b 82 98 3b 00
	00		 mov	 eax, DWORD PTR [edx+15256]
  002a6	89 83 98 3b 00
	00		 mov	 DWORD PTR [ebx+15256], eax
  002ac	8b 82 94 3b 00
	00		 mov	 eax, DWORD PTR [edx+15252]
  002b2	8b 8b b0 3b 00
	00		 mov	 ecx, DWORD PTR [ebx+15280]
  002b8	89 83 94 3b 00
	00		 mov	 DWORD PTR [ebx+15252], eax
  002be	8b 82 b0 3b 00
	00		 mov	 eax, DWORD PTR [edx+15280]
  002c4	8b 40 04	 mov	 eax, DWORD PTR [eax+4]
  002c7	89 41 04	 mov	 DWORD PTR [ecx+4], eax
  002ca	8b 82 b0 3b 00
	00		 mov	 eax, DWORD PTR [edx+15280]
  002d0	8b 8b b0 3b 00
	00		 mov	 ecx, DWORD PTR [ebx+15280]
  002d6	8b 40 08	 mov	 eax, DWORD PTR [eax+8]
  002d9	89 41 08	 mov	 DWORD PTR [ecx+8], eax
  002dc	8b 82 d4 00 00
	00		 mov	 eax, DWORD PTR [edx+212]
  002e2	89 83 d4 00 00
	00		 mov	 DWORD PTR [ebx+212], eax
  002e8	8b 82 d8 00 00
	00		 mov	 eax, DWORD PTR [edx+216]
  002ee	89 83 d8 00 00
	00		 mov	 DWORD PTR [ebx+216], eax
  002f4	8b 82 dc 00 00
	00		 mov	 eax, DWORD PTR [edx+220]
  002fa	89 83 dc 00 00
	00		 mov	 DWORD PTR [ebx+220], eax
  00300	8b 82 e0 00 00
	00		 mov	 eax, DWORD PTR [edx+224]
  00306	89 83 e0 00 00
	00		 mov	 DWORD PTR [ebx+224], eax
  0030c	8b 82 e4 00 00
	00		 mov	 eax, DWORD PTR [edx+228]
  00312	89 83 e4 00 00
	00		 mov	 DWORD PTR [ebx+228], eax
  00318	8b 82 f0 00 00
	00		 mov	 eax, DWORD PTR [edx+240]
  0031e	8b 8a f4 00 00
	00		 mov	 ecx, DWORD PTR [edx+244]
  00324	89 8b f4 00 00
	00		 mov	 DWORD PTR [ebx+244], ecx
  0032a	89 83 f0 00 00
	00		 mov	 DWORD PTR [ebx+240], eax
  00330	8b 82 c0 00 00
	00		 mov	 eax, DWORD PTR [edx+192]
  00336	89 83 c0 00 00
	00		 mov	 DWORD PTR [ebx+192], eax
  0033c	8b 82 3c 3c 00
	00		 mov	 eax, DWORD PTR [edx+15420]
  00342	89 83 3c 3c 00
	00		 mov	 DWORD PTR [ebx+15420], eax
  00348	8b 82 a8 3b 00
	00		 mov	 eax, DWORD PTR [edx+15272]
  0034e	89 83 a8 3b 00
	00		 mov	 DWORD PTR [ebx+15272], eax
  00354	8b 82 ac 3b 00
	00		 mov	 eax, DWORD PTR [edx+15276]
  0035a	89 83 ac 3b 00
	00		 mov	 DWORD PTR [ebx+15276], eax
  00360	8b 82 cc 02 00
	00		 mov	 eax, DWORD PTR [edx+716]
  00366	89 83 cc 02 00
	00		 mov	 DWORD PTR [ebx+716], eax
  0036c	f3 0f 7e 82 d0
	02 00 00	 movq	 xmm0, QWORD PTR [edx+720]
  00374	66 0f d6 83 d0
	02 00 00	 movq	 QWORD PTR [ebx+720], xmm0
  0037c	8b 82 d8 02 00
	00		 mov	 eax, DWORD PTR [edx+728]
  00382	89 83 d8 02 00
	00		 mov	 DWORD PTR [ebx+728], eax
  00388	8b 82 dc 02 00
	00		 mov	 eax, DWORD PTR [edx+732]
  0038e	89 83 dc 02 00
	00		 mov	 DWORD PTR [ebx+732], eax
  00394	8b 82 b0 00 00
	00		 mov	 eax, DWORD PTR [edx+176]
  0039a	89 83 b0 00 00
	00		 mov	 DWORD PTR [ebx+176], eax
  003a0	8b 82 b4 00 00
	00		 mov	 eax, DWORD PTR [edx+180]
  003a6	89 83 b4 00 00
	00		 mov	 DWORD PTR [ebx+180], eax
  003ac	c7 83 8c 00 00
	00 01 00 00 00	 mov	 DWORD PTR [ebx+140], 1
  003b6	8b 82 f8 00 00
	00		 mov	 eax, DWORD PTR [edx+248]
  003bc	8b 8a fc 00 00
	00		 mov	 ecx, DWORD PTR [edx+252]
  003c2	89 8b fc 00 00
	00		 mov	 DWORD PTR [ebx+252], ecx
  003c8	b9 66 00 00 00	 mov	 ecx, 102		; 00000066H
  003cd	89 83 f8 00 00
	00		 mov	 DWORD PTR [ebx+248], eax
  003d3	8b 82 e8 00 00
	00		 mov	 eax, DWORD PTR [edx+232]
  003d9	89 83 e8 00 00
	00		 mov	 DWORD PTR [ebx+232], eax
  003df	f3 a5		 rep movsd

; 824  : #ifdef __SKILL_0205
; 825  : 		memcpy( m_abUpdateSkill, pMover->m_abUpdateSkill, sizeof(m_abUpdateSkill) );

  003e1	0f 10 82 98 02
	00 00		 movups	 xmm0, XMMWORD PTR [edx+664]
  003e8	0f 11 83 98 02
	00 00		 movups	 XMMWORD PTR [ebx+664], xmm0
  003ef	0f 10 82 a8 02
	00 00		 movups	 xmm0, XMMWORD PTR [edx+680]
  003f6	0f 11 83 a8 02
	00 00		 movups	 XMMWORD PTR [ebx+680], xmm0
  003fd	0f 10 82 b8 02
	00 00		 movups	 xmm0, XMMWORD PTR [edx+696]
  00404	0f 11 83 b8 02
	00 00		 movups	 XMMWORD PTR [ebx+696], xmm0
  0040b	0f b7 82 c8 02
	00 00		 movzx	 eax, WORD PTR [edx+712]

; 826  : #endif	// __SKILL_0205
; 827  : 		memcpy( m_aQuest, pMover->m_aQuest, sizeof(QUEST) * MAX_QUEST );

  00412	b9 2c 01 00 00	 mov	 ecx, 300		; 0000012cH
  00417	8b bb ec 40 00
	00		 mov	 edi, DWORD PTR [ebx+16620]
  0041d	66 89 83 c8 02
	00 00		 mov	 WORD PTR [ebx+712], ax
  00424	0f b6 82 ca 02
	00 00		 movzx	 eax, BYTE PTR [edx+714]
  0042b	88 83 ca 02 00
	00		 mov	 BYTE PTR [ebx+714], al
  00431	8b b2 ec 40 00
	00		 mov	 esi, DWORD PTR [edx+16620]
  00437	f3 a5		 rep movsd

; 828  : 		m_nQuestSize	= pMover->m_nQuestSize;

  00439	0f b6 82 f4 40
	00 00		 movzx	 eax, BYTE PTR [edx+16628]

; 829  : 		memcpy( m_aCompleteQuest, pMover->m_aCompleteQuest, sizeof(WORD) * MAX_COMPLETE_QUEST );

  00440	b9 fa 00 00 00	 mov	 ecx, 250		; 000000faH
  00445	8b bb f0 40 00
	00		 mov	 edi, DWORD PTR [ebx+16624]
  0044b	88 83 f4 40 00
	00		 mov	 BYTE PTR [ebx+16628], al
  00451	8b b2 f0 40 00
	00		 mov	 esi, DWORD PTR [edx+16624]
  00457	f3 a5		 rep movsd

; 830  : 		m_nCompleteQuestSize	= pMover->m_nCompleteQuestSize;

  00459	0f b6 82 f5 40
	00 00		 movzx	 eax, BYTE PTR [edx+16629]

; 831  : #if __VER >= 15 // __IMPROVE_QUEST_INTERFACE
; 832  : 		memcpy( m_aCheckedQuest, pMover->m_aCheckedQuest, sizeof(WORD) * MAX_CHECKED_QUEST );
; 833  : 		m_nCheckedQuestSize	= pMover->m_nCheckedQuestSize;
; 834  : #endif // __IMPROVE_QUEST_INTERFACE
; 835  : 		memcpy( m_dwSMTime, pMover->m_dwSMTime, sizeof(m_dwSMTime) );

  00460	8d b2 f4 3e 00
	00		 lea	 esi, DWORD PTR [edx+16116]
  00466	8b 8b 08 41 00
	00		 mov	 ecx, DWORD PTR [ebx+16648]
  0046c	8d bb f4 3e 00
	00		 lea	 edi, DWORD PTR [ebx+16116]
  00472	88 83 f5 40 00
	00		 mov	 BYTE PTR [ebx+16629], al
  00478	8b 82 08 41 00
	00		 mov	 eax, DWORD PTR [edx+16648]
  0047e	f3 0f 7e 00	 movq	 xmm0, QWORD PTR [eax]
  00482	66 0f d6 01	 movq	 QWORD PTR [ecx], xmm0
  00486	0f b7 40 08	 movzx	 eax, WORD PTR [eax+8]
  0048a	66 89 41 08	 mov	 WORD PTR [ecx+8], ax
  0048e	b9 1a 00 00 00	 mov	 ecx, 26			; 0000001aH
  00493	0f b6 82 0c 41
	00 00		 movzx	 eax, BYTE PTR [edx+16652]
  0049a	88 83 0c 41 00
	00		 mov	 BYTE PTR [ebx+16652], al
  004a0	f3 a5		 rep movsd

; 836  : 		m_nPlusMaxHitPoint	= pMover->m_nPlusMaxHitPoint;

  004a2	8b 82 f0 3e 00
	00		 mov	 eax, DWORD PTR [edx+16112]
  004a8	8d b3 e4 3b 00
	00		 lea	 esi, DWORD PTR [ebx+15332]
  004ae	89 83 f0 3e 00
	00		 mov	 DWORD PTR [ebx+16112], eax
  004b4	bf 03 00 00 00	 mov	 edi, 3

; 837  : 		m_nAttackResistLeft	= pMover->m_nAttackResistLeft;

  004b9	0f b6 82 5c 3f
	00 00		 movzx	 eax, BYTE PTR [edx+16220]
  004c0	88 83 5c 3f 00
	00		 mov	 BYTE PTR [ebx+16220], al

; 838  : 		m_nAttackResistRight	= pMover->m_nAttackResistRight;

  004c6	0f b6 82 5d 3f
	00 00		 movzx	 eax, BYTE PTR [edx+16221]
  004cd	88 83 5d 3f 00
	00		 mov	 BYTE PTR [ebx+16221], al

; 839  : 		m_nDefenseResist	= pMover->m_nDefenseResist;

  004d3	0f b6 82 5e 3f
	00 00		 movzx	 eax, BYTE PTR [edx+16222]
  004da	88 83 5e 3f 00
	00		 mov	 BYTE PTR [ebx+16222], al

; 840  : #ifndef __BUFF_1107
; 841  : 		memcpy( m_SkillState.m_aSkillInfluence, pMover->m_SkillState.m_aSkillInfluence, sizeof(m_SkillState.m_aSkillInfluence) );
; 842  : #endif	// __BUFF_1107
; 843  : 		m_dwReturnWorldID	= pMover->m_dwReturnWorldID;

  004e0	8b 82 38 3c 00
	00		 mov	 eax, DWORD PTR [edx+15416]
  004e6	89 83 38 3c 00
	00		 mov	 DWORD PTR [ebx+15416], eax

; 844  : 		m_vReturnPos	= pMover->m_vReturnPos;

  004ec	f3 0f 7e 82 2c
	3c 00 00	 movq	 xmm0, QWORD PTR [edx+15404]
  004f4	66 0f d6 83 2c
	3c 00 00	 movq	 QWORD PTR [ebx+15404], xmm0
  004fc	8b 82 34 3c 00
	00		 mov	 eax, DWORD PTR [edx+15412]
  00502	2b d3		 sub	 edx, ebx
  00504	89 83 34 3c 00
	00		 mov	 DWORD PTR [ebx+15412], eax
  0050a	8b da		 mov	 ebx, edx
  0050c	0f 1f 40 00	 npad	 4
$LL4@Copy:

; 845  : 		
; 846  : 		for( int i = 0; i < 3; i++ )
; 847  : 			m_Bank[i].Copy( pMover->m_Bank[i] );

  00510	8d 04 33	 lea	 eax, DWORD PTR [ebx+esi]
  00513	8b ce		 mov	 ecx, esi
  00515	50		 push	 eax
  00516	e8 00 00 00 00	 call	 ?Copy@?$CItemContainer@VCItemElem@@@@QAEXAAV1@@Z ; CItemContainer<CItemElem>::Copy
  0051b	83 c6 14	 add	 esi, 20			; 00000014H
  0051e	83 ef 01	 sub	 edi, 1
  00521	75 ed		 jne	 SHORT $LL4@Copy

; 848  : 		memcpy( m_idPlayerBank, pMover->m_idPlayerBank, sizeof(m_idPlayerBank) );

  00523	8b 55 08	 mov	 edx, DWORD PTR _pMover$[ebp]
  00526	8b 5d fc	 mov	 ebx, DWORD PTR _this$1$[ebp]
  00529	f3 0f 7e 82 d8
	3b 00 00	 movq	 xmm0, QWORD PTR [edx+15320]

; 849  : 		memcpy( m_dwGoldBank, pMover->m_dwGoldBank, sizeof( m_dwGoldBank) );
; 850  : 
; 851  : #ifdef __DBSERVER
; 852  : #ifdef __EVENT_1101
; 853  : #ifdef __EVENT_1101_2
; 854  : 		m_nEventFlag	= pMover->m_nEventFlag;
; 855  : #else // __EVENT_1101_2
; 856  : 		m_dwEventFlag	= pMover->m_dwEventFlag;
; 857  : #endif // __EVENT_1101_2
; 858  : 		m_dwEventTime	= pMover->m_dwEventTime;
; 859  : 		m_dwEventElapsed	= pMover->m_dwEventElapsed;
; 860  : #endif	// __EVENT_1101
; 861  : #endif	// __DBSERVER
; 862  : 
; 863  : #if __VER >= 9	// __PET_0410
; 864  : 		SetPetId( pMover->GetPetId() );
; 865  : #endif	// __PET_0410
; 866  : #if __VER >= 9	//__AI_0509
; 867  : 		m_fSpeedFactor	= pMover->m_fSpeedFactor;
; 868  : #endif	// __AI_0509
; 869  : 
; 870  : #ifdef __EXP_ANGELEXP_LOG
; 871  : 		m_nExpLog = pMover->m_nExpLog;
; 872  : 		m_nAngelExpLog = pMover->m_nAngelExpLog;
; 873  : #endif // __EXP_ANGELEXP_LOG
; 874  : 
; 875  : #ifdef __EVENTLUA_COUPON
; 876  : 		m_nCoupon = pMover->m_nCoupon;
; 877  : #endif // __EVENTLUA_COUPON
; 878  : 
; 879  : #ifdef __JEFF_9_20
; 880  : 		m_dwMute	= pMover->m_dwMute;
; 881  : #endif	// __JEFF_9_20
; 882  : #if __VER >= 13 // __HONORABLE_TITLE			// ´ŢŔÎ
; 883  : 		m_nHonor	= pMover->m_nHonor;
; 884  : 		memcpy( m_aHonorTitle, pMover->m_aHonorTitle, sizeof(int) * MAX_HONOR_TITLE );

  00531	8d b2 98 3c 00
	00		 lea	 esi, DWORD PTR [edx+15512]
  00537	66 0f d6 83 d8
	3b 00 00	 movq	 QWORD PTR [ebx+15320], xmm0
  0053f	8d bb 98 3c 00
	00		 lea	 edi, DWORD PTR [ebx+15512]
  00545	8b 82 e0 3b 00
	00		 mov	 eax, DWORD PTR [edx+15328]
  0054b	89 83 e0 3b 00
	00		 mov	 DWORD PTR [ebx+15328], eax
  00551	f3 0f 7e 82 20
	3c 00 00	 movq	 xmm0, QWORD PTR [edx+15392]
  00559	66 0f d6 83 20
	3c 00 00	 movq	 QWORD PTR [ebx+15392], xmm0
  00561	8b 82 28 3c 00
	00		 mov	 eax, DWORD PTR [edx+15400]
  00567	89 83 28 3c 00
	00		 mov	 DWORD PTR [ebx+15400], eax
  0056d	8b 82 68 3c 00
	00		 mov	 eax, DWORD PTR [edx+15464]
  00573	8b 8a 6c 3c 00
	00		 mov	 ecx, DWORD PTR [edx+15468]
  00579	89 8b 6c 3c 00
	00		 mov	 DWORD PTR [ebx+15468], ecx
  0057f	b9 96 00 00 00	 mov	 ecx, 150		; 00000096H
  00584	89 83 68 3c 00
	00		 mov	 DWORD PTR [ebx+15464], eax
  0058a	8b 82 70 3c 00
	00		 mov	 eax, DWORD PTR [edx+15472]
  00590	89 83 70 3c 00
	00		 mov	 DWORD PTR [ebx+15472], eax
  00596	8b 82 74 3c 00
	00		 mov	 eax, DWORD PTR [edx+15476]
  0059c	89 83 74 3c 00
	00		 mov	 DWORD PTR [ebx+15476], eax
  005a2	8b 82 80 3c 00
	00		 mov	 eax, DWORD PTR [edx+15488]
  005a8	89 83 80 3c 00
	00		 mov	 DWORD PTR [ebx+15488], eax
  005ae	8b 82 84 3c 00
	00		 mov	 eax, DWORD PTR [edx+15492]
  005b4	89 83 84 3c 00
	00		 mov	 DWORD PTR [ebx+15492], eax
  005ba	8b 82 88 3c 00
	00		 mov	 eax, DWORD PTR [edx+15496]
  005c0	89 83 88 3c 00
	00		 mov	 DWORD PTR [ebx+15496], eax
  005c6	8b 82 8c 3c 00
	00		 mov	 eax, DWORD PTR [edx+15500]
  005cc	89 83 8c 3c 00
	00		 mov	 DWORD PTR [ebx+15500], eax
  005d2	8b 82 90 3c 00
	00		 mov	 eax, DWORD PTR [edx+15504]
  005d8	89 83 90 3c 00
	00		 mov	 DWORD PTR [ebx+15504], eax
  005de	8b 82 40 3c 00
	00		 mov	 eax, DWORD PTR [edx+15424]
  005e4	89 83 40 3c 00
	00		 mov	 DWORD PTR [ebx+15424], eax
  005ea	8b 82 94 3c 00
	00		 mov	 eax, DWORD PTR [edx+15508]
  005f0	89 83 94 3c 00
	00		 mov	 DWORD PTR [ebx+15508], eax
  005f6	f3 a5		 rep movsd

; 885  : #endif	// __HONORABLE_TITLE			// ´ŢŔÎ
; 886  : 
; 887  : #if __VER >= 15 // __GUILD_HOUSE
; 888  : 	m_nRestPoint = pMover->m_nRestPoint;

  005f8	8b 82 18 41 00
	00		 mov	 eax, DWORD PTR [edx+16664]
  005fe	89 83 18 41 00
	00		 mov	 DWORD PTR [ebx+16664], eax

; 889  : 	m_tLogOut = pMover->m_tLogOut;

  00604	8b 82 1c 41 00
	00		 mov	 eax, DWORD PTR [edx+16668]
  0060a	89 83 1c 41 00
	00		 mov	 DWORD PTR [ebx+16668], eax
  00610	5f		 pop	 edi
$LN5@Copy:

; 890  : #endif // __GUILD_HOUSE
; 891  : 
; 892  : 	}
; 893  : }

  00611	5e		 pop	 esi
  00612	5b		 pop	 ebx
  00613	8b e5		 mov	 esp, ebp
  00615	5d		 pop	 ebp
  00616	c2 08 00	 ret	 8
?Copy@CMover@@QAEXPAV1@H@Z ENDP				; CMover::Copy
_TEXT	ENDS
; Function compile flags: /Ogtp
; File C:\IAGOS\server\v18\Source\Source\_network\objects\Obj.cpp
; File C:\IAGOS\server\v18\Source\Source\_Common\Data.h
; File C:\IAGOS\server\v18\Source\Source\_network\objects\Obj.cpp
;	COMDAT ?RemoveItemIK3@CMover@@QAEHXZ
_TEXT	SEGMENT
_nSize$1$ = -20						; size = 4
tv320 = -16						; size = 4
_i$1$ = -12						; size = 4
_this$1$ = -8						; size = 4
_bResult$1$ = -4					; size = 4
?RemoveItemIK3@CMover@@QAEHXZ PROC			; CMover::RemoveItemIK3, COMDAT
; _this$ = ecx

; 512  : {

  00000	55		 push	 ebp
  00001	8b ec		 mov	 ebp, esp
  00003	83 ec 14	 sub	 esp, 20			; 00000014H

; 513  : 	int	nSize	= m_Inventory.m_dwItemMax;

  00006	8b 91 c4 3b 00
	00		 mov	 edx, DWORD PTR [ecx+15300]
  0000c	33 c0		 xor	 eax, eax
  0000e	53		 push	 ebx

; 514  : 	CItemElem* pItemElem;
; 515  : 	BOOL bRemove;
; 516  : 	BOOL bResult	= FALSE;

  0000f	33 db		 xor	 ebx, ebx
  00011	89 4d f8	 mov	 DWORD PTR _this$1$[ebp], ecx
  00014	89 55 ec	 mov	 DWORD PTR _nSize$1$[ebp], edx
  00017	89 5d fc	 mov	 DWORD PTR _bResult$1$[ebp], ebx
  0001a	89 45 f4	 mov	 DWORD PTR _i$1$[ebp], eax

; 517  : 	for( int i = 0 ; i < nSize; i++ )

  0001d	85 d2		 test	 edx, edx
  0001f	0f 8e 1a 01 00
	00		 jle	 $LN3@RemoveItem
  00025	81 c1 b4 3b 00
	00		 add	 ecx, 15284		; 00003bb4H
  0002b	56		 push	 esi
  0002c	89 4d f0	 mov	 DWORD PTR tv320[ebp], ecx
  0002f	57		 push	 edi
$LL4@RemoveItem:

; 518  : 	{
; 519  : 		bRemove = FALSE;
; 520  : 		pItemElem	= m_Inventory.GetAtId( i );

  00030	50		 push	 eax
  00031	33 ff		 xor	 edi, edi
  00033	e8 00 00 00 00	 call	 ?GetAtId@?$CItemContainer@VCItemElem@@@@QAEPAVCItemElem@@K@Z ; CItemContainer<CItemElem>::GetAtId
  00038	8b f0		 mov	 esi, eax

; 521  : 		if( pItemElem )

  0003a	85 f6		 test	 esi, esi
  0003c	0f 84 e3 00 00
	00		 je	 $LN32@RemoveItem

; 522  : 		{
; 523  : 		 	ItemProp* pItemProp		= prj.GetItemProp( pItemElem->m_dwItemId );	

  00042	8b 5e 08	 mov	 ebx, DWORD PTR [esi+8]
; File C:\IAGOS\server\v18\Source\Source\_Common\Data.h

; 270  : 	if( dwIndex >= (DWORD)m_nMaxIndex )

  00045	3b 1d 4c 00 00
	00		 cmp	 ebx, DWORD PTR ?prj@@3VCProject@@A+76
  0004b	0f 83 bd 00 00
	00		 jae	 $LN6@RemoveItem

; 271  : 		return NULL;
; 272  : 	return (T*) m_apOffset[ dwIndex ];

  00051	a1 3c 00 00 00	 mov	 eax, DWORD PTR ?prj@@3VCProject@@A+60
  00056	8b 1c 98	 mov	 ebx, DWORD PTR [eax+ebx*4]
; File C:\IAGOS\server\v18\Source\Source\_network\objects\Obj.cpp

; 524  : 			if( pItemProp )

  00059	85 db		 test	 ebx, ebx
  0005b	0f 84 ad 00 00
	00		 je	 $LN6@RemoveItem

; 525  : 			{
; 526  : 				if( pItemProp->dwItemKind3 == IK3_CLOAK )

  00061	8b 43 78	 mov	 eax, DWORD PTR [ebx+120]
  00064	83 f8 18	 cmp	 eax, 24			; 00000018H
  00067	75 22		 jne	 SHORT $LN8@RemoveItem

; 527  : 				{
; 528  : 					if( pItemElem->m_idGuild != 0 )

  00069	8b 4e 6c	 mov	 ecx, DWORD PTR [esi+108]
  0006c	85 c9		 test	 ecx, ecx
  0006e	74 11		 je	 SHORT $LN11@RemoveItem

; 529  : 					{
; 530  : 						if( m_idGuild != pItemElem->m_idGuild )

  00070	8b 45 f8	 mov	 eax, DWORD PTR _this$1$[ebp]
  00073	39 88 70 3b 00
	00		 cmp	 DWORD PTR [eax+15216], ecx
  00079	b8 01 00 00 00	 mov	 eax, 1
  0007e	0f 45 f8	 cmovne	 edi, eax
$LN11@RemoveItem:

; 538  : 				{
; 539  : 					bRemove = TRUE;
; 540  : 				}
; 541  : 
; 542  : 				if( bRemove )

  00081	85 ff		 test	 edi, edi
  00083	0f 84 9c 00 00
	00		 je	 $LN32@RemoveItem
  00089	eb 09		 jmp	 SHORT $LN28@RemoveItem
$LN8@RemoveItem:

; 531  : 						{
; 532  : 							bRemove = TRUE;
; 533  : 						}
; 534  : 					}
; 535  : 				}
; 536  : 				else
; 537  : 				if( pItemProp->dwItemKind3 == IK3_DELETE )

  0008b	83 f8 31	 cmp	 eax, 49			; 00000031H
  0008e	0f 85 91 00 00
	00		 jne	 $LN32@RemoveItem
$LN28@RemoveItem:

; 543  : 				{
; 544  : 					if( m_Inventory.IsEquip( pItemElem->m_dwObjId ) )		

  00094	ff 76 04	 push	 DWORD PTR [esi+4]
  00097	8b 7d f0	 mov	 edi, DWORD PTR tv320[ebp]
  0009a	8b cf		 mov	 ecx, edi
  0009c	e8 00 00 00 00	 call	 ?IsEquip@?$CItemContainer@VCItemElem@@@@QAEHK@Z ; CItemContainer<CItemElem>::IsEquip
  000a1	8b cf		 mov	 ecx, edi
  000a3	85 c0		 test	 eax, eax
  000a5	74 55		 je	 SHORT $LN14@RemoveItem

; 545  : 					{
; 546  : 						if( m_Inventory.UnEquip( pItemProp->dwParts ) ) // Ŕĺşń ÇŘÁ¦

  000a7	ff b3 a8 00 00
	00		 push	 DWORD PTR [ebx+168]
  000ad	e8 00 00 00 00	 call	 ?UnEquip@?$CItemContainer@VCItemElem@@@@QAEHK@Z ; CItemContainer<CItemElem>::UnEquip
  000b2	85 c0		 test	 eax, eax
  000b4	74 2b		 je	 SHORT $LN16@RemoveItem

; 547  : 						{
; 548  : 							m_aEquipInfo[pItemProp->dwParts].dwId	= NULL_ID;

  000b6	8b 83 a8 00 00
	00		 mov	 eax, DWORD PTR [ebx+168]
  000bc	8b 4d f8	 mov	 ecx, DWORD PTR _this$1$[ebp]
  000bf	8d 04 40	 lea	 eax, DWORD PTR [eax+eax*2]
  000c2	c7 84 81 70 3f
	00 00 ff ff ff
	ff		 mov	 DWORD PTR [ecx+eax*4+16240], -1

; 549  : 							m_Inventory.RemoveAt( pItemElem->m_dwObjIndex );

  000cd	8b cf		 mov	 ecx, edi
  000cf	ff 76 2c	 push	 DWORD PTR [esi+44]
  000d2	e8 00 00 00 00	 call	 ?RemoveAt@?$CItemContainer@VCItemElem@@@@QAEXK@Z ; CItemContainer<CItemElem>::RemoveAt

; 550  : 							bResult	= TRUE;

  000d7	bb 01 00 00 00	 mov	 ebx, 1
  000dc	89 5d fc	 mov	 DWORD PTR _bResult$1$[ebp], ebx

; 551  : 						}

  000df	eb 47		 jmp	 SHORT $LN2@RemoveItem
$LN16@RemoveItem:

; 552  : 						else
; 553  : 						{
; 554  : 							WriteLog( "Not UnEquip RemoveItemIK3  : %s, %d, %d", m_szName, pItemElem->m_dwObjId, pItemProp->dwID );

  000e1	ff 33		 push	 DWORD PTR [ebx]
  000e3	8b 45 f8	 mov	 eax, DWORD PTR _this$1$[ebp]
  000e6	ff 76 04	 push	 DWORD PTR [esi+4]
  000e9	83 c0 6c	 add	 eax, 108		; 0000006cH
  000ec	50		 push	 eax
  000ed	68 00 00 00 00	 push	 OFFSET ??_C@_0CI@FEMGPALB@Not?5UnEquip?5RemoveItemIK3?5?5?3?5?$CFs@
  000f2	e8 00 00 00 00	 call	 ?WriteLog@@YAXPBDZZ	; WriteLog
  000f7	83 c4 10	 add	 esp, 16			; 00000010H

; 555  : 						}
; 556  : 					}

  000fa	eb 29		 jmp	 SHORT $LN32@RemoveItem
$LN14@RemoveItem:

; 557  : 					else
; 558  : 					{
; 559  : 						m_Inventory.RemoveAt( pItemElem->m_dwObjIndex );

  000fc	ff 76 2c	 push	 DWORD PTR [esi+44]
  000ff	e8 00 00 00 00	 call	 ?RemoveAt@?$CItemContainer@VCItemElem@@@@QAEXK@Z ; CItemContainer<CItemElem>::RemoveAt

; 560  : 						bResult	= TRUE;

  00104	bb 01 00 00 00	 mov	 ebx, 1
  00109	89 5d fc	 mov	 DWORD PTR _bResult$1$[ebp], ebx

; 561  : 					}
; 562  : 				}
; 563  : 			}

  0010c	eb 1a		 jmp	 SHORT $LN2@RemoveItem
$LN6@RemoveItem:

; 564  : 			else
; 565  : 			{
; 566  : 				WriteLog( "Not ItemProp RemoveItemIK3  : %s, %d ", m_szName, pItemElem->m_dwObjId );

  0010e	ff 76 04	 push	 DWORD PTR [esi+4]
  00111	8b 45 f8	 mov	 eax, DWORD PTR _this$1$[ebp]
  00114	83 c0 6c	 add	 eax, 108		; 0000006cH
  00117	50		 push	 eax
  00118	68 00 00 00 00	 push	 OFFSET ??_C@_0CG@DAKLJMI@Not?5ItemProp?5RemoveItemIK3?5?5?3?5?$CF@
  0011d	e8 00 00 00 00	 call	 ?WriteLog@@YAXPBDZZ	; WriteLog
  00122	83 c4 0c	 add	 esp, 12			; 0000000cH
$LN32@RemoveItem:

; 517  : 	for( int i = 0 ; i < nSize; i++ )

  00125	8b 5d fc	 mov	 ebx, DWORD PTR _bResult$1$[ebp]
$LN2@RemoveItem:
  00128	8b 45 f4	 mov	 eax, DWORD PTR _i$1$[ebp]
  0012b	8b 4d f0	 mov	 ecx, DWORD PTR tv320[ebp]
  0012e	40		 inc	 eax
  0012f	89 45 f4	 mov	 DWORD PTR _i$1$[ebp], eax
  00132	3b 45 ec	 cmp	 eax, DWORD PTR _nSize$1$[ebp]
  00135	0f 8c f5 fe ff
	ff		 jl	 $LL4@RemoveItem
  0013b	5f		 pop	 edi
  0013c	5e		 pop	 esi

; 567  : 			}
; 568  : 		}
; 569  : 	}
; 570  : 	return bResult;

  0013d	8b c3		 mov	 eax, ebx
$LN3@RemoveItem:
  0013f	5b		 pop	 ebx

; 571  : }

  00140	8b e5		 mov	 esp, ebp
  00142	5d		 pop	 ebp
  00143	c3		 ret	 0
?RemoveItemIK3@CMover@@QAEHXZ ENDP			; CMover::RemoveItemIK3
_TEXT	ENDS
; Function compile flags: /Ogtp
; File C:\IAGOS\server\v18\Source\Source\_network\objects\Obj.cpp
;	COMDAT ?NormalizePlayerData@CMover@@QAEHXZ
_TEXT	SEGMENT
tv804 = -140						; size = 4
_nNumberofIndex$1$ = -136				; size = 4
_this$GSCopy$1$ = -132					; size = 4
_adwEquipment$ = -128					; size = 124
__$ArrayPad$ = -4					; size = 4
?NormalizePlayerData@CMover@@QAEHXZ PROC		; CMover::NormalizePlayerData, COMDAT
; _this$ = ecx

; 428  : {

  00000	55		 push	 ebp
  00001	8b ec		 mov	 ebp, esp
  00003	81 ec 8c 00 00
	00		 sub	 esp, 140		; 0000008cH
  00009	a1 00 00 00 00	 mov	 eax, DWORD PTR ___security_cookie
  0000e	33 c5		 xor	 eax, ebp
  00010	89 45 fc	 mov	 DWORD PTR __$ArrayPad$[ebp], eax
  00013	53		 push	 ebx
  00014	8b d9		 mov	 ebx, ecx

; 429  : 	int nMax	= m_Inventory.m_dwItemMax;
; 430  : 	int nNumberofIndex	= m_Inventory.m_dwIndexNum;
; 431  : 	DWORD dwId;
; 432  : 	for( int i = 0; i < nMax; i++ )

  00016	33 d2		 xor	 edx, edx
  00018	56		 push	 esi
  00019	57		 push	 edi
  0001a	89 9d 7c ff ff
	ff		 mov	 DWORD PTR _this$GSCopy$1$[ebp], ebx
  00020	8b b3 c4 3b 00
	00		 mov	 esi, DWORD PTR [ebx+15300]
  00026	8b bb bc 3b 00
	00		 mov	 edi, DWORD PTR [ebx+15292]
  0002c	89 bd 78 ff ff
	ff		 mov	 DWORD PTR _nNumberofIndex$1$[ebp], edi
  00032	85 f6		 test	 esi, esi
  00034	0f 8e f5 00 00
	00		 jle	 $LN12@NormalizeP
  0003a	66 0f 1f 44 00
	00		 npad	 6
$LL4@NormalizeP:

; 433  : 	{
; 434  : 		dwId	= m_Inventory.m_apIndex[i];

  00040	8b 83 b8 3b 00
	00		 mov	 eax, DWORD PTR [ebx+15288]
  00046	8d 3c 90	 lea	 edi, DWORD PTR [eax+edx*4]
  00049	8b 07		 mov	 eax, DWORD PTR [edi]

; 435  : 		if( dwId != NULL_ID )

  0004b	83 f8 ff	 cmp	 eax, -1
  0004e	0f 84 8a 00 00
	00		 je	 $LN2@NormalizeP

; 436  : 		{
; 437  : 			if( m_Inventory.m_apItem[dwId].m_dwObjIndex != i )

  00054	8b 8b c0 3b 00
	00		 mov	 ecx, DWORD PTR [ebx+15296]
  0005a	69 c0 98 00 00
	00		 imul	 eax, eax, 152
  00060	39 54 08 2c	 cmp	 DWORD PTR [eax+ecx+44], edx
  00064	74 78		 je	 SHORT $LN2@NormalizeP

; 438  : 			{
; 439  : 				
; 440  : 				DWORD dwIndex	= NULL_ID;
; 441  : 				for( int j = 0; j < nMax; j++ )

  00066	33 c0		 xor	 eax, eax

; 442  : 				{	
; 443  : 					if( m_Inventory.m_apItem[j].m_dwObjIndex == i )

  00068	83 c1 2c	 add	 ecx, 44			; 0000002cH
  0006b	0f 1f 44 00 00	 npad	 5
$LL7@NormalizeP:
  00070	39 11		 cmp	 DWORD PTR [ecx], edx
  00072	74 68		 je	 SHORT $LN40@NormalizeP

; 438  : 			{
; 439  : 				
; 440  : 				DWORD dwIndex	= NULL_ID;
; 441  : 				for( int j = 0; j < nMax; j++ )

  00074	40		 inc	 eax
  00075	81 c1 98 00 00
	00		 add	 ecx, 152		; 00000098H
  0007b	3b c6		 cmp	 eax, esi
  0007d	7c f1		 jl	 SHORT $LL7@NormalizeP

; 452  : 				}
; 453  : 				else
; 454  : 				{
; 455  : 					if( i >= nNumberofIndex )

  0007f	3b 95 78 ff ff
	ff		 cmp	 edx, DWORD PTR _nNumberofIndex$1$[ebp]
  00085	7c 08		 jl	 SHORT $LN25@NormalizeP

; 456  : 					{
; 457  : 						m_Inventory.m_apIndex[i]	= NULL_ID;

  00087	c7 07 ff ff ff
	ff		 mov	 DWORD PTR [edi], -1

; 458  : 					}

  0008d	eb 4f		 jmp	 SHORT $LN2@NormalizeP
$LN25@NormalizeP:

; 459  : 					else
; 460  : 					{
; 461  : 						int j = NULL;

  0008f	8b bb c0 3b 00
	00		 mov	 edi, DWORD PTR [ebx+15296]
  00095	33 c0		 xor	 eax, eax
  00097	8d 4f 2c	 lea	 ecx, DWORD PTR [edi+44]
  0009a	66 0f 1f 44 00
	00		 npad	 6
$LL10@NormalizeP:

; 463  : 						{
; 464  : 							if( m_Inventory.m_apItem[j].m_dwObjIndex == NULL_ID )

  000a0	83 39 ff	 cmp	 DWORD PTR [ecx], -1
  000a3	74 0d		 je	 SHORT $LN41@NormalizeP

; 462  : 						for( ; j < nMax; j++ )

  000a5	40		 inc	 eax
  000a6	81 c1 98 00 00
	00		 add	 ecx, 152		; 00000098H
  000ac	3b c6		 cmp	 eax, esi
  000ae	7c f0		 jl	 SHORT $LL10@NormalizeP

; 468  : 								break;
; 469  : 							}
; 470  : 						}
; 471  : 						if( j == nMax ) 

  000b0	eb 13		 jmp	 SHORT $LN9@NormalizeP
$LN41@NormalizeP:

; 465  : 							{
; 466  : 								m_Inventory.m_apItem[j].m_dwObjIndex	= i;

  000b2	69 c8 98 00 00
	00		 imul	 ecx, eax, 152
  000b8	89 54 39 2c	 mov	 DWORD PTR [ecx+edi+44], edx

; 467  : 								m_Inventory.m_apIndex[i]	= j;

  000bc	8b 8b b8 3b 00
	00		 mov	 ecx, DWORD PTR [ebx+15288]
  000c2	89 04 91	 mov	 DWORD PTR [ecx+edx*4], eax
$LN9@NormalizeP:

; 468  : 								break;
; 469  : 							}
; 470  : 						}
; 471  : 						if( j == nMax ) 

  000c5	3b c6		 cmp	 eax, esi
  000c7	75 15		 jne	 SHORT $LN2@NormalizeP

; 506  : 	}
; 507  : 	return TRUE;
; 508  : }

  000c9	5f		 pop	 edi
  000ca	5e		 pop	 esi
  000cb	33 c0		 xor	 eax, eax
  000cd	5b		 pop	 ebx
  000ce	8b 4d fc	 mov	 ecx, DWORD PTR __$ArrayPad$[ebp]
  000d1	33 cd		 xor	 ecx, ebp
  000d3	e8 00 00 00 00	 call	 @__security_check_cookie@4
  000d8	8b e5		 mov	 esp, ebp
  000da	5d		 pop	 ebp
  000db	c3		 ret	 0
$LN40@NormalizeP:

; 444  : 					{
; 445  : 						dwIndex	= j;
; 446  : 						break;
; 447  : 					}
; 448  : 				}
; 449  : 				if( dwIndex != NULL_ID )
; 450  : 				{
; 451  : 					m_Inventory.m_apIndex[i]	= dwIndex;

  000dc	89 07		 mov	 DWORD PTR [edi], eax
$LN2@NormalizeP:

; 429  : 	int nMax	= m_Inventory.m_dwItemMax;
; 430  : 	int nNumberofIndex	= m_Inventory.m_dwIndexNum;
; 431  : 	DWORD dwId;
; 432  : 	for( int i = 0; i < nMax; i++ )

  000de	42		 inc	 edx
  000df	3b d6		 cmp	 edx, esi
  000e1	0f 8c 59 ff ff
	ff		 jl	 $LL4@NormalizeP

; 472  : 						{
; 473  : 							ASSERT( 0 );
; 474  : 							return FALSE;
; 475  : 						}
; 476  : 					}
; 477  : 				}
; 478  : 				
; 479  : 			}
; 480  : 		}
; 481  : 	}
; 482  : 	
; 483  : 	DWORD dwObjIndex;
; 484  : 	for( int i = 0; i < nMax; i++ )

  000e7	33 c9		 xor	 ecx, ecx
  000e9	33 d2		 xor	 edx, edx
  000eb	0f 1f 44 00 00	 npad	 5
$LL13@NormalizeP:

; 485  : 	{
; 486  : 		dwObjIndex	= m_Inventory.m_apItem[i].m_dwObjIndex;

  000f0	8b bb c0 3b 00
	00		 mov	 edi, DWORD PTR [ebx+15296]
  000f6	8b 5c 17 2c	 mov	 ebx, DWORD PTR [edi+edx+44]

; 487  : 		if( dwObjIndex != NULL_ID )

  000fa	83 fb ff	 cmp	 ebx, -1
  000fd	74 19		 je	 SHORT $LN11@NormalizeP

; 488  : 		{
; 489  : 			if( m_Inventory.m_apIndex[dwObjIndex] != i )

  000ff	8b 85 7c ff ff
	ff		 mov	 eax, DWORD PTR _this$GSCopy$1$[ebp]
  00105	8b 80 b8 3b 00
	00		 mov	 eax, DWORD PTR [eax+15288]
  0010b	39 0c 98	 cmp	 DWORD PTR [eax+ebx*4], ecx
  0010e	74 08		 je	 SHORT $LN11@NormalizeP

; 490  : 				m_Inventory.m_apItem[i].m_dwObjIndex	= NULL_ID;

  00110	c7 44 17 2c ff
	ff ff ff	 mov	 DWORD PTR [edi+edx+44], -1
$LN11@NormalizeP:

; 472  : 						{
; 473  : 							ASSERT( 0 );
; 474  : 							return FALSE;
; 475  : 						}
; 476  : 					}
; 477  : 				}
; 478  : 				
; 479  : 			}
; 480  : 		}
; 481  : 	}
; 482  : 	
; 483  : 	DWORD dwObjIndex;
; 484  : 	for( int i = 0; i < nMax; i++ )

  00118	8b 9d 7c ff ff
	ff		 mov	 ebx, DWORD PTR _this$GSCopy$1$[ebp]
  0011e	41		 inc	 ecx
  0011f	81 c2 98 00 00
	00		 add	 edx, 152		; 00000098H
  00125	3b ce		 cmp	 ecx, esi
  00127	7c c7		 jl	 SHORT $LL13@NormalizeP
  00129	8b bd 78 ff ff
	ff		 mov	 edi, DWORD PTR _nNumberofIndex$1$[ebp]
$LN12@NormalizeP:

; 491  : 		}
; 492  : 	}
; 493  : 	
; 494  : 	DWORD adwEquipment[MAX_HUMAN_PARTS];
; 495  : 	memset( adwEquipment, 0xff, sizeof(DWORD) * MAX_HUMAN_PARTS );

  0012f	6a 7c		 push	 124			; 0000007cH
  00131	8d 45 80	 lea	 eax, DWORD PTR _adwEquipment$[ebp]
  00134	68 ff 00 00 00	 push	 255			; 000000ffH
  00139	50		 push	 eax
  0013a	e8 00 00 00 00	 call	 _memset
  0013f	83 c4 0c	 add	 esp, 12			; 0000000cH

; 496  : 	for( int i = nNumberofIndex; i < nMax; i++ )

  00142	3b fe		 cmp	 edi, esi
  00144	7d 22		 jge	 SHORT $LN15@NormalizeP

; 497  : 	{
; 498  : 		dwId	= m_Inventory.m_apIndex[i];

  00146	8b 83 b8 3b 00
	00		 mov	 eax, DWORD PTR [ebx+15288]
  0014c	8d 4d 80	 lea	 ecx, DWORD PTR _adwEquipment$[ebp]
  0014f	2b f7		 sub	 esi, edi
  00151	8d 04 b8	 lea	 eax, DWORD PTR [eax+edi*4]
$LL50@NormalizeP:
  00154	8b 10		 mov	 edx, DWORD PTR [eax]

; 499  : 		if( dwId != NULL_ID )

  00156	83 fa ff	 cmp	 edx, -1
  00159	74 02		 je	 SHORT $LN51@NormalizeP

; 500  : 			adwEquipment[i - nNumberofIndex]	= dwId;

  0015b	89 11		 mov	 DWORD PTR [ecx], edx
$LN51@NormalizeP:

; 496  : 	for( int i = nNumberofIndex; i < nMax; i++ )

  0015d	83 c0 04	 add	 eax, 4
  00160	83 c1 04	 add	 ecx, 4
  00163	83 ee 01	 sub	 esi, 1
  00166	75 ec		 jne	 SHORT $LL50@NormalizeP
$LN15@NormalizeP:

; 501  : 	}
; 502  : 	for( int i = 0; i < MAX_HUMAN_PARTS; i++ )

  00168	33 c0		 xor	 eax, eax
  0016a	8d 8b 70 3f 00
	00		 lea	 ecx, DWORD PTR [ebx+16240]
$LL19@NormalizeP:

; 503  : 	{
; 504  : 		if( m_aEquipInfo[i].dwId != adwEquipment[i] )

  00170	8b 54 85 80	 mov	 edx, DWORD PTR _adwEquipment$[ebp+eax*4]
  00174	39 11		 cmp	 DWORD PTR [ecx], edx
  00176	74 02		 je	 SHORT $LN17@NormalizeP

; 505  : 			m_aEquipInfo[i].dwId	= adwEquipment[i];

  00178	89 11		 mov	 DWORD PTR [ecx], edx
$LN17@NormalizeP:

; 501  : 	}
; 502  : 	for( int i = 0; i < MAX_HUMAN_PARTS; i++ )

  0017a	40		 inc	 eax
  0017b	83 c1 0c	 add	 ecx, 12			; 0000000cH
  0017e	83 f8 1f	 cmp	 eax, 31			; 0000001fH
  00181	7c ed		 jl	 SHORT $LL19@NormalizeP

; 506  : 	}
; 507  : 	return TRUE;
; 508  : }

  00183	8b 4d fc	 mov	 ecx, DWORD PTR __$ArrayPad$[ebp]
  00186	b8 01 00 00 00	 mov	 eax, 1
  0018b	5f		 pop	 edi
  0018c	5e		 pop	 esi
  0018d	33 cd		 xor	 ecx, ebp
  0018f	5b		 pop	 ebx
  00190	e8 00 00 00 00	 call	 @__security_check_cookie@4
  00195	8b e5		 mov	 esp, ebp
  00197	5d		 pop	 ebp
  00198	c3		 ret	 0
?NormalizePlayerData@CMover@@QAEHXZ ENDP		; CMover::NormalizePlayerData
_TEXT	ENDS
; Function compile flags: /Ogtp
; File C:\IAGOS\server\v18\Source\Source\_network\objects\Obj.cpp
; File C:\IAGOS\server\v18\Source\Source\_Network\Objects\Obj.h
; File C:\IAGOS\server\v18\Source\Source\_network\objects\Obj.cpp
; File C:\IAGOS\server\v18\Source\Source\_Common\Data.h
; File C:\IAGOS\server\v18\Source\Source\_network\objects\Obj.cpp
;	COMDAT ?IsAbnormalPlayerData@CMover@@QAEHXZ
_TEXT	SEGMENT
_adwEquipment$ = -128					; size = 124
__$ArrayPad$ = -4					; size = 4
?IsAbnormalPlayerData@CMover@@QAEHXZ PROC		; CMover::IsAbnormalPlayerData, COMDAT
; _this$ = ecx

; 375  : {

  00000	55		 push	 ebp
  00001	8b ec		 mov	 ebp, esp
  00003	81 ec 80 00 00
	00		 sub	 esp, 128		; 00000080H
  00009	a1 00 00 00 00	 mov	 eax, DWORD PTR ___security_cookie
  0000e	33 c5		 xor	 eax, ebp
  00010	89 45 fc	 mov	 DWORD PTR __$ArrayPad$[ebp], eax
  00013	53		 push	 ebx
  00014	8b d9		 mov	 ebx, ecx

; 376  : #ifndef __CORESERVER
; 377  : 	DWORD dwId;
; 378  : 	int nMax	= m_Inventory.m_dwItemMax;
; 379  : 	int nNumberofIndex	= m_Inventory.m_dwIndexNum;
; 380  : 	
; 381  : 	for( int i = 0; i < nMax; i++ )

  00016	33 d2		 xor	 edx, edx
  00018	56		 push	 esi
  00019	57		 push	 edi
  0001a	8b b3 c4 3b 00
	00		 mov	 esi, DWORD PTR [ebx+15300]
  00020	8b bb bc 3b 00
	00		 mov	 edi, DWORD PTR [ebx+15292]
  00026	85 f6		 test	 esi, esi
  00028	0f 8e 8b 00 00
	00		 jle	 $LN43@IsAbnormal

; 382  : 	{
; 383  : 		dwId	= m_Inventory.m_apIndex[i];

  0002e	8b bb b8 3b 00
	00		 mov	 edi, DWORD PTR [ebx+15288]
$LL4@IsAbnormal:
  00034	8b 07		 mov	 eax, DWORD PTR [edi]

; 384  : 		if( dwId != NULL_ID )

  00036	83 f8 ff	 cmp	 eax, -1
  00039	74 16		 je	 SHORT $LN2@IsAbnormal

; 385  : 		{
; 386  : 			if( m_Inventory.m_apItem[dwId].m_dwObjIndex != i )

  0003b	69 c8 98 00 00
	00		 imul	 ecx, eax, 152
  00041	8b 83 c0 3b 00
	00		 mov	 eax, DWORD PTR [ebx+15296]
  00047	39 54 01 2c	 cmp	 DWORD PTR [ecx+eax+44], edx
  0004b	0f 85 d3 00 00
	00		 jne	 $LN37@IsAbnormal
$LN2@IsAbnormal:

; 376  : #ifndef __CORESERVER
; 377  : 	DWORD dwId;
; 378  : 	int nMax	= m_Inventory.m_dwItemMax;
; 379  : 	int nNumberofIndex	= m_Inventory.m_dwIndexNum;
; 380  : 	
; 381  : 	for( int i = 0; i < nMax; i++ )

  00051	42		 inc	 edx
  00052	83 c7 04	 add	 edi, 4
  00055	3b d6		 cmp	 edx, esi
  00057	7c db		 jl	 SHORT $LL4@IsAbnormal

; 393  : 	{
; 394  : 		dwObjIndex	= m_Inventory.m_apItem[i].m_dwObjIndex;

  00059	8b 8b c0 3b 00
	00		 mov	 ecx, DWORD PTR [ebx+15296]
  0005f	33 d2		 xor	 edx, edx
  00061	83 c1 08	 add	 ecx, 8
$LL7@IsAbnormal:
  00064	8b 79 24	 mov	 edi, DWORD PTR [ecx+36]

; 395  : 		if( dwObjIndex != NULL_ID )

  00067	83 ff ff	 cmp	 edi, -1
  0006a	74 0f		 je	 SHORT $LN59@IsAbnormal

; 396  : 		{
; 397  : 			if( m_Inventory.m_apIndex[dwObjIndex] != i )

  0006c	8b 83 b8 3b 00
	00		 mov	 eax, DWORD PTR [ebx+15288]
  00072	39 14 b8	 cmp	 DWORD PTR [eax+edi*4], edx
  00075	0f 85 a9 00 00
	00		 jne	 $LN37@IsAbnormal
$LN59@IsAbnormal:
; File C:\IAGOS\server\v18\Source\Source\_Network\Objects\Obj.h

; 131  : 	BOOL	IsEmpty()	{	return m_dwItemId ? FALSE : TRUE;	}

  0007b	8b 01		 mov	 eax, DWORD PTR [ecx]
  0007d	85 c0		 test	 eax, eax
; File C:\IAGOS\server\v18\Source\Source\_network\objects\Obj.cpp

; 400  : 		if( FALSE == m_Inventory.m_apItem[i].IsEmpty() )

  0007f	74 27		 je	 SHORT $LN5@IsAbnormal
; File C:\IAGOS\server\v18\Source\Source\_Common\Data.h

; 270  : 	if( dwIndex >= (DWORD)m_nMaxIndex )

  00081	3b 05 4c 00 00
	00		 cmp	 eax, DWORD PTR ?prj@@3VCProject@@A+76
  00087	0f 83 97 00 00
	00		 jae	 $LN37@IsAbnormal

; 271  : 		return NULL;
; 272  : 	return (T*) m_apOffset[ dwIndex ];

  0008d	8b 3d 3c 00 00
	00		 mov	 edi, DWORD PTR ?prj@@3VCProject@@A+60
  00093	8b 04 87	 mov	 eax, DWORD PTR [edi+eax*4]
; File C:\IAGOS\server\v18\Source\Source\_network\objects\Obj.cpp

; 405  : 				|| pItemProp->dwItemKind3 == IK3_VIRTUAL/*It is monster's virtual weapon*/ )

  00096	85 c0		 test	 eax, eax
  00098	0f 84 86 00 00
	00		 je	 $LN37@IsAbnormal
  0009e	83 78 78 0a	 cmp	 DWORD PTR [eax+120], 10	; 0000000aH
  000a2	0f 84 7c 00 00
	00		 je	 $LN37@IsAbnormal
$LN5@IsAbnormal:

; 387  : 				return TRUE;
; 388  : 		}
; 389  : 	}
; 390  : 	
; 391  : 	DWORD dwObjIndex;
; 392  : 	for( int i = 0; i < nMax; i++ )

  000a8	42		 inc	 edx
  000a9	81 c1 98 00 00
	00		 add	 ecx, 152		; 00000098H
  000af	3b d6		 cmp	 edx, esi
  000b1	7c b1		 jl	 SHORT $LL7@IsAbnormal
  000b3	8b bb bc 3b 00
	00		 mov	 edi, DWORD PTR [ebx+15292]
$LN43@IsAbnormal:

; 406  : 				return TRUE;
; 407  : 		}
; 408  : 	}
; 409  : 	
; 410  : 	DWORD adwEquipment[MAX_HUMAN_PARTS];
; 411  : 	memset( adwEquipment, 0xff, sizeof(DWORD) * MAX_HUMAN_PARTS );

  000b9	6a 7c		 push	 124			; 0000007cH
  000bb	8d 45 80	 lea	 eax, DWORD PTR _adwEquipment$[ebp]
  000be	68 ff 00 00 00	 push	 255			; 000000ffH
  000c3	50		 push	 eax
  000c4	e8 00 00 00 00	 call	 _memset
  000c9	83 c4 0c	 add	 esp, 12			; 0000000cH

; 412  : 	for( int i = nNumberofIndex; i < nMax; i++ )

  000cc	3b fe		 cmp	 edi, esi
  000ce	7d 24		 jge	 SHORT $LN9@IsAbnormal

; 413  : 	{
; 414  : 		dwId	= m_Inventory.m_apIndex[i];

  000d0	8b 83 b8 3b 00
	00		 mov	 eax, DWORD PTR [ebx+15288]
  000d6	8d 4d 80	 lea	 ecx, DWORD PTR _adwEquipment$[ebp]
  000d9	2b f7		 sub	 esi, edi
  000db	8d 04 b8	 lea	 eax, DWORD PTR [eax+edi*4]
  000de	66 90		 npad	 2
$LL44@IsAbnormal:
  000e0	8b 10		 mov	 edx, DWORD PTR [eax]

; 415  : 		if( dwId != NULL_ID )

  000e2	83 fa ff	 cmp	 edx, -1
  000e5	74 02		 je	 SHORT $LN45@IsAbnormal

; 416  : 			adwEquipment[i - nNumberofIndex]	= dwId;

  000e7	89 11		 mov	 DWORD PTR [ecx], edx
$LN45@IsAbnormal:

; 412  : 	for( int i = nNumberofIndex; i < nMax; i++ )

  000e9	83 c0 04	 add	 eax, 4
  000ec	83 c1 04	 add	 ecx, 4
  000ef	83 ee 01	 sub	 esi, 1
  000f2	75 ec		 jne	 SHORT $LL44@IsAbnormal
$LN9@IsAbnormal:

; 417  : 	}
; 418  : 	for( int i = 0; i < MAX_HUMAN_PARTS; i++ )

  000f4	33 c9		 xor	 ecx, ecx
  000f6	8d 93 70 3f 00
	00		 lea	 edx, DWORD PTR [ebx+16240]
  000fc	0f 1f 40 00	 npad	 4
$LL13@IsAbnormal:

; 419  : 	{
; 420  : 		if( adwEquipment[i] != m_aEquipInfo[i].dwId )

  00100	8b 44 8d 80	 mov	 eax, DWORD PTR _adwEquipment$[ebp+ecx*4]
  00104	3b 02		 cmp	 eax, DWORD PTR [edx]
  00106	75 1c		 jne	 SHORT $LN37@IsAbnormal

; 417  : 	}
; 418  : 	for( int i = 0; i < MAX_HUMAN_PARTS; i++ )

  00108	41		 inc	 ecx
  00109	83 c2 0c	 add	 edx, 12			; 0000000cH
  0010c	83 f9 1f	 cmp	 ecx, 31			; 0000001fH
  0010f	7c ef		 jl	 SHORT $LL13@IsAbnormal

; 421  : 			return TRUE;
; 422  : 	}
; 423  : #endif // __CORESERVER	
; 424  : 	return FALSE;
; 425  : }

  00111	5f		 pop	 edi
  00112	5e		 pop	 esi
  00113	33 c0		 xor	 eax, eax
  00115	5b		 pop	 ebx
  00116	8b 4d fc	 mov	 ecx, DWORD PTR __$ArrayPad$[ebp]
  00119	33 cd		 xor	 ecx, ebp
  0011b	e8 00 00 00 00	 call	 @__security_check_cookie@4
  00120	8b e5		 mov	 esp, ebp
  00122	5d		 pop	 ebp
  00123	c3		 ret	 0
$LN37@IsAbnormal:
  00124	8b 4d fc	 mov	 ecx, DWORD PTR __$ArrayPad$[ebp]
  00127	b8 01 00 00 00	 mov	 eax, 1
  0012c	5f		 pop	 edi
  0012d	5e		 pop	 esi
  0012e	33 cd		 xor	 ecx, ebp
  00130	5b		 pop	 ebx
  00131	e8 00 00 00 00	 call	 @__security_check_cookie@4
  00136	8b e5		 mov	 esp, ebp
  00138	5d		 pop	 ebp
  00139	c3		 ret	 0
?IsAbnormalPlayerData@CMover@@QAEHXZ ENDP		; CMover::IsAbnormalPlayerData
_TEXT	ENDS
; Function compile flags: /Ogtp
; File C:\IAGOS\server\v18\Source\Source\_network\objects\Obj.cpp
;	COMDAT ?AddItemBank@CMover@@QAEHHKKHK@Z
_TEXT	SEGMENT
_nSlot$ = 8						; size = 4
_dwId$ = 12						; size = 4
_dwNum$ = 16						; size = 4
_nOption$ = 20						; size = 4
_iSerialNumber$ = 24					; size = 4
?AddItemBank@CMover@@QAEHHKKHK@Z PROC			; CMover::AddItemBank, COMDAT
; _this$ = ecx

; 367  : {

  00000	55		 push	 ebp
  00001	8b ec		 mov	 ebp, esp

; 368  : 	if( iSerialNumber == 0 )

  00003	8b 45 18	 mov	 eax, DWORD PTR _iSerialNumber$[ebp]
  00006	56		 push	 esi
  00007	8b f1		 mov	 esi, ecx
  00009	85 c0		 test	 eax, eax
  0000b	75 0c		 jne	 SHORT $LN2@AddItemBan

; 369  : 		iSerialNumber	= CSerialNumber::GetInstance()->Get();

  0000d	e8 00 00 00 00	 call	 ?GetInstance@CSerialNumber@@SAPAV1@XZ ; CSerialNumber::GetInstance
  00012	8b c8		 mov	 ecx, eax
  00014	e8 00 00 00 00	 call	 ?Get@CSerialNumber@@QAEKXZ ; CSerialNumber::Get
$LN2@AddItemBan:

; 370  : 	
; 371  : 	return	( m_Bank[nSlot].Add( dwId, (short)( dwNum ), nOption, iSerialNumber ) );

  00019	6a 00		 push	 0
  0001b	6a 00		 push	 0
  0001d	6a 00		 push	 0
  0001f	6a 00		 push	 0
  00021	6a 00		 push	 0
  00023	6a 00		 push	 0
  00025	6a 00		 push	 0
  00027	6a 00		 push	 0
  00029	6a 00		 push	 0
  0002b	6a 00		 push	 0
  0002d	6a 00		 push	 0
  0002f	6a 00		 push	 0
  00031	6a 00		 push	 0
  00033	6a 00		 push	 0
  00035	6a 00		 push	 0
  00037	50		 push	 eax
  00038	ff 75 14	 push	 DWORD PTR _nOption$[ebp]
  0003b	8b 45 08	 mov	 eax, DWORD PTR _nSlot$[ebp]
  0003e	ff 75 10	 push	 DWORD PTR _dwNum$[ebp]
  00041	ff 75 0c	 push	 DWORD PTR _dwId$[ebp]
  00044	8d 04 80	 lea	 eax, DWORD PTR [eax+eax*4]
  00047	8d 80 f9 0e 00
	00		 lea	 eax, DWORD PTR [eax+3833]
  0004d	8d 0c 86	 lea	 ecx, DWORD PTR [esi+eax*4]
  00050	e8 00 00 00 00	 call	 ?Add@?$CItemContainer@VCItemElem@@@@QAEHKFHKHHPAEPAF0HHKKKKKK_J@Z ; CItemContainer<CItemElem>::Add
  00055	5e		 pop	 esi

; 372  : }

  00056	5d		 pop	 ebp
  00057	c2 14 00	 ret	 20			; 00000014H
?AddItemBank@CMover@@QAEHHKKHK@Z ENDP			; CMover::AddItemBank
_TEXT	ENDS
; Function compile flags: /Ogtp
; File C:\IAGOS\server\v18\Source\Source\_network\objects\Obj.cpp
;	COMDAT ?AddItem@CMover@@QAEHKKKHKHHHHKKKKKK_J@Z
_TEXT	SEGMENT
_dwItemType$ = 8					; size = 4
_dwId$ = 12						; size = 4
_dwNum$ = 16						; size = 4
_nOption$ = 20						; size = 4
_iSerialNumber$ = 24					; size = 4
_nItemResist$ = 28					; size = 4
_nResistAbilityOption$ = 32				; size = 4
_nCharged$ = 36						; size = 4
_nPiercedSize$ = 40					; size = 4
_adwItemId0$ = 44					; size = 4
_adwItemId1$ = 48					; size = 4
_adwItemId2$ = 52					; size = 4
_adwItemId3$ = 56					; size = 4
_adwItemId4$ = 60					; size = 4
_m_dwKeepTime$ = 64					; size = 4
_iRandomOptItemId$ = 68					; size = 8
?AddItem@CMover@@QAEHKKKHKHHHHKKKKKK_J@Z PROC		; CMover::AddItem, COMDAT
; _this$ = ecx

; 347  : {

  00000	55		 push	 ebp
  00001	8b ec		 mov	 ebp, esp

; 348  : 	if( iSerialNumber == 0 )

  00003	8b 45 18	 mov	 eax, DWORD PTR _iSerialNumber$[ebp]
  00006	56		 push	 esi
  00007	8b f1		 mov	 esi, ecx
  00009	85 c0		 test	 eax, eax
  0000b	75 0c		 jne	 SHORT $LN2@AddItem

; 349  : 		iSerialNumber	= CSerialNumber::GetInstance()->Get();

  0000d	e8 00 00 00 00	 call	 ?GetInstance@CSerialNumber@@SAPAV1@XZ ; CSerialNumber::GetInstance
  00012	8b c8		 mov	 ecx, eax
  00014	e8 00 00 00 00	 call	 ?Get@CSerialNumber@@QAEKXZ ; CSerialNumber::Get
$LN2@AddItem:

; 350  : 	
; 351  : #if __VER >= 11 // __SYS_IDENTIFY
; 352  : #ifdef __SEND_ITEM_ULTIMATE
; 353  : 	return m_Inventory.Add( dwId, (short)( dwNum ), nOption, iSerialNumber, nItemResist, nResistAbilityOption, NULL, NULL, NULL, nCharged, nPiercedSize, adwItemId0, adwItemId1, adwItemId2, adwItemId3, adwItemId4, m_dwKeepTime, iRandomOptItemId );

  00019	ff 75 48	 push	 DWORD PTR _iRandomOptItemId$[ebp+4]
  0001c	8d 8e b4 3b 00
	00		 lea	 ecx, DWORD PTR [esi+15284]
  00022	ff 75 44	 push	 DWORD PTR _iRandomOptItemId$[ebp]
  00025	ff 75 40	 push	 DWORD PTR _m_dwKeepTime$[ebp]
  00028	ff 75 3c	 push	 DWORD PTR _adwItemId4$[ebp]
  0002b	ff 75 38	 push	 DWORD PTR _adwItemId3$[ebp]
  0002e	ff 75 34	 push	 DWORD PTR _adwItemId2$[ebp]
  00031	ff 75 30	 push	 DWORD PTR _adwItemId1$[ebp]
  00034	ff 75 2c	 push	 DWORD PTR _adwItemId0$[ebp]
  00037	ff 75 28	 push	 DWORD PTR _nPiercedSize$[ebp]
  0003a	ff 75 24	 push	 DWORD PTR _nCharged$[ebp]
  0003d	6a 00		 push	 0
  0003f	6a 00		 push	 0
  00041	6a 00		 push	 0
  00043	ff 75 20	 push	 DWORD PTR _nResistAbilityOption$[ebp]
  00046	ff 75 1c	 push	 DWORD PTR _nItemResist$[ebp]
  00049	50		 push	 eax
  0004a	ff 75 14	 push	 DWORD PTR _nOption$[ebp]
  0004d	ff 75 10	 push	 DWORD PTR _dwNum$[ebp]
  00050	ff 75 0c	 push	 DWORD PTR _dwId$[ebp]
  00053	e8 00 00 00 00	 call	 ?Add@?$CItemContainer@VCItemElem@@@@QAEHKFHKHHPAEPAF0HHKKKKKK_J@Z ; CItemContainer<CItemElem>::Add
  00058	5e		 pop	 esi

; 354  : #else // __SEND_ITEM_ULTIMATE
; 355  : 	return m_Inventory.Add( dwId, (short)( dwNum ), nOption, iSerialNumber, nItemResist, nResistAbilityOption, NULL, NULL, NULL, nCharged, nPiercedSize, adwItemId0, adwItemId1, adwItemId2, adwItemId3, m_dwKeepTime, iRandomOptItemId );
; 356  : #endif // __SEND_ITEM_ULTIMATE
; 357  : #else	// __SYS_IDENTIFY
; 358  : #ifdef __SEND_ITEM_ULTIMATE
; 359  : 	return m_Inventory.Add( dwId, (short)( dwNum ), nOption, iSerialNumber, nItemResist, nResistAbilityOption, NULL, NULL, NULL, nCharged, nPiercedSize, adwItemId0, adwItemId1, adwItemId2, adwItemId3, adwItemId4, m_dwKeepTime, nRandomOptItemId );
; 360  : #else // __SEND_ITEM_ULTIMATE
; 361  : 	return m_Inventory.Add( dwId, (short)( dwNum ), nOption, iSerialNumber, nItemResist, nResistAbilityOption, NULL, NULL, NULL, nCharged, nPiercedSize, adwItemId0, adwItemId1, adwItemId2, adwItemId3, m_dwKeepTime, nRandomOptItemId );
; 362  : #endif // __SEND_ITEM_ULTIMATE
; 363  : #endif	// __SYS_IDENTIFY
; 364  : }

  00059	5d		 pop	 ebp
  0005a	c2 44 00	 ret	 68			; 00000044H
?AddItem@CMover@@QAEHKKKHKHHHHKKKKKK_J@Z ENDP		; CMover::AddItem
_TEXT	ENDS
; Function compile flags: /Ogtp
; File C:\IAGOS\server\v18\Source\Source\_network\objects\Obj.cpp
;	COMDAT ?RemoveQuest@CMover@@QAEHH@Z
_TEXT	SEGMENT
_bRemove$2$ = -4					; size = 4
_nQuestId$ = 8						; size = 4
?RemoveQuest@CMover@@QAEHH@Z PROC			; CMover::RemoveQuest, COMDAT
; _this$ = ecx

; 911  : {

  00000	55		 push	 ebp
  00001	8b ec		 mov	 ebp, esp
  00003	51		 push	 ecx
  00004	53		 push	 ebx
  00005	56		 push	 esi
  00006	8b f1		 mov	 esi, ecx

; 912  : 	BOOL	bRemove	= FALSE;

  00008	33 c0		 xor	 eax, eax

; 913  : 	for( int i = 0; i < m_nQuestSize; i++ )

  0000a	33 d2		 xor	 edx, edx
  0000c	89 45 fc	 mov	 DWORD PTR _bRemove$2$[ebp], eax
  0000f	57		 push	 edi
  00010	8a 9e f4 40 00
	00		 mov	 bl, BYTE PTR [esi+16628]
  00016	84 db		 test	 bl, bl
  00018	74 63		 je	 SHORT $LN3@RemoveQues

; 914  : 	{
; 915  : 		if( m_aQuest[ i ].m_wId == nQuestId )

  0001a	8b 8e ec 40 00
	00		 mov	 ecx, DWORD PTR [esi+16620]
  00020	83 c1 04	 add	 ecx, 4
$LL4@RemoveQues:
  00023	0f b7 01	 movzx	 eax, WORD PTR [ecx]
  00026	0f b6 fb	 movzx	 edi, bl
  00029	3b 45 08	 cmp	 eax, DWORD PTR _nQuestId$[ebp]
  0002c	74 0a		 je	 SHORT $LN30@RemoveQues

; 913  : 	for( int i = 0; i < m_nQuestSize; i++ )

  0002e	42		 inc	 edx
  0002f	83 c1 0c	 add	 ecx, 12			; 0000000cH
  00032	3b d7		 cmp	 edx, edi
  00034	7c ed		 jl	 SHORT $LL4@RemoveQues

; 937  : 	{
; 938  : 		if( m_aCheckedQuest[ i ] == nQuestId )

  00036	eb 45		 jmp	 SHORT $LN3@RemoveQues
$LN30@RemoveQues:

; 916  : 		{
; 917  : 			for( ; i < m_nQuestSize - 1; i++ )

  00038	8d 47 ff	 lea	 eax, DWORD PTR [edi-1]
  0003b	3b d0		 cmp	 edx, eax
  0003d	7d 2f		 jge	 SHORT $LN6@RemoveQues
  0003f	8d 3c 52	 lea	 edi, DWORD PTR [edx+edx*2]
  00042	c1 e7 02	 shl	 edi, 2
$LL7@RemoveQues:

; 918  : 				m_aQuest[ i ] = m_aQuest[ i + 1 ];

  00045	8b 8e ec 40 00
	00		 mov	 ecx, DWORD PTR [esi+16620]
  0004b	42		 inc	 edx
  0004c	03 cf		 add	 ecx, edi
  0004e	83 c7 0c	 add	 edi, 12			; 0000000cH
  00051	f3 0f 7e 41 0c	 movq	 xmm0, QWORD PTR [ecx+12]
  00056	66 0f d6 01	 movq	 QWORD PTR [ecx], xmm0
  0005a	8b 41 14	 mov	 eax, DWORD PTR [ecx+20]
  0005d	89 41 08	 mov	 DWORD PTR [ecx+8], eax
  00060	8a 9e f4 40 00
	00		 mov	 bl, BYTE PTR [esi+16628]
  00066	0f b6 c3	 movzx	 eax, bl
  00069	48		 dec	 eax
  0006a	3b d0		 cmp	 edx, eax
  0006c	7c d7		 jl	 SHORT $LL7@RemoveQues
$LN6@RemoveQues:

; 919  : 			m_nQuestSize--;

  0006e	fe cb		 dec	 bl

; 920  : 			bRemove	= TRUE;

  00070	c7 45 fc 01 00
	00 00		 mov	 DWORD PTR _bRemove$2$[ebp], 1
  00077	88 9e f4 40 00
	00		 mov	 BYTE PTR [esi+16628], bl
$LN3@RemoveQues:

; 921  : 			break;
; 922  : 		}
; 923  : 	}
; 924  : 	for( int i = 0; i < m_nCompleteQuestSize; i++ )

  0007d	8a 8e f5 40 00
	00		 mov	 cl, BYTE PTR [esi+16629]
  00083	33 d2		 xor	 edx, edx
  00085	84 c9		 test	 cl, cl
  00087	74 1a		 je	 SHORT $LN52@RemoveQues

; 925  : 	{
; 926  : 		if( m_aCompleteQuest[ i ] == nQuestId )

  00089	8b be f0 40 00
	00		 mov	 edi, DWORD PTR [esi+16624]
  0008f	90		 npad	 1
$LL10@RemoveQues:
  00090	0f b7 07	 movzx	 eax, WORD PTR [edi]
  00093	0f b6 d9	 movzx	 ebx, cl
  00096	3b 45 08	 cmp	 eax, DWORD PTR _nQuestId$[ebp]
  00099	74 44		 je	 SHORT $LN31@RemoveQues

; 921  : 			break;
; 922  : 		}
; 923  : 	}
; 924  : 	for( int i = 0; i < m_nCompleteQuestSize; i++ )

  0009b	42		 inc	 edx
  0009c	83 c7 02	 add	 edi, 2
  0009f	3b d3		 cmp	 edx, ebx
  000a1	7c ed		 jl	 SHORT $LL10@RemoveQues
$LN52@RemoveQues:

; 932  : 			break;
; 933  : 		}
; 934  : 	}
; 935  : #if __VER >= 15 // __IMPROVE_QUEST_INTERFACE
; 936  : 	for( int i = 0; i < m_nCheckedQuestSize; ++i )

  000a3	8b 45 fc	 mov	 eax, DWORD PTR _bRemove$2$[ebp]
$LN9@RemoveQues:
  000a6	8a 9e 0c 41 00
	00		 mov	 bl, BYTE PTR [esi+16652]
  000ac	33 d2		 xor	 edx, edx
  000ae	84 db		 test	 bl, bl
  000b0	0f 84 a3 00 00
	00		 je	 $LN15@RemoveQues

; 937  : 	{
; 938  : 		if( m_aCheckedQuest[ i ] == nQuestId )

  000b6	8b be 08 41 00
	00		 mov	 edi, DWORD PTR [esi+16648]
  000bc	0f 1f 40 00	 npad	 4
$LL16@RemoveQues:
  000c0	0f b7 0f	 movzx	 ecx, WORD PTR [edi]
  000c3	0f b6 c3	 movzx	 eax, bl
  000c6	3b 4d 08	 cmp	 ecx, DWORD PTR _nQuestId$[ebp]
  000c9	74 4c		 je	 SHORT $LN32@RemoveQues

; 932  : 			break;
; 933  : 		}
; 934  : 	}
; 935  : #if __VER >= 15 // __IMPROVE_QUEST_INTERFACE
; 936  : 	for( int i = 0; i < m_nCheckedQuestSize; ++i )

  000cb	42		 inc	 edx
  000cc	83 c7 02	 add	 edi, 2
  000cf	3b d0		 cmp	 edx, eax
  000d1	7c ed		 jl	 SHORT $LL16@RemoveQues

; 943  : 			bRemove	= TRUE;
; 944  : 			break;
; 945  : 		}
; 946  : 	}
; 947  : #endif // __IMPROVE_QUEST_INTERFACE
; 948  : 	return bRemove;

  000d3	8b 45 fc	 mov	 eax, DWORD PTR _bRemove$2$[ebp]
  000d6	5f		 pop	 edi

; 949  : }

  000d7	5e		 pop	 esi
  000d8	5b		 pop	 ebx
  000d9	8b e5		 mov	 esp, ebp
  000db	5d		 pop	 ebp
  000dc	c2 04 00	 ret	 4
$LN31@RemoveQues:

; 927  : 		{
; 928  : 			for( ; i < m_nCompleteQuestSize - 1; i++ )

  000df	8d 43 ff	 lea	 eax, DWORD PTR [ebx-1]
  000e2	3b d0		 cmp	 edx, eax
  000e4	7d 1f		 jge	 SHORT $LN12@RemoveQues
$LL13@RemoveQues:

; 929  : 				m_aCompleteQuest[ i ] = m_aCompleteQuest[ i + 1 ];

  000e6	8b 86 f0 40 00
	00		 mov	 eax, DWORD PTR [esi+16624]
  000ec	8d 0c 50	 lea	 ecx, DWORD PTR [eax+edx*2]
  000ef	42		 inc	 edx
  000f0	66 8b 41 02	 mov	 ax, WORD PTR [ecx+2]
  000f4	66 89 01	 mov	 WORD PTR [ecx], ax
  000f7	8a 8e f5 40 00
	00		 mov	 cl, BYTE PTR [esi+16629]
  000fd	0f b6 c1	 movzx	 eax, cl
  00100	48		 dec	 eax
  00101	3b d0		 cmp	 edx, eax
  00103	7c e1		 jl	 SHORT $LL13@RemoveQues
$LN12@RemoveQues:

; 930  : 			m_nCompleteQuestSize--;

  00105	fe c9		 dec	 cl

; 931  : 			bRemove	= TRUE;

  00107	b8 01 00 00 00	 mov	 eax, 1
  0010c	88 8e f5 40 00
	00		 mov	 BYTE PTR [esi+16629], cl
  00112	89 45 fc	 mov	 DWORD PTR _bRemove$2$[ebp], eax
  00115	eb 8f		 jmp	 SHORT $LN9@RemoveQues
$LN32@RemoveQues:

; 939  : 		{
; 940  : 			for( ; i < m_nCheckedQuestSize - 1; ++i )

  00117	48		 dec	 eax
  00118	3b d0		 cmp	 edx, eax
  0011a	7d 23		 jge	 SHORT $LN18@RemoveQues
  0011c	0f 1f 40 00	 npad	 4
$LL19@RemoveQues:

; 941  : 				m_aCheckedQuest[ i ] = m_aCheckedQuest[ i + 1 ];

  00120	8b 86 08 41 00
	00		 mov	 eax, DWORD PTR [esi+16648]
  00126	8d 0c 50	 lea	 ecx, DWORD PTR [eax+edx*2]
  00129	42		 inc	 edx
  0012a	66 8b 41 02	 mov	 ax, WORD PTR [ecx+2]
  0012e	66 89 01	 mov	 WORD PTR [ecx], ax
  00131	8a 9e 0c 41 00
	00		 mov	 bl, BYTE PTR [esi+16652]
  00137	0f b6 c3	 movzx	 eax, bl
  0013a	48		 dec	 eax
  0013b	3b d0		 cmp	 edx, eax
  0013d	7c e1		 jl	 SHORT $LL19@RemoveQues
$LN18@RemoveQues:

; 942  : 			m_aCheckedQuest[ --m_nCheckedQuestSize ] = 0;

  0013f	8b 86 08 41 00
	00		 mov	 eax, DWORD PTR [esi+16648]
  00145	fe cb		 dec	 bl
  00147	0f b6 cb	 movzx	 ecx, bl
  0014a	33 d2		 xor	 edx, edx
  0014c	88 9e 0c 41 00
	00		 mov	 BYTE PTR [esi+16652], bl
  00152	66 89 14 48	 mov	 WORD PTR [eax+ecx*2], dx

; 943  : 			bRemove	= TRUE;
; 944  : 			break;
; 945  : 		}
; 946  : 	}
; 947  : #endif // __IMPROVE_QUEST_INTERFACE
; 948  : 	return bRemove;

  00156	8d 42 01	 lea	 eax, DWORD PTR [edx+1]
$LN15@RemoveQues:

; 949  : }

  00159	5f		 pop	 edi
  0015a	5e		 pop	 esi
  0015b	5b		 pop	 ebx
  0015c	8b e5		 mov	 esp, ebp
  0015e	5d		 pop	 ebp
  0015f	c2 04 00	 ret	 4
?RemoveQuest@CMover@@QAEHH@Z ENDP			; CMover::RemoveQuest
_TEXT	ENDS
; Function compile flags: /Ogtp
; File C:\IAGOS\server\v18\Source\Source\_network\objects\Obj.cpp
; File C:\IAGOS\server\v18\Source\Source\DatabaseServer\Project.h
; File C:\IAGOS\server\v18\Source\Source\_network\objects\Obj.cpp
; File C:\IAGOS\server\v18\Source\Source\_Network\Objects\Obj.h
; File C:\IAGOS\server\v18\Source\Source\DatabaseServer\Project.h
; File C:\IAGOS\server\v18\Source\Source\_network\objects\Obj.cpp
; File C:\IAGOS\server\v18\Source\Source\DatabaseServer\Project.h
; File C:\IAGOS\server\v18\Source\Source\_network\objects\Obj.cpp
;	COMDAT ?InitProp@CMover@@QAEXXZ
_TEXT	SEGMENT
_this$1$ = -8						; size = 4
?InitProp@CMover@@QAEXXZ PROC				; CMover::InitProp, COMDAT
; _this$ = ecx

; 298  : {

  00000	55		 push	 ebp
  00001	8b ec		 mov	 ebp, esp
  00003	83 ec 08	 sub	 esp, 8
  00006	56		 push	 esi
  00007	8b f1		 mov	 esi, ecx
; File C:\IAGOS\server\v18\Source\Source\DatabaseServer\Project.h

; 203  : 		if( nIndex < 0 || nIndex >= m_nMoverPropSize )	

  00009	8b 0d 58 00 00
	00		 mov	 ecx, DWORD PTR ?prj@@3VCProject@@A+88
; File C:\IAGOS\server\v18\Source\Source\_network\objects\Obj.cpp

; 298  : {

  0000f	89 75 f8	 mov	 DWORD PTR _this$1$[ebp], esi
; File C:\IAGOS\server\v18\Source\Source\_Network\Objects\Obj.h

; 1167 : 	MoverProp*	GetProp( void )		{	return( prj.GetMoverProp( m_dwIndex ) );	}

  00012	8b 46 08	 mov	 eax, DWORD PTR [esi+8]
; File C:\IAGOS\server\v18\Source\Source\DatabaseServer\Project.h

; 203  : 		if( nIndex < 0 || nIndex >= m_nMoverPropSize )	

  00015	85 c0		 test	 eax, eax
  00017	0f 88 e7 00 00
	00		 js	 $LN17@InitProp
  0001d	3b c1		 cmp	 eax, ecx
  0001f	0f 8d df 00 00
	00		 jge	 $LN17@InitProp
  00025	53		 push	 ebx

; 206  : 			TRACE( szErr );
; 207  : 			return NULL;
; 208  : 		}
; 209  : 		if( m_pPropMover[nIndex].dwID )

  00026	69 d8 90 06 00
	00		 imul	 ebx, eax, 1680
  0002c	03 1d 5c 00 00
	00		 add	 ebx, DWORD PTR ?prj@@3VCProject@@A+92
  00032	83 3b 00	 cmp	 DWORD PTR [ebx], 0
  00035	0f 84 c3 00 00
	00		 je	 $LN40@InitProp
; File C:\IAGOS\server\v18\Source\Source\_network\objects\Obj.cpp

; 301  : 	if( pMvrProp )

  0003b	85 db		 test	 ebx, ebx
  0003d	0f 84 bb 00 00
	00		 je	 $LN40@InitProp

; 302  : 	{
; 303  : 		if( FALSE == m_bPlayer )

  00043	83 be 8c 00 00
	00 00		 cmp	 DWORD PTR [esi+140], 0
  0004a	75 14		 jne	 SHORT $LN9@InitProp

; 304  : 			_tcscpy( m_szName, pMvrProp->szName );

  0004c	8d 4b 04	 lea	 ecx, DWORD PTR [ebx+4]
  0004f	8b d6		 mov	 edx, esi
  00051	2b d1		 sub	 edx, ecx
$LL12@InitProp:
  00053	8a 01		 mov	 al, BYTE PTR [ecx]
  00055	8d 49 01	 lea	 ecx, DWORD PTR [ecx+1]
  00058	88 44 0a 6b	 mov	 BYTE PTR [edx+ecx+107], al
  0005c	84 c0		 test	 al, al
  0005e	75 f3		 jne	 SHORT $LL12@InitProp
$LN9@InitProp:
  00060	57		 push	 edi

; 305  : 
; 306  : 		memset( m_aJobSkill, 0, sizeof(SKILL) * ( MAX_SKILL_JOB ) );

  00061	68 98 01 00 00	 push	 408			; 00000198H
  00066	8d be 00 01 00
	00		 lea	 edi, DWORD PTR [esi+256]
  0006c	6a 00		 push	 0
  0006e	57		 push	 edi
  0006f	e8 00 00 00 00	 call	 _memset
  00074	83 c4 0c	 add	 esp, 12			; 0000000cH
  00077	8b c7		 mov	 eax, edi
  00079	b9 33 00 00 00	 mov	 ecx, 51			; 00000033H
  0007e	66 90		 npad	 2
$LL4@InitProp:

; 307  : 
; 308  : 		LPSKILL lpSkill;
; 309  : 		for( int i = 0; i < MAX_SKILL_JOB; i++ )
; 310  : 		{
; 311  : 			m_aJobSkill[ i ].dwSkill = NULL_ID;

  00080	c7 00 ff ff ff
	ff		 mov	 DWORD PTR [eax], -1
  00086	8d 40 08	 lea	 eax, DWORD PTR [eax+8]
  00089	83 e9 01	 sub	 ecx, 1
  0008c	75 f2		 jne	 SHORT $LL4@InitProp

; 312  : 		}
; 313  : 		
; 314  : 		if( m_nJob != -1 ) 

  0008e	8b 86 c4 00 00
	00		 mov	 eax, DWORD PTR [esi+196]
  00094	83 f8 ff	 cmp	 eax, -1
  00097	74 2c		 je	 SHORT $LN6@InitProp

; 315  : 		{
; 316  : 			ItemProp** apSkillProp = prj.m_aJobSkill[ m_nJob ];

  00099	8d 14 80	 lea	 edx, DWORD PTR [eax+eax*4]

; 317  : 			int nJobNum = prj.m_aJobSkillNum[ m_nJob ];

  0009c	8b 04 85 fc 19
	00 00		 mov	 eax, DWORD PTR ?prj@@3VCProject@@A[eax*4+6652]
  000a3	c1 e2 05	 shl	 edx, 5
  000a6	81 c2 fc 00 00
	00		 add	 edx, OFFSET ?prj@@3VCProject@@A+252

; 318  : 			for( int i = 0; i < nJobNum; i++ )

  000ac	85 c0		 test	 eax, eax
  000ae	7e 15		 jle	 SHORT $LN6@InitProp
  000b0	8b f0		 mov	 esi, eax
$LL7@InitProp:

; 319  : 			{
; 320  : 				ItemProp* pSkillProp = apSkillProp[ i ];

  000b2	8b 04 8a	 mov	 eax, DWORD PTR [edx+ecx*4]
  000b5	8d 7f 08	 lea	 edi, DWORD PTR [edi+8]
  000b8	41		 inc	 ecx

; 321  : 				lpSkill = &m_aJobSkill[ i ];
; 322  : 				lpSkill->dwSkill = pSkillProp->dwID;

  000b9	8b 00		 mov	 eax, DWORD PTR [eax]
  000bb	89 47 f8	 mov	 DWORD PTR [edi-8], eax
  000be	3b ce		 cmp	 ecx, esi
  000c0	7c f0		 jl	 SHORT $LL7@InitProp
  000c2	8b 75 f8	 mov	 esi, DWORD PTR _this$1$[ebp]
$LN6@InitProp:

; 323  : 			}
; 324  : 		}
; 325  : 		m_nHitPoint		= 77; //GetMaxHitPoint();

  000c5	c7 86 94 00 00
	00 4d 00 00 00	 mov	 DWORD PTR [esi+148], 77	; 0000004dH

; 326  : 		m_nManaPoint	= 77; //GetMaxManaPoint();

  000cf	c7 86 98 00 00
	00 4d 00 00 00	 mov	 DWORD PTR [esi+152], 77	; 0000004dH

; 327  : 		m_nFatiguePoint	= 77; //GetMaxFatiguePoint();

  000d9	c7 86 9c 00 00
	00 4d 00 00 00	 mov	 DWORD PTR [esi+156], 77	; 0000004dH

; 328  : 		memset( m_szBankPass, 0, sizeof( m_szBankPass ) );

  000e3	c7 86 c9 00 00
	00 00 00 00 00	 mov	 DWORD PTR [esi+201], 0
  000ed	c6 86 cd 00 00
	00 00		 mov	 BYTE PTR [esi+205], 0

; 329  : 		m_dwBelligerence	= pMvrProp->dwBelligerence;

  000f4	8b 83 80 00 00
	00		 mov	 eax, DWORD PTR [ebx+128]
  000fa	89 46 5c	 mov	 DWORD PTR [esi+92], eax
  000fd	5f		 pop	 edi
$LN40@InitProp:
  000fe	5b		 pop	 ebx
  000ff	5e		 pop	 esi

; 332  : }

  00100	8b e5		 mov	 esp, ebp
  00102	5d		 pop	 ebp
  00103	c3		 ret	 0
$LN17@InitProp:
; File C:\IAGOS\server\v18\Source\Source\DatabaseServer\Project.h

; 205  : 			LPCTSTR szErr = Error( "CProject::GetMoverProp out of range. %d %d", nIndex, m_nMoverPropSize );

  00104	51		 push	 ecx
  00105	50		 push	 eax
  00106	68 00 00 00 00	 push	 OFFSET ??_C@_0CL@NHHPIJBJ@CProject?3?3GetMoverProp?5out?5of?5r@
  0010b	e8 00 00 00 00	 call	 ?Error@@YAPBDPBDZZ	; Error
  00110	83 c4 0c	 add	 esp, 12			; 0000000cH
  00113	5e		 pop	 esi
; File C:\IAGOS\server\v18\Source\Source\_network\objects\Obj.cpp

; 332  : }

  00114	8b e5		 mov	 esp, ebp
  00116	5d		 pop	 ebp
  00117	c3		 ret	 0
?InitProp@CMover@@QAEXXZ ENDP				; CMover::InitProp
_TEXT	ENDS
; Function compile flags: /Ogtp
; File C:\IAGOS\server\v18\Source\Source\_network\objects\Obj.cpp
; File C:\IAGOS\server\v18\Source\Source\_Network\Mcl\Include\CMclCritSec.h
; File C:\IAGOS\server\v18\Source\Source\_network\objects\Obj.cpp
; File C:\IAGOS\server\v18\Source\Source\_Network\Objects\Obj.h
; File C:\IAGOS\server\v18\Source\Source\_network\objects\Obj.cpp
;	COMDAT ??1CMover@@UAE@XZ
_TEXT	SEGMENT
__$EHRec$ = -12						; size = 12
??1CMover@@UAE@XZ PROC					; CMover::~CMover, COMDAT
; _this$ = ecx

; 287  : {

  00000	55		 push	 ebp
  00001	8b ec		 mov	 ebp, esp
  00003	6a ff		 push	 -1
  00005	68 00 00 00 00	 push	 __ehhandler$??1CMover@@UAE@XZ
  0000a	64 a1 00 00 00
	00		 mov	 eax, DWORD PTR fs:0
  00010	50		 push	 eax
  00011	56		 push	 esi
  00012	a1 00 00 00 00	 mov	 eax, DWORD PTR ___security_cookie
  00017	33 c5		 xor	 eax, ebp
  00019	50		 push	 eax
  0001a	8d 45 f4	 lea	 eax, DWORD PTR __$EHRec$[ebp]
  0001d	64 a3 00 00 00
	00		 mov	 DWORD PTR fs:0, eax
  00023	8b f1		 mov	 esi, ecx

; 288  : 	SAFE_DELETE( m_pActMover );

  00025	8b 8e b0 3b 00
	00		 mov	 ecx, DWORD PTR [esi+15280]
  0002b	c7 06 00 00 00
	00		 mov	 DWORD PTR [esi], OFFSET ??_7CMover@@6B@
  00031	85 c9		 test	 ecx, ecx
  00033	74 10		 je	 SHORT $LN2@CMover
  00035	8b 01		 mov	 eax, DWORD PTR [ecx]
  00037	6a 01		 push	 1
  00039	ff 10		 call	 DWORD PTR [eax]
  0003b	c7 86 b0 3b 00
	00 00 00 00 00	 mov	 DWORD PTR [esi+15280], 0
$LN2@CMover:

; 289  : 
; 290  : 	SAFE_DELETE_ARRAY( m_aQuest ); 

  00045	8b 86 ec 40 00
	00		 mov	 eax, DWORD PTR [esi+16620]
  0004b	85 c0		 test	 eax, eax
  0004d	74 13		 je	 SHORT $LN3@CMover
  0004f	50		 push	 eax
  00050	e8 00 00 00 00	 call	 ??_V@YAXPAX@Z		; operator delete[]
  00055	83 c4 04	 add	 esp, 4
  00058	c7 86 ec 40 00
	00 00 00 00 00	 mov	 DWORD PTR [esi+16620], 0
$LN3@CMover:

; 291  : 	SAFE_DELETE_ARRAY( m_aCompleteQuest );

  00062	8b 86 f0 40 00
	00		 mov	 eax, DWORD PTR [esi+16624]
  00068	85 c0		 test	 eax, eax
  0006a	74 13		 je	 SHORT $LN4@CMover
  0006c	50		 push	 eax
  0006d	e8 00 00 00 00	 call	 ??_V@YAXPAX@Z		; operator delete[]
  00072	83 c4 04	 add	 esp, 4
  00075	c7 86 f0 40 00
	00 00 00 00 00	 mov	 DWORD PTR [esi+16624], 0
$LN4@CMover:

; 292  : #if __VER >= 15 // __IMPROVE_QUEST_INTERFACE
; 293  : 	SAFE_DELETE_ARRAY( m_aCheckedQuest );

  0007f	8b 86 08 41 00
	00		 mov	 eax, DWORD PTR [esi+16648]
  00085	85 c0		 test	 eax, eax
  00087	74 13		 je	 SHORT $LN5@CMover
  00089	50		 push	 eax
  0008a	e8 00 00 00 00	 call	 ??_V@YAXPAX@Z		; operator delete[]
  0008f	83 c4 04	 add	 esp, 4
  00092	c7 86 08 41 00
	00 00 00 00 00	 mov	 DWORD PTR [esi+16648], 0
$LN5@CMover:

; 295  : }

  0009c	8d 8e 60 3f 00
	00		 lea	 ecx, DWORD PTR [esi+16224]
  000a2	e8 00 00 00 00	 call	 ??1CBuffMgr@@UAE@XZ	; CBuffMgr::~CBuffMgr
; File C:\IAGOS\server\v18\Source\Source\_Network\Mcl\Include\CMclCritSec.h

; 27   : 		::DeleteCriticalSection( &m_CritSec );

  000a7	8d 86 4c 3c 00
	00		 lea	 eax, DWORD PTR [esi+15436]
  000ad	c7 86 48 3c 00
	00 00 00 00 00	 mov	 DWORD PTR [esi+15432], OFFSET ??_7CMclCritSec@@6B@
  000b7	50		 push	 eax
  000b8	ff 15 00 00 00
	00		 call	 DWORD PTR __imp__DeleteCriticalSection@4
; File C:\IAGOS\server\v18\Source\Source\_network\objects\Obj.cpp

; 295  : }

  000be	68 00 00 00 00	 push	 OFFSET ??1?$CItemContainer@VCItemElem@@@@UAE@XZ ; CItemContainer<CItemElem>::~CItemContainer<CItemElem>
  000c3	6a 03		 push	 3
  000c5	6a 14		 push	 20			; 00000014H
  000c7	8d 86 e4 3b 00
	00		 lea	 eax, DWORD PTR [esi+15332]
  000cd	50		 push	 eax
  000ce	e8 00 00 00 00	 call	 ??_M@YGXPAXIIP6EX0@Z@Z
  000d3	8d 8e c8 3b 00
	00		 lea	 ecx, DWORD PTR [esi+15304]
  000d9	e8 00 00 00 00	 call	 ??1CPocketController@@UAE@XZ ; CPocketController::~CPocketController
  000de	8d 8e b4 3b 00
	00		 lea	 ecx, DWORD PTR [esi+15284]
  000e4	e8 00 00 00 00	 call	 ??1?$CItemContainer@VCItemElem@@@@UAE@XZ ; CItemContainer<CItemElem>::~CItemContainer<CItemElem>
  000e9	8d 8e 5c 3b 00
	00		 lea	 ecx, DWORD PTR [esi+15196]
  000ef	e8 00 00 00 00	 call	 ??1CRTMessenger@@UAE@XZ	; CRTMessenger::~CRTMessenger
  000f4	8d 8e e8 02 00
	00		 lea	 ecx, DWORD PTR [esi+744]
  000fa	e8 00 00 00 00	 call	 ??1CUserTaskBar@@UAE@XZ	; CUserTaskBar::~CUserTaskBar
; File C:\IAGOS\server\v18\Source\Source\_Network\Objects\Obj.h

; 106  : 	virtual	~CCtrl()	{}

  000ff	c7 06 00 00 00
	00		 mov	 DWORD PTR [esi], OFFSET ??_7CObj@@6B@
; File C:\IAGOS\server\v18\Source\Source\_network\objects\Obj.cpp

; 295  : }

  00105	8b 4d f4	 mov	 ecx, DWORD PTR __$EHRec$[ebp]
  00108	64 89 0d 00 00
	00 00		 mov	 DWORD PTR fs:0, ecx
  0010f	59		 pop	 ecx
  00110	5e		 pop	 esi
  00111	8b e5		 mov	 esp, ebp
  00113	5d		 pop	 ebp
  00114	c3		 ret	 0
  00115	cc		 int	 3
  00116	cc		 int	 3
  00117	cc		 int	 3
  00118	cc		 int	 3
  00119	cc		 int	 3
_TEXT	ENDS
;	COMDAT text$x
text$x	SEGMENT
__ehhandler$??1CMover@@UAE@XZ:
  00000	90		 npad	 1
  00001	90		 npad	 1
  00002	8b 54 24 08	 mov	 edx, DWORD PTR [esp+8]
  00006	8d 42 0c	 lea	 eax, DWORD PTR [edx+12]
  00009	8b 4a f8	 mov	 ecx, DWORD PTR [edx-8]
  0000c	33 c8		 xor	 ecx, eax
  0000e	e8 00 00 00 00	 call	 @__security_check_cookie@4
  00013	b8 00 00 00 00	 mov	 eax, OFFSET __ehfuncinfo$??1CMover@@UAE@XZ
  00018	e9 00 00 00 00	 jmp	 ___CxxFrameHandler3
text$x	ENDS
??1CMover@@UAE@XZ ENDP					; CMover::~CMover
; Function compile flags: /Ogtp
; File C:\IAGOS\server\v18\Source\Source\_network\objects\Obj.cpp
; File C:\IAGOS\server\v18\Source\Source\_Network\Mcl\Include\CMclCritSec.h
; File C:\IAGOS\server\v18\Source\Source\_network\objects\Obj.cpp
; File C:\IAGOS\server\v18\Source\Source\_Network\Objects\Obj.h
; File C:\IAGOS\server\v18\Source\Source\_network\objects\Obj.cpp
; File C:\IAGOS\server\v18\Source\Source\_Network\Objects\Obj.h
; File C:\IAGOS\server\v18\Source\Source\_network\objects\Obj.cpp
; File C:\IAGOS\server\v18\Source\Source\_Network\Objects\Obj.h
; File C:\IAGOS\server\v18\Source\Source\_network\objects\Obj.cpp
;	COMDAT ??0CMover@@QAE@XZ
_TEXT	SEGMENT
_this$ = -28						; size = 4
_this$1$ = -24						; size = 4
tv846 = -20						; size = 4
$T2 = -16						; size = 4
tv861 = -16						; size = 4
__$EHRec$ = -12						; size = 12
??0CMover@@QAE@XZ PROC					; CMover::CMover, COMDAT
; _this$ = ecx

; 108  : {

  00000	55		 push	 ebp
  00001	8b ec		 mov	 ebp, esp
  00003	6a ff		 push	 -1
  00005	68 00 00 00 00	 push	 __ehhandler$??0CMover@@QAE@XZ
  0000a	64 a1 00 00 00
	00		 mov	 eax, DWORD PTR fs:0
  00010	50		 push	 eax
  00011	83 ec 10	 sub	 esp, 16			; 00000010H
  00014	56		 push	 esi
  00015	57		 push	 edi
  00016	a1 00 00 00 00	 mov	 eax, DWORD PTR ___security_cookie
  0001b	33 c5		 xor	 eax, ebp
  0001d	50		 push	 eax
  0001e	8d 45 f4	 lea	 eax, DWORD PTR __$EHRec$[ebp]
  00021	64 a3 00 00 00
	00		 mov	 DWORD PTR fs:0, eax
  00027	8b f1		 mov	 esi, ecx
  00029	89 75 e8	 mov	 DWORD PTR _this$1$[ebp], esi
  0002c	89 75 e4	 mov	 DWORD PTR _this$[ebp], esi
  0002f	e8 00 00 00 00	 call	 ??0CCtrl@@QAE@XZ	; CCtrl::CCtrl
  00034	8d 8e e8 02 00
	00		 lea	 ecx, DWORD PTR [esi+744]
  0003a	c7 45 fc 00 00
	00 00		 mov	 DWORD PTR __$EHRec$[ebp+8], 0
  00041	c7 06 00 00 00
	00		 mov	 DWORD PTR [esi], OFFSET ??_7CMover@@6B@
  00047	e8 00 00 00 00	 call	 ??0CUserTaskBar@@QAE@XZ	; CUserTaskBar::CUserTaskBar
  0004c	8d 8e 5c 3b 00
	00		 lea	 ecx, DWORD PTR [esi+15196]
  00052	c6 45 fc 01	 mov	 BYTE PTR __$EHRec$[ebp+8], 1
  00056	e8 00 00 00 00	 call	 ??0CRTMessenger@@QAE@XZ	; CRTMessenger::CRTMessenger
  0005b	8d 8e b4 3b 00
	00		 lea	 ecx, DWORD PTR [esi+15284]
  00061	e8 00 00 00 00	 call	 ??0?$CItemContainer@VCItemElem@@@@QAE@XZ ; CItemContainer<CItemElem>::CItemContainer<CItemElem>
  00066	8d 8e c8 3b 00
	00		 lea	 ecx, DWORD PTR [esi+15304]
  0006c	c6 45 fc 03	 mov	 BYTE PTR __$EHRec$[ebp+8], 3
  00070	e8 00 00 00 00	 call	 ??0CPocketController@@QAE@XZ ; CPocketController::CPocketController
  00075	68 00 00 00 00	 push	 OFFSET ??1?$CItemContainer@VCItemElem@@@@UAE@XZ ; CItemContainer<CItemElem>::~CItemContainer<CItemElem>
  0007a	68 00 00 00 00	 push	 OFFSET ??0?$CItemContainer@VCItemElem@@@@QAE@XZ ; CItemContainer<CItemElem>::CItemContainer<CItemElem>
  0007f	6a 03		 push	 3
  00081	8d 86 e4 3b 00
	00		 lea	 eax, DWORD PTR [esi+15332]
  00087	c6 45 fc 04	 mov	 BYTE PTR __$EHRec$[ebp+8], 4
  0008b	6a 14		 push	 20			; 00000014H
  0008d	50		 push	 eax
  0008e	89 45 ec	 mov	 DWORD PTR tv846[ebp], eax
  00091	e8 00 00 00 00	 call	 ??_L@YGXPAXIIP6EX0@Z1@Z
; File C:\IAGOS\server\v18\Source\Source\_Network\Mcl\Include\CMclCritSec.h

; 21   : 		::InitializeCriticalSection( &m_CritSec );

  00096	8d 86 4c 3c 00
	00		 lea	 eax, DWORD PTR [esi+15436]
  0009c	c7 86 48 3c 00
	00 00 00 00 00	 mov	 DWORD PTR [esi+15432], OFFSET ??_7CMclCritSec@@6B@
  000a6	50		 push	 eax
  000a7	ff 15 00 00 00
	00		 call	 DWORD PTR __imp__InitializeCriticalSection@4
; File C:\IAGOS\server\v18\Source\Source\_network\objects\Obj.cpp

; 106  : : m_buffs( this )

  000ad	56		 push	 esi
  000ae	8d 8e 60 3f 00
	00		 lea	 ecx, DWORD PTR [esi+16224]
  000b4	c6 45 fc 06	 mov	 BYTE PTR __$EHRec$[ebp+8], 6
  000b8	e8 00 00 00 00	 call	 ??0CBuffMgr@@QAE@PAVCMover@@@Z ; CBuffMgr::CBuffMgr

; 109  : 	memset( m_aJobSkill, 0, sizeof(SKILL) * MAX_SKILL_JOB );

  000bd	68 98 01 00 00	 push	 408			; 00000198H
  000c2	8d 86 00 01 00
	00		 lea	 eax, DWORD PTR [esi+256]
  000c8	c6 45 fc 07	 mov	 BYTE PTR __$EHRec$[ebp+8], 7
  000cc	6a 00		 push	 0
  000ce	50		 push	 eax
  000cf	e8 00 00 00 00	 call	 _memset

; 110  : 	m_dwBelligerence	= 0;

  000d4	c7 46 5c 00 00
	00 00		 mov	 DWORD PTR [esi+92], 0
  000db	0f 57 c0	 xorps	 xmm0, xmm0

; 111  : #ifdef __JEFF_9_20
; 112  : 	m_dwMute	= 0;

  000de	c7 86 40 3c 00
	00 00 00 00 00	 mov	 DWORD PTR [esi+15424], 0

; 113  : #else	// __JEFF_9_20
; 114  : 	m_dwFlyTime	= 0;
; 115  : #endif	// __JEFF_9_20
; 116  : 	m_dwReturnWorldID	= 0;

  000e8	c7 86 38 3c 00
	00 00 00 00 00	 mov	 DWORD PTR [esi+15416], 0

; 117  : 	m_idGuildCloak	= 0;

  000f2	c7 86 d0 00 00
	00 00 00 00 00	 mov	 DWORD PTR [esi+208], 0

; 118  : 	memset( m_szName, 0, sizeof(m_szName) );

  000fc	0f 11 46 6c	 movups	 XMMWORD PTR [esi+108], xmm0

; 127  : 	m_pActMover		= new CActionMover( this );

  00100	6a 0c		 push	 12			; 0000000cH
  00102	0f 11 46 7c	 movups	 XMMWORD PTR [esi+124], xmm0
  00106	c7 86 d0 02 00
	00 00 00 00 00	 mov	 DWORD PTR [esi+720], 0
  00110	c7 86 d4 02 00
	00 00 00 00 00	 mov	 DWORD PTR [esi+724], 0
  0011a	c7 86 d8 02 00
	00 00 00 00 00	 mov	 DWORD PTR [esi+728], 0
  00124	c7 86 2c 3c 00
	00 00 00 00 00	 mov	 DWORD PTR [esi+15404], 0
  0012e	c7 86 30 3c 00
	00 00 00 00 00	 mov	 DWORD PTR [esi+15408], 0
  00138	c7 86 34 3c 00
	00 00 00 00 00	 mov	 DWORD PTR [esi+15412], 0
  00142	c7 46 04 05 00
	00 00		 mov	 DWORD PTR [esi+4], 5
  00149	c7 86 8c 00 00
	00 00 00 00 00	 mov	 DWORD PTR [esi+140], 0
  00153	c7 86 90 00 00
	00 ff ff ff ff	 mov	 DWORD PTR [esi+144], -1
  0015d	0f 11 46 38	 movups	 XMMWORD PTR [esi+56], xmm0
  00161	0f 11 46 48	 movups	 XMMWORD PTR [esi+72], xmm0
  00165	c7 86 9c 00 00
	00 00 00 00 00	 mov	 DWORD PTR [esi+156], 0
  0016f	c7 86 98 00 00
	00 00 00 00 00	 mov	 DWORD PTR [esi+152], 0
  00179	c7 86 94 00 00
	00 00 00 00 00	 mov	 DWORD PTR [esi+148], 0
  00183	e8 00 00 00 00	 call	 ??2@YAPAXI@Z		; operator new
  00188	83 c4 10	 add	 esp, 16			; 00000010H
  0018b	89 45 f0	 mov	 DWORD PTR $T2[ebp], eax
  0018e	85 c0		 test	 eax, eax
  00190	74 16		 je	 SHORT $LN6@CMover
; File C:\IAGOS\server\v18\Source\Source\_Network\Objects\Obj.h

; 882  : 			m_dwState	= 0;

  00192	c7 40 04 00 00
	00 00		 mov	 DWORD PTR [eax+4], 0

; 883  : 			m_dwStateFlag		= 0;

  00199	c7 40 08 00 00
	00 00		 mov	 DWORD PTR [eax+8], 0

; 897  : 	CActionMover( CMover* pMover )	{}

  001a0	c7 00 00 00 00
	00		 mov	 DWORD PTR [eax], OFFSET ??_7CActionMover@@6B@
; File C:\IAGOS\server\v18\Source\Source\_network\objects\Obj.cpp

; 127  : 	m_pActMover		= new CActionMover( this );

  001a6	eb 02		 jmp	 SHORT $LN7@CMover
$LN6@CMover:
  001a8	33 c0		 xor	 eax, eax
$LN7@CMover:

; 128  : 	m_Inventory.SetItemContainer( ITYPE_ITEM, MAX_INVENTORY, MAX_HUMAN_PARTS );

  001aa	6a 1f		 push	 31			; 0000001fH
  001ac	6a 2a		 push	 42			; 0000002aH
  001ae	6a 00		 push	 0
  001b0	8d 8e b4 3b 00
	00		 lea	 ecx, DWORD PTR [esi+15284]
  001b6	89 86 b0 3b 00
	00		 mov	 DWORD PTR [esi+15280], eax
  001bc	e8 00 00 00 00	 call	 ?SetItemContainer@?$CItemContainer@VCItemElem@@@@QAEXKKK@Z ; CItemContainer<CItemElem>::SetItemContainer

; 129  : 
; 130  : 	m_nSlot = 0;

  001c1	c6 86 c8 00 00
	00 00		 mov	 BYTE PTR [esi+200], 0
  001c8	8d be d8 3b 00
	00		 lea	 edi, DWORD PTR [esi+15320]
  001ce	8b 75 ec	 mov	 esi, DWORD PTR tv846[ebp]
  001d1	c7 45 f0 03 00
	00 00		 mov	 DWORD PTR tv861[ebp], 3
$LL4@CMover:

; 131  : 	for( int i = 0 ; i < 3 ; ++i )
; 132  : 	{
; 133  : 		m_Bank[i].SetItemContainer( ITYPE_ITEM, MAX_BANK ) ;

  001d8	6a ff		 push	 -1
  001da	6a 2a		 push	 42			; 0000002aH
  001dc	6a 00		 push	 0
  001de	8b ce		 mov	 ecx, esi
  001e0	e8 00 00 00 00	 call	 ?SetItemContainer@?$CItemContainer@VCItemElem@@@@QAEXKKK@Z ; CItemContainer<CItemElem>::SetItemContainer
  001e5	83 c6 14	 add	 esi, 20			; 00000014H

; 134  : 		m_dwGoldBank[i] = 0;

  001e8	c7 47 48 00 00
	00 00		 mov	 DWORD PTR [edi+72], 0
  001ef	83 6d f0 01	 sub	 DWORD PTR tv861[ebp], 1
  001f3	8d 7f 04	 lea	 edi, DWORD PTR [edi+4]

; 135  : 		m_idPlayerBank[i] = 0;

  001f6	c7 47 fc 00 00
	00 00		 mov	 DWORD PTR [edi-4], 0
  001fd	75 d9		 jne	 SHORT $LL4@CMover

; 137  : 	m_nPlusMaxHitPoint = 0;

  001ff	8b 75 e8	 mov	 esi, DWORD PTR _this$1$[ebp]

; 138  : 	m_nAttackResistLeft = (BYTE)0xff;
; 139  : 	m_nAttackResistRight = (BYTE)0xff;
; 140  : 	m_nDefenseResist = (BYTE)0xff;
; 141  : 	memset( m_dwSMTime, 0, sizeof( DWORD ) * SM_MAX );

  00202	6a 68		 push	 104			; 00000068H
  00204	6a 00		 push	 0
  00206	8d 86 f4 3e 00
	00		 lea	 eax, DWORD PTR [esi+16116]
  0020c	c7 86 f0 3e 00
	00 00 00 00 00	 mov	 DWORD PTR [esi+16112], 0
  00216	50		 push	 eax
  00217	66 c7 86 5c 3f
	00 00 ff ff	 mov	 WORD PTR [esi+16220], 65535 ; 0000ffffH
  00220	c6 86 5e 3f 00
	00 ff		 mov	 BYTE PTR [esi+16222], 255 ; 000000ffH
  00227	e8 00 00 00 00	 call	 _memset
; File C:\IAGOS\server\v18\Source\Source\_Network\Objects\Obj.h

; 1120 : 		memset( m_aEquipInfo, 0, sizeof(EQUIP_INFO) * MAX_HUMAN_PARTS );

  0022c	68 70 01 00 00	 push	 368			; 00000170H
  00231	8d be 70 3f 00
	00		 lea	 edi, DWORD PTR [esi+16240]
  00237	8d 47 04	 lea	 eax, DWORD PTR [edi+4]
  0023a	6a 00		 push	 0
  0023c	50		 push	 eax
  0023d	e8 00 00 00 00	 call	 _memset
  00242	83 c4 18	 add	 esp, 24			; 00000018H
; File C:\IAGOS\server\v18\Source\Source\_network\objects\Obj.cpp

; 137  : 	m_nPlusMaxHitPoint = 0;

  00245	b8 1f 00 00 00	 mov	 eax, 31			; 0000001fH
  0024a	66 0f 1f 44 00
	00		 npad	 6
$LL30@CMover:
; File C:\IAGOS\server\v18\Source\Source\_Network\Objects\Obj.h

; 1122 : 			m_aEquipInfo[i].dwId	= NULL_ID;

  00250	c7 07 ff ff ff
	ff		 mov	 DWORD PTR [edi], -1
  00256	8d 7f 0c	 lea	 edi, DWORD PTR [edi+12]
  00259	83 e8 01	 sub	 eax, 1
  0025c	75 f2		 jne	 SHORT $LL30@CMover
; File C:\IAGOS\server\v18\Source\Source\_network\objects\Obj.cpp

; 147  : 	m_dwSkinSet	= 0;//SKINSET_00;

  0025e	68 b0 04 00 00	 push	 1200			; 000004b0H
  00263	89 86 a0 00 00
	00		 mov	 DWORD PTR [esi+160], eax

; 148  : 	m_dwHairMesh	= 0;//HAIRMESH_00;

  00269	89 86 a4 00 00
	00		 mov	 DWORD PTR [esi+164], eax

; 149  : 	m_dwHairColor	= 0xffffffff;

  0026f	c7 86 a8 00 00
	00 ff ff ff ff	 mov	 DWORD PTR [esi+168], -1

; 150  : 	m_dwHeadMesh	= 0;

  00279	89 86 ac 00 00
	00		 mov	 DWORD PTR [esi+172], eax

; 151  : #if __VER >= 12 // __MOD_TUTORIAL
; 152  : 	m_nTutorialState	= 0;

  0027f	89 86 b0 00 00
	00		 mov	 DWORD PTR [esi+176], eax

; 153  : #else	// __MOD_TUTORIAL
; 154  : 	m_nFlightLv		= 0;
; 155  : #endif	// __MOD_TUTORIAL
; 156  : 	m_nFxp			= 0;

  00285	89 86 b4 00 00
	00		 mov	 DWORD PTR [esi+180], eax

; 157  : //	m_nTxp			= 0;
; 158  : 	m_bySex		= SEX_FEMALE;

  0028b	c6 86 b8 00 00
	00 01		 mov	 BYTE PTR [esi+184], 1

; 159  : 	m_dwRideItemIdx		= 0;

  00292	89 86 bc 00 00
	00		 mov	 DWORD PTR [esi+188], eax

; 160  : 
; 161  :   	m_dwGold	= 0;

  00298	89 46 34	 mov	 DWORD PTR [esi+52], eax

; 162  : 
; 163  : 	m_nJob	= -1;

  0029b	c7 86 c4 00 00
	00 ff ff ff ff	 mov	 DWORD PTR [esi+196], -1

; 164  : 	
; 165  : 	m_nStr	= m_nSta	= m_nDex	= m_nInt	= 15;

  002a5	c7 86 e0 00 00
	00 0f 00 00 00	 mov	 DWORD PTR [esi+224], 15	; 0000000fH
  002af	c7 86 dc 00 00
	00 0f 00 00 00	 mov	 DWORD PTR [esi+220], 15	; 0000000fH
  002b9	c7 86 d8 00 00
	00 0f 00 00 00	 mov	 DWORD PTR [esi+216], 15	; 0000000fH
  002c3	c7 86 d4 00 00
	00 0f 00 00 00	 mov	 DWORD PTR [esi+212], 15	; 0000000fH

; 166  : 	m_nLevel	= 1;

  002cd	c7 86 e4 00 00
	00 01 00 00 00	 mov	 DWORD PTR [esi+228], 1

; 167  : 	m_nExp1	= m_nDeathExp	= 0;

  002d7	89 86 f8 00 00
	00		 mov	 DWORD PTR [esi+248], eax
  002dd	89 86 fc 00 00
	00		 mov	 DWORD PTR [esi+252], eax
  002e3	89 86 f0 00 00
	00		 mov	 DWORD PTR [esi+240], eax
  002e9	89 86 f4 00 00
	00		 mov	 DWORD PTR [esi+244], eax

; 168  : 	m_nDeathLevel = 0;

  002ef	89 86 e8 00 00
	00		 mov	 DWORD PTR [esi+232], eax

; 169  : 
; 170  : 	m_idMarkingWorld	= NULL_ID;

  002f5	c7 86 cc 02 00
	00 ff ff ff ff	 mov	 DWORD PTR [esi+716], -1

; 171  : 
; 172  : 	m_dwAuthorization	= AUTH_GENERAL;

  002ff	c7 86 e0 02 00
	00 46 00 00 00	 mov	 DWORD PTR [esi+736], 70	; 00000046H

; 173  : 	m_dwMode	= 0;

  00309	89 86 e4 02 00
	00		 mov	 DWORD PTR [esi+740], eax

; 174  : 	m_dwStateMode = 0;

  0030f	89 86 e4 40 00
	00		 mov	 DWORD PTR [esi+16612], eax

; 175  : 	m_dwUseItemId = 0;

  00315	89 86 e8 40 00
	00		 mov	 DWORD PTR [esi+16616], eax

; 176  : 	m_nRemainGP	= 0;

  0031b	89 86 dc 02 00
	00		 mov	 DWORD PTR [esi+732], eax

; 177  : 
; 178  : 	m_aQuest = new QUEST[ MAX_QUEST ]; 

  00321	e8 00 00 00 00	 call	 ??_U@YAPAXI@Z		; operator new[]

; 179  : 	m_aCompleteQuest = new WORD[ MAX_COMPLETE_QUEST ];

  00326	68 e8 03 00 00	 push	 1000			; 000003e8H
  0032b	89 86 ec 40 00
	00		 mov	 DWORD PTR [esi+16620], eax
  00331	e8 00 00 00 00	 call	 ??_U@YAPAXI@Z		; operator new[]

; 180  : 	m_nQuestSize = 0;
; 181  : 	m_nCompleteQuestSize = 0;
; 182  : 	memset( m_aQuest, 0, sizeof(QUEST) * MAX_QUEST );

  00336	68 b0 04 00 00	 push	 1200			; 000004b0H
  0033b	6a 00		 push	 0
  0033d	ff b6 ec 40 00
	00		 push	 DWORD PTR [esi+16620]
  00343	89 86 f0 40 00
	00		 mov	 DWORD PTR [esi+16624], eax
  00349	66 c7 86 f4 40
	00 00 00 00	 mov	 WORD PTR [esi+16628], 0
  00352	e8 00 00 00 00	 call	 _memset

; 183  : 	memset( m_aCompleteQuest, 0, sizeof(WORD) * MAX_COMPLETE_QUEST );

  00357	68 e8 03 00 00	 push	 1000			; 000003e8H
  0035c	6a 00		 push	 0
  0035e	ff b6 f0 40 00
	00		 push	 DWORD PTR [esi+16624]
  00364	e8 00 00 00 00	 call	 _memset

; 184  : #if __VER >= 15 // __IMPROVE_QUEST_INTERFACE
; 185  : 	m_aCheckedQuest = new WORD[ MAX_CHECKED_QUEST ];

  00369	6a 0a		 push	 10			; 0000000aH
  0036b	e8 00 00 00 00	 call	 ??_U@YAPAXI@Z		; operator new[]
  00370	89 86 08 41 00
	00		 mov	 DWORD PTR [esi+16648], eax
  00376	0f 57 c0	 xorps	 xmm0, xmm0

; 186  : 	m_nCheckedQuestSize = 0;

  00379	c6 86 0c 41 00
	00 00		 mov	 BYTE PTR [esi+16652], 0

; 187  : 	memset( m_aCheckedQuest, 0, sizeof(WORD) * MAX_CHECKED_QUEST );

  00380	66 0f d6 00	 movq	 QWORD PTR [eax], xmm0
  00384	66 c7 40 08 00
	00		 mov	 WORD PTR [eax+8], 0

; 188  : #endif // __IMPROVE_QUEST_INTERFACE
; 189  : 
; 190  : 	m_idparty = 0;

  0038a	c7 86 6c 3b 00
	00 00 00 00 00	 mov	 DWORD PTR [esi+15212], 0

; 191  : 	m_idGuild	= 0;

  00394	c7 86 70 3b 00
	00 00 00 00 00	 mov	 DWORD PTR [esi+15216], 0

; 192  : 	m_idWar	= 0;

  0039e	c7 86 74 3b 00
	00 00 00 00 00	 mov	 DWORD PTR [esi+15220], 0

; 193  : #if __VER >= 8 // __S8_PK
; 194  : 	m_dwPKTime			= 0;			/// ÇÎĹ© »óĹÂ ˝Ă°Ł

  003a8	c7 86 78 3b 00
	00 00 00 00 00	 mov	 DWORD PTR [esi+15224], 0

; 195  : 	m_nPKValue			= 0;			/// PK ĽöÄˇ

  003b2	c7 86 7c 3b 00
	00 00 00 00 00	 mov	 DWORD PTR [esi+15228], 0

; 196  : 	m_dwPKPropensity	= 0;			/// PK ĽşÇâ

  003bc	c7 86 80 3b 00
	00 00 00 00 00	 mov	 DWORD PTR [esi+15232], 0

; 197  : 	m_dwPKExp			= 0;			/// PK ĽşÇâ ˝Ŕµć °ćÇčÄˇ

  003c6	c7 86 84 3b 00
	00 00 00 00 00	 mov	 DWORD PTR [esi+15236], 0

; 198  : #else // __VER >= 8 // __S8_PK
; 199  : 	m_nNumKill			= 0;
; 200  : 	m_nSlaughter		= 0;
; 201  : #endif // __VER >= 8 // __S8_PK
; 202  : #if __VER >= 8 //__CSC_VER8_5
; 203  : 	m_nAngelExp			= 0;			/// żŁÁ© °ćÇčÄˇ

  003d0	c7 86 88 3b 00
	00 00 00 00 00	 mov	 DWORD PTR [esi+15240], 0
  003da	c7 86 8c 3b 00
	00 00 00 00 00	 mov	 DWORD PTR [esi+15244], 0

; 204  : 	m_nAngelLevel		= 0;			/// żŁÁ© Level

  003e4	c7 86 90 3b 00
	00 00 00 00 00	 mov	 DWORD PTR [esi+15248], 0

; 205  : #endif // __CSC_VER8_5
; 206  : 	m_nFame		= 0;

  003ee	c7 86 94 3b 00
	00 00 00 00 00	 mov	 DWORD PTR [esi+15252], 0

; 207  : 	m_idMurderer	= 0;

  003f8	c7 86 98 3b 00
	00 00 00 00 00	 mov	 DWORD PTR [esi+15256], 0

; 208  : #ifdef __DBSERVER
; 209  : 	m_dwWorldID		= 1;

  00402	c7 86 44 3c 00
	00 01 00 00 00	 mov	 DWORD PTR [esi+15428], 1

; 210  : #endif // __DBSERVER
; 211  : 	memset( m_szBankPass, 0, sizeof( m_szBankPass ) );

  0040c	c7 86 c9 00 00
	00 00 00 00 00	 mov	 DWORD PTR [esi+201], 0
  00416	c6 86 cd 00 00
	00 00		 mov	 BYTE PTR [esi+205], 0

; 212  : 
; 213  : 	m_nDuel	= 0;

  0041d	c7 86 9c 3b 00
	00 00 00 00 00	 mov	 DWORD PTR [esi+15260], 0

; 214  : 	m_idDuelParty	= 0;

  00427	c7 86 a0 3b 00
	00 00 00 00 00	 mov	 DWORD PTR [esi+15264], 0

; 215  : 	m_nFuel		= -1;

  00431	c7 86 c0 00 00
	00 ff ff ff ff	 mov	 DWORD PTR [esi+192], -1

; 216  : 	m_bActiveAttack		= FALSE;

  0043b	c7 46 58 00 00
	00 00		 mov	 DWORD PTR [esi+88], 0

; 217  : 	m_nMovePattern = m_nMoveEvent = m_nMoveEventCnt = 0;

  00442	c7 46 68 00 00
	00 00		 mov	 DWORD PTR [esi+104], 0
  00449	c7 46 64 00 00
	00 00		 mov	 DWORD PTR [esi+100], 0
  00450	c7 46 60 00 00
	00 00		 mov	 DWORD PTR [esi+96], 0

; 218  : 	m_tmAccFuel = 0;

  00457	c7 86 3c 3c 00
	00 00 00 00 00	 mov	 DWORD PTR [esi+15420], 0

; 219  : 	m_dwPeriodicTick	= 0;

  00461	c7 86 f8 40 00
	00 00 00 00 00	 mov	 DWORD PTR [esi+16632], 0

; 220  : 	m_dwTickCheer	= 0;

  0046b	c7 86 fc 40 00
	00 00 00 00 00	 mov	 DWORD PTR [esi+16636], 0

; 221  : 	m_nCheerPoint	= 0;

  00475	c7 86 00 41 00
	00 00 00 00 00	 mov	 DWORD PTR [esi+16640], 0

; 222  : 	m_nGuildCombatState = 0;

  0047f	c7 86 a4 3b 00
	00 00 00 00 00	 mov	 DWORD PTR [esi+15268], 0

; 223  : 	m_nSkillLevel = 0;

  00489	c7 86 a8 3b 00
	00 00 00 00 00	 mov	 DWORD PTR [esi+15272], 0

; 224  : 	m_nSkillPoint = 0;

  00493	c7 86 ac 3b 00
	00 00 00 00 00	 mov	 DWORD PTR [esi+15276], 0

; 225  : 
; 226  : #ifdef __DBSERVER
; 227  : #ifdef __EVENT_1101
; 228  : #ifdef __EVENT_1101_2
; 229  : 	m_nEventFlag = 0;

  0049d	c7 86 68 3c 00
	00 00 00 00 00	 mov	 DWORD PTR [esi+15464], 0
  004a7	c7 86 6c 3c 00
	00 00 00 00 00	 mov	 DWORD PTR [esi+15468], 0

; 230  : #else // __EVENT_1101_2
; 231  : 	m_dwEventFlag	= 0;
; 232  : #endif // __EVENT_1101_2
; 233  : 	m_dwEventTime	= 0;

  004b1	c7 86 70 3c 00
	00 00 00 00 00	 mov	 DWORD PTR [esi+15472], 0

; 234  : 	m_dwEventElapsed	= 0;

  004bb	c7 86 74 3c 00
	00 00 00 00 00	 mov	 DWORD PTR [esi+15476], 0

; 235  : #endif	// __EVENT_1101
; 236  : #ifdef __INVALID_LOGIN_0612
; 237  : 	m_bLogout	= FALSE;
; 238  : 	*m_szAccount	= '\0';
; 239  : #endif	// __INVALID_LOGIN_0612
; 240  : #endif	// __DBSERVER
; 241  : 
; 242  : #ifdef __SKILL_0205
; 243  : 	memset( m_abUpdateSkill, 0, sizeof(m_abUpdateSkill)  );		// Äő¸® ˝ÇÇŕÇŘľßÇĎ´Â°ˇ?

  004c5	6a 33		 push	 51			; 00000033H
  004c7	8d 86 98 02 00
	00		 lea	 eax, DWORD PTR [esi+664]
  004cd	c7 86 20 41 00
	00 00 00 00 00	 mov	 DWORD PTR [esi+16672], 0
  004d7	6a 00		 push	 0
  004d9	50		 push	 eax
  004da	c6 86 24 41 00
	00 00		 mov	 BYTE PTR [esi+16676], 0
  004e1	e8 00 00 00 00	 call	 _memset

; 244  : #endif	// __SKILL_0205
; 245  : 
; 246  : #if __VER >= 9	// __PET_0410
; 247  : 	m_dwPetId	= NULL_ID;
; 248  : #endif	// __PET_0410
; 249  : #if __VER >= 9	//__AI_0509
; 250  : 	m_fSpeedFactor	= 1.0F;
; 251  : #endif	// __AI_0509
; 252  : 	
; 253  : #ifdef __EXP_ANGELEXP_LOG
; 254  : 	m_nExpLog = 0;
; 255  : 	m_nAngelExpLog = 0;
; 256  : #endif // __EXP_ANGELEXP_LOG
; 257  : 
; 258  : #ifdef __EVENTLUA_COUPON
; 259  : 	m_nCoupon = 0;
; 260  : #endif // __EVENTLUA_COUPON
; 261  : 
; 262  : #ifdef __JEFF_9_20
; 263  : 	m_dwMute	= 0;
; 264  : #endif	// __JEFF_9_20
; 265  : #if __VER >= 13 // __HONORABLE_TITLE			// ´ŢŔÎ
; 266  : 	m_nHonor = -1;					// ´ŢŔÎĽ±ĹĂ 
; 267  : 	memset( m_aHonorTitle, 0, sizeof( int ) * MAX_HONOR_TITLE );// ´ŢŔÎĽöÄˇ

  004e6	68 58 02 00 00	 push	 600			; 00000258H
  004eb	8d 86 98 3c 00
	00		 lea	 eax, DWORD PTR [esi+15512]
  004f1	c7 86 80 3c 00
	00 ff ff ff ff	 mov	 DWORD PTR [esi+15488], -1
  004fb	6a 00		 push	 0
  004fd	50		 push	 eax
  004fe	c7 86 84 3c 00
	00 00 00 80 3f	 mov	 DWORD PTR [esi+15492], 1065353216 ; 3f800000H
  00508	c7 86 88 3c 00
	00 00 00 00 00	 mov	 DWORD PTR [esi+15496], 0
  00512	c7 86 8c 3c 00
	00 00 00 00 00	 mov	 DWORD PTR [esi+15500], 0
  0051c	c7 86 90 3c 00
	00 00 00 00 00	 mov	 DWORD PTR [esi+15504], 0
  00526	c7 86 40 3c 00
	00 00 00 00 00	 mov	 DWORD PTR [esi+15424], 0
  00530	c7 86 94 3c 00
	00 ff ff ff ff	 mov	 DWORD PTR [esi+15508], -1
  0053a	e8 00 00 00 00	 call	 _memset
  0053f	83 c4 3c	 add	 esp, 60			; 0000003cH

; 268  : #endif	// __HONORABLE_TITLE			// ´ŢŔÎ
; 269  : #if __VER >= 14 // __PCBANG
; 270  : 	m_dwPCBangClass = 0;

  00542	c7 86 04 41 00
	00 00 00 00 00	 mov	 DWORD PTR [esi+16644], 0

; 271  : #endif // __PCBANG
; 272  : #if __VER >= 15 // __PETVIS
; 273  : 	m_objIdVisPet = NULL_ID;

  0054c	c7 86 78 3c 00
	00 ff ff ff ff	 mov	 DWORD PTR [esi+15480], -1

; 274  : 	m_dwMoverSfxId = NULL_ID;
; 275  : #endif // __PETVIS
; 276  : #if __VER >= 15 // __CAMPUS
; 277  : 	m_idCampus = 0;
; 278  : 	m_nCampusPoint = 0;
; 279  : #endif // __CAMPUS
; 280  : #if __VER >= 15 // __GUILD_HOUSE
; 281  : 	m_nRestPoint = 0;
; 282  : 	m_tLogOut = 0;
; 283  : #endif // __GUILD_HOUSE
; 284  : }

  00556	8b c6		 mov	 eax, esi
  00558	c7 86 7c 3c 00
	00 ff ff ff ff	 mov	 DWORD PTR [esi+15484], -1
  00562	c7 86 10 41 00
	00 00 00 00 00	 mov	 DWORD PTR [esi+16656], 0
  0056c	c7 86 14 41 00
	00 00 00 00 00	 mov	 DWORD PTR [esi+16660], 0
  00576	c7 86 18 41 00
	00 00 00 00 00	 mov	 DWORD PTR [esi+16664], 0
  00580	c7 86 1c 41 00
	00 00 00 00 00	 mov	 DWORD PTR [esi+16668], 0
  0058a	8b 4d f4	 mov	 ecx, DWORD PTR __$EHRec$[ebp]
  0058d	64 89 0d 00 00
	00 00		 mov	 DWORD PTR fs:0, ecx
  00594	59		 pop	 ecx
  00595	5f		 pop	 edi
  00596	5e		 pop	 esi
  00597	8b e5		 mov	 esp, ebp
  00599	5d		 pop	 ebp
  0059a	c3		 ret	 0
_TEXT	ENDS
;	COMDAT text$x
text$x	SEGMENT
__unwindfunclet$??0CMover@@QAE@XZ$0:
  00000	8b 4d e4	 mov	 ecx, DWORD PTR _this$[ebp]
  00003	e9 00 00 00 00	 jmp	 ??1CCtrl@@UAE@XZ	; CCtrl::~CCtrl
__unwindfunclet$??0CMover@@QAE@XZ$1:
  00008	8b 4d e4	 mov	 ecx, DWORD PTR _this$[ebp]
  0000b	81 c1 e8 02 00
	00		 add	 ecx, 744		; 000002e8H
  00011	e9 00 00 00 00	 jmp	 ??1CUserTaskBar@@UAE@XZ	; CUserTaskBar::~CUserTaskBar
__unwindfunclet$??0CMover@@QAE@XZ$2:
  00016	8b 4d e4	 mov	 ecx, DWORD PTR _this$[ebp]
  00019	81 c1 5c 3b 00
	00		 add	 ecx, 15196		; 00003b5cH
  0001f	e9 00 00 00 00	 jmp	 ??1CRTMessenger@@UAE@XZ	; CRTMessenger::~CRTMessenger
__unwindfunclet$??0CMover@@QAE@XZ$3:
  00024	8b 4d e4	 mov	 ecx, DWORD PTR _this$[ebp]
  00027	81 c1 b4 3b 00
	00		 add	 ecx, 15284		; 00003bb4H
  0002d	e9 00 00 00 00	 jmp	 ??1?$CItemContainer@VCItemElem@@@@UAE@XZ ; CItemContainer<CItemElem>::~CItemContainer<CItemElem>
__unwindfunclet$??0CMover@@QAE@XZ$4:
  00032	8b 4d e4	 mov	 ecx, DWORD PTR _this$[ebp]
  00035	81 c1 c8 3b 00
	00		 add	 ecx, 15304		; 00003bc8H
  0003b	e9 00 00 00 00	 jmp	 ??1CPocketController@@UAE@XZ ; CPocketController::~CPocketController
__unwindfunclet$??0CMover@@QAE@XZ$5:
  00040	68 00 00 00 00	 push	 OFFSET ??1?$CItemContainer@VCItemElem@@@@UAE@XZ ; CItemContainer<CItemElem>::~CItemContainer<CItemElem>
  00045	6a 03		 push	 3
  00047	6a 14		 push	 20			; 00000014H
  00049	8b 45 e4	 mov	 eax, DWORD PTR _this$[ebp]
  0004c	05 e4 3b 00 00	 add	 eax, 15332		; 00003be4H
  00051	50		 push	 eax
  00052	e8 00 00 00 00	 call	 ??_M@YGXPAXIIP6EX0@Z@Z
  00057	c3		 ret	 0
__unwindfunclet$??0CMover@@QAE@XZ$6:
  00058	8b 4d e4	 mov	 ecx, DWORD PTR _this$[ebp]
  0005b	81 c1 48 3c 00
	00		 add	 ecx, 15432		; 00003c48H
  00061	e9 00 00 00 00	 jmp	 ??1CMclCritSec@@UAE@XZ	; CMclCritSec::~CMclCritSec
__unwindfunclet$??0CMover@@QAE@XZ$7:
  00066	8b 4d e4	 mov	 ecx, DWORD PTR _this$[ebp]
  00069	81 c1 60 3f 00
	00		 add	 ecx, 16224		; 00003f60H
  0006f	e9 00 00 00 00	 jmp	 ??1CBuffMgr@@UAE@XZ	; CBuffMgr::~CBuffMgr
  00074	cc		 int	 3
  00075	cc		 int	 3
  00076	cc		 int	 3
  00077	cc		 int	 3
  00078	cc		 int	 3
__ehhandler$??0CMover@@QAE@XZ:
  00079	90		 npad	 1
  0007a	90		 npad	 1
  0007b	8b 54 24 08	 mov	 edx, DWORD PTR [esp+8]
  0007f	8d 42 0c	 lea	 eax, DWORD PTR [edx+12]
  00082	8b 4a e4	 mov	 ecx, DWORD PTR [edx-28]
  00085	33 c8		 xor	 ecx, eax
  00087	e8 00 00 00 00	 call	 @__security_check_cookie@4
  0008c	b8 00 00 00 00	 mov	 eax, OFFSET __ehfuncinfo$??0CMover@@QAE@XZ
  00091	e9 00 00 00 00	 jmp	 ___CxxFrameHandler3
text$x	ENDS
??0CMover@@QAE@XZ ENDP					; CMover::CMover
; Function compile flags: /Ogtp
; File C:\IAGOS\server\v18\Source\Source\_network\objects\Obj.cpp
;	COMDAT ?GetPetItem@CMover@@QAEPAVCItemElem@@XZ
_TEXT	SEGMENT
?GetPetItem@CMover@@QAEPAVCItemElem@@XZ PROC		; CMover::GetPetItem, COMDAT
; _this$ = ecx

; 953  : 	return m_Inventory.GetAtId( m_dwPetId );

  00000	ff b1 80 3c 00
	00		 push	 DWORD PTR [ecx+15488]
  00006	81 c1 b4 3b 00
	00		 add	 ecx, 15284		; 00003bb4H
  0000c	e8 00 00 00 00	 call	 ?GetAtId@?$CItemContainer@VCItemElem@@@@QAEPAVCItemElem@@K@Z ; CItemContainer<CItemElem>::GetAtId

; 954  : }

  00011	c3		 ret	 0
?GetPetItem@CMover@@QAEPAVCItemElem@@XZ ENDP		; CMover::GetPetItem
_TEXT	ENDS
; Function compile flags: /Ogtp
;	COMDAT ??_G?$CItemContainer@VCItemElem@@@@UAEPAXI@Z
_TEXT	SEGMENT
___flags$ = 8						; size = 4
??_G?$CItemContainer@VCItemElem@@@@UAEPAXI@Z PROC	; CItemContainer<CItemElem>::`scalar deleting destructor', COMDAT
; _this$ = ecx
  00000	55		 push	 ebp
  00001	8b ec		 mov	 ebp, esp
  00003	56		 push	 esi
  00004	8b f1		 mov	 esi, ecx
  00006	e8 00 00 00 00	 call	 ??1?$CItemContainer@VCItemElem@@@@UAE@XZ ; CItemContainer<CItemElem>::~CItemContainer<CItemElem>
  0000b	f6 45 08 01	 test	 BYTE PTR ___flags$[ebp], 1
  0000f	74 0b		 je	 SHORT $LN5@scalar
  00011	6a 14		 push	 20			; 00000014H
  00013	56		 push	 esi
  00014	e8 00 00 00 00	 call	 ??3@YAXPAXI@Z		; operator delete
  00019	83 c4 08	 add	 esp, 8
$LN5@scalar:
  0001c	8b c6		 mov	 eax, esi
  0001e	5e		 pop	 esi
  0001f	5d		 pop	 ebp
  00020	c2 04 00	 ret	 4
??_G?$CItemContainer@VCItemElem@@@@UAEPAXI@Z ENDP	; CItemContainer<CItemElem>::`scalar deleting destructor'
_TEXT	ENDS
; Function compile flags: /Ogtp
; File C:\IAGOS\server\v18\Source\Source\_Network\Objects\Obj.h
;	COMDAT ?Copy@?$CItemContainer@VCItemElem@@@@QAEXAAV1@@Z
_TEXT	SEGMENT
_rItemContainer$ = 8					; size = 4
?Copy@?$CItemContainer@VCItemElem@@@@QAEXAAV1@@Z PROC	; CItemContainer<CItemElem>::Copy, COMDAT
; _this$ = ecx

; 787  : {

  00000	55		 push	 ebp
  00001	8b ec		 mov	 ebp, esp
  00003	53		 push	 ebx
  00004	8b d9		 mov	 ebx, ecx

; 788  : 	m_dwIndexNum	= rItemContainer.m_dwIndexNum;

  00006	8b 4d 08	 mov	 ecx, DWORD PTR _rItemContainer$[ebp]
  00009	57		 push	 edi
  0000a	8b 41 08	 mov	 eax, DWORD PTR [ecx+8]
  0000d	89 43 08	 mov	 DWORD PTR [ebx+8], eax

; 789  : 	memcpy( (void*)m_apIndex, (void*)rItemContainer.m_apIndex, sizeof(DWORD) * m_dwItemMax );

  00010	8b 43 10	 mov	 eax, DWORD PTR [ebx+16]
  00013	c1 e0 02	 shl	 eax, 2
  00016	50		 push	 eax
  00017	ff 71 04	 push	 DWORD PTR [ecx+4]
  0001a	ff 73 04	 push	 DWORD PTR [ebx+4]
  0001d	e8 00 00 00 00	 call	 _memcpy

; 790  : 	for( u_long i = 0; i < m_dwItemMax; i++ )

  00022	33 ff		 xor	 edi, edi
  00024	83 c4 0c	 add	 esp, 12			; 0000000cH
  00027	39 7b 10	 cmp	 DWORD PTR [ebx+16], edi
  0002a	76 4c		 jbe	 SHORT $LN3@Copy

; 788  : 	m_dwIndexNum	= rItemContainer.m_dwIndexNum;

  0002c	56		 push	 esi
  0002d	33 f6		 xor	 esi, esi
  0002f	90		 npad	 1
$LL4@Copy:

; 791  : 	{
; 792  : 		m_apItem[i].m_dwObjId	= rItemContainer.m_apItem[i].m_dwObjId;

  00030	8b 55 08	 mov	 edx, DWORD PTR _rItemContainer$[ebp]
  00033	8b 4b 0c	 mov	 ecx, DWORD PTR [ebx+12]
  00036	8b 42 0c	 mov	 eax, DWORD PTR [edx+12]
  00039	8b 44 30 04	 mov	 eax, DWORD PTR [eax+esi+4]
  0003d	89 44 31 04	 mov	 DWORD PTR [ecx+esi+4], eax

; 793  : 		m_apItem[i].m_dwObjIndex	= rItemContainer.m_apItem[i].m_dwObjIndex;

  00041	8b 42 0c	 mov	 eax, DWORD PTR [edx+12]
  00044	8b 4b 0c	 mov	 ecx, DWORD PTR [ebx+12]
  00047	8b 44 30 2c	 mov	 eax, DWORD PTR [eax+esi+44]
  0004b	89 44 31 2c	 mov	 DWORD PTR [ecx+esi+44], eax

; 131  : 	BOOL	IsEmpty()	{	return m_dwItemId ? FALSE : TRUE;	}

  0004f	8b 52 0c	 mov	 edx, DWORD PTR [edx+12]
  00052	8b 43 0c	 mov	 eax, DWORD PTR [ebx+12]
  00055	03 d6		 add	 edx, esi
  00057	83 7a 08 00	 cmp	 DWORD PTR [edx+8], 0

; 794  : 		if( rItemContainer.m_apItem[i].IsEmpty() == FALSE )

  0005b	8d 0c 06	 lea	 ecx, DWORD PTR [esi+eax]
  0005e	8b 01		 mov	 eax, DWORD PTR [ecx]
  00060	74 06		 je	 SHORT $LN5@Copy

; 795  : 			m_apItem[i]		= rItemContainer.m_apItem[i];

  00062	52		 push	 edx
  00063	ff 50 10	 call	 DWORD PTR [eax+16]
  00066	eb 03		 jmp	 SHORT $LN2@Copy
$LN5@Copy:

; 796  : 		else
; 797  : 			m_apItem[i].Empty();

  00068	ff 50 04	 call	 DWORD PTR [eax+4]
$LN2@Copy:

; 790  : 	for( u_long i = 0; i < m_dwItemMax; i++ )

  0006b	47		 inc	 edi
  0006c	81 c6 98 00 00
	00		 add	 esi, 152		; 00000098H
  00072	3b 7b 10	 cmp	 edi, DWORD PTR [ebx+16]
  00075	72 b9		 jb	 SHORT $LL4@Copy
  00077	5e		 pop	 esi
$LN3@Copy:
  00078	5f		 pop	 edi

; 798  : 	}
; 799  : }

  00079	5b		 pop	 ebx
  0007a	5d		 pop	 ebp
  0007b	c2 04 00	 ret	 4
?Copy@?$CItemContainer@VCItemElem@@@@QAEXAAV1@@Z ENDP	; CItemContainer<CItemElem>::Copy
_TEXT	ENDS
; Function compile flags: /Ogtp
; File C:\IAGOS\server\v18\Source\Source\_Network\Objects\Obj.h
;	COMDAT ?UnEquip@?$CItemContainer@VCItemElem@@@@QAEHK@Z
_TEXT	SEGMENT
_dwId$1$ = -4						; size = 4
_dwIndex$ = 8						; size = 4
tv380 = 8						; size = 4
?UnEquip@?$CItemContainer@VCItemElem@@@@QAEHK@Z PROC	; CItemContainer<CItemElem>::UnEquip, COMDAT
; _this$ = ecx

; 743  : { 

  00000	55		 push	 ebp
  00001	8b ec		 mov	 ebp, esp
  00003	51		 push	 ecx

; 744  : 	dwIndex		+= m_dwIndexNum;

  00004	8b 45 08	 mov	 eax, DWORD PTR _dwIndex$[ebp]
  00007	53		 push	 ebx
  00008	56		 push	 esi
  00009	57		 push	 edi
  0000a	8b f9		 mov	 edi, ecx
  0000c	8b 5f 08	 mov	 ebx, DWORD PTR [edi+8]
  0000f	03 c3		 add	 eax, ebx

; 745  : 	if( dwIndex >= m_dwItemMax )

  00011	8b 4f 10	 mov	 ecx, DWORD PTR [edi+16]
  00014	3b c1		 cmp	 eax, ecx
  00016	73 3a		 jae	 SHORT $LN15@UnEquip

; 746  : 		return FALSE;
; 747  : 
; 748  : 	DWORD dwId	= m_apIndex[dwIndex];

  00018	8b 77 04	 mov	 esi, DWORD PTR [edi+4]
  0001b	c1 e0 02	 shl	 eax, 2
  0001e	89 45 08	 mov	 DWORD PTR tv380[ebp], eax
  00021	8b 04 06	 mov	 eax, DWORD PTR [esi+eax]
  00024	89 45 fc	 mov	 DWORD PTR _dwId$1$[ebp], eax

; 749  : 
; 750  : 	if( dwId >= m_dwItemMax )

  00027	3b c1		 cmp	 eax, ecx
  00029	73 27		 jae	 SHORT $LN15@UnEquip

; 751  : 		return FALSE;
; 752  : 
; 753  : 	for( DWORD i = 0; i < m_dwIndexNum; i++ )

  0002b	33 d2		 xor	 edx, edx
  0002d	85 db		 test	 ebx, ebx
  0002f	74 21		 je	 SHORT $LN15@UnEquip
$LL4@UnEquip:

; 754  : 	{
; 755  : 		if( m_apIndex[i] >= m_dwItemMax )

  00031	8b 06		 mov	 eax, DWORD PTR [esi]
  00033	3b c1		 cmp	 eax, ecx
  00035	73 13		 jae	 SHORT $LN2@UnEquip

; 756  : 			continue;
; 757  : 
; 758  : 		if( m_apItem[m_apIndex[i]].IsEmpty() )

  00037	69 c8 98 00 00
	00		 imul	 ecx, eax, 152

; 131  : 	BOOL	IsEmpty()	{	return m_dwItemId ? FALSE : TRUE;	}

  0003d	8b 47 0c	 mov	 eax, DWORD PTR [edi+12]
  00040	83 7c 08 08 00	 cmp	 DWORD PTR [eax+ecx+8], 0

; 756  : 			continue;
; 757  : 
; 758  : 		if( m_apItem[m_apIndex[i]].IsEmpty() )

  00045	74 16		 je	 SHORT $LN13@UnEquip
  00047	8b 4f 10	 mov	 ecx, DWORD PTR [edi+16]
$LN2@UnEquip:

; 751  : 		return FALSE;
; 752  : 
; 753  : 	for( DWORD i = 0; i < m_dwIndexNum; i++ )

  0004a	42		 inc	 edx
  0004b	83 c6 04	 add	 esi, 4
  0004e	3b d3		 cmp	 edx, ebx
  00050	72 df		 jb	 SHORT $LL4@UnEquip
$LN15@UnEquip:
  00052	5f		 pop	 edi

; 765  : 		}
; 766  : 	}
; 767  : 	return FALSE;
; 768  : }

  00053	5e		 pop	 esi
  00054	33 c0		 xor	 eax, eax
  00056	5b		 pop	 ebx
  00057	8b e5		 mov	 esp, ebp
  00059	5d		 pop	 ebp
  0005a	c2 04 00	 ret	 4
$LN13@UnEquip:

; 759  : 		{
; 760  : 			m_apItem[m_apIndex[i]].m_dwObjIndex		= NULL_ID;
; 761  : 			m_apIndex[dwIndex]	= NULL_ID;
; 762  : 			m_apItem[dwId].m_dwObjIndex		= i;

  0005d	8b 75 fc	 mov	 esi, DWORD PTR _dwId$1$[ebp]
  00060	c7 44 08 2c ff
	ff ff ff	 mov	 DWORD PTR [eax+ecx+44], -1
  00068	8b 47 04	 mov	 eax, DWORD PTR [edi+4]
  0006b	8b 4d 08	 mov	 ecx, DWORD PTR tv380[ebp]
  0006e	c7 04 01 ff ff
	ff ff		 mov	 DWORD PTR [ecx+eax], -1
  00075	8b 47 0c	 mov	 eax, DWORD PTR [edi+12]
  00078	69 ce 98 00 00
	00		 imul	 ecx, esi, 152
  0007e	89 54 01 2c	 mov	 DWORD PTR [ecx+eax+44], edx

; 763  : 			m_apIndex[i]	= dwId;

  00082	8b 47 04	 mov	 eax, DWORD PTR [edi+4]
  00085	5f		 pop	 edi
  00086	89 34 90	 mov	 DWORD PTR [eax+edx*4], esi

; 764  : 			return TRUE;

  00089	b8 01 00 00 00	 mov	 eax, 1

; 765  : 		}
; 766  : 	}
; 767  : 	return FALSE;
; 768  : }

  0008e	5e		 pop	 esi
  0008f	5b		 pop	 ebx
  00090	8b e5		 mov	 esp, ebp
  00092	5d		 pop	 ebp
  00093	c2 04 00	 ret	 4
?UnEquip@?$CItemContainer@VCItemElem@@@@QAEHK@Z ENDP	; CItemContainer<CItemElem>::UnEquip
_TEXT	ENDS
; Function compile flags: /Ogtp
; File C:\IAGOS\server\v18\Source\Source\_Network\Objects\Obj.h
;	COMDAT ?RemoveAt@?$CItemContainer@VCItemElem@@@@QAEXK@Z
_TEXT	SEGMENT
_dwIndex$ = 8						; size = 4
?RemoveAt@?$CItemContainer@VCItemElem@@@@QAEXK@Z PROC	; CItemContainer<CItemElem>::RemoveAt, COMDAT
; _this$ = ecx

; 711  : {

  00000	55		 push	 ebp
  00001	8b ec		 mov	 ebp, esp
  00003	56		 push	 esi

; 712  : 	m_apItem[ m_apIndex[ dwIndex ] ].Empty();

  00004	8b 75 08	 mov	 esi, DWORD PTR _dwIndex$[ebp]
  00007	57		 push	 edi
  00008	8b f9		 mov	 edi, ecx
  0000a	8b 47 04	 mov	 eax, DWORD PTR [edi+4]
  0000d	69 0c b0 98 00
	00 00		 imul	 ecx, DWORD PTR [eax+esi*4], 152
  00014	03 4f 0c	 add	 ecx, DWORD PTR [edi+12]
  00017	8b 01		 mov	 eax, DWORD PTR [ecx]
  00019	ff 50 04	 call	 DWORD PTR [eax+4]

; 713  : 	if( dwIndex >= m_dwIndexNum )

  0001c	3b 77 08	 cmp	 esi, DWORD PTR [edi+8]
  0001f	72 1f		 jb	 SHORT $LN2@RemoveAt

; 714  : 	{
; 715  : 		m_apItem[ m_apIndex[ dwIndex ] ].m_dwObjIndex = NULL_ID;

  00021	8b 47 04	 mov	 eax, DWORD PTR [edi+4]
  00024	69 0c b0 98 00
	00 00		 imul	 ecx, DWORD PTR [eax+esi*4], 152
  0002b	8b 47 0c	 mov	 eax, DWORD PTR [edi+12]
  0002e	c7 44 01 2c ff
	ff ff ff	 mov	 DWORD PTR [ecx+eax+44], -1

; 716  : 		m_apIndex[ dwIndex ] = NULL_ID;

  00036	8b 47 04	 mov	 eax, DWORD PTR [edi+4]
  00039	c7 04 b0 ff ff
	ff ff		 mov	 DWORD PTR [eax+esi*4], -1
$LN2@RemoveAt:

; 717  : 	}
; 718  : 	//for( int i = dwIndex; i < m_dwIndexNum - 1; i++ )
; 719  : 	//	m_apIndex[ i ] = m_apIndex[ i + 1 ];
; 720  : 	//m_dwIndexNum--;
; 721  : }

  00040	5f		 pop	 edi
  00041	5e		 pop	 esi
  00042	5d		 pop	 ebp
  00043	c2 04 00	 ret	 4
?RemoveAt@?$CItemContainer@VCItemElem@@@@QAEXK@Z ENDP	; CItemContainer<CItemElem>::RemoveAt
_TEXT	ENDS
; Function compile flags: /Ogtp
; File C:\IAGOS\server\v18\Source\Source\_Network\Objects\Obj.h
;	COMDAT ?IsEquip@?$CItemContainer@VCItemElem@@@@QAEHK@Z
_TEXT	SEGMENT
_dwObjId$ = 8						; size = 4
?IsEquip@?$CItemContainer@VCItemElem@@@@QAEHK@Z PROC	; CItemContainer<CItemElem>::IsEquip, COMDAT
; _this$ = ecx

; 705  : {

  00000	55		 push	 ebp
  00001	8b ec		 mov	 ebp, esp

; 706  : 	if( m_apItem[ dwObjId ].m_dwObjIndex >= m_dwIndexNum )

  00003	69 55 08 98 00
	00 00		 imul	 edx, DWORD PTR _dwObjId$[ebp], 152
  0000a	8b 41 0c	 mov	 eax, DWORD PTR [ecx+12]
  0000d	8b 44 02 2c	 mov	 eax, DWORD PTR [edx+eax+44]
  00011	3b 41 08	 cmp	 eax, DWORD PTR [ecx+8]
  00014	1b c0		 sbb	 eax, eax
  00016	40		 inc	 eax

; 707  : 		return TRUE;
; 708  : 	return FALSE;
; 709  : }

  00017	5d		 pop	 ebp
  00018	c2 04 00	 ret	 4
?IsEquip@?$CItemContainer@VCItemElem@@@@QAEHK@Z ENDP	; CItemContainer<CItemElem>::IsEquip
_TEXT	ENDS
; Function compile flags: /Ogtp
; File C:\IAGOS\server\v18\Source\Source\_Network\Objects\Obj.h
;	COMDAT ?GetAtId@?$CItemContainer@VCItemElem@@@@QAEPAVCItemElem@@K@Z
_TEXT	SEGMENT
_dwObjId$ = 8						; size = 4
?GetAtId@?$CItemContainer@VCItemElem@@@@QAEPAVCItemElem@@K@Z PROC ; CItemContainer<CItemElem>::GetAtId, COMDAT
; _this$ = ecx

; 660  : {

  00000	55		 push	 ebp
  00001	8b ec		 mov	 ebp, esp

; 661  : 	if( dwObjId >= m_dwItemMax )	return NULL;

  00003	8b 45 08	 mov	 eax, DWORD PTR _dwObjId$[ebp]
  00006	3b 41 10	 cmp	 eax, DWORD PTR [ecx+16]
  00009	73 15		 jae	 SHORT $LN7@GetAtId

; 662  : 	T* pItemElem	= &m_apItem[dwObjId];

  0000b	69 c0 98 00 00
	00		 imul	 eax, eax, 152
  00011	03 41 0c	 add	 eax, DWORD PTR [ecx+12]

; 131  : 	BOOL	IsEmpty()	{	return m_dwItemId ? FALSE : TRUE;	}

  00014	33 c9		 xor	 ecx, ecx
  00016	39 48 08	 cmp	 DWORD PTR [eax+8], ecx
  00019	0f 44 c1	 cmove	 eax, ecx

; 665  : 	return pItemElem;
; 666  : }

  0001c	5d		 pop	 ebp
  0001d	c2 04 00	 ret	 4
$LN7@GetAtId:

; 663  : 	if( pItemElem->IsEmpty() )
; 664  : 		return NULL;

  00020	33 c0		 xor	 eax, eax

; 665  : 	return pItemElem;
; 666  : }

  00022	5d		 pop	 ebp
  00023	c2 04 00	 ret	 4
?GetAtId@?$CItemContainer@VCItemElem@@@@QAEPAVCItemElem@@K@Z ENDP ; CItemContainer<CItemElem>::GetAtId
_TEXT	ENDS
; Function compile flags: /Ogtp
; File C:\IAGOS\server\v18\Source\Source\_Network\Objects\Obj.h
;	COMDAT ?IsFull@?$CItemContainer@VCItemElem@@@@QAEHPAUItemProp@@FH@Z
_TEXT	SEGMENT
_this$1$ = -4						; size = 4
_pItemProp$ = 8						; size = 4
_nNum$ = 12						; size = 2
tv325 = 12						; size = 4
_bCharged$ = 16						; size = 4
?IsFull@?$CItemContainer@VCItemElem@@@@QAEHPAUItemProp@@FH@Z PROC ; CItemContainer<CItemElem>::IsFull, COMDAT
; _this$ = ecx

; 618  : {

  00000	55		 push	 ebp
  00001	8b ec		 mov	 ebp, esp
  00003	51		 push	 ecx

; 619  : 	int nId;
; 620  : 	short nNumtmp	= nNum;

  00004	0f b7 55 0c	 movzx	 edx, WORD PTR _nNum$[ebp]
  00008	53		 push	 ebx
  00009	56		 push	 esi
  0000a	57		 push	 edi

; 621  : 
; 622  : 	CItemElem* pElemtmp;
; 623  : 	for( DWORD i = 0; i < m_dwIndexNum; i++ )

  0000b	33 ff		 xor	 edi, edi
  0000d	89 4d fc	 mov	 DWORD PTR _this$1$[ebp], ecx
  00010	39 79 08	 cmp	 DWORD PTR [ecx+8], edi
  00013	76 73		 jbe	 SHORT $LN19@IsFull

; 624  : 	{
; 625  : 		nId	= m_apIndex[i];

  00015	8b 59 04	 mov	 ebx, DWORD PTR [ecx+4]
$LL4@IsFull:
  00018	8b 03		 mov	 eax, DWORD PTR [ebx]

; 626  : 		if( nId < 0 || nId >= (int)( m_dwItemMax ) )

  0001a	85 c0		 test	 eax, eax
  0001c	78 61		 js	 SHORT $LN2@IsFull
  0001e	3b 41 10	 cmp	 eax, DWORD PTR [ecx+16]
  00021	7d 5c		 jge	 SHORT $LN2@IsFull

; 627  : 			continue;
; 628  : 		pElemtmp	= (CItemElem*)&m_apItem[nId];

  00023	69 c0 98 00 00
	00		 imul	 eax, eax, 152
  00029	03 41 0c	 add	 eax, DWORD PTR [ecx+12]

; 131  : 	BOOL	IsEmpty()	{	return m_dwItemId ? FALSE : TRUE;	}

  0002c	8b 48 08	 mov	 ecx, DWORD PTR [eax+8]
  0002f	85 c9		 test	 ecx, ecx

; 629  : 		if( pElemtmp->IsEmpty() )

  00031	75 10		 jne	 SHORT $LN7@IsFull

; 630  : 		{
; 631  : 			if( nNumtmp > (short)pItemProp->dwPackMax )

  00033	8b 45 08	 mov	 eax, DWORD PTR _pItemProp$[ebp]
  00036	0f b7 40 6c	 movzx	 eax, WORD PTR [eax+108]
  0003a	66 3b d0	 cmp	 dx, ax
  0003d	7e 57		 jle	 SHORT $LN12@IsFull

; 632  : 				nNumtmp	-= (short)pItemProp->dwPackMax;

  0003f	2b d0		 sub	 edx, eax

; 633  : 			else
; 634  : 				return FALSE;
; 635  : 		}

  00041	eb 39		 jmp	 SHORT $LN24@IsFull
$LN7@IsFull:

; 636  : 		else if( pElemtmp->m_dwItemId == pItemProp->dwID && pElemtmp->m_bCharged == bCharged && pElemtmp->m_byFlag == 0 )

  00043	8b 75 08	 mov	 esi, DWORD PTR _pItemProp$[ebp]
  00046	3b 0e		 cmp	 ecx, DWORD PTR [esi]
  00048	75 32		 jne	 SHORT $LN24@IsFull
  0004a	8b 4d 10	 mov	 ecx, DWORD PTR _bCharged$[ebp]
  0004d	39 48 7c	 cmp	 DWORD PTR [eax+124], ecx
  00050	75 2a		 jne	 SHORT $LN24@IsFull
  00052	80 78 65 00	 cmp	 BYTE PTR [eax+101], 0
  00056	75 24		 jne	 SHORT $LN24@IsFull

; 637  : 		{
; 638  : 			if( pElemtmp->m_nItemNum + nNumtmp > (short)pItemProp->dwPackMax )

  00058	0f b7 70 66	 movzx	 esi, WORD PTR [eax+102]
  0005c	0f bf c2	 movsx	 eax, dx
  0005f	0f bf ce	 movsx	 ecx, si
  00062	03 c8		 add	 ecx, eax
  00064	89 4d 0c	 mov	 DWORD PTR tv325[ebp], ecx
  00067	8b 4d 08	 mov	 ecx, DWORD PTR _pItemProp$[ebp]
  0006a	0f b7 41 6c	 movzx	 eax, WORD PTR [ecx+108]
  0006e	98		 cwde
  0006f	39 45 0c	 cmp	 DWORD PTR tv325[ebp], eax
  00072	7e 22		 jle	 SHORT $LN12@IsFull

; 639  : 				nNumtmp	-= ( (short)pItemProp->dwPackMax - pElemtmp->m_nItemNum );

  00074	0f b7 41 6c	 movzx	 eax, WORD PTR [ecx+108]
  00078	2b f0		 sub	 esi, eax
  0007a	03 d6		 add	 edx, esi
$LN24@IsFull:

; 621  : 
; 622  : 	CItemElem* pElemtmp;
; 623  : 	for( DWORD i = 0; i < m_dwIndexNum; i++ )

  0007c	8b 4d fc	 mov	 ecx, DWORD PTR _this$1$[ebp]
$LN2@IsFull:
  0007f	47		 inc	 edi
  00080	83 c3 04	 add	 ebx, 4
  00083	3b 79 08	 cmp	 edi, DWORD PTR [ecx+8]
  00086	72 90		 jb	 SHORT $LL4@IsFull
$LN19@IsFull:
  00088	5f		 pop	 edi

; 640  : 			else
; 641  : 				return FALSE;
; 642  : 		}
; 643  : 	}
; 644  : 
; 645  : 	return TRUE;
; 646  : }

  00089	5e		 pop	 esi
  0008a	b8 01 00 00 00	 mov	 eax, 1
  0008f	5b		 pop	 ebx
  00090	8b e5		 mov	 esp, ebp
  00092	5d		 pop	 ebp
  00093	c2 0c 00	 ret	 12			; 0000000cH
$LN12@IsFull:
  00096	5f		 pop	 edi
  00097	5e		 pop	 esi
  00098	33 c0		 xor	 eax, eax
  0009a	5b		 pop	 ebx
  0009b	8b e5		 mov	 esp, ebp
  0009d	5d		 pop	 ebp
  0009e	c2 0c 00	 ret	 12			; 0000000cH
?IsFull@?$CItemContainer@VCItemElem@@@@QAEHPAUItemProp@@FH@Z ENDP ; CItemContainer<CItemElem>::IsFull
_TEXT	ENDS
; Function compile flags: /Ogtp
; File C:\IAGOS\server\v18\Source\Source\_Network\Objects\Obj.h
; File C:\IAGOS\server\v18\Source\Source\_Common\Data.h
; File C:\IAGOS\server\v18\Source\Source\_Network\Objects\Obj.h
; File C:\IAGOS\server\v18\Source\Source\_Common\Data.h
; File C:\IAGOS\server\v18\Source\Source\_Network\Objects\Obj.h
; File C:\IAGOS\server\v18\Source\Source\_Common\Data.h
; File C:\IAGOS\server\v18\Source\Source\_Network\Objects\Obj.h
;	COMDAT ?Add@?$CItemContainer@VCItemElem@@@@QAEHKFHKHHPAEPAF0HHKKKKKK_J@Z
_TEXT	SEGMENT
_nId$1$ = -16						; size = 4
_nId$2$ = -16						; size = 4
_i$1$ = -12						; size = 4
_i$1$ = -12						; size = 4
_this$1$ = -8						; size = 4
$T1 = -4						; size = 4
_dwItemId$ = 8						; size = 4
_nNum$ = 12						; size = 2
_nNumtmp$ = 12						; size = 2
$T2 = 12						; size = 4
_nOption$ = 16						; size = 4
_iSerialNumber$ = 20					; size = 4
_nItemResist$ = 24					; size = 4
_nResistAbilityOption$ = 28				; size = 4
_pnId$ = 32						; size = 4
_pnNum$ = 36						; size = 4
_pnCount$ = 40						; size = 4
_nNumtmp$1$ = 42					; size = 2
_bCharged$ = 44						; size = 4
_nPiercedSize$ = 48					; size = 4
_dwItemId0$ = 52					; size = 4
_dwItemId1$ = 56					; size = 4
_dwItemId2$ = 60					; size = 4
_dwItemId3$ = 64					; size = 4
_dwItemId4$ = 68					; size = 4
_dwKeepTime$ = 72					; size = 4
_iRandomOptItemId$ = 76					; size = 8
?Add@?$CItemContainer@VCItemElem@@@@QAEHKFHKHHPAEPAF0HHKKKKKK_J@Z PROC ; CItemContainer<CItemElem>::Add, COMDAT
; _this$ = ecx

; 391  : {

  00000	55		 push	 ebp
  00001	8b ec		 mov	 ebp, esp
  00003	83 ec 10	 sub	 esp, 16			; 00000010H

; 392  : #if defined(__DBSERVER)
; 393  : 	if( pnId )

  00006	83 7d 20 00	 cmp	 DWORD PTR _pnId$[ebp], 0
  0000a	53		 push	 ebx
  0000b	8b 5d 28	 mov	 ebx, DWORD PTR _pnCount$[ebp]
  0000e	56		 push	 esi
  0000f	57		 push	 edi
  00010	89 4d f8	 mov	 DWORD PTR _this$1$[ebp], ecx
  00013	74 03		 je	 SHORT $LN8@Add

; 394  : 		*pnCount	= 0;

  00015	c6 03 00	 mov	 BYTE PTR [ebx], 0
$LN8@Add:
; File C:\IAGOS\server\v18\Source\Source\_Common\Data.h

; 270  : 	if( dwIndex >= (DWORD)m_nMaxIndex )

  00018	8b 55 08	 mov	 edx, DWORD PTR _dwItemId$[ebp]
  0001b	3b 15 4c 00 00
	00		 cmp	 edx, DWORD PTR ?prj@@3VCProject@@A+76
  00021	72 04		 jb	 SHORT $LN31@Add

; 271  : 		return NULL;

  00023	33 ff		 xor	 edi, edi
  00025	eb 08		 jmp	 SHORT $LN94@Add
$LN31@Add:

; 272  : 	return (T*) m_apOffset[ dwIndex ];

  00027	a1 3c 00 00 00	 mov	 eax, DWORD PTR ?prj@@3VCProject@@A+60
  0002c	8b 3c 90	 mov	 edi, DWORD PTR [eax+edx*4]
$LN94@Add:
; File C:\IAGOS\server\v18\Source\Source\_Network\Objects\Obj.h

; 401  : 	if( IsFull( pItemProp, nNum, bCharged ) )

  0002f	ff 75 2c	 push	 DWORD PTR _bCharged$[ebp]
  00032	8b 45 0c	 mov	 eax, DWORD PTR _nNum$[ebp]
  00035	50		 push	 eax
  00036	0f b7 d0	 movzx	 edx, ax
  00039	57		 push	 edi
  0003a	89 7d fc	 mov	 DWORD PTR $T1[ebp], edi
  0003d	89 55 0c	 mov	 DWORD PTR _nNumtmp$[ebp], edx
  00040	e8 00 00 00 00	 call	 ?IsFull@?$CItemContainer@VCItemElem@@@@QAEHPAUItemProp@@FH@Z ; CItemContainer<CItemElem>::IsFull
  00045	85 c0		 test	 eax, eax
  00047	74 0b		 je	 SHORT $LN9@Add

; 511  : 	return TRUE;
; 512  : #endif	// __DBSERVER
; 513  : 	return FALSE;
; 514  : }

  00049	5f		 pop	 edi
  0004a	5e		 pop	 esi
  0004b	33 c0		 xor	 eax, eax
  0004d	5b		 pop	 ebx
  0004e	8b e5		 mov	 esp, ebp
  00050	5d		 pop	 ebp
  00051	c2 4c 00	 ret	 76			; 0000004cH
$LN9@Add:

; 402  : 		return FALSE;
; 403  : 
; 404  : 	if( pItemProp->dwPackMax == 1 )

  00054	83 7f 6c 01	 cmp	 DWORD PTR [edi+108], 1
  00058	8b 55 f8	 mov	 edx, DWORD PTR _this$1$[ebp]
  0005b	0f 84 a3 00 00
	00		 je	 $LN58@Add

; 405  : 		bPackItem = FALSE;
; 406  : 
; 407  : 	CItemElem* pElemtmp;
; 408  : 	if( bPackItem )
; 409  : 	{
; 410  : 		for( DWORD i = 0; i < m_dwIndexNum; i++ )	// ÇŐĂÄÁúĽö ŔÖŔ¸¸é ÇŐÄˇ±â

  00061	33 c9		 xor	 ecx, ecx
  00063	89 4d f4	 mov	 DWORD PTR _i$1$[ebp], ecx
  00066	39 4a 08	 cmp	 DWORD PTR [edx+8], ecx
  00069	0f 86 95 00 00
	00		 jbe	 $LN58@Add
  0006f	90		 npad	 1
$LL4@Add:

; 411  : 		{
; 412  : 			nId	= m_apIndex[i];

  00070	8b 42 04	 mov	 eax, DWORD PTR [edx+4]
  00073	8b 04 88	 mov	 eax, DWORD PTR [eax+ecx*4]
  00076	89 45 f0	 mov	 DWORD PTR _nId$1$[ebp], eax

; 413  : 			pElemtmp	= (CItemElem*)&m_apItem[nId];

  00079	69 c0 98 00 00
	00		 imul	 eax, eax, 152
  0007f	03 42 0c	 add	 eax, DWORD PTR [edx+12]

; 131  : 	BOOL	IsEmpty()	{	return m_dwItemId ? FALSE : TRUE;	}

  00082	8b 70 08	 mov	 esi, DWORD PTR [eax+8]
  00085	85 f6		 test	 esi, esi

; 414  : 				
; 415  : 			if( pElemtmp->IsEmpty() == FALSE && pElemtmp->m_dwItemId == dwItemId && pElemtmp->m_nItemNum < (short)pItemProp->dwPackMax
; 416  : 				&& pElemtmp->m_bCharged == bCharged && pElemtmp->m_byFlag == 0 )	// ľĆŔĚĹŰ ÇĂ·ˇ±× 0 ľĆŔĚĹŰ ¸ÓÁö °ˇ´É

  00087	74 6e		 je	 SHORT $LN2@Add
  00089	3b 75 08	 cmp	 esi, DWORD PTR _dwItemId$[ebp]
  0008c	75 69		 jne	 SHORT $LN2@Add
  0008e	0f b7 70 66	 movzx	 esi, WORD PTR [eax+102]
  00092	0f b7 7f 6c	 movzx	 edi, WORD PTR [edi+108]
  00096	66 3b f7	 cmp	 si, di
  00099	7d 59		 jge	 SHORT $LN71@Add
  0009b	8b 5d 2c	 mov	 ebx, DWORD PTR _bCharged$[ebp]
  0009e	39 58 7c	 cmp	 DWORD PTR [eax+124], ebx
  000a1	8b 5d 28	 mov	 ebx, DWORD PTR _pnCount$[ebp]
  000a4	75 4e		 jne	 SHORT $LN71@Add
  000a6	80 78 65 00	 cmp	 BYTE PTR [eax+101], 0
  000aa	75 48		 jne	 SHORT $LN71@Add

; 417  : 			{
; 418  : 				if( pElemtmp->m_nItemNum + nNumtmp > (short)pItemProp->dwPackMax )

  000ac	0f bf 4d 0c	 movsx	 ecx, WORD PTR _nNumtmp$[ebp]
  000b0	0f bf d6	 movsx	 edx, si
  000b3	03 d1		 add	 edx, ecx
  000b5	0f bf cf	 movsx	 ecx, di
  000b8	3b d1		 cmp	 edx, ecx
  000ba	0f 8e b7 01 00
	00		 jle	 $LN13@Add

; 419  : 				{
; 420  : 					nNumtmp	-= ( (short)pItemProp->dwPackMax - pElemtmp->m_nItemNum );

  000c0	2b f7		 sub	 esi, edi

; 421  : 					pElemtmp->m_nItemNum	= (short)pItemProp->dwPackMax;

  000c2	66 89 78 66	 mov	 WORD PTR [eax+102], di
  000c6	01 75 0c	 add	 DWORD PTR _nNumtmp$[ebp], esi

; 422  : 
; 423  : 					if( pnId ) {

  000c9	8b 75 20	 mov	 esi, DWORD PTR _pnId$[ebp]
  000cc	8b 7d fc	 mov	 edi, DWORD PTR $T1[ebp]
  000cf	85 f6		 test	 esi, esi
  000d1	74 19		 je	 SHORT $LN66@Add

; 424  : 						pnId[*pnCount]	= nId;

  000d3	0f b6 0b	 movzx	 ecx, BYTE PTR [ebx]
  000d6	8b 55 f0	 mov	 edx, DWORD PTR _nId$1$[ebp]
  000d9	88 14 31	 mov	 BYTE PTR [ecx+esi], dl

; 425  : 						pnNum[*pnCount]	= pElemtmp->m_nItemNum;

  000dc	0f b6 0b	 movzx	 ecx, BYTE PTR [ebx]
  000df	8b 55 24	 mov	 edx, DWORD PTR _pnNum$[ebp]
  000e2	66 8b 40 66	 mov	 ax, WORD PTR [eax+102]
  000e6	66 89 04 4a	 mov	 WORD PTR [edx+ecx*2], ax

; 426  : 						( *pnCount )++;

  000ea	fe 03		 inc	 BYTE PTR [ebx]
$LN66@Add:

; 405  : 		bPackItem = FALSE;
; 406  : 
; 407  : 	CItemElem* pElemtmp;
; 408  : 	if( bPackItem )
; 409  : 	{
; 410  : 		for( DWORD i = 0; i < m_dwIndexNum; i++ )	// ÇŐĂÄÁúĽö ŔÖŔ¸¸é ÇŐÄˇ±â

  000ec	8b 4d f4	 mov	 ecx, DWORD PTR _i$1$[ebp]
  000ef	8b 55 f8	 mov	 edx, DWORD PTR _this$1$[ebp]
  000f2	eb 03		 jmp	 SHORT $LN2@Add
$LN71@Add:
  000f4	8b 7d fc	 mov	 edi, DWORD PTR $T1[ebp]
$LN2@Add:
  000f7	41		 inc	 ecx
  000f8	89 4d f4	 mov	 DWORD PTR _i$1$[ebp], ecx
  000fb	3b 4a 08	 cmp	 ecx, DWORD PTR [edx+8]
  000fe	0f 82 6c ff ff
	ff		 jb	 $LL4@Add
$LN58@Add:

; 434  : 						( *pnCount )++;
; 435  : 					}
; 436  : 					nNumtmp = 0;
; 437  : 					break;
; 438  : 				}
; 439  : 			}
; 440  : 		}
; 441  : 	}
; 442  : 
; 443  : 	if( nNumtmp > 0 )

  00104	66 8b 75 0c	 mov	 si, WORD PTR _nNumtmp$[ebp]
  00108	66 89 75 2a	 mov	 WORD PTR _nNumtmp$1$[ebp], si
  0010c	66 85 f6	 test	 si, si
  0010f	0f 8e 54 01 00
	00		 jle	 $LN26@Add

; 444  : 	{
; 445  : 		for( DWORD i = 0; i < m_dwIndexNum; i++ )

  00115	33 c9		 xor	 ecx, ecx
  00117	89 4d f4	 mov	 DWORD PTR _i$1$[ebp], ecx
  0011a	39 4a 08	 cmp	 DWORD PTR [edx+8], ecx
  0011d	0f 86 39 01 00
	00		 jbe	 $LN64@Add
$LL7@Add:

; 446  : 		{
; 447  : 			nId	= m_apIndex[i];

  00123	8b 42 04	 mov	 eax, DWORD PTR [edx+4]
  00126	8b 04 88	 mov	 eax, DWORD PTR [eax+ecx*4]

; 448  : 			pElemtmp	= (CItemElem*)&m_apItem[nId];

  00129	69 f8 98 00 00
	00		 imul	 edi, eax, 152
  0012f	89 45 f0	 mov	 DWORD PTR _nId$2$[ebp], eax
  00132	03 7a 0c	 add	 edi, DWORD PTR [edx+12]

; 131  : 	BOOL	IsEmpty()	{	return m_dwItemId ? FALSE : TRUE;	}

  00135	83 7f 08 00	 cmp	 DWORD PTR [edi+8], 0

; 449  : 			if( pElemtmp->IsEmpty() )

  00139	0f 85 08 01 00
	00		 jne	 $LN5@Add

; 450  : 			{
; 451  : 				pElemtmp->m_dwItemId	= dwItemId;

  0013f	8b 55 08	 mov	 edx, DWORD PTR _dwItemId$[ebp]
  00142	89 57 08	 mov	 DWORD PTR [edi+8], edx

; 452  : 				pElemtmp->m_dwObjId		= nId;

  00145	89 47 04	 mov	 DWORD PTR [edi+4], eax

; 453  : 				pElemtmp->m_dwObjIndex	= i;

  00148	89 4f 2c	 mov	 DWORD PTR [edi+44], ecx
; File C:\IAGOS\server\v18\Source\Source\_Common\Data.h

; 270  : 	if( dwIndex >= (DWORD)m_nMaxIndex )

  0014b	3b 15 4c 00 00
	00		 cmp	 edx, DWORD PTR ?prj@@3VCProject@@A+76
  00151	0f 82 57 01 00
	00		 jb	 $LN40@Add

; 271  : 		return NULL;

  00157	c7 45 0c 00 00
	00 00		 mov	 DWORD PTR $T2[ebp], 0
$LN19@Add:
; File C:\IAGOS\server\v18\Source\Source\_Network\Objects\Obj.h

; 458  : 					pElemtmp->m_nHitPoint	= 0;

  0015e	33 c9		 xor	 ecx, ecx
$LN20@Add:

; 461  : 				pElemtmp->SetOption( nOption );

  00160	8b 45 10	 mov	 eax, DWORD PTR _nOption$[ebp]

; 150  : 	void	SetPiercingSize( int nSize )	{	m_piercing.SetPiercingSize( nSize ); }

  00163	ff 75 30	 push	 DWORD PTR _nPiercedSize$[ebp]

; 459  : 
; 460  : 				pElemtmp->m_nRepair		= 0;

  00166	89 4f 68	 mov	 DWORD PTR [edi+104], ecx

; 150  : 	void	SetPiercingSize( int nSize )	{	m_piercing.SetPiercingSize( nSize ); }

  00169	8d 4f 34	 lea	 ecx, DWORD PTR [edi+52]

; 461  : 				pElemtmp->SetOption( nOption );

  0016c	89 47 5c	 mov	 DWORD PTR [edi+92], eax

; 462  : 				pElemtmp->SetSerialNumber( iSerialNumber );

  0016f	8b 45 14	 mov	 eax, DWORD PTR _iSerialNumber$[ebp]
  00172	89 47 30	 mov	 DWORD PTR [edi+48], eax

; 463  : 				pElemtmp->m_bItemResist = nItemResist;

  00175	8b 45 18	 mov	 eax, DWORD PTR _nItemResist$[ebp]
  00178	88 47 70	 mov	 BYTE PTR [edi+112], al

; 464  : 				pElemtmp->m_nResistAbilityOption = nResistAbilityOption;

  0017b	8b 45 1c	 mov	 eax, DWORD PTR _nResistAbilityOption$[ebp]
  0017e	89 47 74	 mov	 DWORD PTR [edi+116], eax

; 465  : 				pElemtmp->m_bCharged = bCharged;

  00181	8b 45 2c	 mov	 eax, DWORD PTR _bCharged$[ebp]
  00184	c7 47 60 00 00
	00 00		 mov	 DWORD PTR [edi+96], 0
  0018b	89 47 7c	 mov	 DWORD PTR [edi+124], eax

; 466  : 				pElemtmp->m_dwKeepTime	= 0;

  0018e	c7 87 80 00 00
	00 00 00 00 00	 mov	 DWORD PTR [edi+128], 0

; 150  : 	void	SetPiercingSize( int nSize )	{	m_piercing.SetPiercingSize( nSize ); }

  00198	e8 00 00 00 00	 call	 ?SetPiercingSize@CPiercing@@QAEXH@Z ; CPiercing::SetPiercingSize

; 152  : 	void	SetPiercingItem( int nth, DWORD dwItem)	{	m_piercing.SetPiercingItem( nth, dwItem );	}

  0019d	ff 75 34	 push	 DWORD PTR _dwItemId0$[ebp]
  001a0	8d 4f 34	 lea	 ecx, DWORD PTR [edi+52]
  001a3	6a 00		 push	 0
  001a5	e8 00 00 00 00	 call	 ?SetPiercingItem@CPiercing@@QAEXHK@Z ; CPiercing::SetPiercingItem
  001aa	ff 75 38	 push	 DWORD PTR _dwItemId1$[ebp]
  001ad	8d 4f 34	 lea	 ecx, DWORD PTR [edi+52]
  001b0	6a 01		 push	 1
  001b2	e8 00 00 00 00	 call	 ?SetPiercingItem@CPiercing@@QAEXHK@Z ; CPiercing::SetPiercingItem
  001b7	ff 75 3c	 push	 DWORD PTR _dwItemId2$[ebp]
  001ba	8d 4f 34	 lea	 ecx, DWORD PTR [edi+52]
  001bd	6a 02		 push	 2
  001bf	e8 00 00 00 00	 call	 ?SetPiercingItem@CPiercing@@QAEXHK@Z ; CPiercing::SetPiercingItem
  001c4	ff 75 40	 push	 DWORD PTR _dwItemId3$[ebp]
  001c7	8d 4f 34	 lea	 ecx, DWORD PTR [edi+52]
  001ca	6a 03		 push	 3
  001cc	e8 00 00 00 00	 call	 ?SetPiercingItem@CPiercing@@QAEXHK@Z ; CPiercing::SetPiercingItem
  001d1	ff 75 44	 push	 DWORD PTR _dwItemId4$[ebp]
  001d4	8d 4f 34	 lea	 ecx, DWORD PTR [edi+52]
  001d7	6a 04		 push	 4
  001d9	e8 00 00 00 00	 call	 ?SetPiercingItem@CPiercing@@QAEXHK@Z ; CPiercing::SetPiercingItem

; 467  : 
; 468  : 				pElemtmp->SetPiercingSize( nPiercedSize );
; 469  : 				pElemtmp->SetPiercingItem( 0, dwItemId0 );
; 470  : 				pElemtmp->SetPiercingItem( 1, dwItemId1 );
; 471  : 				pElemtmp->SetPiercingItem( 2, dwItemId2 );
; 472  : 				pElemtmp->SetPiercingItem( 3, dwItemId3 );
; 473  : #ifdef __SEND_ITEM_ULTIMATE
; 474  : 				pElemtmp->SetPiercingItem( 4, dwItemId4 );
; 475  : #endif // __SEND_ITEM_ULTIMATE
; 476  : 				if( dwKeepTime )

  001de	8b 45 48	 mov	 eax, DWORD PTR _dwKeepTime$[ebp]
  001e1	85 c0		 test	 eax, eax
  001e3	74 06		 je	 SHORT $LN21@Add

; 477  : 					pElemtmp->m_dwKeepTime	= dwKeepTime;

  001e5	89 87 80 00 00
	00		 mov	 DWORD PTR [edi+128], eax
$LN21@Add:

; 478  : #if __VER >= 11 // __SYS_IDENTIFY
; 479  : 				pElemtmp->SetRandomOptItemId( iRandomOptItemId );

  001eb	8b 45 4c	 mov	 eax, DWORD PTR _iRandomOptItemId$[ebp]

; 480  : #else	// __SYS_IDENTIFY
; 481  : 				pElemtmp->SetRandomOptItemId( nRandomOptItemId );
; 482  : #endif	// __SYS_IDENTIFY
; 483  : 				
; 484  : 				if( nNumtmp > (short)pItemProp->dwPackMax )

  001ee	66 8b 4d 2a	 mov	 cx, WORD PTR _nNumtmp$1$[ebp]
  001f2	8b 75 20	 mov	 esi, DWORD PTR _pnId$[ebp]
  001f5	89 87 88 00 00
	00		 mov	 DWORD PTR [edi+136], eax
  001fb	8b 45 50	 mov	 eax, DWORD PTR _iRandomOptItemId$[ebp+4]
  001fe	89 87 8c 00 00
	00		 mov	 DWORD PTR [edi+140], eax
  00204	8b 45 0c	 mov	 eax, DWORD PTR $T2[ebp]
  00207	0f b7 50 6c	 movzx	 edx, WORD PTR [eax+108]
  0020b	66 3b ca	 cmp	 cx, dx
  0020e	0f 8e bb 00 00
	00		 jle	 $LN22@Add

; 485  : 				{
; 486  : 					pElemtmp->m_nItemNum	= (short)pItemProp->dwPackMax;

  00214	66 89 57 66	 mov	 WORD PTR [edi+102], dx

; 487  : 					nNumtmp	-= (short)pItemProp->dwPackMax;

  00218	66 2b 48 6c	 sub	 cx, WORD PTR [eax+108]
  0021c	66 89 4d 2a	 mov	 WORD PTR _nNumtmp$1$[ebp], cx

; 488  : 
; 489  : 					if( pnId ) {

  00220	85 f6		 test	 esi, esi
  00222	74 19		 je	 SHORT $LN67@Add

; 490  : 						pnId[*pnCount]	= nId;

  00224	0f b6 03	 movzx	 eax, BYTE PTR [ebx]
  00227	8b 4d f0	 mov	 ecx, DWORD PTR _nId$2$[ebp]

; 491  : 						pnNum[*pnCount]	= pElemtmp->m_nItemNum;

  0022a	8b 55 24	 mov	 edx, DWORD PTR _pnNum$[ebp]
  0022d	88 0c 30	 mov	 BYTE PTR [eax+esi], cl
  00230	0f b6 0b	 movzx	 ecx, BYTE PTR [ebx]
  00233	66 8b 47 66	 mov	 ax, WORD PTR [edi+102]
  00237	66 89 04 4a	 mov	 WORD PTR [edx+ecx*2], ax

; 492  : 						( *pnCount )++;

  0023b	fe 03		 inc	 BYTE PTR [ebx]
$LN67@Add:

; 444  : 	{
; 445  : 		for( DWORD i = 0; i < m_dwIndexNum; i++ )

  0023d	66 8b 75 2a	 mov	 si, WORD PTR _nNumtmp$1$[ebp]
  00241	8b 4d f4	 mov	 ecx, DWORD PTR _i$1$[ebp]
  00244	8b 55 f8	 mov	 edx, DWORD PTR _this$1$[ebp]
$LN5@Add:
  00247	41		 inc	 ecx
  00248	0f b7 c6	 movzx	 eax, si
  0024b	89 4d f4	 mov	 DWORD PTR _i$1$[ebp], ecx
  0024e	3b 4a 08	 cmp	 ecx, DWORD PTR [edx+8]
  00251	0f 82 cc fe ff
	ff		 jb	 $LL7@Add

; 502  : 						( *pnCount )++;
; 503  : 					}
; 504  : 					break;
; 505  : 				}
; 506  : 			}
; 507  : 		}
; 508  : 	}
; 509  : 	if( nNumtmp > 0 )

  00257	66 85 c0	 test	 ax, ax
  0025a	7e 0d		 jle	 SHORT $LN26@Add
$LN64@Add:

; 510  : 		Error( "template <class T> BOOL CItemContainer<T>::Add( DWORD dwItemId... : nNumtmp > 0" );

  0025c	68 00 00 00 00	 push	 OFFSET ??_C@_0FA@MKEIOHMC@template?5?$DMclass?5T?$DO?5BOOL?5CItemCo@
  00261	e8 00 00 00 00	 call	 ?Error@@YAPBDPBDZZ	; Error
  00266	83 c4 04	 add	 esp, 4
$LN26@Add:

; 511  : 	return TRUE;
; 512  : #endif	// __DBSERVER
; 513  : 	return FALSE;
; 514  : }

  00269	5f		 pop	 edi
  0026a	5e		 pop	 esi
  0026b	b8 01 00 00 00	 mov	 eax, 1
  00270	5b		 pop	 ebx
  00271	8b e5		 mov	 esp, ebp
  00273	5d		 pop	 ebp
  00274	c2 4c 00	 ret	 76			; 0000004cH
$LN13@Add:

; 427  : 					}
; 428  : 				}
; 429  : 				else {
; 430  : 					pElemtmp->m_nItemNum	+= nNumtmp;

  00277	8b 4d 0c	 mov	 ecx, DWORD PTR _nNumtmp$[ebp]
  0027a	03 ce		 add	 ecx, esi

; 431  : 					if( pnId ) {

  0027c	8b 75 20	 mov	 esi, DWORD PTR _pnId$[ebp]
  0027f	66 89 48 66	 mov	 WORD PTR [eax+102], cx
  00283	85 f6		 test	 esi, esi
  00285	74 e2		 je	 SHORT $LN26@Add

; 432  : 						pnId[*pnCount]	= nId;

  00287	0f b6 0b	 movzx	 ecx, BYTE PTR [ebx]
  0028a	8b 55 f0	 mov	 edx, DWORD PTR _nId$1$[ebp]
  0028d	5f		 pop	 edi
  0028e	88 14 31	 mov	 BYTE PTR [ecx+esi], dl

; 433  : 						pnNum[*pnCount]		= pElemtmp->m_nItemNum;	

  00291	0f b6 0b	 movzx	 ecx, BYTE PTR [ebx]
  00294	8b 55 24	 mov	 edx, DWORD PTR _pnNum$[ebp]
  00297	66 8b 40 66	 mov	 ax, WORD PTR [eax+102]

; 511  : 	return TRUE;
; 512  : #endif	// __DBSERVER
; 513  : 	return FALSE;
; 514  : }

  0029b	5e		 pop	 esi
  0029c	66 89 04 4a	 mov	 WORD PTR [edx+ecx*2], ax
  002a0	b8 01 00 00 00	 mov	 eax, 1
  002a5	fe 03		 inc	 BYTE PTR [ebx]
  002a7	5b		 pop	 ebx
  002a8	8b e5		 mov	 esp, ebp
  002aa	5d		 pop	 ebp
  002ab	c2 4c 00	 ret	 76			; 0000004cH
$LN40@Add:
; File C:\IAGOS\server\v18\Source\Source\_Common\Data.h

; 272  : 	return (T*) m_apOffset[ dwIndex ];

  002ae	a1 3c 00 00 00	 mov	 eax, DWORD PTR ?prj@@3VCProject@@A+60
  002b3	8b 04 90	 mov	 eax, DWORD PTR [eax+edx*4]
  002b6	89 45 0c	 mov	 DWORD PTR $T2[ebp], eax
; File C:\IAGOS\server\v18\Source\Source\_Network\Objects\Obj.h

; 455  : 				if( pItemProp )

  002b9	85 c0		 test	 eax, eax
  002bb	0f 84 9d fe ff
	ff		 je	 $LN19@Add

; 456  : 					pElemtmp->m_nHitPoint	= pItemProp->dwEndurance;

  002c1	8b 88 90 00 00
	00		 mov	 ecx, DWORD PTR [eax+144]
  002c7	89 45 0c	 mov	 DWORD PTR $T2[ebp], eax
  002ca	e9 91 fe ff ff	 jmp	 $LN20@Add
$LN22@Add:

; 493  : 					}
; 494  : 				}
; 495  : 				else
; 496  : 				{
; 497  : 					pElemtmp->m_nItemNum	= nNumtmp;

  002cf	66 89 4f 66	 mov	 WORD PTR [edi+102], cx

; 498  : 					nNumtmp	= 0;
; 499  : 					if( pnId ) {

  002d3	85 f6		 test	 esi, esi
  002d5	74 92		 je	 SHORT $LN26@Add

; 500  : 						pnId[*pnCount]	= nId;

  002d7	0f b6 03	 movzx	 eax, BYTE PTR [ebx]
  002da	8b 4d f0	 mov	 ecx, DWORD PTR _nId$2$[ebp]

; 501  : 						pnNum[*pnCount]	= pElemtmp->m_nItemNum;

  002dd	8b 55 24	 mov	 edx, DWORD PTR _pnNum$[ebp]
  002e0	88 0c 30	 mov	 BYTE PTR [eax+esi], cl
  002e3	0f b6 0b	 movzx	 ecx, BYTE PTR [ebx]
  002e6	66 8b 47 66	 mov	 ax, WORD PTR [edi+102]
  002ea	5f		 pop	 edi

; 511  : 	return TRUE;
; 512  : #endif	// __DBSERVER
; 513  : 	return FALSE;
; 514  : }

  002eb	5e		 pop	 esi
  002ec	66 89 04 4a	 mov	 WORD PTR [edx+ecx*2], ax
  002f0	b8 01 00 00 00	 mov	 eax, 1
  002f5	fe 03		 inc	 BYTE PTR [ebx]
  002f7	5b		 pop	 ebx
  002f8	8b e5		 mov	 esp, ebp
  002fa	5d		 pop	 ebp
  002fb	c2 4c 00	 ret	 76			; 0000004cH
?Add@?$CItemContainer@VCItemElem@@@@QAEHKFHKHHPAEPAF0HHKKKKKK_J@Z ENDP ; CItemContainer<CItemElem>::Add
_TEXT	ENDS
; Function compile flags: /Ogtp
; File C:\IAGOS\server\v18\Source\Source\_Network\Objects\Obj.h
;	COMDAT ?SetItemContainer@?$CItemContainer@VCItemElem@@@@QAEXKKK@Z
_TEXT	SEGMENT
__$EHRec$ = -12						; size = 12
_dwItemType$ = 8					; size = 4
_dwItemMax$ = 12					; size = 4
$T2 = 12						; size = 4
_dwExtra$ = 16						; size = 4
$T3 = 16						; size = 4
?SetItemContainer@?$CItemContainer@VCItemElem@@@@QAEXKKK@Z PROC ; CItemContainer<CItemElem>::SetItemContainer, COMDAT
; _this$ = ecx

; 354  : {

  00000	55		 push	 ebp
  00001	8b ec		 mov	 ebp, esp
  00003	6a ff		 push	 -1
  00005	68 00 00 00 00	 push	 __ehhandler$?SetItemContainer@?$CItemContainer@VCItemElem@@@@QAEXKKK@Z
  0000a	64 a1 00 00 00
	00		 mov	 eax, DWORD PTR fs:0
  00010	50		 push	 eax
  00011	53		 push	 ebx
  00012	56		 push	 esi
  00013	57		 push	 edi
  00014	a1 00 00 00 00	 mov	 eax, DWORD PTR ___security_cookie
  00019	33 c5		 xor	 eax, ebp
  0001b	50		 push	 eax
  0001c	8d 45 f4	 lea	 eax, DWORD PTR __$EHRec$[ebp]
  0001f	64 a3 00 00 00
	00		 mov	 DWORD PTR fs:0, eax
  00025	8b f1		 mov	 esi, ecx

; 355  : 	m_dwIndexNum	= dwItemMax;

  00027	8b 45 0c	 mov	 eax, DWORD PTR _dwItemMax$[ebp]

; 356  : 	m_dwItemMax		= dwItemMax;
; 357  : 	if( dwExtra != 0xffffffff )

  0002a	8b 4d 10	 mov	 ecx, DWORD PTR _dwExtra$[ebp]
  0002d	89 46 08	 mov	 DWORD PTR [esi+8], eax
  00030	89 46 10	 mov	 DWORD PTR [esi+16], eax
  00033	83 f9 ff	 cmp	 ecx, -1
  00036	74 05		 je	 SHORT $LN5@SetItemCon

; 358  : 		m_dwItemMax		+= dwExtra;

  00038	03 c1		 add	 eax, ecx
  0003a	89 46 10	 mov	 DWORD PTR [esi+16], eax
$LN5@SetItemCon:

; 359  : 
; 360  : 	SAFE_DELETE_ARRAY( m_apItem );

  0003d	8b 4e 0c	 mov	 ecx, DWORD PTR [esi+12]
  00040	85 c9		 test	 ecx, ecx
  00042	74 23		 je	 SHORT $LN6@SetItemCon
  00044	83 79 fc 00	 cmp	 DWORD PTR [ecx-4], 0
  00048	8d 41 fc	 lea	 eax, DWORD PTR [ecx-4]
  0004b	74 08		 je	 SHORT $LN11@SetItemCon
  0004d	8b 01		 mov	 eax, DWORD PTR [ecx]
  0004f	6a 03		 push	 3
  00051	ff 10		 call	 DWORD PTR [eax]
  00053	eb 0b		 jmp	 SHORT $LN12@SetItemCon
$LN11@SetItemCon:
  00055	6a 04		 push	 4
  00057	50		 push	 eax
  00058	e8 00 00 00 00	 call	 ??_V@YAXPAXI@Z		; operator delete[]
  0005d	83 c4 08	 add	 esp, 8
$LN12@SetItemCon:
  00060	c7 46 0c 00 00
	00 00		 mov	 DWORD PTR [esi+12], 0
$LN6@SetItemCon:

; 361  : 	SAFE_DELETE_ARRAY( m_apIndex );

  00067	8b 46 04	 mov	 eax, DWORD PTR [esi+4]
  0006a	85 c0		 test	 eax, eax
  0006c	74 10		 je	 SHORT $LN7@SetItemCon
  0006e	50		 push	 eax
  0006f	e8 00 00 00 00	 call	 ??_V@YAXPAX@Z		; operator delete[]
  00074	83 c4 04	 add	 esp, 4
  00077	c7 46 04 00 00
	00 00		 mov	 DWORD PTR [esi+4], 0
$LN7@SetItemCon:

; 362  : 
; 363  : 	m_apItem	= new T[ m_dwItemMax ];

  0007e	8b 5e 10	 mov	 ebx, DWORD PTR [esi+16]
  00081	b9 98 00 00 00	 mov	 ecx, 152		; 00000098H
  00086	8b c3		 mov	 eax, ebx
  00088	89 5d 0c	 mov	 DWORD PTR $T2[ebp], ebx
  0008b	f7 e1		 mul	 ecx
  0008d	b9 ff ff ff ff	 mov	 ecx, -1
  00092	0f 42 c1	 cmovb	 eax, ecx
  00095	83 c0 04	 add	 eax, 4
  00098	0f 42 c1	 cmovb	 eax, ecx
  0009b	50		 push	 eax
  0009c	e8 00 00 00 00	 call	 ??_U@YAPAXI@Z		; operator new[]
  000a1	83 c4 04	 add	 esp, 4
  000a4	89 45 10	 mov	 DWORD PTR $T3[ebp], eax
  000a7	c7 45 fc 00 00
	00 00		 mov	 DWORD PTR __$EHRec$[ebp+8], 0
  000ae	85 c0		 test	 eax, eax
  000b0	74 1d		 je	 SHORT $LN15@SetItemCon
  000b2	68 00 00 00 00	 push	 OFFSET ??1CItemElem@@UAE@XZ ; CItemElem::~CItemElem
  000b7	68 00 00 00 00	 push	 OFFSET ??0CItemElem@@QAE@XZ ; CItemElem::CItemElem
  000bc	53		 push	 ebx
  000bd	8d 78 04	 lea	 edi, DWORD PTR [eax+4]
  000c0	89 18		 mov	 DWORD PTR [eax], ebx
  000c2	68 98 00 00 00	 push	 152			; 00000098H
  000c7	57		 push	 edi
  000c8	e8 00 00 00 00	 call	 ??_L@YGXPAXIIP6EX0@Z1@Z
  000cd	eb 02		 jmp	 SHORT $LN16@SetItemCon
$LN15@SetItemCon:
  000cf	33 ff		 xor	 edi, edi
$LN16@SetItemCon:

; 364  : 	m_apIndex	= new DWORD[ m_dwItemMax ];

  000d1	8b 46 10	 mov	 eax, DWORD PTR [esi+16]
  000d4	b9 04 00 00 00	 mov	 ecx, 4
  000d9	f7 e1		 mul	 ecx
  000db	b9 ff ff ff ff	 mov	 ecx, -1
  000e0	c7 45 fc ff ff
	ff ff		 mov	 DWORD PTR __$EHRec$[ebp+8], -1
  000e7	89 7e 0c	 mov	 DWORD PTR [esi+12], edi
  000ea	0f 42 c1	 cmovb	 eax, ecx
  000ed	50		 push	 eax
  000ee	e8 00 00 00 00	 call	 ??_U@YAPAXI@Z		; operator new[]

; 365  : 	for( u_long i = 0; i < m_dwItemMax; i++ )

  000f3	33 c9		 xor	 ecx, ecx
  000f5	89 46 04	 mov	 DWORD PTR [esi+4], eax
  000f8	83 c4 04	 add	 esp, 4
  000fb	39 4e 10	 cmp	 DWORD PTR [esi+16], ecx
  000fe	76 33		 jbe	 SHORT $LN3@SetItemCon

; 362  : 
; 363  : 	m_apItem	= new T[ m_dwItemMax ];

  00100	33 d2		 xor	 edx, edx
$LL4@SetItemCon:

; 366  : 	{
; 367  : 		m_apItem[i].m_dwObjId = i;

  00102	8b 46 0c	 mov	 eax, DWORD PTR [esi+12]
  00105	89 4c 10 04	 mov	 DWORD PTR [eax+edx+4], ecx

; 368  : 		if( i < m_dwIndexNum )

  00109	3b 4e 08	 cmp	 ecx, DWORD PTR [esi+8]
  0010c	73 0f		 jae	 SHORT $LN8@SetItemCon

; 369  : 		{
; 370  : 			m_apItem[i].m_dwObjIndex	= i;

  0010e	8b 46 0c	 mov	 eax, DWORD PTR [esi+12]
  00111	89 4c 10 2c	 mov	 DWORD PTR [eax+edx+44], ecx

; 371  : 			m_apIndex[i]	= i;

  00115	8b 46 04	 mov	 eax, DWORD PTR [esi+4]
  00118	89 0c 88	 mov	 DWORD PTR [eax+ecx*4], ecx

; 372  : 		}

  0011b	eb 0a		 jmp	 SHORT $LN2@SetItemCon
$LN8@SetItemCon:

; 373  : 		else 
; 374  : 			m_apIndex[i]	= NULL_ID;

  0011d	8b 46 04	 mov	 eax, DWORD PTR [esi+4]
  00120	c7 04 88 ff ff
	ff ff		 mov	 DWORD PTR [eax+ecx*4], -1
$LN2@SetItemCon:

; 365  : 	for( u_long i = 0; i < m_dwItemMax; i++ )

  00127	41		 inc	 ecx
  00128	81 c2 98 00 00
	00		 add	 edx, 152		; 00000098H
  0012e	3b 4e 10	 cmp	 ecx, DWORD PTR [esi+16]
  00131	72 cf		 jb	 SHORT $LL4@SetItemCon
$LN3@SetItemCon:

; 375  : 	}
; 376  : }

  00133	8b 4d f4	 mov	 ecx, DWORD PTR __$EHRec$[ebp]
  00136	64 89 0d 00 00
	00 00		 mov	 DWORD PTR fs:0, ecx
  0013d	59		 pop	 ecx
  0013e	5f		 pop	 edi
  0013f	5e		 pop	 esi
  00140	5b		 pop	 ebx
  00141	8b e5		 mov	 esp, ebp
  00143	5d		 pop	 ebp
  00144	c2 0c 00	 ret	 12			; 0000000cH
_TEXT	ENDS
;	COMDAT text$x
text$x	SEGMENT
__unwindfunclet$?SetItemContainer@?$CItemContainer@VCItemElem@@@@QAEXKKK@Z$0:
  00000	8b 45 0c	 mov	 eax, DWORD PTR $T2[ebp]
  00003	b9 98 00 00 00	 mov	 ecx, 152		; 00000098H
  00008	f7 e1		 mul	 ecx
  0000a	8b c8		 mov	 ecx, eax
  0000c	b8 ff ff ff ff	 mov	 eax, -1
  00011	0f 42 c8	 cmovb	 ecx, eax
  00014	83 c1 04	 add	 ecx, 4
  00017	b8 ff ff ff ff	 mov	 eax, -1
  0001c	0f 42 c8	 cmovb	 ecx, eax
  0001f	51		 push	 ecx
  00020	8b 45 10	 mov	 eax, DWORD PTR $T3[ebp]
  00023	50		 push	 eax
  00024	e8 00 00 00 00	 call	 ??_V@YAXPAXI@Z		; operator delete[]
  00029	83 c4 08	 add	 esp, 8
  0002c	c3		 ret	 0
  0002d	cc		 int	 3
  0002e	cc		 int	 3
  0002f	cc		 int	 3
  00030	cc		 int	 3
  00031	cc		 int	 3
__ehhandler$?SetItemContainer@?$CItemContainer@VCItemElem@@@@QAEXKKK@Z:
  00032	90		 npad	 1
  00033	90		 npad	 1
  00034	8b 54 24 08	 mov	 edx, DWORD PTR [esp+8]
  00038	8d 42 0c	 lea	 eax, DWORD PTR [edx+12]
  0003b	8b 4a f0	 mov	 ecx, DWORD PTR [edx-16]
  0003e	33 c8		 xor	 ecx, eax
  00040	e8 00 00 00 00	 call	 @__security_check_cookie@4
  00045	b8 00 00 00 00	 mov	 eax, OFFSET __ehfuncinfo$?SetItemContainer@?$CItemContainer@VCItemElem@@@@QAEXKKK@Z
  0004a	e9 00 00 00 00	 jmp	 ___CxxFrameHandler3
text$x	ENDS
?SetItemContainer@?$CItemContainer@VCItemElem@@@@QAEXKKK@Z ENDP ; CItemContainer<CItemElem>::SetItemContainer
; Function compile flags: /Ogtp
; File C:\IAGOS\server\v18\Source\Source\_Network\Objects\Obj.h
;	COMDAT ??1?$CItemContainer@VCItemElem@@@@UAE@XZ
_TEXT	SEGMENT
??1?$CItemContainer@VCItemElem@@@@UAE@XZ PROC		; CItemContainer<CItemElem>::~CItemContainer<CItemElem>, COMDAT
; _this$ = ecx

; 326  : {

  00000	56		 push	 esi
  00001	8b f1		 mov	 esi, ecx

; 327  : 	SAFE_DELETE_ARRAY( m_apItem );

  00003	8b 4e 0c	 mov	 ecx, DWORD PTR [esi+12]
  00006	c7 06 00 00 00
	00		 mov	 DWORD PTR [esi], OFFSET ??_7?$CItemContainer@VCItemElem@@@@6B@
  0000c	85 c9		 test	 ecx, ecx
  0000e	74 23		 je	 SHORT $LN2@CItemConta
  00010	83 79 fc 00	 cmp	 DWORD PTR [ecx-4], 0
  00014	8d 41 fc	 lea	 eax, DWORD PTR [ecx-4]
  00017	74 08		 je	 SHORT $LN5@CItemConta
  00019	8b 01		 mov	 eax, DWORD PTR [ecx]
  0001b	6a 03		 push	 3
  0001d	ff 10		 call	 DWORD PTR [eax]
  0001f	eb 0b		 jmp	 SHORT $LN6@CItemConta
$LN5@CItemConta:
  00021	6a 04		 push	 4
  00023	50		 push	 eax
  00024	e8 00 00 00 00	 call	 ??_V@YAXPAXI@Z		; operator delete[]
  00029	83 c4 08	 add	 esp, 8
$LN6@CItemConta:
  0002c	c7 46 0c 00 00
	00 00		 mov	 DWORD PTR [esi+12], 0
$LN2@CItemConta:

; 328  : 	SAFE_DELETE_ARRAY( m_apIndex );

  00033	8b 46 04	 mov	 eax, DWORD PTR [esi+4]
  00036	85 c0		 test	 eax, eax
  00038	74 10		 je	 SHORT $LN3@CItemConta
  0003a	50		 push	 eax
  0003b	e8 00 00 00 00	 call	 ??_V@YAXPAX@Z		; operator delete[]
  00040	83 c4 04	 add	 esp, 4
  00043	c7 46 04 00 00
	00 00		 mov	 DWORD PTR [esi+4], 0
$LN3@CItemConta:

; 329  : }

  0004a	5e		 pop	 esi
  0004b	c3		 ret	 0
??1?$CItemContainer@VCItemElem@@@@UAE@XZ ENDP		; CItemContainer<CItemElem>::~CItemContainer<CItemElem>
_TEXT	ENDS
; Function compile flags: /Ogtp
; File C:\IAGOS\server\v18\Source\Source\_Network\Objects\Obj.h
;	COMDAT ??0?$CItemContainer@VCItemElem@@@@QAE@XZ
_TEXT	SEGMENT
??0?$CItemContainer@VCItemElem@@@@QAE@XZ PROC		; CItemContainer<CItemElem>::CItemContainer<CItemElem>, COMDAT
; _this$ = ecx

; 310  : {

  00000	c7 01 00 00 00
	00		 mov	 DWORD PTR [ecx], OFFSET ??_7?$CItemContainer@VCItemElem@@@@6B@

; 311  : 	m_apItem = NULL;
; 312  : 	m_apIndex = NULL;
; 313  : }

  00006	8b c1		 mov	 eax, ecx
  00008	c7 41 0c 00 00
	00 00		 mov	 DWORD PTR [ecx+12], 0
  0000f	c7 41 04 00 00
	00 00		 mov	 DWORD PTR [ecx+4], 0
  00016	c3		 ret	 0
??0?$CItemContainer@VCItemElem@@@@QAE@XZ ENDP		; CItemContainer<CItemElem>::CItemContainer<CItemElem>
_TEXT	ENDS
; Function compile flags: /Ogtp
;	COMDAT ??_GCActionMover@@UAEPAXI@Z
_TEXT	SEGMENT
___flags$ = 8						; size = 4
??_GCActionMover@@UAEPAXI@Z PROC			; CActionMover::`scalar deleting destructor', COMDAT
; _this$ = ecx
  00000	55		 push	 ebp
  00001	8b ec		 mov	 ebp, esp
  00003	f6 45 08 01	 test	 BYTE PTR ___flags$[ebp], 1
  00007	56		 push	 esi
  00008	8b f1		 mov	 esi, ecx
  0000a	c7 06 00 00 00
	00		 mov	 DWORD PTR [esi], OFFSET ??_7CAction@@6B@
  00010	74 0b		 je	 SHORT $LN5@scalar
  00012	6a 0c		 push	 12			; 0000000cH
  00014	56		 push	 esi
  00015	e8 00 00 00 00	 call	 ??3@YAXPAXI@Z		; operator delete
  0001a	83 c4 08	 add	 esp, 8
$LN5@scalar:
  0001d	8b c6		 mov	 eax, esi
  0001f	5e		 pop	 esi
  00020	5d		 pop	 ebp
  00021	c2 04 00	 ret	 4
??_GCActionMover@@UAEPAXI@Z ENDP			; CActionMover::`scalar deleting destructor'
_TEXT	ENDS
; Function compile flags: /Ogtp
; File C:\IAGOS\server\v18\Source\Source\_Network\Objects\Obj.h
;	COMDAT ??1CActionMover@@UAE@XZ
_TEXT	SEGMENT
??1CActionMover@@UAE@XZ PROC				; CActionMover::~CActionMover, COMDAT
; _this$ = ecx

; 898  : 	virtual	~CActionMover()	{}

  00000	c7 01 00 00 00
	00		 mov	 DWORD PTR [ecx], OFFSET ??_7CAction@@6B@
  00006	c3		 ret	 0
??1CActionMover@@UAE@XZ ENDP				; CActionMover::~CActionMover
_TEXT	ENDS
; Function compile flags: /Ogtp
;	COMDAT ??_GCAction@@UAEPAXI@Z
_TEXT	SEGMENT
___flags$ = 8						; size = 4
??_GCAction@@UAEPAXI@Z PROC				; CAction::`scalar deleting destructor', COMDAT
; _this$ = ecx
  00000	55		 push	 ebp
  00001	8b ec		 mov	 ebp, esp
  00003	f6 45 08 01	 test	 BYTE PTR ___flags$[ebp], 1
  00007	56		 push	 esi
  00008	8b f1		 mov	 esi, ecx
  0000a	c7 06 00 00 00
	00		 mov	 DWORD PTR [esi], OFFSET ??_7CAction@@6B@
  00010	74 0b		 je	 SHORT $LN5@scalar
  00012	6a 0c		 push	 12			; 0000000cH
  00014	56		 push	 esi
  00015	e8 00 00 00 00	 call	 ??3@YAXPAXI@Z		; operator delete
  0001a	83 c4 08	 add	 esp, 8
$LN5@scalar:
  0001d	8b c6		 mov	 eax, esi
  0001f	5e		 pop	 esi
  00020	5d		 pop	 ebp
  00021	c2 04 00	 ret	 4
??_GCAction@@UAEPAXI@Z ENDP				; CAction::`scalar deleting destructor'
_TEXT	ENDS
; Function compile flags: /Ogtp
; File C:\IAGOS\server\v18\Source\Source\_Network\Objects\Obj.h
;	COMDAT ??1CAction@@UAE@XZ
_TEXT	SEGMENT
??1CAction@@UAE@XZ PROC					; CAction::~CAction, COMDAT
; _this$ = ecx

; 888  : 	virtual	~CAction()	{}

  00000	c7 01 00 00 00
	00		 mov	 DWORD PTR [ecx], OFFSET ??_7CAction@@6B@
  00006	c3		 ret	 0
??1CAction@@UAE@XZ ENDP					; CAction::~CAction
_TEXT	ENDS
; Function compile flags: /Ogtp
;	COMDAT ??_GCItem@@UAEPAXI@Z
_TEXT	SEGMENT
___flags$ = 8						; size = 4
??_GCItem@@UAEPAXI@Z PROC				; CItem::`scalar deleting destructor', COMDAT
; _this$ = ecx
  00000	55		 push	 ebp
  00001	8b ec		 mov	 ebp, esp
  00003	56		 push	 esi
  00004	8b f1		 mov	 esi, ecx
  00006	e8 00 00 00 00	 call	 ??1CItem@@UAE@XZ	; CItem::~CItem
  0000b	f6 45 08 01	 test	 BYTE PTR ___flags$[ebp], 1
  0000f	74 0b		 je	 SHORT $LN5@scalar
  00011	6a 38		 push	 56			; 00000038H
  00013	56		 push	 esi
  00014	e8 00 00 00 00	 call	 ??3@YAXPAXI@Z		; operator delete
  00019	83 c4 08	 add	 esp, 8
$LN5@scalar:
  0001c	8b c6		 mov	 eax, esi
  0001e	5e		 pop	 esi
  0001f	5d		 pop	 ebp
  00020	c2 04 00	 ret	 4
??_GCItem@@UAEPAXI@Z ENDP				; CItem::`scalar deleting destructor'
_TEXT	ENDS
; Function compile flags: /Ogtp
; File C:\IAGOS\server\v18\Source\Source\_network\objects\Obj.cpp
;	COMDAT ??1CItem@@UAE@XZ
_TEXT	SEGMENT
??1CItem@@UAE@XZ PROC					; CItem::~CItem, COMDAT
; _this$ = ecx

; 90   : {

  00000	56		 push	 esi
  00001	8b f1		 mov	 esi, ecx

; 91   : 	SAFE_DELETE( m_pItemBase );

  00003	8b 4e 34	 mov	 ecx, DWORD PTR [esi+52]
  00006	c7 06 00 00 00
	00		 mov	 DWORD PTR [esi], OFFSET ??_7CItem@@6B@
  0000c	85 c9		 test	 ecx, ecx
  0000e	74 0d		 je	 SHORT $LN7@CItem
  00010	8b 01		 mov	 eax, DWORD PTR [ecx]
  00012	6a 01		 push	 1
  00014	ff 10		 call	 DWORD PTR [eax]
  00016	c7 46 34 00 00
	00 00		 mov	 DWORD PTR [esi+52], 0
$LN7@CItem:

; 92   : }

  0001d	c7 06 00 00 00
	00		 mov	 DWORD PTR [esi], OFFSET ??_7CObj@@6B@
  00023	5e		 pop	 esi
  00024	c3		 ret	 0
??1CItem@@UAE@XZ ENDP					; CItem::~CItem
_TEXT	ENDS
; Function compile flags: /Ogtp
; File C:\IAGOS\server\v18\Source\Source\_network\objects\Obj.cpp
;	COMDAT ??0CItem@@QAE@XZ
_TEXT	SEGMENT
_this$ = -4						; size = 4
??0CItem@@QAE@XZ PROC					; CItem::CItem, COMDAT
; _this$ = ecx

; 84   : {

  00000	55		 push	 ebp
  00001	8b ec		 mov	 ebp, esp
  00003	51		 push	 ecx
  00004	56		 push	 esi
  00005	8b f1		 mov	 esi, ecx
  00007	89 75 fc	 mov	 DWORD PTR _this$[ebp], esi
  0000a	e8 00 00 00 00	 call	 ??0CCtrl@@QAE@XZ	; CCtrl::CCtrl
  0000f	c7 06 00 00 00
	00		 mov	 DWORD PTR [esi], OFFSET ??_7CItem@@6B@

; 85   : 	m_dwType = OT_ITEM;
; 86   : 	m_pItemBase = NULL;
; 87   : }

  00015	8b c6		 mov	 eax, esi
  00017	c7 46 04 04 00
	00 00		 mov	 DWORD PTR [esi+4], 4
  0001e	c7 46 34 00 00
	00 00		 mov	 DWORD PTR [esi+52], 0
  00025	5e		 pop	 esi
  00026	8b e5		 mov	 esp, ebp
  00028	5d		 pop	 ebp
  00029	c3		 ret	 0
??0CItem@@QAE@XZ ENDP					; CItem::CItem
_TEXT	ENDS
; Function compile flags: /Ogtp
;	COMDAT ??_ECItemElem@@UAEPAXI@Z
_TEXT	SEGMENT
__$EHRec$ = -12						; size = 12
___flags$ = 8						; size = 4
??_ECItemElem@@UAEPAXI@Z PROC				; CItemElem::`vector deleting destructor', COMDAT
; _this$ = ecx
  00000	55		 push	 ebp
  00001	8b ec		 mov	 ebp, esp
  00003	6a ff		 push	 -1
  00005	68 00 00 00 00	 push	 __ehhandler$??_ECItemElem@@UAEPAXI@Z
  0000a	64 a1 00 00 00
	00		 mov	 eax, DWORD PTR fs:0
  00010	50		 push	 eax
  00011	53		 push	 ebx
  00012	56		 push	 esi
  00013	57		 push	 edi
  00014	a1 00 00 00 00	 mov	 eax, DWORD PTR ___security_cookie
  00019	33 c5		 xor	 eax, ebp
  0001b	50		 push	 eax
  0001c	8d 45 f4	 lea	 eax, DWORD PTR __$EHRec$[ebp]
  0001f	64 a3 00 00 00
	00		 mov	 DWORD PTR fs:0, eax
  00025	8b f1		 mov	 esi, ecx
  00027	8b 45 08	 mov	 eax, DWORD PTR ___flags$[ebp]
  0002a	8b f8		 mov	 edi, eax
  0002c	83 e7 01	 and	 edi, 1
  0002f	a8 02		 test	 al, 2
  00031	74 43		 je	 SHORT $LN2@vector
  00033	68 00 00 00 00	 push	 OFFSET ??1CItemElem@@UAE@XZ ; CItemElem::~CItemElem
  00038	ff 76 fc	 push	 DWORD PTR [esi-4]
  0003b	8d 5e fc	 lea	 ebx, DWORD PTR [esi-4]
  0003e	68 98 00 00 00	 push	 152			; 00000098H
  00043	56		 push	 esi
  00044	e8 00 00 00 00	 call	 ??_M@YGXPAXIIP6EX0@Z@Z
  00049	85 ff		 test	 edi, edi
  0004b	74 13		 je	 SHORT $LN3@vector
  0004d	69 0b 98 00 00
	00		 imul	 ecx, DWORD PTR [ebx], 152
  00053	83 c1 04	 add	 ecx, 4
  00056	51		 push	 ecx
  00057	53		 push	 ebx
  00058	e8 00 00 00 00	 call	 ??_V@YAXPAXI@Z		; operator delete[]
  0005d	83 c4 08	 add	 esp, 8
$LN3@vector:
  00060	8b c3		 mov	 eax, ebx
  00062	8b 4d f4	 mov	 ecx, DWORD PTR __$EHRec$[ebp]
  00065	64 89 0d 00 00
	00 00		 mov	 DWORD PTR fs:0, ecx
  0006c	59		 pop	 ecx
  0006d	5f		 pop	 edi
  0006e	5e		 pop	 esi
  0006f	5b		 pop	 ebx
  00070	8b e5		 mov	 esp, ebp
  00072	5d		 pop	 ebp
  00073	c2 04 00	 ret	 4
$LN2@vector:
  00076	e8 00 00 00 00	 call	 ??1CItemElem@@UAE@XZ	; CItemElem::~CItemElem
  0007b	85 ff		 test	 edi, edi
  0007d	74 0e		 je	 SHORT $LN4@vector
  0007f	68 98 00 00 00	 push	 152			; 00000098H
  00084	56		 push	 esi
  00085	e8 00 00 00 00	 call	 ??3@YAXPAXI@Z		; operator delete
  0008a	83 c4 08	 add	 esp, 8
$LN4@vector:
  0008d	8b c6		 mov	 eax, esi
  0008f	8b 4d f4	 mov	 ecx, DWORD PTR __$EHRec$[ebp]
  00092	64 89 0d 00 00
	00 00		 mov	 DWORD PTR fs:0, ecx
  00099	59		 pop	 ecx
  0009a	5f		 pop	 edi
  0009b	5e		 pop	 esi
  0009c	5b		 pop	 ebx
  0009d	8b e5		 mov	 esp, ebp
  0009f	5d		 pop	 ebp
  000a0	c2 04 00	 ret	 4
  000a3	cc		 int	 3
  000a4	cc		 int	 3
  000a5	cc		 int	 3
  000a6	cc		 int	 3
  000a7	cc		 int	 3
_TEXT	ENDS
;	COMDAT text$x
text$x	SEGMENT
__ehhandler$??_ECItemElem@@UAEPAXI@Z:
  00000	90		 npad	 1
  00001	90		 npad	 1
  00002	8b 54 24 08	 mov	 edx, DWORD PTR [esp+8]
  00006	8d 42 0c	 lea	 eax, DWORD PTR [edx+12]
  00009	8b 4a f0	 mov	 ecx, DWORD PTR [edx-16]
  0000c	33 c8		 xor	 ecx, eax
  0000e	e8 00 00 00 00	 call	 @__security_check_cookie@4
  00013	b8 00 00 00 00	 mov	 eax, OFFSET __ehfuncinfo$??_ECItemElem@@UAEPAXI@Z
  00018	e9 00 00 00 00	 jmp	 ___CxxFrameHandler3
text$x	ENDS
??_ECItemElem@@UAEPAXI@Z ENDP				; CItemElem::`vector deleting destructor'
; Function compile flags: /Ogtp
; File C:\IAGOS\server\v18\Source\Source\_network\objects\Obj.cpp
;	COMDAT ??4CItemElem@@UAEAAV0@AAV0@@Z
_TEXT	SEGMENT
__$EHRec$ = -12						; size = 12
_ie$ = 8						; size = 4
$T2 = 8							; size = 4
??4CItemElem@@UAEAAV0@AAV0@@Z PROC			; CItemElem::operator=, COMDAT
; _this$ = ecx

; 660  : {

  00000	55		 push	 ebp
  00001	8b ec		 mov	 ebp, esp
  00003	6a ff		 push	 -1
  00005	68 00 00 00 00	 push	 __ehhandler$??4CItemElem@@UAEAAV0@AAV0@@Z
  0000a	64 a1 00 00 00
	00		 mov	 eax, DWORD PTR fs:0
  00010	50		 push	 eax
  00011	56		 push	 esi
  00012	57		 push	 edi
  00013	a1 00 00 00 00	 mov	 eax, DWORD PTR ___security_cookie
  00018	33 c5		 xor	 eax, ebp
  0001a	50		 push	 eax
  0001b	8d 45 f4	 lea	 eax, DWORD PTR __$EHRec$[ebp]
  0001e	64 a3 00 00 00
	00		 mov	 DWORD PTR fs:0, eax
  00024	8b f1		 mov	 esi, ecx

; 661  : 	CItemBase::operator =( ie );

  00026	8b 7d 08	 mov	 edi, DWORD PTR _ie$[ebp]
  00029	57		 push	 edi
  0002a	e8 00 00 00 00	 call	 ??4CItemBase@@UAEAAV0@AAV0@@Z ; CItemBase::operator=

; 662  : 	m_nItemNum				= ie.m_nItemNum;

  0002f	66 8b 47 66	 mov	 ax, WORD PTR [edi+102]

; 663  : 	m_nRepairNumber			= ie.m_nRepairNumber;
; 664  : 	m_nHitPoint				= ie.m_nHitPoint;
; 665  : 	m_byFlag				= ie.m_byFlag;
; 666  : 	m_nAbilityOption		= ie.m_nAbilityOption;
; 667  : 	m_idGuild				= ie.m_idGuild;
; 668  : 	m_bItemResist			= ie.m_bItemResist;
; 669  : 	m_nResistAbilityOption	= ie.m_nResistAbilityOption;
; 670  : 	m_nResistSMItemId		= ie.m_nResistSMItemId;
; 671  : 	m_dwKeepTime			= ie.m_dwKeepTime;
; 672  : 	m_piercing	= ie.m_piercing;

  00033	8d 4e 34	 lea	 ecx, DWORD PTR [esi+52]
  00036	66 89 46 66	 mov	 WORD PTR [esi+102], ax
  0003a	0f b6 47 64	 movzx	 eax, BYTE PTR [edi+100]
  0003e	88 46 64	 mov	 BYTE PTR [esi+100], al
  00041	8b 47 68	 mov	 eax, DWORD PTR [edi+104]
  00044	89 46 68	 mov	 DWORD PTR [esi+104], eax
  00047	0f b6 47 65	 movzx	 eax, BYTE PTR [edi+101]
  0004b	88 46 65	 mov	 BYTE PTR [esi+101], al
  0004e	8b 47 5c	 mov	 eax, DWORD PTR [edi+92]
  00051	89 46 5c	 mov	 DWORD PTR [esi+92], eax
  00054	8b 47 6c	 mov	 eax, DWORD PTR [edi+108]
  00057	89 46 6c	 mov	 DWORD PTR [esi+108], eax
  0005a	0f b6 47 70	 movzx	 eax, BYTE PTR [edi+112]
  0005e	88 46 70	 mov	 BYTE PTR [esi+112], al
  00061	8b 47 74	 mov	 eax, DWORD PTR [edi+116]
  00064	89 46 74	 mov	 DWORD PTR [esi+116], eax
  00067	8b 47 78	 mov	 eax, DWORD PTR [edi+120]
  0006a	89 46 78	 mov	 DWORD PTR [esi+120], eax
  0006d	8b 87 80 00 00
	00		 mov	 eax, DWORD PTR [edi+128]
  00073	89 86 80 00 00
	00		 mov	 DWORD PTR [esi+128], eax
  00079	8d 47 34	 lea	 eax, DWORD PTR [edi+52]
  0007c	50		 push	 eax
  0007d	e8 00 00 00 00	 call	 ??4CPiercing@@QAEAAV0@ABV0@@Z ; CPiercing::operator=

; 673  : 	m_bCharged				= ie.m_bCharged;

  00082	8b 47 7c	 mov	 eax, DWORD PTR [edi+124]
  00085	89 46 7c	 mov	 DWORD PTR [esi+124], eax

; 674  : #if __VER >= 11 // __SYS_IDENTIFY
; 675  : 	m_iRandomOptItemId		= ie.GetRandomOptItemId();

  00088	8b 87 88 00 00
	00		 mov	 eax, DWORD PTR [edi+136]
  0008e	8b 8f 8c 00 00
	00		 mov	 ecx, DWORD PTR [edi+140]
  00094	89 8e 8c 00 00
	00		 mov	 DWORD PTR [esi+140], ecx

; 676  : #else	// __SYS_IDENTIFY
; 677  : 	m_nRandomOptItemId		= ie.GetRandomOptItemId();
; 678  : #endif	// __SYS_IDENTIFY
; 679  : 	m_nRepair				= ie.m_nRepair;
; 680  : 
; 681  : #if __VER >= 9	// __PET_0410
; 682  : 	SAFE_DELETE( m_pPet );

  0009a	8b 8e 90 00 00
	00		 mov	 ecx, DWORD PTR [esi+144]
  000a0	89 86 88 00 00
	00		 mov	 DWORD PTR [esi+136], eax
  000a6	8b 47 60	 mov	 eax, DWORD PTR [edi+96]
  000a9	89 46 60	 mov	 DWORD PTR [esi+96], eax
  000ac	85 c9		 test	 ecx, ecx
  000ae	74 10		 je	 SHORT $LN2@operator
  000b0	8b 01		 mov	 eax, DWORD PTR [ecx]
  000b2	6a 01		 push	 1
  000b4	ff 10		 call	 DWORD PTR [eax]
  000b6	c7 86 90 00 00
	00 00 00 00 00	 mov	 DWORD PTR [esi+144], 0
$LN2@operator:

; 683  : 	if( ie.m_pPet )

  000c0	83 bf 90 00 00
	00 00		 cmp	 DWORD PTR [edi+144], 0
  000c7	74 3d		 je	 SHORT $LN3@operator

; 684  : 	{
; 685  : 		m_pPet	= new CPet;

  000c9	6a 28		 push	 40			; 00000028H
  000cb	e8 00 00 00 00	 call	 ??2@YAPAXI@Z		; operator new
  000d0	83 c4 04	 add	 esp, 4
  000d3	89 45 08	 mov	 DWORD PTR $T2[ebp], eax
  000d6	c7 45 fc 00 00
	00 00		 mov	 DWORD PTR __$EHRec$[ebp+8], 0
  000dd	85 c0		 test	 eax, eax
  000df	74 09		 je	 SHORT $LN7@operator
  000e1	8b c8		 mov	 ecx, eax
  000e3	e8 00 00 00 00	 call	 ??0CPet@@QAE@XZ		; CPet::CPet
  000e8	eb 02		 jmp	 SHORT $LN8@operator
$LN7@operator:
  000ea	33 c0		 xor	 eax, eax
$LN8@operator:
  000ec	89 86 90 00 00
	00		 mov	 DWORD PTR [esi+144], eax

; 686  : 		*m_pPet	= *ie.m_pPet;

  000f2	8b c8		 mov	 ecx, eax
  000f4	ff b7 90 00 00
	00		 push	 DWORD PTR [edi+144]
  000fa	c7 45 fc ff ff
	ff ff		 mov	 DWORD PTR __$EHRec$[ebp+8], -1
  00101	e8 00 00 00 00	 call	 ??4CPet@@QAEAAV0@AAV0@@Z ; CPet::operator=
$LN3@operator:

; 687  : 	}
; 688  : #endif	// __PET_0410
; 689  : #if __VER >= 15 // __PETVIS
; 690  : 	m_bTranformVisPet		= ie.m_bTranformVisPet;

  00106	8b 87 94 00 00
	00		 mov	 eax, DWORD PTR [edi+148]
  0010c	89 86 94 00 00
	00		 mov	 DWORD PTR [esi+148], eax

; 691  : #endif // __PETVIS
; 692  : 
; 693  : 	return *this;

  00112	8b c6		 mov	 eax, esi

; 694  : }

  00114	8b 4d f4	 mov	 ecx, DWORD PTR __$EHRec$[ebp]
  00117	64 89 0d 00 00
	00 00		 mov	 DWORD PTR fs:0, ecx
  0011e	59		 pop	 ecx
  0011f	5f		 pop	 edi
  00120	5e		 pop	 esi
  00121	8b e5		 mov	 esp, ebp
  00123	5d		 pop	 ebp
  00124	c2 04 00	 ret	 4
_TEXT	ENDS
;	COMDAT text$x
text$x	SEGMENT
__unwindfunclet$??4CItemElem@@UAEAAV0@AAV0@@Z$0:
  00000	6a 28		 push	 40			; 00000028H
  00002	8b 45 08	 mov	 eax, DWORD PTR $T2[ebp]
  00005	50		 push	 eax
  00006	e8 00 00 00 00	 call	 ??3@YAXPAXI@Z		; operator delete
  0000b	83 c4 08	 add	 esp, 8
  0000e	c3		 ret	 0
  0000f	cc		 int	 3
  00010	cc		 int	 3
  00011	cc		 int	 3
  00012	cc		 int	 3
  00013	cc		 int	 3
__ehhandler$??4CItemElem@@UAEAAV0@AAV0@@Z:
  00014	90		 npad	 1
  00015	90		 npad	 1
  00016	8b 54 24 08	 mov	 edx, DWORD PTR [esp+8]
  0001a	8d 42 0c	 lea	 eax, DWORD PTR [edx+12]
  0001d	8b 4a f4	 mov	 ecx, DWORD PTR [edx-12]
  00020	33 c8		 xor	 ecx, eax
  00022	e8 00 00 00 00	 call	 @__security_check_cookie@4
  00027	b8 00 00 00 00	 mov	 eax, OFFSET __ehfuncinfo$??4CItemElem@@UAEAAV0@AAV0@@Z
  0002c	e9 00 00 00 00	 jmp	 ___CxxFrameHandler3
text$x	ENDS
??4CItemElem@@UAEAAV0@AAV0@@Z ENDP			; CItemElem::operator=
; Function compile flags: /Ogtp
; File C:\IAGOS\server\v18\Source\Source\_Network\Objects\Obj.h
;	COMDAT ?Empty@CItemElem@@UAEXXZ
_TEXT	SEGMENT
?Empty@CItemElem@@UAEXXZ PROC				; CItemElem::Empty, COMDAT
; _this$ = ecx

; 222  : 	{

  00000	56		 push	 esi
  00001	8b f1		 mov	 esi, ecx

; 223  : 		CItemBase::Empty();
; 224  : #if __VER >= 9
; 225  : 		SAFE_DELETE( m_pPet );

  00003	8b 8e 90 00 00
	00		 mov	 ecx, DWORD PTR [esi+144]

; 134  : 		m_szItemText[0] = '\0';

  00009	c6 46 0c 00	 mov	 BYTE PTR [esi+12], 0

; 135  : 		m_dwItemId      = 0;

  0000d	c7 46 08 00 00
	00 00		 mov	 DWORD PTR [esi+8], 0

; 223  : 		CItemBase::Empty();
; 224  : #if __VER >= 9
; 225  : 		SAFE_DELETE( m_pPet );

  00014	85 c9		 test	 ecx, ecx
  00016	74 10		 je	 SHORT $LN2@Empty
  00018	8b 01		 mov	 eax, DWORD PTR [ecx]
  0001a	6a 01		 push	 1
  0001c	ff 10		 call	 DWORD PTR [eax]
  0001e	c7 86 90 00 00
	00 00 00 00 00	 mov	 DWORD PTR [esi+144], 0
$LN2@Empty:

; 226  : #endif	// __PET_0410
; 227  : 	}

  00028	5e		 pop	 esi
  00029	c3		 ret	 0
?Empty@CItemElem@@UAEXXZ ENDP				; CItemElem::Empty
_TEXT	ENDS
; Function compile flags: /Ogtp
; File C:\IAGOS\server\v18\Source\Source\_network\objects\Obj.cpp
; File C:\IAGOS\server\v18\Source\Source\_Network\Objects\Obj.h
; File C:\IAGOS\server\v18\Source\Source\_Common\Data.h
; File C:\IAGOS\server\v18\Source\Source\_network\objects\Obj.cpp
;	COMDAT ?IsInvalid@CItemElem@@QAEHXZ
_TEXT	SEGMENT
?IsInvalid@CItemElem@@QAEHXZ PROC			; CItemElem::IsInvalid, COMDAT
; _this$ = ecx
; File C:\IAGOS\server\v18\Source\Source\_Network\Objects\Obj.h

; 164  : 	ItemProp*	GetProp()	{	return prj.GetItemProp( m_dwItemId );	}

  00000	8b 51 08	 mov	 edx, DWORD PTR [ecx+8]
; File C:\IAGOS\server\v18\Source\Source\_Common\Data.h

; 270  : 	if( dwIndex >= (DWORD)m_nMaxIndex )

  00003	3b 15 4c 00 00
	00		 cmp	 edx, DWORD PTR ?prj@@3VCProject@@A+76
  00009	73 30		 jae	 SHORT $LN15@IsInvalid

; 271  : 		return NULL;
; 272  : 	return (T*) m_apOffset[ dwIndex ];

  0000b	a1 3c 00 00 00	 mov	 eax, DWORD PTR ?prj@@3VCProject@@A+60
  00010	8b 04 90	 mov	 eax, DWORD PTR [eax+edx*4]
; File C:\IAGOS\server\v18\Source\Source\_network\objects\Obj.cpp

; 707  : 	if( !pProp )

  00013	85 c0		 test	 eax, eax
  00015	74 24		 je	 SHORT $LN15@IsInvalid

; 708  : 		return TRUE;
; 709  : 	// ľËŔĚ ľĆ´Ń ĆęŔĚ Ćę Á¤ş¸°ˇ ľřŔ¸¸é Á¦°Ĺ ´ë»ó ŔĚ´Ů.
; 710  : 	if( pProp->dwItemKind3 == IK3_EGG && m_dwItemId != II_PET_EGG )

  00017	83 78 78 78	 cmp	 DWORD PTR [eax+120], 120 ; 00000078H
  0001b	75 1b		 jne	 SHORT $LN5@IsInvalid
  0001d	81 fa 25 52 00
	00		 cmp	 edx, 21029		; 00005225H
  00023	74 13		 je	 SHORT $LN5@IsInvalid

; 711  : 	{
; 712  : 		if( m_pPet == NULL )

  00025	8b 89 90 00 00
	00		 mov	 ecx, DWORD PTR [ecx+144]
  0002b	85 c9		 test	 ecx, ecx
  0002d	74 0c		 je	 SHORT $LN15@IsInvalid

; 713  : 			return TRUE;
; 714  : 		if( m_pPet->GetLevel() == PL_EGG )

  0002f	33 c0		 xor	 eax, eax
  00031	38 41 05	 cmp	 BYTE PTR [ecx+5], al
  00034	0f 94 c0	 sete	 al

; 719  : }

  00037	c3		 ret	 0
$LN5@IsInvalid:

; 716  : 	}
; 717  : 
; 718  : 	return FALSE;

  00038	33 c0		 xor	 eax, eax

; 719  : }

  0003a	c3		 ret	 0
$LN15@IsInvalid:

; 715  : 			return TRUE;

  0003b	b8 01 00 00 00	 mov	 eax, 1

; 719  : }

  00040	c3		 ret	 0
?IsInvalid@CItemElem@@QAEHXZ ENDP			; CItemElem::IsInvalid
_TEXT	ENDS
; Function compile flags: /Ogtp
; File C:\IAGOS\server\v18\Source\Source\_network\objects\Obj.cpp
; File C:\IAGOS\server\v18\Source\Source\_Network\Objects\Obj.h
; File C:\IAGOS\server\v18\Source\Source\_network\objects\Obj.cpp
;	COMDAT ??1CItemElem@@UAE@XZ
_TEXT	SEGMENT
??1CItemElem@@UAE@XZ PROC				; CItemElem::~CItemElem, COMDAT
; _this$ = ecx

; 76   : {

  00000	56		 push	 esi
  00001	8b f1		 mov	 esi, ecx

; 77   : #if __VER >= 9	// __PET_0410
; 78   : 	SAFE_DELETE( m_pPet );

  00003	8b 8e 90 00 00
	00		 mov	 ecx, DWORD PTR [esi+144]
  00009	c7 06 00 00 00
	00		 mov	 DWORD PTR [esi], OFFSET ??_7CItemElem@@6B@
  0000f	85 c9		 test	 ecx, ecx
  00011	74 10		 je	 SHORT $LN2@CItemElem
  00013	8b 01		 mov	 eax, DWORD PTR [ecx]
  00015	6a 01		 push	 1
  00017	ff 10		 call	 DWORD PTR [eax]
  00019	c7 86 90 00 00
	00 00 00 00 00	 mov	 DWORD PTR [esi+144], 0
$LN2@CItemElem:

; 80   : }

  00023	8d 4e 34	 lea	 ecx, DWORD PTR [esi+52]
  00026	e8 00 00 00 00	 call	 ??1CPiercing@@UAE@XZ	; CPiercing::~CPiercing
; File C:\IAGOS\server\v18\Source\Source\_Network\Objects\Obj.h

; 128  : 	virtual ~CItemBase()	{}

  0002b	c7 06 00 00 00
	00		 mov	 DWORD PTR [esi], OFFSET ??_7CItemBase@@6B@
  00031	5e		 pop	 esi
; File C:\IAGOS\server\v18\Source\Source\_network\objects\Obj.cpp

; 80   : }

  00032	c3		 ret	 0
??1CItemElem@@UAE@XZ ENDP				; CItemElem::~CItemElem
_TEXT	ENDS
; Function compile flags: /Ogtp
; File C:\IAGOS\server\v18\Source\Source\_network\objects\Obj.cpp
;	COMDAT ??0CItemElem@@QAE@XZ
_TEXT	SEGMENT
_this$ = -16						; size = 4
__$EHRec$ = -12						; size = 12
??0CItemElem@@QAE@XZ PROC				; CItemElem::CItemElem, COMDAT
; _this$ = ecx

; 44   : {

  00000	55		 push	 ebp
  00001	8b ec		 mov	 ebp, esp
  00003	6a ff		 push	 -1
  00005	68 00 00 00 00	 push	 __ehhandler$??0CItemElem@@QAE@XZ
  0000a	64 a1 00 00 00
	00		 mov	 eax, DWORD PTR fs:0
  00010	50		 push	 eax
  00011	51		 push	 ecx
  00012	56		 push	 esi
  00013	a1 00 00 00 00	 mov	 eax, DWORD PTR ___security_cookie
  00018	33 c5		 xor	 eax, ebp
  0001a	50		 push	 eax
  0001b	8d 45 f4	 lea	 eax, DWORD PTR __$EHRec$[ebp]
  0001e	64 a3 00 00 00
	00		 mov	 DWORD PTR fs:0, eax
  00024	8b f1		 mov	 esi, ecx
  00026	89 75 f0	 mov	 DWORD PTR _this$[ebp], esi
  00029	e8 00 00 00 00	 call	 ??0CItemBase@@QAE@XZ	; CItemBase::CItemBase
  0002e	8d 4e 34	 lea	 ecx, DWORD PTR [esi+52]
  00031	c7 45 fc 00 00
	00 00		 mov	 DWORD PTR __$EHRec$[ebp+8], 0
  00038	c7 06 00 00 00
	00		 mov	 DWORD PTR [esi], OFFSET ??_7CItemElem@@6B@
  0003e	e8 00 00 00 00	 call	 ??0CPiercing@@QAE@XZ	; CPiercing::CPiercing

; 45   : 	m_byFlag			= 0;
; 46   : 	m_nItemNum			= 1;
; 47   : 	m_idGuild			= 0;
; 48   : 	m_nAbilityOption	= 0;
; 49   : 	m_nRepairNumber		= 0;

  00043	c7 46 64 00 00
	01 00		 mov	 DWORD PTR [esi+100], 65536 ; 00010000H

; 50   : 	m_nHitPoint			= 0;
; 51   : 	m_nRepair			= 0;
; 52   : 	
; 53   :     m_bItemResist = SAI79::NO_PROP;
; 54   : 	m_nResistAbilityOption = 0;	
; 55   : 	m_nResistSMItemId = 0;
; 56   : 
; 57   : //	memset( &m_piercingInfo, 0x00, sizeof(m_piercingInfo) );
; 58   : 
; 59   : 	m_bCharged	= FALSE;
; 60   : 	m_dwKeepTime = 0;
; 61   : #if __VER >= 11 // __SYS_IDENTIFY
; 62   : 	m_iRandomOptItemId	= 0;
; 63   : #else	// __SYS_IDENTIFY
; 64   : 	m_nRandomOptItemId	= 0;
; 65   : #endif	// __SYS_IDENTIFY
; 66   : 
; 67   : #if __VER >= 9	// __PET_0410
; 68   : 	m_pPet	= NULL;
; 69   : #endif	// __PET_0410
; 70   : #if __VER >= 15 // __PETVIS
; 71   : 	m_bTranformVisPet = FALSE;
; 72   : #endif // __PETVIS
; 73   : }

  0004a	8b c6		 mov	 eax, esi
  0004c	c7 46 6c 00 00
	00 00		 mov	 DWORD PTR [esi+108], 0
  00053	c7 46 5c 00 00
	00 00		 mov	 DWORD PTR [esi+92], 0
  0005a	c7 46 68 00 00
	00 00		 mov	 DWORD PTR [esi+104], 0
  00061	c7 46 60 00 00
	00 00		 mov	 DWORD PTR [esi+96], 0
  00068	c6 46 70 00	 mov	 BYTE PTR [esi+112], 0
  0006c	c7 46 74 00 00
	00 00		 mov	 DWORD PTR [esi+116], 0
  00073	c7 46 78 00 00
	00 00		 mov	 DWORD PTR [esi+120], 0
  0007a	c7 46 7c 00 00
	00 00		 mov	 DWORD PTR [esi+124], 0
  00081	c7 86 80 00 00
	00 00 00 00 00	 mov	 DWORD PTR [esi+128], 0
  0008b	c7 86 88 00 00
	00 00 00 00 00	 mov	 DWORD PTR [esi+136], 0
  00095	c7 86 8c 00 00
	00 00 00 00 00	 mov	 DWORD PTR [esi+140], 0
  0009f	c7 86 90 00 00
	00 00 00 00 00	 mov	 DWORD PTR [esi+144], 0
  000a9	c7 86 94 00 00
	00 00 00 00 00	 mov	 DWORD PTR [esi+148], 0
  000b3	8b 4d f4	 mov	 ecx, DWORD PTR __$EHRec$[ebp]
  000b6	64 89 0d 00 00
	00 00		 mov	 DWORD PTR fs:0, ecx
  000bd	59		 pop	 ecx
  000be	5e		 pop	 esi
  000bf	8b e5		 mov	 esp, ebp
  000c1	5d		 pop	 ebp
  000c2	c3		 ret	 0
_TEXT	ENDS
;	COMDAT text$x
text$x	SEGMENT
__unwindfunclet$??0CItemElem@@QAE@XZ$0:
  00000	8b 4d f0	 mov	 ecx, DWORD PTR _this$[ebp]
  00003	e9 00 00 00 00	 jmp	 ??1CItemBase@@UAE@XZ	; CItemBase::~CItemBase
  00008	cc		 int	 3
  00009	cc		 int	 3
  0000a	cc		 int	 3
  0000b	cc		 int	 3
  0000c	cc		 int	 3
__ehhandler$??0CItemElem@@QAE@XZ:
  0000d	90		 npad	 1
  0000e	90		 npad	 1
  0000f	8b 54 24 08	 mov	 edx, DWORD PTR [esp+8]
  00013	8d 42 0c	 lea	 eax, DWORD PTR [edx+12]
  00016	8b 4a f4	 mov	 ecx, DWORD PTR [edx-12]
  00019	33 c8		 xor	 ecx, eax
  0001b	e8 00 00 00 00	 call	 @__security_check_cookie@4
  00020	b8 00 00 00 00	 mov	 eax, OFFSET __ehfuncinfo$??0CItemElem@@QAE@XZ
  00025	e9 00 00 00 00	 jmp	 ___CxxFrameHandler3
text$x	ENDS
??0CItemElem@@QAE@XZ ENDP				; CItemElem::CItemElem
; Function compile flags: /Ogtp
; File C:\IAGOS\server\v18\Source\Source\_network\objects\Obj.cpp
; File C:\IAGOS\server\v18\Source\Source\_Network\Objects\Obj.h
; File C:\IAGOS\server\v18\Source\Source\_Common\Data.h
; File C:\IAGOS\server\v18\Source\Source\_network\objects\Obj.cpp
; File C:\IAGOS\server\v18\Source\Source\_Network\Objects\Obj.h
; File C:\IAGOS\server\v18\Source\Source\_Common\Data.h
; File C:\IAGOS\server\v18\Source\Source\_Network\Objects\Obj.h
; File C:\IAGOS\server\v18\Source\Source\_Common\Data.h
; File C:\IAGOS\server\v18\Source\Source\_network\objects\Obj.cpp
; File C:\IAGOS\server\v18\Source\Source\_Common\Data.h
; File C:\IAGOS\server\v18\Source\Source\_network\objects\Obj.cpp
; File C:\IAGOS\server\v18\Source\Source\_Common\Data.h
; File C:\IAGOS\server\v18\Source\Source\_network\objects\Obj.cpp
; File C:\IAGOS\server\v18\Source\Source\_Common\Data.h
; File C:\IAGOS\server\v18\Source\Source\_network\objects\Obj.cpp
;	COMDAT ?IsPierceAble@CItemElem@@QAEHKH@Z
_TEXT	SEGMENT
_dwTargetItemKind3$ = 8					; size = 4
_bSize$ = 12						; size = 4
?IsPierceAble@CItemElem@@QAEHKH@Z PROC			; CItemElem::IsPierceAble, COMDAT
; _this$ = ecx

; 621  : {

  00000	55		 push	 ebp
  00001	8b ec		 mov	 ebp, esp
  00003	53		 push	 ebx
  00004	56		 push	 esi
  00005	8b 75 08	 mov	 esi, DWORD PTR _dwTargetItemKind3$[ebp]
  00008	57		 push	 edi
  00009	8b f9		 mov	 edi, ecx
; File C:\IAGOS\server\v18\Source\Source\_Network\Objects\Obj.h

; 164  : 	ItemProp*	GetProp()	{	return prj.GetItemProp( m_dwItemId );	}

  0000b	8b 57 08	 mov	 edx, DWORD PTR [edi+8]
; File C:\IAGOS\server\v18\Source\Source\_Common\Data.h

; 270  : 	if( dwIndex >= (DWORD)m_nMaxIndex )

  0000e	3b 15 4c 00 00
	00		 cmp	 edx, DWORD PTR ?prj@@3VCProject@@A+76
  00014	73 4c		 jae	 SHORT $LN15@IsPierceAb

; 272  : 	return (T*) m_apOffset[ dwIndex ];

  00016	a1 3c 00 00 00	 mov	 eax, DWORD PTR ?prj@@3VCProject@@A+60
; File C:\IAGOS\server\v18\Source\Source\_network\objects\Obj.cpp

; 622  : 	if( !GetProp() )

  0001b	83 3c 90 00	 cmp	 DWORD PTR [eax+edx*4], 0
  0001f	74 41		 je	 SHORT $LN15@IsPierceAb
; File C:\IAGOS\server\v18\Source\Source\_Network\Objects\Obj.h

; 151  : 	int		GetPiercingSize()	{	return m_piercing.GetPiercingSize();		}

  00021	8d 4f 34	 lea	 ecx, DWORD PTR [edi+52]
  00024	e8 00 00 00 00	 call	 ?GetPiercingSize@CPiercing@@QAEHXZ ; CPiercing::GetPiercingSize

; 164  : 	ItemProp*	GetProp()	{	return prj.GetItemProp( m_dwItemId );	}

  00029	83 7d 0c 00	 cmp	 DWORD PTR _bSize$[ebp], 0
; File C:\IAGOS\server\v18\Source\Source\_Common\Data.h

; 270  : 	if( dwIndex >= (DWORD)m_nMaxIndex )

  0002d	8b 15 4c 00 00
	00		 mov	 edx, DWORD PTR ?prj@@3VCProject@@A+76
  00033	8b 0d 3c 00 00
	00		 mov	 ecx, DWORD PTR ?prj@@3VCProject@@A+60
; File C:\IAGOS\server\v18\Source\Source\_Network\Objects\Obj.h

; 164  : 	ItemProp*	GetProp()	{	return prj.GetItemProp( m_dwItemId );	}

  00039	8d 58 01	 lea	 ebx, DWORD PTR [eax+1]
  0003c	0f 44 d8	 cmove	 ebx, eax
  0003f	8b 47 08	 mov	 eax, DWORD PTR [edi+8]
; File C:\IAGOS\server\v18\Source\Source\_Common\Data.h

; 270  : 	if( dwIndex >= (DWORD)m_nMaxIndex )

  00042	3b c2		 cmp	 eax, edx
  00044	72 04		 jb	 SHORT $LN31@IsPierceAb

; 271  : 		return NULL;

  00046	33 ff		 xor	 edi, edi
  00048	eb 03		 jmp	 SHORT $LN30@IsPierceAb
$LN31@IsPierceAb:

; 272  : 	return (T*) m_apOffset[ dwIndex ];

  0004a	8b 3c 81	 mov	 edi, DWORD PTR [ecx+eax*4]
$LN30@IsPierceAb:
; File C:\IAGOS\server\v18\Source\Source\_network\objects\Obj.cpp

; 629  : 	if( GetProp()->dwItemKind3 == IK3_SUIT )

  0004d	83 7f 78 12	 cmp	 DWORD PTR [edi+120], 18	; 00000012H
  00051	75 18		 jne	 SHORT $LN4@IsPierceAb

; 630  : 	{
; 631  : 		if( nPiercedSize <= MAX_PIERCING_SUIT )

  00053	83 fb 04	 cmp	 ebx, 4
  00056	7f 0a		 jg	 SHORT $LN15@IsPierceAb

; 632  : 		{
; 633  : 			if( dwTargetItemKind3 == NULL_ID )

  00058	83 fe ff	 cmp	 esi, -1
  0005b	74 5a		 je	 SHORT $LN55@IsPierceAb

; 634  : 				return TRUE;
; 635  : 			else if( dwTargetItemKind3 == IK3_SOCKETCARD )

  0005d	83 fe 3e	 cmp	 esi, 62			; 0000003eH
  00060	74 55		 je	 SHORT $LN55@IsPierceAb
$LN15@IsPierceAb:
  00062	5f		 pop	 edi

; 650  : 				return TRUE;
; 651  : 		}
; 652  : 	}
; 653  : 
; 654  : 	return FALSE;
; 655  : }

  00063	5e		 pop	 esi
  00064	33 c0		 xor	 eax, eax
  00066	5b		 pop	 ebx
  00067	5d		 pop	 ebp
  00068	c2 08 00	 ret	 8
$LN4@IsPierceAb:
; File C:\IAGOS\server\v18\Source\Source\_Common\Data.h

; 270  : 	if( dwIndex >= (DWORD)m_nMaxIndex )

  0006b	3b c2		 cmp	 eax, edx
  0006d	72 04		 jb	 SHORT $LN38@IsPierceAb

; 271  : 		return NULL;

  0006f	33 ff		 xor	 edi, edi
  00071	eb 03		 jmp	 SHORT $LN37@IsPierceAb
$LN38@IsPierceAb:

; 272  : 	return (T*) m_apOffset[ dwIndex ];

  00073	8b 3c 81	 mov	 edi, DWORD PTR [ecx+eax*4]
$LN37@IsPierceAb:
; File C:\IAGOS\server\v18\Source\Source\_network\objects\Obj.cpp

; 642  : 		|| GetProp()->dwItemKind2 == IK2_WEAPON_MAGIC

  00076	83 7f 78 10	 cmp	 DWORD PTR [edi+120], 16	; 00000010H
  0007a	74 22		 je	 SHORT $LN11@IsPierceAb
; File C:\IAGOS\server\v18\Source\Source\_Common\Data.h

; 270  : 	if( dwIndex >= (DWORD)m_nMaxIndex )

  0007c	3b c2		 cmp	 eax, edx
  0007e	72 04		 jb	 SHORT $LN45@IsPierceAb

; 271  : 		return NULL;

  00080	33 ff		 xor	 edi, edi
  00082	eb 03		 jmp	 SHORT $LN44@IsPierceAb
$LN45@IsPierceAb:

; 272  : 	return (T*) m_apOffset[ dwIndex ];

  00084	8b 3c 81	 mov	 edi, DWORD PTR [ecx+eax*4]
$LN44@IsPierceAb:
; File C:\IAGOS\server\v18\Source\Source\_network\objects\Obj.cpp

; 642  : 		|| GetProp()->dwItemKind2 == IK2_WEAPON_MAGIC

  00087	83 7f 74 02	 cmp	 DWORD PTR [edi+116], 2
  0008b	74 11		 je	 SHORT $LN11@IsPierceAb
; File C:\IAGOS\server\v18\Source\Source\_Common\Data.h

; 270  : 	if( dwIndex >= (DWORD)m_nMaxIndex )

  0008d	3b c2		 cmp	 eax, edx
  0008f	72 04		 jb	 SHORT $LN52@IsPierceAb

; 271  : 		return NULL;

  00091	33 c0		 xor	 eax, eax
  00093	eb 03		 jmp	 SHORT $LN51@IsPierceAb
$LN52@IsPierceAb:

; 272  : 	return (T*) m_apOffset[ dwIndex ];

  00095	8b 04 81	 mov	 eax, DWORD PTR [ecx+eax*4]
$LN51@IsPierceAb:
; File C:\IAGOS\server\v18\Source\Source\_network\objects\Obj.cpp

; 642  : 		|| GetProp()->dwItemKind2 == IK2_WEAPON_MAGIC

  00098	83 78 74 03	 cmp	 DWORD PTR [eax+116], 3
  0009c	75 c4		 jne	 SHORT $LN15@IsPierceAb
$LN11@IsPierceAb:

; 643  : 		)
; 644  : 	{
; 645  : 		if( nPiercedSize <= MAX_PIERCING_WEAPON )

  0009e	83 fb 0a	 cmp	 ebx, 10			; 0000000aH
  000a1	7f bf		 jg	 SHORT $LN15@IsPierceAb

; 646  : 		{
; 647  : 			if( dwTargetItemKind3 == NULL_ID )

  000a3	83 fe ff	 cmp	 esi, -1
  000a6	74 0f		 je	 SHORT $LN55@IsPierceAb

; 648  : 				return TRUE;
; 649  : 			else if( dwTargetItemKind3 == IK3_SOCKETCARD2 )

  000a8	33 c0		 xor	 eax, eax
  000aa	83 fe 3f	 cmp	 esi, 63			; 0000003fH
  000ad	5f		 pop	 edi

; 650  : 				return TRUE;
; 651  : 		}
; 652  : 	}
; 653  : 
; 654  : 	return FALSE;
; 655  : }

  000ae	5e		 pop	 esi
  000af	0f 94 c0	 sete	 al
  000b2	5b		 pop	 ebx
  000b3	5d		 pop	 ebp
  000b4	c2 08 00	 ret	 8
$LN55@IsPierceAb:
  000b7	5f		 pop	 edi
  000b8	5e		 pop	 esi
  000b9	b8 01 00 00 00	 mov	 eax, 1
  000be	5b		 pop	 ebx
  000bf	5d		 pop	 ebp
  000c0	c2 08 00	 ret	 8
?IsPierceAble@CItemElem@@QAEHKH@Z ENDP			; CItemElem::IsPierceAble
_TEXT	ENDS
; Function compile flags: /Ogtp
;	COMDAT ??_GCItemBase@@UAEPAXI@Z
_TEXT	SEGMENT
___flags$ = 8						; size = 4
??_GCItemBase@@UAEPAXI@Z PROC				; CItemBase::`scalar deleting destructor', COMDAT
; _this$ = ecx
  00000	55		 push	 ebp
  00001	8b ec		 mov	 ebp, esp
  00003	f6 45 08 01	 test	 BYTE PTR ___flags$[ebp], 1
  00007	56		 push	 esi
  00008	8b f1		 mov	 esi, ecx
  0000a	c7 06 00 00 00
	00		 mov	 DWORD PTR [esi], OFFSET ??_7CItemBase@@6B@
  00010	74 0b		 je	 SHORT $LN5@scalar
  00012	6a 34		 push	 52			; 00000034H
  00014	56		 push	 esi
  00015	e8 00 00 00 00	 call	 ??3@YAXPAXI@Z		; operator delete
  0001a	83 c4 08	 add	 esp, 8
$LN5@scalar:
  0001d	8b c6		 mov	 eax, esi
  0001f	5e		 pop	 esi
  00020	5d		 pop	 ebp
  00021	c2 04 00	 ret	 4
??_GCItemBase@@UAEPAXI@Z ENDP				; CItemBase::`scalar deleting destructor'
_TEXT	ENDS
; Function compile flags: /Ogtp
; File C:\IAGOS\server\v18\Source\Source\_network\objects\Obj.cpp
;	COMDAT ??4CItemBase@@UAEAAV0@AAV0@@Z
_TEXT	SEGMENT
_ib$ = 8						; size = 4
??4CItemBase@@UAEAAV0@AAV0@@Z PROC			; CItemBase::operator=, COMDAT
; _this$ = ecx

; 697  : {

  00000	55		 push	 ebp
  00001	8b ec		 mov	 ebp, esp
  00003	56		 push	 esi
  00004	57		 push	 edi

; 698  : 	_tcscpy( m_szItemText, ib.m_szItemText );

  00005	8b 7d 08	 mov	 edi, DWORD PTR _ib$[ebp]
  00008	8b f1		 mov	 esi, ecx
  0000a	8b d6		 mov	 edx, esi
  0000c	8d 47 0c	 lea	 eax, DWORD PTR [edi+12]
  0000f	2b d0		 sub	 edx, eax
$LL3@operator:
  00011	8a 08		 mov	 cl, BYTE PTR [eax]
  00013	8d 40 01	 lea	 eax, DWORD PTR [eax+1]
  00016	88 4c 02 0b	 mov	 BYTE PTR [edx+eax+11], cl
  0001a	84 c9		 test	 cl, cl
  0001c	75 f3		 jne	 SHORT $LL3@operator

; 699  : 	m_dwItemId	= ib.m_dwItemId;

  0001e	8b 47 08	 mov	 eax, DWORD PTR [edi+8]
  00021	89 46 08	 mov	 DWORD PTR [esi+8], eax

; 700  : 	m_liSerialNumber	= ib.m_liSerialNumber;

  00024	8b 47 30	 mov	 eax, DWORD PTR [edi+48]
  00027	89 46 30	 mov	 DWORD PTR [esi+48], eax

; 701  : 	return *this;

  0002a	8b c6		 mov	 eax, esi
  0002c	5f		 pop	 edi
  0002d	5e		 pop	 esi

; 702  : }

  0002e	5d		 pop	 ebp
  0002f	c2 04 00	 ret	 4
??4CItemBase@@UAEAAV0@AAV0@@Z ENDP			; CItemBase::operator=
_TEXT	ENDS
; Function compile flags: /Ogtp
; File C:\IAGOS\server\v18\Source\Source\_Network\Objects\Obj.h
;	COMDAT ?Empty@CItemBase@@UAEXXZ
_TEXT	SEGMENT
?Empty@CItemBase@@UAEXXZ PROC				; CItemBase::Empty, COMDAT
; _this$ = ecx

; 134  : 		m_szItemText[0] = '\0';

  00000	c6 41 0c 00	 mov	 BYTE PTR [ecx+12], 0

; 135  : 		m_dwItemId      = 0;

  00004	c7 41 08 00 00
	00 00		 mov	 DWORD PTR [ecx+8], 0

; 136  : 	}

  0000b	c3		 ret	 0
?Empty@CItemBase@@UAEXXZ ENDP				; CItemBase::Empty
_TEXT	ENDS
; Function compile flags: /Ogtp
; File C:\IAGOS\server\v18\Source\Source\_Network\Objects\Obj.h
;	COMDAT ??1CItemBase@@UAE@XZ
_TEXT	SEGMENT
??1CItemBase@@UAE@XZ PROC				; CItemBase::~CItemBase, COMDAT
; _this$ = ecx

; 128  : 	virtual ~CItemBase()	{}

  00000	c7 01 00 00 00
	00		 mov	 DWORD PTR [ecx], OFFSET ??_7CItemBase@@6B@
  00006	c3		 ret	 0
??1CItemBase@@UAE@XZ ENDP				; CItemBase::~CItemBase
_TEXT	ENDS
; Function compile flags: /Ogtp
; File C:\IAGOS\server\v18\Source\Source\_network\objects\Obj.cpp
;	COMDAT ??0CItemBase@@QAE@XZ
_TEXT	SEGMENT
??0CItemBase@@QAE@XZ PROC				; CItemBase::CItemBase, COMDAT
; _this$ = ecx

; 34   : {

  00000	0f 57 c0	 xorps	 xmm0, xmm0
  00003	c7 01 00 00 00
	00		 mov	 DWORD PTR [ecx], OFFSET ??_7CItemBase@@6B@

; 35   : 	memset( m_szItemText, 0, sizeof(m_szItemText) );

  00009	0f 11 41 0c	 movups	 XMMWORD PTR [ecx+12], xmm0

; 36   : 	m_dwItemId = 0;
; 37   : 	m_dwObjId = NULL_ID;
; 38   : 	m_dwObjIndex	= NULL_ID;
; 39   : 	m_liSerialNumber	= 0;
; 40   : }

  0000d	8b c1		 mov	 eax, ecx
  0000f	0f 11 41 1c	 movups	 XMMWORD PTR [ecx+28], xmm0
  00013	c7 41 08 00 00
	00 00		 mov	 DWORD PTR [ecx+8], 0
  0001a	c7 41 04 ff ff
	ff ff		 mov	 DWORD PTR [ecx+4], -1
  00021	c7 41 2c ff ff
	ff ff		 mov	 DWORD PTR [ecx+44], -1
  00028	c7 41 30 00 00
	00 00		 mov	 DWORD PTR [ecx+48], 0
  0002f	c3		 ret	 0
??0CItemBase@@QAE@XZ ENDP				; CItemBase::CItemBase
_TEXT	ENDS
; Function compile flags: /Ogtp
;	COMDAT ??_GCCtrl@@UAEPAXI@Z
_TEXT	SEGMENT
___flags$ = 8						; size = 4
??_GCCtrl@@UAEPAXI@Z PROC				; CCtrl::`scalar deleting destructor', COMDAT
; _this$ = ecx
  00000	55		 push	 ebp
  00001	8b ec		 mov	 ebp, esp
  00003	f6 45 08 01	 test	 BYTE PTR ___flags$[ebp], 1
  00007	56		 push	 esi
  00008	8b f1		 mov	 esi, ecx
  0000a	c7 06 00 00 00
	00		 mov	 DWORD PTR [esi], OFFSET ??_7CObj@@6B@
  00010	74 0b		 je	 SHORT $LN5@scalar
  00012	6a 34		 push	 52			; 00000034H
  00014	56		 push	 esi
  00015	e8 00 00 00 00	 call	 ??3@YAXPAXI@Z		; operator delete
  0001a	83 c4 08	 add	 esp, 8
$LN5@scalar:
  0001d	8b c6		 mov	 eax, esi
  0001f	5e		 pop	 esi
  00020	5d		 pop	 ebp
  00021	c2 04 00	 ret	 4
??_GCCtrl@@UAEPAXI@Z ENDP				; CCtrl::`scalar deleting destructor'
_TEXT	ENDS
; Function compile flags: /Ogtp
; File C:\IAGOS\server\v18\Source\Source\_Network\Objects\Obj.h
;	COMDAT ??1CCtrl@@UAE@XZ
_TEXT	SEGMENT
??1CCtrl@@UAE@XZ PROC					; CCtrl::~CCtrl, COMDAT
; _this$ = ecx

; 106  : 	virtual	~CCtrl()	{}

  00000	c7 01 00 00 00
	00		 mov	 DWORD PTR [ecx], OFFSET ??_7CObj@@6B@
  00006	c3		 ret	 0
??1CCtrl@@UAE@XZ ENDP					; CCtrl::~CCtrl
_TEXT	ENDS
; Function compile flags: /Ogtp
; File C:\IAGOS\server\v18\Source\Source\_network\objects\Obj.cpp
;	COMDAT ??0CCtrl@@QAE@XZ
_TEXT	SEGMENT
_this$ = -4						; size = 4
??0CCtrl@@QAE@XZ PROC					; CCtrl::CCtrl, COMDAT
; _this$ = ecx

; 27   : {

  00000	55		 push	 ebp
  00001	8b ec		 mov	 ebp, esp
  00003	51		 push	 ecx
  00004	56		 push	 esi
  00005	8b f1		 mov	 esi, ecx
  00007	89 75 fc	 mov	 DWORD PTR _this$[ebp], esi
  0000a	e8 00 00 00 00	 call	 ??0CObj@@QAE@XZ		; CObj::CObj
  0000f	c7 06 00 00 00
	00		 mov	 DWORD PTR [esi], OFFSET ??_7CCtrl@@6B@

; 28   : 	m_dwType	= OT_CTRL;
; 29   : 	m_objid		= NULL_ID;
; 30   : }

  00015	8b c6		 mov	 eax, esi
  00017	c7 46 04 02 00
	00 00		 mov	 DWORD PTR [esi+4], 2
  0001e	c7 46 30 ff ff
	ff ff		 mov	 DWORD PTR [esi+48], -1
  00025	5e		 pop	 esi
  00026	8b e5		 mov	 esp, ebp
  00028	5d		 pop	 ebp
  00029	c3		 ret	 0
??0CCtrl@@QAE@XZ ENDP					; CCtrl::CCtrl
_TEXT	ENDS
; Function compile flags: /Ogtp
;	COMDAT ??_GCObj@@UAEPAXI@Z
_TEXT	SEGMENT
___flags$ = 8						; size = 4
??_GCObj@@UAEPAXI@Z PROC				; CObj::`scalar deleting destructor', COMDAT
; _this$ = ecx
  00000	55		 push	 ebp
  00001	8b ec		 mov	 ebp, esp
  00003	f6 45 08 01	 test	 BYTE PTR ___flags$[ebp], 1
  00007	56		 push	 esi
  00008	8b f1		 mov	 esi, ecx
  0000a	c7 06 00 00 00
	00		 mov	 DWORD PTR [esi], OFFSET ??_7CObj@@6B@
  00010	74 0b		 je	 SHORT $LN5@scalar
  00012	6a 30		 push	 48			; 00000030H
  00014	56		 push	 esi
  00015	e8 00 00 00 00	 call	 ??3@YAXPAXI@Z		; operator delete
  0001a	83 c4 08	 add	 esp, 8
$LN5@scalar:
  0001d	8b c6		 mov	 eax, esi
  0001f	5e		 pop	 esi
  00020	5d		 pop	 ebp
  00021	c2 04 00	 ret	 4
??_GCObj@@UAEPAXI@Z ENDP				; CObj::`scalar deleting destructor'
_TEXT	ENDS
; Function compile flags: /Ogtp
; File C:\IAGOS\server\v18\Source\Source\_Network\Objects\Obj.h
;	COMDAT ??1CObj@@UAE@XZ
_TEXT	SEGMENT
??1CObj@@UAE@XZ PROC					; CObj::~CObj, COMDAT
; _this$ = ecx

; 80   : 	virtual	~CObj()		{}

  00000	c7 01 00 00 00
	00		 mov	 DWORD PTR [ecx], OFFSET ??_7CObj@@6B@
  00006	c3		 ret	 0
??1CObj@@UAE@XZ ENDP					; CObj::~CObj
_TEXT	ENDS
; Function compile flags: /Ogtp
; File C:\IAGOS\server\v18\Source\Source\_network\objects\Obj.cpp
;	COMDAT ??0CObj@@QAE@XZ
_TEXT	SEGMENT
??0CObj@@QAE@XZ PROC					; CObj::CObj, COMDAT
; _this$ = ecx

; 18   : {

  00000	c7 01 00 00 00
	00		 mov	 DWORD PTR [ecx], OFFSET ??_7CObj@@6B@

; 19   : 	m_dwType		=	m_dwIndex	= m_dwMotion	= 0;
; 20   : 	m_vPos	= D3DXVECTOR3( 0, 0, 0 );
; 21   : 	m_vScale	= D3DXVECTOR3( 1, 1, 1 );
; 22   : 	m_fAngle	= 0;
; 23   : }

  00006	8b c1		 mov	 eax, ecx
  00008	c7 41 2c 00 00
	00 00		 mov	 DWORD PTR [ecx+44], 0
  0000f	c7 41 18 00 00
	00 00		 mov	 DWORD PTR [ecx+24], 0
  00016	c7 41 08 00 00
	00 00		 mov	 DWORD PTR [ecx+8], 0
  0001d	c7 41 04 00 00
	00 00		 mov	 DWORD PTR [ecx+4], 0
  00024	c7 41 1c 00 00
	00 00		 mov	 DWORD PTR [ecx+28], 0
  0002b	c7 41 20 00 00
	00 00		 mov	 DWORD PTR [ecx+32], 0
  00032	c7 41 24 00 00
	00 00		 mov	 DWORD PTR [ecx+36], 0
  00039	c7 41 0c 00 00
	80 3f		 mov	 DWORD PTR [ecx+12], 1065353216 ; 3f800000H
  00040	c7 41 10 00 00
	80 3f		 mov	 DWORD PTR [ecx+16], 1065353216 ; 3f800000H
  00047	c7 41 14 00 00
	80 3f		 mov	 DWORD PTR [ecx+20], 1065353216 ; 3f800000H
  0004e	c7 41 28 00 00
	00 00		 mov	 DWORD PTR [ecx+40], 0
  00055	c3		 ret	 0
??0CObj@@QAE@XZ ENDP					; CObj::CObj
_TEXT	ENDS
; Function compile flags: /Ogtp
; File C:\Program Files\Microsoft Visual Studio\2022\Professional\VC\Tools\MSVC\14.44.35207\include\list
; File C:\Program Files\Microsoft Visual Studio\2022\Professional\VC\Tools\MSVC\14.44.35207\include\xmemory
; File C:\Program Files\Microsoft Visual Studio\2022\Professional\VC\Tools\MSVC\14.44.35207\include\list
; File C:\Program Files\Microsoft Visual Studio\2022\Professional\VC\Tools\MSVC\14.44.35207\include\xmemory
; File C:\Program Files\Microsoft Visual Studio\2022\Professional\VC\Tools\MSVC\14.44.35207\include\list
;	COMDAT ??1?$list@PAXV?$allocator@PAX@std@@@std@@QAE@XZ
_TEXT	SEGMENT
??1?$list@PAXV?$allocator@PAX@std@@@std@@QAE@XZ PROC	; std::list<void *,std::allocator<void *> >::~list<void *,std::allocator<void *> >, COMDAT
; _this$ = ecx

; 1060 :     ~list() noexcept {

  00000	57		 push	 edi
  00001	8b f9		 mov	 edi, ecx

; 1518 :         _Node::_Free_non_head(_Al, _My_data._Myhead);

  00003	8b 17		 mov	 edx, DWORD PTR [edi]

; 324  :         _Head->_Prev->_Next = nullptr;

  00005	8b 42 04	 mov	 eax, DWORD PTR [edx+4]
  00008	c7 00 00 00 00
	00		 mov	 DWORD PTR [eax], 0

; 325  : 
; 326  :         auto _Pnode = _Head->_Next;

  0000e	8b 02		 mov	 eax, DWORD PTR [edx]

; 327  :         for (_Nodeptr _Pnext; _Pnode; _Pnode = _Pnext) {

  00010	85 c0		 test	 eax, eax
  00012	74 15		 je	 SHORT $LN57@list
  00014	56		 push	 esi
$LL10@list:

; 328  :             _Pnext = _Pnode->_Next;

  00015	8b 30		 mov	 esi, DWORD PTR [eax]
; File C:\Program Files\Microsoft Visual Studio\2022\Professional\VC\Tools\MSVC\14.44.35207\include\xmemory

; 289  :         ::operator delete(_Ptr, _Bytes);

  00017	6a 0c		 push	 12			; 0000000cH
  00019	50		 push	 eax
  0001a	e8 00 00 00 00	 call	 ??3@YAXPAXI@Z		; operator delete
  0001f	83 c4 08	 add	 esp, 8
; File C:\Program Files\Microsoft Visual Studio\2022\Professional\VC\Tools\MSVC\14.44.35207\include\list

; 327  :         for (_Nodeptr _Pnext; _Pnode; _Pnode = _Pnext) {

  00022	8b c6		 mov	 eax, esi
  00024	85 f6		 test	 esi, esi
  00026	75 ed		 jne	 SHORT $LL10@list
  00028	5e		 pop	 esi
$LN57@list:
; File C:\Program Files\Microsoft Visual Studio\2022\Professional\VC\Tools\MSVC\14.44.35207\include\xmemory

; 289  :         ::operator delete(_Ptr, _Bytes);

  00029	6a 0c		 push	 12			; 0000000cH
  0002b	ff 37		 push	 DWORD PTR [edi]
  0002d	e8 00 00 00 00	 call	 ??3@YAXPAXI@Z		; operator delete
  00032	83 c4 08	 add	 esp, 8
  00035	5f		 pop	 edi
; File C:\Program Files\Microsoft Visual Studio\2022\Professional\VC\Tools\MSVC\14.44.35207\include\list

; 1066 :     }

  00036	c3		 ret	 0
??1?$list@PAXV?$allocator@PAX@std@@@std@@QAE@XZ ENDP	; std::list<void *,std::allocator<void *> >::~list<void *,std::allocator<void *> >
_TEXT	ENDS
; Function compile flags: /Ogtp
; File C:\IAGOS\server\v18\Source\Source\_Network\Mcl\Include\CMclCritSec.h
;	COMDAT ??_GCMclCritSec@@UAEPAXI@Z
_TEXT	SEGMENT
___flags$ = 8						; size = 4
??_GCMclCritSec@@UAEPAXI@Z PROC				; CMclCritSec::`scalar deleting destructor', COMDAT
; _this$ = ecx
  00000	55		 push	 ebp
  00001	8b ec		 mov	 ebp, esp

; 26   : 	{

  00003	56		 push	 esi
  00004	8b f1		 mov	 esi, ecx

; 27   : 		::DeleteCriticalSection( &m_CritSec );

  00006	8d 46 04	 lea	 eax, DWORD PTR [esi+4]
  00009	c7 06 00 00 00
	00		 mov	 DWORD PTR [esi], OFFSET ??_7CMclCritSec@@6B@
  0000f	50		 push	 eax
  00010	ff 15 00 00 00
	00		 call	 DWORD PTR __imp__DeleteCriticalSection@4
  00016	f6 45 08 01	 test	 BYTE PTR ___flags$[ebp], 1
  0001a	74 0b		 je	 SHORT $LN8@scalar
  0001c	6a 1c		 push	 28			; 0000001cH
  0001e	56		 push	 esi
  0001f	e8 00 00 00 00	 call	 ??3@YAXPAXI@Z		; operator delete
  00024	83 c4 08	 add	 esp, 8
$LN8@scalar:
  00027	8b c6		 mov	 eax, esi
  00029	5e		 pop	 esi
  0002a	5d		 pop	 ebp
  0002b	c2 04 00	 ret	 4
??_GCMclCritSec@@UAEPAXI@Z ENDP				; CMclCritSec::`scalar deleting destructor'
_TEXT	ENDS
; Function compile flags: /Ogtp
; File C:\IAGOS\server\v18\Source\Source\_Network\Mcl\Include\CMclCritSec.h
;	COMDAT ??1CMclCritSec@@UAE@XZ
_TEXT	SEGMENT
??1CMclCritSec@@UAE@XZ PROC				; CMclCritSec::~CMclCritSec, COMDAT
; _this$ = ecx

; 27   : 		::DeleteCriticalSection( &m_CritSec );

  00000	8d 41 04	 lea	 eax, DWORD PTR [ecx+4]
  00003	c7 01 00 00 00
	00		 mov	 DWORD PTR [ecx], OFFSET ??_7CMclCritSec@@6B@
  00009	50		 push	 eax
  0000a	ff 15 00 00 00
	00		 call	 DWORD PTR __imp__DeleteCriticalSection@4

; 28   : 	}

  00010	c3		 ret	 0
??1CMclCritSec@@UAE@XZ ENDP				; CMclCritSec::~CMclCritSec
_TEXT	ENDS
; Function compile flags: /Ogtp
; File C:\Program Files\Microsoft Visual Studio\2022\Professional\VC\Tools\MSVC\14.44.35207\include\xmemory
;	COMDAT ?_Throw_bad_array_new_length@std@@YAXXZ
_TEXT	SEGMENT
$T1 = -12						; size = 12
?_Throw_bad_array_new_length@std@@YAXXZ PROC		; std::_Throw_bad_array_new_length, COMDAT

; 107  : [[noreturn]] inline void _Throw_bad_array_new_length() {

  00000	55		 push	 ebp
  00001	8b ec		 mov	 ebp, esp
  00003	83 ec 0c	 sub	 esp, 12			; 0000000cH

; 108  :     _THROW(bad_array_new_length{});

  00006	8d 4d f4	 lea	 ecx, DWORD PTR $T1[ebp]
  00009	e8 00 00 00 00	 call	 ??0bad_array_new_length@std@@QAE@XZ ; std::bad_array_new_length::bad_array_new_length
  0000e	68 00 00 00 00	 push	 OFFSET __TI3?AVbad_array_new_length@std@@
  00013	8d 45 f4	 lea	 eax, DWORD PTR $T1[ebp]
  00016	50		 push	 eax
  00017	e8 00 00 00 00	 call	 __CxxThrowException@8
$LN3@Throw_bad_:
  0001c	cc		 int	 3
?_Throw_bad_array_new_length@std@@YAXXZ ENDP		; std::_Throw_bad_array_new_length
_TEXT	ENDS
; Function compile flags: /Ogtp
; File C:\Program Files\Microsoft Visual Studio\2022\Professional\VC\Tools\MSVC\14.44.35207\include\vcruntime_exception.h
;	COMDAT ??_Gbad_array_new_length@std@@UAEPAXI@Z
_TEXT	SEGMENT
___flags$ = 8						; size = 4
??_Gbad_array_new_length@std@@UAEPAXI@Z PROC		; std::bad_array_new_length::`scalar deleting destructor', COMDAT
; _this$ = ecx
  00000	55		 push	 ebp
  00001	8b ec		 mov	 ebp, esp

; 90   :     {

  00003	56		 push	 esi
  00004	8b f1		 mov	 esi, ecx

; 91   :         __std_exception_destroy(&_Data);

  00006	8d 46 04	 lea	 eax, DWORD PTR [esi+4]
  00009	c7 06 00 00 00
	00		 mov	 DWORD PTR [esi], OFFSET ??_7exception@std@@6B@
  0000f	50		 push	 eax
  00010	e8 00 00 00 00	 call	 ___std_exception_destroy
  00015	83 c4 04	 add	 esp, 4
  00018	f6 45 08 01	 test	 BYTE PTR ___flags$[ebp], 1
  0001c	74 0b		 je	 SHORT $LN18@scalar
  0001e	6a 0c		 push	 12			; 0000000cH
  00020	56		 push	 esi
  00021	e8 00 00 00 00	 call	 ??3@YAXPAXI@Z		; operator delete
  00026	83 c4 08	 add	 esp, 8
$LN18@scalar:
  00029	8b c6		 mov	 eax, esi
  0002b	5e		 pop	 esi
  0002c	5d		 pop	 ebp
  0002d	c2 04 00	 ret	 4
??_Gbad_array_new_length@std@@UAEPAXI@Z ENDP		; std::bad_array_new_length::`scalar deleting destructor'
_TEXT	ENDS
; Function compile flags: /Ogtp
; File C:\Program Files\Microsoft Visual Studio\2022\Professional\VC\Tools\MSVC\14.44.35207\include\vcruntime_exception.h
;	COMDAT ??0bad_array_new_length@std@@QAE@ABV01@@Z
_TEXT	SEGMENT
___that$ = 8						; size = 4
??0bad_array_new_length@std@@QAE@ABV01@@Z PROC		; std::bad_array_new_length::bad_array_new_length, COMDAT
; _this$ = ecx
  00000	55		 push	 ebp
  00001	8b ec		 mov	 ebp, esp

; 73   :     {

  00003	56		 push	 esi
  00004	8b f1		 mov	 esi, ecx
  00006	0f 57 c0	 xorps	 xmm0, xmm0

; 72   :         : _Data()

  00009	8d 46 04	 lea	 eax, DWORD PTR [esi+4]

; 74   :         __std_exception_copy(&_Other._Data, &_Data);

  0000c	50		 push	 eax
  0000d	c7 06 00 00 00
	00		 mov	 DWORD PTR [esi], OFFSET ??_7exception@std@@6B@
  00013	66 0f d6 00	 movq	 QWORD PTR [eax], xmm0
  00017	8b 45 08	 mov	 eax, DWORD PTR ___that$[ebp]
  0001a	83 c0 04	 add	 eax, 4
  0001d	50		 push	 eax
  0001e	e8 00 00 00 00	 call	 ___std_exception_copy
  00023	83 c4 08	 add	 esp, 8
  00026	c7 06 00 00 00
	00		 mov	 DWORD PTR [esi], OFFSET ??_7bad_array_new_length@std@@6B@
  0002c	8b c6		 mov	 eax, esi
  0002e	5e		 pop	 esi
  0002f	5d		 pop	 ebp
  00030	c2 04 00	 ret	 4
??0bad_array_new_length@std@@QAE@ABV01@@Z ENDP		; std::bad_array_new_length::bad_array_new_length
_TEXT	ENDS
; Function compile flags: /Ogtp
; File C:\Program Files\Microsoft Visual Studio\2022\Professional\VC\Tools\MSVC\14.44.35207\include\vcruntime_exception.h
;	COMDAT ??1bad_array_new_length@std@@UAE@XZ
_TEXT	SEGMENT
??1bad_array_new_length@std@@UAE@XZ PROC		; std::bad_array_new_length::~bad_array_new_length, COMDAT
; _this$ = ecx

; 91   :         __std_exception_destroy(&_Data);

  00000	8d 41 04	 lea	 eax, DWORD PTR [ecx+4]
  00003	c7 01 00 00 00
	00		 mov	 DWORD PTR [ecx], OFFSET ??_7exception@std@@6B@
  00009	50		 push	 eax
  0000a	e8 00 00 00 00	 call	 ___std_exception_destroy
  0000f	59		 pop	 ecx
  00010	c3		 ret	 0
??1bad_array_new_length@std@@UAE@XZ ENDP		; std::bad_array_new_length::~bad_array_new_length
_TEXT	ENDS
; Function compile flags: /Ogtp
; File C:\Program Files\Microsoft Visual Studio\2022\Professional\VC\Tools\MSVC\14.44.35207\include\vcruntime_exception.h
;	COMDAT ??0bad_array_new_length@std@@QAE@XZ
_TEXT	SEGMENT
??0bad_array_new_length@std@@QAE@XZ PROC		; std::bad_array_new_length::bad_array_new_length, COMDAT
; _this$ = ecx

; 144  :     {

  00000	0f 57 c0	 xorps	 xmm0, xmm0

; 145  :     }

  00003	8b c1		 mov	 eax, ecx

; 66   :         : _Data()

  00005	66 0f d6 41 04	 movq	 QWORD PTR [ecx+4], xmm0

; 67   :     {
; 68   :         _Data._What = _Message;

  0000a	c7 41 04 00 00
	00 00		 mov	 DWORD PTR [ecx+4], OFFSET ??_C@_0BF@KINCDENJ@bad?5array?5new?5length@

; 144  :     {

  00011	c7 01 00 00 00
	00		 mov	 DWORD PTR [ecx], OFFSET ??_7bad_array_new_length@std@@6B@

; 145  :     }

  00017	c3		 ret	 0
??0bad_array_new_length@std@@QAE@XZ ENDP		; std::bad_array_new_length::bad_array_new_length
_TEXT	ENDS
; Function compile flags: /Ogtp
; File C:\Program Files\Microsoft Visual Studio\2022\Professional\VC\Tools\MSVC\14.44.35207\include\vcruntime_exception.h
;	COMDAT ??_Gbad_alloc@std@@UAEPAXI@Z
_TEXT	SEGMENT
___flags$ = 8						; size = 4
??_Gbad_alloc@std@@UAEPAXI@Z PROC			; std::bad_alloc::`scalar deleting destructor', COMDAT
; _this$ = ecx
  00000	55		 push	 ebp
  00001	8b ec		 mov	 ebp, esp

; 90   :     {

  00003	56		 push	 esi
  00004	8b f1		 mov	 esi, ecx

; 91   :         __std_exception_destroy(&_Data);

  00006	8d 46 04	 lea	 eax, DWORD PTR [esi+4]
  00009	c7 06 00 00 00
	00		 mov	 DWORD PTR [esi], OFFSET ??_7exception@std@@6B@
  0000f	50		 push	 eax
  00010	e8 00 00 00 00	 call	 ___std_exception_destroy
  00015	83 c4 04	 add	 esp, 4
  00018	f6 45 08 01	 test	 BYTE PTR ___flags$[ebp], 1
  0001c	74 0b		 je	 SHORT $LN13@scalar
  0001e	6a 0c		 push	 12			; 0000000cH
  00020	56		 push	 esi
  00021	e8 00 00 00 00	 call	 ??3@YAXPAXI@Z		; operator delete
  00026	83 c4 08	 add	 esp, 8
$LN13@scalar:
  00029	8b c6		 mov	 eax, esi
  0002b	5e		 pop	 esi
  0002c	5d		 pop	 ebp
  0002d	c2 04 00	 ret	 4
??_Gbad_alloc@std@@UAEPAXI@Z ENDP			; std::bad_alloc::`scalar deleting destructor'
_TEXT	ENDS
; Function compile flags: /Ogtp
; File C:\Program Files\Microsoft Visual Studio\2022\Professional\VC\Tools\MSVC\14.44.35207\include\vcruntime_exception.h
;	COMDAT ??0bad_alloc@std@@QAE@ABV01@@Z
_TEXT	SEGMENT
___that$ = 8						; size = 4
??0bad_alloc@std@@QAE@ABV01@@Z PROC			; std::bad_alloc::bad_alloc, COMDAT
; _this$ = ecx
  00000	55		 push	 ebp
  00001	8b ec		 mov	 ebp, esp

; 73   :     {

  00003	56		 push	 esi
  00004	8b f1		 mov	 esi, ecx
  00006	0f 57 c0	 xorps	 xmm0, xmm0

; 72   :         : _Data()

  00009	8d 46 04	 lea	 eax, DWORD PTR [esi+4]

; 74   :         __std_exception_copy(&_Other._Data, &_Data);

  0000c	50		 push	 eax
  0000d	c7 06 00 00 00
	00		 mov	 DWORD PTR [esi], OFFSET ??_7exception@std@@6B@
  00013	66 0f d6 00	 movq	 QWORD PTR [eax], xmm0
  00017	8b 45 08	 mov	 eax, DWORD PTR ___that$[ebp]
  0001a	83 c0 04	 add	 eax, 4
  0001d	50		 push	 eax
  0001e	e8 00 00 00 00	 call	 ___std_exception_copy
  00023	83 c4 08	 add	 esp, 8
  00026	c7 06 00 00 00
	00		 mov	 DWORD PTR [esi], OFFSET ??_7bad_alloc@std@@6B@
  0002c	8b c6		 mov	 eax, esi
  0002e	5e		 pop	 esi
  0002f	5d		 pop	 ebp
  00030	c2 04 00	 ret	 4
??0bad_alloc@std@@QAE@ABV01@@Z ENDP			; std::bad_alloc::bad_alloc
_TEXT	ENDS
; Function compile flags: /Ogtp
; File C:\Program Files\Microsoft Visual Studio\2022\Professional\VC\Tools\MSVC\14.44.35207\include\vcruntime_exception.h
;	COMDAT ??_Gexception@std@@UAEPAXI@Z
_TEXT	SEGMENT
___flags$ = 8						; size = 4
??_Gexception@std@@UAEPAXI@Z PROC			; std::exception::`scalar deleting destructor', COMDAT
; _this$ = ecx
  00000	55		 push	 ebp
  00001	8b ec		 mov	 ebp, esp

; 90   :     {

  00003	56		 push	 esi
  00004	8b f1		 mov	 esi, ecx

; 91   :         __std_exception_destroy(&_Data);

  00006	8d 46 04	 lea	 eax, DWORD PTR [esi+4]
  00009	c7 06 00 00 00
	00		 mov	 DWORD PTR [esi], OFFSET ??_7exception@std@@6B@
  0000f	50		 push	 eax
  00010	e8 00 00 00 00	 call	 ___std_exception_destroy
  00015	83 c4 04	 add	 esp, 4
  00018	f6 45 08 01	 test	 BYTE PTR ___flags$[ebp], 1
  0001c	74 0b		 je	 SHORT $LN8@scalar
  0001e	6a 0c		 push	 12			; 0000000cH
  00020	56		 push	 esi
  00021	e8 00 00 00 00	 call	 ??3@YAXPAXI@Z		; operator delete
  00026	83 c4 08	 add	 esp, 8
$LN8@scalar:
  00029	8b c6		 mov	 eax, esi
  0002b	5e		 pop	 esi
  0002c	5d		 pop	 ebp
  0002d	c2 04 00	 ret	 4
??_Gexception@std@@UAEPAXI@Z ENDP			; std::exception::`scalar deleting destructor'
_TEXT	ENDS
; Function compile flags: /Ogtp
; File C:\Program Files\Microsoft Visual Studio\2022\Professional\VC\Tools\MSVC\14.44.35207\include\vcruntime_exception.h
;	COMDAT ?what@exception@std@@UBEPBDXZ
_TEXT	SEGMENT
?what@exception@std@@UBEPBDXZ PROC			; std::exception::what, COMDAT
; _this$ = ecx

; 96   :         return _Data._What ? _Data._What : "Unknown exception";

  00000	8b 49 04	 mov	 ecx, DWORD PTR [ecx+4]
  00003	b8 00 00 00 00	 mov	 eax, OFFSET ??_C@_0BC@EOODALEL@Unknown?5exception@
  00008	85 c9		 test	 ecx, ecx
  0000a	0f 45 c1	 cmovne	 eax, ecx

; 97   :     }

  0000d	c3		 ret	 0
?what@exception@std@@UBEPBDXZ ENDP			; std::exception::what
_TEXT	ENDS
; Function compile flags: /Ogtp
; File C:\Program Files\Microsoft Visual Studio\2022\Professional\VC\Tools\MSVC\14.44.35207\include\vcruntime_exception.h
;	COMDAT ??1exception@std@@UAE@XZ
_TEXT	SEGMENT
??1exception@std@@UAE@XZ PROC				; std::exception::~exception, COMDAT
; _this$ = ecx

; 91   :         __std_exception_destroy(&_Data);

  00000	8d 41 04	 lea	 eax, DWORD PTR [ecx+4]
  00003	c7 01 00 00 00
	00		 mov	 DWORD PTR [ecx], OFFSET ??_7exception@std@@6B@
  00009	50		 push	 eax
  0000a	e8 00 00 00 00	 call	 ___std_exception_destroy
  0000f	59		 pop	 ecx

; 92   :     }

  00010	c3		 ret	 0
??1exception@std@@UAE@XZ ENDP				; std::exception::~exception
_TEXT	ENDS
; Function compile flags: /Ogtp
; File C:\Program Files\Microsoft Visual Studio\2022\Professional\VC\Tools\MSVC\14.44.35207\include\vcruntime_exception.h
;	COMDAT ??0exception@std@@QAE@ABV01@@Z
_TEXT	SEGMENT
__Other$ = 8						; size = 4
??0exception@std@@QAE@ABV01@@Z PROC			; std::exception::exception, COMDAT
; _this$ = ecx

; 73   :     {

  00000	55		 push	 ebp
  00001	8b ec		 mov	 ebp, esp
  00003	56		 push	 esi
  00004	8b f1		 mov	 esi, ecx
  00006	0f 57 c0	 xorps	 xmm0, xmm0
  00009	8d 46 04	 lea	 eax, DWORD PTR [esi+4]

; 74   :         __std_exception_copy(&_Other._Data, &_Data);

  0000c	50		 push	 eax
  0000d	c7 06 00 00 00
	00		 mov	 DWORD PTR [esi], OFFSET ??_7exception@std@@6B@
  00013	66 0f d6 00	 movq	 QWORD PTR [eax], xmm0
  00017	8b 45 08	 mov	 eax, DWORD PTR __Other$[ebp]
  0001a	83 c0 04	 add	 eax, 4
  0001d	50		 push	 eax
  0001e	e8 00 00 00 00	 call	 ___std_exception_copy
  00023	83 c4 08	 add	 esp, 8

; 75   :     }

  00026	8b c6		 mov	 eax, esi
  00028	5e		 pop	 esi
  00029	5d		 pop	 ebp
  0002a	c2 04 00	 ret	 4
??0exception@std@@QAE@ABV01@@Z ENDP			; std::exception::exception
_TEXT	ENDS
; Function compile flags: /Ogtp
; File C:\IAGOS\server\v18\Source\Source\_network\objects\Obj.cpp
;	COMDAT ?__empty_global_delete@@YAXPAXI@Z
_TEXT	SEGMENT
___formal$ = 8						; size = 4
___formal$ = 12						; size = 4
?__empty_global_delete@@YAXPAXI@Z PROC			; __empty_global_delete, COMDAT

  00000	c2 00 00	 ret	 0
?__empty_global_delete@@YAXPAXI@Z ENDP			; __empty_global_delete
_TEXT	ENDS
; Function compile flags: /Ogtp
; File C:\IAGOS\server\v18\Source\Source\_network\objects\Obj.cpp
;	COMDAT ?__empty_global_delete@@YAXPAX@Z
_TEXT	SEGMENT
___formal$ = 8						; size = 4
?__empty_global_delete@@YAXPAX@Z PROC			; __empty_global_delete, COMDAT

  00000	c2 00 00	 ret	 0
?__empty_global_delete@@YAXPAX@Z ENDP			; __empty_global_delete
_TEXT	ENDS
END
