; Listing generated by Microsoft (R) Optimizing Compiler Version 19.44.35225.0 

	TITLE	C:\IAGOS\server\v18\Source\Output\DatabaseServer\Release\ObjSerializeOpt.obj
	.686P
	.XMM
	include listing.inc
	.model	flat

INCLUDELIB LIBCMT
INCLUDELIB OLDNAMES

PUBLIC	?__empty_global_delete@@YAXPAX@Z		; __empty_global_delete
PUBLIC	?__empty_global_delete@@YAXPAXI@Z		; __empty_global_delete
PUBLIC	?Serialize@CObj@@UAEXAAVCAr@@@Z			; CObj::Serialize
PUBLIC	?GetAt@?$CItemContainer@VCItemElem@@@@QAEPAVCItemElem@@K@Z ; CItemContainer<CItemElem>::GetAt
PUBLIC	?GetEquip@?$CItemContainer@VCItemElem@@@@QAEPAVCItemElem@@K@Z ; CItemContainer<CItemElem>::GetEquip
PUBLIC	?Serialize@?$CItemContainer@VCItemElem@@@@QAEXAAVCAr@@@Z ; CItemContainer<CItemElem>::Serialize
PUBLIC	?Serialize@CMover@@UAEXAAVCAr@@@Z		; CMover::Serialize
PUBLIC	??$?6E@CAr@@QAEAAV0@ABE@Z			; CAr::operator<<<unsigned char>
PUBLIC	??$?6K@CAr@@QAEAAV0@ABK@Z			; CAr::operator<<<unsigned long>
PUBLIC	??$?6G@CAr@@QAEAAV0@ABG@Z			; CAr::operator<<<unsigned short>
PUBLIC	??$?6UD3DXVECTOR3@@@CAr@@QAEAAV0@ABUD3DXVECTOR3@@@Z ; CAr::operator<<<D3DXVECTOR3>
PUBLIC	??$?6F@CAr@@QAEAAV0@ABF@Z			; CAr::operator<<<short>
PUBLIC	??$?5E@CAr@@QAEAAV0@AAE@Z			; CAr::operator>><unsigned char>
PUBLIC	??$?5K@CAr@@QAEAAV0@AAK@Z			; CAr::operator>><unsigned long>
PUBLIC	??$?5G@CAr@@QAEAAV0@AAG@Z			; CAr::operator>><unsigned short>
PUBLIC	??$?5UD3DXVECTOR3@@@CAr@@QAEAAV0@AAUD3DXVECTOR3@@@Z ; CAr::operator>><D3DXVECTOR3>
PUBLIC	??$?5F@CAr@@QAEAAV0@AAF@Z			; CAr::operator>><short>
PUBLIC	??$?6J@CAr@@QAEAAV0@ABJ@Z			; CAr::operator<<<long>
PUBLIC	??$?6H@CAr@@QAEAAV0@ABH@Z			; CAr::operator<<<int>
PUBLIC	??$?6D@CAr@@QAEAAV0@ABD@Z			; CAr::operator<<<char>
PUBLIC	??$?6_J@CAr@@QAEAAV0@AB_J@Z			; CAr::operator<<<__int64>
PUBLIC	??$?6M@CAr@@QAEAAV0@ABM@Z			; CAr::operator<<<float>
PUBLIC	??$?5J@CAr@@QAEAAV0@AAJ@Z			; CAr::operator>><long>
PUBLIC	??$?5H@CAr@@QAEAAV0@AAH@Z			; CAr::operator>><int>
PUBLIC	??$?5D@CAr@@QAEAAV0@AAD@Z			; CAr::operator>><char>
PUBLIC	??$?5_J@CAr@@QAEAAV0@AA_J@Z			; CAr::operator>><__int64>
PUBLIC	??$?5M@CAr@@QAEAAV0@AAM@Z			; CAr::operator>><float>
PUBLIC	??_C@_00CNPNBAHC@@				; `string'
PUBLIC	__real@41200000
PUBLIC	__real@42c80000
EXTRN	__imp__GetTickCount@0:PROC
EXTRN	?Read@CAr@@QAEXPAXI@Z:PROC			; CAr::Read
EXTRN	?Write@CAr@@QAEXPBXI@Z:PROC			; CAr::Write
EXTRN	?CheckBuf@CAr@@QAEXI@Z:PROC			; CAr::CheckBuf
EXTRN	?WriteString@CAr@@QAEXPBD@Z:PROC		; CAr::WriteString
EXTRN	?ReadString@CAr@@QAEPADPADH@Z:PROC		; CAr::ReadString
EXTRN	?GetBuffer@CAr@@QAEPAEPAH@Z:PROC		; CAr::GetBuffer
EXTRN	?Serialize@CBuffMgr@@QAEXAAVCAr@@@Z:PROC	; CBuffMgr::Serialize
EXTRN	?GetIndex@CPet@@QAEKXZ:PROC			; CPet::GetIndex
EXTRN	?Serialize@CCtrl@@UAEXAAVCAr@@@Z:PROC		; CCtrl::Serialize
EXTRN	?Serialize@CPocketController@@QAEXAAVCAr@@@Z:PROC ; CPocketController::Serialize
EXTRN	?GetPetItem@CMover@@QAEPAVCItemElem@@XZ:PROC	; CMover::GetPetItem
EXTRN	?InitProp@CMover@@QAEXXZ:PROC			; CMover::InitProp
EXTRN	@__security_check_cookie@4:PROC
EXTRN	_memset:PROC
EXTRN	?m_nMethod@CObj@@2HA:DWORD			; CObj::m_nMethod
EXTRN	___security_cookie:DWORD
EXTRN	__fltused:DWORD
;	COMDAT __real@42c80000
CONST	SEGMENT
__real@42c80000 DD 042c80000r			; 100
CONST	ENDS
;	COMDAT __real@41200000
CONST	SEGMENT
__real@41200000 DD 041200000r			; 10
CONST	ENDS
;	COMDAT ??_C@_00CNPNBAHC@@
CONST	SEGMENT
??_C@_00CNPNBAHC@@ DB 00H				; `string'
CONST	ENDS
; Function compile flags: /Ogtp
; File C:\IAGOS\server\v18\Source\Source\_Network\Misc\Include\Ar.h
;	COMDAT ??$?5M@CAr@@QAEAAV0@AAM@Z
_TEXT	SEGMENT
_t$ = 8							; size = 4
??$?5M@CAr@@QAEAAV0@AAM@Z PROC				; CAr::operator>><float>, COMDAT
; _this$ = ecx

; 302  : {

  00000	55		 push	 ebp
  00001	8b ec		 mov	 ebp, esp
  00003	8b d1		 mov	 edx, ecx

; 303  : 	if (m_lpBufCur + sizeof(T) <= m_lpBufMax)

  00005	8b 4a 08	 mov	 ecx, DWORD PTR [edx+8]
  00008	8d 41 04	 lea	 eax, DWORD PTR [ecx+4]
  0000b	3b 42 0c	 cmp	 eax, DWORD PTR [edx+12]
  0000e	8b 45 08	 mov	 eax, DWORD PTR _t$[ebp]
  00011	77 0e		 ja	 SHORT $LN2@operator

; 304  : 	{
; 305  : 		t = *(UNALIGNED T*)m_lpBufCur;

  00013	8b 09		 mov	 ecx, DWORD PTR [ecx]
  00015	89 08		 mov	 DWORD PTR [eax], ecx

; 312  : 	}
; 313  : 	return *this;
; 314  : }

  00017	8b c2		 mov	 eax, edx
  00019	83 42 08 04	 add	 DWORD PTR [edx+8], 4
  0001d	5d		 pop	 ebp
  0001e	c2 04 00	 ret	 4
$LN2@operator:

; 306  : 		m_lpBufCur += sizeof(T);
; 307  : 	}
; 308  : 	else
; 309  : 	{
; 310  : 		t = T();

  00021	c7 00 00 00 00
	00		 mov	 DWORD PTR [eax], 0

; 311  : 		m_lpBufCur = m_lpBufMax;

  00027	8b 42 0c	 mov	 eax, DWORD PTR [edx+12]
  0002a	89 42 08	 mov	 DWORD PTR [edx+8], eax

; 312  : 	}
; 313  : 	return *this;
; 314  : }

  0002d	8b c2		 mov	 eax, edx
  0002f	5d		 pop	 ebp
  00030	c2 04 00	 ret	 4
??$?5M@CAr@@QAEAAV0@AAM@Z ENDP				; CAr::operator>><float>
_TEXT	ENDS
; Function compile flags: /Ogtp
; File C:\IAGOS\server\v18\Source\Source\_Network\Misc\Include\Ar.h
;	COMDAT ??$?5_J@CAr@@QAEAAV0@AA_J@Z
_TEXT	SEGMENT
_t$ = 8							; size = 4
??$?5_J@CAr@@QAEAAV0@AA_J@Z PROC			; CAr::operator>><__int64>, COMDAT
; _this$ = ecx

; 302  : {

  00000	55		 push	 ebp
  00001	8b ec		 mov	 ebp, esp
  00003	56		 push	 esi
  00004	8b f1		 mov	 esi, ecx

; 303  : 	if (m_lpBufCur + sizeof(T) <= m_lpBufMax)

  00006	8b 56 08	 mov	 edx, DWORD PTR [esi+8]
  00009	8d 42 08	 lea	 eax, DWORD PTR [edx+8]
  0000c	3b 46 0c	 cmp	 eax, DWORD PTR [esi+12]
  0000f	8b 45 08	 mov	 eax, DWORD PTR _t$[ebp]
  00012	77 15		 ja	 SHORT $LN2@operator

; 304  : 	{
; 305  : 		t = *(UNALIGNED T*)m_lpBufCur;

  00014	8b 0a		 mov	 ecx, DWORD PTR [edx]
  00016	8b 52 04	 mov	 edx, DWORD PTR [edx+4]
  00019	89 08		 mov	 DWORD PTR [eax], ecx
  0001b	89 50 04	 mov	 DWORD PTR [eax+4], edx

; 312  : 	}
; 313  : 	return *this;
; 314  : }

  0001e	8b c6		 mov	 eax, esi
  00020	83 46 08 08	 add	 DWORD PTR [esi+8], 8
  00024	5e		 pop	 esi
  00025	5d		 pop	 ebp
  00026	c2 04 00	 ret	 4
$LN2@operator:

; 306  : 		m_lpBufCur += sizeof(T);
; 307  : 	}
; 308  : 	else
; 309  : 	{
; 310  : 		t = T();

  00029	c7 00 00 00 00
	00		 mov	 DWORD PTR [eax], 0
  0002f	c7 40 04 00 00
	00 00		 mov	 DWORD PTR [eax+4], 0

; 311  : 		m_lpBufCur = m_lpBufMax;

  00036	8b 46 0c	 mov	 eax, DWORD PTR [esi+12]
  00039	89 46 08	 mov	 DWORD PTR [esi+8], eax

; 312  : 	}
; 313  : 	return *this;
; 314  : }

  0003c	8b c6		 mov	 eax, esi
  0003e	5e		 pop	 esi
  0003f	5d		 pop	 ebp
  00040	c2 04 00	 ret	 4
??$?5_J@CAr@@QAEAAV0@AA_J@Z ENDP			; CAr::operator>><__int64>
_TEXT	ENDS
; Function compile flags: /Ogtp
; File C:\IAGOS\server\v18\Source\Source\_Network\Misc\Include\Ar.h
;	COMDAT ??$?5D@CAr@@QAEAAV0@AAD@Z
_TEXT	SEGMENT
_t$ = 8							; size = 4
??$?5D@CAr@@QAEAAV0@AAD@Z PROC				; CAr::operator>><char>, COMDAT
; _this$ = ecx

; 302  : {

  00000	55		 push	 ebp
  00001	8b ec		 mov	 ebp, esp
  00003	8b d1		 mov	 edx, ecx

; 303  : 	if (m_lpBufCur + sizeof(T) <= m_lpBufMax)

  00005	8b 4a 08	 mov	 ecx, DWORD PTR [edx+8]
  00008	8d 41 01	 lea	 eax, DWORD PTR [ecx+1]
  0000b	3b 42 0c	 cmp	 eax, DWORD PTR [edx+12]
  0000e	8b 45 08	 mov	 eax, DWORD PTR _t$[ebp]
  00011	77 0d		 ja	 SHORT $LN2@operator

; 304  : 	{
; 305  : 		t = *(UNALIGNED T*)m_lpBufCur;

  00013	8a 09		 mov	 cl, BYTE PTR [ecx]
  00015	88 08		 mov	 BYTE PTR [eax], cl

; 312  : 	}
; 313  : 	return *this;
; 314  : }

  00017	8b c2		 mov	 eax, edx
  00019	ff 42 08	 inc	 DWORD PTR [edx+8]
  0001c	5d		 pop	 ebp
  0001d	c2 04 00	 ret	 4
$LN2@operator:

; 306  : 		m_lpBufCur += sizeof(T);
; 307  : 	}
; 308  : 	else
; 309  : 	{
; 310  : 		t = T();

  00020	c6 00 00	 mov	 BYTE PTR [eax], 0

; 311  : 		m_lpBufCur = m_lpBufMax;

  00023	8b 42 0c	 mov	 eax, DWORD PTR [edx+12]
  00026	89 42 08	 mov	 DWORD PTR [edx+8], eax

; 312  : 	}
; 313  : 	return *this;
; 314  : }

  00029	8b c2		 mov	 eax, edx
  0002b	5d		 pop	 ebp
  0002c	c2 04 00	 ret	 4
??$?5D@CAr@@QAEAAV0@AAD@Z ENDP				; CAr::operator>><char>
_TEXT	ENDS
; Function compile flags: /Ogtp
; File C:\IAGOS\server\v18\Source\Source\_Network\Misc\Include\Ar.h
;	COMDAT ??$?5H@CAr@@QAEAAV0@AAH@Z
_TEXT	SEGMENT
_t$ = 8							; size = 4
??$?5H@CAr@@QAEAAV0@AAH@Z PROC				; CAr::operator>><int>, COMDAT
; _this$ = ecx

; 302  : {

  00000	55		 push	 ebp
  00001	8b ec		 mov	 ebp, esp
  00003	8b d1		 mov	 edx, ecx

; 303  : 	if (m_lpBufCur + sizeof(T) <= m_lpBufMax)

  00005	8b 4a 08	 mov	 ecx, DWORD PTR [edx+8]
  00008	8d 41 04	 lea	 eax, DWORD PTR [ecx+4]
  0000b	3b 42 0c	 cmp	 eax, DWORD PTR [edx+12]
  0000e	8b 45 08	 mov	 eax, DWORD PTR _t$[ebp]
  00011	77 0e		 ja	 SHORT $LN2@operator

; 304  : 	{
; 305  : 		t = *(UNALIGNED T*)m_lpBufCur;

  00013	8b 09		 mov	 ecx, DWORD PTR [ecx]
  00015	89 08		 mov	 DWORD PTR [eax], ecx

; 312  : 	}
; 313  : 	return *this;
; 314  : }

  00017	8b c2		 mov	 eax, edx
  00019	83 42 08 04	 add	 DWORD PTR [edx+8], 4
  0001d	5d		 pop	 ebp
  0001e	c2 04 00	 ret	 4
$LN2@operator:

; 306  : 		m_lpBufCur += sizeof(T);
; 307  : 	}
; 308  : 	else
; 309  : 	{
; 310  : 		t = T();

  00021	c7 00 00 00 00
	00		 mov	 DWORD PTR [eax], 0

; 311  : 		m_lpBufCur = m_lpBufMax;

  00027	8b 42 0c	 mov	 eax, DWORD PTR [edx+12]
  0002a	89 42 08	 mov	 DWORD PTR [edx+8], eax

; 312  : 	}
; 313  : 	return *this;
; 314  : }

  0002d	8b c2		 mov	 eax, edx
  0002f	5d		 pop	 ebp
  00030	c2 04 00	 ret	 4
??$?5H@CAr@@QAEAAV0@AAH@Z ENDP				; CAr::operator>><int>
_TEXT	ENDS
; Function compile flags: /Ogtp
; File C:\IAGOS\server\v18\Source\Source\_Network\Misc\Include\Ar.h
;	COMDAT ??$?5J@CAr@@QAEAAV0@AAJ@Z
_TEXT	SEGMENT
_t$ = 8							; size = 4
??$?5J@CAr@@QAEAAV0@AAJ@Z PROC				; CAr::operator>><long>, COMDAT
; _this$ = ecx

; 302  : {

  00000	55		 push	 ebp
  00001	8b ec		 mov	 ebp, esp
  00003	8b d1		 mov	 edx, ecx

; 303  : 	if (m_lpBufCur + sizeof(T) <= m_lpBufMax)

  00005	8b 4a 08	 mov	 ecx, DWORD PTR [edx+8]
  00008	8d 41 04	 lea	 eax, DWORD PTR [ecx+4]
  0000b	3b 42 0c	 cmp	 eax, DWORD PTR [edx+12]
  0000e	8b 45 08	 mov	 eax, DWORD PTR _t$[ebp]
  00011	77 0e		 ja	 SHORT $LN2@operator

; 304  : 	{
; 305  : 		t = *(UNALIGNED T*)m_lpBufCur;

  00013	8b 09		 mov	 ecx, DWORD PTR [ecx]
  00015	89 08		 mov	 DWORD PTR [eax], ecx

; 312  : 	}
; 313  : 	return *this;
; 314  : }

  00017	8b c2		 mov	 eax, edx
  00019	83 42 08 04	 add	 DWORD PTR [edx+8], 4
  0001d	5d		 pop	 ebp
  0001e	c2 04 00	 ret	 4
$LN2@operator:

; 306  : 		m_lpBufCur += sizeof(T);
; 307  : 	}
; 308  : 	else
; 309  : 	{
; 310  : 		t = T();

  00021	c7 00 00 00 00
	00		 mov	 DWORD PTR [eax], 0

; 311  : 		m_lpBufCur = m_lpBufMax;

  00027	8b 42 0c	 mov	 eax, DWORD PTR [edx+12]
  0002a	89 42 08	 mov	 DWORD PTR [edx+8], eax

; 312  : 	}
; 313  : 	return *this;
; 314  : }

  0002d	8b c2		 mov	 eax, edx
  0002f	5d		 pop	 ebp
  00030	c2 04 00	 ret	 4
??$?5J@CAr@@QAEAAV0@AAJ@Z ENDP				; CAr::operator>><long>
_TEXT	ENDS
; Function compile flags: /Ogtp
; File C:\IAGOS\server\v18\Source\Source\_Network\Misc\Include\Ar.h
;	COMDAT ??$?6M@CAr@@QAEAAV0@ABM@Z
_TEXT	SEGMENT
_t$ = 8							; size = 4
??$?6M@CAr@@QAEAAV0@ABM@Z PROC				; CAr::operator<<<float>, COMDAT
; _this$ = ecx

; 255  : {

  00000	55		 push	 ebp
  00001	8b ec		 mov	 ebp, esp
  00003	56		 push	 esi

; 256  : 	CheckBuf(sizeof(T));

  00004	6a 04		 push	 4
  00006	8b f1		 mov	 esi, ecx
  00008	e8 00 00 00 00	 call	 ?CheckBuf@CAr@@QAEXI@Z	; CAr::CheckBuf

; 257  : 	*(UNALIGNED T*)m_lpBufCur = t;

  0000d	8b 56 08	 mov	 edx, DWORD PTR [esi+8]
  00010	8b 45 08	 mov	 eax, DWORD PTR _t$[ebp]
  00013	8b 00		 mov	 eax, DWORD PTR [eax]
  00015	89 02		 mov	 DWORD PTR [edx], eax

; 258  : 	m_lpBufCur += sizeof(T);
; 259  : 	return *this;

  00017	8b c6		 mov	 eax, esi
  00019	83 46 08 04	 add	 DWORD PTR [esi+8], 4
  0001d	5e		 pop	 esi

; 260  : }

  0001e	5d		 pop	 ebp
  0001f	c2 04 00	 ret	 4
??$?6M@CAr@@QAEAAV0@ABM@Z ENDP				; CAr::operator<<<float>
_TEXT	ENDS
; Function compile flags: /Ogtp
; File C:\IAGOS\server\v18\Source\Source\_Network\Misc\Include\Ar.h
;	COMDAT ??$?6_J@CAr@@QAEAAV0@AB_J@Z
_TEXT	SEGMENT
_t$ = 8							; size = 4
??$?6_J@CAr@@QAEAAV0@AB_J@Z PROC			; CAr::operator<<<__int64>, COMDAT
; _this$ = ecx

; 255  : {

  00000	55		 push	 ebp
  00001	8b ec		 mov	 ebp, esp
  00003	56		 push	 esi
  00004	57		 push	 edi

; 256  : 	CheckBuf(sizeof(T));

  00005	6a 08		 push	 8
  00007	8b f9		 mov	 edi, ecx
  00009	e8 00 00 00 00	 call	 ?CheckBuf@CAr@@QAEXI@Z	; CAr::CheckBuf

; 257  : 	*(UNALIGNED T*)m_lpBufCur = t;

  0000e	8b 45 08	 mov	 eax, DWORD PTR _t$[ebp]
  00011	8b 70 04	 mov	 esi, DWORD PTR [eax+4]
  00014	8b 10		 mov	 edx, DWORD PTR [eax]
  00016	8b 47 08	 mov	 eax, DWORD PTR [edi+8]
  00019	89 10		 mov	 DWORD PTR [eax], edx
  0001b	89 70 04	 mov	 DWORD PTR [eax+4], esi

; 258  : 	m_lpBufCur += sizeof(T);
; 259  : 	return *this;

  0001e	8b c7		 mov	 eax, edi
  00020	83 47 08 08	 add	 DWORD PTR [edi+8], 8
  00024	5f		 pop	 edi
  00025	5e		 pop	 esi

; 260  : }

  00026	5d		 pop	 ebp
  00027	c2 04 00	 ret	 4
??$?6_J@CAr@@QAEAAV0@AB_J@Z ENDP			; CAr::operator<<<__int64>
_TEXT	ENDS
; Function compile flags: /Ogtp
; File C:\IAGOS\server\v18\Source\Source\_Network\Misc\Include\Ar.h
;	COMDAT ??$?6D@CAr@@QAEAAV0@ABD@Z
_TEXT	SEGMENT
_t$ = 8							; size = 4
??$?6D@CAr@@QAEAAV0@ABD@Z PROC				; CAr::operator<<<char>, COMDAT
; _this$ = ecx

; 255  : {

  00000	55		 push	 ebp
  00001	8b ec		 mov	 ebp, esp
  00003	56		 push	 esi

; 256  : 	CheckBuf(sizeof(T));

  00004	6a 01		 push	 1
  00006	8b f1		 mov	 esi, ecx
  00008	e8 00 00 00 00	 call	 ?CheckBuf@CAr@@QAEXI@Z	; CAr::CheckBuf

; 257  : 	*(UNALIGNED T*)m_lpBufCur = t;

  0000d	8b 45 08	 mov	 eax, DWORD PTR _t$[ebp]
  00010	8b 56 08	 mov	 edx, DWORD PTR [esi+8]
  00013	8a 00		 mov	 al, BYTE PTR [eax]
  00015	88 02		 mov	 BYTE PTR [edx], al

; 258  : 	m_lpBufCur += sizeof(T);
; 259  : 	return *this;

  00017	8b c6		 mov	 eax, esi
  00019	ff 46 08	 inc	 DWORD PTR [esi+8]
  0001c	5e		 pop	 esi

; 260  : }

  0001d	5d		 pop	 ebp
  0001e	c2 04 00	 ret	 4
??$?6D@CAr@@QAEAAV0@ABD@Z ENDP				; CAr::operator<<<char>
_TEXT	ENDS
; Function compile flags: /Ogtp
; File C:\IAGOS\server\v18\Source\Source\_Network\Misc\Include\Ar.h
;	COMDAT ??$?6H@CAr@@QAEAAV0@ABH@Z
_TEXT	SEGMENT
_t$ = 8							; size = 4
??$?6H@CAr@@QAEAAV0@ABH@Z PROC				; CAr::operator<<<int>, COMDAT
; _this$ = ecx

; 255  : {

  00000	55		 push	 ebp
  00001	8b ec		 mov	 ebp, esp
  00003	56		 push	 esi

; 256  : 	CheckBuf(sizeof(T));

  00004	6a 04		 push	 4
  00006	8b f1		 mov	 esi, ecx
  00008	e8 00 00 00 00	 call	 ?CheckBuf@CAr@@QAEXI@Z	; CAr::CheckBuf

; 257  : 	*(UNALIGNED T*)m_lpBufCur = t;

  0000d	8b 56 08	 mov	 edx, DWORD PTR [esi+8]
  00010	8b 45 08	 mov	 eax, DWORD PTR _t$[ebp]
  00013	8b 00		 mov	 eax, DWORD PTR [eax]
  00015	89 02		 mov	 DWORD PTR [edx], eax

; 258  : 	m_lpBufCur += sizeof(T);
; 259  : 	return *this;

  00017	8b c6		 mov	 eax, esi
  00019	83 46 08 04	 add	 DWORD PTR [esi+8], 4
  0001d	5e		 pop	 esi

; 260  : }

  0001e	5d		 pop	 ebp
  0001f	c2 04 00	 ret	 4
??$?6H@CAr@@QAEAAV0@ABH@Z ENDP				; CAr::operator<<<int>
_TEXT	ENDS
; Function compile flags: /Ogtp
; File C:\IAGOS\server\v18\Source\Source\_Network\Misc\Include\Ar.h
;	COMDAT ??$?6J@CAr@@QAEAAV0@ABJ@Z
_TEXT	SEGMENT
_t$ = 8							; size = 4
??$?6J@CAr@@QAEAAV0@ABJ@Z PROC				; CAr::operator<<<long>, COMDAT
; _this$ = ecx

; 255  : {

  00000	55		 push	 ebp
  00001	8b ec		 mov	 ebp, esp
  00003	56		 push	 esi

; 256  : 	CheckBuf(sizeof(T));

  00004	6a 04		 push	 4
  00006	8b f1		 mov	 esi, ecx
  00008	e8 00 00 00 00	 call	 ?CheckBuf@CAr@@QAEXI@Z	; CAr::CheckBuf

; 257  : 	*(UNALIGNED T*)m_lpBufCur = t;

  0000d	8b 56 08	 mov	 edx, DWORD PTR [esi+8]
  00010	8b 45 08	 mov	 eax, DWORD PTR _t$[ebp]
  00013	8b 00		 mov	 eax, DWORD PTR [eax]
  00015	89 02		 mov	 DWORD PTR [edx], eax

; 258  : 	m_lpBufCur += sizeof(T);
; 259  : 	return *this;

  00017	8b c6		 mov	 eax, esi
  00019	83 46 08 04	 add	 DWORD PTR [esi+8], 4
  0001d	5e		 pop	 esi

; 260  : }

  0001e	5d		 pop	 ebp
  0001f	c2 04 00	 ret	 4
??$?6J@CAr@@QAEAAV0@ABJ@Z ENDP				; CAr::operator<<<long>
_TEXT	ENDS
; Function compile flags: /Ogtp
; File C:\IAGOS\server\v18\Source\Source\_Network\Misc\Include\Ar.h
;	COMDAT ??$?5F@CAr@@QAEAAV0@AAF@Z
_TEXT	SEGMENT
_t$ = 8							; size = 4
??$?5F@CAr@@QAEAAV0@AAF@Z PROC				; CAr::operator>><short>, COMDAT
; _this$ = ecx

; 302  : {

  00000	55		 push	 ebp
  00001	8b ec		 mov	 ebp, esp
  00003	8b d1		 mov	 edx, ecx

; 303  : 	if (m_lpBufCur + sizeof(T) <= m_lpBufMax)

  00005	8b 4a 08	 mov	 ecx, DWORD PTR [edx+8]
  00008	8d 41 02	 lea	 eax, DWORD PTR [ecx+2]
  0000b	3b 42 0c	 cmp	 eax, DWORD PTR [edx+12]
  0000e	8b 45 08	 mov	 eax, DWORD PTR _t$[ebp]
  00011	77 10		 ja	 SHORT $LN2@operator

; 304  : 	{
; 305  : 		t = *(UNALIGNED T*)m_lpBufCur;

  00013	66 8b 09	 mov	 cx, WORD PTR [ecx]
  00016	66 89 08	 mov	 WORD PTR [eax], cx

; 312  : 	}
; 313  : 	return *this;
; 314  : }

  00019	8b c2		 mov	 eax, edx
  0001b	83 42 08 02	 add	 DWORD PTR [edx+8], 2
  0001f	5d		 pop	 ebp
  00020	c2 04 00	 ret	 4
$LN2@operator:

; 306  : 		m_lpBufCur += sizeof(T);
; 307  : 	}
; 308  : 	else
; 309  : 	{
; 310  : 		t = T();

  00023	33 c9		 xor	 ecx, ecx
  00025	66 89 08	 mov	 WORD PTR [eax], cx

; 311  : 		m_lpBufCur = m_lpBufMax;

  00028	8b 42 0c	 mov	 eax, DWORD PTR [edx+12]
  0002b	89 42 08	 mov	 DWORD PTR [edx+8], eax

; 312  : 	}
; 313  : 	return *this;
; 314  : }

  0002e	8b c2		 mov	 eax, edx
  00030	5d		 pop	 ebp
  00031	c2 04 00	 ret	 4
??$?5F@CAr@@QAEAAV0@AAF@Z ENDP				; CAr::operator>><short>
_TEXT	ENDS
; Function compile flags: /Ogtp
; File C:\IAGOS\server\v18\Source\Source\_Network\Misc\Include\Ar.h
;	COMDAT ??$?5UD3DXVECTOR3@@@CAr@@QAEAAV0@AAUD3DXVECTOR3@@@Z
_TEXT	SEGMENT
$T1 = -12						; size = 12
_t$ = 8							; size = 4
??$?5UD3DXVECTOR3@@@CAr@@QAEAAV0@AAUD3DXVECTOR3@@@Z PROC ; CAr::operator>><D3DXVECTOR3>, COMDAT
; _this$ = ecx

; 302  : {

  00000	55		 push	 ebp
  00001	8b ec		 mov	 ebp, esp
  00003	83 ec 0c	 sub	 esp, 12			; 0000000cH
  00006	8b d1		 mov	 edx, ecx

; 303  : 	if (m_lpBufCur + sizeof(T) <= m_lpBufMax)

  00008	8b 4d 08	 mov	 ecx, DWORD PTR _t$[ebp]
  0000b	56		 push	 esi
  0000c	8b 72 08	 mov	 esi, DWORD PTR [edx+8]
  0000f	8d 46 0c	 lea	 eax, DWORD PTR [esi+12]
  00012	3b 42 0c	 cmp	 eax, DWORD PTR [edx+12]
  00015	77 1b		 ja	 SHORT $LN2@operator

; 304  : 	{
; 305  : 		t = *(UNALIGNED T*)m_lpBufCur;

  00017	f3 0f 7e 06	 movq	 xmm0, QWORD PTR [esi]
  0001b	66 0f d6 01	 movq	 QWORD PTR [ecx], xmm0
  0001f	8b 46 08	 mov	 eax, DWORD PTR [esi+8]
  00022	89 41 08	 mov	 DWORD PTR [ecx+8], eax

; 312  : 	}
; 313  : 	return *this;
; 314  : }

  00025	8b c2		 mov	 eax, edx
  00027	83 42 08 0c	 add	 DWORD PTR [edx+8], 12	; 0000000cH
  0002b	5e		 pop	 esi
  0002c	8b e5		 mov	 esp, ebp
  0002e	5d		 pop	 ebp
  0002f	c2 04 00	 ret	 4
$LN2@operator:

; 306  : 		m_lpBufCur += sizeof(T);
; 307  : 	}
; 308  : 	else
; 309  : 	{
; 310  : 		t = T();

  00032	f3 0f 7e 45 f4	 movq	 xmm0, QWORD PTR $T1[ebp]
  00037	8b 45 fc	 mov	 eax, DWORD PTR $T1[ebp+8]
  0003a	66 0f d6 01	 movq	 QWORD PTR [ecx], xmm0
  0003e	89 41 08	 mov	 DWORD PTR [ecx+8], eax

; 311  : 		m_lpBufCur = m_lpBufMax;

  00041	8b 42 0c	 mov	 eax, DWORD PTR [edx+12]
  00044	89 42 08	 mov	 DWORD PTR [edx+8], eax

; 312  : 	}
; 313  : 	return *this;
; 314  : }

  00047	8b c2		 mov	 eax, edx
  00049	5e		 pop	 esi
  0004a	8b e5		 mov	 esp, ebp
  0004c	5d		 pop	 ebp
  0004d	c2 04 00	 ret	 4
??$?5UD3DXVECTOR3@@@CAr@@QAEAAV0@AAUD3DXVECTOR3@@@Z ENDP ; CAr::operator>><D3DXVECTOR3>
_TEXT	ENDS
; Function compile flags: /Ogtp
; File C:\IAGOS\server\v18\Source\Source\_Network\Misc\Include\Ar.h
;	COMDAT ??$?5G@CAr@@QAEAAV0@AAG@Z
_TEXT	SEGMENT
_t$ = 8							; size = 4
??$?5G@CAr@@QAEAAV0@AAG@Z PROC				; CAr::operator>><unsigned short>, COMDAT
; _this$ = ecx

; 302  : {

  00000	55		 push	 ebp
  00001	8b ec		 mov	 ebp, esp
  00003	8b d1		 mov	 edx, ecx

; 303  : 	if (m_lpBufCur + sizeof(T) <= m_lpBufMax)

  00005	8b 4a 08	 mov	 ecx, DWORD PTR [edx+8]
  00008	8d 41 02	 lea	 eax, DWORD PTR [ecx+2]
  0000b	3b 42 0c	 cmp	 eax, DWORD PTR [edx+12]
  0000e	8b 45 08	 mov	 eax, DWORD PTR _t$[ebp]
  00011	77 10		 ja	 SHORT $LN2@operator

; 304  : 	{
; 305  : 		t = *(UNALIGNED T*)m_lpBufCur;

  00013	66 8b 09	 mov	 cx, WORD PTR [ecx]
  00016	66 89 08	 mov	 WORD PTR [eax], cx

; 312  : 	}
; 313  : 	return *this;
; 314  : }

  00019	8b c2		 mov	 eax, edx
  0001b	83 42 08 02	 add	 DWORD PTR [edx+8], 2
  0001f	5d		 pop	 ebp
  00020	c2 04 00	 ret	 4
$LN2@operator:

; 306  : 		m_lpBufCur += sizeof(T);
; 307  : 	}
; 308  : 	else
; 309  : 	{
; 310  : 		t = T();

  00023	33 c9		 xor	 ecx, ecx
  00025	66 89 08	 mov	 WORD PTR [eax], cx

; 311  : 		m_lpBufCur = m_lpBufMax;

  00028	8b 42 0c	 mov	 eax, DWORD PTR [edx+12]
  0002b	89 42 08	 mov	 DWORD PTR [edx+8], eax

; 312  : 	}
; 313  : 	return *this;
; 314  : }

  0002e	8b c2		 mov	 eax, edx
  00030	5d		 pop	 ebp
  00031	c2 04 00	 ret	 4
??$?5G@CAr@@QAEAAV0@AAG@Z ENDP				; CAr::operator>><unsigned short>
_TEXT	ENDS
; Function compile flags: /Ogtp
; File C:\IAGOS\server\v18\Source\Source\_Network\Misc\Include\Ar.h
;	COMDAT ??$?5K@CAr@@QAEAAV0@AAK@Z
_TEXT	SEGMENT
_t$ = 8							; size = 4
??$?5K@CAr@@QAEAAV0@AAK@Z PROC				; CAr::operator>><unsigned long>, COMDAT
; _this$ = ecx

; 302  : {

  00000	55		 push	 ebp
  00001	8b ec		 mov	 ebp, esp
  00003	8b d1		 mov	 edx, ecx

; 303  : 	if (m_lpBufCur + sizeof(T) <= m_lpBufMax)

  00005	8b 4a 08	 mov	 ecx, DWORD PTR [edx+8]
  00008	8d 41 04	 lea	 eax, DWORD PTR [ecx+4]
  0000b	3b 42 0c	 cmp	 eax, DWORD PTR [edx+12]
  0000e	8b 45 08	 mov	 eax, DWORD PTR _t$[ebp]
  00011	77 0e		 ja	 SHORT $LN2@operator

; 304  : 	{
; 305  : 		t = *(UNALIGNED T*)m_lpBufCur;

  00013	8b 09		 mov	 ecx, DWORD PTR [ecx]
  00015	89 08		 mov	 DWORD PTR [eax], ecx

; 312  : 	}
; 313  : 	return *this;
; 314  : }

  00017	8b c2		 mov	 eax, edx
  00019	83 42 08 04	 add	 DWORD PTR [edx+8], 4
  0001d	5d		 pop	 ebp
  0001e	c2 04 00	 ret	 4
$LN2@operator:

; 306  : 		m_lpBufCur += sizeof(T);
; 307  : 	}
; 308  : 	else
; 309  : 	{
; 310  : 		t = T();

  00021	c7 00 00 00 00
	00		 mov	 DWORD PTR [eax], 0

; 311  : 		m_lpBufCur = m_lpBufMax;

  00027	8b 42 0c	 mov	 eax, DWORD PTR [edx+12]
  0002a	89 42 08	 mov	 DWORD PTR [edx+8], eax

; 312  : 	}
; 313  : 	return *this;
; 314  : }

  0002d	8b c2		 mov	 eax, edx
  0002f	5d		 pop	 ebp
  00030	c2 04 00	 ret	 4
??$?5K@CAr@@QAEAAV0@AAK@Z ENDP				; CAr::operator>><unsigned long>
_TEXT	ENDS
; Function compile flags: /Ogtp
; File C:\IAGOS\server\v18\Source\Source\_Network\Misc\Include\Ar.h
;	COMDAT ??$?5E@CAr@@QAEAAV0@AAE@Z
_TEXT	SEGMENT
_t$ = 8							; size = 4
??$?5E@CAr@@QAEAAV0@AAE@Z PROC				; CAr::operator>><unsigned char>, COMDAT
; _this$ = ecx

; 302  : {

  00000	55		 push	 ebp
  00001	8b ec		 mov	 ebp, esp
  00003	8b d1		 mov	 edx, ecx

; 303  : 	if (m_lpBufCur + sizeof(T) <= m_lpBufMax)

  00005	8b 4a 08	 mov	 ecx, DWORD PTR [edx+8]
  00008	8d 41 01	 lea	 eax, DWORD PTR [ecx+1]
  0000b	3b 42 0c	 cmp	 eax, DWORD PTR [edx+12]
  0000e	8b 45 08	 mov	 eax, DWORD PTR _t$[ebp]
  00011	77 0d		 ja	 SHORT $LN2@operator

; 304  : 	{
; 305  : 		t = *(UNALIGNED T*)m_lpBufCur;

  00013	8a 09		 mov	 cl, BYTE PTR [ecx]
  00015	88 08		 mov	 BYTE PTR [eax], cl

; 312  : 	}
; 313  : 	return *this;
; 314  : }

  00017	8b c2		 mov	 eax, edx
  00019	ff 42 08	 inc	 DWORD PTR [edx+8]
  0001c	5d		 pop	 ebp
  0001d	c2 04 00	 ret	 4
$LN2@operator:

; 306  : 		m_lpBufCur += sizeof(T);
; 307  : 	}
; 308  : 	else
; 309  : 	{
; 310  : 		t = T();

  00020	c6 00 00	 mov	 BYTE PTR [eax], 0

; 311  : 		m_lpBufCur = m_lpBufMax;

  00023	8b 42 0c	 mov	 eax, DWORD PTR [edx+12]
  00026	89 42 08	 mov	 DWORD PTR [edx+8], eax

; 312  : 	}
; 313  : 	return *this;
; 314  : }

  00029	8b c2		 mov	 eax, edx
  0002b	5d		 pop	 ebp
  0002c	c2 04 00	 ret	 4
??$?5E@CAr@@QAEAAV0@AAE@Z ENDP				; CAr::operator>><unsigned char>
_TEXT	ENDS
; Function compile flags: /Ogtp
; File C:\IAGOS\server\v18\Source\Source\_Network\Misc\Include\Ar.h
;	COMDAT ??$?6F@CAr@@QAEAAV0@ABF@Z
_TEXT	SEGMENT
_t$ = 8							; size = 4
??$?6F@CAr@@QAEAAV0@ABF@Z PROC				; CAr::operator<<<short>, COMDAT
; _this$ = ecx

; 255  : {

  00000	55		 push	 ebp
  00001	8b ec		 mov	 ebp, esp
  00003	56		 push	 esi

; 256  : 	CheckBuf(sizeof(T));

  00004	6a 02		 push	 2
  00006	8b f1		 mov	 esi, ecx
  00008	e8 00 00 00 00	 call	 ?CheckBuf@CAr@@QAEXI@Z	; CAr::CheckBuf

; 257  : 	*(UNALIGNED T*)m_lpBufCur = t;

  0000d	8b 45 08	 mov	 eax, DWORD PTR _t$[ebp]
  00010	8b 56 08	 mov	 edx, DWORD PTR [esi+8]
  00013	66 8b 00	 mov	 ax, WORD PTR [eax]
  00016	66 89 02	 mov	 WORD PTR [edx], ax

; 258  : 	m_lpBufCur += sizeof(T);
; 259  : 	return *this;

  00019	8b c6		 mov	 eax, esi
  0001b	83 46 08 02	 add	 DWORD PTR [esi+8], 2
  0001f	5e		 pop	 esi

; 260  : }

  00020	5d		 pop	 ebp
  00021	c2 04 00	 ret	 4
??$?6F@CAr@@QAEAAV0@ABF@Z ENDP				; CAr::operator<<<short>
_TEXT	ENDS
; Function compile flags: /Ogtp
; File C:\IAGOS\server\v18\Source\Source\_Network\Misc\Include\Ar.h
;	COMDAT ??$?6UD3DXVECTOR3@@@CAr@@QAEAAV0@ABUD3DXVECTOR3@@@Z
_TEXT	SEGMENT
_t$ = 8							; size = 4
??$?6UD3DXVECTOR3@@@CAr@@QAEAAV0@ABUD3DXVECTOR3@@@Z PROC ; CAr::operator<<<D3DXVECTOR3>, COMDAT
; _this$ = ecx

; 255  : {

  00000	55		 push	 ebp
  00001	8b ec		 mov	 ebp, esp
  00003	56		 push	 esi

; 256  : 	CheckBuf(sizeof(T));

  00004	6a 0c		 push	 12			; 0000000cH
  00006	8b f1		 mov	 esi, ecx
  00008	e8 00 00 00 00	 call	 ?CheckBuf@CAr@@QAEXI@Z	; CAr::CheckBuf

; 257  : 	*(UNALIGNED T*)m_lpBufCur = t;

  0000d	8b 56 08	 mov	 edx, DWORD PTR [esi+8]
  00010	8b 45 08	 mov	 eax, DWORD PTR _t$[ebp]
  00013	f3 0f 7e 00	 movq	 xmm0, QWORD PTR [eax]
  00017	66 0f d6 02	 movq	 QWORD PTR [edx], xmm0
  0001b	8b 40 08	 mov	 eax, DWORD PTR [eax+8]
  0001e	89 42 08	 mov	 DWORD PTR [edx+8], eax

; 258  : 	m_lpBufCur += sizeof(T);
; 259  : 	return *this;

  00021	8b c6		 mov	 eax, esi
  00023	83 46 08 0c	 add	 DWORD PTR [esi+8], 12	; 0000000cH
  00027	5e		 pop	 esi

; 260  : }

  00028	5d		 pop	 ebp
  00029	c2 04 00	 ret	 4
??$?6UD3DXVECTOR3@@@CAr@@QAEAAV0@ABUD3DXVECTOR3@@@Z ENDP ; CAr::operator<<<D3DXVECTOR3>
_TEXT	ENDS
; Function compile flags: /Ogtp
; File C:\IAGOS\server\v18\Source\Source\_Network\Misc\Include\Ar.h
;	COMDAT ??$?6G@CAr@@QAEAAV0@ABG@Z
_TEXT	SEGMENT
_t$ = 8							; size = 4
??$?6G@CAr@@QAEAAV0@ABG@Z PROC				; CAr::operator<<<unsigned short>, COMDAT
; _this$ = ecx

; 255  : {

  00000	55		 push	 ebp
  00001	8b ec		 mov	 ebp, esp
  00003	56		 push	 esi

; 256  : 	CheckBuf(sizeof(T));

  00004	6a 02		 push	 2
  00006	8b f1		 mov	 esi, ecx
  00008	e8 00 00 00 00	 call	 ?CheckBuf@CAr@@QAEXI@Z	; CAr::CheckBuf

; 257  : 	*(UNALIGNED T*)m_lpBufCur = t;

  0000d	8b 45 08	 mov	 eax, DWORD PTR _t$[ebp]
  00010	8b 56 08	 mov	 edx, DWORD PTR [esi+8]
  00013	66 8b 00	 mov	 ax, WORD PTR [eax]
  00016	66 89 02	 mov	 WORD PTR [edx], ax

; 258  : 	m_lpBufCur += sizeof(T);
; 259  : 	return *this;

  00019	8b c6		 mov	 eax, esi
  0001b	83 46 08 02	 add	 DWORD PTR [esi+8], 2
  0001f	5e		 pop	 esi

; 260  : }

  00020	5d		 pop	 ebp
  00021	c2 04 00	 ret	 4
??$?6G@CAr@@QAEAAV0@ABG@Z ENDP				; CAr::operator<<<unsigned short>
_TEXT	ENDS
; Function compile flags: /Ogtp
; File C:\IAGOS\server\v18\Source\Source\_Network\Misc\Include\Ar.h
;	COMDAT ??$?6K@CAr@@QAEAAV0@ABK@Z
_TEXT	SEGMENT
_t$ = 8							; size = 4
??$?6K@CAr@@QAEAAV0@ABK@Z PROC				; CAr::operator<<<unsigned long>, COMDAT
; _this$ = ecx

; 255  : {

  00000	55		 push	 ebp
  00001	8b ec		 mov	 ebp, esp
  00003	56		 push	 esi

; 256  : 	CheckBuf(sizeof(T));

  00004	6a 04		 push	 4
  00006	8b f1		 mov	 esi, ecx
  00008	e8 00 00 00 00	 call	 ?CheckBuf@CAr@@QAEXI@Z	; CAr::CheckBuf

; 257  : 	*(UNALIGNED T*)m_lpBufCur = t;

  0000d	8b 56 08	 mov	 edx, DWORD PTR [esi+8]
  00010	8b 45 08	 mov	 eax, DWORD PTR _t$[ebp]
  00013	8b 00		 mov	 eax, DWORD PTR [eax]
  00015	89 02		 mov	 DWORD PTR [edx], eax

; 258  : 	m_lpBufCur += sizeof(T);
; 259  : 	return *this;

  00017	8b c6		 mov	 eax, esi
  00019	83 46 08 04	 add	 DWORD PTR [esi+8], 4
  0001d	5e		 pop	 esi

; 260  : }

  0001e	5d		 pop	 ebp
  0001f	c2 04 00	 ret	 4
??$?6K@CAr@@QAEAAV0@ABK@Z ENDP				; CAr::operator<<<unsigned long>
_TEXT	ENDS
; Function compile flags: /Ogtp
; File C:\IAGOS\server\v18\Source\Source\_Network\Misc\Include\Ar.h
;	COMDAT ??$?6E@CAr@@QAEAAV0@ABE@Z
_TEXT	SEGMENT
_t$ = 8							; size = 4
??$?6E@CAr@@QAEAAV0@ABE@Z PROC				; CAr::operator<<<unsigned char>, COMDAT
; _this$ = ecx

; 255  : {

  00000	55		 push	 ebp
  00001	8b ec		 mov	 ebp, esp
  00003	56		 push	 esi

; 256  : 	CheckBuf(sizeof(T));

  00004	6a 01		 push	 1
  00006	8b f1		 mov	 esi, ecx
  00008	e8 00 00 00 00	 call	 ?CheckBuf@CAr@@QAEXI@Z	; CAr::CheckBuf

; 257  : 	*(UNALIGNED T*)m_lpBufCur = t;

  0000d	8b 45 08	 mov	 eax, DWORD PTR _t$[ebp]
  00010	8b 56 08	 mov	 edx, DWORD PTR [esi+8]
  00013	8a 00		 mov	 al, BYTE PTR [eax]
  00015	88 02		 mov	 BYTE PTR [edx], al

; 258  : 	m_lpBufCur += sizeof(T);
; 259  : 	return *this;

  00017	8b c6		 mov	 eax, esi
  00019	ff 46 08	 inc	 DWORD PTR [esi+8]
  0001c	5e		 pop	 esi

; 260  : }

  0001d	5d		 pop	 ebp
  0001e	c2 04 00	 ret	 4
??$?6E@CAr@@QAEAAV0@ABE@Z ENDP				; CAr::operator<<<unsigned char>
_TEXT	ENDS
; Function compile flags: /Ogtp
; File C:\IAGOS\server\v18\Source\Source\_common\ObjSerializeOpt.cpp
; File C:\IAGOS\server\v18\Source\Source\_Network\Misc\Include\Ar.h
; File C:\IAGOS\server\v18\Source\Source\_common\ObjSerializeOpt.cpp
; File C:\IAGOS\server\v18\Source\Source\_Network\Misc\Include\Ar.h
; File C:\IAGOS\server\v18\Source\Source\_common\ObjSerializeOpt.cpp
; File C:\IAGOS\server\v18\Source\Source\_Network\Misc\Include\Ar.h
; File C:\IAGOS\server\v18\Source\Source\_common\ObjSerializeOpt.cpp
; File C:\IAGOS\server\v18\Source\Source\_Common\pet.h
; File C:\IAGOS\server\v18\Source\Source\_common\ObjSerializeOpt.cpp
; File C:\IAGOS\server\v18\Source\Source\_Network\Misc\Include\Ar.h
; File C:\IAGOS\server\v18\Source\Source\_common\ObjSerializeOpt.cpp
; File C:\IAGOS\server\v18\Source\Source\_Network\Misc\Include\Ar.h
; File C:\IAGOS\server\v18\Source\Source\_common\ObjSerializeOpt.cpp
; File C:\IAGOS\server\v18\Source\Source\_Network\Objects\Obj.h
; File C:\IAGOS\server\v18\Source\Source\_common\ObjSerializeOpt.cpp
; File C:\IAGOS\server\v18\Source\Source\_Network\Objects\Obj.h
; File C:\IAGOS\server\v18\Source\Source\_common\ObjSerializeOpt.cpp
; File C:\IAGOS\server\v18\Source\Source\_Network\Objects\Obj.h
; File C:\IAGOS\server\v18\Source\Source\_common\ObjSerializeOpt.cpp
; File C:\IAGOS\server\v18\Source\Source\_Network\Objects\Obj.h
; File C:\IAGOS\server\v18\Source\Source\_common\ObjSerializeOpt.cpp
; File C:\IAGOS\server\v18\Source\Source\_Network\Objects\Obj.h
; File C:\IAGOS\server\v18\Source\Source\_common\ObjSerializeOpt.cpp
; File C:\IAGOS\server\v18\Source\Source\_Network\Objects\Obj.h
; File C:\IAGOS\server\v18\Source\Source\_common\ObjSerializeOpt.cpp
; File C:\IAGOS\server\v18\Source\Source\_Network\Objects\Obj.h
; File C:\IAGOS\server\v18\Source\Source\_common\ObjSerializeOpt.cpp
; File C:\IAGOS\server\v18\Source\Source\_Network\Objects\Obj.h
; File C:\IAGOS\server\v18\Source\Source\_common\ObjSerializeOpt.cpp
; File C:\IAGOS\server\v18\Source\Source\_Network\Objects\Obj.h
; File C:\IAGOS\server\v18\Source\Source\_common\ObjSerializeOpt.cpp
; File C:\IAGOS\server\v18\Source\Source\_Network\Objects\Obj.h
; File C:\IAGOS\server\v18\Source\Source\_common\ObjSerializeOpt.cpp
; File C:\IAGOS\server\v18\Source\Source\_Network\Objects\Obj.h
; File C:\IAGOS\server\v18\Source\Source\_common\ObjSerializeOpt.cpp
; File C:\IAGOS\server\v18\Source\Source\_Network\Objects\Obj.h
; File C:\IAGOS\server\v18\Source\Source\_common\ObjSerializeOpt.cpp
;	COMDAT ?Serialize@CMover@@UAEXAAVCAr@@@Z
_TEXT	SEGMENT
_aJobSkill$1 = -624					; size = 408
_nBlockSize$2 = -216					; size = 4
_nBlockSize$3 = -216					; size = 4
$T4 = -212						; size = 2
_dw1$5 = -212						; size = 4
tv2582 = -212						; size = 4
$T6 = -208						; size = 4
_u2$7 = -208						; size = 2
_n2$8 = -208						; size = 2
$T9 = -205						; size = 1
$T10 = -205						; size = 1
_uParts$11 = -201					; size = 1
_pItemElem$1$ = -200					; size = 4
_uOffset$1$ = -200					; size = 4
tv2525 = -200						; size = 4
_dwPetId$12 = -200					; size = 4
_dwPetId$13 = -200					; size = 4
_dw2$14 = -200						; size = 4
_this$GSCopy$1$ = -196					; size = 4
_uSize$1$ = -189					; size = 1
_u1$15 = -189						; size = 1
_nTemp$16 = -188					; size = 4
_dwPetId$17 = -188					; size = 4
_n1$18 = -188						; size = 2
$T19 = -188						; size = 4
$T20 = -188						; size = 4
tv2633 = -188						; size = 4
$T21 = -188						; size = 2
$T22 = -188						; size = 4
$T23 = -188						; size = 2
$T24 = -188						; size = 2
$T25 = -188						; size = 2
$T26 = -188						; size = 2
$T27 = -188						; size = 2
$T28 = -188						; size = 2
$T29 = -188						; size = 2
$T30 = -188						; size = 2
_dwGold$ = -188						; size = 4
_nMotion$31 = -188					; size = 2
$T32 = -188						; size = 2
$T33 = -185						; size = 1
$T34 = -185						; size = 1
$T35 = -185						; size = 1
$T36 = -185						; size = 1
$T37 = -185						; size = 1
$T38 = -185						; size = 1
$T39 = -185						; size = 1
$T40 = -185						; size = 1
$T41 = -185						; size = 1
$T42 = -185						; size = 1
$T43 = -185						; size = 1
_bySex$44 = -185					; size = 1
$T45 = -185						; size = 1
$T46 = -185						; size = 1
_uParts$47 = -185					; size = 1
$T48 = -185						; size = 1
_uSize$49 = -185					; size = 1
_uSize$50 = -185					; size = 1
$T51 = -185						; size = 1
_uSize$52 = -185					; size = 1
$T53 = -185						; size = 1
$T54 = -185						; size = 1
_uSize$55 = -185					; size = 1
$T56 = -185						; size = 1
$T57 = -185						; size = 1
$T58 = -185						; size = 1
_dwJobLv$59 = -184					; size = 160
_dwJobLv$60 = -184					; size = 160
_szPetName$61 = -24					; size = 17
__$ArrayPad$ = -4					; size = 4
_ar$ = 8						; size = 4
?Serialize@CMover@@UAEXAAVCAr@@@Z PROC			; CMover::Serialize, COMDAT
; _this$ = ecx

; 98   : {

  00000	55		 push	 ebp
  00001	8b ec		 mov	 ebp, esp
  00003	81 ec 70 02 00
	00		 sub	 esp, 624		; 00000270H
  00009	a1 00 00 00 00	 mov	 eax, DWORD PTR ___security_cookie
  0000e	33 c5		 xor	 eax, ebp
  00010	89 45 fc	 mov	 DWORD PTR __$ArrayPad$[ebp], eax
  00013	53		 push	 ebx
  00014	8b 5d 08	 mov	 ebx, DWORD PTR _ar$[ebp]
  00017	56		 push	 esi
  00018	57		 push	 edi
  00019	8b f9		 mov	 edi, ecx

; 99   : 	CCtrl::Serialize( ar );	//	25

  0001b	53		 push	 ebx
  0001c	89 bd 3c ff ff
	ff		 mov	 DWORD PTR _this$GSCopy$1$[ebp], edi
  00022	e8 00 00 00 00	 call	 ?Serialize@CCtrl@@UAEXAAVCAr@@@Z ; CCtrl::Serialize
; File C:\IAGOS\server\v18\Source\Source\_Network\Misc\Include\Ar.h

; 146  : 	return (m_nMode & CAr::load) == 0;

  00027	f6 03 01	 test	 BYTE PTR [ebx], 1
; File C:\IAGOS\server\v18\Source\Source\_common\ObjSerializeOpt.cpp

; 102  : 	if( ar.IsStoring() )	// STORING

  0002a	8b cb		 mov	 ecx, ebx
  0002c	0f 85 41 09 00
	00		 jne	 $LN65@Serialize

; 103  : 	{
; 104  : 		ar << (u_short)m_dwMotion;

  00032	0f b7 47 18	 movzx	 eax, WORD PTR [edi+24]
  00036	89 85 44 ff ff
	ff		 mov	 DWORD PTR $T24[ebp], eax
  0003c	8d 85 44 ff ff
	ff		 lea	 eax, DWORD PTR $T24[ebp]
  00042	50		 push	 eax
  00043	e8 00 00 00 00	 call	 ??$?6G@CAr@@QAEAAV0@ABG@Z ; CAr::operator<<<unsigned short>

; 105  : 		ar << (u_char)m_bPlayer;

  00048	0f b6 87 8c 00
	00 00		 movzx	 eax, BYTE PTR [edi+140]
  0004f	8b cb		 mov	 ecx, ebx
  00051	88 85 47 ff ff
	ff		 mov	 BYTE PTR $T34[ebp], al
  00057	8d 85 47 ff ff
	ff		 lea	 eax, DWORD PTR $T34[ebp]
  0005d	50		 push	 eax
  0005e	e8 00 00 00 00	 call	 ??$?6E@CAr@@QAEAAV0@ABE@Z ; CAr::operator<<<unsigned char>

; 106  : 		ar << m_nHitPoint;

  00063	8d 87 94 00 00
	00		 lea	 eax, DWORD PTR [edi+148]
  00069	8b cb		 mov	 ecx, ebx
  0006b	50		 push	 eax
  0006c	e8 00 00 00 00	 call	 ??$?6J@CAr@@QAEAAV0@ABJ@Z ; CAr::operator<<<long>

; 107  : 		ar << m_pActMover->GetState();

  00071	8b 87 b0 3b 00
	00		 mov	 eax, DWORD PTR [edi+15280]
  00077	8b cb		 mov	 ecx, ebx
  00079	8b 40 04	 mov	 eax, DWORD PTR [eax+4]
  0007c	89 85 44 ff ff
	ff		 mov	 DWORD PTR $T19[ebp], eax
  00082	8d 85 44 ff ff
	ff		 lea	 eax, DWORD PTR $T19[ebp]
  00088	50		 push	 eax
  00089	e8 00 00 00 00	 call	 ??$?6K@CAr@@QAEAAV0@ABK@Z ; CAr::operator<<<unsigned long>

; 108  : 		ar << m_pActMover->GetStateFlag();

  0008e	8b 87 b0 3b 00
	00		 mov	 eax, DWORD PTR [edi+15280]
  00094	8b cb		 mov	 ecx, ebx
  00096	8b 40 08	 mov	 eax, DWORD PTR [eax+8]
  00099	89 85 44 ff ff
	ff		 mov	 DWORD PTR $T20[ebp], eax
  0009f	8d 85 44 ff ff
	ff		 lea	 eax, DWORD PTR $T20[ebp]
  000a5	50		 push	 eax
  000a6	e8 00 00 00 00	 call	 ??$?6K@CAr@@QAEAAV0@ABK@Z ; CAr::operator<<<unsigned long>

; 109  : 		ar << (u_char)m_dwBelligerence;

  000ab	0f b6 47 5c	 movzx	 eax, BYTE PTR [edi+92]
  000af	8b cb		 mov	 ecx, ebx
  000b1	88 85 47 ff ff
	ff		 mov	 BYTE PTR $T35[ebp], al
  000b7	8d 85 47 ff ff
	ff		 lea	 eax, DWORD PTR $T35[ebp]
  000bd	50		 push	 eax
  000be	e8 00 00 00 00	 call	 ??$?6E@CAr@@QAEAAV0@ABE@Z ; CAr::operator<<<unsigned char>

; 110  : #if __VER >= 15 // __PETVIS
; 111  : 		ar << m_dwMoverSfxId;

  000c3	8d 87 7c 3c 00
	00		 lea	 eax, DWORD PTR [edi+15484]
  000c9	8b cb		 mov	 ecx, ebx
  000cb	50		 push	 eax
  000cc	e8 00 00 00 00	 call	 ??$?6K@CAr@@QAEAAV0@ABK@Z ; CAr::operator<<<unsigned long>

; 112  : #endif // __PETVIS
; 113  : 		if( m_bPlayer )	// PLAYER

  000d1	83 bf 8c 00 00
	00 00		 cmp	 DWORD PTR [edi+140], 0
  000d8	8b cb		 mov	 ecx, ebx
  000da	0f 84 b3 07 00
	00		 je	 $LN67@Serialize

; 114  : 		{
; 115  : 			ar.WriteString( m_szName );

  000e0	8d 47 6c	 lea	 eax, DWORD PTR [edi+108]
  000e3	50		 push	 eax
  000e4	e8 00 00 00 00	 call	 ?WriteString@CAr@@QAEXPBD@Z ; CAr::WriteString

; 116  : 			ar << GetSex();

  000e9	0f b6 87 b8 00
	00 00		 movzx	 eax, BYTE PTR [edi+184]
  000f0	8b cb		 mov	 ecx, ebx
  000f2	88 85 47 ff ff
	ff		 mov	 BYTE PTR $T53[ebp], al
  000f8	8d 85 47 ff ff
	ff		 lea	 eax, DWORD PTR $T53[ebp]
  000fe	50		 push	 eax
  000ff	e8 00 00 00 00	 call	 ??$?6E@CAr@@QAEAAV0@ABE@Z ; CAr::operator<<<unsigned char>

; 117  : 			ar << (u_char)m_dwSkinSet;

  00104	0f b6 87 a0 00
	00 00		 movzx	 eax, BYTE PTR [edi+160]
  0010b	8b cb		 mov	 ecx, ebx
  0010d	88 85 47 ff ff
	ff		 mov	 BYTE PTR $T36[ebp], al
  00113	8d 85 47 ff ff
	ff		 lea	 eax, DWORD PTR $T36[ebp]
  00119	50		 push	 eax
  0011a	e8 00 00 00 00	 call	 ??$?6E@CAr@@QAEAAV0@ABE@Z ; CAr::operator<<<unsigned char>

; 118  : 			ar << (u_char)m_dwHairMesh;

  0011f	0f b6 87 a4 00
	00 00		 movzx	 eax, BYTE PTR [edi+164]
  00126	8b cb		 mov	 ecx, ebx
  00128	88 85 47 ff ff
	ff		 mov	 BYTE PTR $T33[ebp], al
  0012e	8d 85 47 ff ff
	ff		 lea	 eax, DWORD PTR $T33[ebp]
  00134	50		 push	 eax
  00135	e8 00 00 00 00	 call	 ??$?6E@CAr@@QAEAAV0@ABE@Z ; CAr::operator<<<unsigned char>

; 119  : 			ar << m_dwHairColor;

  0013a	8d 87 a8 00 00
	00		 lea	 eax, DWORD PTR [edi+168]
  00140	8b cb		 mov	 ecx, ebx
  00142	50		 push	 eax
  00143	e8 00 00 00 00	 call	 ??$?6K@CAr@@QAEAAV0@ABK@Z ; CAr::operator<<<unsigned long>

; 120  : 			ar << (u_char)m_dwHeadMesh;

  00148	0f b6 87 ac 00
	00 00		 movzx	 eax, BYTE PTR [edi+172]
  0014f	8b cb		 mov	 ecx, ebx
  00151	88 85 47 ff ff
	ff		 mov	 BYTE PTR $T37[ebp], al
  00157	8d 85 47 ff ff
	ff		 lea	 eax, DWORD PTR $T37[ebp]
  0015d	50		 push	 eax
  0015e	e8 00 00 00 00	 call	 ??$?6E@CAr@@QAEAAV0@ABE@Z ; CAr::operator<<<unsigned char>

; 121  : 			ar << m_idPlayer;

  00163	8d 87 90 00 00
	00		 lea	 eax, DWORD PTR [edi+144]
  00169	8b cb		 mov	 ecx, ebx
  0016b	50		 push	 eax
  0016c	e8 00 00 00 00	 call	 ??$?6K@CAr@@QAEAAV0@ABK@Z ; CAr::operator<<<unsigned long>

; 122  : 			ar << (u_char)m_nJob;

  00171	0f b6 87 c4 00
	00 00		 movzx	 eax, BYTE PTR [edi+196]
  00178	8b cb		 mov	 ecx, ebx
  0017a	88 85 47 ff ff
	ff		 mov	 BYTE PTR $T38[ebp], al
  00180	8d 85 47 ff ff
	ff		 lea	 eax, DWORD PTR $T38[ebp]
  00186	50		 push	 eax
  00187	e8 00 00 00 00	 call	 ??$?6E@CAr@@QAEAAV0@ABE@Z ; CAr::operator<<<unsigned char>

; 123  : 			ar << (u_short)m_nStr;

  0018c	0f b7 87 d4 00
	00 00		 movzx	 eax, WORD PTR [edi+212]
  00193	8b cb		 mov	 ecx, ebx
  00195	89 85 44 ff ff
	ff		 mov	 DWORD PTR $T27[ebp], eax
  0019b	8d 85 44 ff ff
	ff		 lea	 eax, DWORD PTR $T27[ebp]
  001a1	50		 push	 eax
  001a2	e8 00 00 00 00	 call	 ??$?6G@CAr@@QAEAAV0@ABG@Z ; CAr::operator<<<unsigned short>

; 124  : 			ar << (u_short)m_nSta;

  001a7	0f b7 87 d8 00
	00 00		 movzx	 eax, WORD PTR [edi+216]
  001ae	8b cb		 mov	 ecx, ebx
  001b0	89 85 44 ff ff
	ff		 mov	 DWORD PTR $T23[ebp], eax
  001b6	8d 85 44 ff ff
	ff		 lea	 eax, DWORD PTR $T23[ebp]
  001bc	50		 push	 eax
  001bd	e8 00 00 00 00	 call	 ??$?6G@CAr@@QAEAAV0@ABG@Z ; CAr::operator<<<unsigned short>

; 125  : 			ar << (u_short)m_nDex;

  001c2	0f b7 87 dc 00
	00 00		 movzx	 eax, WORD PTR [edi+220]
  001c9	8b cb		 mov	 ecx, ebx
  001cb	89 85 44 ff ff
	ff		 mov	 DWORD PTR $T26[ebp], eax
  001d1	8d 85 44 ff ff
	ff		 lea	 eax, DWORD PTR $T26[ebp]
  001d7	50		 push	 eax
  001d8	e8 00 00 00 00	 call	 ??$?6G@CAr@@QAEAAV0@ABG@Z ; CAr::operator<<<unsigned short>

; 126  : 			ar << (u_short)m_nInt;

  001dd	0f b7 87 e0 00
	00 00		 movzx	 eax, WORD PTR [edi+224]
  001e4	8b cb		 mov	 ecx, ebx
  001e6	89 85 44 ff ff
	ff		 mov	 DWORD PTR $T25[ebp], eax
  001ec	8d 85 44 ff ff
	ff		 lea	 eax, DWORD PTR $T25[ebp]
  001f2	50		 push	 eax
  001f3	e8 00 00 00 00	 call	 ??$?6G@CAr@@QAEAAV0@ABG@Z ; CAr::operator<<<unsigned short>

; 127  : 			ar << (u_short)m_nLevel;

  001f8	0f b7 87 e4 00
	00 00		 movzx	 eax, WORD PTR [edi+228]
  001ff	8b cb		 mov	 ecx, ebx
  00201	89 85 44 ff ff
	ff		 mov	 DWORD PTR $T21[ebp], eax
  00207	8d 85 44 ff ff
	ff		 lea	 eax, DWORD PTR $T21[ebp]
  0020d	50		 push	 eax
  0020e	e8 00 00 00 00	 call	 ??$?6G@CAr@@QAEAAV0@ABG@Z ; CAr::operator<<<unsigned short>

; 128  : 			ar << m_nFuel;

  00213	8d 87 c0 00 00
	00		 lea	 eax, DWORD PTR [edi+192]
  00219	8b cb		 mov	 ecx, ebx
  0021b	50		 push	 eax
  0021c	e8 00 00 00 00	 call	 ??$?6H@CAr@@QAEAAV0@ABH@Z ; CAr::operator<<<int>

; 129  : 			ar << m_tmAccFuel;

  00221	8d 87 3c 3c 00
	00		 lea	 eax, DWORD PTR [edi+15420]
  00227	8b cb		 mov	 ecx, ebx
  00229	50		 push	 eax
  0022a	e8 00 00 00 00	 call	 ??$?6K@CAr@@QAEAAV0@ABK@Z ; CAr::operator<<<unsigned long>

; 130  : 			if( m_idGuild > 0 )

  0022f	8d b7 70 3b 00
	00		 lea	 esi, DWORD PTR [edi+15216]
  00235	8d 85 47 ff ff
	ff		 lea	 eax, DWORD PTR $T39[ebp]
  0023b	83 3e 00	 cmp	 DWORD PTR [esi], 0
  0023e	8b cb		 mov	 ecx, ebx
  00240	50		 push	 eax
  00241	76 24		 jbe	 SHORT $LN69@Serialize

; 131  : 			{
; 132  : 				ar << (u_char)1;

  00243	c6 85 47 ff ff
	ff 01		 mov	 BYTE PTR $T39[ebp], 1
  0024a	e8 00 00 00 00	 call	 ??$?6E@CAr@@QAEAAV0@ABE@Z ; CAr::operator<<<unsigned char>

; 133  : 				ar << m_idGuild;

  0024f	56		 push	 esi
  00250	8b cb		 mov	 ecx, ebx
  00252	e8 00 00 00 00	 call	 ??$?6K@CAr@@QAEAAV0@ABK@Z ; CAr::operator<<<unsigned long>

; 134  : 				ar << m_idWar;

  00257	8d 87 74 3b 00
	00		 lea	 eax, DWORD PTR [edi+15220]
  0025d	8b cb		 mov	 ecx, ebx
  0025f	50		 push	 eax
  00260	e8 00 00 00 00	 call	 ??$?6K@CAr@@QAEAAV0@ABK@Z ; CAr::operator<<<unsigned long>

; 135  : 			}

  00265	eb 0c		 jmp	 SHORT $LN70@Serialize
$LN69@Serialize:

; 136  : 			else
; 137  : 			{
; 138  : 				ar << (u_char)0;

  00267	c6 85 47 ff ff
	ff 00		 mov	 BYTE PTR $T40[ebp], 0
  0026e	e8 00 00 00 00	 call	 ??$?6E@CAr@@QAEAAV0@ABE@Z ; CAr::operator<<<unsigned char>
$LN70@Serialize:

; 139  : 			}
; 140  : 			ar << m_idGuildCloak;

  00273	8d 87 d0 00 00
	00		 lea	 eax, DWORD PTR [edi+208]
  00279	8b cb		 mov	 ecx, ebx
  0027b	50		 push	 eax
  0027c	e8 00 00 00 00	 call	 ??$?6H@CAr@@QAEAAV0@ABH@Z ; CAr::operator<<<int>

; 141  : 
; 142  : 			if( m_idparty > 0 )

  00281	83 bf 6c 3b 00
	00 00		 cmp	 DWORD PTR [edi+15212], 0
  00288	8d b7 6c 3b 00
	00		 lea	 esi, DWORD PTR [edi+15212]
  0028e	8d 85 47 ff ff
	ff		 lea	 eax, DWORD PTR $T41[ebp]
  00294	8b cb		 mov	 ecx, ebx
  00296	50		 push	 eax
  00297	76 24		 jbe	 SHORT $LN71@Serialize

; 143  : 			{
; 144  : 				ar << (u_char)1;

  00299	c6 85 47 ff ff
	ff 01		 mov	 BYTE PTR $T41[ebp], 1
  002a0	e8 00 00 00 00	 call	 ??$?6E@CAr@@QAEAAV0@ABE@Z ; CAr::operator<<<unsigned char>

; 145  : 				ar << m_idparty;

  002a5	56		 push	 esi
  002a6	8b cb		 mov	 ecx, ebx
  002a8	e8 00 00 00 00	 call	 ??$?6K@CAr@@QAEAAV0@ABK@Z ; CAr::operator<<<unsigned long>

; 146  : 				ar << m_idDuelParty;

  002ad	8d 87 a0 3b 00
	00		 lea	 eax, DWORD PTR [edi+15264]
  002b3	8b cb		 mov	 ecx, ebx
  002b5	50		 push	 eax
  002b6	e8 00 00 00 00	 call	 ??$?6K@CAr@@QAEAAV0@ABK@Z ; CAr::operator<<<unsigned long>

; 147  : 			}

  002bb	eb 0c		 jmp	 SHORT $LN72@Serialize
$LN71@Serialize:

; 148  : 			else
; 149  : 			{
; 150  : 				ar << (u_char)0;

  002bd	c6 85 47 ff ff
	ff 00		 mov	 BYTE PTR $T42[ebp], 0
  002c4	e8 00 00 00 00	 call	 ??$?6E@CAr@@QAEAAV0@ABE@Z ; CAr::operator<<<unsigned char>
$LN72@Serialize:

; 151  : 			}
; 152  : 
; 153  : 			ar << (char)m_dwAuthorization;

  002c9	0f b6 87 e0 02
	00 00		 movzx	 eax, BYTE PTR [edi+736]
  002d0	8b cb		 mov	 ecx, ebx
  002d2	88 85 47 ff ff
	ff		 mov	 BYTE PTR $T43[ebp], al
  002d8	8d 85 47 ff ff
	ff		 lea	 eax, DWORD PTR $T43[ebp]
  002de	50		 push	 eax
  002df	e8 00 00 00 00	 call	 ??$?6D@CAr@@QAEAAV0@ABD@Z ; CAr::operator<<<char>

; 154  : 			ar << m_dwMode;

  002e4	8d 87 e4 02 00
	00		 lea	 eax, DWORD PTR [edi+740]
  002ea	8b cb		 mov	 ecx, ebx
  002ec	50		 push	 eax
  002ed	e8 00 00 00 00	 call	 ??$?6K@CAr@@QAEAAV0@ABK@Z ; CAr::operator<<<unsigned long>

; 155  : 			ar << m_dwStateMode;

  002f2	8d 87 e4 40 00
	00		 lea	 eax, DWORD PTR [edi+16612]
  002f8	8b cb		 mov	 ecx, ebx
  002fa	50		 push	 eax
  002fb	e8 00 00 00 00	 call	 ??$?6K@CAr@@QAEAAV0@ABK@Z ; CAr::operator<<<unsigned long>

; 156  :  #ifdef __WORLDSERVER
; 157  : 			CItemElem* pItemElem = m_Inventory.GetAtId( m_dwUseItemId );
; 158  : 			if( pItemElem )
; 159  : 				ar << pItemElem->GetProp()->dwID;
; 160  : 			else
; 161  : 				ar << (OBJID)0;
; 162  :  #else // __WORLDSERVER
; 163  : 			ar << m_dwUseItemId;

  00300	8d 87 e8 40 00
	00		 lea	 eax, DWORD PTR [edi+16616]
  00306	8b cb		 mov	 ecx, ebx
  00308	50		 push	 eax
  00309	e8 00 00 00 00	 call	 ??$?6K@CAr@@QAEAAV0@ABK@Z ; CAr::operator<<<unsigned long>

; 164  :  #endif // __WORLDSERVER
; 165  : #if __VER >= 8 // __S8_PK
; 166  : 			if( m_dwPKTime > 0 )

  0030e	8d 87 78 3b 00
	00		 lea	 eax, DWORD PTR [edi+15224]

; 167  : 	#ifdef __WORLDSERVER
; 168  : 				ar << ( m_dwPKTime - GetTickCount() );
; 169  : 	#else // __WORLDSERVER
; 170  : 				ar << m_dwPKTime;
; 171  : 	#endif // __WORLDSERVER
; 172  : 			else
; 173  : 				ar << m_dwPKTime;
; 174  : 			ar << m_nPKValue;

  00314	8b cb		 mov	 ecx, ebx
  00316	50		 push	 eax
  00317	e8 00 00 00 00	 call	 ??$?6K@CAr@@QAEAAV0@ABK@Z ; CAr::operator<<<unsigned long>
  0031c	8d 87 7c 3b 00
	00		 lea	 eax, DWORD PTR [edi+15228]
  00322	8b cb		 mov	 ecx, ebx
  00324	50		 push	 eax
  00325	e8 00 00 00 00	 call	 ??$?6H@CAr@@QAEAAV0@ABH@Z ; CAr::operator<<<int>

; 175  : 			ar << m_dwPKPropensity;

  0032a	8d 87 80 3b 00
	00		 lea	 eax, DWORD PTR [edi+15232]
  00330	8b cb		 mov	 ecx, ebx
  00332	50		 push	 eax
  00333	e8 00 00 00 00	 call	 ??$?6K@CAr@@QAEAAV0@ABK@Z ; CAr::operator<<<unsigned long>

; 176  : 			ar << m_dwPKExp;

  00338	8d 87 84 3b 00
	00		 lea	 eax, DWORD PTR [edi+15236]
  0033e	8b cb		 mov	 ecx, ebx
  00340	50		 push	 eax
  00341	e8 00 00 00 00	 call	 ??$?6K@CAr@@QAEAAV0@ABK@Z ; CAr::operator<<<unsigned long>

; 177  : #else // __VER >= 8 // __S8_PK
; 178  : 			ar << (u_short)m_nNumKill;
; 179  : 			ar << m_nSlaughter;
; 180  : #endif // __VER >= 8 // __S8_PK
; 181  : 			ar << m_nFame;

  00346	8d 87 94 3b 00
	00		 lea	 eax, DWORD PTR [edi+15252]
  0034c	8b cb		 mov	 ecx, ebx
  0034e	50		 push	 eax
  0034f	e8 00 00 00 00	 call	 ??$?6H@CAr@@QAEAAV0@ABH@Z ; CAr::operator<<<int>

; 182  : 			ar << (u_char)m_nDuel;

  00354	0f b6 87 9c 3b
	00 00		 movzx	 eax, BYTE PTR [edi+15260]
  0035b	8b cb		 mov	 ecx, ebx
  0035d	88 85 47 ff ff
	ff		 mov	 BYTE PTR $T51[ebp], al
  00363	8d 85 47 ff ff
	ff		 lea	 eax, DWORD PTR $T51[ebp]
  00369	50		 push	 eax
  0036a	e8 00 00 00 00	 call	 ??$?6E@CAr@@QAEAAV0@ABE@Z ; CAr::operator<<<unsigned char>

; 183  : #if __VER >= 13 // __HONORABLE_TITLE			// ´ŢŔÎ
; 184  : 			ar << m_nHonor;					// ´ŢŔÎĽ±ĹĂ 

  0036f	8d 87 94 3c 00
	00		 lea	 eax, DWORD PTR [edi+15508]
  00375	8b cb		 mov	 ecx, ebx
  00377	50		 push	 eax
  00378	e8 00 00 00 00	 call	 ??$?6H@CAr@@QAEAAV0@ABH@Z ; CAr::operator<<<int>
  0037d	8d b7 74 3f 00
	00		 lea	 esi, DWORD PTR [edi+16244]
  00383	bf 1f 00 00 00	 mov	 edi, 31			; 0000001fH
$LL4@Serialize:

; 185  : #endif	// __HONORABLE_TITLE			// ´ŢŔÎ
; 186  : 			{
; 187  : 				int i;
; 188  : 				for( i = 0; i < MAX_HUMAN_PARTS; i ++ )
; 189  : 				{
; 190  : 					ar << m_aEquipInfo[i].nOption;

  00388	56		 push	 esi
  00389	8b cb		 mov	 ecx, ebx
  0038b	e8 00 00 00 00	 call	 ??$?6H@CAr@@QAEAAV0@ABH@Z ; CAr::operator<<<int>
  00390	83 c6 0c	 add	 esi, 12			; 0000000cH
  00393	83 ef 01	 sub	 edi, 1
  00396	75 f0		 jne	 SHORT $LL4@Serialize

; 191  : 				}
; 192  : 			}
; 193  : 			ar << m_nGuildCombatState;

  00398	8b bd 3c ff ff
	ff		 mov	 edi, DWORD PTR _this$GSCopy$1$[ebp]
  0039e	8b cb		 mov	 ecx, ebx
  003a0	8d 87 a4 3b 00
	00		 lea	 eax, DWORD PTR [edi+15268]
  003a6	50		 push	 eax
  003a7	e8 00 00 00 00	 call	 ??$?6H@CAr@@QAEAAV0@ABH@Z ; CAr::operator<<<int>
  003ac	33 f6		 xor	 esi, esi
  003ae	66 90		 npad	 2
$LL7@Serialize:

; 194  : 			
; 195  : 			for( int j = 0 ; j < SM_MAX ; ++j )
; 196  : 				ar << m_dwSMTime[j];

  003b0	8d 87 f4 3e 00
	00		 lea	 eax, DWORD PTR [edi+16116]
  003b6	8b cb		 mov	 ecx, ebx
  003b8	50		 push	 eax
  003b9	e8 00 00 00 00	 call	 ??$?6K@CAr@@QAEAAV0@ABK@Z ; CAr::operator<<<unsigned long>
  003be	83 c6 04	 add	 esi, 4
  003c1	8d 7f 04	 lea	 edi, DWORD PTR [edi+4]
  003c4	83 fe 68	 cmp	 esi, 104		; 00000068H
  003c7	7c e7		 jl	 SHORT $LL7@Serialize

; 197  : 
; 198  : 			if( CObj::GetMethod() == METHOD_NONE )

  003c9	a1 00 00 00 00	 mov	 eax, DWORD PTR ?m_nMethod@CObj@@2HA ; CObj::m_nMethod
  003ce	8b bd 3c ff ff
	ff		 mov	 edi, DWORD PTR _this$GSCopy$1$[ebp]
  003d4	85 c0		 test	 eax, eax
  003d6	0f 85 67 03 00
	00		 jne	 $LN75@Serialize

; 199  : 			{
; 200  : 				ar << (u_short)m_nManaPoint;

  003dc	0f b7 87 98 00
	00 00		 movzx	 eax, WORD PTR [edi+152]
  003e3	8b cb		 mov	 ecx, ebx
  003e5	89 85 44 ff ff
	ff		 mov	 DWORD PTR $T32[ebp], eax
  003eb	8d 85 44 ff ff
	ff		 lea	 eax, DWORD PTR $T32[ebp]
  003f1	50		 push	 eax
  003f2	e8 00 00 00 00	 call	 ??$?6G@CAr@@QAEAAV0@ABG@Z ; CAr::operator<<<unsigned short>

; 201  : 				ar << (u_short)m_nFatiguePoint;

  003f7	0f b7 87 9c 00
	00 00		 movzx	 eax, WORD PTR [edi+156]
  003fe	8b cb		 mov	 ecx, ebx
  00400	89 85 44 ff ff
	ff		 mov	 DWORD PTR $T30[ebp], eax
  00406	8d 85 44 ff ff
	ff		 lea	 eax, DWORD PTR $T30[ebp]
  0040c	50		 push	 eax
  0040d	e8 00 00 00 00	 call	 ??$?6G@CAr@@QAEAAV0@ABG@Z ; CAr::operator<<<unsigned short>

; 202  : #if __VER >= 12 // __MOD_TUTORIAL
; 203  : 				ar << m_nTutorialState;

  00412	8d 87 b0 00 00
	00		 lea	 eax, DWORD PTR [edi+176]
  00418	8b cb		 mov	 ecx, ebx
  0041a	50		 push	 eax
  0041b	e8 00 00 00 00	 call	 ??$?6H@CAr@@QAEAAV0@ABH@Z ; CAr::operator<<<int>

; 204  : #else	// __MOD_TUTORIAL
; 205  : 				ar << (u_short)m_nFlightLv;
; 206  : #endif	// __MOD_TUTORIAL
; 207  : 				ar << m_nFxp;

  00420	8d 87 b4 00 00
	00		 lea	 eax, DWORD PTR [edi+180]
  00426	8b cb		 mov	 ecx, ebx
  00428	50		 push	 eax
  00429	e8 00 00 00 00	 call	 ??$?6J@CAr@@QAEAAV0@ABJ@Z ; CAr::operator<<<long>

; 208  : 				
; 209  : 				dwGold = GetGold();

  0042e	8b 47 34	 mov	 eax, DWORD PTR [edi+52]

; 210  : 				ar << dwGold;

  00431	8b cb		 mov	 ecx, ebx
  00433	89 85 44 ff ff
	ff		 mov	 DWORD PTR _dwGold$[ebp], eax
  00439	8d 85 44 ff ff
	ff		 lea	 eax, DWORD PTR _dwGold$[ebp]
  0043f	50		 push	 eax
  00440	e8 00 00 00 00	 call	 ??$?6K@CAr@@QAEAAV0@ABK@Z ; CAr::operator<<<unsigned long>

; 211  : 				ar << m_nExp1;

  00445	8d 87 f0 00 00
	00		 lea	 eax, DWORD PTR [edi+240]
  0044b	8b cb		 mov	 ecx, ebx
  0044d	50		 push	 eax
  0044e	e8 00 00 00 00	 call	 ??$?6_J@CAr@@QAEAAV0@AB_J@Z ; CAr::operator<<<__int64>

; 212  : 				ar << m_nSkillLevel;

  00453	8d 87 a8 3b 00
	00		 lea	 eax, DWORD PTR [edi+15272]
  00459	8b cb		 mov	 ecx, ebx
  0045b	50		 push	 eax
  0045c	e8 00 00 00 00	 call	 ??$?6H@CAr@@QAEAAV0@ABH@Z ; CAr::operator<<<int>

; 213  : 				ar << m_nSkillPoint;

  00461	8d 87 ac 3b 00
	00		 lea	 eax, DWORD PTR [edi+15276]
  00467	8b cb		 mov	 ecx, ebx
  00469	50		 push	 eax
  0046a	e8 00 00 00 00	 call	 ??$?6H@CAr@@QAEAAV0@ABH@Z ; CAr::operator<<<int>

; 214  : 				ar << m_nDeathExp;

  0046f	8d 87 f8 00 00
	00		 lea	 eax, DWORD PTR [edi+248]
  00475	8b cb		 mov	 ecx, ebx
  00477	50		 push	 eax
  00478	e8 00 00 00 00	 call	 ??$?6_J@CAr@@QAEAAV0@AB_J@Z ; CAr::operator<<<__int64>

; 215  : 				ar << m_nDeathLevel;

  0047d	8d 87 e8 00 00
	00		 lea	 eax, DWORD PTR [edi+232]
  00483	8b cb		 mov	 ecx, ebx
  00485	50		 push	 eax
  00486	e8 00 00 00 00	 call	 ??$?6J@CAr@@QAEAAV0@ABJ@Z ; CAr::operator<<<long>

; 216  : 				DWORD dwJobLv[MAX_JOB] = {0, };

  0048b	68 a0 00 00 00	 push	 160			; 000000a0H
  00490	8d 85 48 ff ff
	ff		 lea	 eax, DWORD PTR _dwJobLv$60[ebp]
  00496	6a 00		 push	 0
  00498	50		 push	 eax
  00499	e8 00 00 00 00	 call	 _memset
  0049e	83 c4 0c	 add	 esp, 12			; 0000000cH

; 217  : 				ar.Write( (void*)dwJobLv, sizeof(DWORD) * MAX_JOB );

  004a1	8d 85 48 ff ff
	ff		 lea	 eax, DWORD PTR _dwJobLv$60[ebp]
  004a7	8b cb		 mov	 ecx, ebx
  004a9	68 a0 00 00 00	 push	 160			; 000000a0H
  004ae	50		 push	 eax
  004af	e8 00 00 00 00	 call	 ?Write@CAr@@QAEXPBXI@Z	; CAr::Write

; 218  : 				ar << m_idMarkingWorld;

  004b4	8d 87 cc 02 00
	00		 lea	 eax, DWORD PTR [edi+716]
  004ba	8b cb		 mov	 ecx, ebx
  004bc	50		 push	 eax
  004bd	e8 00 00 00 00	 call	 ??$?6K@CAr@@QAEAAV0@ABK@Z ; CAr::operator<<<unsigned long>

; 219  : 				ar << m_vMarkingPos;

  004c2	8d 87 d0 02 00
	00		 lea	 eax, DWORD PTR [edi+720]
  004c8	8b cb		 mov	 ecx, ebx
  004ca	50		 push	 eax
  004cb	e8 00 00 00 00	 call	 ??$?6UD3DXVECTOR3@@@CAr@@QAEAAV0@ABUD3DXVECTOR3@@@Z ; CAr::operator<<<D3DXVECTOR3>

; 220  : 				ar << m_nQuestSize;

  004d0	8d b7 f4 40 00
	00		 lea	 esi, DWORD PTR [edi+16628]
  004d6	8b cb		 mov	 ecx, ebx
  004d8	56		 push	 esi
  004d9	e8 00 00 00 00	 call	 ??$?6E@CAr@@QAEAAV0@ABE@Z ; CAr::operator<<<unsigned char>

; 221  : 				ar.Write( m_aQuest, sizeof(QUEST) * m_nQuestSize );

  004de	0f b6 06	 movzx	 eax, BYTE PTR [esi]
  004e1	8b cb		 mov	 ecx, ebx
  004e3	8d 04 40	 lea	 eax, DWORD PTR [eax+eax*2]
  004e6	c1 e0 02	 shl	 eax, 2
  004e9	50		 push	 eax
  004ea	ff b7 ec 40 00
	00		 push	 DWORD PTR [edi+16620]
  004f0	e8 00 00 00 00	 call	 ?Write@CAr@@QAEXPBXI@Z	; CAr::Write

; 222  : 				ar << m_nCompleteQuestSize;

  004f5	8d b7 f5 40 00
	00		 lea	 esi, DWORD PTR [edi+16629]
  004fb	8b cb		 mov	 ecx, ebx
  004fd	56		 push	 esi
  004fe	e8 00 00 00 00	 call	 ??$?6E@CAr@@QAEAAV0@ABE@Z ; CAr::operator<<<unsigned char>

; 223  : 				ar.Write( m_aCompleteQuest, sizeof(WORD) * m_nCompleteQuestSize ); 

  00503	0f b6 06	 movzx	 eax, BYTE PTR [esi]
  00506	03 c0		 add	 eax, eax
  00508	8b cb		 mov	 ecx, ebx
  0050a	50		 push	 eax
  0050b	ff b7 f0 40 00
	00		 push	 DWORD PTR [edi+16624]
  00511	e8 00 00 00 00	 call	 ?Write@CAr@@QAEXPBXI@Z	; CAr::Write

; 224  : 
; 225  : #if __VER >= 15 // __IMPROVE_QUEST_INTERFACE
; 226  : 				ar << m_nCheckedQuestSize;

  00516	8d b7 0c 41 00
	00		 lea	 esi, DWORD PTR [edi+16652]
  0051c	8b cb		 mov	 ecx, ebx
  0051e	56		 push	 esi
  0051f	e8 00 00 00 00	 call	 ??$?6E@CAr@@QAEAAV0@ABE@Z ; CAr::operator<<<unsigned char>

; 227  : 				ar.Write( m_aCheckedQuest, sizeof(WORD) * m_nCheckedQuestSize ); 

  00524	0f b6 06	 movzx	 eax, BYTE PTR [esi]
  00527	8b cb		 mov	 ecx, ebx
  00529	03 c0		 add	 eax, eax
  0052b	50		 push	 eax
  0052c	ff b7 08 41 00
	00		 push	 DWORD PTR [edi+16648]
  00532	e8 00 00 00 00	 call	 ?Write@CAr@@QAEXPBXI@Z	; CAr::Write

; 228  : #endif // __IMPROVE_QUEST_INTERFACE
; 229  : 
; 230  : 				ar << m_idMurderer;

  00537	8d 87 98 3b 00
	00		 lea	 eax, DWORD PTR [edi+15256]
  0053d	8b cb		 mov	 ecx, ebx
  0053f	50		 push	 eax
  00540	e8 00 00 00 00	 call	 ??$?6K@CAr@@QAEAAV0@ABK@Z ; CAr::operator<<<unsigned long>

; 231  : 				ar << (short)m_nRemainGP;

  00545	0f b7 87 dc 02
	00 00		 movzx	 eax, WORD PTR [edi+732]
  0054c	8b cb		 mov	 ecx, ebx
  0054e	89 85 44 ff ff
	ff		 mov	 DWORD PTR $T29[ebp], eax
  00554	8d 85 44 ff ff
	ff		 lea	 eax, DWORD PTR $T29[ebp]
  0055a	50		 push	 eax
  0055b	e8 00 00 00 00	 call	 ??$?6F@CAr@@QAEAAV0@ABF@Z ; CAr::operator<<<short>

; 232  : 				ar << (short)0;

  00560	8d 85 44 ff ff
	ff		 lea	 eax, DWORD PTR $T28[ebp]
  00566	c7 85 44 ff ff
	ff 00 00 00 00	 mov	 DWORD PTR $T28[ebp], 0
  00570	50		 push	 eax
  00571	8b cb		 mov	 ecx, ebx
  00573	e8 00 00 00 00	 call	 ??$?6F@CAr@@QAEAAV0@ABF@Z ; CAr::operator<<<short>
  00578	8d b7 70 3f 00
	00		 lea	 esi, DWORD PTR [edi+16240]
  0057e	bf 1f 00 00 00	 mov	 edi, 31			; 0000001fH
$LL10@Serialize:

; 233  : 				{
; 234  : 					for( int i = 0; i < MAX_HUMAN_PARTS; i++ )
; 235  : 						ar << m_aEquipInfo[i].dwId;

  00583	56		 push	 esi
  00584	8b cb		 mov	 ecx, ebx
  00586	e8 00 00 00 00	 call	 ??$?6K@CAr@@QAEAAV0@ABK@Z ; CAr::operator<<<unsigned long>
  0058b	83 c6 0c	 add	 esi, 12			; 0000000cH
  0058e	83 ef 01	 sub	 edi, 1
  00591	75 f0		 jne	 SHORT $LL10@Serialize

; 236  : 				}
; 237  : 				ar.Write( (void*)m_aJobSkill, sizeof(SKILL) *  ( MAX_SKILL_JOB ) );

  00593	8b bd 3c ff ff
	ff		 mov	 edi, DWORD PTR _this$GSCopy$1$[ebp]
  00599	8b cb		 mov	 ecx, ebx
  0059b	68 98 01 00 00	 push	 408			; 00000198H
  005a0	8d 87 00 01 00
	00		 lea	 eax, DWORD PTR [edi+256]
  005a6	50		 push	 eax
  005a7	e8 00 00 00 00	 call	 ?Write@CAr@@QAEXPBXI@Z	; CAr::Write

; 238  : 				
; 239  : 				ar << (BYTE)m_nCheerPoint << m_dwTickCheer - GetTickCount();

  005ac	8b b7 fc 40 00
	00		 mov	 esi, DWORD PTR [edi+16636]
  005b2	ff 15 00 00 00
	00		 call	 DWORD PTR __imp__GetTickCount@0
  005b8	2b f0		 sub	 esi, eax
  005ba	8b cb		 mov	 ecx, ebx
  005bc	8a 87 00 41 00
	00		 mov	 al, BYTE PTR [edi+16640]
  005c2	88 85 47 ff ff
	ff		 mov	 BYTE PTR $T56[ebp], al
  005c8	8d 85 30 ff ff
	ff		 lea	 eax, DWORD PTR $T6[ebp]
  005ce	50		 push	 eax
  005cf	8d 85 47 ff ff
	ff		 lea	 eax, DWORD PTR $T56[ebp]
  005d5	89 b5 30 ff ff
	ff		 mov	 DWORD PTR $T6[ebp], esi
  005db	50		 push	 eax
  005dc	e8 00 00 00 00	 call	 ??$?6E@CAr@@QAEAAV0@ABE@Z ; CAr::operator<<<unsigned char>
  005e1	8b c8		 mov	 ecx, eax
  005e3	e8 00 00 00 00	 call	 ??$?6K@CAr@@QAEAAV0@ABK@Z ; CAr::operator<<<unsigned long>

; 240  : 
; 241  : 				ar << m_nSlot;

  005e8	8d 87 c8 00 00
	00		 lea	 eax, DWORD PTR [edi+200]
  005ee	8b cb		 mov	 ecx, ebx
  005f0	50		 push	 eax
  005f1	e8 00 00 00 00	 call	 ??$?6E@CAr@@QAEAAV0@ABE@Z ; CAr::operator<<<unsigned char>
  005f6	33 f6		 xor	 esi, esi
  005f8	0f 1f 84 00 00
	00 00 00	 npad	 8
$LL13@Serialize:

; 242  : 				for( int k = 0 ; k < 3 ; ++k )
; 243  : 					ar << m_dwGoldBank[k];

  00600	8d 87 20 3c 00
	00		 lea	 eax, DWORD PTR [edi+15392]
  00606	8b cb		 mov	 ecx, ebx
  00608	50		 push	 eax
  00609	e8 00 00 00 00	 call	 ??$?6K@CAr@@QAEAAV0@ABK@Z ; CAr::operator<<<unsigned long>
  0060e	83 c6 04	 add	 esi, 4
  00611	8d 7f 04	 lea	 edi, DWORD PTR [edi+4]
  00614	83 fe 0c	 cmp	 esi, 12			; 0000000cH
  00617	7c e7		 jl	 SHORT $LL13@Serialize

; 244  : 				for( int k = 0 ; k < 3 ; ++k )

  00619	8b bd 3c ff ff
	ff		 mov	 edi, DWORD PTR _this$GSCopy$1$[ebp]
  0061f	33 f6		 xor	 esi, esi
$LL16@Serialize:

; 245  : 					ar << m_idPlayerBank[k];

  00621	8d 87 d8 3b 00
	00		 lea	 eax, DWORD PTR [edi+15320]
  00627	8b cb		 mov	 ecx, ebx
  00629	50		 push	 eax
  0062a	e8 00 00 00 00	 call	 ??$?6K@CAr@@QAEAAV0@ABK@Z ; CAr::operator<<<unsigned long>
  0062f	83 c6 04	 add	 esi, 4
  00632	8d 7f 04	 lea	 edi, DWORD PTR [edi+4]
  00635	83 fe 0c	 cmp	 esi, 12			; 0000000cH
  00638	7c e7		 jl	 SHORT $LL16@Serialize

; 246  : 				ar << m_nPlusMaxHitPoint;

  0063a	8b bd 3c ff ff
	ff		 mov	 edi, DWORD PTR _this$GSCopy$1$[ebp]
  00640	8b cb		 mov	 ecx, ebx
  00642	8d 87 f0 3e 00
	00		 lea	 eax, DWORD PTR [edi+16112]
  00648	50		 push	 eax
  00649	e8 00 00 00 00	 call	 ??$?6J@CAr@@QAEAAV0@ABJ@Z ; CAr::operator<<<long>

; 247  : 				ar << m_nAttackResistLeft;

  0064e	8d 87 5c 3f 00
	00		 lea	 eax, DWORD PTR [edi+16220]
  00654	8b cb		 mov	 ecx, ebx
  00656	50		 push	 eax
  00657	e8 00 00 00 00	 call	 ??$?6E@CAr@@QAEAAV0@ABE@Z ; CAr::operator<<<unsigned char>

; 248  : 				ar << m_nAttackResistRight;

  0065c	8d 87 5d 3f 00
	00		 lea	 eax, DWORD PTR [edi+16221]
  00662	8b cb		 mov	 ecx, ebx
  00664	50		 push	 eax
  00665	e8 00 00 00 00	 call	 ??$?6E@CAr@@QAEAAV0@ABE@Z ; CAr::operator<<<unsigned char>

; 249  : 				ar << m_nDefenseResist;

  0066a	8d 87 5e 3f 00
	00		 lea	 eax, DWORD PTR [edi+16222]
  00670	8b cb		 mov	 ecx, ebx
  00672	50		 push	 eax
  00673	e8 00 00 00 00	 call	 ??$?6E@CAr@@QAEAAV0@ABE@Z ; CAr::operator<<<unsigned char>

; 250  : #if __VER >= 8 // __CSC_VER8_5
; 251  : 				ar << m_nAngelExp;

  00678	8d 87 88 3b 00
	00		 lea	 eax, DWORD PTR [edi+15240]
  0067e	8b cb		 mov	 ecx, ebx
  00680	50		 push	 eax
  00681	e8 00 00 00 00	 call	 ??$?6_J@CAr@@QAEAAV0@AB_J@Z ; CAr::operator<<<__int64>

; 252  : 				ar << m_nAngelLevel;

  00686	8d 87 90 3b 00
	00		 lea	 eax, DWORD PTR [edi+15248]
  0068c	8b cb		 mov	 ecx, ebx
  0068e	50		 push	 eax
  0068f	e8 00 00 00 00	 call	 ??$?6J@CAr@@QAEAAV0@ABJ@Z ; CAr::operator<<<long>

; 253  : #endif // __CSC_VER8_5
; 254  : 				m_Inventory.Serialize( ar );

  00694	53		 push	 ebx
  00695	8d 8f b4 3b 00
	00		 lea	 ecx, DWORD PTR [edi+15284]
  0069b	e8 00 00 00 00	 call	 ?Serialize@?$CItemContainer@VCItemElem@@@@QAEXAAVCAr@@@Z ; CItemContainer<CItemElem>::Serialize
  006a0	8d b7 e4 3b 00
	00		 lea	 esi, DWORD PTR [edi+15332]
  006a6	bf 03 00 00 00	 mov	 edi, 3
  006ab	0f 1f 44 00 00	 npad	 5
$LL19@Serialize:

; 255  : 				for( int k = 0 ; k < 3 ; ++k )
; 256  : 					m_Bank[k].Serialize( ar );

  006b0	53		 push	 ebx
  006b1	8b ce		 mov	 ecx, esi
  006b3	e8 00 00 00 00	 call	 ?Serialize@?$CItemContainer@VCItemElem@@@@QAEXAAVCAr@@@Z ; CItemContainer<CItemElem>::Serialize
  006b8	83 c6 14	 add	 esi, 20			; 00000014H
  006bb	83 ef 01	 sub	 edi, 1
  006be	75 f0		 jne	 SHORT $LL19@Serialize

; 257  : #if __VER >= 9	// __PET_0410
; 258  : 				ar << GetPetId();	// ĽŇČŻ ÁßŔÎ Ćę ŔÎşĄĹä¸® Ŕ§Äˇ

  006c0	8b bd 3c ff ff
	ff		 mov	 edi, DWORD PTR _this$GSCopy$1$[ebp]
  006c6	8b cb		 mov	 ecx, ebx
  006c8	8b 87 80 3c 00
	00		 mov	 eax, DWORD PTR [edi+15488]
  006ce	89 85 44 ff ff
	ff		 mov	 DWORD PTR $T22[ebp], eax
  006d4	8d 85 44 ff ff
	ff		 lea	 eax, DWORD PTR $T22[ebp]
  006da	50		 push	 eax
  006db	e8 00 00 00 00	 call	 ??$?6K@CAr@@QAEAAV0@ABK@Z ; CAr::operator<<<unsigned long>

; 259  : #endif	// __PET_0410
; 260  : #if __VER >= 11 // __SYS_POCKET
; 261  : 				m_Pocket.Serialize( ar );

  006e0	53		 push	 ebx
  006e1	8d 8f c8 3b 00
	00		 lea	 ecx, DWORD PTR [edi+15304]
  006e7	e8 00 00 00 00	 call	 ?Serialize@CPocketController@@QAEXAAVCAr@@@Z ; CPocketController::Serialize

; 262  : #endif	// __SYS_POCKET
; 263  : #ifdef __JEFF_9_20
; 264  : 				ar << m_dwMute;

  006ec	8d 87 40 3c 00
	00		 lea	 eax, DWORD PTR [edi+15424]
  006f2	8b cb		 mov	 ecx, ebx
  006f4	50		 push	 eax
  006f5	e8 00 00 00 00	 call	 ??$?6K@CAr@@QAEAAV0@ABK@Z ; CAr::operator<<<unsigned long>
  006fa	33 f6		 xor	 esi, esi
  006fc	0f 1f 40 00	 npad	 4
$LL22@Serialize:

; 265  : #endif	// __JEFF_9_20
; 266  : #if __VER >= 13 // __HONORABLE_TITLE			// ´ŢŔÎ
; 267  : 				for( int i = 0 ; i < MAX_HONOR_TITLE ; ++i )
; 268  : 				{
; 269  : 					ar << m_aHonorTitle[i];

  00700	8d 87 98 3c 00
	00		 lea	 eax, DWORD PTR [edi+15512]
  00706	8b cb		 mov	 ecx, ebx
  00708	50		 push	 eax
  00709	e8 00 00 00 00	 call	 ??$?6H@CAr@@QAEAAV0@ABH@Z ; CAr::operator<<<int>
  0070e	83 c6 04	 add	 esi, 4
  00711	8d 7f 04	 lea	 edi, DWORD PTR [edi+4]
  00714	81 fe 58 02 00
	00		 cmp	 esi, 600		; 00000258H
  0071a	7c e4		 jl	 SHORT $LL22@Serialize

; 270  : 
; 271  : 				}
; 272  : #endif	// __HONORABLE_TITLE			// ´ŢŔÎ
; 273  : #if __VER >= 15 // __CAMPUS
; 274  : 				ar << m_idCampus;

  0071c	8b bd 3c ff ff
	ff		 mov	 edi, DWORD PTR _this$GSCopy$1$[ebp]
  00722	8b cb		 mov	 ecx, ebx
  00724	8d 87 10 41 00
	00		 lea	 eax, DWORD PTR [edi+16656]
  0072a	50		 push	 eax
  0072b	e8 00 00 00 00	 call	 ??$?6K@CAr@@QAEAAV0@ABK@Z ; CAr::operator<<<unsigned long>

; 275  : 				ar << m_nCampusPoint;

  00730	8d 87 14 41 00
	00		 lea	 eax, DWORD PTR [edi+16660]
  00736	8b cb		 mov	 ecx, ebx
  00738	50		 push	 eax
  00739	e8 00 00 00 00	 call	 ??$?6H@CAr@@QAEAAV0@ABH@Z ; CAr::operator<<<int>

; 276  : #endif // __CAMPUS
; 277  : 			}

  0073e	e9 82 0b 00 00	 jmp	 $LN83@Serialize
$LN75@Serialize:

; 278  : 			else if( CObj::GetMethod() == METHOD_EXCLUDE_ITEM )

  00743	83 f8 01	 cmp	 eax, 1
  00746	0f 85 79 0b 00
	00		 jne	 $LN83@Serialize
; File C:\IAGOS\server\v18\Source\Source\_Network\Misc\Include\Ar.h

; 356  : 	return( m_lpBufCur - m_lpBufStart );

  0074c	8b 43 08	 mov	 eax, DWORD PTR [ebx+8]
; File C:\IAGOS\server\v18\Source\Source\_common\ObjSerializeOpt.cpp

; 283  : 				u_char uSize	= 0;

  0074f	32 c9		 xor	 cl, cl
; File C:\IAGOS\server\v18\Source\Source\_Network\Misc\Include\Ar.h

; 356  : 	return( m_lpBufCur - m_lpBufStart );

  00751	2b 43 10	 sub	 eax, DWORD PTR [ebx+16]
  00754	89 85 38 ff ff
	ff		 mov	 DWORD PTR _uOffset$1$[ebp], eax
; File C:\IAGOS\server\v18\Source\Source\_common\ObjSerializeOpt.cpp

; 285  : 				ar << uSize;

  0075a	8d 85 47 ff ff
	ff		 lea	 eax, DWORD PTR _uSize$50[ebp]
  00760	88 8d 43 ff ff
	ff		 mov	 BYTE PTR _uSize$1$[ebp], cl
  00766	88 8d 47 ff ff
	ff		 mov	 BYTE PTR _uSize$50[ebp], cl
  0076c	8b cb		 mov	 ecx, ebx
  0076e	50		 push	 eax
  0076f	e8 00 00 00 00	 call	 ??$?6E@CAr@@QAEAAV0@ABE@Z ; CAr::operator<<<unsigned char>
  00774	32 c0		 xor	 al, al

; 286  : 				for( u_char uParts = 0; uParts < MAX_HUMAN_PARTS; uParts++ )

  00776	c6 85 37 ff ff
	ff 00		 mov	 BYTE PTR _uParts$11[ebp], 0
  0077d	8d 8f b4 3b 00
	00		 lea	 ecx, DWORD PTR [edi+15284]
  00783	88 85 33 ff ff
	ff		 mov	 BYTE PTR $T9[ebp], al
  00789	88 85 47 ff ff
	ff		 mov	 BYTE PTR $T58[ebp], al
  0078f	8b f9		 mov	 edi, ecx
$LL25@Serialize:

; 287  : 				{
; 288  : 					CItemElem* pItemElem	= m_Inventory.GetEquip( uParts );

  00791	0f b6 c0	 movzx	 eax, al
  00794	8b cf		 mov	 ecx, edi
  00796	50		 push	 eax
  00797	e8 00 00 00 00	 call	 ?GetEquip@?$CItemContainer@VCItemElem@@@@QAEPAVCItemElem@@K@Z ; CItemContainer<CItemElem>::GetEquip
  0079c	8b f0		 mov	 esi, eax
  0079e	8a 85 33 ff ff
	ff		 mov	 al, BYTE PTR $T9[ebp]

; 289  : 					if( pItemElem )

  007a4	85 f6		 test	 esi, esi
  007a6	74 3d		 je	 SHORT $LN23@Serialize

; 290  : 					{
; 291  : 						uSize++;

  007a8	fe 85 43 ff ff
	ff		 inc	 BYTE PTR _uSize$1$[ebp]

; 292  : 						ar << uParts;

  007ae	8d 85 37 ff ff
	ff		 lea	 eax, DWORD PTR _uParts$11[ebp]
  007b4	50		 push	 eax
  007b5	8b cb		 mov	 ecx, ebx
  007b7	e8 00 00 00 00	 call	 ??$?6E@CAr@@QAEAAV0@ABE@Z ; CAr::operator<<<unsigned char>

; 293  : 						ar << (u_short)pItemElem->m_dwItemId;

  007bc	0f b7 46 08	 movzx	 eax, WORD PTR [esi+8]
  007c0	8b cb		 mov	 ecx, ebx
  007c2	89 85 2c ff ff
	ff		 mov	 DWORD PTR $T4[ebp], eax
  007c8	8d 85 2c ff ff
	ff		 lea	 eax, DWORD PTR $T4[ebp]
  007ce	50		 push	 eax
  007cf	e8 00 00 00 00	 call	 ??$?6G@CAr@@QAEAAV0@ABG@Z ; CAr::operator<<<unsigned short>

; 294  : 						ar << pItemElem->m_byFlag;

  007d4	8d 46 65	 lea	 eax, DWORD PTR [esi+101]
  007d7	8b cb		 mov	 ecx, ebx
  007d9	50		 push	 eax
  007da	e8 00 00 00 00	 call	 ??$?6E@CAr@@QAEAAV0@ABE@Z ; CAr::operator<<<unsigned char>
  007df	8a 85 47 ff ff
	ff		 mov	 al, BYTE PTR $T58[ebp]
$LN23@Serialize:

; 286  : 				for( u_char uParts = 0; uParts < MAX_HUMAN_PARTS; uParts++ )

  007e5	fe c0		 inc	 al
  007e7	88 85 37 ff ff
	ff		 mov	 BYTE PTR _uParts$11[ebp], al
  007ed	88 85 33 ff ff
	ff		 mov	 BYTE PTR $T9[ebp], al
  007f3	88 85 47 ff ff
	ff		 mov	 BYTE PTR $T58[ebp], al
  007f9	3c 1f		 cmp	 al, 31			; 0000001fH
  007fb	72 94		 jb	 SHORT $LL25@Serialize

; 295  : 					}
; 296  : 				}
; 297  : 				GETBLOCK( ar, pBlock, nBlockSize );

  007fd	8d 85 28 ff ff
	ff		 lea	 eax, DWORD PTR _nBlockSize$2[ebp]
  00803	8b cb		 mov	 ecx, ebx
  00805	50		 push	 eax
  00806	e8 00 00 00 00	 call	 ?GetBuffer@CAr@@QAEPAEPAH@Z ; CAr::GetBuffer

; 298  : 				*(UNALIGNED u_char*)( pBlock + uOffset )	= uSize;

  0080b	8b 95 38 ff ff
	ff		 mov	 edx, DWORD PTR _uOffset$1$[ebp]

; 299  : #if __VER >= 9	// __PET_0410
; 300  : 				DWORD dwPetId	= NULL_ID;
; 301  : #ifdef __PET_1024
; 302  : 				char* pszPetName	= "";

  00811	be 00 00 00 00	 mov	 esi, OFFSET ??_C@_00CNPNBAHC@@
  00816	8a 8d 43 ff ff
	ff		 mov	 cl, BYTE PTR _uSize$1$[ebp]

; 303  : #endif	// __PET_1024
; 304  : 				CItemElem* pItemElem	= GetPetItem();

  0081c	8b bd 3c ff ff
	ff		 mov	 edi, DWORD PTR _this$GSCopy$1$[ebp]
  00822	c7 85 44 ff ff
	ff ff ff ff ff	 mov	 DWORD PTR _dwPetId$17[ebp], -1
  0082c	88 0c 10	 mov	 BYTE PTR [eax+edx], cl
  0082f	8b cf		 mov	 ecx, edi
  00831	e8 00 00 00 00	 call	 ?GetPetItem@CMover@@QAEPAVCItemElem@@XZ ; CMover::GetPetItem
  00836	89 85 38 ff ff
	ff		 mov	 DWORD PTR _pItemElem$1$[ebp], eax

; 305  : 				if( pItemElem )

  0083c	85 c0		 test	 eax, eax
  0083e	74 38		 je	 SHORT $LN79@Serialize
; File C:\IAGOS\server\v18\Source\Source\_Common\pet.h

; 128  : 	BYTE	GetLevel( void )	{	return m_nLevel;	}

  00840	8b 88 90 00 00
	00		 mov	 ecx, DWORD PTR [eax+144]
  00846	8a 41 05	 mov	 al, BYTE PTR [ecx+5]
  00849	88 85 47 ff ff
	ff		 mov	 BYTE PTR $T57[ebp], al
; File C:\IAGOS\server\v18\Source\Source\_common\ObjSerializeOpt.cpp

; 307  : 					dwPetId		= MAKELONG( (WORD)pItemElem->m_pPet->GetIndex(), (WORD)pItemElem->m_pPet->GetLevel() );

  0084f	e8 00 00 00 00	 call	 ?GetIndex@CPet@@QAEKXZ	; CPet::GetIndex

; 308  : #ifdef __PET_1024
; 309  : 					pszPetName	= const_cast<char*>( pItemElem->m_pPet->GetName() );

  00854	8b b5 38 ff ff
	ff		 mov	 esi, DWORD PTR _pItemElem$1$[ebp]
  0085a	0f b7 c8	 movzx	 ecx, ax
  0085d	0f b6 85 47 ff
	ff ff		 movzx	 eax, BYTE PTR $T57[ebp]
  00864	c1 e0 10	 shl	 eax, 16			; 00000010H
  00867	8b b6 90 00 00
	00		 mov	 esi, DWORD PTR [esi+144]
  0086d	0b c8		 or	 ecx, eax
  0086f	89 8d 44 ff ff
	ff		 mov	 DWORD PTR _dwPetId$17[ebp], ecx
  00875	83 c6 16	 add	 esi, 22			; 00000016H
$LN79@Serialize:

; 310  : #endif	// __PET_1024
; 311  : 				}
; 312  : 				ar << dwPetId;

  00878	8d 85 44 ff ff
	ff		 lea	 eax, DWORD PTR _dwPetId$17[ebp]
  0087e	8b cb		 mov	 ecx, ebx
  00880	50		 push	 eax
  00881	e8 00 00 00 00	 call	 ??$?6K@CAr@@QAEAAV0@ABK@Z ; CAr::operator<<<unsigned long>

; 313  : #ifdef __PET_1024
; 314  : 				ar.WriteString( pszPetName );

  00886	56		 push	 esi
  00887	8b cb		 mov	 ecx, ebx
  00889	e8 00 00 00 00	 call	 ?WriteString@CAr@@QAEXPBD@Z ; CAr::WriteString

; 315  : #endif	// __PET_1024
; 316  : #endif	// __PET_0410
; 317  : 			}
; 318  : 		}

  0088e	e9 32 0a 00 00	 jmp	 $LN83@Serialize
$LN67@Serialize:

; 319  : 		else	// NPC
; 320  : 		{
; 321  : 			ar << (u_char)m_dwHairMesh << m_dwHairColor << (u_char)m_dwHeadMesh;

  00893	0f b6 87 ac 00
	00 00		 movzx	 eax, BYTE PTR [edi+172]
  0089a	88 85 47 ff ff
	ff		 mov	 BYTE PTR $T46[ebp], al
  008a0	0f b6 87 a4 00
	00 00		 movzx	 eax, BYTE PTR [edi+164]
  008a7	88 85 33 ff ff
	ff		 mov	 BYTE PTR $T10[ebp], al
  008ad	8d 85 47 ff ff
	ff		 lea	 eax, DWORD PTR $T46[ebp]
  008b3	50		 push	 eax
  008b4	8d 87 a8 00 00
	00		 lea	 eax, DWORD PTR [edi+168]
  008ba	50		 push	 eax
  008bb	8d 85 33 ff ff
	ff		 lea	 eax, DWORD PTR $T10[ebp]
  008c1	50		 push	 eax
  008c2	e8 00 00 00 00	 call	 ??$?6E@CAr@@QAEAAV0@ABE@Z ; CAr::operator<<<unsigned char>
  008c7	8b c8		 mov	 ecx, eax
  008c9	e8 00 00 00 00	 call	 ??$?6K@CAr@@QAEAAV0@ABK@Z ; CAr::operator<<<unsigned long>
  008ce	8b c8		 mov	 ecx, eax
  008d0	e8 00 00 00 00	 call	 ??$?6E@CAr@@QAEAAV0@ABE@Z ; CAr::operator<<<unsigned char>

; 322  : 			ar.WriteString( m_szCharacterKey );

  008d5	8d 47 38	 lea	 eax, DWORD PTR [edi+56]
  008d8	8b cb		 mov	 ecx, ebx
  008da	50		 push	 eax
  008db	e8 00 00 00 00	 call	 ?WriteString@CAr@@QAEXPBD@Z ; CAr::WriteString
; File C:\IAGOS\server\v18\Source\Source\_Network\Misc\Include\Ar.h

; 356  : 	return( m_lpBufCur - m_lpBufStart );

  008e0	8b 73 08	 mov	 esi, DWORD PTR [ebx+8]
; File C:\IAGOS\server\v18\Source\Source\_common\ObjSerializeOpt.cpp

; 326  : 			ar << uSize;

  008e3	8d 85 47 ff ff
	ff		 lea	 eax, DWORD PTR _uSize$49[ebp]
; File C:\IAGOS\server\v18\Source\Source\_Network\Misc\Include\Ar.h

; 356  : 	return( m_lpBufCur - m_lpBufStart );

  008e9	2b 73 10	 sub	 esi, DWORD PTR [ebx+16]
; File C:\IAGOS\server\v18\Source\Source\_common\ObjSerializeOpt.cpp

; 326  : 			ar << uSize;

  008ec	8b cb		 mov	 ecx, ebx
  008ee	50		 push	 eax
  008ef	c6 85 47 ff ff
	ff 00		 mov	 BYTE PTR _uSize$49[ebp], 0
  008f6	e8 00 00 00 00	 call	 ??$?6E@CAr@@QAEAAV0@ABE@Z ; CAr::operator<<<unsigned char>

; 327  : 			if( IsEquipableNPC() )
; 328  : 			{
; 329  : 				CItemElem* pItemElem;
; 330  : 				for( u_char uParts = 0; uParts < MAX_HUMAN_PARTS; uParts++ )
; 331  : 				{
; 332  : 					pItemElem	= m_Inventory.GetEquip( uParts );
; 333  : 					if( pItemElem )
; 334  : 					{
; 335  : 						uSize++;
; 336  : 						ar << uParts;
; 337  : 						ar << (u_short)pItemElem->m_dwItemId;
; 338  : 					}
; 339  : 				}
; 340  : 			}
; 341  : 			GETBLOCK( ar, pBlock, nBlockSize );

  008fb	8d 85 28 ff ff
	ff		 lea	 eax, DWORD PTR _nBlockSize$3[ebp]
  00901	8b cb		 mov	 ecx, ebx
  00903	50		 push	 eax
  00904	e8 00 00 00 00	 call	 ?GetBuffer@CAr@@QAEPAEPAH@Z ; CAr::GetBuffer

; 342  : 			*(UNALIGNED u_char*)( pBlock + uOffset )	= uSize;
; 343  : 
; 344  : 
; 345  : 			ar << (u_char)m_bActiveAttack;

  00909	8b cb		 mov	 ecx, ebx
  0090b	c6 04 30 00	 mov	 BYTE PTR [eax+esi], 0
  0090f	0f b6 47 58	 movzx	 eax, BYTE PTR [edi+88]
  00913	88 85 47 ff ff
	ff		 mov	 BYTE PTR $T48[ebp], al
  00919	8d 85 47 ff ff
	ff		 lea	 eax, DWORD PTR $T48[ebp]
  0091f	50		 push	 eax
  00920	e8 00 00 00 00	 call	 ??$?6E@CAr@@QAEAAV0@ABE@Z ; CAr::operator<<<unsigned char>

; 346  : 			ar << (u_char)m_nMovePattern;

  00925	0f b6 47 60	 movzx	 eax, BYTE PTR [edi+96]
  00929	8b cb		 mov	 ecx, ebx
  0092b	88 85 47 ff ff
	ff		 mov	 BYTE PTR $T54[ebp], al
  00931	8d 85 47 ff ff
	ff		 lea	 eax, DWORD PTR $T54[ebp]
  00937	50		 push	 eax
  00938	e8 00 00 00 00	 call	 ??$?6E@CAr@@QAEAAV0@ABE@Z ; CAr::operator<<<unsigned char>

; 347  : 			ar << (u_char)m_nMoveEvent;

  0093d	0f b6 47 64	 movzx	 eax, BYTE PTR [edi+100]
  00941	8b cb		 mov	 ecx, ebx
  00943	88 85 47 ff ff
	ff		 mov	 BYTE PTR $T45[ebp], al
  00949	8d 85 47 ff ff
	ff		 lea	 eax, DWORD PTR $T45[ebp]
  0094f	50		 push	 eax
  00950	e8 00 00 00 00	 call	 ??$?6E@CAr@@QAEAAV0@ABE@Z ; CAr::operator<<<unsigned char>

; 348  : 			ar << m_nMoveEventCnt;

  00955	8d 47 68	 lea	 eax, DWORD PTR [edi+104]
  00958	8b cb		 mov	 ecx, ebx
  0095a	50		 push	 eax
  0095b	e8 00 00 00 00	 call	 ??$?6H@CAr@@QAEAAV0@ABH@Z ; CAr::operator<<<int>

; 349  : #if __VER >= 9	//__AI_0509
; 350  : 			ar << m_fSpeedFactor;

  00960	8d 87 84 3c 00
	00		 lea	 eax, DWORD PTR [edi+15492]
  00966	8b cb		 mov	 ecx, ebx
  00968	50		 push	 eax
  00969	e8 00 00 00 00	 call	 ??$?6M@CAr@@QAEAAV0@ABM@Z ; CAr::operator<<<float>

; 351  : #endif	// __AI_0509
; 352  : 		}
; 353  : #ifdef __BUFF_1107
; 354  : 		m_buffs.Serialize( ar );
; 355  : #else	// __BUFF_1107
; 356  : 		m_SkillState.Serialize( ar );
; 357  : #endif	// __BUFF_1107
; 358  : 	}

  0096e	e9 52 09 00 00	 jmp	 $LN83@Serialize
$LN65@Serialize:

; 361  : 		m_dwMotion = 0;
; 362  : 
; 363  : 		u_short nMotion;
; 364  : 		ar >> nMotion;							// m_dwMotion

  00973	8d 85 44 ff ff
	ff		 lea	 eax, DWORD PTR _nMotion$31[ebp]
  00979	c7 47 18 00 00
	00 00		 mov	 DWORD PTR [edi+24], 0
  00980	50		 push	 eax
  00981	e8 00 00 00 00	 call	 ??$?5G@CAr@@QAEAAV0@AAG@Z ; CAr::operator>><unsigned short>

; 369  : 			m_dwMotion = (DWORD)nMotion;

  00986	0f b7 85 44 ff
	ff ff		 movzx	 eax, WORD PTR _nMotion$31[ebp]
; File C:\IAGOS\server\v18\Source\Source\_Network\Objects\Obj.h

; 1120 : 		memset( m_aEquipInfo, 0, sizeof(EQUIP_INFO) * MAX_HUMAN_PARTS );

  0098d	8d b7 70 3f 00
	00		 lea	 esi, DWORD PTR [edi+16240]
  00993	68 74 01 00 00	 push	 372			; 00000174H
  00998	6a 00		 push	 0
  0099a	56		 push	 esi
; File C:\IAGOS\server\v18\Source\Source\_common\ObjSerializeOpt.cpp

; 369  : 			m_dwMotion = (DWORD)nMotion;

  0099b	89 47 18	 mov	 DWORD PTR [edi+24], eax

; 370  : 		#endif
; 371  : 
; 372  : 		m_bPlayer	=

  0099e	c7 87 bc 00 00
	00 00 00 00 00	 mov	 DWORD PTR [edi+188], 0
  009a8	c7 87 9c 3b 00
	00 00 00 00 00	 mov	 DWORD PTR [edi+15260], 0
  009b2	c7 87 a0 3b 00
	00 00 00 00 00	 mov	 DWORD PTR [edi+15264], 0
  009bc	c7 87 6c 3b 00
	00 00 00 00 00	 mov	 DWORD PTR [edi+15212], 0
  009c6	c7 87 74 3b 00
	00 00 00 00 00	 mov	 DWORD PTR [edi+15220], 0
  009d0	c7 87 70 3b 00
	00 00 00 00 00	 mov	 DWORD PTR [edi+15216], 0
  009da	c7 47 5c 00 00
	00 00		 mov	 DWORD PTR [edi+92], 0
  009e1	c7 87 8c 00 00
	00 00 00 00 00	 mov	 DWORD PTR [edi+140], 0
; File C:\IAGOS\server\v18\Source\Source\_Network\Objects\Obj.h

; 1120 : 		memset( m_aEquipInfo, 0, sizeof(EQUIP_INFO) * MAX_HUMAN_PARTS );

  009eb	e8 00 00 00 00	 call	 _memset
  009f0	83 c4 0c	 add	 esp, 12			; 0000000cH
; File C:\IAGOS\server\v18\Source\Source\_common\ObjSerializeOpt.cpp

; 360  : 	{

  009f3	b8 1f 00 00 00	 mov	 eax, 31			; 0000001fH
  009f8	0f 1f 84 00 00
	00 00 00	 npad	 8
$LL110@Serialize:
; File C:\IAGOS\server\v18\Source\Source\_Network\Objects\Obj.h

; 1122 : 			m_aEquipInfo[i].dwId	= NULL_ID;

  00a00	c7 06 ff ff ff
	ff		 mov	 DWORD PTR [esi], -1
  00a06	8d 76 0c	 lea	 esi, DWORD PTR [esi+12]
  00a09	83 e8 01	 sub	 eax, 1
  00a0c	75 f2		 jne	 SHORT $LL110@Serialize
; File C:\IAGOS\server\v18\Source\Source\_common\ObjSerializeOpt.cpp

; 383  : 		ar >> (u_char&)m_bPlayer;

  00a0e	8d 87 8c 00 00
	00		 lea	 eax, DWORD PTR [edi+140]
  00a14	8b cb		 mov	 ecx, ebx
  00a16	50		 push	 eax
  00a17	e8 00 00 00 00	 call	 ??$?5E@CAr@@QAEAAV0@AAE@Z ; CAr::operator>><unsigned char>

; 384  : 
; 385  : #ifdef __SKILL_0205
; 386  : 		SKILL	aJobSkill[MAX_SKILL_JOB];
; 387  : 		memcpy( aJobSkill, m_aJobSkill, sizeof(aJobSkill) );

  00a1c	8d b7 00 01 00
	00		 lea	 esi, DWORD PTR [edi+256]
  00a22	b9 66 00 00 00	 mov	 ecx, 102		; 00000066H
  00a27	8d bd 90 fd ff
	ff		 lea	 edi, DWORD PTR _aJobSkill$1[ebp]
  00a2d	f3 a5		 rep movsd

; 388  : #endif	// __SKILL_0205
; 389  : 
; 390  : 		InitProp();

  00a2f	8b b5 3c ff ff
	ff		 mov	 esi, DWORD PTR _this$GSCopy$1$[ebp]
  00a35	8b ce		 mov	 ecx, esi
  00a37	e8 00 00 00 00	 call	 ?InitProp@CMover@@QAEXXZ ; CMover::InitProp

; 391  : 
; 392  : 		m_nHitPoint	= 0;

  00a3c	8d 86 94 00 00
	00		 lea	 eax, DWORD PTR [esi+148]

; 393  : 
; 394  : 		ar >> m_nHitPoint;

  00a42	8b cb		 mov	 ecx, ebx
  00a44	c7 00 00 00 00
	00		 mov	 DWORD PTR [eax], 0
  00a4a	50		 push	 eax
  00a4b	e8 00 00 00 00	 call	 ??$?5J@CAr@@QAEAAV0@AAJ@Z ; CAr::operator>><long>

; 395  : 		DWORD dw1, dw2;
; 396  : 		ar >> dw1;

  00a50	8d 85 2c ff ff
	ff		 lea	 eax, DWORD PTR _dw1$5[ebp]
  00a56	8b cb		 mov	 ecx, ebx
  00a58	50		 push	 eax
  00a59	e8 00 00 00 00	 call	 ??$?5K@CAr@@QAEAAV0@AAK@Z ; CAr::operator>><unsigned long>

; 397  : 		ar >> dw2;

  00a5e	8d 85 38 ff ff
	ff		 lea	 eax, DWORD PTR _dw2$14[ebp]
  00a64	8b cb		 mov	 ecx, ebx
  00a66	50		 push	 eax
  00a67	e8 00 00 00 00	 call	 ??$?5K@CAr@@QAEAAV0@AAK@Z ; CAr::operator>><unsigned long>
; File C:\IAGOS\server\v18\Source\Source\_Network\Objects\Obj.h

; 885  : 	void	ClearStateFlag() { m_dwStateFlag = 0; }

  00a6c	8b 86 b0 3b 00
	00		 mov	 eax, DWORD PTR [esi+15280]
  00a72	c7 40 08 00 00
	00 00		 mov	 DWORD PTR [eax+8], 0
; File C:\IAGOS\server\v18\Source\Source\_common\ObjSerializeOpt.cpp

; 399  : 		m_pActMover->AddStateFlag( dw2 );

  00a79	8b 8e b0 3b 00
	00		 mov	 ecx, DWORD PTR [esi+15280]
; File C:\IAGOS\server\v18\Source\Source\_Network\Objects\Obj.h

; 886  : 	void	AddStateFlag( DWORD dwStateFlag ) { m_dwStateFlag |= dwStateFlag; }

  00a7f	8b 85 38 ff ff
	ff		 mov	 eax, DWORD PTR _dw2$14[ebp]
  00a85	09 41 08	 or	 DWORD PTR [ecx+8], eax
; File C:\IAGOS\server\v18\Source\Source\_common\ObjSerializeOpt.cpp

; 400  : 		m_pActMover->__ForceSetState( dw1 );

  00a88	8b 8e b0 3b 00
	00		 mov	 ecx, DWORD PTR [esi+15280]
  00a8e	8b 85 2c ff ff
	ff		 mov	 eax, DWORD PTR _dw1$5[ebp]
  00a94	89 41 04	 mov	 DWORD PTR [ecx+4], eax

; 401  : 		ar >> (u_char&)m_dwBelligerence;

  00a97	8d 46 5c	 lea	 eax, DWORD PTR [esi+92]
  00a9a	50		 push	 eax
  00a9b	8b cb		 mov	 ecx, ebx
  00a9d	e8 00 00 00 00	 call	 ??$?5E@CAr@@QAEAAV0@AAE@Z ; CAr::operator>><unsigned char>

; 402  : #if __VER >= 15 // __PETVIS
; 403  : 		ar >> m_dwMoverSfxId;

  00aa2	8d 86 7c 3c 00
	00		 lea	 eax, DWORD PTR [esi+15484]
  00aa8	8b cb		 mov	 ecx, ebx
  00aaa	50		 push	 eax
  00aab	e8 00 00 00 00	 call	 ??$?5K@CAr@@QAEAAV0@AAK@Z ; CAr::operator>><unsigned long>

; 404  : #endif // __PETVIS
; 405  : 		if( m_bPlayer )	// PLAYER

  00ab0	83 be 8c 00 00
	00 00		 cmp	 DWORD PTR [esi+140], 0
  00ab7	8b cb		 mov	 ecx, ebx
  00ab9	0f 84 52 07 00
	00		 je	 $LN82@Serialize

; 406  : 		{
; 407  : 			m_dwSkinSet		=
; 408  : 			m_dwHairMesh	=
; 409  : 			m_dwHeadMesh	=
; 410  : 			m_idPlayer	=
; 411  : 			m_nJob	=
; 412  : 			m_nStr	=
; 413  : 			m_nSta	=
; 414  : 			m_nDex	=
; 415  : 			m_nInt	=
; 416  : 			m_nLevel	=
; 417  : 			m_dwAuthorization	=
; 418  : #if __VER < 8 // __S8_PK
; 419  : 			m_nNumKill	=
; 420  : #endif // __VER < 8 // __S8_PK
; 421  : 									0;
; 422  : 
; 423  : 			BYTE bySex;
; 424  : 			ar.ReadString( m_szName, 32 );

  00abf	8b 85 3c ff ff
	ff		 mov	 eax, DWORD PTR _this$GSCopy$1$[ebp]
  00ac5	8d be a4 00 00
	00		 lea	 edi, DWORD PTR [esi+164]
  00acb	c7 86 e0 02 00
	00 00 00 00 00	 mov	 DWORD PTR [esi+736], 0
  00ad5	83 c0 6c	 add	 eax, 108		; 0000006cH
  00ad8	c7 86 e4 00 00
	00 00 00 00 00	 mov	 DWORD PTR [esi+228], 0
  00ae2	c7 86 e0 00 00
	00 00 00 00 00	 mov	 DWORD PTR [esi+224], 0
  00aec	c7 86 dc 00 00
	00 00 00 00 00	 mov	 DWORD PTR [esi+220], 0
  00af6	c7 86 d8 00 00
	00 00 00 00 00	 mov	 DWORD PTR [esi+216], 0
  00b00	c7 86 d4 00 00
	00 00 00 00 00	 mov	 DWORD PTR [esi+212], 0
  00b0a	c7 86 c4 00 00
	00 00 00 00 00	 mov	 DWORD PTR [esi+196], 0
  00b14	c7 86 90 00 00
	00 00 00 00 00	 mov	 DWORD PTR [esi+144], 0
  00b1e	c7 86 ac 00 00
	00 00 00 00 00	 mov	 DWORD PTR [esi+172], 0
  00b28	81 c6 a0 00 00
	00		 add	 esi, 160		; 000000a0H
  00b2e	6a 20		 push	 32			; 00000020H
  00b30	50		 push	 eax
  00b31	c7 07 00 00 00
	00		 mov	 DWORD PTR [edi], 0
  00b37	c7 06 00 00 00
	00		 mov	 DWORD PTR [esi], 0
  00b3d	e8 00 00 00 00	 call	 ?ReadString@CAr@@QAEPADPADH@Z ; CAr::ReadString

; 425  : 			ar >> bySex;

  00b42	8d 85 47 ff ff
	ff		 lea	 eax, DWORD PTR _bySex$44[ebp]
  00b48	8b cb		 mov	 ecx, ebx
  00b4a	50		 push	 eax
  00b4b	e8 00 00 00 00	 call	 ??$?5E@CAr@@QAEAAV0@AAE@Z ; CAr::operator>><unsigned char>
; File C:\IAGOS\server\v18\Source\Source\_Network\Objects\Obj.h

; 1194 : 	void	SetSex( BYTE bySex ) { m_bySex = bySex; }

  00b50	8b 8d 3c ff ff
	ff		 mov	 ecx, DWORD PTR _this$GSCopy$1$[ebp]
  00b56	8a 85 47 ff ff
	ff		 mov	 al, BYTE PTR _bySex$44[ebp]
; File C:\IAGOS\server\v18\Source\Source\_common\ObjSerializeOpt.cpp

; 427  : 			ar >> (u_char&)m_dwSkinSet;

  00b5c	56		 push	 esi
; File C:\IAGOS\server\v18\Source\Source\_Network\Objects\Obj.h

; 1194 : 	void	SetSex( BYTE bySex ) { m_bySex = bySex; }

  00b5d	88 81 b8 00 00
	00		 mov	 BYTE PTR [ecx+184], al
; File C:\IAGOS\server\v18\Source\Source\_common\ObjSerializeOpt.cpp

; 427  : 			ar >> (u_char&)m_dwSkinSet;

  00b63	8b cb		 mov	 ecx, ebx
  00b65	e8 00 00 00 00	 call	 ??$?5E@CAr@@QAEAAV0@AAE@Z ; CAr::operator>><unsigned char>

; 428  : 			ar >> (u_char&)m_dwHairMesh;

  00b6a	57		 push	 edi
  00b6b	8b cb		 mov	 ecx, ebx
  00b6d	e8 00 00 00 00	 call	 ??$?5E@CAr@@QAEAAV0@AAE@Z ; CAr::operator>><unsigned char>

; 429  : 			ar >> m_dwHairColor;

  00b72	8b bd 3c ff ff
	ff		 mov	 edi, DWORD PTR _this$GSCopy$1$[ebp]
  00b78	8b cb		 mov	 ecx, ebx
  00b7a	8d 87 a8 00 00
	00		 lea	 eax, DWORD PTR [edi+168]
  00b80	50		 push	 eax
  00b81	e8 00 00 00 00	 call	 ??$?5K@CAr@@QAEAAV0@AAK@Z ; CAr::operator>><unsigned long>

; 430  : 			ar >> (u_char&)m_dwHeadMesh;

  00b86	8d 87 ac 00 00
	00		 lea	 eax, DWORD PTR [edi+172]
  00b8c	8b cb		 mov	 ecx, ebx
  00b8e	50		 push	 eax
  00b8f	e8 00 00 00 00	 call	 ??$?5E@CAr@@QAEAAV0@AAE@Z ; CAr::operator>><unsigned char>

; 431  : #	if defined (__WORLDSERVER) || defined(__CLIENT)
; 432  : 			SetHairColor( m_dwHairColor );
; 433  : #	endif	// __WORLDSERVER	//__CLIENT
; 434  : 			ar >> m_idPlayer;

  00b94	8d 87 90 00 00
	00		 lea	 eax, DWORD PTR [edi+144]
  00b9a	8b cb		 mov	 ecx, ebx
  00b9c	50		 push	 eax
  00b9d	e8 00 00 00 00	 call	 ??$?5K@CAr@@QAEAAV0@AAK@Z ; CAr::operator>><unsigned long>

; 435  : 			ar >> (u_char&)m_nJob;

  00ba2	8d 87 c4 00 00
	00		 lea	 eax, DWORD PTR [edi+196]
  00ba8	8b cb		 mov	 ecx, ebx
  00baa	50		 push	 eax
  00bab	e8 00 00 00 00	 call	 ??$?5E@CAr@@QAEAAV0@AAE@Z ; CAr::operator>><unsigned char>

; 436  : 			ar >> (u_short&)m_nStr;

  00bb0	8d 87 d4 00 00
	00		 lea	 eax, DWORD PTR [edi+212]
  00bb6	8b cb		 mov	 ecx, ebx
  00bb8	50		 push	 eax
  00bb9	e8 00 00 00 00	 call	 ??$?5G@CAr@@QAEAAV0@AAG@Z ; CAr::operator>><unsigned short>

; 437  : 			ar >> (u_short&)m_nSta;

  00bbe	8d 87 d8 00 00
	00		 lea	 eax, DWORD PTR [edi+216]
  00bc4	8b cb		 mov	 ecx, ebx
  00bc6	50		 push	 eax
  00bc7	e8 00 00 00 00	 call	 ??$?5G@CAr@@QAEAAV0@AAG@Z ; CAr::operator>><unsigned short>

; 438  : 			ar >> (u_short&)m_nDex;

  00bcc	8d 87 dc 00 00
	00		 lea	 eax, DWORD PTR [edi+220]
  00bd2	8b cb		 mov	 ecx, ebx
  00bd4	50		 push	 eax
  00bd5	e8 00 00 00 00	 call	 ??$?5G@CAr@@QAEAAV0@AAG@Z ; CAr::operator>><unsigned short>

; 439  : 			ar >> (u_short&)m_nInt;

  00bda	8d 87 e0 00 00
	00		 lea	 eax, DWORD PTR [edi+224]
  00be0	8b cb		 mov	 ecx, ebx
  00be2	50		 push	 eax
  00be3	e8 00 00 00 00	 call	 ??$?5G@CAr@@QAEAAV0@AAG@Z ; CAr::operator>><unsigned short>

; 440  : 			ar >> (u_short&)m_nLevel;

  00be8	8d 87 e4 00 00
	00		 lea	 eax, DWORD PTR [edi+228]
  00bee	8b cb		 mov	 ecx, ebx
  00bf0	50		 push	 eax
  00bf1	e8 00 00 00 00	 call	 ??$?5G@CAr@@QAEAAV0@AAG@Z ; CAr::operator>><unsigned short>

; 441  : 			ar >> m_nFuel;

  00bf6	8d 87 c0 00 00
	00		 lea	 eax, DWORD PTR [edi+192]
  00bfc	8b cb		 mov	 ecx, ebx
  00bfe	50		 push	 eax
  00bff	e8 00 00 00 00	 call	 ??$?5H@CAr@@QAEAAV0@AAH@Z ; CAr::operator>><int>

; 442  : 			ar >> m_tmAccFuel;

  00c04	8d 87 3c 3c 00
	00		 lea	 eax, DWORD PTR [edi+15420]
  00c0a	8b cb		 mov	 ecx, ebx
  00c0c	50		 push	 eax
  00c0d	e8 00 00 00 00	 call	 ??$?5K@CAr@@QAEAAV0@AAK@Z ; CAr::operator>><unsigned long>

; 443  : 
; 444  : 			u_char u1;
; 445  : 			ar >> u1;

  00c12	8d 85 43 ff ff
	ff		 lea	 eax, DWORD PTR _u1$15[ebp]
  00c18	8b cb		 mov	 ecx, ebx
  00c1a	50		 push	 eax
  00c1b	e8 00 00 00 00	 call	 ??$?5E@CAr@@QAEAAV0@AAE@Z ; CAr::operator>><unsigned char>

; 446  : 			if( u1 == 1 )

  00c20	80 bd 43 ff ff
	ff 01		 cmp	 BYTE PTR _u1$15[ebp], 1
  00c27	75 1c		 jne	 SHORT $LN84@Serialize

; 447  : 			{
; 448  : 				ar >> m_idGuild;

  00c29	8d 87 70 3b 00
	00		 lea	 eax, DWORD PTR [edi+15216]
  00c2f	8b cb		 mov	 ecx, ebx
  00c31	50		 push	 eax
  00c32	e8 00 00 00 00	 call	 ??$?5K@CAr@@QAEAAV0@AAK@Z ; CAr::operator>><unsigned long>

; 449  : 				ar >> m_idWar;

  00c37	8d 87 74 3b 00
	00		 lea	 eax, DWORD PTR [edi+15220]
  00c3d	8b cb		 mov	 ecx, ebx
  00c3f	50		 push	 eax
  00c40	e8 00 00 00 00	 call	 ??$?5K@CAr@@QAEAAV0@AAK@Z ; CAr::operator>><unsigned long>
$LN84@Serialize:

; 450  : 			}
; 451  : 			ar >> m_idGuildCloak;

  00c45	8d 87 d0 00 00
	00		 lea	 eax, DWORD PTR [edi+208]
  00c4b	8b cb		 mov	 ecx, ebx
  00c4d	50		 push	 eax
  00c4e	e8 00 00 00 00	 call	 ??$?5H@CAr@@QAEAAV0@AAH@Z ; CAr::operator>><int>

; 452  : 
; 453  : 			ar >> u1;

  00c53	8d 85 43 ff ff
	ff		 lea	 eax, DWORD PTR _u1$15[ebp]
  00c59	8b cb		 mov	 ecx, ebx
  00c5b	50		 push	 eax
  00c5c	e8 00 00 00 00	 call	 ??$?5E@CAr@@QAEAAV0@AAE@Z ; CAr::operator>><unsigned char>

; 454  : 			if( u1 == 1 )

  00c61	80 bd 43 ff ff
	ff 01		 cmp	 BYTE PTR _u1$15[ebp], 1
  00c68	75 1c		 jne	 SHORT $LN85@Serialize

; 455  : 			{
; 456  : 				ar >> m_idparty;

  00c6a	8d 87 6c 3b 00
	00		 lea	 eax, DWORD PTR [edi+15212]
  00c70	8b cb		 mov	 ecx, ebx
  00c72	50		 push	 eax
  00c73	e8 00 00 00 00	 call	 ??$?5K@CAr@@QAEAAV0@AAK@Z ; CAr::operator>><unsigned long>

; 457  : 				ar >> m_idDuelParty;

  00c78	8d 87 a0 3b 00
	00		 lea	 eax, DWORD PTR [edi+15264]
  00c7e	8b cb		 mov	 ecx, ebx
  00c80	50		 push	 eax
  00c81	e8 00 00 00 00	 call	 ??$?5K@CAr@@QAEAAV0@AAK@Z ; CAr::operator>><unsigned long>
$LN85@Serialize:

; 458  : 			}
; 459  : 
; 460  : 			ar >> (char&)m_dwAuthorization;

  00c86	8d 87 e0 02 00
	00		 lea	 eax, DWORD PTR [edi+736]
  00c8c	8b cb		 mov	 ecx, ebx
  00c8e	50		 push	 eax
  00c8f	e8 00 00 00 00	 call	 ??$?5D@CAr@@QAEAAV0@AAD@Z ; CAr::operator>><char>

; 461  : 			ar >> m_dwMode;

  00c94	8d 87 e4 02 00
	00		 lea	 eax, DWORD PTR [edi+740]
  00c9a	8b cb		 mov	 ecx, ebx
  00c9c	50		 push	 eax
  00c9d	e8 00 00 00 00	 call	 ??$?5K@CAr@@QAEAAV0@AAK@Z ; CAr::operator>><unsigned long>

; 462  : 			ar >> m_dwStateMode;

  00ca2	8d 87 e4 40 00
	00		 lea	 eax, DWORD PTR [edi+16612]
  00ca8	8b cb		 mov	 ecx, ebx
  00caa	50		 push	 eax
  00cab	e8 00 00 00 00	 call	 ??$?5K@CAr@@QAEAAV0@AAK@Z ; CAr::operator>><unsigned long>

; 463  : #ifdef __WORLDSERVER
; 464  : 			OBJID dwItemTem;
; 465  : 			ar >> dwItemTem;
; 466  : #else // __WORLDSERVER
; 467  : 			ar >> m_dwUseItemId;

  00cb0	8d 87 e8 40 00
	00		 lea	 eax, DWORD PTR [edi+16616]
  00cb6	8b cb		 mov	 ecx, ebx
  00cb8	50		 push	 eax
  00cb9	e8 00 00 00 00	 call	 ??$?5K@CAr@@QAEAAV0@AAK@Z ; CAr::operator>><unsigned long>

; 468  : #endif // __WORLDSERVER
; 469  : #if __VER >= 8 // __S8_PK
; 470  : 			ar >> m_dwPKTime;

  00cbe	8d 87 78 3b 00
	00		 lea	 eax, DWORD PTR [edi+15224]
  00cc4	8b cb		 mov	 ecx, ebx
  00cc6	50		 push	 eax
  00cc7	e8 00 00 00 00	 call	 ??$?5K@CAr@@QAEAAV0@AAK@Z ; CAr::operator>><unsigned long>

; 471  : 	#ifdef __WORLDSERVER
; 472  : 			if( m_dwPKTime > 0 )
; 473  : 				m_dwPKTime = GetTickCount() + m_dwPKTime;
; 474  : 	#endif // __WORLDSERVER
; 475  : 			ar >> m_nPKValue;

  00ccc	8d 87 7c 3b 00
	00		 lea	 eax, DWORD PTR [edi+15228]
  00cd2	8b cb		 mov	 ecx, ebx
  00cd4	50		 push	 eax
  00cd5	e8 00 00 00 00	 call	 ??$?5H@CAr@@QAEAAV0@AAH@Z ; CAr::operator>><int>

; 476  : 			ar >> m_dwPKPropensity;

  00cda	8d 87 80 3b 00
	00		 lea	 eax, DWORD PTR [edi+15232]
  00ce0	8b cb		 mov	 ecx, ebx
  00ce2	50		 push	 eax
  00ce3	e8 00 00 00 00	 call	 ??$?5K@CAr@@QAEAAV0@AAK@Z ; CAr::operator>><unsigned long>

; 477  : 			ar >> m_dwPKExp;

  00ce8	8d 87 84 3b 00
	00		 lea	 eax, DWORD PTR [edi+15236]
  00cee	8b cb		 mov	 ecx, ebx
  00cf0	50		 push	 eax
  00cf1	e8 00 00 00 00	 call	 ??$?5K@CAr@@QAEAAV0@AAK@Z ; CAr::operator>><unsigned long>

; 478  : #else // __VER >= 8 // __S8_PK
; 479  : 			ar >> (u_short&)m_nNumKill;
; 480  : 			ar >> m_nSlaughter;
; 481  : #endif // __VER >= 8 // __S8_PK
; 482  : 			ar >> m_nFame;

  00cf6	8d 87 94 3b 00
	00		 lea	 eax, DWORD PTR [edi+15252]
  00cfc	8b cb		 mov	 ecx, ebx
  00cfe	50		 push	 eax
  00cff	e8 00 00 00 00	 call	 ??$?5H@CAr@@QAEAAV0@AAH@Z ; CAr::operator>><int>

; 483  : 			ar >> (u_char&)m_nDuel;

  00d04	8d 87 9c 3b 00
	00		 lea	 eax, DWORD PTR [edi+15260]
  00d0a	8b cb		 mov	 ecx, ebx
  00d0c	50		 push	 eax
  00d0d	e8 00 00 00 00	 call	 ??$?5E@CAr@@QAEAAV0@AAE@Z ; CAr::operator>><unsigned char>

; 484  : #if __VER >= 13 // __HONORABLE_TITLE			// ´ŢŔÎ
; 485  : 			int nTemp = -1;
; 486  : 			ar >> nTemp;

  00d12	8d 85 44 ff ff
	ff		 lea	 eax, DWORD PTR _nTemp$16[ebp]
  00d18	c7 85 44 ff ff
	ff ff ff ff ff	 mov	 DWORD PTR _nTemp$16[ebp], -1
  00d22	50		 push	 eax
  00d23	8b cb		 mov	 ecx, ebx
  00d25	e8 00 00 00 00	 call	 ??$?5H@CAr@@QAEAAV0@AAH@Z ; CAr::operator>><int>

; 487  : #ifdef __CLIENT
; 488  : 			if(m_nHonor != nTemp)// ´ŢŔÎĽ±ĹĂ 
; 489  : 			{
; 490  : 				m_nHonor = nTemp;
; 491  : 				SetTitle(CTitleManager::Instance()->GetTitle(m_nHonor));
; 492  : 			}
; 493  : #else	// __CLIENT
; 494  : 			m_nHonor = nTemp;

  00d2a	8b 85 44 ff ff
	ff		 mov	 eax, DWORD PTR _nTemp$16[ebp]
  00d30	8d b7 74 3f 00
	00		 lea	 esi, DWORD PTR [edi+16244]
  00d36	89 87 94 3c 00
	00		 mov	 DWORD PTR [edi+15508], eax
  00d3c	bf 1f 00 00 00	 mov	 edi, 31			; 0000001fH
$LL31@Serialize:

; 495  : #endif	// __CLIENT
; 496  : #endif	// __HONORABLE_TITLE			// ´ŢŔÎ
; 497  : 			{
; 498  : 				for( int i = 0; i < MAX_HUMAN_PARTS; i ++ )
; 499  : 				{
; 500  : 					ar >> m_aEquipInfo[i].nOption;

  00d41	56		 push	 esi
  00d42	8b cb		 mov	 ecx, ebx
  00d44	e8 00 00 00 00	 call	 ??$?5H@CAr@@QAEAAV0@AAH@Z ; CAr::operator>><int>
  00d49	83 c6 0c	 add	 esi, 12			; 0000000cH
  00d4c	83 ef 01	 sub	 edi, 1
  00d4f	75 f0		 jne	 SHORT $LL31@Serialize

; 501  : 				}
; 502  : 			}
; 503  : 			ar >> m_nGuildCombatState;

  00d51	8b bd 3c ff ff
	ff		 mov	 edi, DWORD PTR _this$GSCopy$1$[ebp]
  00d57	8b cb		 mov	 ecx, ebx
  00d59	8d 87 a4 3b 00
	00		 lea	 eax, DWORD PTR [edi+15268]
  00d5f	50		 push	 eax
  00d60	e8 00 00 00 00	 call	 ??$?5H@CAr@@QAEAAV0@AAH@Z ; CAr::operator>><int>
  00d65	33 f6		 xor	 esi, esi
$LL34@Serialize:

; 504  : 			
; 505  : 			for( int j = 0 ; j < SM_MAX ; ++j )
; 506  : 				ar >> m_dwSMTime[j];

  00d67	8d 87 f4 3e 00
	00		 lea	 eax, DWORD PTR [edi+16116]
  00d6d	8b cb		 mov	 ecx, ebx
  00d6f	50		 push	 eax
  00d70	e8 00 00 00 00	 call	 ??$?5K@CAr@@QAEAAV0@AAK@Z ; CAr::operator>><unsigned long>
  00d75	83 c6 04	 add	 esi, 4
  00d78	8d 7f 04	 lea	 edi, DWORD PTR [edi+4]
  00d7b	83 fe 68	 cmp	 esi, 104		; 00000068H
  00d7e	7c e7		 jl	 SHORT $LL34@Serialize

; 507  : 			// Ŕĺľî±¸ŔĚ, ˝ĹĽÓŔÇ µÎ·ç¸¶¸® µîŔÇ żążÜĂł¸®´Â m_nPlusMaxHitPointµîŔĚ ĽĽĆ®µÇ°í OnApplySM() ˝ÇÇŕÇŃ´Ů.
; 508  : 
; 509  : 			if( CObj::GetMethod() == METHOD_NONE )

  00d80	a1 00 00 00 00	 mov	 eax, DWORD PTR ?m_nMethod@CObj@@2HA ; CObj::m_nMethod
  00d85	8b bd 3c ff ff
	ff		 mov	 edi, DWORD PTR _this$GSCopy$1$[ebp]
  00d8b	85 c0		 test	 eax, eax
  00d8d	0f 85 a0 03 00
	00		 jne	 $LN86@Serialize

; 510  : 			{
; 511  : 				m_nManaPoint	= 0;

  00d93	8d 87 98 00 00
	00		 lea	 eax, DWORD PTR [edi+152]

; 512  : 				m_nFatiguePoint	= 0;
; 513  : #if __VER < 12 // __MOD_TUTORIAL
; 514  : 				m_nFlightLv		= 0;
; 515  : #endif	// __MOD_TUTORIAL
; 516  : 				m_nRemainGP		= 0;
; 517  : 
; 518  : 				ar >> (u_short&)m_nManaPoint;

  00d99	8b cb		 mov	 ecx, ebx
  00d9b	8d b7 9c 00 00
	00		 lea	 esi, DWORD PTR [edi+156]
  00da1	c7 00 00 00 00
	00		 mov	 DWORD PTR [eax], 0
  00da7	50		 push	 eax
  00da8	c7 06 00 00 00
	00		 mov	 DWORD PTR [esi], 0
  00dae	c7 87 dc 02 00
	00 00 00 00 00	 mov	 DWORD PTR [edi+732], 0
  00db8	e8 00 00 00 00	 call	 ??$?5G@CAr@@QAEAAV0@AAG@Z ; CAr::operator>><unsigned short>

; 519  : 				ar >> (u_short&)m_nFatiguePoint;

  00dbd	56		 push	 esi
  00dbe	8b cb		 mov	 ecx, ebx
  00dc0	e8 00 00 00 00	 call	 ??$?5G@CAr@@QAEAAV0@AAG@Z ; CAr::operator>><unsigned short>

; 520  : #if __VER >= 12 // __MOD_TUTORIAL
; 521  : 				ar >> m_nTutorialState;

  00dc5	8d 87 b0 00 00
	00		 lea	 eax, DWORD PTR [edi+176]
  00dcb	8b cb		 mov	 ecx, ebx
  00dcd	50		 push	 eax
  00dce	e8 00 00 00 00	 call	 ??$?5H@CAr@@QAEAAV0@AAH@Z ; CAr::operator>><int>

; 522  : #ifdef __CLIENT
; 523  : 				g_Option.m_nTutorialLv	= m_nTutorialState;
; 524  : #endif	// __CLIENT
; 525  : #else	// __MOD_TUTORIAL
; 526  : 				ar >> (u_short&)m_nFlightLv;
; 527  : #endif	// __MOD_TUTORIAL
; 528  : 				ar >> m_nFxp;

  00dd3	8d 87 b4 00 00
	00		 lea	 eax, DWORD PTR [edi+180]
  00dd9	8b cb		 mov	 ecx, ebx
  00ddb	50		 push	 eax
  00ddc	e8 00 00 00 00	 call	 ??$?5J@CAr@@QAEAAV0@AAJ@Z ; CAr::operator>><long>

; 529  : 
; 530  : 				ar >> dwGold;

  00de1	8d 85 44 ff ff
	ff		 lea	 eax, DWORD PTR _dwGold$[ebp]
  00de7	8b cb		 mov	 ecx, ebx
  00de9	50		 push	 eax
  00dea	e8 00 00 00 00	 call	 ??$?5K@CAr@@QAEAAV0@AAK@Z ; CAr::operator>><unsigned long>
; File C:\IAGOS\server\v18\Source\Source\_Network\Objects\Obj.h

; 1233 : 	m_dwGold = (DWORD)nGold;

  00def	8b 85 44 ff ff
	ff		 mov	 eax, DWORD PTR _dwGold$[ebp]
; File C:\IAGOS\server\v18\Source\Source\_common\ObjSerializeOpt.cpp

; 533  : 				ar >> m_nExp1;

  00df5	8b cb		 mov	 ecx, ebx
; File C:\IAGOS\server\v18\Source\Source\_Network\Objects\Obj.h

; 1233 : 	m_dwGold = (DWORD)nGold;

  00df7	89 47 34	 mov	 DWORD PTR [edi+52], eax
; File C:\IAGOS\server\v18\Source\Source\_common\ObjSerializeOpt.cpp

; 533  : 				ar >> m_nExp1;

  00dfa	8d 87 f0 00 00
	00		 lea	 eax, DWORD PTR [edi+240]
  00e00	50		 push	 eax
  00e01	e8 00 00 00 00	 call	 ??$?5_J@CAr@@QAEAAV0@AA_J@Z ; CAr::operator>><__int64>

; 534  : 				ar >> m_nSkillLevel;

  00e06	8d 87 a8 3b 00
	00		 lea	 eax, DWORD PTR [edi+15272]
  00e0c	8b cb		 mov	 ecx, ebx
  00e0e	50		 push	 eax
  00e0f	e8 00 00 00 00	 call	 ??$?5H@CAr@@QAEAAV0@AAH@Z ; CAr::operator>><int>

; 535  : 				ar >> m_nSkillPoint;

  00e14	8d 87 ac 3b 00
	00		 lea	 eax, DWORD PTR [edi+15276]
  00e1a	8b cb		 mov	 ecx, ebx
  00e1c	50		 push	 eax
  00e1d	e8 00 00 00 00	 call	 ??$?5H@CAr@@QAEAAV0@AAH@Z ; CAr::operator>><int>

; 536  : 				ar >> m_nDeathExp;

  00e22	8d 87 f8 00 00
	00		 lea	 eax, DWORD PTR [edi+248]
  00e28	8b cb		 mov	 ecx, ebx
  00e2a	50		 push	 eax
  00e2b	e8 00 00 00 00	 call	 ??$?5_J@CAr@@QAEAAV0@AA_J@Z ; CAr::operator>><__int64>

; 537  : 				ar >> m_nDeathLevel; 

  00e30	8d 87 e8 00 00
	00		 lea	 eax, DWORD PTR [edi+232]
  00e36	8b cb		 mov	 ecx, ebx
  00e38	50		 push	 eax
  00e39	e8 00 00 00 00	 call	 ??$?5J@CAr@@QAEAAV0@AAJ@Z ; CAr::operator>><long>

; 538  : 				DWORD dwJobLv[MAX_JOB];		// »çżëÇĎÁö ľĘŔ˝ 
; 539  : 				ar.Read( (void*)dwJobLv, sizeof(DWORD) * MAX_JOB );

  00e3e	68 a0 00 00 00	 push	 160			; 000000a0H
  00e43	8d 85 48 ff ff
	ff		 lea	 eax, DWORD PTR _dwJobLv$59[ebp]
  00e49	8b cb		 mov	 ecx, ebx
  00e4b	50		 push	 eax
  00e4c	e8 00 00 00 00	 call	 ?Read@CAr@@QAEXPAXI@Z	; CAr::Read

; 540  : 				ar >> m_idMarkingWorld;

  00e51	8d 87 cc 02 00
	00		 lea	 eax, DWORD PTR [edi+716]
  00e57	8b cb		 mov	 ecx, ebx
  00e59	50		 push	 eax
  00e5a	e8 00 00 00 00	 call	 ??$?5K@CAr@@QAEAAV0@AAK@Z ; CAr::operator>><unsigned long>

; 541  : 				ar >> m_vMarkingPos;

  00e5f	8d 87 d0 02 00
	00		 lea	 eax, DWORD PTR [edi+720]
  00e65	8b cb		 mov	 ecx, ebx
  00e67	50		 push	 eax
  00e68	e8 00 00 00 00	 call	 ??$?5UD3DXVECTOR3@@@CAr@@QAEAAV0@AAUD3DXVECTOR3@@@Z ; CAr::operator>><D3DXVECTOR3>

; 542  : 				ar >> m_nQuestSize;

  00e6d	8d b7 f4 40 00
	00		 lea	 esi, DWORD PTR [edi+16628]
  00e73	8b cb		 mov	 ecx, ebx
  00e75	56		 push	 esi
  00e76	e8 00 00 00 00	 call	 ??$?5E@CAr@@QAEAAV0@AAE@Z ; CAr::operator>><unsigned char>

; 543  : 				ar.Read( m_aQuest, sizeof(QUEST) * m_nQuestSize ); 

  00e7b	0f b6 06	 movzx	 eax, BYTE PTR [esi]
  00e7e	8b cb		 mov	 ecx, ebx
  00e80	8d 04 40	 lea	 eax, DWORD PTR [eax+eax*2]
  00e83	c1 e0 02	 shl	 eax, 2
  00e86	50		 push	 eax
  00e87	ff b7 ec 40 00
	00		 push	 DWORD PTR [edi+16620]
  00e8d	e8 00 00 00 00	 call	 ?Read@CAr@@QAEXPAXI@Z	; CAr::Read

; 544  : 				ar >> m_nCompleteQuestSize;

  00e92	8d b7 f5 40 00
	00		 lea	 esi, DWORD PTR [edi+16629]
  00e98	8b cb		 mov	 ecx, ebx
  00e9a	56		 push	 esi
  00e9b	e8 00 00 00 00	 call	 ??$?5E@CAr@@QAEAAV0@AAE@Z ; CAr::operator>><unsigned char>

; 545  : 				ar.Read( m_aCompleteQuest, sizeof(WORD) * m_nCompleteQuestSize ); 

  00ea0	0f b6 06	 movzx	 eax, BYTE PTR [esi]
  00ea3	8b cb		 mov	 ecx, ebx
  00ea5	03 c0		 add	 eax, eax
  00ea7	50		 push	 eax
  00ea8	ff b7 f0 40 00
	00		 push	 DWORD PTR [edi+16624]
  00eae	e8 00 00 00 00	 call	 ?Read@CAr@@QAEXPAXI@Z	; CAr::Read

; 546  : 
; 547  : #if __VER >= 15 // __IMPROVE_QUEST_INTERFACE
; 548  : 				ar >> m_nCheckedQuestSize;

  00eb3	8d b7 0c 41 00
	00		 lea	 esi, DWORD PTR [edi+16652]
  00eb9	56		 push	 esi
  00eba	8b cb		 mov	 ecx, ebx
  00ebc	e8 00 00 00 00	 call	 ??$?5E@CAr@@QAEAAV0@AAE@Z ; CAr::operator>><unsigned char>

; 549  : 				ar.Read( m_aCheckedQuest, sizeof(WORD) * m_nCheckedQuestSize );

  00ec1	0f b6 06	 movzx	 eax, BYTE PTR [esi]
  00ec4	8b cb		 mov	 ecx, ebx
  00ec6	03 c0		 add	 eax, eax
  00ec8	50		 push	 eax
  00ec9	ff b7 08 41 00
	00		 push	 DWORD PTR [edi+16648]
  00ecf	e8 00 00 00 00	 call	 ?Read@CAr@@QAEXPAXI@Z	; CAr::Read

; 550  : #endif // __IMPROVE_QUEST_INTERFACE
; 551  : 
; 552  : 				ar >> m_idMurderer;

  00ed4	8d 87 98 3b 00
	00		 lea	 eax, DWORD PTR [edi+15256]
  00eda	8b cb		 mov	 ecx, ebx
  00edc	50		 push	 eax
  00edd	e8 00 00 00 00	 call	 ??$?5K@CAr@@QAEAAV0@AAK@Z ; CAr::operator>><unsigned long>

; 553  : 				short n1, n2;		// n2´Â »çżëÇĎÁö ľĘ´Â´Ů.
; 554  : 				ar >> n1 >> n2;		

  00ee2	8d 85 30 ff ff
	ff		 lea	 eax, DWORD PTR _n2$8[ebp]
  00ee8	8b cb		 mov	 ecx, ebx
  00eea	50		 push	 eax
  00eeb	8d 85 44 ff ff
	ff		 lea	 eax, DWORD PTR _n1$18[ebp]
  00ef1	50		 push	 eax
  00ef2	e8 00 00 00 00	 call	 ??$?5F@CAr@@QAEAAV0@AAF@Z ; CAr::operator>><short>
  00ef7	8b c8		 mov	 ecx, eax
  00ef9	e8 00 00 00 00	 call	 ??$?5F@CAr@@QAEAAV0@AAF@Z ; CAr::operator>><short>

; 555  : 				m_nRemainGP	= n1;

  00efe	0f bf 85 44 ff
	ff ff		 movsx	 eax, WORD PTR _n1$18[ebp]
  00f05	8d b7 70 3f 00
	00		 lea	 esi, DWORD PTR [edi+16240]
  00f0b	89 87 dc 02 00
	00		 mov	 DWORD PTR [edi+732], eax
  00f11	c7 85 44 ff ff
	ff 1f 00 00 00	 mov	 DWORD PTR tv2633[ebp], 31 ; 0000001fH
  00f1b	0f 1f 44 00 00	 npad	 5
$LL37@Serialize:

; 556  : 				{
; 557  : 					for( int i = 0; i < MAX_HUMAN_PARTS; i++ )
; 558  : 						ar >> m_aEquipInfo[i].dwId;

  00f20	56		 push	 esi
  00f21	8b cb		 mov	 ecx, ebx
  00f23	e8 00 00 00 00	 call	 ??$?5K@CAr@@QAEAAV0@AAK@Z ; CAr::operator>><unsigned long>
  00f28	83 c6 0c	 add	 esi, 12			; 0000000cH
  00f2b	83 ad 44 ff ff
	ff 01		 sub	 DWORD PTR tv2633[ebp], 1
  00f32	75 ec		 jne	 SHORT $LL37@Serialize

; 559  : 				}
; 560  : #ifdef __SKILL_0205
; 561  : 				ar.Read( (void*)m_aJobSkill, sizeof(SKILL) *  ( MAX_SKILL_JOB ) );

  00f34	68 98 01 00 00	 push	 408			; 00000198H
  00f39	8d 87 00 01 00
	00		 lea	 eax, DWORD PTR [edi+256]
  00f3f	8b cb		 mov	 ecx, ebx
  00f41	50		 push	 eax
  00f42	e8 00 00 00 00	 call	 ?Read@CAr@@QAEXPAXI@Z	; CAr::Read
  00f47	33 c9		 xor	 ecx, ecx
  00f49	0f 1f 80 00 00
	00 00		 npad	 7
$LL40@Serialize:

; 562  : 				for( int i = 0 ; i < MAX_SKILL_JOB; i++)
; 563  : 					m_abUpdateSkill[i]	= (BOOL)( memcmp( &m_aJobSkill[i], &aJobSkill[i], sizeof(SKILL) ) != 0 );

  00f50	8b 84 cf 00 01
	00 00		 mov	 eax, DWORD PTR [edi+ecx*8+256]
  00f57	3b 84 cd 90 fd
	ff ff		 cmp	 eax, DWORD PTR _aJobSkill$1[ebp+ecx*8]
  00f5e	75 14		 jne	 SHORT $LN200@Serialize
  00f60	8b 84 cf 04 01
	00 00		 mov	 eax, DWORD PTR [edi+ecx*8+260]
  00f67	3b 84 cd 94 fd
	ff ff		 cmp	 eax, DWORD PTR _aJobSkill$1[ebp+ecx*8+4]
  00f6e	75 04		 jne	 SHORT $LN200@Serialize
  00f70	32 c0		 xor	 al, al
  00f72	eb 02		 jmp	 SHORT $LN201@Serialize
$LN200@Serialize:
  00f74	b0 01		 mov	 al, 1
$LN201@Serialize:
  00f76	88 84 39 98 02
	00 00		 mov	 BYTE PTR [ecx+edi+664], al
  00f7d	41		 inc	 ecx
  00f7e	83 f9 33	 cmp	 ecx, 51			; 00000033H
  00f81	7c cd		 jl	 SHORT $LL40@Serialize

; 564  : #else	// __SKILL_0205
; 565  : 				ar.Read( (void*)m_aJobSkill, sizeof(SKILL) *  ( MAX_SKILL_JOB ) );
; 566  : #endif	// __SKILL_0205
; 567  : 
; 568  : 				m_nCheerPoint	= 0;

  00f83	8d 87 00 41 00
	00		 lea	 eax, DWORD PTR [edi+16640]

; 569  : 				ar >> (BYTE&)m_nCheerPoint >> m_dwTickCheer;

  00f89	81 c7 fc 40 00
	00		 add	 edi, 16636		; 000040fcH
  00f8f	8b cb		 mov	 ecx, ebx
  00f91	c7 00 00 00 00
	00		 mov	 DWORD PTR [eax], 0
  00f97	57		 push	 edi
  00f98	50		 push	 eax
  00f99	e8 00 00 00 00	 call	 ??$?5E@CAr@@QAEAAV0@AAE@Z ; CAr::operator>><unsigned char>
  00f9e	8b c8		 mov	 ecx, eax
  00fa0	e8 00 00 00 00	 call	 ??$?5K@CAr@@QAEAAV0@AAK@Z ; CAr::operator>><unsigned long>

; 570  : 				m_dwTickCheer	+= GetTickCount();

  00fa5	8b 37		 mov	 esi, DWORD PTR [edi]
  00fa7	ff 15 00 00 00
	00		 call	 DWORD PTR __imp__GetTickCount@0
  00fad	03 c6		 add	 eax, esi

; 571  : 				ar >> m_nSlot;

  00faf	8b cb		 mov	 ecx, ebx
  00fb1	89 07		 mov	 DWORD PTR [edi], eax
  00fb3	8b bd 3c ff ff
	ff		 mov	 edi, DWORD PTR _this$GSCopy$1$[ebp]
  00fb9	8d 87 c8 00 00
	00		 lea	 eax, DWORD PTR [edi+200]
  00fbf	50		 push	 eax
  00fc0	e8 00 00 00 00	 call	 ??$?5E@CAr@@QAEAAV0@AAE@Z ; CAr::operator>><unsigned char>
  00fc5	33 f6		 xor	 esi, esi
$LL43@Serialize:

; 572  : 				for( int k = 0 ; k < 3 ; ++k )
; 573  : 					ar >> m_dwGoldBank[k];

  00fc7	8d 87 20 3c 00
	00		 lea	 eax, DWORD PTR [edi+15392]
  00fcd	8b cb		 mov	 ecx, ebx
  00fcf	50		 push	 eax
  00fd0	e8 00 00 00 00	 call	 ??$?5K@CAr@@QAEAAV0@AAK@Z ; CAr::operator>><unsigned long>
  00fd5	83 c6 04	 add	 esi, 4
  00fd8	8d 7f 04	 lea	 edi, DWORD PTR [edi+4]
  00fdb	83 fe 0c	 cmp	 esi, 12			; 0000000cH
  00fde	7c e7		 jl	 SHORT $LL43@Serialize

; 574  : 				for( int k = 0 ; k < 3 ; ++k )

  00fe0	8b bd 3c ff ff
	ff		 mov	 edi, DWORD PTR _this$GSCopy$1$[ebp]
  00fe6	33 f6		 xor	 esi, esi
  00fe8	0f 1f 84 00 00
	00 00 00	 npad	 8
$LL46@Serialize:

; 575  : 					ar >> m_idPlayerBank[k];

  00ff0	8d 87 d8 3b 00
	00		 lea	 eax, DWORD PTR [edi+15320]
  00ff6	8b cb		 mov	 ecx, ebx
  00ff8	50		 push	 eax
  00ff9	e8 00 00 00 00	 call	 ??$?5K@CAr@@QAEAAV0@AAK@Z ; CAr::operator>><unsigned long>
  00ffe	83 c6 04	 add	 esi, 4
  01001	8d 7f 04	 lea	 edi, DWORD PTR [edi+4]
  01004	83 fe 0c	 cmp	 esi, 12			; 0000000cH
  01007	7c e7		 jl	 SHORT $LL46@Serialize

; 576  : 
; 577  : 				ar >> m_nPlusMaxHitPoint;

  01009	8b bd 3c ff ff
	ff		 mov	 edi, DWORD PTR _this$GSCopy$1$[ebp]
  0100f	8b cb		 mov	 ecx, ebx
  01011	8d 87 f0 3e 00
	00		 lea	 eax, DWORD PTR [edi+16112]
  01017	50		 push	 eax
  01018	e8 00 00 00 00	 call	 ??$?5J@CAr@@QAEAAV0@AAJ@Z ; CAr::operator>><long>

; 578  : 				ar >> m_nAttackResistLeft;

  0101d	8d 87 5c 3f 00
	00		 lea	 eax, DWORD PTR [edi+16220]
  01023	8b cb		 mov	 ecx, ebx
  01025	50		 push	 eax
  01026	e8 00 00 00 00	 call	 ??$?5E@CAr@@QAEAAV0@AAE@Z ; CAr::operator>><unsigned char>

; 579  : 				ar >> m_nAttackResistRight;

  0102b	8d 87 5d 3f 00
	00		 lea	 eax, DWORD PTR [edi+16221]
  01031	8b cb		 mov	 ecx, ebx
  01033	50		 push	 eax
  01034	e8 00 00 00 00	 call	 ??$?5E@CAr@@QAEAAV0@AAE@Z ; CAr::operator>><unsigned char>

; 580  : 				ar >> m_nDefenseResist;

  01039	8d 87 5e 3f 00
	00		 lea	 eax, DWORD PTR [edi+16222]
  0103f	8b cb		 mov	 ecx, ebx
  01041	50		 push	 eax
  01042	e8 00 00 00 00	 call	 ??$?5E@CAr@@QAEAAV0@AAE@Z ; CAr::operator>><unsigned char>

; 581  : #if __VER >= 8 //__CSC_VER8_5
; 582  : 				ar >> m_nAngelExp;

  01047	8d 87 88 3b 00
	00		 lea	 eax, DWORD PTR [edi+15240]
  0104d	8b cb		 mov	 ecx, ebx
  0104f	50		 push	 eax
  01050	e8 00 00 00 00	 call	 ??$?5_J@CAr@@QAEAAV0@AA_J@Z ; CAr::operator>><__int64>

; 583  : 				ar >> m_nAngelLevel;

  01055	8d 87 90 3b 00
	00		 lea	 eax, DWORD PTR [edi+15248]
  0105b	8b cb		 mov	 ecx, ebx
  0105d	50		 push	 eax
  0105e	e8 00 00 00 00	 call	 ??$?5J@CAr@@QAEAAV0@AAJ@Z ; CAr::operator>><long>

; 584  : #endif // __CSC_VER8_5
; 585  : 				m_Inventory.Serialize( ar );

  01063	8d 87 b4 3b 00
	00		 lea	 eax, DWORD PTR [edi+15284]
  01069	53		 push	 ebx
  0106a	8b c8		 mov	 ecx, eax
  0106c	89 85 38 ff ff
	ff		 mov	 DWORD PTR tv2525[ebp], eax
  01072	e8 00 00 00 00	 call	 ?Serialize@?$CItemContainer@VCItemElem@@@@QAEXAAVCAr@@@Z ; CItemContainer<CItemElem>::Serialize
  01077	8d b7 e4 3b 00
	00		 lea	 esi, DWORD PTR [edi+15332]
  0107d	bf 03 00 00 00	 mov	 edi, 3
$LL49@Serialize:

; 586  : 				for( int k = 0 ; k < 3 ; ++k )
; 587  : 					m_Bank[k].Serialize( ar );

  01082	53		 push	 ebx
  01083	8b ce		 mov	 ecx, esi
  01085	e8 00 00 00 00	 call	 ?Serialize@?$CItemContainer@VCItemElem@@@@QAEXAAVCAr@@@Z ; CItemContainer<CItemElem>::Serialize
  0108a	83 c6 14	 add	 esi, 20			; 00000014H
  0108d	83 ef 01	 sub	 edi, 1
  01090	75 f0		 jne	 SHORT $LL49@Serialize

; 588  : 
; 589  : 				CItemElem* pItemElem	= m_Inventory.GetEquip( PARTS_RIDE );

  01092	8b 8d 38 ff ff
	ff		 mov	 ecx, DWORD PTR tv2525[ebp]
  01098	6a 0d		 push	 13			; 0000000dH
  0109a	e8 00 00 00 00	 call	 ?GetEquip@?$CItemContainer@VCItemElem@@@@QAEPAVCItemElem@@K@Z ; CItemContainer<CItemElem>::GetEquip

; 590  : 				if( pItemElem )

  0109f	8b bd 3c ff ff
	ff		 mov	 edi, DWORD PTR _this$GSCopy$1$[ebp]
  010a5	85 c0		 test	 eax, eax
  010a7	74 09		 je	 SHORT $LN88@Serialize

; 591  : 					m_dwRideItemIdx		= pItemElem->m_dwItemId;

  010a9	8b 40 08	 mov	 eax, DWORD PTR [eax+8]
  010ac	89 87 bc 00 00
	00		 mov	 DWORD PTR [edi+188], eax
$LN88@Serialize:

; 592  : 
; 593  : #if __VER >= 9	// __PET_0410
; 594  : 				DWORD dwPetId;
; 595  : 				ar >> dwPetId;

  010b2	8d 85 38 ff ff
	ff		 lea	 eax, DWORD PTR _dwPetId$12[ebp]
  010b8	8b cb		 mov	 ecx, ebx
  010ba	50		 push	 eax
  010bb	e8 00 00 00 00	 call	 ??$?5K@CAr@@QAEAAV0@AAK@Z ; CAr::operator>><unsigned long>
; File C:\IAGOS\server\v18\Source\Source\_Network\Objects\Obj.h

; 1083 : 	void	SetPetId( DWORD dwPetId )		{	m_dwPetId	= dwPetId;	}

  010c0	8b 85 38 ff ff
	ff		 mov	 eax, DWORD PTR _dwPetId$12[ebp]
; File C:\IAGOS\server\v18\Source\Source\_common\ObjSerializeOpt.cpp

; 606  : 				m_Pocket.Serialize( ar );

  010c6	8d 8f c8 3b 00
	00		 lea	 ecx, DWORD PTR [edi+15304]
  010cc	53		 push	 ebx
; File C:\IAGOS\server\v18\Source\Source\_Network\Objects\Obj.h

; 1083 : 	void	SetPetId( DWORD dwPetId )		{	m_dwPetId	= dwPetId;	}

  010cd	89 87 80 3c 00
	00		 mov	 DWORD PTR [edi+15488], eax
; File C:\IAGOS\server\v18\Source\Source\_common\ObjSerializeOpt.cpp

; 606  : 				m_Pocket.Serialize( ar );

  010d3	e8 00 00 00 00	 call	 ?Serialize@CPocketController@@QAEXAAVCAr@@@Z ; CPocketController::Serialize

; 607  : #endif	// __SYS_POCKET
; 608  : 
; 609  : #ifdef __JEFF_9_20
; 610  : 				ar >> m_dwMute;

  010d8	8d 87 40 3c 00
	00		 lea	 eax, DWORD PTR [edi+15424]
  010de	8b cb		 mov	 ecx, ebx
  010e0	50		 push	 eax
  010e1	e8 00 00 00 00	 call	 ??$?5K@CAr@@QAEAAV0@AAK@Z ; CAr::operator>><unsigned long>
  010e6	33 f6		 xor	 esi, esi
  010e8	0f 1f 84 00 00
	00 00 00	 npad	 8
$LL52@Serialize:

; 611  : #endif	// __JEFF_9_20
; 612  : #if __VER >= 13 // __HONORABLE_TITLE	// ´ŢŔÎ
; 613  : #ifdef __CLIENT
; 614  : 				CTitleManager::Instance()->InitEarned();
; 615  : #endif	// __CLIENT
; 616  : 				for( int l = 0 ; l < MAX_HONOR_TITLE ; ++l )
; 617  : 				{
; 618  : 					ar >> m_aHonorTitle[l];

  010f0	8d 87 98 3c 00
	00		 lea	 eax, DWORD PTR [edi+15512]
  010f6	8b cb		 mov	 ecx, ebx
  010f8	50		 push	 eax
  010f9	e8 00 00 00 00	 call	 ??$?5H@CAr@@QAEAAV0@AAH@Z ; CAr::operator>><int>
  010fe	83 c6 04	 add	 esi, 4
  01101	8d 7f 04	 lea	 edi, DWORD PTR [edi+4]
  01104	81 fe 58 02 00
	00		 cmp	 esi, 600		; 00000258H
  0110a	7c e4		 jl	 SHORT $LL52@Serialize

; 619  : #ifdef __CLIENT
; 620  : 					int nNeed = CTitleManager::Instance()->GetNeedCount(l, -1);
; 621  : 					if(m_aHonorTitle[l] >= nNeed && nNeed > 0)
; 622  : 					{
; 623  : 						CTitleManager::Instance()->AddEarned(l);	
; 624  : 					}
; 625  : 					else
; 626  : 					{
; 627  : 						// ČąµćµČ Ĺ¸ŔĚĆ˛ŔĚÁö¸¸ żä±¸»çÇ×Ŕ» ĂćÁ·¸řÇĎ°Ô µÉ¶§
; 628  : 						if(CTitleManager::Instance()->IsEarned(l))
; 629  : 						{
; 630  : 							CTitleManager::Instance()->RemoveEarned(l);
; 631  : 						}
; 632  : 					}
; 633  : #endif	// __CLIENT
; 634  : 				}
; 635  : #endif	// __HONORABLE_TITLE			// ´ŢŔÎ
; 636  : #if __VER >= 15 // __CAMPUS
; 637  : 				ar >> m_idCampus;

  0110c	8b bd 3c ff ff
	ff		 mov	 edi, DWORD PTR _this$GSCopy$1$[ebp]
  01112	8b cb		 mov	 ecx, ebx
  01114	8d 87 10 41 00
	00		 lea	 eax, DWORD PTR [edi+16656]
  0111a	50		 push	 eax
  0111b	e8 00 00 00 00	 call	 ??$?5K@CAr@@QAEAAV0@AAK@Z ; CAr::operator>><unsigned long>

; 638  : 				ar >> m_nCampusPoint;

  01120	8d 87 14 41 00
	00		 lea	 eax, DWORD PTR [edi+16660]
  01126	8b cb		 mov	 ecx, ebx
  01128	50		 push	 eax
  01129	e8 00 00 00 00	 call	 ??$?5H@CAr@@QAEAAV0@AAH@Z ; CAr::operator>><int>

; 639  : #endif // __CAMPUS
; 640  : 			}

  0112e	e9 92 01 00 00	 jmp	 $LN83@Serialize
$LN86@Serialize:

; 641  : 			else if( CObj::GetMethod() == METHOD_EXCLUDE_ITEM )

  01133	83 f8 01	 cmp	 eax, 1
  01136	0f 85 89 01 00
	00		 jne	 $LN83@Serialize

; 642  : 			{
; 643  : 			#if defined (__WORLDSERVER) || defined(__CLIENT)
; 644  : 				char szPVendor[MAX_VENDORNAME] = {0, };
; 645  : 				ar.ReadString( szPVendor, MAX_VENDORNAME );
; 646  : 				m_vtInfo.SetTitle( szPVendor );
; 647  : 			#endif
; 648  : 				for( int i = 0; i < MAX_HUMAN_PARTS; i++ )

  0113c	b9 1f 00 00 00	 mov	 ecx, 31			; 0000001fH
  01141	8d 87 70 3f 00
	00		 lea	 eax, DWORD PTR [edi+16240]
  01147	66 0f 1f 84 00
	00 00 00 00	 npad	 9
$LL55@Serialize:

; 649  : 					m_aEquipInfo[i].dwId	= NULL_ID;

  01150	c7 00 ff ff ff
	ff		 mov	 DWORD PTR [eax], -1
  01156	8d 40 0c	 lea	 eax, DWORD PTR [eax+12]
  01159	83 e9 01	 sub	 ecx, 1
  0115c	75 f2		 jne	 SHORT $LL55@Serialize

; 650  : 
; 651  : 				u_char uSize;
; 652  : 				ar >> uSize;

  0115e	8d 85 47 ff ff
	ff		 lea	 eax, DWORD PTR _uSize$55[ebp]
  01164	8b cb		 mov	 ecx, ebx
  01166	50		 push	 eax
  01167	e8 00 00 00 00	 call	 ??$?5E@CAr@@QAEAAV0@AAE@Z ; CAr::operator>><unsigned char>

; 653  : 				u_char uParts;
; 654  : 				u_short	u2;
; 655  : 				for( u_char uCount = 0; uCount < uSize; uCount++ )

  0116c	8a 85 47 ff ff
	ff		 mov	 al, BYTE PTR _uSize$55[ebp]
  01172	84 c0		 test	 al, al
  01174	74 53		 je	 SHORT $LN57@Serialize

; 650  : 
; 651  : 				u_char uSize;
; 652  : 				ar >> uSize;

  01176	0f b6 f0	 movzx	 esi, al
  01179	0f 1f 80 00 00
	00 00		 npad	 7
$LL58@Serialize:

; 656  : 				{
; 657  : 					ar >> uParts;

  01180	8d 85 47 ff ff
	ff		 lea	 eax, DWORD PTR _uParts$47[ebp]
  01186	8b cb		 mov	 ecx, ebx
  01188	50		 push	 eax
  01189	e8 00 00 00 00	 call	 ??$?5E@CAr@@QAEAAV0@AAE@Z ; CAr::operator>><unsigned char>

; 658  : 					ar >> u2;

  0118e	8d 85 30 ff ff
	ff		 lea	 eax, DWORD PTR _u2$7[ebp]
  01194	8b cb		 mov	 ecx, ebx
  01196	50		 push	 eax
  01197	e8 00 00 00 00	 call	 ??$?5G@CAr@@QAEAAV0@AAG@Z ; CAr::operator>><unsigned short>

; 659  : 					m_aEquipInfo[uParts].dwId	= (DWORD)u2;

  0119c	0f b6 85 47 ff
	ff ff		 movzx	 eax, BYTE PTR _uParts$47[ebp]
  011a3	8d 04 40	 lea	 eax, DWORD PTR [eax+eax*2]
  011a6	8d 0c 87	 lea	 ecx, DWORD PTR [edi+eax*4]
  011a9	0f b7 85 30 ff
	ff ff		 movzx	 eax, WORD PTR _u2$7[ebp]
  011b0	89 81 70 3f 00
	00		 mov	 DWORD PTR [ecx+16240], eax

; 660  : 					ar >> m_aEquipInfo[uParts].byFlag;

  011b6	8d 81 78 3f 00
	00		 lea	 eax, DWORD PTR [ecx+16248]
  011bc	50		 push	 eax
  011bd	8b cb		 mov	 ecx, ebx
  011bf	e8 00 00 00 00	 call	 ??$?5E@CAr@@QAEAAV0@AAE@Z ; CAr::operator>><unsigned char>
  011c4	83 ee 01	 sub	 esi, 1
  011c7	75 b7		 jne	 SHORT $LL58@Serialize
$LN57@Serialize:

; 661  : 				}
; 662  : 				if( m_aEquipInfo[PARTS_RIDE].dwId != NULL_ID )

  011c9	8b 87 0c 40 00
	00		 mov	 eax, DWORD PTR [edi+16396]
  011cf	83 f8 ff	 cmp	 eax, -1
  011d2	74 06		 je	 SHORT $LN90@Serialize

; 663  : 					m_dwRideItemIdx		= m_aEquipInfo[PARTS_RIDE].dwId;

  011d4	89 87 bc 00 00
	00		 mov	 DWORD PTR [edi+188], eax
$LN90@Serialize:

; 664  : #if __VER >= 9	// __PET_0410
; 665  : 				DWORD dwPetId;
; 666  : 				ar >> dwPetId;

  011da	8d 85 38 ff ff
	ff		 lea	 eax, DWORD PTR _dwPetId$13[ebp]
  011e0	8b cb		 mov	 ecx, ebx
  011e2	50		 push	 eax
  011e3	e8 00 00 00 00	 call	 ??$?5K@CAr@@QAEAAV0@AAK@Z ; CAr::operator>><unsigned long>
; File C:\IAGOS\server\v18\Source\Source\_Network\Objects\Obj.h

; 1083 : 	void	SetPetId( DWORD dwPetId )		{	m_dwPetId	= dwPetId;	}

  011e8	8b 85 38 ff ff
	ff		 mov	 eax, DWORD PTR _dwPetId$13[ebp]
  011ee	0f 57 c0	 xorps	 xmm0, xmm0
  011f1	89 87 80 3c 00
	00		 mov	 DWORD PTR [edi+15488], eax
; File C:\IAGOS\server\v18\Source\Source\_common\ObjSerializeOpt.cpp

; 670  : 				ar.ReadString( szPetName, MAX_PET_NAME );

  011f7	8b cb		 mov	 ecx, ebx
  011f9	6a 11		 push	 17			; 00000011H
  011fb	8d 45 e8	 lea	 eax, DWORD PTR _szPetName$61[ebp]
  011fe	c6 45 f8 00	 mov	 BYTE PTR _szPetName$61[ebp+16], 0
  01202	50		 push	 eax
  01203	0f 11 45 e8	 movups	 XMMWORD PTR _szPetName$61[ebp], xmm0
  01207	e8 00 00 00 00	 call	 ?ReadString@CAr@@QAEPADPADH@Z ; CAr::ReadString

; 671  : 	#ifdef __CLIENT
; 672  : 				m_pet.SetName( szPetName );
; 673  : 	#endif	// __CLIENT
; 674  : 	#endif	// __PET_1024
; 675  : #endif	// __PET_0410
; 676  : 			}
; 677  : 
; 678  : 		#if defined(__WORLDSERVER) || defined(__CLIENT)
; 679  : 			if( m_dwRideItemIdx )
; 680  : 			{
; 681  : 				ItemProp *pItemProp	= prj.GetItemProp( m_dwRideItemIdx );
; 682  : 				if( pItemProp && m_nFuel == -1 )
; 683  : 					m_nFuel		= (int)( pItemProp->dwFFuelReMax * 0.2f );
; 684  : 			}
; 685  : 			OnApplySM();
; 686  : 		#endif	// __WORLDSERVER	// __CLIENT
; 687  : 
; 688  : 		}

  0120c	e9 b4 00 00 00	 jmp	 $LN83@Serialize
$LN82@Serialize:

; 689  : 		else	// NPC
; 690  : 		{
; 691  : 			ar >> (u_char&)m_dwHairMesh >> m_dwHairColor >> (u_char&)m_dwHeadMesh;

  01211	8d 86 ac 00 00
	00		 lea	 eax, DWORD PTR [esi+172]
  01217	50		 push	 eax
  01218	8d 86 a8 00 00
	00		 lea	 eax, DWORD PTR [esi+168]
  0121e	50		 push	 eax
  0121f	8d 86 a4 00 00
	00		 lea	 eax, DWORD PTR [esi+164]
  01225	50		 push	 eax
  01226	e8 00 00 00 00	 call	 ??$?5E@CAr@@QAEAAV0@AAE@Z ; CAr::operator>><unsigned char>
  0122b	8b c8		 mov	 ecx, eax
  0122d	e8 00 00 00 00	 call	 ??$?5K@CAr@@QAEAAV0@AAK@Z ; CAr::operator>><unsigned long>
  01232	8b c8		 mov	 ecx, eax
  01234	e8 00 00 00 00	 call	 ??$?5E@CAr@@QAEAAV0@AAE@Z ; CAr::operator>><unsigned char>

; 692  : 			ar.ReadString( m_szCharacterKey, 32 );

  01239	6a 20		 push	 32			; 00000020H
  0123b	8d 46 38	 lea	 eax, DWORD PTR [esi+56]
  0123e	8b cb		 mov	 ecx, ebx
  01240	50		 push	 eax
  01241	e8 00 00 00 00	 call	 ?ReadString@CAr@@QAEPADPADH@Z ; CAr::ReadString
  01246	b9 1f 00 00 00	 mov	 ecx, 31			; 0000001fH
  0124b	8d 86 70 3f 00
	00		 lea	 eax, DWORD PTR [esi+16240]
$LL61@Serialize:

; 693  : 		#if defined (__WORLDSERVER) || defined(__CLIENT)
; 694  : 			SetHairColor( m_dwHairColor );
; 695  : 		#endif	// __WORLDSERVER	//__CLIENT
; 696  : 			{
; 697  : 				for( int i = 0; i < MAX_HUMAN_PARTS; i++ )
; 698  : 					m_aEquipInfo[i].dwId	= NULL_ID;

  01251	c7 00 ff ff ff
	ff		 mov	 DWORD PTR [eax], -1
  01257	8d 40 0c	 lea	 eax, DWORD PTR [eax+12]
  0125a	83 e9 01	 sub	 ecx, 1
  0125d	75 f2		 jne	 SHORT $LL61@Serialize

; 699  : 			}
; 700  : 			u_char uSize;
; 701  : 			ar >> uSize;

  0125f	8d 85 47 ff ff
	ff		 lea	 eax, DWORD PTR _uSize$52[ebp]
  01265	8b cb		 mov	 ecx, ebx
  01267	50		 push	 eax
  01268	e8 00 00 00 00	 call	 ??$?5E@CAr@@QAEAAV0@AAE@Z ; CAr::operator>><unsigned char>

; 702  : 			if( IsEquipableNPC() )
; 703  : 			{
; 704  : 				u_char uParts;
; 705  : 				u_short	u2;
; 706  : 				for( u_char uCount = 0; uCount < uSize; uCount++ )
; 707  : 				{
; 708  : 					ar >> uParts;
; 709  : 					ar >> u2;
; 710  : 					m_aEquipInfo[uParts].dwId	= (DWORD)u2;
; 711  : 					/*
; 712  : #ifdef __PERF_0229
; 713  : 					if( GetIndex() == 11 || GetIndex() == 12 )
; 714  : 					{
; 715  : 						int nAttr	= 0; //xRandom( 0,  5 );
; 716  : 						int nAttrLevel	= 0;
; 717  : 						//if( nAttr > 0 )
; 718  : 						//	nAttrLevel= xRandom( 8, 10 );
; 719  : 						int nLevel	= 0;
; 720  : 						//if( nAttr < 3 )
; 721  : 								nLevel	= xRandom( 9, 10 );
; 722  : 						int nOption	= nLevel;
; 723  : 						nOption	|= ( nAttrLevel << 24 );
; 724  : 						nOption	|= (nAttr << 16 );
; 725  : 						m_aEquipInfo[uParts].nOption	= nOption;
; 726  : 					}
; 727  : #endif	// __PERF_0229
; 728  : 					*/
; 729  : 				}
; 730  : 			}
; 731  : 
; 732  : 			m_bActiveAttack	=

  0126d	8b 85 3c ff ff
	ff		 mov	 eax, DWORD PTR _this$GSCopy$1$[ebp]
  01273	8d 7e 64	 lea	 edi, DWORD PTR [esi+100]
  01276	83 c0 58	 add	 eax, 88			; 00000058H
  01279	c7 07 00 00 00
	00		 mov	 DWORD PTR [edi], 0
  0127f	83 c6 60	 add	 esi, 96			; 00000060H

; 733  : 			m_nMovePattern	=
; 734  : 			m_nMoveEvent	=
; 735  : 									0;
; 736  : 
; 737  : 			ar >> (u_char&)m_bActiveAttack;

  01282	8b cb		 mov	 ecx, ebx
  01284	50		 push	 eax
  01285	c7 00 00 00 00
	00		 mov	 DWORD PTR [eax], 0
  0128b	c7 06 00 00 00
	00		 mov	 DWORD PTR [esi], 0
  01291	e8 00 00 00 00	 call	 ??$?5E@CAr@@QAEAAV0@AAE@Z ; CAr::operator>><unsigned char>

; 738  : 			ar >> (u_char&)m_nMovePattern;

  01296	56		 push	 esi
  01297	8b cb		 mov	 ecx, ebx
  01299	e8 00 00 00 00	 call	 ??$?5E@CAr@@QAEAAV0@AAE@Z ; CAr::operator>><unsigned char>

; 739  : 			ar >> (u_char&)m_nMoveEvent;

  0129e	57		 push	 edi
  0129f	8b cb		 mov	 ecx, ebx
  012a1	e8 00 00 00 00	 call	 ??$?5E@CAr@@QAEAAV0@AAE@Z ; CAr::operator>><unsigned char>

; 740  : 			ar >> m_nMoveEventCnt;

  012a6	8b bd 3c ff ff
	ff		 mov	 edi, DWORD PTR _this$GSCopy$1$[ebp]
  012ac	8b cb		 mov	 ecx, ebx
  012ae	8d 47 68	 lea	 eax, DWORD PTR [edi+104]
  012b1	50		 push	 eax
  012b2	e8 00 00 00 00	 call	 ??$?5H@CAr@@QAEAAV0@AAH@Z ; CAr::operator>><int>

; 741  : 		#ifdef __CLIENT
; 742  : 			if( *m_szCharacterKey )
; 743  : 			{
; 744  : 				LPCHARACTER pCharacter	= prj.GetCharacter( m_szCharacterKey );
; 745  : 				if( pCharacter )
; 746  : 				{
; 747  : 					_tcscpy( m_szName, pCharacter->m_strName );
; 748  : 					AllocShopInventory( pCharacter );
; 749  : 				}
; 750  : 			}
; 751  : 		#endif	// __CLIENT
; 752  : #if __VER >= 9	//__AI_0509
; 753  : 			ar >> m_fSpeedFactor;

  012b7	8d 87 84 3c 00
	00		 lea	 eax, DWORD PTR [edi+15492]
  012bd	8b cb		 mov	 ecx, ebx
  012bf	50		 push	 eax
  012c0	e8 00 00 00 00	 call	 ??$?5M@CAr@@QAEAAV0@AAM@Z ; CAr::operator>><float>
$LN83@Serialize:

; 754  : #endif	// __AI_0509
; 755  : 		}
; 756  : 
; 757  : #ifdef __BUFF_1107
; 758  : 		m_buffs.Serialize( ar );
; 759  : #else	// __BUFF_1107
; 760  : 		m_SkillState.Serialize( ar );
; 761  : #endif	// __BUFF_1107
; 762  : 
; 763  : 	#ifdef __CLIENT
; 764  : 		InitInterpolation();
; 765  : 	#endif	// __CLIENT
; 766  : 
; 767  : 	} // LOADING
; 768  : 
; 769  : #ifdef __CLIENT	
; 770  : 	m_fDestScale = GetScale().x;
; 771  : 	if( m_fDestScale > 10.0f )
; 772  : 	{
; 773  : 		LPCTSTR szErr = Error( "SerializeOpt:%f %s", m_fDestScale, GetName() );
; 774  : 		ADDERRORMSG( szErr );
; 775  : 	}
; 776  : #endif
; 777  : }

  012c5	53		 push	 ebx
  012c6	8d 8f 60 3f 00
	00		 lea	 ecx, DWORD PTR [edi+16224]
  012cc	e8 00 00 00 00	 call	 ?Serialize@CBuffMgr@@QAEXAAVCAr@@@Z ; CBuffMgr::Serialize
  012d1	8b 4d fc	 mov	 ecx, DWORD PTR __$ArrayPad$[ebp]
  012d4	5f		 pop	 edi
  012d5	5e		 pop	 esi
  012d6	33 cd		 xor	 ecx, ebp
  012d8	5b		 pop	 ebx
  012d9	e8 00 00 00 00	 call	 @__security_check_cookie@4
  012de	8b e5		 mov	 esp, ebp
  012e0	5d		 pop	 ebp
  012e1	c2 04 00	 ret	 4
?Serialize@CMover@@UAEXAAVCAr@@@Z ENDP			; CMover::Serialize
_TEXT	ENDS
; Function compile flags: /Ogtp
; File C:\IAGOS\server\v18\Source\Source\_Network\Objects\Obj.h
; File C:\IAGOS\server\v18\Source\Source\_Network\Misc\Include\Ar.h
; File C:\IAGOS\server\v18\Source\Source\_Network\Objects\Obj.h
; File C:\IAGOS\server\v18\Source\Source\_Network\Misc\Include\Ar.h
; File C:\IAGOS\server\v18\Source\Source\_Network\Objects\Obj.h
; File C:\IAGOS\server\v18\Source\Source\_Network\Misc\Include\Ar.h
; File C:\IAGOS\server\v18\Source\Source\_Network\Objects\Obj.h
;	COMDAT ?Serialize@?$CItemContainer@VCItemElem@@@@QAEXAAVCAr@@@Z
_TEXT	SEGMENT
_nBufSize$1 = -532					; size = 4
tv623 = -528						; size = 4
_uOffset$1$ = -524					; size = 4
_ar$GSCopy$1$ = -524					; size = 4
$T2 = -520						; size = 1
_ch$3 = -519						; size = 1
$T4 = -519						; size = 1
_chSize$1$ = -518					; size = 1
_chSize$ = -517						; size = 1
_ch$5 = -517						; size = 1
_adwObjIndex$ = -516					; size = 512
__$ArrayPad$ = -4					; size = 4
_ar$ = 8						; size = 4
?Serialize@?$CItemContainer@VCItemElem@@@@QAEXAAVCAr@@@Z PROC ; CItemContainer<CItemElem>::Serialize, COMDAT
; _this$ = ecx

; 802  : {

  00000	55		 push	 ebp
  00001	8b ec		 mov	 ebp, esp
  00003	81 ec 14 02 00
	00		 sub	 esp, 532		; 00000214H
  00009	a1 00 00 00 00	 mov	 eax, DWORD PTR ___security_cookie
  0000e	33 c5		 xor	 eax, ebp
  00010	89 45 fc	 mov	 DWORD PTR __$ArrayPad$[ebp], eax
  00013	53		 push	 ebx
  00014	56		 push	 esi
  00015	8b f1		 mov	 esi, ecx

; 803  : //	for( int i = 0; i < m_dwItemMax; i++ )	// 462
; 804  : //		m_apItem[i].Serialize( ar );
; 805  : 	DWORD	adwObjIndex[128];
; 806  : 
; 807  : 	unsigned char chSize	= 0;

  00017	32 db		 xor	 bl, bl
  00019	57		 push	 edi
  0001a	8b 7d 08	 mov	 edi, DWORD PTR _ar$[ebp]
  0001d	89 bd f4 fd ff
	ff		 mov	 DWORD PTR _ar$GSCopy$1$[ebp], edi
; File C:\IAGOS\server\v18\Source\Source\_Network\Misc\Include\Ar.h

; 146  : 	return (m_nMode & CAr::load) == 0;

  00023	8b 46 10	 mov	 eax, DWORD PTR [esi+16]
  00026	8b 4e 04	 mov	 ecx, DWORD PTR [esi+4]
  00029	c1 e0 02	 shl	 eax, 2
  0002c	f6 07 01	 test	 BYTE PTR [edi], 1
; File C:\IAGOS\server\v18\Source\Source\_Network\Objects\Obj.h

; 809  : 	if( ar.IsStoring() )

  0002f	50		 push	 eax
  00030	51		 push	 ecx
  00031	88 9d fa fd ff
	ff		 mov	 BYTE PTR _chSize$1$[ebp], bl
  00037	8b cf		 mov	 ecx, edi
  00039	88 9d fb fd ff
	ff		 mov	 BYTE PTR _chSize$[ebp], bl
  0003f	0f 85 08 01 00
	00		 jne	 $LN14@Serialize

; 810  : 	{
; 811  : 		
; 812  : 		ar.Write( m_apIndex, sizeof(DWORD) * m_dwItemMax );

  00045	e8 00 00 00 00	 call	 ?Write@CAr@@QAEXPBXI@Z	; CAr::Write
; File C:\IAGOS\server\v18\Source\Source\_Network\Misc\Include\Ar.h

; 356  : 	return( m_lpBufCur - m_lpBufStart );

  0004a	8b 47 08	 mov	 eax, DWORD PTR [edi+8]
; File C:\IAGOS\server\v18\Source\Source\_Network\Objects\Obj.h

; 814  : 		ar << chSize;

  0004d	8b cf		 mov	 ecx, edi
; File C:\IAGOS\server\v18\Source\Source\_Network\Misc\Include\Ar.h

; 356  : 	return( m_lpBufCur - m_lpBufStart );

  0004f	2b 47 10	 sub	 eax, DWORD PTR [edi+16]
  00052	89 85 f4 fd ff
	ff		 mov	 DWORD PTR _uOffset$1$[ebp], eax
; File C:\IAGOS\server\v18\Source\Source\_Network\Objects\Obj.h

; 814  : 		ar << chSize;

  00058	8d 85 fb fd ff
	ff		 lea	 eax, DWORD PTR _chSize$[ebp]
  0005e	50		 push	 eax
  0005f	e8 00 00 00 00	 call	 ??$?6E@CAr@@QAEAAV0@ABE@Z ; CAr::operator<<<unsigned char>

; 815  : 
; 816  : 		for( u_char ch = 0; ch < m_dwItemMax; ch++ )	// 0-504

  00064	8b 56 10	 mov	 edx, DWORD PTR [esi+16]
  00067	88 9d fb fd ff
	ff		 mov	 BYTE PTR _ch$5[ebp], bl
  0006d	85 d2		 test	 edx, edx
  0006f	0f 84 98 00 00
	00		 je	 $LN3@Serialize
  00075	32 c9		 xor	 cl, cl
  00077	32 d2		 xor	 dl, dl
  00079	88 8d f8 fd ff
	ff		 mov	 BYTE PTR $T2[ebp], cl
  0007f	eb 06		 jmp	 SHORT $LN4@Serialize
$LL41@Serialize:
  00081	8a 95 f9 fd ff
	ff		 mov	 dl, BYTE PTR $T4[ebp]
$LN4@Serialize:

; 817  : 		{	
; 818  : 			if( m_apItem[ch].IsEmpty() == FALSE )

  00087	0f b6 c3	 movzx	 eax, bl

; 131  : 	BOOL	IsEmpty()	{	return m_dwItemId ? FALSE : TRUE;	}

  0008a	69 d8 98 00 00
	00		 imul	 ebx, eax, 152

; 817  : 		{	
; 818  : 			if( m_apItem[ch].IsEmpty() == FALSE )

  00090	89 85 f0 fd ff
	ff		 mov	 DWORD PTR tv623[ebp], eax
  00096	0f b6 c1	 movzx	 eax, cl
  00099	69 c8 98 00 00
	00		 imul	 ecx, eax, 152

; 131  : 	BOOL	IsEmpty()	{	return m_dwItemId ? FALSE : TRUE;	}

  0009f	8b 46 0c	 mov	 eax, DWORD PTR [esi+12]
  000a2	83 7c 01 08 00	 cmp	 DWORD PTR [ecx+eax+8], 0

; 817  : 		{	
; 818  : 			if( m_apItem[ch].IsEmpty() == FALSE )

  000a7	74 25		 je	 SHORT $LN40@Serialize

; 819  : 			{
; 820  : 				ar << ch;

  000a9	8d 85 fb fd ff
	ff		 lea	 eax, DWORD PTR _ch$5[ebp]
  000af	8b cf		 mov	 ecx, edi
  000b1	50		 push	 eax
  000b2	e8 00 00 00 00	 call	 ??$?6E@CAr@@QAEAAV0@ABE@Z ; CAr::operator<<<unsigned char>

; 821  : 				m_apItem[ch].Serialize( ar );

  000b7	8b 4e 0c	 mov	 ecx, DWORD PTR [esi+12]
  000ba	03 cb		 add	 ecx, ebx
  000bc	57		 push	 edi
  000bd	8b 01		 mov	 eax, DWORD PTR [ecx]
  000bf	ff 50 0c	 call	 DWORD PTR [eax+12]

; 822  : 				chSize++;

  000c2	fe 85 fa fd ff
	ff		 inc	 BYTE PTR _chSize$1$[ebp]
  000c8	8a 95 f8 fd ff
	ff		 mov	 dl, BYTE PTR $T2[ebp]
$LN40@Serialize:

; 823  : 			}
; 824  : 			adwObjIndex[ch]		= m_apItem[ch].m_dwObjIndex;

  000ce	8b 46 0c	 mov	 eax, DWORD PTR [esi+12]
  000d1	8b 8d f0 fd ff
	ff		 mov	 ecx, DWORD PTR tv623[ebp]
  000d7	8b 44 18 2c	 mov	 eax, DWORD PTR [eax+ebx+44]
  000db	89 84 8d fc fd
	ff ff		 mov	 DWORD PTR _adwObjIndex$[ebp+ecx*4], eax
  000e2	8d 4a 01	 lea	 ecx, DWORD PTR [edx+1]
  000e5	8b 56 10	 mov	 edx, DWORD PTR [esi+16]
  000e8	8a d9		 mov	 bl, cl
  000ea	0f b6 c1	 movzx	 eax, cl
  000ed	88 8d fb fd ff
	ff		 mov	 BYTE PTR _ch$5[ebp], cl
  000f3	88 8d f9 fd ff
	ff		 mov	 BYTE PTR $T4[ebp], cl
  000f9	88 8d f8 fd ff
	ff		 mov	 BYTE PTR $T2[ebp], cl
  000ff	3b c2		 cmp	 eax, edx
  00101	0f 82 7a ff ff
	ff		 jb	 $LL41@Serialize
  00107	8a 9d fa fd ff
	ff		 mov	 bl, BYTE PTR _chSize$1$[ebp]
$LN3@Serialize:

; 825  : 		}
; 826  : 
; 827  : 		ar.Write( adwObjIndex, sizeof(DWORD) * m_dwItemMax );

  0010d	8d 04 95 00 00
	00 00		 lea	 eax, DWORD PTR [edx*4]
  00114	8b cf		 mov	 ecx, edi
  00116	50		 push	 eax
  00117	8d 85 fc fd ff
	ff		 lea	 eax, DWORD PTR _adwObjIndex$[ebp]
  0011d	50		 push	 eax
  0011e	e8 00 00 00 00	 call	 ?Write@CAr@@QAEXPBXI@Z	; CAr::Write

; 828  : 
; 829  : 		int nBufSize;
; 830  : 		LPBYTE lpBuf	= ar.GetBuffer( &nBufSize );

  00123	8d 85 ec fd ff
	ff		 lea	 eax, DWORD PTR _nBufSize$1[ebp]
  00129	8b cf		 mov	 ecx, edi
  0012b	50		 push	 eax
  0012c	e8 00 00 00 00	 call	 ?GetBuffer@CAr@@QAEPAEPAH@Z ; CAr::GetBuffer

; 831  : 		*( lpBuf + uOffset )	= chSize;

  00131	8b 8d f4 fd ff
	ff		 mov	 ecx, DWORD PTR _uOffset$1$[ebp]
  00137	5f		 pop	 edi

; 853  : 		}
; 854  : 	}
; 855  : }

  00138	5e		 pop	 esi
  00139	88 1c 08	 mov	 BYTE PTR [eax+ecx], bl
  0013c	5b		 pop	 ebx
  0013d	8b 4d fc	 mov	 ecx, DWORD PTR __$ArrayPad$[ebp]
  00140	33 cd		 xor	 ecx, ebp
  00142	e8 00 00 00 00	 call	 @__security_check_cookie@4
  00147	8b e5		 mov	 esp, ebp
  00149	5d		 pop	 ebp
  0014a	c2 04 00	 ret	 4
$LN14@Serialize:

; 832  : 	}
; 833  : 	else
; 834  : 	{
; 835  : 		ar.Read( m_apIndex, sizeof(DWORD) * m_dwItemMax );

  0014d	e8 00 00 00 00	 call	 ?Read@CAr@@QAEXPAXI@Z	; CAr::Read

; 836  : 		// Clear
; 837  : 		for( u_int i = 0; i < m_dwItemMax; i++ )

  00152	83 7e 10 00	 cmp	 DWORD PTR [esi+16], 0
  00156	76 24		 jbe	 SHORT $LN6@Serialize

; 832  : 	}
; 833  : 	else
; 834  : 	{
; 835  : 		ar.Read( m_apIndex, sizeof(DWORD) * m_dwItemMax );

  00158	33 db		 xor	 ebx, ebx
  0015a	33 ff		 xor	 edi, edi
  0015c	0f 1f 40 00	 npad	 4
$LL7@Serialize:

; 838  : 			m_apItem[i].Empty();

  00160	8b 4e 0c	 mov	 ecx, DWORD PTR [esi+12]
  00163	03 cb		 add	 ecx, ebx
  00165	8b 01		 mov	 eax, DWORD PTR [ecx]
  00167	ff 50 04	 call	 DWORD PTR [eax+4]
  0016a	47		 inc	 edi
  0016b	81 c3 98 00 00
	00		 add	 ebx, 152		; 00000098H
  00171	3b 7e 10	 cmp	 edi, DWORD PTR [esi+16]
  00174	72 ea		 jb	 SHORT $LL7@Serialize
  00176	8b bd f4 fd ff
	ff		 mov	 edi, DWORD PTR _ar$GSCopy$1$[ebp]
$LN6@Serialize:

; 839  : 
; 840  : 		ar >> chSize;

  0017c	8d 85 fb fd ff
	ff		 lea	 eax, DWORD PTR _chSize$[ebp]
  00182	8b cf		 mov	 ecx, edi
  00184	50		 push	 eax
  00185	e8 00 00 00 00	 call	 ??$?5E@CAr@@QAEAAV0@AAE@Z ; CAr::operator>><unsigned char>

; 841  : 
; 842  : 		unsigned char ch;
; 843  : 		for( u_char i = 0; i < chSize; i++ )

  0018a	8a 85 fb fd ff
	ff		 mov	 al, BYTE PTR _chSize$[ebp]
  00190	84 c0		 test	 al, al
  00192	74 2c		 je	 SHORT $LN9@Serialize

; 839  : 
; 840  : 		ar >> chSize;

  00194	0f b6 d8	 movzx	 ebx, al
$LL10@Serialize:

; 844  : 		{
; 845  : 			ar >> ch;

  00197	8d 85 f9 fd ff
	ff		 lea	 eax, DWORD PTR _ch$3[ebp]
  0019d	8b cf		 mov	 ecx, edi
  0019f	50		 push	 eax
  001a0	e8 00 00 00 00	 call	 ??$?5E@CAr@@QAEAAV0@AAE@Z ; CAr::operator>><unsigned char>

; 846  : 			m_apItem[ch].Serialize( ar );

  001a5	0f b6 85 f9 fd
	ff ff		 movzx	 eax, BYTE PTR _ch$3[ebp]
  001ac	69 c8 98 00 00
	00		 imul	 ecx, eax, 152
  001b2	57		 push	 edi
  001b3	03 4e 0c	 add	 ecx, DWORD PTR [esi+12]
  001b6	8b 01		 mov	 eax, DWORD PTR [ecx]
  001b8	ff 50 0c	 call	 DWORD PTR [eax+12]
  001bb	83 eb 01	 sub	 ebx, 1
  001be	75 d7		 jne	 SHORT $LL10@Serialize
$LN9@Serialize:

; 847  : 		}
; 848  : 
; 849  : 		ar.Read( adwObjIndex, sizeof(DWORD) * m_dwItemMax );

  001c0	8b 46 10	 mov	 eax, DWORD PTR [esi+16]
  001c3	8b cf		 mov	 ecx, edi
  001c5	c1 e0 02	 shl	 eax, 2
  001c8	50		 push	 eax
  001c9	8d 85 fc fd ff
	ff		 lea	 eax, DWORD PTR _adwObjIndex$[ebp]
  001cf	50		 push	 eax
  001d0	e8 00 00 00 00	 call	 ?Read@CAr@@QAEXPAXI@Z	; CAr::Read

; 850  : 		for( int i = 0; i < m_dwItemMax; i++ )

  001d5	33 d2		 xor	 edx, edx
  001d7	39 56 10	 cmp	 DWORD PTR [esi+16], edx
  001da	76 1e		 jbe	 SHORT $LN12@Serialize

; 847  : 		}
; 848  : 
; 849  : 		ar.Read( adwObjIndex, sizeof(DWORD) * m_dwItemMax );

  001dc	33 ff		 xor	 edi, edi
  001de	66 90		 npad	 2
$LL13@Serialize:

; 851  : 		{
; 852  : 			m_apItem[i].m_dwObjIndex	= adwObjIndex[i];

  001e0	8b 4e 0c	 mov	 ecx, DWORD PTR [esi+12]
  001e3	8d bf 98 00 00
	00		 lea	 edi, DWORD PTR [edi+152]
  001e9	8b 84 95 fc fd
	ff ff		 mov	 eax, DWORD PTR _adwObjIndex$[ebp+edx*4]
  001f0	42		 inc	 edx
  001f1	89 44 0f 94	 mov	 DWORD PTR [edi+ecx-108], eax
  001f5	3b 56 10	 cmp	 edx, DWORD PTR [esi+16]
  001f8	72 e6		 jb	 SHORT $LL13@Serialize
$LN12@Serialize:

; 853  : 		}
; 854  : 	}
; 855  : }

  001fa	8b 4d fc	 mov	 ecx, DWORD PTR __$ArrayPad$[ebp]
  001fd	5f		 pop	 edi
  001fe	5e		 pop	 esi
  001ff	33 cd		 xor	 ecx, ebp
  00201	5b		 pop	 ebx
  00202	e8 00 00 00 00	 call	 @__security_check_cookie@4
  00207	8b e5		 mov	 esp, ebp
  00209	5d		 pop	 ebp
  0020a	c2 04 00	 ret	 4
?Serialize@?$CItemContainer@VCItemElem@@@@QAEXAAVCAr@@@Z ENDP ; CItemContainer<CItemElem>::Serialize
_TEXT	ENDS
; Function compile flags: /Ogtp
; File C:\IAGOS\server\v18\Source\Source\_Network\Objects\Obj.h
;	COMDAT ?GetEquip@?$CItemContainer@VCItemElem@@@@QAEPAVCItemElem@@K@Z
_TEXT	SEGMENT
_dwIndex$ = 8						; size = 4
?GetEquip@?$CItemContainer@VCItemElem@@@@QAEPAVCItemElem@@K@Z PROC ; CItemContainer<CItemElem>::GetEquip, COMDAT
; _this$ = ecx

; 738  : {

  00000	55		 push	 ebp
  00001	8b ec		 mov	 ebp, esp

; 739  : 	return GetAt( m_dwIndexNum + dwIndex );

  00003	8b 41 08	 mov	 eax, DWORD PTR [ecx+8]
  00006	03 45 08	 add	 eax, DWORD PTR _dwIndex$[ebp]
  00009	89 45 08	 mov	 DWORD PTR _dwIndex$[ebp], eax

; 740  : }

  0000c	5d		 pop	 ebp

; 739  : 	return GetAt( m_dwIndexNum + dwIndex );

  0000d	e9 00 00 00 00	 jmp	 ?GetAt@?$CItemContainer@VCItemElem@@@@QAEPAVCItemElem@@K@Z ; CItemContainer<CItemElem>::GetAt
?GetEquip@?$CItemContainer@VCItemElem@@@@QAEPAVCItemElem@@K@Z ENDP ; CItemContainer<CItemElem>::GetEquip
_TEXT	ENDS
; Function compile flags: /Ogtp
; File C:\IAGOS\server\v18\Source\Source\_Network\Objects\Obj.h
;	COMDAT ?GetAt@?$CItemContainer@VCItemElem@@@@QAEPAVCItemElem@@K@Z
_TEXT	SEGMENT
_dwIndex$ = 8						; size = 4
?GetAt@?$CItemContainer@VCItemElem@@@@QAEPAVCItemElem@@K@Z PROC ; CItemContainer<CItemElem>::GetAt, COMDAT
; _this$ = ecx

; 649  : {

  00000	55		 push	 ebp
  00001	8b ec		 mov	 ebp, esp

; 650  : 	DWORD dwIdx		= m_apIndex[dwIndex];

  00003	8b 51 04	 mov	 edx, DWORD PTR [ecx+4]
  00006	8b 45 08	 mov	 eax, DWORD PTR _dwIndex$[ebp]
  00009	8b 04 82	 mov	 eax, DWORD PTR [edx+eax*4]

; 651  : 	if( dwIdx == NULL_ID )

  0000c	83 f8 ff	 cmp	 eax, -1
  0000f	74 15		 je	 SHORT $LN7@GetAt

; 652  : 		return NULL;
; 653  : 	T* pItemElem	= &m_apItem[dwIdx];

  00011	69 c0 98 00 00
	00		 imul	 eax, eax, 152
  00017	03 41 0c	 add	 eax, DWORD PTR [ecx+12]

; 131  : 	BOOL	IsEmpty()	{	return m_dwItemId ? FALSE : TRUE;	}

  0001a	33 c9		 xor	 ecx, ecx
  0001c	39 48 08	 cmp	 DWORD PTR [eax+8], ecx
  0001f	0f 44 c1	 cmove	 eax, ecx

; 656  : 	return pItemElem;
; 657  : }

  00022	5d		 pop	 ebp
  00023	c2 04 00	 ret	 4
$LN7@GetAt:

; 654  : 	if( pItemElem->IsEmpty() ) 
; 655  : 		return NULL;

  00026	33 c0		 xor	 eax, eax

; 656  : 	return pItemElem;
; 657  : }

  00028	5d		 pop	 ebp
  00029	c2 04 00	 ret	 4
?GetAt@?$CItemContainer@VCItemElem@@@@QAEPAVCItemElem@@K@Z ENDP ; CItemContainer<CItemElem>::GetAt
_TEXT	ENDS
; Function compile flags: /Ogtp
; File C:\IAGOS\server\v18\Source\Source\_common\ObjSerializeOpt.cpp
; File C:\IAGOS\server\v18\Source\Source\_Network\Misc\Include\Ar.h
; File C:\IAGOS\server\v18\Source\Source\_common\ObjSerializeOpt.cpp
; File C:\IAGOS\server\v18\Source\Source\_Network\Misc\Include\Ar.h
; File C:\IAGOS\server\v18\Source\Source\_common\ObjSerializeOpt.cpp
;	COMDAT ?Serialize@CObj@@UAEXAAVCAr@@@Z
_TEXT	SEGMENT
_ar$ = 8						; size = 4
_u2$1 = 8						; size = 2
_i2$2 = 8						; size = 2
$T3 = 8							; size = 2
$T4 = 8							; size = 2
$T5 = 11						; size = 1
?Serialize@CObj@@UAEXAAVCAr@@@Z PROC			; CObj::Serialize, COMDAT
; _this$ = ecx

; 19   : {

  00000	55		 push	 ebp
  00001	8b ec		 mov	 ebp, esp
  00003	53		 push	 ebx
  00004	56		 push	 esi
  00005	57		 push	 edi
; File C:\IAGOS\server\v18\Source\Source\_Network\Misc\Include\Ar.h

; 146  : 	return (m_nMode & CAr::load) == 0;

  00006	8b 7d 08	 mov	 edi, DWORD PTR _ar$[ebp]
; File C:\IAGOS\server\v18\Source\Source\_common\ObjSerializeOpt.cpp

; 19   : {

  00009	8b f1		 mov	 esi, ecx

; 20   : 	if( ar.IsStoring() )

  0000b	8b cf		 mov	 ecx, edi
; File C:\IAGOS\server\v18\Source\Source\_Network\Misc\Include\Ar.h

; 146  : 	return (m_nMode & CAr::load) == 0;

  0000d	f6 07 01	 test	 BYTE PTR [edi], 1
  00010	8d 5e 08	 lea	 ebx, DWORD PTR [esi+8]
  00013	8d 46 04	 lea	 eax, DWORD PTR [esi+4]
; File C:\IAGOS\server\v18\Source\Source\_common\ObjSerializeOpt.cpp

; 20   : 	if( ar.IsStoring() )

  00016	75 6c		 jne	 SHORT $LN2@Serialize

; 21   : 	{
; 22   : 		ar << (u_char)m_dwType;

  00018	8a 00		 mov	 al, BYTE PTR [eax]
  0001a	88 45 0b	 mov	 BYTE PTR $T5[ebp], al
  0001d	8d 45 0b	 lea	 eax, DWORD PTR $T5[ebp]
  00020	50		 push	 eax
  00021	e8 00 00 00 00	 call	 ??$?6E@CAr@@QAEAAV0@ABE@Z ; CAr::operator<<<unsigned char>

; 23   : 
; 24   : 		// mirchang_100513 type cast fix
; 25   : 		//ar << (u_short)m_dwIndex;
; 26   : 		ar << m_dwIndex;

  00026	53		 push	 ebx
  00027	8b cf		 mov	 ecx, edi
  00029	e8 00 00 00 00	 call	 ??$?6K@CAr@@QAEAAV0@ABK@Z ; CAr::operator<<<unsigned long>

; 27   : 		// mirchang_100513 type cast fix
; 28   : 
; 29   : 		ar << (u_short)( m_vScale.x * 100.0f );

  0002e	f3 0f 10 46 0c	 movss	 xmm0, DWORD PTR [esi+12]
  00033	8b cf		 mov	 ecx, edi
  00035	f3 0f 59 05 00
	00 00 00	 mulss	 xmm0, DWORD PTR __real@42c80000
  0003d	f3 0f 2c c0	 cvttss2si eax, xmm0
  00041	0f b7 c0	 movzx	 eax, ax
  00044	89 45 08	 mov	 DWORD PTR $T4[ebp], eax
  00047	8d 45 08	 lea	 eax, DWORD PTR $T4[ebp]
  0004a	50		 push	 eax
  0004b	e8 00 00 00 00	 call	 ??$?6G@CAr@@QAEAAV0@ABG@Z ; CAr::operator<<<unsigned short>

; 30   : 		ar << m_vPos;

  00050	8d 46 1c	 lea	 eax, DWORD PTR [esi+28]
  00053	8b cf		 mov	 ecx, edi
  00055	50		 push	 eax
  00056	e8 00 00 00 00	 call	 ??$?6UD3DXVECTOR3@@@CAr@@QAEAAV0@ABUD3DXVECTOR3@@@Z ; CAr::operator<<<D3DXVECTOR3>

; 31   : 		ar << (short)( m_fAngle * 10.0f );

  0005b	f3 0f 10 46 28	 movss	 xmm0, DWORD PTR [esi+40]
  00060	8b cf		 mov	 ecx, edi
  00062	f3 0f 59 05 00
	00 00 00	 mulss	 xmm0, DWORD PTR __real@41200000
  0006a	f3 0f 2c c0	 cvttss2si eax, xmm0
  0006e	0f b7 c0	 movzx	 eax, ax
  00071	89 45 08	 mov	 DWORD PTR $T3[ebp], eax
  00074	8d 45 08	 lea	 eax, DWORD PTR $T3[ebp]
  00077	50		 push	 eax
  00078	e8 00 00 00 00	 call	 ??$?6F@CAr@@QAEAAV0@ABF@Z ; CAr::operator<<<short>
  0007d	5f		 pop	 edi

; 52   : 	#if defined(__WORLDSERVER) || defined(__CLIENT)
; 53   : 		SetAngle( m_fAngle );
; 54   : 	#endif
; 55   : 
; 56   : 	#ifdef __WORLDSERVER
; 57   : 		m_vLink		= m_vPos;
; 58   : 	#endif	// __WORLDSERVER
; 59   : 	}
; 60   : }

  0007e	5e		 pop	 esi
  0007f	5b		 pop	 ebx
  00080	5d		 pop	 ebp
  00081	c2 04 00	 ret	 4
$LN2@Serialize:

; 32   : 	}
; 33   : 	else
; 34   : 	{
; 35   : 		u_short u2;
; 36   : 		short i2;
; 37   : 		m_dwType = m_dwIndex = 0; 
; 38   : 		
; 39   : 		ar >> (u_char&)m_dwType;				// m_dwType

  00084	50		 push	 eax
  00085	c7 03 00 00 00
	00		 mov	 DWORD PTR [ebx], 0
  0008b	c7 00 00 00 00
	00		 mov	 DWORD PTR [eax], 0
  00091	e8 00 00 00 00	 call	 ??$?5E@CAr@@QAEAAV0@AAE@Z ; CAr::operator>><unsigned char>

; 40   : 
; 41   : 		// mirchang_100513 type cast fix
; 42   : 		//ar >> u2;								// m_dwIndex
; 43   : 		//m_dwIndex	= (DWORD)u2;
; 44   : 		ar >> m_dwIndex;

  00096	53		 push	 ebx
  00097	8b cf		 mov	 ecx, edi
  00099	e8 00 00 00 00	 call	 ??$?5K@CAr@@QAEAAV0@AAK@Z ; CAr::operator>><unsigned long>

; 45   : 		// mirchang_100513 type cast fix
; 46   : 
; 47   : 		ar >> u2;								// m_vScale.x * 100.0f

  0009e	8d 45 08	 lea	 eax, DWORD PTR _u2$1[ebp]
  000a1	8b cf		 mov	 ecx, edi
  000a3	50		 push	 eax
  000a4	e8 00 00 00 00	 call	 ??$?5G@CAr@@QAEAAV0@AAG@Z ; CAr::operator>><unsigned short>

; 48   : 		m_vScale.x	=	m_vScale.y	=	m_vScale.z	= (float)u2 / 100.0f;

  000a9	0f b7 45 08	 movzx	 eax, WORD PTR _u2$1[ebp]

; 49   : 		ar >> m_vPos;							// m_vPos

  000ad	8b cf		 mov	 ecx, edi
  000af	66 0f 6e c0	 movd	 xmm0, eax
  000b3	8d 46 1c	 lea	 eax, DWORD PTR [esi+28]
  000b6	0f 5b c0	 cvtdq2ps xmm0, xmm0
  000b9	50		 push	 eax
  000ba	f3 0f 5e 05 00
	00 00 00	 divss	 xmm0, DWORD PTR __real@42c80000
  000c2	f3 0f 11 46 14	 movss	 DWORD PTR [esi+20], xmm0
  000c7	f3 0f 11 46 10	 movss	 DWORD PTR [esi+16], xmm0
  000cc	f3 0f 11 46 0c	 movss	 DWORD PTR [esi+12], xmm0
  000d1	e8 00 00 00 00	 call	 ??$?5UD3DXVECTOR3@@@CAr@@QAEAAV0@AAUD3DXVECTOR3@@@Z ; CAr::operator>><D3DXVECTOR3>

; 50   : 		ar >> i2;								// m_fAngle * 10.0f

  000d6	8d 45 08	 lea	 eax, DWORD PTR _i2$2[ebp]
  000d9	8b cf		 mov	 ecx, edi
  000db	50		 push	 eax
  000dc	e8 00 00 00 00	 call	 ??$?5F@CAr@@QAEAAV0@AAF@Z ; CAr::operator>><short>

; 51   : 		m_fAngle	= (float)i2 / 10.0f;

  000e1	0f bf 45 08	 movsx	 eax, WORD PTR _i2$2[ebp]
  000e5	5f		 pop	 edi
  000e6	66 0f 6e c0	 movd	 xmm0, eax
  000ea	0f 5b c0	 cvtdq2ps xmm0, xmm0
  000ed	f3 0f 5e 05 00
	00 00 00	 divss	 xmm0, DWORD PTR __real@41200000
  000f5	f3 0f 11 46 28	 movss	 DWORD PTR [esi+40], xmm0

; 52   : 	#if defined(__WORLDSERVER) || defined(__CLIENT)
; 53   : 		SetAngle( m_fAngle );
; 54   : 	#endif
; 55   : 
; 56   : 	#ifdef __WORLDSERVER
; 57   : 		m_vLink		= m_vPos;
; 58   : 	#endif	// __WORLDSERVER
; 59   : 	}
; 60   : }

  000fa	5e		 pop	 esi
  000fb	5b		 pop	 ebx
  000fc	5d		 pop	 ebp
  000fd	c2 04 00	 ret	 4
?Serialize@CObj@@UAEXAAVCAr@@@Z ENDP			; CObj::Serialize
_TEXT	ENDS
; Function compile flags: /Ogtp
; File C:\IAGOS\server\v18\Source\Source\_common\ObjSerializeOpt.cpp
;	COMDAT ?__empty_global_delete@@YAXPAXI@Z
_TEXT	SEGMENT
___formal$ = 8						; size = 4
___formal$ = 12						; size = 4
?__empty_global_delete@@YAXPAXI@Z PROC			; __empty_global_delete, COMDAT

  00000	c2 00 00	 ret	 0
?__empty_global_delete@@YAXPAXI@Z ENDP			; __empty_global_delete
_TEXT	ENDS
; Function compile flags: /Ogtp
; File C:\IAGOS\server\v18\Source\Source\_common\ObjSerializeOpt.cpp
;	COMDAT ?__empty_global_delete@@YAXPAX@Z
_TEXT	SEGMENT
___formal$ = 8						; size = 4
?__empty_global_delete@@YAXPAX@Z PROC			; __empty_global_delete, COMDAT

  00000	c2 00 00	 ret	 0
?__empty_global_delete@@YAXPAX@Z ENDP			; __empty_global_delete
_TEXT	ENDS
END
