; Listing generated by Microsoft (R) Optimizing Compiler Version 19.44.35225.0 

	TITLE	C:\IAGOS\server\v18\Source\Output\DatabaseServer\Release\pet.obj
	.686P
	.XMM
	include listing.inc
	.model	flat

INCLUDELIB LIBCMT
INCLUDELIB OLDNAMES

PUBLIC	??_H@YGXPAXIIP6EPAX0@Z@Z			; `vector constructor iterator'
PUBLIC	?__empty_global_delete@@YAXPAX@Z		; __empty_global_delete
PUBLIC	?__empty_global_delete@@YAXPAXI@Z		; __empty_global_delete
PUBLIC	??0exception@std@@QAE@ABV01@@Z			; std::exception::exception
PUBLIC	??1exception@std@@UAE@XZ			; std::exception::~exception
PUBLIC	?what@exception@std@@UBEPBDXZ			; std::exception::what
PUBLIC	??_Gexception@std@@UAEPAXI@Z			; std::exception::`scalar deleting destructor'
PUBLIC	??0bad_alloc@std@@QAE@ABV01@@Z			; std::bad_alloc::bad_alloc
PUBLIC	??_Gbad_alloc@std@@UAEPAXI@Z			; std::bad_alloc::`scalar deleting destructor'
PUBLIC	??0bad_array_new_length@std@@QAE@XZ		; std::bad_array_new_length::bad_array_new_length
PUBLIC	??1bad_array_new_length@std@@UAE@XZ		; std::bad_array_new_length::~bad_array_new_length
PUBLIC	??0bad_array_new_length@std@@QAE@ABV01@@Z	; std::bad_array_new_length::bad_array_new_length
PUBLIC	??_Gbad_array_new_length@std@@UAEPAXI@Z		; std::bad_array_new_length::`scalar deleting destructor'
PUBLIC	?_Throw_bad_array_new_length@std@@YAXXZ		; std::_Throw_bad_array_new_length
PUBLIC	??0_PETPENALTY@@QAE@XZ				; _PETPENALTY::_PETPENALTY
PUBLIC	??0CPetProperty@@QAE@XZ				; CPetProperty::CPetProperty
PUBLIC	??1CPetProperty@@UAE@XZ				; CPetProperty::~CPetProperty
PUBLIC	?GetAvailParam@CPetProperty@@QAEPAU_PETAVAILPARAM@@E@Z ; CPetProperty::GetAvailParam
PUBLIC	?GetLevelupAvailLevel@CPetProperty@@QAEEE@Z	; CPetProperty::GetLevelupAvailLevel
PUBLIC	?GetFeedEnergy@CPetProperty@@QAEGKH@Z		; CPetProperty::GetFeedEnergy
PUBLIC	?GetIncrementExp@CPetProperty@@QAEKE@Z		; CPetProperty::GetIncrementExp
PUBLIC	?GetMaxEnergy@CPetProperty@@QAEGE@Z		; CPetProperty::GetMaxEnergy
PUBLIC	?GetAddLife@CPetProperty@@QAEGXZ		; CPetProperty::GetAddLife
PUBLIC	?GetInstance@CPetProperty@@SAPAV1@XZ		; CPetProperty::GetInstance
PUBLIC	?LoadScript@CPetProperty@@QAEHPBD@Z		; CPetProperty::LoadScript
PUBLIC	?Hatch@CPetProperty@@QAEEXZ			; CPetProperty::Hatch
PUBLIC	?GetPenalty@CPetProperty@@QAEPAU_PETPENALTY@@E@Z ; CPetProperty::GetPenalty
PUBLIC	??0?$vector@U_FEEDENERGY@@V?$allocator@U_FEEDENERGY@@@std@@@std@@QAE@XZ ; std::vector<_FEEDENERGY,std::allocator<_FEEDENERGY> >::vector<_FEEDENERGY,std::allocator<_FEEDENERGY> >
PUBLIC	??1?$vector@U_FEEDENERGY@@V?$allocator@U_FEEDENERGY@@@std@@@std@@QAE@XZ ; std::vector<_FEEDENERGY,std::allocator<_FEEDENERGY> >::~vector<_FEEDENERGY,std::allocator<_FEEDENERGY> >
PUBLIC	?_Xlength@?$vector@U_FEEDENERGY@@V?$allocator@U_FEEDENERGY@@@std@@@std@@CAXXZ ; std::vector<_FEEDENERGY,std::allocator<_FEEDENERGY> >::_Xlength
PUBLIC	??1?$vector@GV?$allocator@G@std@@@std@@QAE@XZ	; std::vector<unsigned short,std::allocator<unsigned short> >::~vector<unsigned short,std::allocator<unsigned short> >
PUBLIC	?_Xlength@?$vector@GV?$allocator@G@std@@@std@@CAXXZ ; std::vector<unsigned short,std::allocator<unsigned short> >::_Xlength
PUBLIC	??_GCPetProperty@@UAEPAXI@Z			; CPetProperty::`scalar deleting destructor'
PUBLIC	??0CPet@@QAE@XZ					; CPet::CPet
PUBLIC	??1CPet@@UAE@XZ					; CPet::~CPet
PUBLIC	?Serialize@CPet@@QAEXAAVCAr@@@Z			; CPet::Serialize
PUBLIC	?SetAvailLevel@CPet@@QAEXEE@Z			; CPet::SetAvailLevel
PUBLIC	?GetIndex@CPet@@QAEKXZ				; CPet::GetIndex
PUBLIC	?GetAvailLevel@CPet@@QAEEE@Z			; CPet::GetAvailLevel
PUBLIC	?GetAvailDestParam@CPet@@QAEXAAKAAH@Z		; CPet::GetAvailDestParam
PUBLIC	?SetExp@CPet@@QAEXK@Z				; CPet::SetExp
PUBLIC	?GetLife@CPet@@QAEGXZ				; CPet::GetLife
PUBLIC	?SetEnergy@CPet@@QAEXG@Z			; CPet::SetEnergy
PUBLIC	?SetName@CPet@@QAEXPBD@Z			; CPet::SetName
PUBLIC	?InitEgg@CPet@@QAEXXZ				; CPet::InitEgg
PUBLIC	??4CPet@@QAEAAV0@AAV0@@Z			; CPet::operator=
PUBLIC	??_GCPet@@UAEPAXI@Z				; CPet::`scalar deleting destructor'
PUBLIC	??0CTransformStuff@@QAE@XZ			; CTransformStuff::CTransformStuff
PUBLIC	??0CTransformStuff@@QAE@H@Z			; CTransformStuff::CTransformStuff
PUBLIC	??1CTransformStuff@@UAE@XZ			; CTransformStuff::~CTransformStuff
PUBLIC	?AddComponent@CTransformStuff@@QAEXHF@Z		; CTransformStuff::AddComponent
PUBLIC	?Serialize@CTransformStuff@@UAEXAAVCAr@@@Z	; CTransformStuff::Serialize
PUBLIC	??1?$vector@U_TransformStuffComponent@@V?$allocator@U_TransformStuffComponent@@@std@@@std@@QAE@XZ ; std::vector<_TransformStuffComponent,std::allocator<_TransformStuffComponent> >::~vector<_TransformStuffComponent,std::allocator<_TransformStuffComponent> >
PUBLIC	?_Xlength@?$vector@U_TransformStuffComponent@@V?$allocator@U_TransformStuffComponent@@@std@@@std@@CAXXZ ; std::vector<_TransformStuffComponent,std::allocator<_TransformStuffComponent> >::_Xlength
PUBLIC	??_GCTransformStuff@@UAEPAXI@Z			; CTransformStuff::`scalar deleting destructor'
PUBLIC	??$_Allocate_manually_vector_aligned@U_Default_allocate_traits@std@@@std@@YAPAXI@Z ; std::_Allocate_manually_vector_aligned<std::_Default_allocate_traits>
PUBLIC	??$?6E@CAr@@QAEAAV0@ABE@Z			; CAr::operator<<<unsigned char>
PUBLIC	??$?6K@CAr@@QAEAAV0@ABK@Z			; CAr::operator<<<unsigned long>
PUBLIC	??$?6G@CAr@@QAEAAV0@ABG@Z			; CAr::operator<<<unsigned short>
PUBLIC	??$?5E@CAr@@QAEAAV0@AAE@Z			; CAr::operator>><unsigned char>
PUBLIC	??$?5K@CAr@@QAEAAV0@AAK@Z			; CAr::operator>><unsigned long>
PUBLIC	??$?5G@CAr@@QAEAAV0@AAG@Z			; CAr::operator>><unsigned short>
PUBLIC	??$?6H@CAr@@QAEAAV0@ABH@Z			; CAr::operator<<<int>
PUBLIC	??$?6I@CAr@@QAEAAV0@ABI@Z			; CAr::operator<<<unsigned int>
PUBLIC	??$?5H@CAr@@QAEAAV0@AAH@Z			; CAr::operator>><int>
PUBLIC	??$?5I@CAr@@QAEAAV0@AAI@Z			; CAr::operator>><unsigned int>
PUBLIC	??$_Emplace_reallocate@ABU_TransformStuffComponent@@@?$vector@U_TransformStuffComponent@@V?$allocator@U_TransformStuffComponent@@@std@@@std@@AAEPAU_TransformStuffComponent@@QAU2@ABU2@@Z ; std::vector<_TransformStuffComponent,std::allocator<_TransformStuffComponent> >::_Emplace_reallocate<_TransformStuffComponent const &>
PUBLIC	??$_Emplace_reallocate@ABG@?$vector@GV?$allocator@G@std@@@std@@AAEPAGQAGABG@Z ; std::vector<unsigned short,std::allocator<unsigned short> >::_Emplace_reallocate<unsigned short const &>
PUBLIC	??$_Emplace_reallocate@ABU_FEEDENERGY@@@?$vector@U_FEEDENERGY@@V?$allocator@U_FEEDENERGY@@@std@@@std@@AAEPAU_FEEDENERGY@@QAU2@ABU2@@Z ; std::vector<_FEEDENERGY,std::allocator<_FEEDENERGY> >::_Emplace_reallocate<_FEEDENERGY const &>
PUBLIC	??$_Copy_memmove@PAU_TransformStuffComponent@@PAU1@@std@@YAPAU_TransformStuffComponent@@PAU1@00@Z ; std::_Copy_memmove<_TransformStuffComponent *,_TransformStuffComponent *>
PUBLIC	??$_Copy_memmove@PAGPAG@std@@YAPAGPAG00@Z	; std::_Copy_memmove<unsigned short *,unsigned short *>
PUBLIC	??$_Copy_memmove@PAU_FEEDENERGY@@PAU1@@std@@YAPAU_FEEDENERGY@@PAU1@00@Z ; std::_Copy_memmove<_FEEDENERGY *,_FEEDENERGY *>
PUBLIC	??$_Copy_memmove_tail@PAU_TransformStuffComponent@@@std@@YAPAU_TransformStuffComponent@@QBDQAU1@II@Z ; std::_Copy_memmove_tail<_TransformStuffComponent *>
PUBLIC	??$_Copy_memmove_tail@PAG@std@@YAPAGQBDQAGII@Z	; std::_Copy_memmove_tail<unsigned short *>
PUBLIC	??$_Copy_memmove_tail@PAU_FEEDENERGY@@@std@@YAPAU_FEEDENERGY@@QBDQAU1@II@Z ; std::_Copy_memmove_tail<_FEEDENERGY *>
PUBLIC	??_7exception@std@@6B@				; std::exception::`vftable'
PUBLIC	??_C@_0BC@EOODALEL@Unknown?5exception@		; `string'
PUBLIC	??_7bad_alloc@std@@6B@				; std::bad_alloc::`vftable'
PUBLIC	??_7bad_array_new_length@std@@6B@		; std::bad_array_new_length::`vftable'
PUBLIC	??_C@_0BF@KINCDENJ@bad?5array?5new?5length@	; `string'
PUBLIC	??_R0?AVexception@std@@@8			; std::exception `RTTI Type Descriptor'
PUBLIC	__CT??_R0?AVexception@std@@@8??0exception@std@@QAE@ABV01@@Z12
PUBLIC	__TI3?AVbad_array_new_length@std@@
PUBLIC	__CTA3?AVbad_array_new_length@std@@
PUBLIC	??_R0?AVbad_array_new_length@std@@@8		; std::bad_array_new_length `RTTI Type Descriptor'
PUBLIC	__CT??_R0?AVbad_array_new_length@std@@@8??0bad_array_new_length@std@@QAE@ABV01@@Z12
PUBLIC	??_R0?AVbad_alloc@std@@@8			; std::bad_alloc `RTTI Type Descriptor'
PUBLIC	__CT??_R0?AVbad_alloc@std@@@8??0bad_alloc@std@@QAE@ABV01@@Z12
PUBLIC	??_7CPetProperty@@6B@				; CPetProperty::`vftable'
PUBLIC	??_7CPet@@6B@					; CPet::`vftable'
PUBLIC	??_7CTransformStuff@@6B@			; CTransformStuff::`vftable'
PUBLIC	??_C@_0BA@FOIKENOD@vector?5too?5long@		; `string'
PUBLIC	??_R4exception@std@@6B@				; std::exception::`RTTI Complete Object Locator'
PUBLIC	??_R3exception@std@@8				; std::exception::`RTTI Class Hierarchy Descriptor'
PUBLIC	??_R2exception@std@@8				; std::exception::`RTTI Base Class Array'
PUBLIC	??_R1A@?0A@EA@exception@std@@8			; std::exception::`RTTI Base Class Descriptor at (0,-1,0,64)'
PUBLIC	??_R4bad_array_new_length@std@@6B@		; std::bad_array_new_length::`RTTI Complete Object Locator'
PUBLIC	??_R3bad_array_new_length@std@@8		; std::bad_array_new_length::`RTTI Class Hierarchy Descriptor'
PUBLIC	??_R2bad_array_new_length@std@@8		; std::bad_array_new_length::`RTTI Base Class Array'
PUBLIC	??_R1A@?0A@EA@bad_array_new_length@std@@8	; std::bad_array_new_length::`RTTI Base Class Descriptor at (0,-1,0,64)'
PUBLIC	??_R1A@?0A@EA@bad_alloc@std@@8			; std::bad_alloc::`RTTI Base Class Descriptor at (0,-1,0,64)'
PUBLIC	??_R3bad_alloc@std@@8				; std::bad_alloc::`RTTI Class Hierarchy Descriptor'
PUBLIC	??_R2bad_alloc@std@@8				; std::bad_alloc::`RTTI Base Class Array'
PUBLIC	??_R4bad_alloc@std@@6B@				; std::bad_alloc::`RTTI Complete Object Locator'
PUBLIC	??_C@_0P@DOCAHOFJ@AvailDestParam@		; `string'
PUBLIC	??_C@_0N@ELNJGIBK@LevelupAvail@			; `string'
PUBLIC	??_C@_0L@NIFCIDOF@FeedEnergy@			; `string'
PUBLIC	??_C@_0N@FDFFOKED@IncrementExp@			; `string'
PUBLIC	??_C@_09EENALPJP@MaxEnergy@			; `string'
PUBLIC	??_C@_0BD@NJHGCLHH@AddLifeProbability@		; `string'
PUBLIC	??_C@_07FMCMMKEN@Penalty@			; `string'
PUBLIC	??_R4CPetProperty@@6B@				; CPetProperty::`RTTI Complete Object Locator'
PUBLIC	??_R0?AVCPetProperty@@@8			; CPetProperty `RTTI Type Descriptor'
PUBLIC	??_R3CPetProperty@@8				; CPetProperty::`RTTI Class Hierarchy Descriptor'
PUBLIC	??_R2CPetProperty@@8				; CPetProperty::`RTTI Base Class Array'
PUBLIC	??_R1A@?0A@EA@CPetProperty@@8			; CPetProperty::`RTTI Base Class Descriptor at (0,-1,0,64)'
PUBLIC	??_R4CPet@@6B@					; CPet::`RTTI Complete Object Locator'
PUBLIC	??_R0?AVCPet@@@8				; CPet `RTTI Type Descriptor'
PUBLIC	??_R3CPet@@8					; CPet::`RTTI Class Hierarchy Descriptor'
PUBLIC	??_R2CPet@@8					; CPet::`RTTI Base Class Array'
PUBLIC	??_R1A@?0A@EA@CPet@@8				; CPet::`RTTI Base Class Descriptor at (0,-1,0,64)'
PUBLIC	??_R4CTransformStuff@@6B@			; CTransformStuff::`RTTI Complete Object Locator'
PUBLIC	??_R0?AVCTransformStuff@@@8			; CTransformStuff `RTTI Type Descriptor'
PUBLIC	??_R3CTransformStuff@@8				; CTransformStuff::`RTTI Class Hierarchy Descriptor'
PUBLIC	??_R2CTransformStuff@@8				; CTransformStuff::`RTTI Base Class Array'
PUBLIC	??_R1A@?0A@EA@CTransformStuff@@8		; CTransformStuff::`RTTI Base Class Descriptor at (0,-1,0,64)'
EXTRN	??_L@YGXPAXIIP6EX0@Z1@Z:PROC			; `eh vector constructor iterator'
EXTRN	??_M@YGXPAXIIP6EX0@Z@Z:PROC			; `eh vector destructor iterator'
EXTRN	??2@YAPAXI@Z:PROC				; operator new
EXTRN	??3@YAXPAXI@Z:PROC				; operator delete
EXTRN	_atexit:PROC
EXTRN	__Init_thread_header:PROC
EXTRN	__Init_thread_abort:PROC
EXTRN	__Init_thread_footer:PROC
EXTRN	__invoke_watson:PROC
EXTRN	_strncpy:PROC
EXTRN	__mbscmp:PROC
EXTRN	?AfxThrowMemoryException@@YGXXZ:PROC		; AfxThrowMemoryException
EXTRN	?AfxThrowOleException@@YGXJ@Z:PROC		; AfxThrowOleException
EXTRN	?_Xlength_error@std@@YAXPBD@Z:PROC		; std::_Xlength_error
EXTRN	___std_exception_copy:PROC
EXTRN	___std_exception_destroy:PROC
EXTRN	??_Eexception@std@@UAEPAXI@Z:PROC		; std::exception::`vector deleting destructor'
EXTRN	??_Ebad_alloc@std@@UAEPAXI@Z:PROC		; std::bad_alloc::`vector deleting destructor'
EXTRN	??_Ebad_array_new_length@std@@UAEPAXI@Z:PROC	; std::bad_array_new_length::`vector deleting destructor'
EXTRN	?xRandom@@YAKKK@Z:PROC				; xRandom
EXTRN	?GetNumber@CScanner@@QAEHH@Z:PROC		; CScanner::GetNumber
EXTRN	?GetFloat@CScanner@@QAEMH@Z:PROC		; CScanner::GetFloat
EXTRN	??0CScript@@QAE@H@Z:PROC			; CScript::CScript
EXTRN	??1CScript@@UAE@XZ:PROC				; CScript::~CScript
EXTRN	?Load@CScript@@QAEHPBDHH@Z:PROC			; CScript::Load
EXTRN	?GetToken@CScript@@UAEHH@Z:PROC			; CScript::GetToken
EXTRN	?Read@CAr@@QAEXPAXI@Z:PROC			; CAr::Read
EXTRN	?Write@CAr@@QAEXPBXI@Z:PROC			; CAr::Write
EXTRN	?CheckBuf@CAr@@QAEXI@Z:PROC			; CAr::CheckBuf
EXTRN	?WriteString@CAr@@QAEXPBD@Z:PROC		; CAr::WriteString
EXTRN	?ReadString@CAr@@QAEPADPADH@Z:PROC		; CAr::ReadString
EXTRN	??_ECPetProperty@@UAEPAXI@Z:PROC		; CPetProperty::`vector deleting destructor'
EXTRN	??_ECPet@@UAEPAXI@Z:PROC			; CPet::`vector deleting destructor'
EXTRN	??_ECTransformStuff@@UAEPAXI@Z:PROC		; CTransformStuff::`vector deleting destructor'
EXTRN	@__security_check_cookie@4:PROC
EXTRN	__CxxThrowException@8:PROC
EXTRN	___CxxFrameHandler3:PROC
EXTRN	__chkstk:PROC
EXTRN	_memmove:PROC
EXTRN	_memset:PROC
EXTRN	__Init_thread_epoch:DWORD
EXTRN	??_7type_info@@6B@:QWORD			; type_info::`vftable'
EXTRN	___security_cookie:DWORD
EXTRN	__fltused:DWORD
EXTRN	__tls_array:DWORD
EXTRN	__tls_index:DWORD
;	COMDAT ?sPetProperty@?1??GetInstance@CPetProperty@@SAPAV2@XZ@4V2@A
_BSS	SEGMENT
?sPetProperty@?1??GetInstance@CPetProperty@@SAPAV2@XZ@4V2@A DB 0300H DUP (?) ; `CPetProperty::GetInstance'::`2'::sPetProperty
_BSS	ENDS
;	COMDAT ?$TSS0@?1??GetInstance@CPetProperty@@SAPAV2@XZ@4HA
_BSS	SEGMENT
?$TSS0@?1??GetInstance@CPetProperty@@SAPAV2@XZ@4HA DD 01H DUP (?) ; `CPetProperty::GetInstance'::`2'::$TSS0
_BSS	ENDS
;	COMDAT ??_R1A@?0A@EA@CTransformStuff@@8
rdata$r	SEGMENT
??_R1A@?0A@EA@CTransformStuff@@8 DD FLAT:??_R0?AVCTransformStuff@@@8 ; CTransformStuff::`RTTI Base Class Descriptor at (0,-1,0,64)'
	DD	00H
	DD	00H
	DD	0ffffffffH
	DD	00H
	DD	040H
	DD	FLAT:??_R3CTransformStuff@@8
rdata$r	ENDS
;	COMDAT ??_R2CTransformStuff@@8
rdata$r	SEGMENT
??_R2CTransformStuff@@8 DD FLAT:??_R1A@?0A@EA@CTransformStuff@@8 ; CTransformStuff::`RTTI Base Class Array'
rdata$r	ENDS
;	COMDAT ??_R3CTransformStuff@@8
rdata$r	SEGMENT
??_R3CTransformStuff@@8 DD 00H				; CTransformStuff::`RTTI Class Hierarchy Descriptor'
	DD	00H
	DD	01H
	DD	FLAT:??_R2CTransformStuff@@8
rdata$r	ENDS
;	COMDAT ??_R0?AVCTransformStuff@@@8
data$rs	SEGMENT
??_R0?AVCTransformStuff@@@8 DD FLAT:??_7type_info@@6B@	; CTransformStuff `RTTI Type Descriptor'
	DD	00H
	DB	'.?AVCTransformStuff@@', 00H
data$rs	ENDS
;	COMDAT ??_R4CTransformStuff@@6B@
rdata$r	SEGMENT
??_R4CTransformStuff@@6B@ DD 00H			; CTransformStuff::`RTTI Complete Object Locator'
	DD	00H
	DD	00H
	DD	FLAT:??_R0?AVCTransformStuff@@@8
	DD	FLAT:??_R3CTransformStuff@@8
rdata$r	ENDS
;	COMDAT ??_R1A@?0A@EA@CPet@@8
rdata$r	SEGMENT
??_R1A@?0A@EA@CPet@@8 DD FLAT:??_R0?AVCPet@@@8		; CPet::`RTTI Base Class Descriptor at (0,-1,0,64)'
	DD	00H
	DD	00H
	DD	0ffffffffH
	DD	00H
	DD	040H
	DD	FLAT:??_R3CPet@@8
rdata$r	ENDS
;	COMDAT ??_R2CPet@@8
rdata$r	SEGMENT
??_R2CPet@@8 DD	FLAT:??_R1A@?0A@EA@CPet@@8		; CPet::`RTTI Base Class Array'
rdata$r	ENDS
;	COMDAT ??_R3CPet@@8
rdata$r	SEGMENT
??_R3CPet@@8 DD	00H					; CPet::`RTTI Class Hierarchy Descriptor'
	DD	00H
	DD	01H
	DD	FLAT:??_R2CPet@@8
rdata$r	ENDS
;	COMDAT ??_R0?AVCPet@@@8
data$rs	SEGMENT
??_R0?AVCPet@@@8 DD FLAT:??_7type_info@@6B@		; CPet `RTTI Type Descriptor'
	DD	00H
	DB	'.?AVCPet@@', 00H
data$rs	ENDS
;	COMDAT ??_R4CPet@@6B@
rdata$r	SEGMENT
??_R4CPet@@6B@ DD 00H					; CPet::`RTTI Complete Object Locator'
	DD	00H
	DD	00H
	DD	FLAT:??_R0?AVCPet@@@8
	DD	FLAT:??_R3CPet@@8
rdata$r	ENDS
;	COMDAT ??_R1A@?0A@EA@CPetProperty@@8
rdata$r	SEGMENT
??_R1A@?0A@EA@CPetProperty@@8 DD FLAT:??_R0?AVCPetProperty@@@8 ; CPetProperty::`RTTI Base Class Descriptor at (0,-1,0,64)'
	DD	00H
	DD	00H
	DD	0ffffffffH
	DD	00H
	DD	040H
	DD	FLAT:??_R3CPetProperty@@8
rdata$r	ENDS
;	COMDAT ??_R2CPetProperty@@8
rdata$r	SEGMENT
??_R2CPetProperty@@8 DD FLAT:??_R1A@?0A@EA@CPetProperty@@8 ; CPetProperty::`RTTI Base Class Array'
rdata$r	ENDS
;	COMDAT ??_R3CPetProperty@@8
rdata$r	SEGMENT
??_R3CPetProperty@@8 DD 00H				; CPetProperty::`RTTI Class Hierarchy Descriptor'
	DD	00H
	DD	01H
	DD	FLAT:??_R2CPetProperty@@8
rdata$r	ENDS
;	COMDAT ??_R0?AVCPetProperty@@@8
data$rs	SEGMENT
??_R0?AVCPetProperty@@@8 DD FLAT:??_7type_info@@6B@	; CPetProperty `RTTI Type Descriptor'
	DD	00H
	DB	'.?AVCPetProperty@@', 00H
data$rs	ENDS
;	COMDAT ??_R4CPetProperty@@6B@
rdata$r	SEGMENT
??_R4CPetProperty@@6B@ DD 00H				; CPetProperty::`RTTI Complete Object Locator'
	DD	00H
	DD	00H
	DD	FLAT:??_R0?AVCPetProperty@@@8
	DD	FLAT:??_R3CPetProperty@@8
rdata$r	ENDS
;	COMDAT ??_C@_07FMCMMKEN@Penalty@
CONST	SEGMENT
??_C@_07FMCMMKEN@Penalty@ DB 'Penalty', 00H		; `string'
CONST	ENDS
;	COMDAT ??_C@_0BD@NJHGCLHH@AddLifeProbability@
CONST	SEGMENT
??_C@_0BD@NJHGCLHH@AddLifeProbability@ DB 'AddLifeProbability', 00H ; `string'
CONST	ENDS
;	COMDAT ??_C@_09EENALPJP@MaxEnergy@
CONST	SEGMENT
??_C@_09EENALPJP@MaxEnergy@ DB 'MaxEnergy', 00H		; `string'
CONST	ENDS
;	COMDAT ??_C@_0N@FDFFOKED@IncrementExp@
CONST	SEGMENT
??_C@_0N@FDFFOKED@IncrementExp@ DB 'IncrementExp', 00H	; `string'
CONST	ENDS
;	COMDAT ??_C@_0L@NIFCIDOF@FeedEnergy@
CONST	SEGMENT
??_C@_0L@NIFCIDOF@FeedEnergy@ DB 'FeedEnergy', 00H	; `string'
CONST	ENDS
;	COMDAT ??_C@_0N@ELNJGIBK@LevelupAvail@
CONST	SEGMENT
??_C@_0N@ELNJGIBK@LevelupAvail@ DB 'LevelupAvail', 00H	; `string'
CONST	ENDS
;	COMDAT ??_C@_0P@DOCAHOFJ@AvailDestParam@
CONST	SEGMENT
??_C@_0P@DOCAHOFJ@AvailDestParam@ DB 'AvailDestParam', 00H ; `string'
CONST	ENDS
;	COMDAT ??_R4bad_alloc@std@@6B@
rdata$r	SEGMENT
??_R4bad_alloc@std@@6B@ DD 00H				; std::bad_alloc::`RTTI Complete Object Locator'
	DD	00H
	DD	00H
	DD	FLAT:??_R0?AVbad_alloc@std@@@8
	DD	FLAT:??_R3bad_alloc@std@@8
rdata$r	ENDS
;	COMDAT ??_R2bad_alloc@std@@8
rdata$r	SEGMENT
??_R2bad_alloc@std@@8 DD FLAT:??_R1A@?0A@EA@bad_alloc@std@@8 ; std::bad_alloc::`RTTI Base Class Array'
	DD	FLAT:??_R1A@?0A@EA@exception@std@@8
rdata$r	ENDS
;	COMDAT ??_R3bad_alloc@std@@8
rdata$r	SEGMENT
??_R3bad_alloc@std@@8 DD 00H				; std::bad_alloc::`RTTI Class Hierarchy Descriptor'
	DD	00H
	DD	02H
	DD	FLAT:??_R2bad_alloc@std@@8
rdata$r	ENDS
;	COMDAT ??_R1A@?0A@EA@bad_alloc@std@@8
rdata$r	SEGMENT
??_R1A@?0A@EA@bad_alloc@std@@8 DD FLAT:??_R0?AVbad_alloc@std@@@8 ; std::bad_alloc::`RTTI Base Class Descriptor at (0,-1,0,64)'
	DD	01H
	DD	00H
	DD	0ffffffffH
	DD	00H
	DD	040H
	DD	FLAT:??_R3bad_alloc@std@@8
rdata$r	ENDS
;	COMDAT ??_R1A@?0A@EA@bad_array_new_length@std@@8
rdata$r	SEGMENT
??_R1A@?0A@EA@bad_array_new_length@std@@8 DD FLAT:??_R0?AVbad_array_new_length@std@@@8 ; std::bad_array_new_length::`RTTI Base Class Descriptor at (0,-1,0,64)'
	DD	02H
	DD	00H
	DD	0ffffffffH
	DD	00H
	DD	040H
	DD	FLAT:??_R3bad_array_new_length@std@@8
rdata$r	ENDS
;	COMDAT ??_R2bad_array_new_length@std@@8
rdata$r	SEGMENT
??_R2bad_array_new_length@std@@8 DD FLAT:??_R1A@?0A@EA@bad_array_new_length@std@@8 ; std::bad_array_new_length::`RTTI Base Class Array'
	DD	FLAT:??_R1A@?0A@EA@bad_alloc@std@@8
	DD	FLAT:??_R1A@?0A@EA@exception@std@@8
rdata$r	ENDS
;	COMDAT ??_R3bad_array_new_length@std@@8
rdata$r	SEGMENT
??_R3bad_array_new_length@std@@8 DD 00H			; std::bad_array_new_length::`RTTI Class Hierarchy Descriptor'
	DD	00H
	DD	03H
	DD	FLAT:??_R2bad_array_new_length@std@@8
rdata$r	ENDS
;	COMDAT ??_R4bad_array_new_length@std@@6B@
rdata$r	SEGMENT
??_R4bad_array_new_length@std@@6B@ DD 00H		; std::bad_array_new_length::`RTTI Complete Object Locator'
	DD	00H
	DD	00H
	DD	FLAT:??_R0?AVbad_array_new_length@std@@@8
	DD	FLAT:??_R3bad_array_new_length@std@@8
rdata$r	ENDS
;	COMDAT ??_R1A@?0A@EA@exception@std@@8
rdata$r	SEGMENT
??_R1A@?0A@EA@exception@std@@8 DD FLAT:??_R0?AVexception@std@@@8 ; std::exception::`RTTI Base Class Descriptor at (0,-1,0,64)'
	DD	00H
	DD	00H
	DD	0ffffffffH
	DD	00H
	DD	040H
	DD	FLAT:??_R3exception@std@@8
rdata$r	ENDS
;	COMDAT ??_R2exception@std@@8
rdata$r	SEGMENT
??_R2exception@std@@8 DD FLAT:??_R1A@?0A@EA@exception@std@@8 ; std::exception::`RTTI Base Class Array'
rdata$r	ENDS
;	COMDAT ??_R3exception@std@@8
rdata$r	SEGMENT
??_R3exception@std@@8 DD 00H				; std::exception::`RTTI Class Hierarchy Descriptor'
	DD	00H
	DD	01H
	DD	FLAT:??_R2exception@std@@8
rdata$r	ENDS
;	COMDAT ??_R4exception@std@@6B@
rdata$r	SEGMENT
??_R4exception@std@@6B@ DD 00H				; std::exception::`RTTI Complete Object Locator'
	DD	00H
	DD	00H
	DD	FLAT:??_R0?AVexception@std@@@8
	DD	FLAT:??_R3exception@std@@8
rdata$r	ENDS
;	COMDAT ??_C@_0BA@FOIKENOD@vector?5too?5long@
CONST	SEGMENT
??_C@_0BA@FOIKENOD@vector?5too?5long@ DB 'vector too long', 00H ; `string'
CONST	ENDS
;	COMDAT ??_7CTransformStuff@@6B@
CONST	SEGMENT
??_7CTransformStuff@@6B@ DD FLAT:??_R4CTransformStuff@@6B@ ; CTransformStuff::`vftable'
	DD	FLAT:??_ECTransformStuff@@UAEPAXI@Z
	DD	FLAT:?Serialize@CTransformStuff@@UAEXAAVCAr@@@Z
CONST	ENDS
;	COMDAT ??_7CPet@@6B@
CONST	SEGMENT
??_7CPet@@6B@ DD FLAT:??_R4CPet@@6B@			; CPet::`vftable'
	DD	FLAT:??_ECPet@@UAEPAXI@Z
CONST	ENDS
;	COMDAT ??_7CPetProperty@@6B@
CONST	SEGMENT
??_7CPetProperty@@6B@ DD FLAT:??_R4CPetProperty@@6B@	; CPetProperty::`vftable'
	DD	FLAT:??_ECPetProperty@@UAEPAXI@Z
CONST	ENDS
;	COMDAT __CT??_R0?AVbad_alloc@std@@@8??0bad_alloc@std@@QAE@ABV01@@Z12
xdata$x	SEGMENT
__CT??_R0?AVbad_alloc@std@@@8??0bad_alloc@std@@QAE@ABV01@@Z12 DD 010H
	DD	FLAT:??_R0?AVbad_alloc@std@@@8
	DD	00H
	DD	0ffffffffH
	ORG $+4
	DD	0cH
	DD	FLAT:??0bad_alloc@std@@QAE@ABV01@@Z
xdata$x	ENDS
;	COMDAT ??_R0?AVbad_alloc@std@@@8
data$r	SEGMENT
??_R0?AVbad_alloc@std@@@8 DD FLAT:??_7type_info@@6B@	; std::bad_alloc `RTTI Type Descriptor'
	DD	00H
	DB	'.?AVbad_alloc@std@@', 00H
data$r	ENDS
;	COMDAT __CT??_R0?AVbad_array_new_length@std@@@8??0bad_array_new_length@std@@QAE@ABV01@@Z12
xdata$x	SEGMENT
__CT??_R0?AVbad_array_new_length@std@@@8??0bad_array_new_length@std@@QAE@ABV01@@Z12 DD 00H
	DD	FLAT:??_R0?AVbad_array_new_length@std@@@8
	DD	00H
	DD	0ffffffffH
	ORG $+4
	DD	0cH
	DD	FLAT:??0bad_array_new_length@std@@QAE@ABV01@@Z
xdata$x	ENDS
;	COMDAT ??_R0?AVbad_array_new_length@std@@@8
data$r	SEGMENT
??_R0?AVbad_array_new_length@std@@@8 DD FLAT:??_7type_info@@6B@ ; std::bad_array_new_length `RTTI Type Descriptor'
	DD	00H
	DB	'.?AVbad_array_new_length@std@@', 00H
data$r	ENDS
;	COMDAT __CTA3?AVbad_array_new_length@std@@
xdata$x	SEGMENT
__CTA3?AVbad_array_new_length@std@@ DD 03H
	DD	FLAT:__CT??_R0?AVbad_array_new_length@std@@@8??0bad_array_new_length@std@@QAE@ABV01@@Z12
	DD	FLAT:__CT??_R0?AVbad_alloc@std@@@8??0bad_alloc@std@@QAE@ABV01@@Z12
	DD	FLAT:__CT??_R0?AVexception@std@@@8??0exception@std@@QAE@ABV01@@Z12
xdata$x	ENDS
;	COMDAT __TI3?AVbad_array_new_length@std@@
xdata$x	SEGMENT
__TI3?AVbad_array_new_length@std@@ DD 00H
	DD	FLAT:??1bad_array_new_length@std@@UAE@XZ
	DD	00H
	DD	FLAT:__CTA3?AVbad_array_new_length@std@@
xdata$x	ENDS
;	COMDAT __CT??_R0?AVexception@std@@@8??0exception@std@@QAE@ABV01@@Z12
xdata$x	SEGMENT
__CT??_R0?AVexception@std@@@8??0exception@std@@QAE@ABV01@@Z12 DD 00H
	DD	FLAT:??_R0?AVexception@std@@@8
	DD	00H
	DD	0ffffffffH
	ORG $+4
	DD	0cH
	DD	FLAT:??0exception@std@@QAE@ABV01@@Z
xdata$x	ENDS
;	COMDAT ??_R0?AVexception@std@@@8
data$r	SEGMENT
??_R0?AVexception@std@@@8 DD FLAT:??_7type_info@@6B@	; std::exception `RTTI Type Descriptor'
	DD	00H
	DB	'.?AVexception@std@@', 00H
data$r	ENDS
;	COMDAT ??_C@_0BF@KINCDENJ@bad?5array?5new?5length@
CONST	SEGMENT
??_C@_0BF@KINCDENJ@bad?5array?5new?5length@ DB 'bad array new length', 00H ; `string'
CONST	ENDS
;	COMDAT ??_7bad_array_new_length@std@@6B@
CONST	SEGMENT
??_7bad_array_new_length@std@@6B@ DD FLAT:??_R4bad_array_new_length@std@@6B@ ; std::bad_array_new_length::`vftable'
	DD	FLAT:??_Ebad_array_new_length@std@@UAEPAXI@Z
	DD	FLAT:?what@exception@std@@UBEPBDXZ
CONST	ENDS
;	COMDAT ??_7bad_alloc@std@@6B@
CONST	SEGMENT
??_7bad_alloc@std@@6B@ DD FLAT:??_R4bad_alloc@std@@6B@	; std::bad_alloc::`vftable'
	DD	FLAT:??_Ebad_alloc@std@@UAEPAXI@Z
	DD	FLAT:?what@exception@std@@UBEPBDXZ
CONST	ENDS
;	COMDAT ??_C@_0BC@EOODALEL@Unknown?5exception@
CONST	SEGMENT
??_C@_0BC@EOODALEL@Unknown?5exception@ DB 'Unknown exception', 00H ; `string'
CONST	ENDS
;	COMDAT ??_7exception@std@@6B@
CONST	SEGMENT
??_7exception@std@@6B@ DD FLAT:??_R4exception@std@@6B@	; std::exception::`vftable'
	DD	FLAT:??_Eexception@std@@UAEPAXI@Z
	DD	FLAT:?what@exception@std@@UBEPBDXZ
CONST	ENDS
;	COMDAT xdata$x
xdata$x	SEGMENT
__unwindtable$?LoadScript@CPetProperty@@QAEHPBD@Z DD 0ffffffffH
	DD	FLAT:__unwindfunclet$?LoadScript@CPetProperty@@QAEHPBD@Z$0
__ehfuncinfo$?LoadScript@CPetProperty@@QAEHPBD@Z DD 019930522H
	DD	01H
	DD	FLAT:__unwindtable$?LoadScript@CPetProperty@@QAEHPBD@Z
	DD	2 DUP(00H)
	DD	2 DUP(00H)
	DD	00H
	DD	01H
xdata$x	ENDS
;	COMDAT xdata$x
xdata$x	SEGMENT
__unwindtable$?GetInstance@CPetProperty@@SAPAV1@XZ DD 0ffffffffH
	DD	FLAT:__unwindfunclet$?GetInstance@CPetProperty@@SAPAV1@XZ$0
__ehfuncinfo$?GetInstance@CPetProperty@@SAPAV1@XZ DD 019930522H
	DD	01H
	DD	FLAT:__unwindtable$?GetInstance@CPetProperty@@SAPAV1@XZ
	DD	2 DUP(00H)
	DD	2 DUP(00H)
	DD	00H
	DD	01H
xdata$x	ENDS
;	COMDAT xdata$x
xdata$x	SEGMENT
__ehfuncinfo$??1CPetProperty@@UAE@XZ DD 019930522H
	DD	00H
	DD	00H
	DD	2 DUP(00H)
	DD	2 DUP(00H)
	DD	00H
	DD	05H
xdata$x	ENDS
; Function compile flags: /Ogtp
; File C:\Program Files\Microsoft Visual Studio\2022\Professional\VC\Tools\MSVC\14.44.35207\include\xutility
;	COMDAT ??$_Copy_memmove_tail@PAU_FEEDENERGY@@@std@@YAPAU_FEEDENERGY@@QBDQAU1@II@Z
_TEXT	SEGMENT
__First_ch$ = 8						; size = 4
__Dest$ = 12						; size = 4
__Byte_count$ = 16					; size = 4
__Object_count$ = 20					; size = 4
??$_Copy_memmove_tail@PAU_FEEDENERGY@@@std@@YAPAU_FEEDENERGY@@QBDQAU1@II@Z PROC ; std::_Copy_memmove_tail<_FEEDENERGY *>, COMDAT

; 4747 :     const char* const _First_ch, const _OutCtgIt _Dest, const size_t _Byte_count, const size_t _Object_count) {

  00000	55		 push	 ebp
  00001	8b ec		 mov	 ebp, esp
  00003	56		 push	 esi

; 4748 :     _STL_INTERNAL_CHECK(_Byte_count == _Object_count * sizeof(*_Dest));
; 4749 :     const auto _Dest_ptr = _STD _To_address(_Dest);
; 4750 :     const auto _Dest_ch  = const_cast<char*>(reinterpret_cast<const volatile char*>(_Dest_ptr));
; 4751 :     _CSTD memmove(_Dest_ch, _First_ch, _Byte_count);

  00004	8b 75 0c	 mov	 esi, DWORD PTR __Dest$[ebp]
  00007	57		 push	 edi
  00008	8b 7d 10	 mov	 edi, DWORD PTR __Byte_count$[ebp]
  0000b	57		 push	 edi
  0000c	ff 75 08	 push	 DWORD PTR __First_ch$[ebp]
  0000f	56		 push	 esi
  00010	e8 00 00 00 00	 call	 _memmove
  00015	83 c4 0c	 add	 esp, 12			; 0000000cH

; 4752 :     if constexpr (is_pointer_v<_OutCtgIt>) {
; 4753 :         (void) _Object_count;
; 4754 :         // CodeQL [SM02986] This cast is correct: we're bypassing pointer arithmetic for performance.
; 4755 :         return reinterpret_cast<_OutCtgIt>(_Dest_ch + _Byte_count);

  00018	8d 04 3e	 lea	 eax, DWORD PTR [esi+edi]
  0001b	5f		 pop	 edi
  0001c	5e		 pop	 esi

; 4756 :     } else {
; 4757 :         return _Dest + static_cast<_Iter_diff_t<_OutCtgIt>>(_Object_count);
; 4758 :     }
; 4759 : }

  0001d	5d		 pop	 ebp
  0001e	c3		 ret	 0
??$_Copy_memmove_tail@PAU_FEEDENERGY@@@std@@YAPAU_FEEDENERGY@@QBDQAU1@II@Z ENDP ; std::_Copy_memmove_tail<_FEEDENERGY *>
_TEXT	ENDS
; Function compile flags: /Ogtp
; File C:\Program Files\Microsoft Visual Studio\2022\Professional\VC\Tools\MSVC\14.44.35207\include\xutility
;	COMDAT ??$_Copy_memmove_tail@PAG@std@@YAPAGQBDQAGII@Z
_TEXT	SEGMENT
__First_ch$ = 8						; size = 4
__Dest$ = 12						; size = 4
__Byte_count$ = 16					; size = 4
__Object_count$ = 20					; size = 4
??$_Copy_memmove_tail@PAG@std@@YAPAGQBDQAGII@Z PROC	; std::_Copy_memmove_tail<unsigned short *>, COMDAT

; 4747 :     const char* const _First_ch, const _OutCtgIt _Dest, const size_t _Byte_count, const size_t _Object_count) {

  00000	55		 push	 ebp
  00001	8b ec		 mov	 ebp, esp
  00003	56		 push	 esi

; 4748 :     _STL_INTERNAL_CHECK(_Byte_count == _Object_count * sizeof(*_Dest));
; 4749 :     const auto _Dest_ptr = _STD _To_address(_Dest);
; 4750 :     const auto _Dest_ch  = const_cast<char*>(reinterpret_cast<const volatile char*>(_Dest_ptr));
; 4751 :     _CSTD memmove(_Dest_ch, _First_ch, _Byte_count);

  00004	8b 75 0c	 mov	 esi, DWORD PTR __Dest$[ebp]
  00007	57		 push	 edi
  00008	8b 7d 10	 mov	 edi, DWORD PTR __Byte_count$[ebp]
  0000b	57		 push	 edi
  0000c	ff 75 08	 push	 DWORD PTR __First_ch$[ebp]
  0000f	56		 push	 esi
  00010	e8 00 00 00 00	 call	 _memmove
  00015	83 c4 0c	 add	 esp, 12			; 0000000cH

; 4752 :     if constexpr (is_pointer_v<_OutCtgIt>) {
; 4753 :         (void) _Object_count;
; 4754 :         // CodeQL [SM02986] This cast is correct: we're bypassing pointer arithmetic for performance.
; 4755 :         return reinterpret_cast<_OutCtgIt>(_Dest_ch + _Byte_count);

  00018	8d 04 3e	 lea	 eax, DWORD PTR [esi+edi]
  0001b	5f		 pop	 edi
  0001c	5e		 pop	 esi

; 4756 :     } else {
; 4757 :         return _Dest + static_cast<_Iter_diff_t<_OutCtgIt>>(_Object_count);
; 4758 :     }
; 4759 : }

  0001d	5d		 pop	 ebp
  0001e	c3		 ret	 0
??$_Copy_memmove_tail@PAG@std@@YAPAGQBDQAGII@Z ENDP	; std::_Copy_memmove_tail<unsigned short *>
_TEXT	ENDS
; Function compile flags: /Ogtp
; File C:\Program Files\Microsoft Visual Studio\2022\Professional\VC\Tools\MSVC\14.44.35207\include\xutility
;	COMDAT ??$_Copy_memmove_tail@PAU_TransformStuffComponent@@@std@@YAPAU_TransformStuffComponent@@QBDQAU1@II@Z
_TEXT	SEGMENT
__First_ch$ = 8						; size = 4
__Dest$ = 12						; size = 4
__Byte_count$ = 16					; size = 4
__Object_count$ = 20					; size = 4
??$_Copy_memmove_tail@PAU_TransformStuffComponent@@@std@@YAPAU_TransformStuffComponent@@QBDQAU1@II@Z PROC ; std::_Copy_memmove_tail<_TransformStuffComponent *>, COMDAT

; 4747 :     const char* const _First_ch, const _OutCtgIt _Dest, const size_t _Byte_count, const size_t _Object_count) {

  00000	55		 push	 ebp
  00001	8b ec		 mov	 ebp, esp
  00003	56		 push	 esi

; 4748 :     _STL_INTERNAL_CHECK(_Byte_count == _Object_count * sizeof(*_Dest));
; 4749 :     const auto _Dest_ptr = _STD _To_address(_Dest);
; 4750 :     const auto _Dest_ch  = const_cast<char*>(reinterpret_cast<const volatile char*>(_Dest_ptr));
; 4751 :     _CSTD memmove(_Dest_ch, _First_ch, _Byte_count);

  00004	8b 75 0c	 mov	 esi, DWORD PTR __Dest$[ebp]
  00007	57		 push	 edi
  00008	8b 7d 10	 mov	 edi, DWORD PTR __Byte_count$[ebp]
  0000b	57		 push	 edi
  0000c	ff 75 08	 push	 DWORD PTR __First_ch$[ebp]
  0000f	56		 push	 esi
  00010	e8 00 00 00 00	 call	 _memmove
  00015	83 c4 0c	 add	 esp, 12			; 0000000cH

; 4752 :     if constexpr (is_pointer_v<_OutCtgIt>) {
; 4753 :         (void) _Object_count;
; 4754 :         // CodeQL [SM02986] This cast is correct: we're bypassing pointer arithmetic for performance.
; 4755 :         return reinterpret_cast<_OutCtgIt>(_Dest_ch + _Byte_count);

  00018	8d 04 3e	 lea	 eax, DWORD PTR [esi+edi]
  0001b	5f		 pop	 edi
  0001c	5e		 pop	 esi

; 4756 :     } else {
; 4757 :         return _Dest + static_cast<_Iter_diff_t<_OutCtgIt>>(_Object_count);
; 4758 :     }
; 4759 : }

  0001d	5d		 pop	 ebp
  0001e	c3		 ret	 0
??$_Copy_memmove_tail@PAU_TransformStuffComponent@@@std@@YAPAU_TransformStuffComponent@@QBDQAU1@II@Z ENDP ; std::_Copy_memmove_tail<_TransformStuffComponent *>
_TEXT	ENDS
; Function compile flags: /Ogtp
; File C:\Program Files\Microsoft Visual Studio\2022\Professional\VC\Tools\MSVC\14.44.35207\include\xutility
;	COMDAT ??$_Copy_memmove@PAU_FEEDENERGY@@PAU1@@std@@YAPAU_FEEDENERGY@@PAU1@00@Z
_TEXT	SEGMENT
__First$ = 8						; size = 4
__Last$ = 12						; size = 4
__Dest$ = 16						; size = 4
??$_Copy_memmove@PAU_FEEDENERGY@@PAU1@@std@@YAPAU_FEEDENERGY@@PAU1@00@Z PROC ; std::_Copy_memmove<_FEEDENERGY *,_FEEDENERGY *>, COMDAT

; 4762 : _OutCtgIt _Copy_memmove(_CtgIt _First, _CtgIt _Last, _OutCtgIt _Dest) {

  00000	55		 push	 ebp
  00001	8b ec		 mov	 ebp, esp

; 4763 :     _STL_INTERNAL_CHECK(_First <= _Last);
; 4764 :     const auto _First_ptr    = _STD _To_address(_First);
; 4765 :     const auto _Last_ptr     = _STD _To_address(_Last);
; 4766 :     const auto _Object_count = static_cast<size_t>(_Last_ptr - _First_ptr);

  00003	8b 4d 0c	 mov	 ecx, DWORD PTR __Last$[ebp]
  00006	b8 ab aa aa 2a	 mov	 eax, 715827883		; 2aaaaaabH
  0000b	2b 4d 08	 sub	 ecx, DWORD PTR __First$[ebp]
  0000e	f7 e9		 imul	 ecx
  00010	d1 fa		 sar	 edx, 1
  00012	8b c2		 mov	 eax, edx
  00014	c1 e8 1f	 shr	 eax, 31			; 0000001fH
  00017	03 c2		 add	 eax, edx

; 4767 :     const auto _First_ch     = const_cast<const char*>(reinterpret_cast<const volatile char*>(_First_ptr));
; 4768 :     const auto _Last_ch      = const_cast<const char*>(reinterpret_cast<const volatile char*>(_Last_ptr));
; 4769 :     const auto _Byte_count   = static_cast<size_t>(_Last_ch - _First_ch);
; 4770 :     return _STD _Copy_memmove_tail(_First_ch, _STD move(_Dest), _Byte_count, _Object_count);

  00019	50		 push	 eax
  0001a	51		 push	 ecx
  0001b	ff 75 10	 push	 DWORD PTR __Dest$[ebp]
  0001e	ff 75 08	 push	 DWORD PTR __First$[ebp]
  00021	e8 00 00 00 00	 call	 ??$_Copy_memmove_tail@PAU_FEEDENERGY@@@std@@YAPAU_FEEDENERGY@@QBDQAU1@II@Z ; std::_Copy_memmove_tail<_FEEDENERGY *>
  00026	83 c4 10	 add	 esp, 16			; 00000010H

; 4771 : }

  00029	5d		 pop	 ebp
  0002a	c3		 ret	 0
??$_Copy_memmove@PAU_FEEDENERGY@@PAU1@@std@@YAPAU_FEEDENERGY@@PAU1@00@Z ENDP ; std::_Copy_memmove<_FEEDENERGY *,_FEEDENERGY *>
_TEXT	ENDS
; Function compile flags: /Ogtp
; File C:\Program Files\Microsoft Visual Studio\2022\Professional\VC\Tools\MSVC\14.44.35207\include\xutility
;	COMDAT ??$_Copy_memmove@PAGPAG@std@@YAPAGPAG00@Z
_TEXT	SEGMENT
__First$ = 8						; size = 4
__Last$ = 12						; size = 4
__Dest$ = 16						; size = 4
??$_Copy_memmove@PAGPAG@std@@YAPAGPAG00@Z PROC		; std::_Copy_memmove<unsigned short *,unsigned short *>, COMDAT

; 4762 : _OutCtgIt _Copy_memmove(_CtgIt _First, _CtgIt _Last, _OutCtgIt _Dest) {

  00000	55		 push	 ebp
  00001	8b ec		 mov	 ebp, esp

; 4763 :     _STL_INTERNAL_CHECK(_First <= _Last);
; 4764 :     const auto _First_ptr    = _STD _To_address(_First);
; 4765 :     const auto _Last_ptr     = _STD _To_address(_Last);
; 4766 :     const auto _Object_count = static_cast<size_t>(_Last_ptr - _First_ptr);

  00003	8b 55 08	 mov	 edx, DWORD PTR __First$[ebp]
  00006	8b 4d 0c	 mov	 ecx, DWORD PTR __Last$[ebp]
  00009	2b ca		 sub	 ecx, edx
  0000b	8b c1		 mov	 eax, ecx
  0000d	d1 f8		 sar	 eax, 1

; 4767 :     const auto _First_ch     = const_cast<const char*>(reinterpret_cast<const volatile char*>(_First_ptr));
; 4768 :     const auto _Last_ch      = const_cast<const char*>(reinterpret_cast<const volatile char*>(_Last_ptr));
; 4769 :     const auto _Byte_count   = static_cast<size_t>(_Last_ch - _First_ch);
; 4770 :     return _STD _Copy_memmove_tail(_First_ch, _STD move(_Dest), _Byte_count, _Object_count);

  0000f	50		 push	 eax
  00010	51		 push	 ecx
  00011	ff 75 10	 push	 DWORD PTR __Dest$[ebp]
  00014	52		 push	 edx
  00015	e8 00 00 00 00	 call	 ??$_Copy_memmove_tail@PAG@std@@YAPAGQBDQAGII@Z ; std::_Copy_memmove_tail<unsigned short *>
  0001a	83 c4 10	 add	 esp, 16			; 00000010H

; 4771 : }

  0001d	5d		 pop	 ebp
  0001e	c3		 ret	 0
??$_Copy_memmove@PAGPAG@std@@YAPAGPAG00@Z ENDP		; std::_Copy_memmove<unsigned short *,unsigned short *>
_TEXT	ENDS
; Function compile flags: /Ogtp
; File C:\Program Files\Microsoft Visual Studio\2022\Professional\VC\Tools\MSVC\14.44.35207\include\xutility
;	COMDAT ??$_Copy_memmove@PAU_TransformStuffComponent@@PAU1@@std@@YAPAU_TransformStuffComponent@@PAU1@00@Z
_TEXT	SEGMENT
__First$ = 8						; size = 4
__Last$ = 12						; size = 4
__Dest$ = 16						; size = 4
??$_Copy_memmove@PAU_TransformStuffComponent@@PAU1@@std@@YAPAU_TransformStuffComponent@@PAU1@00@Z PROC ; std::_Copy_memmove<_TransformStuffComponent *,_TransformStuffComponent *>, COMDAT

; 4762 : _OutCtgIt _Copy_memmove(_CtgIt _First, _CtgIt _Last, _OutCtgIt _Dest) {

  00000	55		 push	 ebp
  00001	8b ec		 mov	 ebp, esp

; 4763 :     _STL_INTERNAL_CHECK(_First <= _Last);
; 4764 :     const auto _First_ptr    = _STD _To_address(_First);
; 4765 :     const auto _Last_ptr     = _STD _To_address(_Last);
; 4766 :     const auto _Object_count = static_cast<size_t>(_Last_ptr - _First_ptr);

  00003	8b 55 08	 mov	 edx, DWORD PTR __First$[ebp]
  00006	8b 4d 0c	 mov	 ecx, DWORD PTR __Last$[ebp]
  00009	2b ca		 sub	 ecx, edx
  0000b	8b c1		 mov	 eax, ecx
  0000d	c1 f8 03	 sar	 eax, 3

; 4767 :     const auto _First_ch     = const_cast<const char*>(reinterpret_cast<const volatile char*>(_First_ptr));
; 4768 :     const auto _Last_ch      = const_cast<const char*>(reinterpret_cast<const volatile char*>(_Last_ptr));
; 4769 :     const auto _Byte_count   = static_cast<size_t>(_Last_ch - _First_ch);
; 4770 :     return _STD _Copy_memmove_tail(_First_ch, _STD move(_Dest), _Byte_count, _Object_count);

  00010	50		 push	 eax
  00011	51		 push	 ecx
  00012	ff 75 10	 push	 DWORD PTR __Dest$[ebp]
  00015	52		 push	 edx
  00016	e8 00 00 00 00	 call	 ??$_Copy_memmove_tail@PAU_TransformStuffComponent@@@std@@YAPAU_TransformStuffComponent@@QBDQAU1@II@Z ; std::_Copy_memmove_tail<_TransformStuffComponent *>
  0001b	83 c4 10	 add	 esp, 16			; 00000010H

; 4771 : }

  0001e	5d		 pop	 ebp
  0001f	c3		 ret	 0
??$_Copy_memmove@PAU_TransformStuffComponent@@PAU1@@std@@YAPAU_TransformStuffComponent@@PAU1@00@Z ENDP ; std::_Copy_memmove<_TransformStuffComponent *,_TransformStuffComponent *>
_TEXT	ENDS
; Function compile flags: /Ogtp
; File C:\Program Files\Microsoft Visual Studio\2022\Professional\VC\Tools\MSVC\14.44.35207\include\vector
; File C:\Program Files\Microsoft Visual Studio\2022\Professional\VC\Tools\MSVC\14.44.35207\include\xmemory
; File C:\Program Files\Microsoft Visual Studio\2022\Professional\VC\Tools\MSVC\14.44.35207\include\vector
; File C:\Program Files\Microsoft Visual Studio\2022\Professional\VC\Tools\MSVC\14.44.35207\include\xmemory
; File C:\Program Files\Microsoft Visual Studio\2022\Professional\VC\Tools\MSVC\14.44.35207\include\vector
; File C:\Program Files\Microsoft Visual Studio\2022\Professional\VC\Tools\MSVC\14.44.35207\include\xmemory
; File C:\Program Files\Microsoft Visual Studio\2022\Professional\VC\Tools\MSVC\14.44.35207\include\vector
; File C:\Program Files\Microsoft Visual Studio\2022\Professional\VC\Tools\MSVC\14.44.35207\include\xmemory
; File C:\Program Files\Microsoft Visual Studio\2022\Professional\VC\Tools\MSVC\14.44.35207\include\vector
; File C:\Program Files\Microsoft Visual Studio\2022\Professional\VC\Tools\MSVC\14.44.35207\include\xmemory
; File C:\Program Files\Microsoft Visual Studio\2022\Professional\VC\Tools\MSVC\14.44.35207\include\vector
; File C:\Program Files\Microsoft Visual Studio\2022\Professional\VC\Tools\MSVC\14.44.35207\include\xmemory
; File C:\Program Files\Microsoft Visual Studio\2022\Professional\VC\Tools\MSVC\14.44.35207\include\vector
; File C:\Program Files\Microsoft Visual Studio\2022\Professional\VC\Tools\MSVC\14.44.35207\include\xmemory
; File C:\Program Files\Microsoft Visual Studio\2022\Professional\VC\Tools\MSVC\14.44.35207\include\vector
; File C:\Program Files\Microsoft Visual Studio\2022\Professional\VC\Tools\MSVC\14.44.35207\include\xmemory
; File C:\Program Files\Microsoft Visual Studio\2022\Professional\VC\Tools\MSVC\14.44.35207\include\vector
; File C:\Program Files\Microsoft Visual Studio\2022\Professional\VC\Tools\MSVC\14.44.35207\include\xmemory
; File C:\Program Files\Microsoft Visual Studio\2022\Professional\VC\Tools\MSVC\14.44.35207\include\vector
;	COMDAT ??$_Emplace_reallocate@ABU_FEEDENERGY@@@?$vector@U_FEEDENERGY@@V?$allocator@U_FEEDENERGY@@@std@@@std@@AAEPAU_FEEDENERGY@@QAU2@ABU2@@Z
_TEXT	SEGMENT
__Oldsize$1$ = -12					; size = 4
__Whereoff$1$ = -8					; size = 4
tv650 = -8						; size = 4
tv652 = -4						; size = 4
__Whereptr$ = 8						; size = 4
_<_Val_0>$ = 12						; size = 4
??$_Emplace_reallocate@ABU_FEEDENERGY@@@?$vector@U_FEEDENERGY@@V?$allocator@U_FEEDENERGY@@@std@@@std@@AAEPAU_FEEDENERGY@@QAU2@ABU2@@Z PROC ; std::vector<_FEEDENERGY,std::allocator<_FEEDENERGY> >::_Emplace_reallocate<_FEEDENERGY const &>, COMDAT
; _this$ = ecx

; 875  :     _CONSTEXPR20 pointer _Emplace_reallocate(const pointer _Whereptr, _Valty&&... _Val) {

  00000	55		 push	 ebp
  00001	8b ec		 mov	 ebp, esp
  00003	83 ec 0c	 sub	 esp, 12			; 0000000cH

; 876  :         // reallocate and insert by perfectly forwarding _Val at _Whereptr
; 877  :         _Alty& _Al        = _Getal();
; 878  :         auto& _My_data    = _Mypair._Myval2;
; 879  :         pointer& _Myfirst = _My_data._Myfirst;
; 880  :         pointer& _Mylast  = _My_data._Mylast;
; 881  : 
; 882  :         _STL_INTERNAL_CHECK(_Mylast == _My_data._Myend); // check that we have no unused capacity
; 883  : 
; 884  :         const auto _Whereoff = static_cast<size_type>(_Whereptr - _Myfirst);

  00006	8b 55 08	 mov	 edx, DWORD PTR __Whereptr$[ebp]
  00009	b8 ab aa aa 2a	 mov	 eax, 715827883		; 2aaaaaabH
  0000e	53		 push	 ebx
  0000f	8b d9		 mov	 ebx, ecx
  00011	57		 push	 edi
  00012	8b 3b		 mov	 edi, DWORD PTR [ebx]
  00014	2b d7		 sub	 edx, edi

; 885  :         const auto _Oldsize  = static_cast<size_type>(_Mylast - _Myfirst);

  00016	8b 4b 04	 mov	 ecx, DWORD PTR [ebx+4]
  00019	f7 ea		 imul	 edx
  0001b	2b cf		 sub	 ecx, edi
  0001d	d1 fa		 sar	 edx, 1
  0001f	8b c2		 mov	 eax, edx
  00021	c1 e8 1f	 shr	 eax, 31			; 0000001fH
  00024	03 c2		 add	 eax, edx
  00026	89 45 f8	 mov	 DWORD PTR __Whereoff$1$[ebp], eax
  00029	b8 ab aa aa 2a	 mov	 eax, 715827883		; 2aaaaaabH
  0002e	f7 e9		 imul	 ecx
  00030	d1 fa		 sar	 edx, 1
  00032	8b c2		 mov	 eax, edx
  00034	c1 e8 1f	 shr	 eax, 31			; 0000001fH
  00037	03 c2		 add	 eax, edx
  00039	89 45 f4	 mov	 DWORD PTR __Oldsize$1$[ebp], eax

; 886  : 
; 887  :         if (_Oldsize == max_size()) {

  0003c	3d 55 55 55 15	 cmp	 eax, 357913941		; 15555555H
  00041	0f 84 42 01 00
	00		 je	 $LN119@Emplace_re

; 1924 :         return static_cast<size_type>(_My_data._Myend - _My_data._Myfirst);

  00047	8b 4b 08	 mov	 ecx, DWORD PTR [ebx+8]
  0004a	2b cf		 sub	 ecx, edi
  0004c	56		 push	 esi

; 889  :         }
; 890  : 
; 891  :         const size_type _Newsize = _Oldsize + 1;

  0004d	8d 70 01	 lea	 esi, DWORD PTR [eax+1]

; 1924 :         return static_cast<size_type>(_My_data._Myend - _My_data._Myfirst);

  00050	b8 ab aa aa 2a	 mov	 eax, 715827883		; 2aaaaaabH
  00055	f7 e9		 imul	 ecx

; 2011 :         if (_Oldcapacity > _Max - _Oldcapacity / 2) {

  00057	b8 55 55 55 15	 mov	 eax, 357913941		; 15555555H

; 1924 :         return static_cast<size_type>(_My_data._Myend - _My_data._Myfirst);

  0005c	d1 fa		 sar	 edx, 1
  0005e	8b ca		 mov	 ecx, edx
  00060	c1 e9 1f	 shr	 ecx, 31			; 0000001fH
  00063	03 ca		 add	 ecx, edx

; 2011 :         if (_Oldcapacity > _Max - _Oldcapacity / 2) {

  00065	8b d1		 mov	 edx, ecx
  00067	d1 ea		 shr	 edx, 1
  00069	2b c2		 sub	 eax, edx
  0006b	3b c8		 cmp	 ecx, eax
  0006d	76 14		 jbe	 SHORT $LN8@Emplace_re

; 2012 :             return _Max; // geometric growth would overflow

  0006f	b8 fc ff ff ff	 mov	 eax, -4			; fffffffcH
  00074	c7 45 fc fc ff
	ff ff		 mov	 DWORD PTR tv652[ebp], -4 ; fffffffcH
; File C:\Program Files\Microsoft Visual Studio\2022\Professional\VC\Tools\MSVC\14.44.35207\include\xmemory

; 253  :             return _Allocate_manually_vector_aligned<_Traits>(_Bytes);

  0007b	50		 push	 eax
  0007c	e8 00 00 00 00	 call	 ??$_Allocate_manually_vector_aligned@U_Default_allocate_traits@std@@@std@@YAPAXI@Z ; std::_Allocate_manually_vector_aligned<std::_Default_allocate_traits>
  00081	eb 3e		 jmp	 SHORT $LN117@Emplace_re
$LN8@Emplace_re:
; File C:\Program Files\Microsoft Visual Studio\2022\Professional\VC\Tools\MSVC\14.44.35207\include\vector

; 2015 :         const size_type _Geometric = _Oldcapacity + _Oldcapacity / 2;

  00083	8d 04 0a	 lea	 eax, DWORD PTR [edx+ecx]
; File C:\Program Files\Microsoft Visual Studio\2022\Professional\VC\Tools\MSVC\14.44.35207\include\xmemory

; 117  :         if (_Count > _Max_possible) {

  00086	8b ce		 mov	 ecx, esi
  00088	3b c6		 cmp	 eax, esi
  0008a	0f 43 c8	 cmovae	 ecx, eax
  0008d	81 f9 55 55 55
	15		 cmp	 ecx, 357913941		; 15555555H
  00093	0f 87 f5 00 00
	00		 ja	 $LN120@Emplace_re

; 119  :         }
; 120  :     }
; 121  : 
; 122  :     return _Count * _Ty_size;

  00099	8d 34 49	 lea	 esi, DWORD PTR [ecx+ecx*2]
  0009c	c1 e6 02	 shl	 esi, 2

; 990  :         return static_cast<_Ty*>(_STD _Allocate<_New_alignof<_Ty>>(_Get_size_of_n<sizeof(_Ty)>(_Count)));

  0009f	8b c6		 mov	 eax, esi

; 122  :     return _Count * _Ty_size;

  000a1	89 75 fc	 mov	 DWORD PTR tv652[ebp], esi

; 227  :     if (_Bytes == 0) {

  000a4	85 c0		 test	 eax, eax
  000a6	75 04		 jne	 SHORT $LN23@Emplace_re

; 228  :         return nullptr;

  000a8	33 ff		 xor	 edi, edi
  000aa	eb 1a		 jmp	 SHORT $LN22@Emplace_re
$LN23@Emplace_re:

; 229  :     }
; 230  : 
; 231  : #if _HAS_CXX20 // TRANSITION, GH-1532
; 232  :     if (_STD is_constant_evaluated()) {
; 233  :         return _Traits::_Allocate(_Bytes);
; 234  :     }
; 235  : #endif // _HAS_CXX20
; 236  : 
; 237  : #ifdef __cpp_aligned_new
; 238  :     if constexpr (_Align > __STDCPP_DEFAULT_NEW_ALIGNMENT__) {
; 239  :         size_t _Passed_align = _Align;
; 240  : #if defined(_M_IX86) || defined(_M_X64)
; 241  :         if (_Bytes >= _Big_allocation_threshold) {
; 242  :             // boost the alignment of big allocations to help autovectorization
; 243  :             _Passed_align = (_STD max)(_Align, _Big_allocation_alignment);
; 244  :         }
; 245  : #endif // defined(_M_IX86) || defined(_M_X64)
; 246  :         return _Traits::_Allocate_aligned(_Bytes, _Passed_align);
; 247  :     } else
; 248  : #endif // defined(__cpp_aligned_new)
; 249  :     {
; 250  : #if defined(_M_IX86) || defined(_M_X64)
; 251  :         if (_Bytes >= _Big_allocation_threshold) {

  000ac	3d 00 10 00 00	 cmp	 eax, 4096		; 00001000H
  000b1	72 08		 jb	 SHORT $LN24@Emplace_re

; 253  :             return _Allocate_manually_vector_aligned<_Traits>(_Bytes);

  000b3	50		 push	 eax
  000b4	e8 00 00 00 00	 call	 ??$_Allocate_manually_vector_aligned@U_Default_allocate_traits@std@@@std@@YAPAXI@Z ; std::_Allocate_manually_vector_aligned<std::_Default_allocate_traits>
  000b9	eb 06		 jmp	 SHORT $LN117@Emplace_re
$LN24@Emplace_re:

; 136  :         return ::operator new(_Bytes);

  000bb	50		 push	 eax
  000bc	e8 00 00 00 00	 call	 ??2@YAPAXI@Z		; operator new
$LN117@Emplace_re:
; File C:\Program Files\Microsoft Visual Studio\2022\Professional\VC\Tools\MSVC\14.44.35207\include\vector

; 900  :         _Alty_traits::construct(_Al, _STD _Unfancy(_Newvec + _Whereoff), _STD forward<_Valty>(_Val)...);

  000c1	8b f8		 mov	 edi, eax
  000c3	83 c4 04	 add	 esp, 4
$LN22@Emplace_re:
  000c6	8b 45 f8	 mov	 eax, DWORD PTR __Whereoff$1$[ebp]

; 903  :         if (_Whereptr == _Mylast) { // at back, provide strong guarantee

  000c9	8b 55 08	 mov	 edx, DWORD PTR __Whereptr$[ebp]
  000cc	8d 04 40	 lea	 eax, DWORD PTR [eax+eax*2]
  000cf	8d 34 87	 lea	 esi, DWORD PTR [edi+eax*4]
; File C:\Program Files\Microsoft Visual Studio\2022\Professional\VC\Tools\MSVC\14.44.35207\include\xmemory

; 732  :         ::new (const_cast<void*>(static_cast<const volatile void*>(_Ptr))) _Objty(_STD forward<_Types>(_Args)...);

  000d2	8b 45 0c	 mov	 eax, DWORD PTR _<_Val_0>$[ebp]
; File C:\Program Files\Microsoft Visual Studio\2022\Professional\VC\Tools\MSVC\14.44.35207\include\vector

; 900  :         _Alty_traits::construct(_Al, _STD _Unfancy(_Newvec + _Whereoff), _STD forward<_Valty>(_Val)...);

  000d5	89 75 f8	 mov	 DWORD PTR tv650[ebp], esi
; File C:\Program Files\Microsoft Visual Studio\2022\Professional\VC\Tools\MSVC\14.44.35207\include\xmemory

; 732  :         ::new (const_cast<void*>(static_cast<const volatile void*>(_Ptr))) _Objty(_STD forward<_Types>(_Args)...);

  000d8	f3 0f 7e 00	 movq	 xmm0, QWORD PTR [eax]
  000dc	66 0f d6 06	 movq	 QWORD PTR [esi], xmm0
  000e0	8b 40 08	 mov	 eax, DWORD PTR [eax+8]
  000e3	89 46 08	 mov	 DWORD PTR [esi+8], eax
; File C:\Program Files\Microsoft Visual Studio\2022\Professional\VC\Tools\MSVC\14.44.35207\include\vector

; 903  :         if (_Whereptr == _Mylast) { // at back, provide strong guarantee

  000e6	8b 4b 04	 mov	 ecx, DWORD PTR [ebx+4]
  000e9	8b 03		 mov	 eax, DWORD PTR [ebx]
  000eb	3b d1		 cmp	 edx, ecx
  000ed	75 04		 jne	 SHORT $LN3@Emplace_re
; File C:\Program Files\Microsoft Visual Studio\2022\Professional\VC\Tools\MSVC\14.44.35207\include\xmemory

; 1992 :             _STD _Copy_memmove(_UFirst, _ULast, _STD _Unfancy(_Dest));

  000ef	8b f7		 mov	 esi, edi
; File C:\Program Files\Microsoft Visual Studio\2022\Professional\VC\Tools\MSVC\14.44.35207\include\vector

; 909  :         } else { // provide basic guarantee

  000f1	eb 14		 jmp	 SHORT $LN58@Emplace_re
$LN3@Emplace_re:
; File C:\Program Files\Microsoft Visual Studio\2022\Professional\VC\Tools\MSVC\14.44.35207\include\xmemory

; 1992 :             _STD _Copy_memmove(_UFirst, _ULast, _STD _Unfancy(_Dest));

  000f3	57		 push	 edi
  000f4	52		 push	 edx
  000f5	50		 push	 eax
  000f6	e8 00 00 00 00	 call	 ??$_Copy_memmove@PAU_FEEDENERGY@@PAU1@@std@@YAPAU_FEEDENERGY@@PAU1@00@Z ; std::_Copy_memmove<_FEEDENERGY *,_FEEDENERGY *>
  000fb	8b 45 08	 mov	 eax, DWORD PTR __Whereptr$[ebp]
  000fe	83 c4 0c	 add	 esp, 12			; 0000000cH
  00101	8b 4b 04	 mov	 ecx, DWORD PTR [ebx+4]
; File C:\Program Files\Microsoft Visual Studio\2022\Professional\VC\Tools\MSVC\14.44.35207\include\vector

; 912  :             _STD _Uninitialized_move(_Whereptr, _Mylast, _Newvec + _Whereoff + 1, _Al);

  00104	83 c6 0c	 add	 esi, 12			; 0000000cH
$LN58@Emplace_re:

; 913  :         }
; 914  : 
; 915  :         _Guard._New_begin = nullptr;

  00107	56		 push	 esi
  00108	51		 push	 ecx
  00109	50		 push	 eax
  0010a	e8 00 00 00 00	 call	 ??$_Copy_memmove@PAU_FEEDENERGY@@PAU1@@std@@YAPAU_FEEDENERGY@@PAU1@00@Z ; std::_Copy_memmove<_FEEDENERGY *,_FEEDENERGY *>

; 2069 :         if (_Myfirst) { // destroy and deallocate old array

  0010f	8b 33		 mov	 esi, DWORD PTR [ebx]

; 913  :         }
; 914  : 
; 915  :         _Guard._New_begin = nullptr;

  00111	83 c4 0c	 add	 esp, 12			; 0000000cH

; 2069 :         if (_Myfirst) { // destroy and deallocate old array

  00114	85 f6		 test	 esi, esi
  00116	74 3f		 je	 SHORT $LN80@Emplace_re

; 2070 :             _STD _Destroy_range(_Myfirst, _Mylast, _Al);
; 2071 :             _ASAN_VECTOR_REMOVE;
; 2072 :             _Al.deallocate(_Myfirst, static_cast<size_type>(_Myend - _Myfirst));

  00118	8b 4b 08	 mov	 ecx, DWORD PTR [ebx+8]
  0011b	b8 ab aa aa 2a	 mov	 eax, 715827883		; 2aaaaaabH
  00120	2b ce		 sub	 ecx, esi
  00122	f7 e9		 imul	 ecx
  00124	d1 fa		 sar	 edx, 1
  00126	8b c2		 mov	 eax, edx
  00128	c1 e8 1f	 shr	 eax, 31			; 0000001fH
  0012b	03 c2		 add	 eax, edx
; File C:\Program Files\Microsoft Visual Studio\2022\Professional\VC\Tools\MSVC\14.44.35207\include\xmemory

; 985  :         _STD _Deallocate<_New_alignof<_Ty>>(_Ptr, sizeof(_Ty) * _Count);

  0012d	8d 0c 40	 lea	 ecx, DWORD PTR [eax+eax*2]
  00130	c1 e1 02	 shl	 ecx, 2

; 284  :         if (_Bytes >= _Big_allocation_threshold) {

  00133	81 f9 00 10 00
	00		 cmp	 ecx, 4096		; 00001000H
  00139	72 12		 jb	 SHORT $LN85@Emplace_re

; 205  :     const uintptr_t _Ptr_container   = _Ptr_user[-1];

  0013b	8b 56 fc	 mov	 edx, DWORD PTR [esi-4]
  0013e	83 c1 23	 add	 ecx, 35			; 00000023H

; 206  : 
; 207  :     // If the following asserts, it likely means that we are performing
; 208  :     // an aligned delete on memory coming from an unaligned allocation.
; 209  :     _STL_ASSERT(_Ptr_user[-2] == _Big_allocation_sentinel, "invalid argument");
; 210  : 
; 211  :     // Extra paranoia on aligned allocation/deallocation; ensure _Ptr_container is
; 212  :     // in range [_Min_back_shift, _Non_user_size]
; 213  : #ifdef _DEBUG
; 214  :     constexpr uintptr_t _Min_back_shift = 2 * sizeof(void*);
; 215  : #else // ^^^ defined(_DEBUG) / !defined(_DEBUG) vvv
; 216  :     constexpr uintptr_t _Min_back_shift = sizeof(void*);
; 217  : #endif // ^^^ !defined(_DEBUG) ^^^
; 218  :     const uintptr_t _Back_shift = reinterpret_cast<uintptr_t>(_Ptr) - _Ptr_container;

  00141	2b f2		 sub	 esi, edx

; 219  :     _STL_VERIFY(_Back_shift >= _Min_back_shift && _Back_shift <= _Non_user_size, "invalid argument");

  00143	8d 46 fc	 lea	 eax, DWORD PTR [esi-4]
  00146	83 f8 1f	 cmp	 eax, 31			; 0000001fH
  00149	77 2f		 ja	 SHORT $LN84@Emplace_re

; 220  :     _Ptr = reinterpret_cast<void*>(_Ptr_container);

  0014b	8b f2		 mov	 esi, edx
$LN85@Emplace_re:

; 289  :         ::operator delete(_Ptr, _Bytes);

  0014d	51		 push	 ecx
  0014e	56		 push	 esi
  0014f	e8 00 00 00 00	 call	 ??3@YAXPAXI@Z		; operator delete
  00154	83 c4 08	 add	 esp, 8
$LN80@Emplace_re:
; File C:\Program Files\Microsoft Visual Studio\2022\Professional\VC\Tools\MSVC\14.44.35207\include\vector

; 2076 :         _Mylast  = _Newvec + _Newsize;

  00157	8b 45 f4	 mov	 eax, DWORD PTR __Oldsize$1$[ebp]
  0015a	40		 inc	 eax
  0015b	89 3b		 mov	 DWORD PTR [ebx], edi

; 916  :         _Change_array(_Newvec, _Newsize, _Newcapacity);
; 917  :         return _Newvec + _Whereoff;

  0015d	5e		 pop	 esi

; 2076 :         _Mylast  = _Newvec + _Newsize;

  0015e	8d 0c 40	 lea	 ecx, DWORD PTR [eax+eax*2]

; 916  :         _Change_array(_Newvec, _Newsize, _Newcapacity);
; 917  :         return _Newvec + _Whereoff;

  00161	8b 45 f8	 mov	 eax, DWORD PTR tv650[ebp]

; 2076 :         _Mylast  = _Newvec + _Newsize;

  00164	8d 0c 8f	 lea	 ecx, DWORD PTR [edi+ecx*4]
  00167	89 4b 04	 mov	 DWORD PTR [ebx+4], ecx

; 2077 :         _Myend   = _Newvec + _Newcapacity;

  0016a	8b 4d fc	 mov	 ecx, DWORD PTR tv652[ebp]
  0016d	03 cf		 add	 ecx, edi

; 918  :     }

  0016f	5f		 pop	 edi

; 2077 :         _Myend   = _Newvec + _Newcapacity;

  00170	89 4b 08	 mov	 DWORD PTR [ebx+8], ecx

; 918  :     }

  00173	5b		 pop	 ebx
  00174	8b e5		 mov	 esp, ebp
  00176	5d		 pop	 ebp
  00177	c2 08 00	 ret	 8
$LN84@Emplace_re:
; File C:\Program Files\Microsoft Visual Studio\2022\Professional\VC\Tools\MSVC\14.44.35207\include\xmemory

; 219  :     _STL_VERIFY(_Back_shift >= _Min_back_shift && _Back_shift <= _Non_user_size, "invalid argument");

  0017a	6a 00		 push	 0
  0017c	6a 00		 push	 0
  0017e	6a 00		 push	 0
  00180	6a 00		 push	 0
  00182	6a 00		 push	 0
  00184	e8 00 00 00 00	 call	 __invoke_watson
$LN119@Emplace_re:
; File C:\Program Files\Microsoft Visual Studio\2022\Professional\VC\Tools\MSVC\14.44.35207\include\vector

; 888  :             _Xlength();

  00189	e8 00 00 00 00	 call	 ?_Xlength@?$vector@U_FEEDENERGY@@V?$allocator@U_FEEDENERGY@@@std@@@std@@CAXXZ ; std::vector<_FEEDENERGY,std::allocator<_FEEDENERGY> >::_Xlength
$LN120@Emplace_re:
; File C:\Program Files\Microsoft Visual Studio\2022\Professional\VC\Tools\MSVC\14.44.35207\include\xmemory

; 118  :             _Throw_bad_array_new_length(); // multiply overflow

  0018e	e8 00 00 00 00	 call	 ?_Throw_bad_array_new_length@std@@YAXXZ ; std::_Throw_bad_array_new_length
$LN116@Emplace_re:
  00193	cc		 int	 3
??$_Emplace_reallocate@ABU_FEEDENERGY@@@?$vector@U_FEEDENERGY@@V?$allocator@U_FEEDENERGY@@@std@@@std@@AAEPAU_FEEDENERGY@@QAU2@ABU2@@Z ENDP ; std::vector<_FEEDENERGY,std::allocator<_FEEDENERGY> >::_Emplace_reallocate<_FEEDENERGY const &>
_TEXT	ENDS
; Function compile flags: /Ogtp
; File C:\Program Files\Microsoft Visual Studio\2022\Professional\VC\Tools\MSVC\14.44.35207\include\vector
; File C:\Program Files\Microsoft Visual Studio\2022\Professional\VC\Tools\MSVC\14.44.35207\include\xmemory
; File C:\Program Files\Microsoft Visual Studio\2022\Professional\VC\Tools\MSVC\14.44.35207\include\vector
; File C:\Program Files\Microsoft Visual Studio\2022\Professional\VC\Tools\MSVC\14.44.35207\include\xmemory
; File C:\Program Files\Microsoft Visual Studio\2022\Professional\VC\Tools\MSVC\14.44.35207\include\vector
; File C:\Program Files\Microsoft Visual Studio\2022\Professional\VC\Tools\MSVC\14.44.35207\include\xmemory
; File C:\Program Files\Microsoft Visual Studio\2022\Professional\VC\Tools\MSVC\14.44.35207\include\vector
; File C:\Program Files\Microsoft Visual Studio\2022\Professional\VC\Tools\MSVC\14.44.35207\include\xmemory
; File C:\Program Files\Microsoft Visual Studio\2022\Professional\VC\Tools\MSVC\14.44.35207\include\vector
; File C:\Program Files\Microsoft Visual Studio\2022\Professional\VC\Tools\MSVC\14.44.35207\include\xmemory
; File C:\Program Files\Microsoft Visual Studio\2022\Professional\VC\Tools\MSVC\14.44.35207\include\vector
; File C:\Program Files\Microsoft Visual Studio\2022\Professional\VC\Tools\MSVC\14.44.35207\include\xmemory
; File C:\Program Files\Microsoft Visual Studio\2022\Professional\VC\Tools\MSVC\14.44.35207\include\vector
; File C:\Program Files\Microsoft Visual Studio\2022\Professional\VC\Tools\MSVC\14.44.35207\include\xmemory
; File C:\Program Files\Microsoft Visual Studio\2022\Professional\VC\Tools\MSVC\14.44.35207\include\vector
; File C:\Program Files\Microsoft Visual Studio\2022\Professional\VC\Tools\MSVC\14.44.35207\include\xmemory
; File C:\Program Files\Microsoft Visual Studio\2022\Professional\VC\Tools\MSVC\14.44.35207\include\vector
;	COMDAT ??$_Emplace_reallocate@ABG@?$vector@GV?$allocator@G@std@@@std@@AAEPAGQAGABG@Z
_TEXT	SEGMENT
__Newsize$1$ = -12					; size = 4
tv652 = -8						; size = 4
tv650 = -4						; size = 4
__Whereptr$ = 8						; size = 4
_<_Val_0>$ = 12						; size = 4
??$_Emplace_reallocate@ABG@?$vector@GV?$allocator@G@std@@@std@@AAEPAGQAGABG@Z PROC ; std::vector<unsigned short,std::allocator<unsigned short> >::_Emplace_reallocate<unsigned short const &>, COMDAT
; _this$ = ecx

; 875  :     _CONSTEXPR20 pointer _Emplace_reallocate(const pointer _Whereptr, _Valty&&... _Val) {

  00000	55		 push	 ebp
  00001	8b ec		 mov	 ebp, esp
  00003	83 ec 0c	 sub	 esp, 12			; 0000000cH
  00006	53		 push	 ebx

; 876  :         // reallocate and insert by perfectly forwarding _Val at _Whereptr
; 877  :         _Alty& _Al        = _Getal();
; 878  :         auto& _My_data    = _Mypair._Myval2;
; 879  :         pointer& _Myfirst = _My_data._Myfirst;
; 880  :         pointer& _Mylast  = _My_data._Mylast;
; 881  : 
; 882  :         _STL_INTERNAL_CHECK(_Mylast == _My_data._Myend); // check that we have no unused capacity
; 883  : 
; 884  :         const auto _Whereoff = static_cast<size_type>(_Whereptr - _Myfirst);

  00007	8b 5d 08	 mov	 ebx, DWORD PTR __Whereptr$[ebp]
  0000a	56		 push	 esi
  0000b	8b f1		 mov	 esi, ecx
  0000d	57		 push	 edi
  0000e	8b 0e		 mov	 ecx, DWORD PTR [esi]
  00010	2b d9		 sub	 ebx, ecx

; 885  :         const auto _Oldsize  = static_cast<size_type>(_Mylast - _Myfirst);

  00012	8b 46 04	 mov	 eax, DWORD PTR [esi+4]
  00015	2b c1		 sub	 eax, ecx
  00017	d1 fb		 sar	 ebx, 1
  00019	d1 f8		 sar	 eax, 1

; 886  : 
; 887  :         if (_Oldsize == max_size()) {

  0001b	3d ff ff ff 7f	 cmp	 eax, 2147483647		; 7fffffffH
  00020	0f 84 10 01 00
	00		 je	 $LN111@Emplace_re

; 1924 :         return static_cast<size_type>(_My_data._Myend - _My_data._Myfirst);

  00026	8b 56 08	 mov	 edx, DWORD PTR [esi+8]

; 889  :         }
; 890  : 
; 891  :         const size_type _Newsize = _Oldsize + 1;

  00029	8d 78 01	 lea	 edi, DWORD PTR [eax+1]

; 1924 :         return static_cast<size_type>(_My_data._Myend - _My_data._Myfirst);

  0002c	2b d1		 sub	 edx, ecx

; 889  :         }
; 890  : 
; 891  :         const size_type _Newsize = _Oldsize + 1;

  0002e	89 7d f4	 mov	 DWORD PTR __Newsize$1$[ebp], edi

; 1924 :         return static_cast<size_type>(_My_data._Myend - _My_data._Myfirst);

  00031	d1 fa		 sar	 edx, 1

; 2011 :         if (_Oldcapacity > _Max - _Oldcapacity / 2) {

  00033	b8 ff ff ff 7f	 mov	 eax, 2147483647		; 7fffffffH
  00038	8b ca		 mov	 ecx, edx
  0003a	d1 e9		 shr	 ecx, 1
  0003c	2b c1		 sub	 eax, ecx
  0003e	3b d0		 cmp	 edx, eax
  00040	76 14		 jbe	 SHORT $LN8@Emplace_re

; 2012 :             return _Max; // geometric growth would overflow

  00042	b8 fe ff ff ff	 mov	 eax, -2			; fffffffeH
  00047	c7 45 f8 fe ff
	ff ff		 mov	 DWORD PTR tv652[ebp], -2 ; fffffffeH
; File C:\Program Files\Microsoft Visual Studio\2022\Professional\VC\Tools\MSVC\14.44.35207\include\xmemory

; 253  :             return _Allocate_manually_vector_aligned<_Traits>(_Bytes);

  0004e	50		 push	 eax
  0004f	e8 00 00 00 00	 call	 ??$_Allocate_manually_vector_aligned@U_Default_allocate_traits@std@@@std@@YAPAXI@Z ; std::_Allocate_manually_vector_aligned<std::_Default_allocate_traits>
  00054	eb 39		 jmp	 SHORT $LN109@Emplace_re
$LN8@Emplace_re:
; File C:\Program Files\Microsoft Visual Studio\2022\Professional\VC\Tools\MSVC\14.44.35207\include\vector

; 2015 :         const size_type _Geometric = _Oldcapacity + _Oldcapacity / 2;

  00056	8d 04 11	 lea	 eax, DWORD PTR [ecx+edx]
; File C:\Program Files\Microsoft Visual Studio\2022\Professional\VC\Tools\MSVC\14.44.35207\include\xmemory

; 117  :         if (_Count > _Max_possible) {

  00059	8b cf		 mov	 ecx, edi
  0005b	3b c7		 cmp	 eax, edi
  0005d	0f 43 c8	 cmovae	 ecx, eax
  00060	81 f9 ff ff ff
	7f		 cmp	 ecx, 2147483647		; 7fffffffH
  00066	0f 87 cf 00 00
	00		 ja	 $LN112@Emplace_re

; 119  :         }
; 120  :     }
; 121  : 
; 122  :     return _Count * _Ty_size;

  0006c	8d 04 09	 lea	 eax, DWORD PTR [ecx+ecx]
  0006f	89 45 f8	 mov	 DWORD PTR tv652[ebp], eax

; 227  :     if (_Bytes == 0) {

  00072	85 c0		 test	 eax, eax
  00074	75 04		 jne	 SHORT $LN23@Emplace_re

; 228  :         return nullptr;

  00076	33 ff		 xor	 edi, edi
  00078	eb 1a		 jmp	 SHORT $LN22@Emplace_re
$LN23@Emplace_re:

; 229  :     }
; 230  : 
; 231  : #if _HAS_CXX20 // TRANSITION, GH-1532
; 232  :     if (_STD is_constant_evaluated()) {
; 233  :         return _Traits::_Allocate(_Bytes);
; 234  :     }
; 235  : #endif // _HAS_CXX20
; 236  : 
; 237  : #ifdef __cpp_aligned_new
; 238  :     if constexpr (_Align > __STDCPP_DEFAULT_NEW_ALIGNMENT__) {
; 239  :         size_t _Passed_align = _Align;
; 240  : #if defined(_M_IX86) || defined(_M_X64)
; 241  :         if (_Bytes >= _Big_allocation_threshold) {
; 242  :             // boost the alignment of big allocations to help autovectorization
; 243  :             _Passed_align = (_STD max)(_Align, _Big_allocation_alignment);
; 244  :         }
; 245  : #endif // defined(_M_IX86) || defined(_M_X64)
; 246  :         return _Traits::_Allocate_aligned(_Bytes, _Passed_align);
; 247  :     } else
; 248  : #endif // defined(__cpp_aligned_new)
; 249  :     {
; 250  : #if defined(_M_IX86) || defined(_M_X64)
; 251  :         if (_Bytes >= _Big_allocation_threshold) {

  0007a	3d 00 10 00 00	 cmp	 eax, 4096		; 00001000H
  0007f	72 08		 jb	 SHORT $LN24@Emplace_re

; 253  :             return _Allocate_manually_vector_aligned<_Traits>(_Bytes);

  00081	50		 push	 eax
  00082	e8 00 00 00 00	 call	 ??$_Allocate_manually_vector_aligned@U_Default_allocate_traits@std@@@std@@YAPAXI@Z ; std::_Allocate_manually_vector_aligned<std::_Default_allocate_traits>
  00087	eb 06		 jmp	 SHORT $LN109@Emplace_re
$LN24@Emplace_re:

; 136  :         return ::operator new(_Bytes);

  00089	50		 push	 eax
  0008a	e8 00 00 00 00	 call	 ??2@YAPAXI@Z		; operator new
$LN109@Emplace_re:
; File C:\Program Files\Microsoft Visual Studio\2022\Professional\VC\Tools\MSVC\14.44.35207\include\vector

; 900  :         _Alty_traits::construct(_Al, _STD _Unfancy(_Newvec + _Whereoff), _STD forward<_Valty>(_Val)...);

  0008f	8b f8		 mov	 edi, eax
  00091	83 c4 04	 add	 esp, 4
$LN22@Emplace_re:
  00094	8b 45 0c	 mov	 eax, DWORD PTR _<_Val_0>$[ebp]
  00097	8d 0c 5f	 lea	 ecx, DWORD PTR [edi+ebx*2]

; 901  :         _Constructed_first = _Newvec + _Whereoff;
; 902  : 
; 903  :         if (_Whereptr == _Mylast) { // at back, provide strong guarantee

  0009a	8b 5d 08	 mov	 ebx, DWORD PTR __Whereptr$[ebp]
  0009d	89 4d fc	 mov	 DWORD PTR tv650[ebp], ecx
  000a0	66 8b 00	 mov	 ax, WORD PTR [eax]
  000a3	66 89 01	 mov	 WORD PTR [ecx], ax
  000a6	8b 46 04	 mov	 eax, DWORD PTR [esi+4]
  000a9	8b 0e		 mov	 ecx, DWORD PTR [esi]
  000ab	3b d8		 cmp	 ebx, eax
  000ad	75 07		 jne	 SHORT $LN3@Emplace_re

; 909  :         } else { // provide basic guarantee

  000af	8b 5d fc	 mov	 ebx, DWORD PTR tv650[ebp]
; File C:\Program Files\Microsoft Visual Studio\2022\Professional\VC\Tools\MSVC\14.44.35207\include\xmemory

; 1992 :             _STD _Copy_memmove(_UFirst, _ULast, _STD _Unfancy(_Dest));

  000b2	8b d7		 mov	 edx, edi
; File C:\Program Files\Microsoft Visual Studio\2022\Professional\VC\Tools\MSVC\14.44.35207\include\vector

; 909  :         } else { // provide basic guarantee

  000b4	eb 16		 jmp	 SHORT $LN52@Emplace_re
$LN3@Emplace_re:
; File C:\Program Files\Microsoft Visual Studio\2022\Professional\VC\Tools\MSVC\14.44.35207\include\xmemory

; 1992 :             _STD _Copy_memmove(_UFirst, _ULast, _STD _Unfancy(_Dest));

  000b6	57		 push	 edi
  000b7	53		 push	 ebx
  000b8	51		 push	 ecx
  000b9	e8 00 00 00 00	 call	 ??$_Copy_memmove@PAGPAG@std@@YAPAGPAG00@Z ; std::_Copy_memmove<unsigned short *,unsigned short *>
  000be	8b 46 04	 mov	 eax, DWORD PTR [esi+4]
  000c1	8b cb		 mov	 ecx, ebx
; File C:\Program Files\Microsoft Visual Studio\2022\Professional\VC\Tools\MSVC\14.44.35207\include\vector

; 912  :             _STD _Uninitialized_move(_Whereptr, _Mylast, _Newvec + _Whereoff + 1, _Al);

  000c3	8b 5d fc	 mov	 ebx, DWORD PTR tv650[ebp]
; File C:\Program Files\Microsoft Visual Studio\2022\Professional\VC\Tools\MSVC\14.44.35207\include\xmemory

; 1992 :             _STD _Copy_memmove(_UFirst, _ULast, _STD _Unfancy(_Dest));

  000c6	83 c4 0c	 add	 esp, 12			; 0000000cH
; File C:\Program Files\Microsoft Visual Studio\2022\Professional\VC\Tools\MSVC\14.44.35207\include\vector

; 912  :             _STD _Uninitialized_move(_Whereptr, _Mylast, _Newvec + _Whereoff + 1, _Al);

  000c9	8d 53 02	 lea	 edx, DWORD PTR [ebx+2]
$LN52@Emplace_re:

; 913  :         }
; 914  : 
; 915  :         _Guard._New_begin = nullptr;

  000cc	52		 push	 edx
  000cd	50		 push	 eax
  000ce	51		 push	 ecx
  000cf	e8 00 00 00 00	 call	 ??$_Copy_memmove@PAGPAG@std@@YAPAGPAG00@Z ; std::_Copy_memmove<unsigned short *,unsigned short *>

; 2069 :         if (_Myfirst) { // destroy and deallocate old array

  000d4	8b 06		 mov	 eax, DWORD PTR [esi]

; 913  :         }
; 914  : 
; 915  :         _Guard._New_begin = nullptr;

  000d6	83 c4 0c	 add	 esp, 12			; 0000000cH

; 2069 :         if (_Myfirst) { // destroy and deallocate old array

  000d9	85 c0		 test	 eax, eax
  000db	74 2c		 je	 SHORT $LN72@Emplace_re

; 2070 :             _STD _Destroy_range(_Myfirst, _Mylast, _Al);
; 2071 :             _ASAN_VECTOR_REMOVE;
; 2072 :             _Al.deallocate(_Myfirst, static_cast<size_type>(_Myend - _Myfirst));

  000dd	8b 4e 08	 mov	 ecx, DWORD PTR [esi+8]
  000e0	2b c8		 sub	 ecx, eax
; File C:\Program Files\Microsoft Visual Studio\2022\Professional\VC\Tools\MSVC\14.44.35207\include\xmemory

; 985  :         _STD _Deallocate<_New_alignof<_Ty>>(_Ptr, sizeof(_Ty) * _Count);

  000e2	83 e1 fe	 and	 ecx, -2			; fffffffeH

; 284  :         if (_Bytes >= _Big_allocation_threshold) {

  000e5	81 f9 00 10 00
	00		 cmp	 ecx, 4096		; 00001000H
  000eb	72 12		 jb	 SHORT $LN77@Emplace_re

; 205  :     const uintptr_t _Ptr_container   = _Ptr_user[-1];

  000ed	8b 50 fc	 mov	 edx, DWORD PTR [eax-4]
  000f0	83 c1 23	 add	 ecx, 35			; 00000023H

; 206  : 
; 207  :     // If the following asserts, it likely means that we are performing
; 208  :     // an aligned delete on memory coming from an unaligned allocation.
; 209  :     _STL_ASSERT(_Ptr_user[-2] == _Big_allocation_sentinel, "invalid argument");
; 210  : 
; 211  :     // Extra paranoia on aligned allocation/deallocation; ensure _Ptr_container is
; 212  :     // in range [_Min_back_shift, _Non_user_size]
; 213  : #ifdef _DEBUG
; 214  :     constexpr uintptr_t _Min_back_shift = 2 * sizeof(void*);
; 215  : #else // ^^^ defined(_DEBUG) / !defined(_DEBUG) vvv
; 216  :     constexpr uintptr_t _Min_back_shift = sizeof(void*);
; 217  : #endif // ^^^ !defined(_DEBUG) ^^^
; 218  :     const uintptr_t _Back_shift = reinterpret_cast<uintptr_t>(_Ptr) - _Ptr_container;

  000f3	2b c2		 sub	 eax, edx

; 219  :     _STL_VERIFY(_Back_shift >= _Min_back_shift && _Back_shift <= _Non_user_size, "invalid argument");

  000f5	83 c0 fc	 add	 eax, -4			; fffffffcH
  000f8	83 f8 1f	 cmp	 eax, 31			; 0000001fH
  000fb	77 2a		 ja	 SHORT $LN76@Emplace_re

; 220  :     _Ptr = reinterpret_cast<void*>(_Ptr_container);

  000fd	8b c2		 mov	 eax, edx
$LN77@Emplace_re:

; 289  :         ::operator delete(_Ptr, _Bytes);

  000ff	51		 push	 ecx
  00100	50		 push	 eax
  00101	e8 00 00 00 00	 call	 ??3@YAXPAXI@Z		; operator delete
  00106	83 c4 08	 add	 esp, 8
$LN72@Emplace_re:
; File C:\Program Files\Microsoft Visual Studio\2022\Professional\VC\Tools\MSVC\14.44.35207\include\vector

; 2076 :         _Mylast  = _Newvec + _Newsize;

  00109	8b 45 f4	 mov	 eax, DWORD PTR __Newsize$1$[ebp]
  0010c	89 3e		 mov	 DWORD PTR [esi], edi
  0010e	8d 0c 47	 lea	 ecx, DWORD PTR [edi+eax*2]

; 916  :         _Change_array(_Newvec, _Newsize, _Newcapacity);
; 917  :         return _Newvec + _Whereoff;

  00111	8b c3		 mov	 eax, ebx

; 2076 :         _Mylast  = _Newvec + _Newsize;

  00113	89 4e 04	 mov	 DWORD PTR [esi+4], ecx

; 2077 :         _Myend   = _Newvec + _Newcapacity;

  00116	8b 4d f8	 mov	 ecx, DWORD PTR tv652[ebp]
  00119	03 cf		 add	 ecx, edi

; 918  :     }

  0011b	5f		 pop	 edi

; 2077 :         _Myend   = _Newvec + _Newcapacity;

  0011c	89 4e 08	 mov	 DWORD PTR [esi+8], ecx

; 918  :     }

  0011f	5e		 pop	 esi
  00120	5b		 pop	 ebx
  00121	8b e5		 mov	 esp, ebp
  00123	5d		 pop	 ebp
  00124	c2 08 00	 ret	 8
$LN76@Emplace_re:
; File C:\Program Files\Microsoft Visual Studio\2022\Professional\VC\Tools\MSVC\14.44.35207\include\xmemory

; 219  :     _STL_VERIFY(_Back_shift >= _Min_back_shift && _Back_shift <= _Non_user_size, "invalid argument");

  00127	6a 00		 push	 0
  00129	6a 00		 push	 0
  0012b	6a 00		 push	 0
  0012d	6a 00		 push	 0
  0012f	6a 00		 push	 0
  00131	e8 00 00 00 00	 call	 __invoke_watson
$LN111@Emplace_re:
; File C:\Program Files\Microsoft Visual Studio\2022\Professional\VC\Tools\MSVC\14.44.35207\include\vector

; 888  :             _Xlength();

  00136	e8 00 00 00 00	 call	 ?_Xlength@?$vector@GV?$allocator@G@std@@@std@@CAXXZ ; std::vector<unsigned short,std::allocator<unsigned short> >::_Xlength
$LN112@Emplace_re:
; File C:\Program Files\Microsoft Visual Studio\2022\Professional\VC\Tools\MSVC\14.44.35207\include\xmemory

; 118  :             _Throw_bad_array_new_length(); // multiply overflow

  0013b	e8 00 00 00 00	 call	 ?_Throw_bad_array_new_length@std@@YAXXZ ; std::_Throw_bad_array_new_length
$LN108@Emplace_re:
  00140	cc		 int	 3
??$_Emplace_reallocate@ABG@?$vector@GV?$allocator@G@std@@@std@@AAEPAGQAGABG@Z ENDP ; std::vector<unsigned short,std::allocator<unsigned short> >::_Emplace_reallocate<unsigned short const &>
_TEXT	ENDS
; Function compile flags: /Ogtp
; File C:\Program Files\Microsoft Visual Studio\2022\Professional\VC\Tools\MSVC\14.44.35207\include\vector
; File C:\Program Files\Microsoft Visual Studio\2022\Professional\VC\Tools\MSVC\14.44.35207\include\xmemory
; File C:\Program Files\Microsoft Visual Studio\2022\Professional\VC\Tools\MSVC\14.44.35207\include\vector
; File C:\Program Files\Microsoft Visual Studio\2022\Professional\VC\Tools\MSVC\14.44.35207\include\xmemory
; File C:\Program Files\Microsoft Visual Studio\2022\Professional\VC\Tools\MSVC\14.44.35207\include\vector
; File C:\Program Files\Microsoft Visual Studio\2022\Professional\VC\Tools\MSVC\14.44.35207\include\xmemory
; File C:\Program Files\Microsoft Visual Studio\2022\Professional\VC\Tools\MSVC\14.44.35207\include\vector
; File C:\Program Files\Microsoft Visual Studio\2022\Professional\VC\Tools\MSVC\14.44.35207\include\xmemory
; File C:\Program Files\Microsoft Visual Studio\2022\Professional\VC\Tools\MSVC\14.44.35207\include\vector
; File C:\Program Files\Microsoft Visual Studio\2022\Professional\VC\Tools\MSVC\14.44.35207\include\xmemory
; File C:\Program Files\Microsoft Visual Studio\2022\Professional\VC\Tools\MSVC\14.44.35207\include\vector
; File C:\Program Files\Microsoft Visual Studio\2022\Professional\VC\Tools\MSVC\14.44.35207\include\xmemory
; File C:\Program Files\Microsoft Visual Studio\2022\Professional\VC\Tools\MSVC\14.44.35207\include\vector
; File C:\Program Files\Microsoft Visual Studio\2022\Professional\VC\Tools\MSVC\14.44.35207\include\xmemory
; File C:\Program Files\Microsoft Visual Studio\2022\Professional\VC\Tools\MSVC\14.44.35207\include\vector
; File C:\Program Files\Microsoft Visual Studio\2022\Professional\VC\Tools\MSVC\14.44.35207\include\xmemory
; File C:\Program Files\Microsoft Visual Studio\2022\Professional\VC\Tools\MSVC\14.44.35207\include\vector
;	COMDAT ??$_Emplace_reallocate@ABU_TransformStuffComponent@@@?$vector@U_TransformStuffComponent@@V?$allocator@U_TransformStuffComponent@@@std@@@std@@AAEPAU_TransformStuffComponent@@QAU2@ABU2@@Z
_TEXT	SEGMENT
__Newsize$1$ = -8					; size = 4
tv650 = -4						; size = 4
__Whereptr$ = 8						; size = 4
_<_Val_0>$ = 12						; size = 4
??$_Emplace_reallocate@ABU_TransformStuffComponent@@@?$vector@U_TransformStuffComponent@@V?$allocator@U_TransformStuffComponent@@@std@@@std@@AAEPAU_TransformStuffComponent@@QAU2@ABU2@@Z PROC ; std::vector<_TransformStuffComponent,std::allocator<_TransformStuffComponent> >::_Emplace_reallocate<_TransformStuffComponent const &>, COMDAT
; _this$ = ecx

; 875  :     _CONSTEXPR20 pointer _Emplace_reallocate(const pointer _Whereptr, _Valty&&... _Val) {

  00000	55		 push	 ebp
  00001	8b ec		 mov	 ebp, esp
  00003	83 ec 08	 sub	 esp, 8
  00006	53		 push	 ebx

; 876  :         // reallocate and insert by perfectly forwarding _Val at _Whereptr
; 877  :         _Alty& _Al        = _Getal();
; 878  :         auto& _My_data    = _Mypair._Myval2;
; 879  :         pointer& _Myfirst = _My_data._Myfirst;
; 880  :         pointer& _Mylast  = _My_data._Mylast;
; 881  : 
; 882  :         _STL_INTERNAL_CHECK(_Mylast == _My_data._Myend); // check that we have no unused capacity
; 883  : 
; 884  :         const auto _Whereoff = static_cast<size_type>(_Whereptr - _Myfirst);

  00007	8b 5d 08	 mov	 ebx, DWORD PTR __Whereptr$[ebp]
  0000a	56		 push	 esi
  0000b	8b f1		 mov	 esi, ecx
  0000d	57		 push	 edi
  0000e	8b 0e		 mov	 ecx, DWORD PTR [esi]
  00010	2b d9		 sub	 ebx, ecx

; 885  :         const auto _Oldsize  = static_cast<size_type>(_Mylast - _Myfirst);

  00012	8b 46 04	 mov	 eax, DWORD PTR [esi+4]
  00015	2b c1		 sub	 eax, ecx
  00017	c1 fb 03	 sar	 ebx, 3
  0001a	c1 f8 03	 sar	 eax, 3

; 886  : 
; 887  :         if (_Oldsize == max_size()) {

  0001d	3d ff ff ff 1f	 cmp	 eax, 536870911		; 1fffffffH
  00022	0f 84 11 01 00
	00		 je	 $LN111@Emplace_re

; 1924 :         return static_cast<size_type>(_My_data._Myend - _My_data._Myfirst);

  00028	8b 56 08	 mov	 edx, DWORD PTR [esi+8]

; 889  :         }
; 890  : 
; 891  :         const size_type _Newsize = _Oldsize + 1;

  0002b	8d 78 01	 lea	 edi, DWORD PTR [eax+1]

; 1924 :         return static_cast<size_type>(_My_data._Myend - _My_data._Myfirst);

  0002e	2b d1		 sub	 edx, ecx

; 889  :         }
; 890  : 
; 891  :         const size_type _Newsize = _Oldsize + 1;

  00030	89 7d f8	 mov	 DWORD PTR __Newsize$1$[ebp], edi

; 1924 :         return static_cast<size_type>(_My_data._Myend - _My_data._Myfirst);

  00033	c1 fa 03	 sar	 edx, 3

; 2011 :         if (_Oldcapacity > _Max - _Oldcapacity / 2) {

  00036	b8 ff ff ff 1f	 mov	 eax, 536870911		; 1fffffffH
  0003b	8b ca		 mov	 ecx, edx
  0003d	d1 e9		 shr	 ecx, 1
  0003f	2b c1		 sub	 eax, ecx
  00041	3b d0		 cmp	 edx, eax
  00043	76 14		 jbe	 SHORT $LN8@Emplace_re

; 2012 :             return _Max; // geometric growth would overflow

  00045	b8 f8 ff ff ff	 mov	 eax, -8			; fffffff8H
  0004a	c7 45 fc f8 ff
	ff ff		 mov	 DWORD PTR tv650[ebp], -8 ; fffffff8H
; File C:\Program Files\Microsoft Visual Studio\2022\Professional\VC\Tools\MSVC\14.44.35207\include\xmemory

; 253  :             return _Allocate_manually_vector_aligned<_Traits>(_Bytes);

  00051	50		 push	 eax
  00052	e8 00 00 00 00	 call	 ??$_Allocate_manually_vector_aligned@U_Default_allocate_traits@std@@@std@@YAPAXI@Z ; std::_Allocate_manually_vector_aligned<std::_Default_allocate_traits>
  00057	eb 3d		 jmp	 SHORT $LN109@Emplace_re
$LN8@Emplace_re:
; File C:\Program Files\Microsoft Visual Studio\2022\Professional\VC\Tools\MSVC\14.44.35207\include\vector

; 2015 :         const size_type _Geometric = _Oldcapacity + _Oldcapacity / 2;

  00059	8d 04 11	 lea	 eax, DWORD PTR [ecx+edx]
; File C:\Program Files\Microsoft Visual Studio\2022\Professional\VC\Tools\MSVC\14.44.35207\include\xmemory

; 117  :         if (_Count > _Max_possible) {

  0005c	8b cf		 mov	 ecx, edi
  0005e	3b c7		 cmp	 eax, edi
  00060	0f 43 c8	 cmovae	 ecx, eax
  00063	81 f9 ff ff ff
	1f		 cmp	 ecx, 536870911		; 1fffffffH
  00069	0f 87 cf 00 00
	00		 ja	 $LN112@Emplace_re

; 119  :         }
; 120  :     }
; 121  : 
; 122  :     return _Count * _Ty_size;

  0006f	8d 04 cd 00 00
	00 00		 lea	 eax, DWORD PTR [ecx*8]
  00076	89 45 fc	 mov	 DWORD PTR tv650[ebp], eax

; 227  :     if (_Bytes == 0) {

  00079	85 c0		 test	 eax, eax
  0007b	75 04		 jne	 SHORT $LN23@Emplace_re

; 228  :         return nullptr;

  0007d	33 ff		 xor	 edi, edi
  0007f	eb 1a		 jmp	 SHORT $LN22@Emplace_re
$LN23@Emplace_re:

; 229  :     }
; 230  : 
; 231  : #if _HAS_CXX20 // TRANSITION, GH-1532
; 232  :     if (_STD is_constant_evaluated()) {
; 233  :         return _Traits::_Allocate(_Bytes);
; 234  :     }
; 235  : #endif // _HAS_CXX20
; 236  : 
; 237  : #ifdef __cpp_aligned_new
; 238  :     if constexpr (_Align > __STDCPP_DEFAULT_NEW_ALIGNMENT__) {
; 239  :         size_t _Passed_align = _Align;
; 240  : #if defined(_M_IX86) || defined(_M_X64)
; 241  :         if (_Bytes >= _Big_allocation_threshold) {
; 242  :             // boost the alignment of big allocations to help autovectorization
; 243  :             _Passed_align = (_STD max)(_Align, _Big_allocation_alignment);
; 244  :         }
; 245  : #endif // defined(_M_IX86) || defined(_M_X64)
; 246  :         return _Traits::_Allocate_aligned(_Bytes, _Passed_align);
; 247  :     } else
; 248  : #endif // defined(__cpp_aligned_new)
; 249  :     {
; 250  : #if defined(_M_IX86) || defined(_M_X64)
; 251  :         if (_Bytes >= _Big_allocation_threshold) {

  00081	3d 00 10 00 00	 cmp	 eax, 4096		; 00001000H
  00086	72 08		 jb	 SHORT $LN24@Emplace_re

; 253  :             return _Allocate_manually_vector_aligned<_Traits>(_Bytes);

  00088	50		 push	 eax
  00089	e8 00 00 00 00	 call	 ??$_Allocate_manually_vector_aligned@U_Default_allocate_traits@std@@@std@@YAPAXI@Z ; std::_Allocate_manually_vector_aligned<std::_Default_allocate_traits>
  0008e	eb 06		 jmp	 SHORT $LN109@Emplace_re
$LN24@Emplace_re:

; 136  :         return ::operator new(_Bytes);

  00090	50		 push	 eax
  00091	e8 00 00 00 00	 call	 ??2@YAPAXI@Z		; operator new
$LN109@Emplace_re:
; File C:\Program Files\Microsoft Visual Studio\2022\Professional\VC\Tools\MSVC\14.44.35207\include\vector

; 900  :         _Alty_traits::construct(_Al, _STD _Unfancy(_Newvec + _Whereoff), _STD forward<_Valty>(_Val)...);

  00096	8b f8		 mov	 edi, eax
  00098	83 c4 04	 add	 esp, 4
$LN22@Emplace_re:
  0009b	8b 45 0c	 mov	 eax, DWORD PTR _<_Val_0>$[ebp]
  0009e	8d 1c df	 lea	 ebx, DWORD PTR [edi+ebx*8]
  000a1	8b 08		 mov	 ecx, DWORD PTR [eax]
  000a3	8b 40 04	 mov	 eax, DWORD PTR [eax+4]
  000a6	89 43 04	 mov	 DWORD PTR [ebx+4], eax

; 901  :         _Constructed_first = _Newvec + _Whereoff;
; 902  : 
; 903  :         if (_Whereptr == _Mylast) { // at back, provide strong guarantee

  000a9	8b 45 08	 mov	 eax, DWORD PTR __Whereptr$[ebp]
  000ac	89 0b		 mov	 DWORD PTR [ebx], ecx
  000ae	8b 56 04	 mov	 edx, DWORD PTR [esi+4]
  000b1	8b 0e		 mov	 ecx, DWORD PTR [esi]
  000b3	3b c2		 cmp	 eax, edx
  000b5	75 04		 jne	 SHORT $LN3@Emplace_re
; File C:\Program Files\Microsoft Visual Studio\2022\Professional\VC\Tools\MSVC\14.44.35207\include\xmemory

; 1992 :             _STD _Copy_memmove(_UFirst, _ULast, _STD _Unfancy(_Dest));

  000b7	8b c7		 mov	 eax, edi
; File C:\Program Files\Microsoft Visual Studio\2022\Professional\VC\Tools\MSVC\14.44.35207\include\vector

; 909  :         } else { // provide basic guarantee

  000b9	eb 14		 jmp	 SHORT $LN52@Emplace_re
$LN3@Emplace_re:
; File C:\Program Files\Microsoft Visual Studio\2022\Professional\VC\Tools\MSVC\14.44.35207\include\xmemory

; 1992 :             _STD _Copy_memmove(_UFirst, _ULast, _STD _Unfancy(_Dest));

  000bb	57		 push	 edi
  000bc	50		 push	 eax
  000bd	51		 push	 ecx
  000be	e8 00 00 00 00	 call	 ??$_Copy_memmove@PAU_TransformStuffComponent@@PAU1@@std@@YAPAU_TransformStuffComponent@@PAU1@00@Z ; std::_Copy_memmove<_TransformStuffComponent *,_TransformStuffComponent *>
  000c3	8b 4d 08	 mov	 ecx, DWORD PTR __Whereptr$[ebp]
; File C:\Program Files\Microsoft Visual Studio\2022\Professional\VC\Tools\MSVC\14.44.35207\include\vector

; 912  :             _STD _Uninitialized_move(_Whereptr, _Mylast, _Newvec + _Whereoff + 1, _Al);

  000c6	8d 43 08	 lea	 eax, DWORD PTR [ebx+8]
; File C:\Program Files\Microsoft Visual Studio\2022\Professional\VC\Tools\MSVC\14.44.35207\include\xmemory

; 1992 :             _STD _Copy_memmove(_UFirst, _ULast, _STD _Unfancy(_Dest));

  000c9	8b 56 04	 mov	 edx, DWORD PTR [esi+4]
  000cc	83 c4 0c	 add	 esp, 12			; 0000000cH
$LN52@Emplace_re:
; File C:\Program Files\Microsoft Visual Studio\2022\Professional\VC\Tools\MSVC\14.44.35207\include\vector

; 915  :         _Guard._New_begin = nullptr;

  000cf	50		 push	 eax
  000d0	52		 push	 edx
  000d1	51		 push	 ecx
  000d2	e8 00 00 00 00	 call	 ??$_Copy_memmove@PAU_TransformStuffComponent@@PAU1@@std@@YAPAU_TransformStuffComponent@@PAU1@00@Z ; std::_Copy_memmove<_TransformStuffComponent *,_TransformStuffComponent *>

; 2069 :         if (_Myfirst) { // destroy and deallocate old array

  000d7	8b 06		 mov	 eax, DWORD PTR [esi]

; 915  :         _Guard._New_begin = nullptr;

  000d9	83 c4 0c	 add	 esp, 12			; 0000000cH

; 2069 :         if (_Myfirst) { // destroy and deallocate old array

  000dc	85 c0		 test	 eax, eax
  000de	74 2c		 je	 SHORT $LN72@Emplace_re

; 2070 :             _STD _Destroy_range(_Myfirst, _Mylast, _Al);
; 2071 :             _ASAN_VECTOR_REMOVE;
; 2072 :             _Al.deallocate(_Myfirst, static_cast<size_type>(_Myend - _Myfirst));

  000e0	8b 4e 08	 mov	 ecx, DWORD PTR [esi+8]
  000e3	2b c8		 sub	 ecx, eax
; File C:\Program Files\Microsoft Visual Studio\2022\Professional\VC\Tools\MSVC\14.44.35207\include\xmemory

; 985  :         _STD _Deallocate<_New_alignof<_Ty>>(_Ptr, sizeof(_Ty) * _Count);

  000e5	83 e1 f8	 and	 ecx, -8			; fffffff8H

; 284  :         if (_Bytes >= _Big_allocation_threshold) {

  000e8	81 f9 00 10 00
	00		 cmp	 ecx, 4096		; 00001000H
  000ee	72 12		 jb	 SHORT $LN77@Emplace_re

; 205  :     const uintptr_t _Ptr_container   = _Ptr_user[-1];

  000f0	8b 50 fc	 mov	 edx, DWORD PTR [eax-4]
  000f3	83 c1 23	 add	 ecx, 35			; 00000023H

; 206  : 
; 207  :     // If the following asserts, it likely means that we are performing
; 208  :     // an aligned delete on memory coming from an unaligned allocation.
; 209  :     _STL_ASSERT(_Ptr_user[-2] == _Big_allocation_sentinel, "invalid argument");
; 210  : 
; 211  :     // Extra paranoia on aligned allocation/deallocation; ensure _Ptr_container is
; 212  :     // in range [_Min_back_shift, _Non_user_size]
; 213  : #ifdef _DEBUG
; 214  :     constexpr uintptr_t _Min_back_shift = 2 * sizeof(void*);
; 215  : #else // ^^^ defined(_DEBUG) / !defined(_DEBUG) vvv
; 216  :     constexpr uintptr_t _Min_back_shift = sizeof(void*);
; 217  : #endif // ^^^ !defined(_DEBUG) ^^^
; 218  :     const uintptr_t _Back_shift = reinterpret_cast<uintptr_t>(_Ptr) - _Ptr_container;

  000f6	2b c2		 sub	 eax, edx

; 219  :     _STL_VERIFY(_Back_shift >= _Min_back_shift && _Back_shift <= _Non_user_size, "invalid argument");

  000f8	83 c0 fc	 add	 eax, -4			; fffffffcH
  000fb	83 f8 1f	 cmp	 eax, 31			; 0000001fH
  000fe	77 2a		 ja	 SHORT $LN76@Emplace_re

; 220  :     _Ptr = reinterpret_cast<void*>(_Ptr_container);

  00100	8b c2		 mov	 eax, edx
$LN77@Emplace_re:

; 289  :         ::operator delete(_Ptr, _Bytes);

  00102	51		 push	 ecx
  00103	50		 push	 eax
  00104	e8 00 00 00 00	 call	 ??3@YAXPAXI@Z		; operator delete
  00109	83 c4 08	 add	 esp, 8
$LN72@Emplace_re:
; File C:\Program Files\Microsoft Visual Studio\2022\Professional\VC\Tools\MSVC\14.44.35207\include\vector

; 2076 :         _Mylast  = _Newvec + _Newsize;

  0010c	8b 45 f8	 mov	 eax, DWORD PTR __Newsize$1$[ebp]
  0010f	89 3e		 mov	 DWORD PTR [esi], edi
  00111	8d 0c c7	 lea	 ecx, DWORD PTR [edi+eax*8]

; 916  :         _Change_array(_Newvec, _Newsize, _Newcapacity);
; 917  :         return _Newvec + _Whereoff;

  00114	8b c3		 mov	 eax, ebx

; 2076 :         _Mylast  = _Newvec + _Newsize;

  00116	89 4e 04	 mov	 DWORD PTR [esi+4], ecx

; 2077 :         _Myend   = _Newvec + _Newcapacity;

  00119	8b 4d fc	 mov	 ecx, DWORD PTR tv650[ebp]
  0011c	03 cf		 add	 ecx, edi

; 918  :     }

  0011e	5f		 pop	 edi

; 2077 :         _Myend   = _Newvec + _Newcapacity;

  0011f	89 4e 08	 mov	 DWORD PTR [esi+8], ecx

; 918  :     }

  00122	5e		 pop	 esi
  00123	5b		 pop	 ebx
  00124	8b e5		 mov	 esp, ebp
  00126	5d		 pop	 ebp
  00127	c2 08 00	 ret	 8
$LN76@Emplace_re:
; File C:\Program Files\Microsoft Visual Studio\2022\Professional\VC\Tools\MSVC\14.44.35207\include\xmemory

; 219  :     _STL_VERIFY(_Back_shift >= _Min_back_shift && _Back_shift <= _Non_user_size, "invalid argument");

  0012a	6a 00		 push	 0
  0012c	6a 00		 push	 0
  0012e	6a 00		 push	 0
  00130	6a 00		 push	 0
  00132	6a 00		 push	 0
  00134	e8 00 00 00 00	 call	 __invoke_watson
$LN111@Emplace_re:
; File C:\Program Files\Microsoft Visual Studio\2022\Professional\VC\Tools\MSVC\14.44.35207\include\vector

; 888  :             _Xlength();

  00139	e8 00 00 00 00	 call	 ?_Xlength@?$vector@U_TransformStuffComponent@@V?$allocator@U_TransformStuffComponent@@@std@@@std@@CAXXZ ; std::vector<_TransformStuffComponent,std::allocator<_TransformStuffComponent> >::_Xlength
$LN112@Emplace_re:
; File C:\Program Files\Microsoft Visual Studio\2022\Professional\VC\Tools\MSVC\14.44.35207\include\xmemory

; 118  :             _Throw_bad_array_new_length(); // multiply overflow

  0013e	e8 00 00 00 00	 call	 ?_Throw_bad_array_new_length@std@@YAXXZ ; std::_Throw_bad_array_new_length
$LN108@Emplace_re:
  00143	cc		 int	 3
??$_Emplace_reallocate@ABU_TransformStuffComponent@@@?$vector@U_TransformStuffComponent@@V?$allocator@U_TransformStuffComponent@@@std@@@std@@AAEPAU_TransformStuffComponent@@QAU2@ABU2@@Z ENDP ; std::vector<_TransformStuffComponent,std::allocator<_TransformStuffComponent> >::_Emplace_reallocate<_TransformStuffComponent const &>
_TEXT	ENDS
; Function compile flags: /Ogtp
; File C:\IAGOS\server\v18\Source\Source\_Network\Misc\Include\Ar.h
;	COMDAT ??$?5I@CAr@@QAEAAV0@AAI@Z
_TEXT	SEGMENT
_t$ = 8							; size = 4
??$?5I@CAr@@QAEAAV0@AAI@Z PROC				; CAr::operator>><unsigned int>, COMDAT
; _this$ = ecx

; 302  : {

  00000	55		 push	 ebp
  00001	8b ec		 mov	 ebp, esp
  00003	8b d1		 mov	 edx, ecx

; 303  : 	if (m_lpBufCur + sizeof(T) <= m_lpBufMax)

  00005	8b 4a 08	 mov	 ecx, DWORD PTR [edx+8]
  00008	8d 41 04	 lea	 eax, DWORD PTR [ecx+4]
  0000b	3b 42 0c	 cmp	 eax, DWORD PTR [edx+12]
  0000e	8b 45 08	 mov	 eax, DWORD PTR _t$[ebp]
  00011	77 0e		 ja	 SHORT $LN2@operator

; 304  : 	{
; 305  : 		t = *(UNALIGNED T*)m_lpBufCur;

  00013	8b 09		 mov	 ecx, DWORD PTR [ecx]
  00015	89 08		 mov	 DWORD PTR [eax], ecx

; 312  : 	}
; 313  : 	return *this;
; 314  : }

  00017	8b c2		 mov	 eax, edx
  00019	83 42 08 04	 add	 DWORD PTR [edx+8], 4
  0001d	5d		 pop	 ebp
  0001e	c2 04 00	 ret	 4
$LN2@operator:

; 306  : 		m_lpBufCur += sizeof(T);
; 307  : 	}
; 308  : 	else
; 309  : 	{
; 310  : 		t = T();

  00021	c7 00 00 00 00
	00		 mov	 DWORD PTR [eax], 0

; 311  : 		m_lpBufCur = m_lpBufMax;

  00027	8b 42 0c	 mov	 eax, DWORD PTR [edx+12]
  0002a	89 42 08	 mov	 DWORD PTR [edx+8], eax

; 312  : 	}
; 313  : 	return *this;
; 314  : }

  0002d	8b c2		 mov	 eax, edx
  0002f	5d		 pop	 ebp
  00030	c2 04 00	 ret	 4
??$?5I@CAr@@QAEAAV0@AAI@Z ENDP				; CAr::operator>><unsigned int>
_TEXT	ENDS
; Function compile flags: /Ogtp
; File C:\IAGOS\server\v18\Source\Source\_Network\Misc\Include\Ar.h
;	COMDAT ??$?5H@CAr@@QAEAAV0@AAH@Z
_TEXT	SEGMENT
_t$ = 8							; size = 4
??$?5H@CAr@@QAEAAV0@AAH@Z PROC				; CAr::operator>><int>, COMDAT
; _this$ = ecx

; 302  : {

  00000	55		 push	 ebp
  00001	8b ec		 mov	 ebp, esp
  00003	8b d1		 mov	 edx, ecx

; 303  : 	if (m_lpBufCur + sizeof(T) <= m_lpBufMax)

  00005	8b 4a 08	 mov	 ecx, DWORD PTR [edx+8]
  00008	8d 41 04	 lea	 eax, DWORD PTR [ecx+4]
  0000b	3b 42 0c	 cmp	 eax, DWORD PTR [edx+12]
  0000e	8b 45 08	 mov	 eax, DWORD PTR _t$[ebp]
  00011	77 0e		 ja	 SHORT $LN2@operator

; 304  : 	{
; 305  : 		t = *(UNALIGNED T*)m_lpBufCur;

  00013	8b 09		 mov	 ecx, DWORD PTR [ecx]
  00015	89 08		 mov	 DWORD PTR [eax], ecx

; 312  : 	}
; 313  : 	return *this;
; 314  : }

  00017	8b c2		 mov	 eax, edx
  00019	83 42 08 04	 add	 DWORD PTR [edx+8], 4
  0001d	5d		 pop	 ebp
  0001e	c2 04 00	 ret	 4
$LN2@operator:

; 306  : 		m_lpBufCur += sizeof(T);
; 307  : 	}
; 308  : 	else
; 309  : 	{
; 310  : 		t = T();

  00021	c7 00 00 00 00
	00		 mov	 DWORD PTR [eax], 0

; 311  : 		m_lpBufCur = m_lpBufMax;

  00027	8b 42 0c	 mov	 eax, DWORD PTR [edx+12]
  0002a	89 42 08	 mov	 DWORD PTR [edx+8], eax

; 312  : 	}
; 313  : 	return *this;
; 314  : }

  0002d	8b c2		 mov	 eax, edx
  0002f	5d		 pop	 ebp
  00030	c2 04 00	 ret	 4
??$?5H@CAr@@QAEAAV0@AAH@Z ENDP				; CAr::operator>><int>
_TEXT	ENDS
; Function compile flags: /Ogtp
; File C:\IAGOS\server\v18\Source\Source\_Network\Misc\Include\Ar.h
;	COMDAT ??$?6I@CAr@@QAEAAV0@ABI@Z
_TEXT	SEGMENT
_t$ = 8							; size = 4
??$?6I@CAr@@QAEAAV0@ABI@Z PROC				; CAr::operator<<<unsigned int>, COMDAT
; _this$ = ecx

; 255  : {

  00000	55		 push	 ebp
  00001	8b ec		 mov	 ebp, esp
  00003	56		 push	 esi

; 256  : 	CheckBuf(sizeof(T));

  00004	6a 04		 push	 4
  00006	8b f1		 mov	 esi, ecx
  00008	e8 00 00 00 00	 call	 ?CheckBuf@CAr@@QAEXI@Z	; CAr::CheckBuf

; 257  : 	*(UNALIGNED T*)m_lpBufCur = t;

  0000d	8b 56 08	 mov	 edx, DWORD PTR [esi+8]
  00010	8b 45 08	 mov	 eax, DWORD PTR _t$[ebp]
  00013	8b 00		 mov	 eax, DWORD PTR [eax]
  00015	89 02		 mov	 DWORD PTR [edx], eax

; 258  : 	m_lpBufCur += sizeof(T);
; 259  : 	return *this;

  00017	8b c6		 mov	 eax, esi
  00019	83 46 08 04	 add	 DWORD PTR [esi+8], 4
  0001d	5e		 pop	 esi

; 260  : }

  0001e	5d		 pop	 ebp
  0001f	c2 04 00	 ret	 4
??$?6I@CAr@@QAEAAV0@ABI@Z ENDP				; CAr::operator<<<unsigned int>
_TEXT	ENDS
; Function compile flags: /Ogtp
; File C:\IAGOS\server\v18\Source\Source\_Network\Misc\Include\Ar.h
;	COMDAT ??$?6H@CAr@@QAEAAV0@ABH@Z
_TEXT	SEGMENT
_t$ = 8							; size = 4
??$?6H@CAr@@QAEAAV0@ABH@Z PROC				; CAr::operator<<<int>, COMDAT
; _this$ = ecx

; 255  : {

  00000	55		 push	 ebp
  00001	8b ec		 mov	 ebp, esp
  00003	56		 push	 esi

; 256  : 	CheckBuf(sizeof(T));

  00004	6a 04		 push	 4
  00006	8b f1		 mov	 esi, ecx
  00008	e8 00 00 00 00	 call	 ?CheckBuf@CAr@@QAEXI@Z	; CAr::CheckBuf

; 257  : 	*(UNALIGNED T*)m_lpBufCur = t;

  0000d	8b 56 08	 mov	 edx, DWORD PTR [esi+8]
  00010	8b 45 08	 mov	 eax, DWORD PTR _t$[ebp]
  00013	8b 00		 mov	 eax, DWORD PTR [eax]
  00015	89 02		 mov	 DWORD PTR [edx], eax

; 258  : 	m_lpBufCur += sizeof(T);
; 259  : 	return *this;

  00017	8b c6		 mov	 eax, esi
  00019	83 46 08 04	 add	 DWORD PTR [esi+8], 4
  0001d	5e		 pop	 esi

; 260  : }

  0001e	5d		 pop	 ebp
  0001f	c2 04 00	 ret	 4
??$?6H@CAr@@QAEAAV0@ABH@Z ENDP				; CAr::operator<<<int>
_TEXT	ENDS
; Function compile flags: /Ogtp
; File C:\IAGOS\server\v18\Source\Source\_Network\Misc\Include\Ar.h
;	COMDAT ??$?5G@CAr@@QAEAAV0@AAG@Z
_TEXT	SEGMENT
_t$ = 8							; size = 4
??$?5G@CAr@@QAEAAV0@AAG@Z PROC				; CAr::operator>><unsigned short>, COMDAT
; _this$ = ecx

; 302  : {

  00000	55		 push	 ebp
  00001	8b ec		 mov	 ebp, esp
  00003	8b d1		 mov	 edx, ecx

; 303  : 	if (m_lpBufCur + sizeof(T) <= m_lpBufMax)

  00005	8b 4a 08	 mov	 ecx, DWORD PTR [edx+8]
  00008	8d 41 02	 lea	 eax, DWORD PTR [ecx+2]
  0000b	3b 42 0c	 cmp	 eax, DWORD PTR [edx+12]
  0000e	8b 45 08	 mov	 eax, DWORD PTR _t$[ebp]
  00011	77 10		 ja	 SHORT $LN2@operator

; 304  : 	{
; 305  : 		t = *(UNALIGNED T*)m_lpBufCur;

  00013	66 8b 09	 mov	 cx, WORD PTR [ecx]
  00016	66 89 08	 mov	 WORD PTR [eax], cx

; 312  : 	}
; 313  : 	return *this;
; 314  : }

  00019	8b c2		 mov	 eax, edx
  0001b	83 42 08 02	 add	 DWORD PTR [edx+8], 2
  0001f	5d		 pop	 ebp
  00020	c2 04 00	 ret	 4
$LN2@operator:

; 306  : 		m_lpBufCur += sizeof(T);
; 307  : 	}
; 308  : 	else
; 309  : 	{
; 310  : 		t = T();

  00023	33 c9		 xor	 ecx, ecx
  00025	66 89 08	 mov	 WORD PTR [eax], cx

; 311  : 		m_lpBufCur = m_lpBufMax;

  00028	8b 42 0c	 mov	 eax, DWORD PTR [edx+12]
  0002b	89 42 08	 mov	 DWORD PTR [edx+8], eax

; 312  : 	}
; 313  : 	return *this;
; 314  : }

  0002e	8b c2		 mov	 eax, edx
  00030	5d		 pop	 ebp
  00031	c2 04 00	 ret	 4
??$?5G@CAr@@QAEAAV0@AAG@Z ENDP				; CAr::operator>><unsigned short>
_TEXT	ENDS
; Function compile flags: /Ogtp
; File C:\IAGOS\server\v18\Source\Source\_Network\Misc\Include\Ar.h
;	COMDAT ??$?5K@CAr@@QAEAAV0@AAK@Z
_TEXT	SEGMENT
_t$ = 8							; size = 4
??$?5K@CAr@@QAEAAV0@AAK@Z PROC				; CAr::operator>><unsigned long>, COMDAT
; _this$ = ecx

; 302  : {

  00000	55		 push	 ebp
  00001	8b ec		 mov	 ebp, esp
  00003	8b d1		 mov	 edx, ecx

; 303  : 	if (m_lpBufCur + sizeof(T) <= m_lpBufMax)

  00005	8b 4a 08	 mov	 ecx, DWORD PTR [edx+8]
  00008	8d 41 04	 lea	 eax, DWORD PTR [ecx+4]
  0000b	3b 42 0c	 cmp	 eax, DWORD PTR [edx+12]
  0000e	8b 45 08	 mov	 eax, DWORD PTR _t$[ebp]
  00011	77 0e		 ja	 SHORT $LN2@operator

; 304  : 	{
; 305  : 		t = *(UNALIGNED T*)m_lpBufCur;

  00013	8b 09		 mov	 ecx, DWORD PTR [ecx]
  00015	89 08		 mov	 DWORD PTR [eax], ecx

; 312  : 	}
; 313  : 	return *this;
; 314  : }

  00017	8b c2		 mov	 eax, edx
  00019	83 42 08 04	 add	 DWORD PTR [edx+8], 4
  0001d	5d		 pop	 ebp
  0001e	c2 04 00	 ret	 4
$LN2@operator:

; 306  : 		m_lpBufCur += sizeof(T);
; 307  : 	}
; 308  : 	else
; 309  : 	{
; 310  : 		t = T();

  00021	c7 00 00 00 00
	00		 mov	 DWORD PTR [eax], 0

; 311  : 		m_lpBufCur = m_lpBufMax;

  00027	8b 42 0c	 mov	 eax, DWORD PTR [edx+12]
  0002a	89 42 08	 mov	 DWORD PTR [edx+8], eax

; 312  : 	}
; 313  : 	return *this;
; 314  : }

  0002d	8b c2		 mov	 eax, edx
  0002f	5d		 pop	 ebp
  00030	c2 04 00	 ret	 4
??$?5K@CAr@@QAEAAV0@AAK@Z ENDP				; CAr::operator>><unsigned long>
_TEXT	ENDS
; Function compile flags: /Ogtp
; File C:\IAGOS\server\v18\Source\Source\_Network\Misc\Include\Ar.h
;	COMDAT ??$?5E@CAr@@QAEAAV0@AAE@Z
_TEXT	SEGMENT
_t$ = 8							; size = 4
??$?5E@CAr@@QAEAAV0@AAE@Z PROC				; CAr::operator>><unsigned char>, COMDAT
; _this$ = ecx

; 302  : {

  00000	55		 push	 ebp
  00001	8b ec		 mov	 ebp, esp
  00003	8b d1		 mov	 edx, ecx

; 303  : 	if (m_lpBufCur + sizeof(T) <= m_lpBufMax)

  00005	8b 4a 08	 mov	 ecx, DWORD PTR [edx+8]
  00008	8d 41 01	 lea	 eax, DWORD PTR [ecx+1]
  0000b	3b 42 0c	 cmp	 eax, DWORD PTR [edx+12]
  0000e	8b 45 08	 mov	 eax, DWORD PTR _t$[ebp]
  00011	77 0d		 ja	 SHORT $LN2@operator

; 304  : 	{
; 305  : 		t = *(UNALIGNED T*)m_lpBufCur;

  00013	8a 09		 mov	 cl, BYTE PTR [ecx]
  00015	88 08		 mov	 BYTE PTR [eax], cl

; 312  : 	}
; 313  : 	return *this;
; 314  : }

  00017	8b c2		 mov	 eax, edx
  00019	ff 42 08	 inc	 DWORD PTR [edx+8]
  0001c	5d		 pop	 ebp
  0001d	c2 04 00	 ret	 4
$LN2@operator:

; 306  : 		m_lpBufCur += sizeof(T);
; 307  : 	}
; 308  : 	else
; 309  : 	{
; 310  : 		t = T();

  00020	c6 00 00	 mov	 BYTE PTR [eax], 0

; 311  : 		m_lpBufCur = m_lpBufMax;

  00023	8b 42 0c	 mov	 eax, DWORD PTR [edx+12]
  00026	89 42 08	 mov	 DWORD PTR [edx+8], eax

; 312  : 	}
; 313  : 	return *this;
; 314  : }

  00029	8b c2		 mov	 eax, edx
  0002b	5d		 pop	 ebp
  0002c	c2 04 00	 ret	 4
??$?5E@CAr@@QAEAAV0@AAE@Z ENDP				; CAr::operator>><unsigned char>
_TEXT	ENDS
; Function compile flags: /Ogtp
; File C:\IAGOS\server\v18\Source\Source\_Network\Misc\Include\Ar.h
;	COMDAT ??$?6G@CAr@@QAEAAV0@ABG@Z
_TEXT	SEGMENT
_t$ = 8							; size = 4
??$?6G@CAr@@QAEAAV0@ABG@Z PROC				; CAr::operator<<<unsigned short>, COMDAT
; _this$ = ecx

; 255  : {

  00000	55		 push	 ebp
  00001	8b ec		 mov	 ebp, esp
  00003	56		 push	 esi

; 256  : 	CheckBuf(sizeof(T));

  00004	6a 02		 push	 2
  00006	8b f1		 mov	 esi, ecx
  00008	e8 00 00 00 00	 call	 ?CheckBuf@CAr@@QAEXI@Z	; CAr::CheckBuf

; 257  : 	*(UNALIGNED T*)m_lpBufCur = t;

  0000d	8b 45 08	 mov	 eax, DWORD PTR _t$[ebp]
  00010	8b 56 08	 mov	 edx, DWORD PTR [esi+8]
  00013	66 8b 00	 mov	 ax, WORD PTR [eax]
  00016	66 89 02	 mov	 WORD PTR [edx], ax

; 258  : 	m_lpBufCur += sizeof(T);
; 259  : 	return *this;

  00019	8b c6		 mov	 eax, esi
  0001b	83 46 08 02	 add	 DWORD PTR [esi+8], 2
  0001f	5e		 pop	 esi

; 260  : }

  00020	5d		 pop	 ebp
  00021	c2 04 00	 ret	 4
??$?6G@CAr@@QAEAAV0@ABG@Z ENDP				; CAr::operator<<<unsigned short>
_TEXT	ENDS
; Function compile flags: /Ogtp
; File C:\IAGOS\server\v18\Source\Source\_Network\Misc\Include\Ar.h
;	COMDAT ??$?6K@CAr@@QAEAAV0@ABK@Z
_TEXT	SEGMENT
_t$ = 8							; size = 4
??$?6K@CAr@@QAEAAV0@ABK@Z PROC				; CAr::operator<<<unsigned long>, COMDAT
; _this$ = ecx

; 255  : {

  00000	55		 push	 ebp
  00001	8b ec		 mov	 ebp, esp
  00003	56		 push	 esi

; 256  : 	CheckBuf(sizeof(T));

  00004	6a 04		 push	 4
  00006	8b f1		 mov	 esi, ecx
  00008	e8 00 00 00 00	 call	 ?CheckBuf@CAr@@QAEXI@Z	; CAr::CheckBuf

; 257  : 	*(UNALIGNED T*)m_lpBufCur = t;

  0000d	8b 56 08	 mov	 edx, DWORD PTR [esi+8]
  00010	8b 45 08	 mov	 eax, DWORD PTR _t$[ebp]
  00013	8b 00		 mov	 eax, DWORD PTR [eax]
  00015	89 02		 mov	 DWORD PTR [edx], eax

; 258  : 	m_lpBufCur += sizeof(T);
; 259  : 	return *this;

  00017	8b c6		 mov	 eax, esi
  00019	83 46 08 04	 add	 DWORD PTR [esi+8], 4
  0001d	5e		 pop	 esi

; 260  : }

  0001e	5d		 pop	 ebp
  0001f	c2 04 00	 ret	 4
??$?6K@CAr@@QAEAAV0@ABK@Z ENDP				; CAr::operator<<<unsigned long>
_TEXT	ENDS
; Function compile flags: /Ogtp
; File C:\IAGOS\server\v18\Source\Source\_Network\Misc\Include\Ar.h
;	COMDAT ??$?6E@CAr@@QAEAAV0@ABE@Z
_TEXT	SEGMENT
_t$ = 8							; size = 4
??$?6E@CAr@@QAEAAV0@ABE@Z PROC				; CAr::operator<<<unsigned char>, COMDAT
; _this$ = ecx

; 255  : {

  00000	55		 push	 ebp
  00001	8b ec		 mov	 ebp, esp
  00003	56		 push	 esi

; 256  : 	CheckBuf(sizeof(T));

  00004	6a 01		 push	 1
  00006	8b f1		 mov	 esi, ecx
  00008	e8 00 00 00 00	 call	 ?CheckBuf@CAr@@QAEXI@Z	; CAr::CheckBuf

; 257  : 	*(UNALIGNED T*)m_lpBufCur = t;

  0000d	8b 45 08	 mov	 eax, DWORD PTR _t$[ebp]
  00010	8b 56 08	 mov	 edx, DWORD PTR [esi+8]
  00013	8a 00		 mov	 al, BYTE PTR [eax]
  00015	88 02		 mov	 BYTE PTR [edx], al

; 258  : 	m_lpBufCur += sizeof(T);
; 259  : 	return *this;

  00017	8b c6		 mov	 eax, esi
  00019	ff 46 08	 inc	 DWORD PTR [esi+8]
  0001c	5e		 pop	 esi

; 260  : }

  0001d	5d		 pop	 ebp
  0001e	c2 04 00	 ret	 4
??$?6E@CAr@@QAEAAV0@ABE@Z ENDP				; CAr::operator<<<unsigned char>
_TEXT	ENDS
; Function compile flags: /Ogtp
;	COMDAT ??__FsPetProperty@?1??GetInstance@CPetProperty@@SAPAV1@XZ@YAXXZ
text$yd	SEGMENT
??__FsPetProperty@?1??GetInstance@CPetProperty@@SAPAV1@XZ@YAXXZ PROC ; `CPetProperty::GetInstance'::`2'::`dynamic atexit destructor for 'sPetProperty'', COMDAT
  00000	b9 00 00 00 00	 mov	 ecx, OFFSET ?sPetProperty@?1??GetInstance@CPetProperty@@SAPAV2@XZ@4V2@A
  00005	e9 00 00 00 00	 jmp	 ??1CPetProperty@@UAE@XZ	; CPetProperty::~CPetProperty
??__FsPetProperty@?1??GetInstance@CPetProperty@@SAPAV1@XZ@YAXXZ ENDP ; `CPetProperty::GetInstance'::`2'::`dynamic atexit destructor for 'sPetProperty''
text$yd	ENDS
; Function compile flags: /Ogtp
; File C:\Program Files\Microsoft Visual Studio\2022\Professional\VC\Tools\MSVC\14.44.35207\include\xmemory
;	COMDAT ??$_Allocate_manually_vector_aligned@U_Default_allocate_traits@std@@@std@@YAPAXI@Z
_TEXT	SEGMENT
__Bytes$ = 8						; size = 4
??$_Allocate_manually_vector_aligned@U_Default_allocate_traits@std@@@std@@YAPAXI@Z PROC ; std::_Allocate_manually_vector_aligned<std::_Default_allocate_traits>, COMDAT

; 182  : __declspec(allocator) void* _Allocate_manually_vector_aligned(const size_t _Bytes) {

  00000	55		 push	 ebp
  00001	8b ec		 mov	 ebp, esp

; 183  :     // allocate _Bytes manually aligned to at least _Big_allocation_alignment
; 184  :     const size_t _Block_size = _Non_user_size + _Bytes;

  00003	8b 45 08	 mov	 eax, DWORD PTR __Bytes$[ebp]
  00006	8d 48 23	 lea	 ecx, DWORD PTR [eax+35]

; 185  :     if (_Block_size <= _Bytes) {

  00009	3b c8		 cmp	 ecx, eax
  0000b	0f 86 00 00 00
	00		 jbe	 ?_Throw_bad_array_new_length@std@@YAXXZ ; std::_Throw_bad_array_new_length

; 136  :         return ::operator new(_Bytes);

  00011	51		 push	 ecx
  00012	e8 00 00 00 00	 call	 ??2@YAPAXI@Z		; operator new

; 186  :         _Throw_bad_array_new_length(); // add overflow
; 187  :     }
; 188  : 
; 189  :     const uintptr_t _Ptr_container = reinterpret_cast<uintptr_t>(_Traits::_Allocate(_Block_size));

  00017	8b c8		 mov	 ecx, eax

; 136  :         return ::operator new(_Bytes);

  00019	83 c4 04	 add	 esp, 4

; 190  :     _STL_VERIFY(_Ptr_container != 0, "invalid argument"); // validate even in release since we're doing p[-1]

  0001c	85 c9		 test	 ecx, ecx
  0001e	74 0b		 je	 SHORT $LN9@Allocate_m

; 191  :     void* const _Ptr = reinterpret_cast<void*>((_Ptr_container + _Non_user_size) & ~(_Big_allocation_alignment - 1));

  00020	8d 41 23	 lea	 eax, DWORD PTR [ecx+35]
  00023	83 e0 e0	 and	 eax, -32		; ffffffe0H

; 192  :     static_cast<uintptr_t*>(_Ptr)[-1] = _Ptr_container;

  00026	89 48 fc	 mov	 DWORD PTR [eax-4], ecx

; 193  : 
; 194  : #ifdef _DEBUG
; 195  :     static_cast<uintptr_t*>(_Ptr)[-2] = _Big_allocation_sentinel;
; 196  : #endif // defined(_DEBUG)
; 197  :     return _Ptr;
; 198  : }

  00029	5d		 pop	 ebp
  0002a	c3		 ret	 0
$LN9@Allocate_m:

; 190  :     _STL_VERIFY(_Ptr_container != 0, "invalid argument"); // validate even in release since we're doing p[-1]

  0002b	6a 00		 push	 0
  0002d	6a 00		 push	 0
  0002f	6a 00		 push	 0
  00031	6a 00		 push	 0
  00033	6a 00		 push	 0
  00035	e8 00 00 00 00	 call	 __invoke_watson
$LN7@Allocate_m:
  0003a	cc		 int	 3
??$_Allocate_manually_vector_aligned@U_Default_allocate_traits@std@@@std@@YAPAXI@Z ENDP ; std::_Allocate_manually_vector_aligned<std::_Default_allocate_traits>
_TEXT	ENDS
; Function compile flags: /Ogtp
;	COMDAT ??_GCTransformStuff@@UAEPAXI@Z
_TEXT	SEGMENT
___flags$ = 8						; size = 4
??_GCTransformStuff@@UAEPAXI@Z PROC			; CTransformStuff::`scalar deleting destructor', COMDAT
; _this$ = ecx
  00000	55		 push	 ebp
  00001	8b ec		 mov	 ebp, esp
  00003	56		 push	 esi
  00004	8b f1		 mov	 esi, ecx
  00006	e8 00 00 00 00	 call	 ??1CTransformStuff@@UAE@XZ ; CTransformStuff::~CTransformStuff
  0000b	f6 45 08 01	 test	 BYTE PTR ___flags$[ebp], 1
  0000f	74 0b		 je	 SHORT $LN5@scalar
  00011	6a 14		 push	 20			; 00000014H
  00013	56		 push	 esi
  00014	e8 00 00 00 00	 call	 ??3@YAXPAXI@Z		; operator delete
  00019	83 c4 08	 add	 esp, 8
$LN5@scalar:
  0001c	8b c6		 mov	 eax, esi
  0001e	5e		 pop	 esi
  0001f	5d		 pop	 ebp
  00020	c2 04 00	 ret	 4
??_GCTransformStuff@@UAEPAXI@Z ENDP			; CTransformStuff::`scalar deleting destructor'
_TEXT	ENDS
; Function compile flags: /Ogtp
; File C:\Program Files\Microsoft Visual Studio\2022\Professional\VC\Tools\MSVC\14.44.35207\include\vector
;	COMDAT ?_Xlength@?$vector@U_TransformStuffComponent@@V?$allocator@U_TransformStuffComponent@@@std@@@std@@CAXXZ
_TEXT	SEGMENT
?_Xlength@?$vector@U_TransformStuffComponent@@V?$allocator@U_TransformStuffComponent@@@std@@@std@@CAXXZ PROC ; std::vector<_TransformStuffComponent,std::allocator<_TransformStuffComponent> >::_Xlength, COMDAT

; 2184 :         _Xlength_error("vector too long");

  00000	68 00 00 00 00	 push	 OFFSET ??_C@_0BA@FOIKENOD@vector?5too?5long@
  00005	e8 00 00 00 00	 call	 ?_Xlength_error@std@@YAXPBD@Z ; std::_Xlength_error
$LN3@Xlength:
  0000a	cc		 int	 3
?_Xlength@?$vector@U_TransformStuffComponent@@V?$allocator@U_TransformStuffComponent@@@std@@@std@@CAXXZ ENDP ; std::vector<_TransformStuffComponent,std::allocator<_TransformStuffComponent> >::_Xlength
_TEXT	ENDS
; Function compile flags: /Ogtp
; File C:\Program Files\Microsoft Visual Studio\2022\Professional\VC\Tools\MSVC\14.44.35207\include\vector
; File C:\Program Files\Microsoft Visual Studio\2022\Professional\VC\Tools\MSVC\14.44.35207\include\xmemory
; File C:\Program Files\Microsoft Visual Studio\2022\Professional\VC\Tools\MSVC\14.44.35207\include\vector
; File C:\Program Files\Microsoft Visual Studio\2022\Professional\VC\Tools\MSVC\14.44.35207\include\xmemory
; File C:\Program Files\Microsoft Visual Studio\2022\Professional\VC\Tools\MSVC\14.44.35207\include\vector
; File C:\Program Files\Microsoft Visual Studio\2022\Professional\VC\Tools\MSVC\14.44.35207\include\xmemory
; File C:\Program Files\Microsoft Visual Studio\2022\Professional\VC\Tools\MSVC\14.44.35207\include\vector
;	COMDAT ??1?$vector@U_TransformStuffComponent@@V?$allocator@U_TransformStuffComponent@@@std@@@std@@QAE@XZ
_TEXT	SEGMENT
??1?$vector@U_TransformStuffComponent@@V?$allocator@U_TransformStuffComponent@@@std@@@std@@QAE@XZ PROC ; std::vector<_TransformStuffComponent,std::allocator<_TransformStuffComponent> >::~vector<_TransformStuffComponent,std::allocator<_TransformStuffComponent> >, COMDAT
; _this$ = ecx

; 829  :     _CONSTEXPR20 ~vector() noexcept {

  00000	56		 push	 esi
  00001	8b f1		 mov	 esi, ecx

; 2090 :         if (_Myfirst) { // destroy and deallocate old array

  00003	8b 06		 mov	 eax, DWORD PTR [esi]
  00005	85 c0		 test	 eax, eax
  00007	74 40		 je	 SHORT $LN5@vector

; 2091 :             _STD _Destroy_range(_Myfirst, _Mylast, _Al);
; 2092 :             _ASAN_VECTOR_REMOVE;
; 2093 :             _Al.deallocate(_Myfirst, static_cast<size_type>(_Myend - _Myfirst));

  00009	8b 4e 08	 mov	 ecx, DWORD PTR [esi+8]
  0000c	2b c8		 sub	 ecx, eax
; File C:\Program Files\Microsoft Visual Studio\2022\Professional\VC\Tools\MSVC\14.44.35207\include\xmemory

; 985  :         _STD _Deallocate<_New_alignof<_Ty>>(_Ptr, sizeof(_Ty) * _Count);

  0000e	83 e1 f8	 and	 ecx, -8			; fffffff8H

; 284  :         if (_Bytes >= _Big_allocation_threshold) {

  00011	81 f9 00 10 00
	00		 cmp	 ecx, 4096		; 00001000H
  00017	72 12		 jb	 SHORT $LN18@vector

; 205  :     const uintptr_t _Ptr_container   = _Ptr_user[-1];

  00019	8b 50 fc	 mov	 edx, DWORD PTR [eax-4]
  0001c	83 c1 23	 add	 ecx, 35			; 00000023H

; 206  : 
; 207  :     // If the following asserts, it likely means that we are performing
; 208  :     // an aligned delete on memory coming from an unaligned allocation.
; 209  :     _STL_ASSERT(_Ptr_user[-2] == _Big_allocation_sentinel, "invalid argument");
; 210  : 
; 211  :     // Extra paranoia on aligned allocation/deallocation; ensure _Ptr_container is
; 212  :     // in range [_Min_back_shift, _Non_user_size]
; 213  : #ifdef _DEBUG
; 214  :     constexpr uintptr_t _Min_back_shift = 2 * sizeof(void*);
; 215  : #else // ^^^ defined(_DEBUG) / !defined(_DEBUG) vvv
; 216  :     constexpr uintptr_t _Min_back_shift = sizeof(void*);
; 217  : #endif // ^^^ !defined(_DEBUG) ^^^
; 218  :     const uintptr_t _Back_shift = reinterpret_cast<uintptr_t>(_Ptr) - _Ptr_container;

  0001f	2b c2		 sub	 eax, edx

; 219  :     _STL_VERIFY(_Back_shift >= _Min_back_shift && _Back_shift <= _Non_user_size, "invalid argument");

  00021	83 c0 fc	 add	 eax, -4			; fffffffcH
  00024	83 f8 1f	 cmp	 eax, 31			; 0000001fH
  00027	77 22		 ja	 SHORT $LN17@vector

; 220  :     _Ptr = reinterpret_cast<void*>(_Ptr_container);

  00029	8b c2		 mov	 eax, edx
$LN18@vector:

; 289  :         ::operator delete(_Ptr, _Bytes);

  0002b	51		 push	 ecx
  0002c	50		 push	 eax
  0002d	e8 00 00 00 00	 call	 ??3@YAXPAXI@Z		; operator delete
; File C:\Program Files\Microsoft Visual Studio\2022\Professional\VC\Tools\MSVC\14.44.35207\include\vector

; 2095 :             _Myfirst = nullptr;

  00032	c7 06 00 00 00
	00		 mov	 DWORD PTR [esi], 0
; File C:\Program Files\Microsoft Visual Studio\2022\Professional\VC\Tools\MSVC\14.44.35207\include\xmemory

; 289  :         ::operator delete(_Ptr, _Bytes);

  00038	83 c4 08	 add	 esp, 8
; File C:\Program Files\Microsoft Visual Studio\2022\Professional\VC\Tools\MSVC\14.44.35207\include\vector

; 2096 :             _Mylast  = nullptr;

  0003b	c7 46 04 00 00
	00 00		 mov	 DWORD PTR [esi+4], 0

; 2097 :             _Myend   = nullptr;

  00042	c7 46 08 00 00
	00 00		 mov	 DWORD PTR [esi+8], 0
$LN5@vector:
  00049	5e		 pop	 esi

; 835  :     }

  0004a	c3		 ret	 0
$LN17@vector:
; File C:\Program Files\Microsoft Visual Studio\2022\Professional\VC\Tools\MSVC\14.44.35207\include\xmemory

; 219  :     _STL_VERIFY(_Back_shift >= _Min_back_shift && _Back_shift <= _Non_user_size, "invalid argument");

  0004b	6a 00		 push	 0
  0004d	6a 00		 push	 0
  0004f	6a 00		 push	 0
  00051	6a 00		 push	 0
  00053	6a 00		 push	 0
  00055	e8 00 00 00 00	 call	 __invoke_watson
$LN26@vector:
  0005a	cc		 int	 3
??1?$vector@U_TransformStuffComponent@@V?$allocator@U_TransformStuffComponent@@@std@@@std@@QAE@XZ ENDP ; std::vector<_TransformStuffComponent,std::allocator<_TransformStuffComponent> >::~vector<_TransformStuffComponent,std::allocator<_TransformStuffComponent> >
_TEXT	ENDS
; Function compile flags: /Ogtp
; File C:\IAGOS\server\v18\Source\Source\_Common\pet.cpp
; File C:\IAGOS\server\v18\Source\Source\_Network\Misc\Include\Ar.h
; File C:\IAGOS\server\v18\Source\Source\_Common\pet.cpp
; File C:\IAGOS\server\v18\Source\Source\_Network\Misc\Include\Ar.h
; File C:\IAGOS\server\v18\Source\Source\_Common\pet.cpp
; File C:\Program Files\Microsoft Visual Studio\2022\Professional\VC\Tools\MSVC\14.44.35207\include\vector
; File C:\IAGOS\server\v18\Source\Source\_Common\pet.cpp
; File C:\Program Files\Microsoft Visual Studio\2022\Professional\VC\Tools\MSVC\14.44.35207\include\vector
; File C:\IAGOS\server\v18\Source\Source\_Common\pet.cpp
; File C:\Program Files\Microsoft Visual Studio\2022\Professional\VC\Tools\MSVC\14.44.35207\include\vector
; File C:\IAGOS\server\v18\Source\Source\_Common\pet.cpp
; File C:\Program Files\Microsoft Visual Studio\2022\Professional\VC\Tools\MSVC\14.44.35207\include\vector
; File C:\IAGOS\server\v18\Source\Source\_Common\pet.cpp
; File C:\IAGOS\server\v18\Source\Source\_Common\pet.h
; File C:\IAGOS\server\v18\Source\Source\_Common\pet.cpp
;	COMDAT ?Serialize@CTransformStuff@@UAEXAAVCAr@@@Z
_TEXT	SEGMENT
_component$1 = -8					; size = 8
_ar$ = 8						; size = 4
$T2 = 8							; size = 4
_nSize$3 = 8						; size = 4
?Serialize@CTransformStuff@@UAEXAAVCAr@@@Z PROC		; CTransformStuff::Serialize, COMDAT
; _this$ = ecx

; 693  : {

  00000	55		 push	 ebp
  00001	8b ec		 mov	 ebp, esp
  00003	83 ec 08	 sub	 esp, 8
  00006	53		 push	 ebx
  00007	56		 push	 esi
  00008	57		 push	 edi
; File C:\IAGOS\server\v18\Source\Source\_Network\Misc\Include\Ar.h

; 146  : 	return (m_nMode & CAr::load) == 0;

  00009	8b 7d 08	 mov	 edi, DWORD PTR _ar$[ebp]
; File C:\IAGOS\server\v18\Source\Source\_Common\pet.cpp

; 693  : {

  0000c	8b d9		 mov	 ebx, ecx

; 694  : 	if( ar.IsStoring() )

  0000e	8b cf		 mov	 ecx, edi
; File C:\IAGOS\server\v18\Source\Source\_Network\Misc\Include\Ar.h

; 146  : 	return (m_nMode & CAr::load) == 0;

  00010	f6 07 01	 test	 BYTE PTR [edi], 1
  00013	8d 43 04	 lea	 eax, DWORD PTR [ebx+4]
; File C:\IAGOS\server\v18\Source\Source\_Common\pet.cpp

; 694  : 	if( ar.IsStoring() )

  00016	50		 push	 eax
  00017	75 42		 jne	 SHORT $LN8@Serialize

; 695  : 	{
; 696  : 		ar << m_nTransform;

  00019	e8 00 00 00 00	 call	 ??$?6H@CAr@@QAEAAV0@ABH@Z ; CAr::operator<<<int>
; File C:\Program Files\Microsoft Visual Studio\2022\Professional\VC\Tools\MSVC\14.44.35207\include\vector

; 1915 :         return static_cast<size_type>(_My_data._Mylast - _My_data._Myfirst);

  0001e	8b 43 0c	 mov	 eax, DWORD PTR [ebx+12]
; File C:\IAGOS\server\v18\Source\Source\_Common\pet.cpp

; 697  : 		ar << m_vComponents.size();

  00021	8b cf		 mov	 ecx, edi
; File C:\Program Files\Microsoft Visual Studio\2022\Professional\VC\Tools\MSVC\14.44.35207\include\vector

; 1915 :         return static_cast<size_type>(_My_data._Mylast - _My_data._Myfirst);

  00023	2b 43 08	 sub	 eax, DWORD PTR [ebx+8]
  00026	c1 f8 03	 sar	 eax, 3
; File C:\IAGOS\server\v18\Source\Source\_Common\pet.cpp

; 697  : 		ar << m_vComponents.size();

  00029	89 45 08	 mov	 DWORD PTR $T2[ebp], eax
  0002c	8d 45 08	 lea	 eax, DWORD PTR $T2[ebp]
  0002f	50		 push	 eax
  00030	e8 00 00 00 00	 call	 ??$?6I@CAr@@QAEAAV0@ABI@Z ; CAr::operator<<<unsigned int>
; File C:\Program Files\Microsoft Visual Studio\2022\Professional\VC\Tools\MSVC\14.44.35207\include\vector

; 46   :     _CONSTEXPR20 _Vector_const_iterator(_Tptr _Parg, const _Container_base* _Pvector) noexcept : _Ptr(_Parg) {

  00035	8b 73 08	 mov	 esi, DWORD PTR [ebx+8]

; 176  :         return !(*this == _Right);

  00038	3b 73 0c	 cmp	 esi, DWORD PTR [ebx+12]
; File C:\IAGOS\server\v18\Source\Source\_Common\pet.cpp

; 698  : 		for( VTSC::iterator i = m_vComponents.begin(); i != m_vComponents.end(); ++i )

  0003b	74 61		 je	 SHORT $LN6@Serialize
  0003d	0f 1f 00	 npad	 3
$LL4@Serialize:

; 699  : 			ar.Write( &( *i ), sizeof(TransformStuffComponent) );

  00040	6a 08		 push	 8
  00042	56		 push	 esi
  00043	8b cf		 mov	 ecx, edi
  00045	e8 00 00 00 00	 call	 ?Write@CAr@@QAEXPBXI@Z	; CAr::Write
; File C:\Program Files\Microsoft Visual Studio\2022\Professional\VC\Tools\MSVC\14.44.35207\include\vector

; 82   :         ++_Ptr;

  0004a	83 c6 08	 add	 esi, 8

; 176  :         return !(*this == _Right);

  0004d	3b 73 0c	 cmp	 esi, DWORD PTR [ebx+12]
; File C:\IAGOS\server\v18\Source\Source\_Common\pet.cpp

; 698  : 		for( VTSC::iterator i = m_vComponents.begin(); i != m_vComponents.end(); ++i )

  00050	75 ee		 jne	 SHORT $LL4@Serialize

; 715  : 		}
; 716  : 	}
; 717  : }

  00052	5f		 pop	 edi
  00053	5e		 pop	 esi
  00054	5b		 pop	 ebx
  00055	8b e5		 mov	 esp, ebp
  00057	5d		 pop	 ebp
  00058	c2 04 00	 ret	 4
$LN8@Serialize:

; 700  : 	}
; 701  : 	else
; 702  : 	{
; 703  : 		ar >> m_nTransform;

  0005b	e8 00 00 00 00	 call	 ??$?5H@CAr@@QAEAAV0@AAH@Z ; CAr::operator>><int>

; 704  : 		size_t nSize;
; 705  : 		ar >> nSize;

  00060	8d 45 08	 lea	 eax, DWORD PTR _nSize$3[ebp]
  00063	8b cf		 mov	 ecx, edi
  00065	50		 push	 eax
  00066	e8 00 00 00 00	 call	 ??$?5I@CAr@@QAEAAV0@AAI@Z ; CAr::operator>><unsigned int>

; 706  : #ifdef __WORLDSERVER
; 707  : 		if( nSize != CTransformItemProperty::Instance()->GetStuffSize( m_nTransform ) )
; 708  : 			return;
; 709  : #endif	// __WORLDSERVER
; 710  : 		for( size_t i = 0; i < nSize; i++ )

  0006b	8b 75 08	 mov	 esi, DWORD PTR _nSize$3[ebp]
  0006e	85 f6		 test	 esi, esi
  00070	74 2c		 je	 SHORT $LN6@Serialize
$LL7@Serialize:
; File C:\IAGOS\server\v18\Source\Source\_Common\pet.h

; 207  : 		nNum	= 0;

  00072	33 c0		 xor	 eax, eax
  00074	c7 45 f8 00 00
	00 00		 mov	 DWORD PTR _component$1[ebp], 0
  0007b	66 89 45 fc	 mov	 WORD PTR _component$1[ebp+4], ax
; File C:\IAGOS\server\v18\Source\Source\_Common\pet.cpp

; 713  : 			ar.Read( &component, sizeof(TransformStuffComponent ) );

  0007f	8b cf		 mov	 ecx, edi
  00081	6a 08		 push	 8
  00083	8d 45 f8	 lea	 eax, DWORD PTR _component$1[ebp]
  00086	50		 push	 eax
  00087	e8 00 00 00 00	 call	 ?Read@CAr@@QAEXPAXI@Z	; CAr::Read

; 714  : 			AddComponent( component.nItem, component.nNum );

  0008c	ff 75 fc	 push	 DWORD PTR _component$1[ebp+4]
  0008f	8b cb		 mov	 ecx, ebx
  00091	ff 75 f8	 push	 DWORD PTR _component$1[ebp]
  00094	e8 00 00 00 00	 call	 ?AddComponent@CTransformStuff@@QAEXHF@Z ; CTransformStuff::AddComponent
  00099	83 ee 01	 sub	 esi, 1
  0009c	75 d4		 jne	 SHORT $LL7@Serialize
$LN6@Serialize:
  0009e	5f		 pop	 edi

; 715  : 		}
; 716  : 	}
; 717  : }

  0009f	5e		 pop	 esi
  000a0	5b		 pop	 ebx
  000a1	8b e5		 mov	 esp, ebp
  000a3	5d		 pop	 ebp
  000a4	c2 04 00	 ret	 4
?Serialize@CTransformStuff@@UAEXAAVCAr@@@Z ENDP		; CTransformStuff::Serialize
_TEXT	ENDS
; Function compile flags: /Ogtp
; File C:\IAGOS\server\v18\Source\Source\_Common\pet.cpp
; File C:\IAGOS\server\v18\Source\Source\_Common\pet.h
; File C:\IAGOS\server\v18\Source\Source\_Common\pet.cpp
; File C:\IAGOS\server\v18\Source\Source\_Common\pet.h
; File C:\Program Files\Microsoft Visual Studio\2022\Professional\VC\Tools\MSVC\14.44.35207\include\vector
; File C:\IAGOS\server\v18\Source\Source\_Common\pet.h
; File C:\Program Files\Microsoft Visual Studio\2022\Professional\VC\Tools\MSVC\14.44.35207\include\vector
; File C:\IAGOS\server\v18\Source\Source\_Common\pet.cpp
; File C:\Program Files\Microsoft Visual Studio\2022\Professional\VC\Tools\MSVC\14.44.35207\include\vector
; File C:\IAGOS\server\v18\Source\Source\_Common\pet.cpp
;	COMDAT ?AddComponent@CTransformStuff@@QAEXHF@Z
_TEXT	SEGMENT
_component$ = -8					; size = 8
_nItem$ = 8						; size = 4
_nNum$ = 12						; size = 2
?AddComponent@CTransformStuff@@QAEXHF@Z PROC		; CTransformStuff::AddComponent, COMDAT
; _this$ = ecx

; 687  : {

  00000	55		 push	 ebp
  00001	8b ec		 mov	 ebp, esp
  00003	83 ec 08	 sub	 esp, 8
; File C:\IAGOS\server\v18\Source\Source\_Common\pet.h

; 212  : 		this->nNum	= nNum;

  00006	66 8b 45 0c	 mov	 ax, WORD PTR _nNum$[ebp]
; File C:\IAGOS\server\v18\Source\Source\_Common\pet.cpp

; 689  : 	m_vComponents.push_back( component );

  0000a	83 c1 08	 add	 ecx, 8
  0000d	56		 push	 esi
; File C:\IAGOS\server\v18\Source\Source\_Common\pet.h

; 211  : 		this->nItem	= nItem;

  0000e	8b 75 08	 mov	 esi, DWORD PTR _nItem$[ebp]
  00011	89 75 f8	 mov	 DWORD PTR _component$[ebp], esi
; File C:\Program Files\Microsoft Visual Studio\2022\Professional\VC\Tools\MSVC\14.44.35207\include\vector

; 844  :         if (_Mylast != _My_data._Myend) {

  00014	8b 51 04	 mov	 edx, DWORD PTR [ecx+4]
; File C:\IAGOS\server\v18\Source\Source\_Common\pet.h

; 212  : 		this->nNum	= nNum;

  00017	66 89 45 fc	 mov	 WORD PTR _component$[ebp+4], ax
; File C:\Program Files\Microsoft Visual Studio\2022\Professional\VC\Tools\MSVC\14.44.35207\include\vector

; 844  :         if (_Mylast != _My_data._Myend) {

  0001b	3b 51 08	 cmp	 edx, DWORD PTR [ecx+8]
  0001e	74 13		 je	 SHORT $LN8@AddCompone

; 860  :             _STD _Construct_in_place(*_Mylast, _STD forward<_Valty>(_Val)...);

  00020	8b 45 fc	 mov	 eax, DWORD PTR _component$[ebp+4]
  00023	89 32		 mov	 DWORD PTR [edx], esi
  00025	89 42 04	 mov	 DWORD PTR [edx+4], eax

; 861  :         } else {
; 862  :             _ASAN_VECTOR_EXTEND_GUARD(static_cast<size_type>(_Mylast - _My_data._Myfirst) + 1);
; 863  :             _Alty_traits::construct(_Getal(), _Unfancy(_Mylast), _STD forward<_Valty>(_Val)...);
; 864  :             _ASAN_VECTOR_RELEASE_GUARD;
; 865  :         }
; 866  : 
; 867  :         _Orphan_range(_Mylast, _Mylast);
; 868  :         _Ty& _Result = *_Mylast;
; 869  :         ++_Mylast;

  00028	83 41 04 08	 add	 DWORD PTR [ecx+4], 8
  0002c	5e		 pop	 esi
; File C:\IAGOS\server\v18\Source\Source\_Common\pet.cpp

; 690  : }

  0002d	8b e5		 mov	 esp, ebp
  0002f	5d		 pop	 ebp
  00030	c2 08 00	 ret	 8
$LN8@AddCompone:
; File C:\Program Files\Microsoft Visual Studio\2022\Professional\VC\Tools\MSVC\14.44.35207\include\vector

; 848  :         return *_Emplace_reallocate(_Mylast, _STD forward<_Valty>(_Val)...);

  00033	8d 45 f8	 lea	 eax, DWORD PTR _component$[ebp]
  00036	50		 push	 eax
  00037	52		 push	 edx
  00038	e8 00 00 00 00	 call	 ??$_Emplace_reallocate@ABU_TransformStuffComponent@@@?$vector@U_TransformStuffComponent@@V?$allocator@U_TransformStuffComponent@@@std@@@std@@AAEPAU_TransformStuffComponent@@QAU2@ABU2@@Z ; std::vector<_TransformStuffComponent,std::allocator<_TransformStuffComponent> >::_Emplace_reallocate<_TransformStuffComponent const &>
  0003d	5e		 pop	 esi
; File C:\IAGOS\server\v18\Source\Source\_Common\pet.cpp

; 690  : }

  0003e	8b e5		 mov	 esp, ebp
  00040	5d		 pop	 ebp
  00041	c2 08 00	 ret	 8
?AddComponent@CTransformStuff@@QAEXHF@Z ENDP		; CTransformStuff::AddComponent
_TEXT	ENDS
; Function compile flags: /Ogtp
; File C:\IAGOS\server\v18\Source\Source\_Common\pet.cpp
;	COMDAT ??1CTransformStuff@@UAE@XZ
_TEXT	SEGMENT
??1CTransformStuff@@UAE@XZ PROC				; CTransformStuff::~CTransformStuff, COMDAT
; _this$ = ecx

; 683  : {

  00000	c7 01 00 00 00
	00		 mov	 DWORD PTR [ecx], OFFSET ??_7CTransformStuff@@6B@

; 684  : }

  00006	83 c1 08	 add	 ecx, 8
  00009	e9 00 00 00 00	 jmp	 ??1?$vector@U_TransformStuffComponent@@V?$allocator@U_TransformStuffComponent@@@std@@@std@@QAE@XZ ; std::vector<_TransformStuffComponent,std::allocator<_TransformStuffComponent> >::~vector<_TransformStuffComponent,std::allocator<_TransformStuffComponent> >
??1CTransformStuff@@UAE@XZ ENDP				; CTransformStuff::~CTransformStuff
_TEXT	ENDS
; Function compile flags: /Ogtp
; File C:\IAGOS\server\v18\Source\Source\_Common\pet.cpp
; File C:\Program Files\Microsoft Visual Studio\2022\Professional\VC\Tools\MSVC\14.44.35207\include\vector
; File C:\IAGOS\server\v18\Source\Source\_Common\pet.cpp
;	COMDAT ??0CTransformStuff@@QAE@H@Z
_TEXT	SEGMENT
_this$ = -4						; size = 4
_nTransform$ = 8					; size = 4
??0CTransformStuff@@QAE@H@Z PROC			; CTransformStuff::CTransformStuff, COMDAT
; _this$ = ecx

; 679  : {

  00000	55		 push	 ebp
  00001	8b ec		 mov	 ebp, esp
  00003	51		 push	 ecx

; 678  : m_nTransform( nTransform )

  00004	8b 45 08	 mov	 eax, DWORD PTR _nTransform$[ebp]
  00007	89 41 04	 mov	 DWORD PTR [ecx+4], eax

; 680  : }

  0000a	8b c1		 mov	 eax, ecx
  0000c	c7 01 00 00 00
	00		 mov	 DWORD PTR [ecx], OFFSET ??_7CTransformStuff@@6B@
  00012	89 4d fc	 mov	 DWORD PTR _this$[ebp], ecx
; File C:\Program Files\Microsoft Visual Studio\2022\Professional\VC\Tools\MSVC\14.44.35207\include\vector

; 400  :     _CONSTEXPR20 _Vector_val() noexcept : _Myfirst(), _Mylast(), _Myend() {}

  00015	c7 41 08 00 00
	00 00		 mov	 DWORD PTR [ecx+8], 0
  0001c	c7 41 0c 00 00
	00 00		 mov	 DWORD PTR [ecx+12], 0
  00023	c7 41 10 00 00
	00 00		 mov	 DWORD PTR [ecx+16], 0
; File C:\IAGOS\server\v18\Source\Source\_Common\pet.cpp

; 680  : }

  0002a	8b e5		 mov	 esp, ebp
  0002c	5d		 pop	 ebp
  0002d	c2 04 00	 ret	 4
??0CTransformStuff@@QAE@H@Z ENDP			; CTransformStuff::CTransformStuff
_TEXT	ENDS
; Function compile flags: /Ogtp
; File C:\IAGOS\server\v18\Source\Source\_Common\pet.cpp
; File C:\Program Files\Microsoft Visual Studio\2022\Professional\VC\Tools\MSVC\14.44.35207\include\vector
; File C:\IAGOS\server\v18\Source\Source\_Common\pet.cpp
;	COMDAT ??0CTransformStuff@@QAE@XZ
_TEXT	SEGMENT
_this$ = -4						; size = 4
??0CTransformStuff@@QAE@XZ PROC				; CTransformStuff::CTransformStuff, COMDAT
; _this$ = ecx

; 673  : {

  00000	55		 push	 ebp
  00001	8b ec		 mov	 ebp, esp
  00003	51		 push	 ecx
  00004	c7 01 00 00 00
	00		 mov	 DWORD PTR [ecx], OFFSET ??_7CTransformStuff@@6B@

; 674  : }

  0000a	8b c1		 mov	 eax, ecx
  0000c	c7 41 04 00 00
	00 00		 mov	 DWORD PTR [ecx+4], 0
  00013	89 4d fc	 mov	 DWORD PTR _this$[ebp], ecx
; File C:\Program Files\Microsoft Visual Studio\2022\Professional\VC\Tools\MSVC\14.44.35207\include\vector

; 400  :     _CONSTEXPR20 _Vector_val() noexcept : _Myfirst(), _Mylast(), _Myend() {}

  00016	c7 41 08 00 00
	00 00		 mov	 DWORD PTR [ecx+8], 0
  0001d	c7 41 0c 00 00
	00 00		 mov	 DWORD PTR [ecx+12], 0
  00024	c7 41 10 00 00
	00 00		 mov	 DWORD PTR [ecx+16], 0
; File C:\IAGOS\server\v18\Source\Source\_Common\pet.cpp

; 674  : }

  0002b	8b e5		 mov	 esp, ebp
  0002d	5d		 pop	 ebp
  0002e	c3		 ret	 0
??0CTransformStuff@@QAE@XZ ENDP				; CTransformStuff::CTransformStuff
_TEXT	ENDS
; Function compile flags: /Ogtp
;	COMDAT ??_GCPet@@UAEPAXI@Z
_TEXT	SEGMENT
___flags$ = 8						; size = 4
??_GCPet@@UAEPAXI@Z PROC				; CPet::`scalar deleting destructor', COMDAT
; _this$ = ecx
  00000	55		 push	 ebp
  00001	8b ec		 mov	 ebp, esp
  00003	56		 push	 esi
  00004	8b f1		 mov	 esi, ecx
  00006	e8 00 00 00 00	 call	 ??1CPet@@UAE@XZ		; CPet::~CPet
  0000b	f6 45 08 01	 test	 BYTE PTR ___flags$[ebp], 1
  0000f	74 0b		 je	 SHORT $LN5@scalar
  00011	6a 28		 push	 40			; 00000028H
  00013	56		 push	 esi
  00014	e8 00 00 00 00	 call	 ??3@YAXPAXI@Z		; operator delete
  00019	83 c4 08	 add	 esp, 8
$LN5@scalar:
  0001c	8b c6		 mov	 eax, esi
  0001e	5e		 pop	 esi
  0001f	5d		 pop	 ebp
  00020	c2 04 00	 ret	 4
??_GCPet@@UAEPAXI@Z ENDP				; CPet::`scalar deleting destructor'
_TEXT	ENDS
; Function compile flags: /Ogtp
; File C:\IAGOS\server\v18\Source\Source\_Common\pet.cpp
;	COMDAT ??4CPet@@QAEAAV0@AAV0@@Z
_TEXT	SEGMENT
_pet$ = 8						; size = 4
??4CPet@@QAEAAV0@AAV0@@Z PROC				; CPet::operator=, COMDAT
; _this$ = ecx

; 410  : {

  00000	55		 push	 ebp
  00001	8b ec		 mov	 ebp, esp
  00003	56		 push	 esi

; 411  : 	m_nKind		= pet.GetKind();

  00004	8b 75 08	 mov	 esi, DWORD PTR _pet$[ebp]
  00007	57		 push	 edi
  00008	8b f9		 mov	 edi, ecx

; 412  : 	m_nLevel	= pet.GetLevel();
; 413  : 	m_dwExp		= pet.GetExp();
; 414  : 	m_wEnergy	= pet.GetEnergy();
; 415  : 	m_wLife		= pet.GetLife();

  0000a	8b ce		 mov	 ecx, esi
  0000c	0f b6 46 04	 movzx	 eax, BYTE PTR [esi+4]
  00010	88 47 04	 mov	 BYTE PTR [edi+4], al
  00013	0f b6 46 05	 movzx	 eax, BYTE PTR [esi+5]
  00017	88 47 05	 mov	 BYTE PTR [edi+5], al
  0001a	8b 46 08	 mov	 eax, DWORD PTR [esi+8]
  0001d	89 47 08	 mov	 DWORD PTR [edi+8], eax
  00020	0f b7 46 0c	 movzx	 eax, WORD PTR [esi+12]
  00024	66 89 47 0c	 mov	 WORD PTR [edi+12], ax
  00028	e8 00 00 00 00	 call	 ?GetLife@CPet@@QAEGXZ	; CPet::GetLife
  0002d	66 89 47 0e	 mov	 WORD PTR [edi+14], ax

; 416  : 	memcpy( m_anAvailLevel, pet.m_anAvailLevel, sizeof(BYTE) * PL_MAX );
; 417  : #ifdef __PET_1024
; 418  : 	strcpy( m_szName, pet.GetName() );

  00031	8b d7		 mov	 edx, edi
  00033	8b 46 10	 mov	 eax, DWORD PTR [esi+16]
  00036	89 47 10	 mov	 DWORD PTR [edi+16], eax
  00039	0f b7 46 14	 movzx	 eax, WORD PTR [esi+20]
  0003d	66 89 47 14	 mov	 WORD PTR [edi+20], ax
  00041	8d 46 16	 lea	 eax, DWORD PTR [esi+22]
  00044	2b d0		 sub	 edx, eax
$LL3@operator:
  00046	8a 08		 mov	 cl, BYTE PTR [eax]
  00048	8d 40 01	 lea	 eax, DWORD PTR [eax+1]
  0004b	88 4c 10 15	 mov	 BYTE PTR [eax+edx+21], cl
  0004f	84 c9		 test	 cl, cl
  00051	75 f3		 jne	 SHORT $LL3@operator

; 419  : #endif	// __PET_1024
; 420  : 	return *this;

  00053	8b c7		 mov	 eax, edi
  00055	5f		 pop	 edi
  00056	5e		 pop	 esi

; 421  : }

  00057	5d		 pop	 ebp
  00058	c2 04 00	 ret	 4
??4CPet@@QAEAAV0@AAV0@@Z ENDP				; CPet::operator=
_TEXT	ENDS
; Function compile flags: /Ogtp
; File C:\IAGOS\server\v18\Source\Source\_Common\pet.cpp
; File C:\IAGOS\server\v18\Source\Source\_Common\pet.h
; File C:\IAGOS\server\v18\Source\Source\_Common\pet.cpp
;	COMDAT ?InitEgg@CPet@@QAEXXZ
_TEXT	SEGMENT
?InitEgg@CPet@@QAEXXZ PROC				; CPet::InitEgg, COMDAT
; _this$ = ecx

; 404  : {

  00000	56		 push	 esi
  00001	8b f1		 mov	 esi, ecx

; 405  : 	SetLife( nDefaultLife );

  00003	b8 01 00 00 00	 mov	 eax, 1
  00008	66 89 46 0e	 mov	 WORD PTR [esi+14], ax
; File C:\IAGOS\server\v18\Source\Source\_Common\pet.h

; 137  : 	WORD	GetMaxEnergy( void )	{	return CPetProperty::GetInstance()->GetMaxEnergy( m_nLevel );	}

  0000c	8a 46 05	 mov	 al, BYTE PTR [esi+5]
  0000f	50		 push	 eax
  00010	e8 00 00 00 00	 call	 ?GetInstance@CPetProperty@@SAPAV1@XZ ; CPetProperty::GetInstance
  00015	8b c8		 mov	 ecx, eax
  00017	e8 00 00 00 00	 call	 ?GetMaxEnergy@CPetProperty@@QAEGE@Z ; CPetProperty::GetMaxEnergy
  0001c	0f b7 c0	 movzx	 eax, ax
; File C:\IAGOS\server\v18\Source\Source\_Common\pet.cpp

; 406  : 	SetEnergy( GetMaxEnergy() );

  0001f	8b ce		 mov	 ecx, esi
  00021	50		 push	 eax
  00022	e8 00 00 00 00	 call	 ?SetEnergy@CPet@@QAEXG@Z ; CPet::SetEnergy
  00027	5e		 pop	 esi

; 407  : }

  00028	c3		 ret	 0
?InitEgg@CPet@@QAEXXZ ENDP				; CPet::InitEgg
_TEXT	ENDS
; Function compile flags: /Ogtp
; File C:\IAGOS\server\v18\Source\Source\_Common\pet.cpp
;	COMDAT ?SetName@CPet@@QAEXPBD@Z
_TEXT	SEGMENT
_szName$ = 8						; size = 4
?SetName@CPet@@QAEXPBD@Z PROC				; CPet::SetName, COMDAT
; _this$ = ecx

; 1010 : {

  00000	55		 push	 ebp
  00001	8b ec		 mov	 ebp, esp
  00003	56		 push	 esi
  00004	8b f1		 mov	 esi, ecx

; 1011 : 	strncpy( m_szName, szName, MAX_PET_NAME - 1 );

  00006	6a 10		 push	 16			; 00000010H
  00008	ff 75 08	 push	 DWORD PTR _szName$[ebp]
  0000b	8d 46 16	 lea	 eax, DWORD PTR [esi+22]
  0000e	50		 push	 eax
  0000f	e8 00 00 00 00	 call	 _strncpy
  00014	83 c4 0c	 add	 esp, 12			; 0000000cH

; 1012 : 	m_szName[MAX_PET_NAME-1]	= '\0';

  00017	c6 46 26 00	 mov	 BYTE PTR [esi+38], 0
  0001b	5e		 pop	 esi

; 1013 : }

  0001c	5d		 pop	 ebp
  0001d	c2 04 00	 ret	 4
?SetName@CPet@@QAEXPBD@Z ENDP				; CPet::SetName
_TEXT	ENDS
; Function compile flags: /Ogtp
; File C:\IAGOS\server\v18\Source\Source\_Common\pet.cpp
;	COMDAT ?SetEnergy@CPet@@QAEXG@Z
_TEXT	SEGMENT
_wEnergy$ = 8						; size = 2
?SetEnergy@CPet@@QAEXG@Z PROC				; CPet::SetEnergy, COMDAT
; _this$ = ecx

; 342  : {

  00000	55		 push	 ebp
  00001	8b ec		 mov	 ebp, esp

; 343  : #ifdef __DBSERVER
; 344  : 	m_wEnergy	= wEnergy;		// transĽ­ąöżˇĽ­´Â pet.inc¸¦ ŔĐÁö ľĘ´Â´Ů.

  00003	66 8b 45 08	 mov	 ax, WORD PTR _wEnergy$[ebp]
  00007	66 89 41 0c	 mov	 WORD PTR [ecx+12], ax

; 345  : #else	// __DBSERVER
; 346  : 	WORD wMaxEnergy		= GetMaxEnergy();
; 347  : 	m_wEnergy	= wEnergy > wMaxEnergy? wMaxEnergy: wEnergy;
; 348  : #endif	// __DBSERVER
; 349  : }

  0000b	5d		 pop	 ebp
  0000c	c2 04 00	 ret	 4
?SetEnergy@CPet@@QAEXG@Z ENDP				; CPet::SetEnergy
_TEXT	ENDS
; Function compile flags: /Ogtp
; File C:\IAGOS\server\v18\Source\Source\_Common\pet.cpp
;	COMDAT ?GetLife@CPet@@QAEGXZ
_TEXT	SEGMENT
?GetLife@CPet@@QAEGXZ PROC				; CPet::GetLife, COMDAT
; _this$ = ecx

; 358  : 	return ( m_nLevel == PL_EGG )? 0: m_wLife;

  00000	80 79 05 00	 cmp	 BYTE PTR [ecx+5], 0
  00004	75 03		 jne	 SHORT $LN3@GetLife
  00006	33 c0		 xor	 eax, eax

; 359  : }

  00008	c3		 ret	 0
$LN3@GetLife:

; 358  : 	return ( m_nLevel == PL_EGG )? 0: m_wLife;

  00009	0f b7 41 0e	 movzx	 eax, WORD PTR [ecx+14]

; 359  : }

  0000d	c3		 ret	 0
?GetLife@CPet@@QAEGXZ ENDP				; CPet::GetLife
_TEXT	ENDS
; Function compile flags: /Ogtp
; File C:\IAGOS\server\v18\Source\Source\_Common\pet.cpp
; File C:\IAGOS\server\v18\Source\Source\_Common\pet.h
; File C:\IAGOS\server\v18\Source\Source\_Common\pet.cpp
;	COMDAT ?SetExp@CPet@@QAEXK@Z
_TEXT	SEGMENT
_dwExp$ = 8						; size = 4
?SetExp@CPet@@QAEXK@Z PROC				; CPet::SetExp, COMDAT
; _this$ = ecx

; 352  : {

  00000	55		 push	 ebp
  00001	8b ec		 mov	 ebp, esp
; File C:\IAGOS\server\v18\Source\Source\_Common\pet.h

; 140  : 	int		GetMaxExp( void )	{	return ( m_nLevel == PL_EGG? MAX_PET_EGG_EXP: MAX_PET_EXP );	}

  00003	80 79 05 00	 cmp	 BYTE PTR [ecx+5], 0
  00007	b8 50 c3 00 00	 mov	 eax, 50000		; 0000c350H
  0000c	ba a0 86 01 00	 mov	 edx, 100000		; 000186a0H
  00011	0f 44 d0	 cmove	 edx, eax
; File C:\IAGOS\server\v18\Source\Source\_Common\pet.cpp

; 353  : 	m_dwExp		= dwExp > (DWORD)( GetMaxExp() ) ? GetMaxExp(): dwExp;

  00014	8b 45 08	 mov	 eax, DWORD PTR _dwExp$[ebp]
  00017	3b c2		 cmp	 eax, edx
  00019	0f 47 c2	 cmova	 eax, edx
  0001c	89 41 08	 mov	 DWORD PTR [ecx+8], eax

; 354  : }

  0001f	5d		 pop	 ebp
  00020	c2 04 00	 ret	 4
?SetExp@CPet@@QAEXK@Z ENDP				; CPet::SetExp
_TEXT	ENDS
; Function compile flags: /Ogtp
; File C:\IAGOS\server\v18\Source\Source\_Common\pet.cpp
;	COMDAT ?GetAvailDestParam@CPet@@QAEXAAKAAH@Z
_TEXT	SEGMENT
_dwDestParam$ = 8					; size = 4
_nParam$ = 12						; size = 4
?GetAvailDestParam@CPet@@QAEXAAKAAH@Z PROC		; CPet::GetAvailDestParam, COMDAT
; _this$ = ecx

; 379  : {

  00000	55		 push	 ebp
  00001	8b ec		 mov	 ebp, esp

; 380  : 	dwDestParam	= nParam	= 0;

  00003	8b 45 08	 mov	 eax, DWORD PTR _dwDestParam$[ebp]
  00006	53		 push	 ebx
  00007	56		 push	 esi
  00008	57		 push	 edi
  00009	8b 7d 0c	 mov	 edi, DWORD PTR _nParam$[ebp]
  0000c	8b f1		 mov	 esi, ecx
  0000e	c7 07 00 00 00
	00		 mov	 DWORD PTR [edi], 0
  00014	c7 00 00 00 00
	00		 mov	 DWORD PTR [eax], 0

; 381  : 	PPETAVAILPARAM pAvailParam	= CPetProperty::GetInstance()->GetAvailParam( m_nKind );

  0001a	8a 46 04	 mov	 al, BYTE PTR [esi+4]
  0001d	50		 push	 eax
  0001e	e8 00 00 00 00	 call	 ?GetInstance@CPetProperty@@SAPAV1@XZ ; CPetProperty::GetInstance
  00023	8b c8		 mov	 ecx, eax
  00025	e8 00 00 00 00	 call	 ?GetAvailParam@CPetProperty@@QAEPAU_PETAVAILPARAM@@E@Z ; CPetProperty::GetAvailParam
  0002a	8b d8		 mov	 ebx, eax

; 382  : 	if( pAvailParam )

  0002c	85 db		 test	 ebx, ebx
  0002e	74 26		 je	 SHORT $LN3@GetAvailDe

; 383  : 	{
; 384  : 		dwDestParam	= pAvailParam->dwDstParam;

  00030	8b 45 08	 mov	 eax, DWORD PTR _dwDestParam$[ebp]
  00033	8b 0b		 mov	 ecx, DWORD PTR [ebx]
  00035	89 08		 mov	 DWORD PTR [eax], ecx

; 385  : 		for( int i = PL_D; i <= m_nLevel; i++ )

  00037	b9 01 00 00 00	 mov	 ecx, 1
  0003c	38 4e 05	 cmp	 BYTE PTR [esi+5], cl
  0003f	72 15		 jb	 SHORT $LN3@GetAvailDe

; 383  : 	{
; 384  : 		dwDestParam	= pAvailParam->dwDstParam;

  00041	8b 17		 mov	 edx, DWORD PTR [edi]
$LL4@GetAvailDe:

; 386  : 			nParam += pAvailParam->m_anParam[m_anAvailLevel[i-1] - 1];

  00043	0f b6 44 0e 0f	 movzx	 eax, BYTE PTR [esi+ecx+15]
  00048	41		 inc	 ecx
  00049	03 14 83	 add	 edx, DWORD PTR [ebx+eax*4]
  0004c	89 17		 mov	 DWORD PTR [edi], edx
  0004e	0f b6 46 05	 movzx	 eax, BYTE PTR [esi+5]
  00052	3b c8		 cmp	 ecx, eax
  00054	7e ed		 jle	 SHORT $LL4@GetAvailDe
$LN3@GetAvailDe:
  00056	5f		 pop	 edi

; 387  : 	}
; 388  : }

  00057	5e		 pop	 esi
  00058	5b		 pop	 ebx
  00059	5d		 pop	 ebp
  0005a	c2 08 00	 ret	 8
?GetAvailDestParam@CPet@@QAEXAAKAAH@Z ENDP		; CPet::GetAvailDestParam
_TEXT	ENDS
; Function compile flags: /Ogtp
; File C:\IAGOS\server\v18\Source\Source\_Common\pet.cpp
;	COMDAT ?GetAvailLevel@CPet@@QAEEE@Z
_TEXT	SEGMENT
_nLevel$ = 8						; size = 1
?GetAvailLevel@CPet@@QAEEE@Z PROC			; CPet::GetAvailLevel, COMDAT
; _this$ = ecx

; 368  : {

  00000	55		 push	 ebp
  00001	8b ec		 mov	 ebp, esp

; 369  : 	if( nLevel >= PL_D && nLevel <= PL_S )

  00003	8a 55 08	 mov	 dl, BYTE PTR _nLevel$[ebp]
  00006	8d 42 ff	 lea	 eax, DWORD PTR [edx-1]
  00009	3c 04		 cmp	 al, 4
  0000b	77 0b		 ja	 SHORT $LN2@GetAvailLe

; 370  : 		return m_anAvailLevel[nLevel-1];

  0000d	0f b6 c2	 movzx	 eax, dl
  00010	8a 44 08 0f	 mov	 al, BYTE PTR [eax+ecx+15]

; 372  : }

  00014	5d		 pop	 ebp
  00015	c2 04 00	 ret	 4
$LN2@GetAvailLe:

; 371  : 	return 0;

  00018	32 c0		 xor	 al, al

; 372  : }

  0001a	5d		 pop	 ebp
  0001b	c2 04 00	 ret	 4
?GetAvailLevel@CPet@@QAEEE@Z ENDP			; CPet::GetAvailLevel
_TEXT	ENDS
; Function compile flags: /Ogtp
; File C:\IAGOS\server\v18\Source\Source\_Common\pet.cpp
;	COMDAT ?GetIndex@CPet@@QAEKXZ
_TEXT	SEGMENT
?GetIndex@CPet@@QAEKXZ PROC				; CPet::GetIndex, COMDAT
; _this$ = ecx

; 391  : {

  00000	56		 push	 esi
  00001	8b f1		 mov	 esi, ecx

; 392  : 	PPETAVAILPARAM pPetAvailParam	= CPetProperty::GetInstance()->GetAvailParam( m_nKind );

  00003	8a 46 04	 mov	 al, BYTE PTR [esi+4]
  00006	50		 push	 eax
  00007	e8 00 00 00 00	 call	 ?GetInstance@CPetProperty@@SAPAV1@XZ ; CPetProperty::GetInstance
  0000c	8b c8		 mov	 ecx, eax
  0000e	e8 00 00 00 00	 call	 ?GetAvailParam@CPetProperty@@QAEPAU_PETAVAILPARAM@@E@Z ; CPetProperty::GetAvailParam

; 393  : 	if( m_nLevel == PL_EGG )

  00013	8a 4e 05	 mov	 cl, BYTE PTR [esi+5]
  00016	5e		 pop	 esi
  00017	84 c9		 test	 cl, cl
  00019	75 06		 jne	 SHORT $LN2@GetIndex

; 394  : 		return MI_PET_EGG;

  0001b	b8 db 02 00 00	 mov	 eax, 731		; 000002dbH

; 401  : }

  00020	c3		 ret	 0
$LN2@GetIndex:

; 395  : 	else if( m_nLevel > PL_EGG && m_nLevel < PL_B )

  00021	80 f9 03	 cmp	 cl, 3
  00024	73 04		 jae	 SHORT $LN4@GetIndex

; 396  : 		return pPetAvailParam->m_adwIndex[0];

  00026	8b 40 2c	 mov	 eax, DWORD PTR [eax+44]

; 401  : }

  00029	c3		 ret	 0
$LN4@GetIndex:

; 397  : 	else if( m_nLevel < PL_S )

  0002a	80 f9 05	 cmp	 cl, 5
  0002d	73 04		 jae	 SHORT $LN6@GetIndex

; 398  : 		return pPetAvailParam->m_adwIndex[1];

  0002f	8b 40 30	 mov	 eax, DWORD PTR [eax+48]

; 401  : }

  00032	c3		 ret	 0
$LN6@GetIndex:

; 399  : 	else
; 400  : 		return pPetAvailParam->m_adwIndex[2];

  00033	8b 40 34	 mov	 eax, DWORD PTR [eax+52]

; 401  : }

  00036	c3		 ret	 0
?GetIndex@CPet@@QAEKXZ ENDP				; CPet::GetIndex
_TEXT	ENDS
; Function compile flags: /Ogtp
; File C:\IAGOS\server\v18\Source\Source\_Common\pet.cpp
;	COMDAT ?SetAvailLevel@CPet@@QAEXEE@Z
_TEXT	SEGMENT
_nLevel$ = 8						; size = 1
_nAvailLevel$ = 12					; size = 1
?SetAvailLevel@CPet@@QAEXEE@Z PROC			; CPet::SetAvailLevel, COMDAT
; _this$ = ecx

; 362  : {

  00000	55		 push	 ebp
  00001	8b ec		 mov	 ebp, esp

; 363  : 	if( nLevel >= PL_D && nLevel <= PL_S )

  00003	8a 55 08	 mov	 dl, BYTE PTR _nLevel$[ebp]
  00006	8d 42 ff	 lea	 eax, DWORD PTR [edx-1]
  00009	3c 04		 cmp	 al, 4
  0000b	77 0a		 ja	 SHORT $LN2@SetAvailLe

; 364  : 		m_anAvailLevel[nLevel-1]	= nAvailLevel;

  0000d	8a 45 0c	 mov	 al, BYTE PTR _nAvailLevel$[ebp]
  00010	0f b6 d2	 movzx	 edx, dl
  00013	88 44 0a 0f	 mov	 BYTE PTR [edx+ecx+15], al
$LN2@SetAvailLe:

; 365  : }

  00017	5d		 pop	 ebp
  00018	c2 08 00	 ret	 8
?SetAvailLevel@CPet@@QAEXEE@Z ENDP			; CPet::SetAvailLevel
_TEXT	ENDS
; Function compile flags: /Ogtp
; File C:\IAGOS\server\v18\Source\Source\_Common\pet.cpp
; File C:\IAGOS\server\v18\Source\Source\_Network\Misc\Include\Ar.h
; File C:\IAGOS\server\v18\Source\Source\_Common\pet.cpp
; File C:\IAGOS\server\v18\Source\Source\_Network\Misc\Include\Ar.h
; File C:\IAGOS\server\v18\Source\Source\_Common\pet.cpp
; File C:\IAGOS\server\v18\Source\Source\_Network\Misc\Include\Ar.h
; File C:\IAGOS\server\v18\Source\Source\_Common\pet.cpp
; File C:\IAGOS\server\v18\Source\Source\_Network\Misc\Include\Ar.h
; File C:\IAGOS\server\v18\Source\Source\_Common\pet.cpp
;	COMDAT ?Serialize@CPet@@QAEXAAVCAr@@@Z
_TEXT	SEGMENT
tv240 = -16						; size = 4
tv241 = -12						; size = 4
tv243 = -8						; size = 4
tv244 = -4						; size = 4
_ar$ = 8						; size = 4
?Serialize@CPet@@QAEXAAVCAr@@@Z PROC			; CPet::Serialize, COMDAT
; _this$ = ecx

; 312  : {

  00000	55		 push	 ebp
  00001	8b ec		 mov	 ebp, esp
  00003	83 ec 10	 sub	 esp, 16			; 00000010H
; File C:\IAGOS\server\v18\Source\Source\_Network\Misc\Include\Ar.h

; 146  : 	return (m_nMode & CAr::load) == 0;

  00006	8d 51 0c	 lea	 edx, DWORD PTR [ecx+12]
; File C:\IAGOS\server\v18\Source\Source\_Common\pet.cpp

; 312  : {

  00009	53		 push	 ebx
  0000a	56		 push	 esi
; File C:\IAGOS\server\v18\Source\Source\_Network\Misc\Include\Ar.h

; 146  : 	return (m_nMode & CAr::load) == 0;

  0000b	8b 75 08	 mov	 esi, DWORD PTR _ar$[ebp]
  0000e	8d 41 04	 lea	 eax, DWORD PTR [ecx+4]
  00011	89 55 fc	 mov	 DWORD PTR tv244[ebp], edx
  00014	8d 59 08	 lea	 ebx, DWORD PTR [ecx+8]
  00017	8d 51 0e	 lea	 edx, DWORD PTR [ecx+14]
; File C:\IAGOS\server\v18\Source\Source\_Common\pet.cpp

; 312  : {

  0001a	57		 push	 edi
; File C:\IAGOS\server\v18\Source\Source\_Network\Misc\Include\Ar.h

; 146  : 	return (m_nMode & CAr::load) == 0;

  0001b	8d 79 05	 lea	 edi, DWORD PTR [ecx+5]
  0001e	89 55 f8	 mov	 DWORD PTR tv243[ebp], edx
  00021	8d 51 10	 lea	 edx, DWORD PTR [ecx+16]
  00024	83 c1 16	 add	 ecx, 22			; 00000016H
  00027	f6 06 01	 test	 BYTE PTR [esi], 1
  0002a	89 4d f0	 mov	 DWORD PTR tv240[ebp], ecx
; File C:\IAGOS\server\v18\Source\Source\_Common\pet.cpp

; 313  : 	if( ar.IsStoring() )

  0002d	8b ce		 mov	 ecx, esi
; File C:\IAGOS\server\v18\Source\Source\_Network\Misc\Include\Ar.h

; 146  : 	return (m_nMode & CAr::load) == 0;

  0002f	89 55 f4	 mov	 DWORD PTR tv241[ebp], edx
; File C:\IAGOS\server\v18\Source\Source\_Common\pet.cpp

; 313  : 	if( ar.IsStoring() )

  00032	50		 push	 eax
  00033	75 48		 jne	 SHORT $LN2@Serialize

; 314  : 	{
; 315  : 		ar << m_nKind;

  00035	e8 00 00 00 00	 call	 ??$?6E@CAr@@QAEAAV0@ABE@Z ; CAr::operator<<<unsigned char>

; 316  : 		ar << (BYTE)m_nLevel;

  0003a	57		 push	 edi
  0003b	8b ce		 mov	 ecx, esi
  0003d	e8 00 00 00 00	 call	 ??$?6E@CAr@@QAEAAV0@ABE@Z ; CAr::operator<<<unsigned char>

; 317  : 		ar << m_dwExp;

  00042	53		 push	 ebx
  00043	8b ce		 mov	 ecx, esi
  00045	e8 00 00 00 00	 call	 ??$?6K@CAr@@QAEAAV0@ABK@Z ; CAr::operator<<<unsigned long>

; 318  : 		ar << m_wEnergy;

  0004a	ff 75 fc	 push	 DWORD PTR tv244[ebp]
  0004d	8b ce		 mov	 ecx, esi
  0004f	e8 00 00 00 00	 call	 ??$?6G@CAr@@QAEAAV0@ABG@Z ; CAr::operator<<<unsigned short>

; 319  : 		ar << m_wLife;

  00054	ff 75 f8	 push	 DWORD PTR tv243[ebp]
  00057	8b ce		 mov	 ecx, esi
  00059	e8 00 00 00 00	 call	 ??$?6G@CAr@@QAEAAV0@ABG@Z ; CAr::operator<<<unsigned short>

; 320  : 		ar.Write( (const void*)m_anAvailLevel, sizeof(BYTE) * PL_MAX );

  0005e	6a 06		 push	 6
  00060	ff 75 f4	 push	 DWORD PTR tv241[ebp]
  00063	8b ce		 mov	 ecx, esi
  00065	e8 00 00 00 00	 call	 ?Write@CAr@@QAEXPBXI@Z	; CAr::Write

; 321  : #ifdef __PET_1024
; 322  : 		ar.WriteString( m_szName );

  0006a	ff 75 f0	 push	 DWORD PTR tv240[ebp]
  0006d	8b ce		 mov	 ecx, esi
  0006f	e8 00 00 00 00	 call	 ?WriteString@CAr@@QAEXPBD@Z ; CAr::WriteString
  00074	5f		 pop	 edi

; 337  : #endif	// __PET_1024
; 338  : 	}
; 339  : }

  00075	5e		 pop	 esi
  00076	5b		 pop	 ebx
  00077	8b e5		 mov	 esp, ebp
  00079	5d		 pop	 ebp
  0007a	c2 04 00	 ret	 4
$LN2@Serialize:

; 323  : #endif	// __PET_1024
; 324  : 	}
; 325  : 	else
; 326  : 	{
; 327  : 		m_nKind	= PK_TIGER;

  0007d	c6 00 00	 mov	 BYTE PTR [eax], 0

; 328  : 		m_nLevel	= PL_EGG;

  00080	c6 07 00	 mov	 BYTE PTR [edi], 0

; 329  : 		ar >> m_nKind;

  00083	e8 00 00 00 00	 call	 ??$?5E@CAr@@QAEAAV0@AAE@Z ; CAr::operator>><unsigned char>

; 330  : 		ar >> (BYTE &)m_nLevel;

  00088	57		 push	 edi
  00089	8b ce		 mov	 ecx, esi
  0008b	e8 00 00 00 00	 call	 ??$?5E@CAr@@QAEAAV0@AAE@Z ; CAr::operator>><unsigned char>

; 331  : 		ar >> m_dwExp;

  00090	53		 push	 ebx
  00091	8b ce		 mov	 ecx, esi
  00093	e8 00 00 00 00	 call	 ??$?5K@CAr@@QAEAAV0@AAK@Z ; CAr::operator>><unsigned long>

; 332  : 		ar >> m_wEnergy;

  00098	ff 75 fc	 push	 DWORD PTR tv244[ebp]
  0009b	8b ce		 mov	 ecx, esi
  0009d	e8 00 00 00 00	 call	 ??$?5G@CAr@@QAEAAV0@AAG@Z ; CAr::operator>><unsigned short>

; 333  : 		ar >> m_wLife;

  000a2	ff 75 f8	 push	 DWORD PTR tv243[ebp]
  000a5	8b ce		 mov	 ecx, esi
  000a7	e8 00 00 00 00	 call	 ??$?5G@CAr@@QAEAAV0@AAG@Z ; CAr::operator>><unsigned short>

; 334  : 		ar.Read( (void *)m_anAvailLevel, sizeof(BYTE) * PL_MAX );

  000ac	6a 06		 push	 6
  000ae	ff 75 f4	 push	 DWORD PTR tv241[ebp]
  000b1	8b ce		 mov	 ecx, esi
  000b3	e8 00 00 00 00	 call	 ?Read@CAr@@QAEXPAXI@Z	; CAr::Read

; 335  : #ifdef __PET_1024
; 336  : 		ar.ReadString( m_szName, MAX_PET_NAME );

  000b8	6a 11		 push	 17			; 00000011H
  000ba	ff 75 f0	 push	 DWORD PTR tv240[ebp]
  000bd	8b ce		 mov	 ecx, esi
  000bf	e8 00 00 00 00	 call	 ?ReadString@CAr@@QAEPADPADH@Z ; CAr::ReadString
  000c4	5f		 pop	 edi

; 337  : #endif	// __PET_1024
; 338  : 	}
; 339  : }

  000c5	5e		 pop	 esi
  000c6	5b		 pop	 ebx
  000c7	8b e5		 mov	 esp, ebp
  000c9	5d		 pop	 ebp
  000ca	c2 04 00	 ret	 4
?Serialize@CPet@@QAEXAAVCAr@@@Z ENDP			; CPet::Serialize
_TEXT	ENDS
; Function compile flags: /Ogtp
; File C:\IAGOS\server\v18\Source\Source\_Common\pet.cpp
;	COMDAT ??1CPet@@UAE@XZ
_TEXT	SEGMENT
??1CPet@@UAE@XZ PROC					; CPet::~CPet, COMDAT
; _this$ = ecx

; 308  : {

  00000	c7 01 00 00 00
	00		 mov	 DWORD PTR [ecx], OFFSET ??_7CPet@@6B@

; 309  : }

  00006	c3		 ret	 0
??1CPet@@UAE@XZ ENDP					; CPet::~CPet
_TEXT	ENDS
; Function compile flags: /Ogtp
; File C:\IAGOS\server\v18\Source\Source\_Common\pet.cpp
;	COMDAT ??0CPet@@QAE@XZ
_TEXT	SEGMENT
??0CPet@@QAE@XZ PROC					; CPet::CPet, COMDAT
; _this$ = ecx

; 296  : 	m_nKind	= 0;
; 297  : 	m_nLevel	= PL_EGG;
; 298  : 	m_dwExp	= 0;
; 299  : 	m_wEnergy	= 0;

  00000	33 c0		 xor	 eax, eax
  00002	c7 01 00 00 00
	00		 mov	 DWORD PTR [ecx], OFFSET ??_7CPet@@6B@
  00008	89 41 0c	 mov	 DWORD PTR [ecx+12], eax
  0000b	66 c7 41 04 00
	00		 mov	 WORD PTR [ecx+4], 0
  00011	c7 41 08 00 00
	00 00		 mov	 DWORD PTR [ecx+8], 0

; 300  : 	m_wLife	= 0;
; 301  : 	memset( (void*)m_anAvailLevel, 0, sizeof(BYTE) * PL_MAX );

  00018	89 41 10	 mov	 DWORD PTR [ecx+16], eax
  0001b	66 89 41 14	 mov	 WORD PTR [ecx+20], ax

; 302  : #ifdef __PET_1024
; 303  : 	m_szName[0]	= '\0';

  0001f	88 41 16	 mov	 BYTE PTR [ecx+22], al

; 304  : #endif	// __PET_1024
; 305  : }

  00022	8b c1		 mov	 eax, ecx
  00024	c3		 ret	 0
??0CPet@@QAE@XZ ENDP					; CPet::CPet
_TEXT	ENDS
; Function compile flags: /Ogtp
;	COMDAT ??_GCPetProperty@@UAEPAXI@Z
_TEXT	SEGMENT
___flags$ = 8						; size = 4
??_GCPetProperty@@UAEPAXI@Z PROC			; CPetProperty::`scalar deleting destructor', COMDAT
; _this$ = ecx
  00000	55		 push	 ebp
  00001	8b ec		 mov	 ebp, esp
  00003	56		 push	 esi
  00004	8b f1		 mov	 esi, ecx
  00006	e8 00 00 00 00	 call	 ??1CPetProperty@@UAE@XZ	; CPetProperty::~CPetProperty
  0000b	f6 45 08 01	 test	 BYTE PTR ___flags$[ebp], 1
  0000f	74 0e		 je	 SHORT $LN5@scalar
  00011	68 00 03 00 00	 push	 768			; 00000300H
  00016	56		 push	 esi
  00017	e8 00 00 00 00	 call	 ??3@YAXPAXI@Z		; operator delete
  0001c	83 c4 08	 add	 esp, 8
$LN5@scalar:
  0001f	8b c6		 mov	 eax, esi
  00021	5e		 pop	 esi
  00022	5d		 pop	 ebp
  00023	c2 04 00	 ret	 4
??_GCPetProperty@@UAEPAXI@Z ENDP			; CPetProperty::`scalar deleting destructor'
_TEXT	ENDS
; Function compile flags: /Ogtp
; File C:\Program Files\Microsoft Visual Studio\2022\Professional\VC\Tools\MSVC\14.44.35207\include\vector
;	COMDAT ?_Xlength@?$vector@GV?$allocator@G@std@@@std@@CAXXZ
_TEXT	SEGMENT
?_Xlength@?$vector@GV?$allocator@G@std@@@std@@CAXXZ PROC ; std::vector<unsigned short,std::allocator<unsigned short> >::_Xlength, COMDAT

; 2184 :         _Xlength_error("vector too long");

  00000	68 00 00 00 00	 push	 OFFSET ??_C@_0BA@FOIKENOD@vector?5too?5long@
  00005	e8 00 00 00 00	 call	 ?_Xlength_error@std@@YAXPBD@Z ; std::_Xlength_error
$LN3@Xlength:
  0000a	cc		 int	 3
?_Xlength@?$vector@GV?$allocator@G@std@@@std@@CAXXZ ENDP ; std::vector<unsigned short,std::allocator<unsigned short> >::_Xlength
_TEXT	ENDS
; Function compile flags: /Ogtp
; File C:\Program Files\Microsoft Visual Studio\2022\Professional\VC\Tools\MSVC\14.44.35207\include\vector
; File C:\Program Files\Microsoft Visual Studio\2022\Professional\VC\Tools\MSVC\14.44.35207\include\xmemory
; File C:\Program Files\Microsoft Visual Studio\2022\Professional\VC\Tools\MSVC\14.44.35207\include\vector
; File C:\Program Files\Microsoft Visual Studio\2022\Professional\VC\Tools\MSVC\14.44.35207\include\xmemory
; File C:\Program Files\Microsoft Visual Studio\2022\Professional\VC\Tools\MSVC\14.44.35207\include\vector
; File C:\Program Files\Microsoft Visual Studio\2022\Professional\VC\Tools\MSVC\14.44.35207\include\xmemory
; File C:\Program Files\Microsoft Visual Studio\2022\Professional\VC\Tools\MSVC\14.44.35207\include\vector
;	COMDAT ??1?$vector@GV?$allocator@G@std@@@std@@QAE@XZ
_TEXT	SEGMENT
??1?$vector@GV?$allocator@G@std@@@std@@QAE@XZ PROC	; std::vector<unsigned short,std::allocator<unsigned short> >::~vector<unsigned short,std::allocator<unsigned short> >, COMDAT
; _this$ = ecx

; 829  :     _CONSTEXPR20 ~vector() noexcept {

  00000	56		 push	 esi
  00001	8b f1		 mov	 esi, ecx

; 2090 :         if (_Myfirst) { // destroy and deallocate old array

  00003	8b 06		 mov	 eax, DWORD PTR [esi]
  00005	85 c0		 test	 eax, eax
  00007	74 40		 je	 SHORT $LN5@vector

; 2091 :             _STD _Destroy_range(_Myfirst, _Mylast, _Al);
; 2092 :             _ASAN_VECTOR_REMOVE;
; 2093 :             _Al.deallocate(_Myfirst, static_cast<size_type>(_Myend - _Myfirst));

  00009	8b 4e 08	 mov	 ecx, DWORD PTR [esi+8]
  0000c	2b c8		 sub	 ecx, eax
; File C:\Program Files\Microsoft Visual Studio\2022\Professional\VC\Tools\MSVC\14.44.35207\include\xmemory

; 985  :         _STD _Deallocate<_New_alignof<_Ty>>(_Ptr, sizeof(_Ty) * _Count);

  0000e	83 e1 fe	 and	 ecx, -2			; fffffffeH

; 284  :         if (_Bytes >= _Big_allocation_threshold) {

  00011	81 f9 00 10 00
	00		 cmp	 ecx, 4096		; 00001000H
  00017	72 12		 jb	 SHORT $LN18@vector

; 205  :     const uintptr_t _Ptr_container   = _Ptr_user[-1];

  00019	8b 50 fc	 mov	 edx, DWORD PTR [eax-4]
  0001c	83 c1 23	 add	 ecx, 35			; 00000023H

; 206  : 
; 207  :     // If the following asserts, it likely means that we are performing
; 208  :     // an aligned delete on memory coming from an unaligned allocation.
; 209  :     _STL_ASSERT(_Ptr_user[-2] == _Big_allocation_sentinel, "invalid argument");
; 210  : 
; 211  :     // Extra paranoia on aligned allocation/deallocation; ensure _Ptr_container is
; 212  :     // in range [_Min_back_shift, _Non_user_size]
; 213  : #ifdef _DEBUG
; 214  :     constexpr uintptr_t _Min_back_shift = 2 * sizeof(void*);
; 215  : #else // ^^^ defined(_DEBUG) / !defined(_DEBUG) vvv
; 216  :     constexpr uintptr_t _Min_back_shift = sizeof(void*);
; 217  : #endif // ^^^ !defined(_DEBUG) ^^^
; 218  :     const uintptr_t _Back_shift = reinterpret_cast<uintptr_t>(_Ptr) - _Ptr_container;

  0001f	2b c2		 sub	 eax, edx

; 219  :     _STL_VERIFY(_Back_shift >= _Min_back_shift && _Back_shift <= _Non_user_size, "invalid argument");

  00021	83 c0 fc	 add	 eax, -4			; fffffffcH
  00024	83 f8 1f	 cmp	 eax, 31			; 0000001fH
  00027	77 22		 ja	 SHORT $LN17@vector

; 220  :     _Ptr = reinterpret_cast<void*>(_Ptr_container);

  00029	8b c2		 mov	 eax, edx
$LN18@vector:

; 289  :         ::operator delete(_Ptr, _Bytes);

  0002b	51		 push	 ecx
  0002c	50		 push	 eax
  0002d	e8 00 00 00 00	 call	 ??3@YAXPAXI@Z		; operator delete
; File C:\Program Files\Microsoft Visual Studio\2022\Professional\VC\Tools\MSVC\14.44.35207\include\vector

; 2095 :             _Myfirst = nullptr;

  00032	c7 06 00 00 00
	00		 mov	 DWORD PTR [esi], 0
; File C:\Program Files\Microsoft Visual Studio\2022\Professional\VC\Tools\MSVC\14.44.35207\include\xmemory

; 289  :         ::operator delete(_Ptr, _Bytes);

  00038	83 c4 08	 add	 esp, 8
; File C:\Program Files\Microsoft Visual Studio\2022\Professional\VC\Tools\MSVC\14.44.35207\include\vector

; 2096 :             _Mylast  = nullptr;

  0003b	c7 46 04 00 00
	00 00		 mov	 DWORD PTR [esi+4], 0

; 2097 :             _Myend   = nullptr;

  00042	c7 46 08 00 00
	00 00		 mov	 DWORD PTR [esi+8], 0
$LN5@vector:
  00049	5e		 pop	 esi

; 835  :     }

  0004a	c3		 ret	 0
$LN17@vector:
; File C:\Program Files\Microsoft Visual Studio\2022\Professional\VC\Tools\MSVC\14.44.35207\include\xmemory

; 219  :     _STL_VERIFY(_Back_shift >= _Min_back_shift && _Back_shift <= _Non_user_size, "invalid argument");

  0004b	6a 00		 push	 0
  0004d	6a 00		 push	 0
  0004f	6a 00		 push	 0
  00051	6a 00		 push	 0
  00053	6a 00		 push	 0
  00055	e8 00 00 00 00	 call	 __invoke_watson
$LN26@vector:
  0005a	cc		 int	 3
??1?$vector@GV?$allocator@G@std@@@std@@QAE@XZ ENDP	; std::vector<unsigned short,std::allocator<unsigned short> >::~vector<unsigned short,std::allocator<unsigned short> >
_TEXT	ENDS
; Function compile flags: /Ogtp
; File C:\Program Files\Microsoft Visual Studio\2022\Professional\VC\Tools\MSVC\14.44.35207\include\vector
;	COMDAT ?_Xlength@?$vector@U_FEEDENERGY@@V?$allocator@U_FEEDENERGY@@@std@@@std@@CAXXZ
_TEXT	SEGMENT
?_Xlength@?$vector@U_FEEDENERGY@@V?$allocator@U_FEEDENERGY@@@std@@@std@@CAXXZ PROC ; std::vector<_FEEDENERGY,std::allocator<_FEEDENERGY> >::_Xlength, COMDAT

; 2184 :         _Xlength_error("vector too long");

  00000	68 00 00 00 00	 push	 OFFSET ??_C@_0BA@FOIKENOD@vector?5too?5long@
  00005	e8 00 00 00 00	 call	 ?_Xlength_error@std@@YAXPBD@Z ; std::_Xlength_error
$LN3@Xlength:
  0000a	cc		 int	 3
?_Xlength@?$vector@U_FEEDENERGY@@V?$allocator@U_FEEDENERGY@@@std@@@std@@CAXXZ ENDP ; std::vector<_FEEDENERGY,std::allocator<_FEEDENERGY> >::_Xlength
_TEXT	ENDS
; Function compile flags: /Ogtp
; File C:\Program Files\Microsoft Visual Studio\2022\Professional\VC\Tools\MSVC\14.44.35207\include\vector
; File C:\Program Files\Microsoft Visual Studio\2022\Professional\VC\Tools\MSVC\14.44.35207\include\xmemory
; File C:\Program Files\Microsoft Visual Studio\2022\Professional\VC\Tools\MSVC\14.44.35207\include\vector
; File C:\Program Files\Microsoft Visual Studio\2022\Professional\VC\Tools\MSVC\14.44.35207\include\xmemory
; File C:\Program Files\Microsoft Visual Studio\2022\Professional\VC\Tools\MSVC\14.44.35207\include\vector
; File C:\Program Files\Microsoft Visual Studio\2022\Professional\VC\Tools\MSVC\14.44.35207\include\xmemory
; File C:\Program Files\Microsoft Visual Studio\2022\Professional\VC\Tools\MSVC\14.44.35207\include\vector
;	COMDAT ??1?$vector@U_FEEDENERGY@@V?$allocator@U_FEEDENERGY@@@std@@@std@@QAE@XZ
_TEXT	SEGMENT
??1?$vector@U_FEEDENERGY@@V?$allocator@U_FEEDENERGY@@@std@@@std@@QAE@XZ PROC ; std::vector<_FEEDENERGY,std::allocator<_FEEDENERGY> >::~vector<_FEEDENERGY,std::allocator<_FEEDENERGY> >, COMDAT
; _this$ = ecx

; 829  :     _CONSTEXPR20 ~vector() noexcept {

  00000	56		 push	 esi
  00001	57		 push	 edi
  00002	8b f9		 mov	 edi, ecx

; 2090 :         if (_Myfirst) { // destroy and deallocate old array

  00004	8b 37		 mov	 esi, DWORD PTR [edi]
  00006	85 f6		 test	 esi, esi
  00008	74 53		 je	 SHORT $LN5@vector

; 2091 :             _STD _Destroy_range(_Myfirst, _Mylast, _Al);
; 2092 :             _ASAN_VECTOR_REMOVE;
; 2093 :             _Al.deallocate(_Myfirst, static_cast<size_type>(_Myend - _Myfirst));

  0000a	8b 4f 08	 mov	 ecx, DWORD PTR [edi+8]
  0000d	b8 ab aa aa 2a	 mov	 eax, 715827883		; 2aaaaaabH
  00012	2b ce		 sub	 ecx, esi
  00014	f7 e9		 imul	 ecx
  00016	d1 fa		 sar	 edx, 1
  00018	8b c2		 mov	 eax, edx
  0001a	c1 e8 1f	 shr	 eax, 31			; 0000001fH
  0001d	03 c2		 add	 eax, edx
; File C:\Program Files\Microsoft Visual Studio\2022\Professional\VC\Tools\MSVC\14.44.35207\include\xmemory

; 985  :         _STD _Deallocate<_New_alignof<_Ty>>(_Ptr, sizeof(_Ty) * _Count);

  0001f	8d 0c 40	 lea	 ecx, DWORD PTR [eax+eax*2]
  00022	c1 e1 02	 shl	 ecx, 2

; 284  :         if (_Bytes >= _Big_allocation_threshold) {

  00025	81 f9 00 10 00
	00		 cmp	 ecx, 4096		; 00001000H
  0002b	72 12		 jb	 SHORT $LN18@vector

; 205  :     const uintptr_t _Ptr_container   = _Ptr_user[-1];

  0002d	8b 56 fc	 mov	 edx, DWORD PTR [esi-4]
  00030	83 c1 23	 add	 ecx, 35			; 00000023H

; 206  : 
; 207  :     // If the following asserts, it likely means that we are performing
; 208  :     // an aligned delete on memory coming from an unaligned allocation.
; 209  :     _STL_ASSERT(_Ptr_user[-2] == _Big_allocation_sentinel, "invalid argument");
; 210  : 
; 211  :     // Extra paranoia on aligned allocation/deallocation; ensure _Ptr_container is
; 212  :     // in range [_Min_back_shift, _Non_user_size]
; 213  : #ifdef _DEBUG
; 214  :     constexpr uintptr_t _Min_back_shift = 2 * sizeof(void*);
; 215  : #else // ^^^ defined(_DEBUG) / !defined(_DEBUG) vvv
; 216  :     constexpr uintptr_t _Min_back_shift = sizeof(void*);
; 217  : #endif // ^^^ !defined(_DEBUG) ^^^
; 218  :     const uintptr_t _Back_shift = reinterpret_cast<uintptr_t>(_Ptr) - _Ptr_container;

  00033	2b f2		 sub	 esi, edx

; 219  :     _STL_VERIFY(_Back_shift >= _Min_back_shift && _Back_shift <= _Non_user_size, "invalid argument");

  00035	8d 46 fc	 lea	 eax, DWORD PTR [esi-4]
  00038	83 f8 1f	 cmp	 eax, 31			; 0000001fH
  0003b	77 23		 ja	 SHORT $LN17@vector

; 220  :     _Ptr = reinterpret_cast<void*>(_Ptr_container);

  0003d	8b f2		 mov	 esi, edx
$LN18@vector:

; 289  :         ::operator delete(_Ptr, _Bytes);

  0003f	51		 push	 ecx
  00040	56		 push	 esi
  00041	e8 00 00 00 00	 call	 ??3@YAXPAXI@Z		; operator delete
; File C:\Program Files\Microsoft Visual Studio\2022\Professional\VC\Tools\MSVC\14.44.35207\include\vector

; 2095 :             _Myfirst = nullptr;

  00046	c7 07 00 00 00
	00		 mov	 DWORD PTR [edi], 0
; File C:\Program Files\Microsoft Visual Studio\2022\Professional\VC\Tools\MSVC\14.44.35207\include\xmemory

; 289  :         ::operator delete(_Ptr, _Bytes);

  0004c	83 c4 08	 add	 esp, 8
; File C:\Program Files\Microsoft Visual Studio\2022\Professional\VC\Tools\MSVC\14.44.35207\include\vector

; 2096 :             _Mylast  = nullptr;

  0004f	c7 47 04 00 00
	00 00		 mov	 DWORD PTR [edi+4], 0

; 2097 :             _Myend   = nullptr;

  00056	c7 47 08 00 00
	00 00		 mov	 DWORD PTR [edi+8], 0
$LN5@vector:
  0005d	5f		 pop	 edi

; 835  :     }

  0005e	5e		 pop	 esi
  0005f	c3		 ret	 0
$LN17@vector:
; File C:\Program Files\Microsoft Visual Studio\2022\Professional\VC\Tools\MSVC\14.44.35207\include\xmemory

; 219  :     _STL_VERIFY(_Back_shift >= _Min_back_shift && _Back_shift <= _Non_user_size, "invalid argument");

  00060	6a 00		 push	 0
  00062	6a 00		 push	 0
  00064	6a 00		 push	 0
  00066	6a 00		 push	 0
  00068	6a 00		 push	 0
  0006a	e8 00 00 00 00	 call	 __invoke_watson
$LN26@vector:
  0006f	cc		 int	 3
??1?$vector@U_FEEDENERGY@@V?$allocator@U_FEEDENERGY@@@std@@@std@@QAE@XZ ENDP ; std::vector<_FEEDENERGY,std::allocator<_FEEDENERGY> >::~vector<_FEEDENERGY,std::allocator<_FEEDENERGY> >
_TEXT	ENDS
; Function compile flags: /Ogtp
; File C:\Program Files\Microsoft Visual Studio\2022\Professional\VC\Tools\MSVC\14.44.35207\include\vector
;	COMDAT ??0?$vector@U_FEEDENERGY@@V?$allocator@U_FEEDENERGY@@@std@@@std@@QAE@XZ
_TEXT	SEGMENT
??0?$vector@U_FEEDENERGY@@V?$allocator@U_FEEDENERGY@@@std@@@std@@QAE@XZ PROC ; std::vector<_FEEDENERGY,std::allocator<_FEEDENERGY> >::vector<_FEEDENERGY,std::allocator<_FEEDENERGY> >, COMDAT
; _this$ = ecx

; 400  :     _CONSTEXPR20 _Vector_val() noexcept : _Myfirst(), _Mylast(), _Myend() {}

  00000	c7 01 00 00 00
	00		 mov	 DWORD PTR [ecx], 0

; 671  :         _Mypair._Myval2._Alloc_proxy(_GET_PROXY_ALLOCATOR(_Alty, _Getal()));
; 672  :     }

  00006	8b c1		 mov	 eax, ecx

; 400  :     _CONSTEXPR20 _Vector_val() noexcept : _Myfirst(), _Mylast(), _Myend() {}

  00008	c7 41 04 00 00
	00 00		 mov	 DWORD PTR [ecx+4], 0
  0000f	c7 41 08 00 00
	00 00		 mov	 DWORD PTR [ecx+8], 0

; 671  :         _Mypair._Myval2._Alloc_proxy(_GET_PROXY_ALLOCATOR(_Alty, _Getal()));
; 672  :     }

  00016	c3		 ret	 0
??0?$vector@U_FEEDENERGY@@V?$allocator@U_FEEDENERGY@@@std@@@std@@QAE@XZ ENDP ; std::vector<_FEEDENERGY,std::allocator<_FEEDENERGY> >::vector<_FEEDENERGY,std::allocator<_FEEDENERGY> >
_TEXT	ENDS
; Function compile flags: /Ogtp
; File C:\IAGOS\server\v18\Source\Source\_Common\pet.cpp
;	COMDAT ?GetPenalty@CPetProperty@@QAEPAU_PETPENALTY@@E@Z
_TEXT	SEGMENT
_nLevel$ = 8						; size = 1
?GetPenalty@CPetProperty@@QAEPAU_PETPENALTY@@E@Z PROC	; CPetProperty::GetPenalty, COMDAT
; _this$ = ecx

; 38   : {

  00000	55		 push	 ebp
  00001	8b ec		 mov	 ebp, esp

; 39   : 	if( nLevel >= PL_MAX )

  00003	8a 45 08	 mov	 al, BYTE PTR _nLevel$[ebp]
  00006	3c 06		 cmp	 al, 6
  00008	72 06		 jb	 SHORT $LN2@GetPenalty

; 40   : 		return NULL;

  0000a	33 c0		 xor	 eax, eax

; 42   : }

  0000c	5d		 pop	 ebp
  0000d	c2 04 00	 ret	 4
$LN2@GetPenalty:

; 41   : 	return &m_aPenalty[nLevel];

  00010	0f b6 c0	 movzx	 eax, al
  00013	83 c0 5a	 add	 eax, 90			; 0000005aH
  00016	8d 04 c1	 lea	 eax, DWORD PTR [ecx+eax*8]

; 42   : }

  00019	5d		 pop	 ebp
  0001a	c2 04 00	 ret	 4
?GetPenalty@CPetProperty@@QAEPAU_PETPENALTY@@E@Z ENDP	; CPetProperty::GetPenalty
_TEXT	ENDS
; Function compile flags: /Ogtp
; File C:\IAGOS\server\v18\Source\Source\_Common\pet.cpp
;	COMDAT ?Hatch@CPetProperty@@QAEEXZ
_TEXT	SEGMENT
?Hatch@CPetProperty@@QAEEXZ PROC			; CPetProperty::Hatch, COMDAT
; _this$ = ecx

; 79   : {

  00000	56		 push	 esi
  00001	57		 push	 edi

; 80   : 	DWORD dwTotal	= 0;
; 81   : 	DWORD dwRandom	= xRandom( 1, 10001 );	// 1 - 10000

  00002	68 11 27 00 00	 push	 10001			; 00002711H
  00007	6a 01		 push	 1
  00009	8b f1		 mov	 esi, ecx
  0000b	33 ff		 xor	 edi, edi
  0000d	e8 00 00 00 00	 call	 ?xRandom@@YAKKK@Z	; xRandom
  00012	8b c8		 mov	 ecx, eax
  00014	83 c4 08	 add	 esp, 8

; 82   : 	for( int i = 0; i < PK_MAX; i++ )

  00017	33 c0		 xor	 eax, eax
  00019	83 c6 3c	 add	 esi, 60			; 0000003cH
  0001c	0f 1f 40 00	 npad	 4
$LL4@Hatch:

; 83   : 	{
; 84   : 		dwTotal	+= m_aPetAvailParam[i].m_dwProbability;

  00020	03 3e		 add	 edi, DWORD PTR [esi]

; 85   : 		if( dwTotal >= dwRandom )

  00022	3b f9		 cmp	 edi, ecx
  00024	73 0b		 jae	 SHORT $LN1@Hatch

; 82   : 	for( int i = 0; i < PK_MAX; i++ )

  00026	40		 inc	 eax
  00027	83 c6 3c	 add	 esi, 60			; 0000003cH
  0002a	83 f8 07	 cmp	 eax, 7
  0002d	7c f1		 jl	 SHORT $LL4@Hatch

; 86   : 			return i;
; 87   : 	}
; 88   : 	return 0;	// error

  0002f	32 c0		 xor	 al, al
$LN1@Hatch:
  00031	5f		 pop	 edi

; 89   : }

  00032	5e		 pop	 esi
  00033	c3		 ret	 0
?Hatch@CPetProperty@@QAEEXZ ENDP			; CPetProperty::Hatch
_TEXT	ENDS
; Function compile flags: /Ogtp
; File C:\IAGOS\server\v18\Source\Source\_Common\pet.cpp
; File C:\Program Files\Microsoft Visual Studio\2022\Professional\VC\Tools\MSVC\14.44.35207\atlmfc\include\cstringt.h
; File C:\IAGOS\server\v18\Source\Source\_Common\pet.cpp
; File C:\Program Files\Microsoft Visual Studio\2022\Professional\VC\Tools\MSVC\14.44.35207\atlmfc\include\cstringt.h
; File C:\IAGOS\server\v18\Source\Source\_Common\pet.cpp
; File C:\Program Files\Microsoft Visual Studio\2022\Professional\VC\Tools\MSVC\14.44.35207\atlmfc\include\cstringt.h
; File C:\IAGOS\server\v18\Source\Source\_Common\pet.cpp
; File C:\Program Files\Microsoft Visual Studio\2022\Professional\VC\Tools\MSVC\14.44.35207\include\vector
; File C:\IAGOS\server\v18\Source\Source\_Common\pet.cpp
; File C:\Program Files\Microsoft Visual Studio\2022\Professional\VC\Tools\MSVC\14.44.35207\include\vector
; File C:\Program Files\Microsoft Visual Studio\2022\Professional\VC\Tools\MSVC\14.44.35207\include\xutility
; File C:\Program Files\Microsoft Visual Studio\2022\Professional\VC\Tools\MSVC\14.44.35207\include\vector
; File C:\IAGOS\server\v18\Source\Source\_Common\pet.cpp
; File C:\Program Files\Microsoft Visual Studio\2022\Professional\VC\Tools\MSVC\14.44.35207\atlmfc\include\cstringt.h
; File C:\IAGOS\server\v18\Source\Source\_Common\pet.cpp
; File C:\Program Files\Microsoft Visual Studio\2022\Professional\VC\Tools\MSVC\14.44.35207\atlmfc\include\cstringt.h
; File C:\IAGOS\server\v18\Source\Source\_Common\pet.cpp
; File C:\Program Files\Microsoft Visual Studio\2022\Professional\VC\Tools\MSVC\14.44.35207\atlmfc\include\cstringt.h
; File C:\IAGOS\server\v18\Source\Source\_Common\pet.cpp
; File C:\Program Files\Microsoft Visual Studio\2022\Professional\VC\Tools\MSVC\14.44.35207\include\vector
; File C:\IAGOS\server\v18\Source\Source\_Common\pet.cpp
; File C:\Program Files\Microsoft Visual Studio\2022\Professional\VC\Tools\MSVC\14.44.35207\atlmfc\include\cstringt.h
; File C:\IAGOS\server\v18\Source\Source\_Common\pet.cpp
;	COMDAT ?LoadScript@CPetProperty@@QAEHPBD@Z
_TEXT	SEGMENT
_fe$2 = -7820						; size = 12
_this$GSCopy$1$ = -7808					; size = 4
_fExp$3 = -7804						; size = 4
tv1330 = -7804						; size = 4
tv1336 = -7804						; size = 4
_wProbability$4 = -7804					; size = 2
_s$ = -7800						; size = 7784
__$ArrayPad$ = -16					; size = 4
__$EHRec$ = -12						; size = 12
_szFile$ = 8						; size = 4
?LoadScript@CPetProperty@@QAEHPBD@Z PROC		; CPetProperty::LoadScript, COMDAT
; _this$ = ecx

; 125  : {

  00000	55		 push	 ebp
  00001	8b ec		 mov	 ebp, esp
  00003	6a ff		 push	 -1
  00005	68 00 00 00 00	 push	 __ehhandler$?LoadScript@CPetProperty@@QAEHPBD@Z
  0000a	64 a1 00 00 00
	00		 mov	 eax, DWORD PTR fs:0
  00010	50		 push	 eax
  00011	b8 80 1e 00 00	 mov	 eax, 7808		; 00001e80H
  00016	e8 00 00 00 00	 call	 __chkstk
  0001b	a1 00 00 00 00	 mov	 eax, DWORD PTR ___security_cookie
  00020	33 c5		 xor	 eax, ebp
  00022	89 45 f0	 mov	 DWORD PTR __$ArrayPad$[ebp], eax
  00025	53		 push	 ebx
  00026	56		 push	 esi
  00027	57		 push	 edi
  00028	50		 push	 eax
  00029	8d 45 f4	 lea	 eax, DWORD PTR __$EHRec$[ebp]
  0002c	64 a3 00 00 00
	00		 mov	 DWORD PTR fs:0, eax
  00032	8b d9		 mov	 ebx, ecx
  00034	89 9d 80 e1 ff
	ff		 mov	 DWORD PTR _this$GSCopy$1$[ebp], ebx
  0003a	8b 75 08	 mov	 esi, DWORD PTR _szFile$[ebp]

; 126  : 	CScript s;

  0003d	8d 8d 88 e1 ff
	ff		 lea	 ecx, DWORD PTR _s$[ebp]
  00043	6a 00		 push	 0
  00045	e8 00 00 00 00	 call	 ??0CScript@@QAE@H@Z	; CScript::CScript

; 127  : 	if( s.Load( szFile ) == FALSE )

  0004a	6a 00		 push	 0
  0004c	6a 01		 push	 1
  0004e	56		 push	 esi
  0004f	8d 8d 88 e1 ff
	ff		 lea	 ecx, DWORD PTR _s$[ebp]
  00055	c7 45 fc 00 00
	00 00		 mov	 DWORD PTR __$EHRec$[ebp+8], 0
  0005c	e8 00 00 00 00	 call	 ?Load@CScript@@QAEHPBDHH@Z ; CScript::Load
  00061	85 c0		 test	 eax, eax
  00063	75 07		 jne	 SHORT $LN24@LoadScript
  00065	33 f6		 xor	 esi, esi
  00067	e9 01 05 00 00	 jmp	 $LN41@LoadScript
$LN24@LoadScript:

; 128  : 		return FALSE;
; 129  : 
; 130  : 	s.GetToken();	// subject or FINISHED

  0006c	6a 00		 push	 0
  0006e	8d 8d 88 e1 ff
	ff		 lea	 ecx, DWORD PTR _s$[ebp]
  00074	e8 00 00 00 00	 call	 ?GetToken@CScript@@UAEHH@Z ; CScript::GetToken

; 131  : 	while( s.tok != FINISHED )

  00079	83 bd cc e9 ff
	ff 15		 cmp	 DWORD PTR _s$[ebp+2116], 21 ; 00000015H
  00080	0f 84 e2 04 00
	00		 je	 $LN3@LoadScript
  00086	66 66 0f 1f 84
	00 00 00 00 00	 npad	 10
$LL2@LoadScript:
; File C:\Program Files\Microsoft Visual Studio\2022\Professional\VC\Tools\MSVC\14.44.35207\atlmfc\include\cstringt.h

; 184  : 		return _mbscmp( reinterpret_cast< const unsigned char* >( pszA ), reinterpret_cast< const unsigned char* >( pszB ) );

  00090	68 00 00 00 00	 push	 OFFSET ??_C@_0P@DOCAHOFJ@AvailDestParam@
  00095	ff b5 a8 e1 ff
	ff		 push	 DWORD PTR _s$[ebp+32]
  0009b	e8 00 00 00 00	 call	 __mbscmp
  000a0	83 c4 08	 add	 esp, 8

; 2490 : 		return(str1.Compare(psz2) == 0);

  000a3	85 c0		 test	 eax, eax
; File C:\IAGOS\server\v18\Source\Source\_Common\pet.cpp

; 133  : 		if( s.Token == _T( "AvailDestParam" ) )

  000a5	0f 85 d2 00 00
	00		 jne	 $LN64@LoadScript

; 134  : 		{
; 135  : 			// 	DST_STR
; 136  : 			int	nKind	= 0;
; 137  : 			s.GetToken();	// {

  000ab	50		 push	 eax
  000ac	8d 8d 88 e1 ff
	ff		 lea	 ecx, DWORD PTR _s$[ebp]
  000b2	e8 00 00 00 00	 call	 ?GetToken@CScript@@UAEHH@Z ; CScript::GetToken

; 138  : 			DWORD dwDstParam	= s.GetNumber();

  000b7	6a 00		 push	 0
  000b9	8d 8d 88 e1 ff
	ff		 lea	 ecx, DWORD PTR _s$[ebp]
  000bf	e8 00 00 00 00	 call	 ?GetNumber@CScanner@@QAEHH@Z ; CScanner::GetNumber
  000c4	8b c8		 mov	 ecx, eax

; 139  : 			while( *s.token != '}' )

  000c6	8b 85 c4 e1 ff
	ff		 mov	 eax, DWORD PTR _s$[ebp+60]
  000cc	80 38 7d	 cmp	 BYTE PTR [eax], 125	; 0000007dH
  000cf	0f 84 79 04 00
	00		 je	 $LN23@LoadScript

; 134  : 		{
; 135  : 			// 	DST_STR
; 136  : 			int	nKind	= 0;
; 137  : 			s.GetToken();	// {

  000d5	83 c3 08	 add	 ebx, 8
  000d8	0f 1f 84 00 00
	00 00 00	 npad	 8
$LL4@LoadScript:

; 140  : 			{
; 141  : 				ASSERT( nKind < PK_MAX );
; 142  : 				m_aPetAvailParam[nKind].dwDstParam	= dwDstParam;

  000e0	89 4b fc	 mov	 DWORD PTR [ebx-4], ecx
  000e3	8b f3		 mov	 esi, ebx
  000e5	bf 09 00 00 00	 mov	 edi, 9
  000ea	66 0f 1f 44 00
	00		 npad	 6
$LL8@LoadScript:

; 143  : 				for( int i = 0; i < MAX_PET_AVAIL_LEVEL; i++ )
; 144  : 					m_aPetAvailParam[nKind].m_anParam[i]	= s.GetNumber();

  000f0	6a 00		 push	 0
  000f2	8d 8d 88 e1 ff
	ff		 lea	 ecx, DWORD PTR _s$[ebp]
  000f8	e8 00 00 00 00	 call	 ?GetNumber@CScanner@@QAEHH@Z ; CScanner::GetNumber
  000fd	89 06		 mov	 DWORD PTR [esi], eax
  000ff	8d 76 04	 lea	 esi, DWORD PTR [esi+4]
  00102	83 ef 01	 sub	 edi, 1
  00105	75 e9		 jne	 SHORT $LL8@LoadScript

; 145  : 				m_aPetAvailParam[nKind].m_dwItemId	= s.GetNumber();

  00107	57		 push	 edi
  00108	8d 8d 88 e1 ff
	ff		 lea	 ecx, DWORD PTR _s$[ebp]
  0010e	e8 00 00 00 00	 call	 ?GetNumber@CScanner@@QAEHH@Z ; CScanner::GetNumber

; 146  : 				m_aPetAvailParam[nKind].m_adwIndex[0]	= s.GetNumber();

  00113	57		 push	 edi
  00114	8d 8d 88 e1 ff
	ff		 lea	 ecx, DWORD PTR _s$[ebp]
  0011a	89 43 24	 mov	 DWORD PTR [ebx+36], eax
  0011d	e8 00 00 00 00	 call	 ?GetNumber@CScanner@@QAEHH@Z ; CScanner::GetNumber

; 147  : 				m_aPetAvailParam[nKind].m_adwIndex[1]	= s.GetNumber();

  00122	57		 push	 edi
  00123	8d 8d 88 e1 ff
	ff		 lea	 ecx, DWORD PTR _s$[ebp]
  00129	89 43 28	 mov	 DWORD PTR [ebx+40], eax
  0012c	e8 00 00 00 00	 call	 ?GetNumber@CScanner@@QAEHH@Z ; CScanner::GetNumber

; 148  : 				m_aPetAvailParam[nKind].m_adwIndex[2]	= s.GetNumber();

  00131	57		 push	 edi
  00132	8d 8d 88 e1 ff
	ff		 lea	 ecx, DWORD PTR _s$[ebp]
  00138	89 43 2c	 mov	 DWORD PTR [ebx+44], eax
  0013b	e8 00 00 00 00	 call	 ?GetNumber@CScanner@@QAEHH@Z ; CScanner::GetNumber

; 149  : 				m_aPetAvailParam[nKind++].m_dwProbability	= s.GetNumber();

  00140	57		 push	 edi
  00141	8d 8d 88 e1 ff
	ff		 lea	 ecx, DWORD PTR _s$[ebp]
  00147	89 43 30	 mov	 DWORD PTR [ebx+48], eax
  0014a	e8 00 00 00 00	 call	 ?GetNumber@CScanner@@QAEHH@Z ; CScanner::GetNumber
  0014f	89 43 34	 mov	 DWORD PTR [ebx+52], eax

; 150  : 				dwDstParam	= s.GetNumber();

  00152	8d 8d 88 e1 ff
	ff		 lea	 ecx, DWORD PTR _s$[ebp]
  00158	57		 push	 edi
  00159	83 c3 3c	 add	 ebx, 60			; 0000003cH
  0015c	e8 00 00 00 00	 call	 ?GetNumber@CScanner@@QAEHH@Z ; CScanner::GetNumber
  00161	8b c8		 mov	 ecx, eax
  00163	8b 85 c4 e1 ff
	ff		 mov	 eax, DWORD PTR _s$[ebp+60]
  00169	80 38 7d	 cmp	 BYTE PTR [eax], 125	; 0000007dH
  0016c	0f 85 6e ff ff
	ff		 jne	 $LL4@LoadScript
  00172	8b 9d 80 e1 ff
	ff		 mov	 ebx, DWORD PTR _this$GSCopy$1$[ebp]
  00178	e9 d1 03 00 00	 jmp	 $LN23@LoadScript
$LN64@LoadScript:
; File C:\Program Files\Microsoft Visual Studio\2022\Professional\VC\Tools\MSVC\14.44.35207\atlmfc\include\cstringt.h

; 184  : 		return _mbscmp( reinterpret_cast< const unsigned char* >( pszA ), reinterpret_cast< const unsigned char* >( pszB ) );

  0017d	68 00 00 00 00	 push	 OFFSET ??_C@_0N@ELNJGIBK@LevelupAvail@
  00182	ff b5 a8 e1 ff
	ff		 push	 DWORD PTR _s$[ebp+32]
  00188	e8 00 00 00 00	 call	 __mbscmp
  0018d	83 c4 08	 add	 esp, 8

; 2490 : 		return(str1.Compare(psz2) == 0);

  00190	85 c0		 test	 eax, eax
; File C:\IAGOS\server\v18\Source\Source\_Common\pet.cpp

; 153  : 		else if( s.Token == _T( "LevelupAvail" ) )

  00192	0f 85 9b 00 00
	00		 jne	 $LN80@LoadScript

; 154  : 		{
; 155  : 			// 	10000	0	0	0	0	0	0	0	0
; 156  : 			int	nLevel	= (int)PL_D;
; 157  : 			s.GetToken();	// {{

  00198	50		 push	 eax
  00199	8d 8d 88 e1 ff
	ff		 lea	 ecx, DWORD PTR _s$[ebp]
  0019f	e8 00 00 00 00	 call	 ?GetToken@CScript@@UAEHH@Z ; CScript::GetToken

; 158  : 			DWORD	dwProbability	= s.GetNumber();

  001a4	6a 00		 push	 0
  001a6	8d 8d 88 e1 ff
	ff		 lea	 ecx, DWORD PTR _s$[ebp]
  001ac	e8 00 00 00 00	 call	 ?GetNumber@CScanner@@QAEHH@Z ; CScanner::GetNumber
  001b1	8b c8		 mov	 ecx, eax

; 159  : 			while( *s.token != '}' )

  001b3	8b 85 c4 e1 ff
	ff		 mov	 eax, DWORD PTR _s$[ebp+60]
  001b9	80 38 7d	 cmp	 BYTE PTR [eax], 125	; 0000007dH
  001bc	0f 84 8c 03 00
	00		 je	 $LN23@LoadScript

; 154  : 		{
; 155  : 			// 	10000	0	0	0	0	0	0	0	0
; 156  : 			int	nLevel	= (int)PL_D;
; 157  : 			s.GetToken();	// {{

  001c2	8d b3 d8 01 00
	00		 lea	 esi, DWORD PTR [ebx+472]
  001c8	8d bb a9 01 00
	00		 lea	 edi, DWORD PTR [ebx+425]
  001ce	89 b5 84 e1 ff
	ff		 mov	 DWORD PTR tv1336[ebp], esi
$LL9@LoadScript:

; 160  : 			{
; 161  : 				m_adwLevelupAvailLevelProbability[nLevel][0]	= dwProbability;

  001d4	89 4e fc	 mov	 DWORD PTR [esi-4], ecx
  001d7	bb 01 00 00 00	 mov	 ebx, 1
  001dc	0f 1f 40 00	 npad	 4
$LL13@LoadScript:

; 163  : 				{
; 164  : 					m_adwLevelupAvailLevelProbability[nLevel][i]	= s.GetNumber();

  001e0	6a 00		 push	 0
  001e2	8d 8d 88 e1 ff
	ff		 lea	 ecx, DWORD PTR _s$[ebp]
  001e8	e8 00 00 00 00	 call	 ?GetNumber@CScanner@@QAEHH@Z ; CScanner::GetNumber
  001ed	89 06		 mov	 DWORD PTR [esi], eax

; 165  : 					if( m_adwLevelupAvailLevelProbability[nLevel][i] > 0 )

  001ef	85 c0		 test	 eax, eax
  001f1	74 02		 je	 SHORT $LN11@LoadScript

; 166  : 						m_anLevelupAvailLevelMax[nLevel]	= i;

  001f3	88 1f		 mov	 BYTE PTR [edi], bl
$LN11@LoadScript:

; 162  : 				for( int i = 1; i < MAX_PET_AVAIL_LEVEL; i++ )

  001f5	43		 inc	 ebx
  001f6	83 c6 04	 add	 esi, 4
  001f9	83 fb 09	 cmp	 ebx, 9
  001fc	7c e2		 jl	 SHORT $LL13@LoadScript

; 167  : 				}
; 168  : 				nLevel++;

  001fe	8b b5 84 e1 ff
	ff		 mov	 esi, DWORD PTR tv1336[ebp]

; 169  : 				dwProbability	= s.GetNumber();

  00204	8d 8d 88 e1 ff
	ff		 lea	 ecx, DWORD PTR _s$[ebp]
  0020a	83 c6 24	 add	 esi, 36			; 00000024H
  0020d	47		 inc	 edi
  0020e	6a 00		 push	 0
  00210	89 b5 84 e1 ff
	ff		 mov	 DWORD PTR tv1336[ebp], esi
  00216	e8 00 00 00 00	 call	 ?GetNumber@CScanner@@QAEHH@Z ; CScanner::GetNumber
  0021b	8b c8		 mov	 ecx, eax
  0021d	8b 85 c4 e1 ff
	ff		 mov	 eax, DWORD PTR _s$[ebp+60]
  00223	80 38 7d	 cmp	 BYTE PTR [eax], 125	; 0000007dH
  00226	75 ac		 jne	 SHORT $LL9@LoadScript
  00228	8b 9d 80 e1 ff
	ff		 mov	 ebx, DWORD PTR _this$GSCopy$1$[ebp]
  0022e	e9 1b 03 00 00	 jmp	 $LN23@LoadScript
$LN80@LoadScript:
; File C:\Program Files\Microsoft Visual Studio\2022\Professional\VC\Tools\MSVC\14.44.35207\atlmfc\include\cstringt.h

; 184  : 		return _mbscmp( reinterpret_cast< const unsigned char* >( pszA ), reinterpret_cast< const unsigned char* >( pszB ) );

  00233	68 00 00 00 00	 push	 OFFSET ??_C@_0L@NIFCIDOF@FeedEnergy@
  00238	ff b5 a8 e1 ff
	ff		 push	 DWORD PTR _s$[ebp+32]
  0023e	e8 00 00 00 00	 call	 __mbscmp
  00243	83 c4 08	 add	 esp, 8

; 2490 : 		return(str1.Compare(psz2) == 0);

  00246	85 c0		 test	 eax, eax
; File C:\IAGOS\server\v18\Source\Source\_Common\pet.cpp

; 172  : 		else if( s.Token == _T( "FeedEnergy" ) )

  00248	0f 85 fa 00 00
	00		 jne	 $LN106@LoadScript

; 173  : 		{
; 174  : 			int nIndex	= s.GetNumber();

  0024e	50		 push	 eax
  0024f	8d 8d 88 e1 ff
	ff		 lea	 ecx, DWORD PTR _s$[ebp]
  00255	e8 00 00 00 00	 call	 ?GetNumber@CScanner@@QAEHH@Z ; CScanner::GetNumber

; 175  : 			ASSERT( nIndex >= 0 && nIndex <= 1 );
; 176  : 
; 177  : 			vector<FEEDENERGY>* pArr	= &m_aFeedEnergy[nIndex];

  0025a	83 c0 36	 add	 eax, 54			; 00000036H

; 178  : 			// 	1	575	7	14
; 179  : 			FEEDENERGY	fe;
; 180  : 			s.GetToken();	// {

  0025d	8d 8d 88 e1 ff
	ff		 lea	 ecx, DWORD PTR _s$[ebp]
  00263	6a 00		 push	 0
  00265	8d 04 40	 lea	 eax, DWORD PTR [eax+eax*2]
  00268	8d 34 83	 lea	 esi, DWORD PTR [ebx+eax*4]
  0026b	e8 00 00 00 00	 call	 ?GetToken@CScript@@UAEHH@Z ; CScript::GetToken

; 181  : 			fe.dwCostMin	= s.GetNumber();

  00270	6a 00		 push	 0
  00272	8d 8d 88 e1 ff
	ff		 lea	 ecx, DWORD PTR _s$[ebp]
  00278	e8 00 00 00 00	 call	 ?GetNumber@CScanner@@QAEHH@Z ; CScanner::GetNumber
  0027d	8b f8		 mov	 edi, eax

; 182  : 			while( *s.token != '}' )

  0027f	8b 85 c4 e1 ff
	ff		 mov	 eax, DWORD PTR _s$[ebp+60]
  00285	89 bd 74 e1 ff
	ff		 mov	 DWORD PTR _fe$2[ebp], edi
  0028b	80 38 7d	 cmp	 BYTE PTR [eax], 125	; 0000007dH
  0028e	0f 84 ba 02 00
	00		 je	 $LN23@LoadScript
  00294	0f 1f 40 00 0f
	1f 84 00 00 00
	00 00		 npad	 12
$LL14@LoadScript:

; 183  : 			{
; 184  : 				fe.dwCostMax	= s.GetNumber();

  002a0	6a 00		 push	 0
  002a2	8d 8d 88 e1 ff
	ff		 lea	 ecx, DWORD PTR _s$[ebp]
  002a8	e8 00 00 00 00	 call	 ?GetNumber@CScanner@@QAEHH@Z ; CScanner::GetNumber
  002ad	8b d8		 mov	 ebx, eax

; 185  : 				fe.wEnergyMin	= s.GetNumber();

  002af	8d 8d 88 e1 ff
	ff		 lea	 ecx, DWORD PTR _s$[ebp]
  002b5	6a 00		 push	 0
  002b7	89 9d 78 e1 ff
	ff		 mov	 DWORD PTR _fe$2[ebp+4], ebx
  002bd	e8 00 00 00 00	 call	 ?GetNumber@CScanner@@QAEHH@Z ; CScanner::GetNumber
  002c2	0f b7 c0	 movzx	 eax, ax

; 186  : 				fe.wEnergyMax	= s.GetNumber();

  002c5	8d 8d 88 e1 ff
	ff		 lea	 ecx, DWORD PTR _s$[ebp]
  002cb	6a 00		 push	 0
  002cd	89 85 84 e1 ff
	ff		 mov	 DWORD PTR tv1330[ebp], eax
  002d3	66 89 85 7c e1
	ff ff		 mov	 WORD PTR _fe$2[ebp+8], ax
  002da	e8 00 00 00 00	 call	 ?GetNumber@CScanner@@QAEHH@Z ; CScanner::GetNumber
  002df	0f b7 d0	 movzx	 edx, ax
; File C:\Program Files\Microsoft Visual Studio\2022\Professional\VC\Tools\MSVC\14.44.35207\include\vector

; 844  :         if (_Mylast != _My_data._Myend) {

  002e2	8b 46 04	 mov	 eax, DWORD PTR [esi+4]
; File C:\IAGOS\server\v18\Source\Source\_Common\pet.cpp

; 186  : 				fe.wEnergyMax	= s.GetNumber();

  002e5	66 89 95 7e e1
	ff ff		 mov	 WORD PTR _fe$2[ebp+10], dx
; File C:\Program Files\Microsoft Visual Studio\2022\Professional\VC\Tools\MSVC\14.44.35207\include\vector

; 844  :         if (_Mylast != _My_data._Myend) {

  002ec	3b 46 08	 cmp	 eax, DWORD PTR [esi+8]
  002ef	74 19		 je	 SHORT $LN94@LoadScript
; File C:\Program Files\Microsoft Visual Studio\2022\Professional\VC\Tools\MSVC\14.44.35207\include\xutility

; 476  :         ::new (static_cast<void*>(_STD addressof(_Obj))) _Ty(_STD forward<_Types>(_Args)...);

  002f1	89 38		 mov	 DWORD PTR [eax], edi
  002f3	89 58 04	 mov	 DWORD PTR [eax+4], ebx
  002f6	8b 8d 84 e1 ff
	ff		 mov	 ecx, DWORD PTR tv1330[ebp]
  002fc	66 89 48 08	 mov	 WORD PTR [eax+8], cx
  00300	66 89 50 0a	 mov	 WORD PTR [eax+10], dx
; File C:\Program Files\Microsoft Visual Studio\2022\Professional\VC\Tools\MSVC\14.44.35207\include\vector

; 869  :         ++_Mylast;

  00304	83 46 04 0c	 add	 DWORD PTR [esi+4], 12	; 0000000cH

; 845  :             return _Emplace_back_with_unused_capacity(_STD forward<_Valty>(_Val)...);

  00308	eb 0f		 jmp	 SHORT $LN93@LoadScript
$LN94@LoadScript:

; 846  :         }
; 847  : 
; 848  :         return *_Emplace_reallocate(_Mylast, _STD forward<_Valty>(_Val)...);

  0030a	8d 8d 74 e1 ff
	ff		 lea	 ecx, DWORD PTR _fe$2[ebp]
  00310	51		 push	 ecx
  00311	50		 push	 eax
  00312	8b ce		 mov	 ecx, esi
  00314	e8 00 00 00 00	 call	 ??$_Emplace_reallocate@ABU_FEEDENERGY@@@?$vector@U_FEEDENERGY@@V?$allocator@U_FEEDENERGY@@@std@@@std@@AAEPAU_FEEDENERGY@@QAU2@ABU2@@Z ; std::vector<_FEEDENERGY,std::allocator<_FEEDENERGY> >::_Emplace_reallocate<_FEEDENERGY const &>
$LN93@LoadScript:
; File C:\IAGOS\server\v18\Source\Source\_Common\pet.cpp

; 188  : 				fe.dwCostMin	= s.GetNumber();

  00319	6a 00		 push	 0
  0031b	8d 8d 88 e1 ff
	ff		 lea	 ecx, DWORD PTR _s$[ebp]
  00321	e8 00 00 00 00	 call	 ?GetNumber@CScanner@@QAEHH@Z ; CScanner::GetNumber
  00326	8b f8		 mov	 edi, eax
  00328	8b 85 c4 e1 ff
	ff		 mov	 eax, DWORD PTR _s$[ebp+60]
  0032e	89 bd 74 e1 ff
	ff		 mov	 DWORD PTR _fe$2[ebp], edi
  00334	80 38 7d	 cmp	 BYTE PTR [eax], 125	; 0000007dH
  00337	0f 85 63 ff ff
	ff		 jne	 $LL14@LoadScript

; 189  : 			}
; 190  : 		}

  0033d	8b 9d 80 e1 ff
	ff		 mov	 ebx, DWORD PTR _this$GSCopy$1$[ebp]
  00343	e9 06 02 00 00	 jmp	 $LN23@LoadScript
$LN106@LoadScript:
; File C:\Program Files\Microsoft Visual Studio\2022\Professional\VC\Tools\MSVC\14.44.35207\atlmfc\include\cstringt.h

; 184  : 		return _mbscmp( reinterpret_cast< const unsigned char* >( pszA ), reinterpret_cast< const unsigned char* >( pszB ) );

  00348	68 00 00 00 00	 push	 OFFSET ??_C@_0N@FDFFOKED@IncrementExp@
  0034d	ff b5 a8 e1 ff
	ff		 push	 DWORD PTR _s$[ebp+32]
  00353	e8 00 00 00 00	 call	 __mbscmp
  00358	83 c4 08	 add	 esp, 8

; 2490 : 		return(str1.Compare(psz2) == 0);

  0035b	85 c0		 test	 eax, eax
; File C:\IAGOS\server\v18\Source\Source\_Common\pet.cpp

; 191  : 		else if( s.Token == _T( "IncrementExp" ) )

  0035d	75 55		 jne	 SHORT $LN122@LoadScript

; 192  : 		{
; 193  : 			//	100	// 0.1%	// 100000şĐŔÇ 1 ±âÁŘ
; 194  : 			int	nLevel	= 0;
; 195  : 			s.GetToken();	// {

  0035f	50		 push	 eax
  00360	8d 8d 88 e1 ff
	ff		 lea	 ecx, DWORD PTR _s$[ebp]
  00366	e8 00 00 00 00	 call	 ?GetToken@CScript@@UAEHH@Z ; CScript::GetToken

; 196  : 			DWORD	dwIncrementExp	= s.GetNumber();

  0036b	6a 00		 push	 0
  0036d	8d 8d 88 e1 ff
	ff		 lea	 ecx, DWORD PTR _s$[ebp]
  00373	e8 00 00 00 00	 call	 ?GetNumber@CScanner@@QAEHH@Z ; CScanner::GetNumber
  00378	8b c8		 mov	 ecx, eax

; 197  : 			while( *s.token != '}' )

  0037a	8b 85 c4 e1 ff
	ff		 mov	 eax, DWORD PTR _s$[ebp+60]
  00380	80 38 7d	 cmp	 BYTE PTR [eax], 125	; 0000007dH
  00383	0f 84 c5 01 00
	00		 je	 $LN23@LoadScript

; 192  : 		{
; 193  : 			//	100	// 0.1%	// 100000şĐŔÇ 1 ±âÁŘ
; 194  : 			int	nLevel	= 0;
; 195  : 			s.GetToken();	// {

  00389	8d b3 a0 02 00
	00		 lea	 esi, DWORD PTR [ebx+672]
  0038f	90		 npad	 1
$LL16@LoadScript:

; 198  : 			{
; 199  : 				ASSERT( nLevel < PL_S );
; 200  : 				m_adwIncrementExp[nLevel++]	= dwIncrementExp;

  00390	89 0e		 mov	 DWORD PTR [esi], ecx
  00392	8d 76 04	 lea	 esi, DWORD PTR [esi+4]

; 201  : 				dwIncrementExp	= s.GetNumber();

  00395	6a 00		 push	 0
  00397	8d 8d 88 e1 ff
	ff		 lea	 ecx, DWORD PTR _s$[ebp]
  0039d	e8 00 00 00 00	 call	 ?GetNumber@CScanner@@QAEHH@Z ; CScanner::GetNumber
  003a2	8b c8		 mov	 ecx, eax
  003a4	8b 85 c4 e1 ff
	ff		 mov	 eax, DWORD PTR _s$[ebp+60]
  003aa	80 38 7d	 cmp	 BYTE PTR [eax], 125	; 0000007dH
  003ad	75 e1		 jne	 SHORT $LL16@LoadScript

; 202  : 			}
; 203  : 		}

  003af	e9 9a 01 00 00	 jmp	 $LN23@LoadScript
$LN122@LoadScript:
; File C:\Program Files\Microsoft Visual Studio\2022\Professional\VC\Tools\MSVC\14.44.35207\atlmfc\include\cstringt.h

; 184  : 		return _mbscmp( reinterpret_cast< const unsigned char* >( pszA ), reinterpret_cast< const unsigned char* >( pszB ) );

  003b4	68 00 00 00 00	 push	 OFFSET ??_C@_09EENALPJP@MaxEnergy@
  003b9	ff b5 a8 e1 ff
	ff		 push	 DWORD PTR _s$[ebp+32]
  003bf	e8 00 00 00 00	 call	 __mbscmp
  003c4	83 c4 08	 add	 esp, 8

; 2490 : 		return(str1.Compare(psz2) == 0);

  003c7	85 c0		 test	 eax, eax
; File C:\IAGOS\server\v18\Source\Source\_Common\pet.cpp

; 204  : 		else if( s.Token == _T( "MaxEnergy" ) )

  003c9	75 5a		 jne	 SHORT $LN138@LoadScript

; 205  : 		{
; 206  : 			//	250	// D	// ĂÖ´ë ±â·Â
; 207  : 			int	nLevel	= 0;
; 208  : 			s.GetToken();	// {

  003cb	50		 push	 eax
  003cc	8d 8d 88 e1 ff
	ff		 lea	 ecx, DWORD PTR _s$[ebp]
  003d2	e8 00 00 00 00	 call	 ?GetToken@CScript@@UAEHH@Z ; CScript::GetToken

; 209  : 			DWORD	dwMaxEnergy	= s.GetNumber();

  003d7	6a 00		 push	 0
  003d9	8d 8d 88 e1 ff
	ff		 lea	 ecx, DWORD PTR _s$[ebp]
  003df	e8 00 00 00 00	 call	 ?GetNumber@CScanner@@QAEHH@Z ; CScanner::GetNumber
  003e4	8b c8		 mov	 ecx, eax

; 210  : 			while( *s.token != '}' )

  003e6	8b 85 c4 e1 ff
	ff		 mov	 eax, DWORD PTR _s$[ebp+60]
  003ec	80 38 7d	 cmp	 BYTE PTR [eax], 125	; 0000007dH
  003ef	0f 84 59 01 00
	00		 je	 $LN23@LoadScript

; 205  : 		{
; 206  : 			//	250	// D	// ĂÖ´ë ±â·Â
; 207  : 			int	nLevel	= 0;
; 208  : 			s.GetToken();	// {

  003f5	8d b3 b8 02 00
	00		 lea	 esi, DWORD PTR [ebx+696]
  003fb	0f 1f 44 00 00	 npad	 5
$LL18@LoadScript:

; 211  : 			{
; 212  : 				ASSERT( nLevel <= PL_S );
; 213  : 				m_awMaxEnergy[nLevel++]	= (WORD)( dwMaxEnergy );

  00400	66 89 0e	 mov	 WORD PTR [esi], cx
  00403	8d 76 02	 lea	 esi, DWORD PTR [esi+2]

; 214  : 				dwMaxEnergy		= s.GetNumber();

  00406	6a 00		 push	 0
  00408	8d 8d 88 e1 ff
	ff		 lea	 ecx, DWORD PTR _s$[ebp]
  0040e	e8 00 00 00 00	 call	 ?GetNumber@CScanner@@QAEHH@Z ; CScanner::GetNumber
  00413	8b c8		 mov	 ecx, eax
  00415	8b 85 c4 e1 ff
	ff		 mov	 eax, DWORD PTR _s$[ebp+60]
  0041b	80 38 7d	 cmp	 BYTE PTR [eax], 125	; 0000007dH
  0041e	75 e0		 jne	 SHORT $LL18@LoadScript

; 215  : 			}
; 216  : 		}

  00420	e9 29 01 00 00	 jmp	 $LN23@LoadScript
$LN138@LoadScript:
; File C:\Program Files\Microsoft Visual Studio\2022\Professional\VC\Tools\MSVC\14.44.35207\atlmfc\include\cstringt.h

; 184  : 		return _mbscmp( reinterpret_cast< const unsigned char* >( pszA ), reinterpret_cast< const unsigned char* >( pszB ) );

  00425	68 00 00 00 00	 push	 OFFSET ??_C@_0BD@NJHGCLHH@AddLifeProbability@
  0042a	ff b5 a8 e1 ff
	ff		 push	 DWORD PTR _s$[ebp+32]
  00430	e8 00 00 00 00	 call	 __mbscmp
  00435	83 c4 08	 add	 esp, 8

; 2490 : 		return(str1.Compare(psz2) == 0);

  00438	85 c0		 test	 eax, eax
; File C:\IAGOS\server\v18\Source\Source\_Common\pet.cpp

; 217  : 		else if( s.Token == _T( "AddLifeProbability" ) )

  0043a	0f 85 84 00 00
	00		 jne	 $LN161@LoadScript

; 218  : 		{
; 219  : 			// Ľö¸í Č¸şąľ× Č®·ü	// Ăß°ˇ µÉ °ćżě ÇŐŔĚ 100ŔĚ µÇµµ·Ď Č®Ŕĺ
; 220  : 			// 	50	// +1
; 221  : 			s.GetToken();	// {

  00440	50		 push	 eax
  00441	8d 8d 88 e1 ff
	ff		 lea	 ecx, DWORD PTR _s$[ebp]
  00447	e8 00 00 00 00	 call	 ?GetToken@CScript@@UAEHH@Z ; CScript::GetToken

; 222  : 			WORD wProbability	= s.GetNumber();

  0044c	6a 00		 push	 0
  0044e	8d 8d 88 e1 ff
	ff		 lea	 ecx, DWORD PTR _s$[ebp]
  00454	e8 00 00 00 00	 call	 ?GetNumber@CScanner@@QAEHH@Z ; CScanner::GetNumber
  00459	0f b7 c8	 movzx	 ecx, ax

; 223  : 			while( *s.token != '}' )

  0045c	8b 85 c4 e1 ff
	ff		 mov	 eax, DWORD PTR _s$[ebp+60]
  00462	89 8d 84 e1 ff
	ff		 mov	 DWORD PTR _wProbability$4[ebp], ecx
  00468	80 38 7d	 cmp	 BYTE PTR [eax], 125	; 0000007dH
  0046b	0f 84 dd 00 00
	00		 je	 $LN23@LoadScript
$LL20@LoadScript:
; File C:\Program Files\Microsoft Visual Studio\2022\Professional\VC\Tools\MSVC\14.44.35207\include\vector

; 844  :         if (_Mylast != _My_data._Myend) {

  00471	8b 83 c8 02 00
	00		 mov	 eax, DWORD PTR [ebx+712]
  00477	3b 83 cc 02 00
	00		 cmp	 eax, DWORD PTR [ebx+716]
  0047d	74 0c		 je	 SHORT $LN152@LoadScript

; 860  :             _STD _Construct_in_place(*_Mylast, _STD forward<_Valty>(_Val)...);

  0047f	66 89 08	 mov	 WORD PTR [eax], cx

; 869  :         ++_Mylast;

  00482	83 83 c8 02 00
	00 02		 add	 DWORD PTR [ebx+712], 2

; 845  :             return _Emplace_back_with_unused_capacity(_STD forward<_Valty>(_Val)...);

  00489	eb 13		 jmp	 SHORT $LN151@LoadScript
$LN152@LoadScript:

; 846  :         }
; 847  : 
; 848  :         return *_Emplace_reallocate(_Mylast, _STD forward<_Valty>(_Val)...);

  0048b	8d 8d 84 e1 ff
	ff		 lea	 ecx, DWORD PTR _wProbability$4[ebp]
  00491	51		 push	 ecx
  00492	50		 push	 eax
  00493	8d 8b c4 02 00
	00		 lea	 ecx, DWORD PTR [ebx+708]
  00499	e8 00 00 00 00	 call	 ??$_Emplace_reallocate@ABG@?$vector@GV?$allocator@G@std@@@std@@AAEPAGQAGABG@Z ; std::vector<unsigned short,std::allocator<unsigned short> >::_Emplace_reallocate<unsigned short const &>
$LN151@LoadScript:
; File C:\IAGOS\server\v18\Source\Source\_Common\pet.cpp

; 226  : 				wProbability	= s.GetNumber();

  0049e	6a 00		 push	 0
  004a0	8d 8d 88 e1 ff
	ff		 lea	 ecx, DWORD PTR _s$[ebp]
  004a6	e8 00 00 00 00	 call	 ?GetNumber@CScanner@@QAEHH@Z ; CScanner::GetNumber
  004ab	0f b7 c8	 movzx	 ecx, ax
  004ae	8b 85 c4 e1 ff
	ff		 mov	 eax, DWORD PTR _s$[ebp+60]
  004b4	89 8d 84 e1 ff
	ff		 mov	 DWORD PTR _wProbability$4[ebp], ecx
  004ba	80 38 7d	 cmp	 BYTE PTR [eax], 125	; 0000007dH
  004bd	75 b2		 jne	 SHORT $LL20@LoadScript

; 227  : 			}
; 228  : 		}

  004bf	e9 8a 00 00 00	 jmp	 $LN23@LoadScript
$LN161@LoadScript:
; File C:\Program Files\Microsoft Visual Studio\2022\Professional\VC\Tools\MSVC\14.44.35207\atlmfc\include\cstringt.h

; 184  : 		return _mbscmp( reinterpret_cast< const unsigned char* >( pszA ), reinterpret_cast< const unsigned char* >( pszB ) );

  004c4	68 00 00 00 00	 push	 OFFSET ??_C@_07FMCMMKEN@Penalty@
  004c9	ff b5 a8 e1 ff
	ff		 push	 DWORD PTR _s$[ebp+32]
  004cf	e8 00 00 00 00	 call	 __mbscmp
  004d4	83 c4 08	 add	 esp, 8

; 2490 : 		return(str1.Compare(psz2) == 0);

  004d7	85 c0		 test	 eax, eax
; File C:\IAGOS\server\v18\Source\Source\_Common\pet.cpp

; 229  : 		else if( s.Token == _T( "Penalty" ) )

  004d9	75 73		 jne	 SHORT $LN23@LoadScript

; 230  : 		{
; 231  : 			// Pet ĽŇČŻ ČÄ ÇŘÁ¦ ˝Ă D~A·ąş§żˇĽ± °ćÇčÄˇ¸¦ ŔŇ°Ô µÇ¸ç,
; 232  : 			// ĂÖĽŇ 0%żˇĽ­´Â ´ő ŔĚ»ó °¨ĽŇÇĎÁö ľĘ´Â´Ů. 
; 233  : 			// S·ąş§żˇĽ± HP°ˇ °¨ĽŇÇĎ¸ç, ĂÖĽŇ 5P ŔĚÇĎ·Î´Â ´ő ŔĚ»ó °¨ĽŇÇĎÁö ľĘ´Â´Ů. 
; 234  : 			s.GetToken();	// {

  004db	50		 push	 eax
  004dc	8d 8d 88 e1 ff
	ff		 lea	 ecx, DWORD PTR _s$[ebp]
  004e2	e8 00 00 00 00	 call	 ?GetToken@CScript@@UAEHH@Z ; CScript::GetToken

; 235  : 			FLOAT fExp	= s.GetFloat();

  004e7	6a 00		 push	 0
  004e9	8d 8d 88 e1 ff
	ff		 lea	 ecx, DWORD PTR _s$[ebp]
  004ef	e8 00 00 00 00	 call	 ?GetFloat@CScanner@@QAEMH@Z ; CScanner::GetFloat

; 236  : 			int nLevel	= PL_D;
; 237  : 			while( *s.token != '}' )

  004f4	8b 85 c4 e1 ff
	ff		 mov	 eax, DWORD PTR _s$[ebp+60]
  004fa	d9 9d 84 e1 ff
	ff		 fstp	 DWORD PTR _fExp$3[ebp]
  00500	80 38 7d	 cmp	 BYTE PTR [eax], 125	; 0000007dH
  00503	74 49		 je	 SHORT $LN23@LoadScript

; 230  : 		{
; 231  : 			// Pet ĽŇČŻ ČÄ ÇŘÁ¦ ˝Ă D~A·ąş§żˇĽ± °ćÇčÄˇ¸¦ ŔŇ°Ô µÇ¸ç,
; 232  : 			// ĂÖĽŇ 0%żˇĽ­´Â ´ő ŔĚ»ó °¨ĽŇÇĎÁö ľĘ´Â´Ů. 
; 233  : 			// S·ąş§żˇĽ± HP°ˇ °¨ĽŇÇĎ¸ç, ĂÖĽŇ 5P ŔĚÇĎ·Î´Â ´ő ŔĚ»ó °¨ĽŇÇĎÁö ľĘ´Â´Ů. 
; 234  : 			s.GetToken();	// {

  00505	8d b3 dc 02 00
	00		 lea	 esi, DWORD PTR [ebx+732]
  0050b	0f 1f 44 00 00	 npad	 5
$LL22@LoadScript:

; 238  : 			{
; 239  : 				m_aPenalty[nLevel].fExp		= fExp;

  00510	f3 0f 10 85 84
	e1 ff ff	 movss	 xmm0, DWORD PTR _fExp$3[ebp]

; 240  : 				m_aPenalty[nLevel].wEnergy	= (WORD)s.GetNumber();

  00518	8d 8d 88 e1 ff
	ff		 lea	 ecx, DWORD PTR _s$[ebp]
  0051e	6a 00		 push	 0
  00520	f3 0f 11 46 fc	 movss	 DWORD PTR [esi-4], xmm0
  00525	e8 00 00 00 00	 call	 ?GetNumber@CScanner@@QAEHH@Z ; CScanner::GetNumber
  0052a	66 89 06	 mov	 WORD PTR [esi], ax

; 241  : 				nLevel++;
; 242  : 				fExp	= s.GetFloat();

  0052d	8d 8d 88 e1 ff
	ff		 lea	 ecx, DWORD PTR _s$[ebp]
  00533	6a 00		 push	 0
  00535	8d 76 08	 lea	 esi, DWORD PTR [esi+8]
  00538	e8 00 00 00 00	 call	 ?GetFloat@CScanner@@QAEMH@Z ; CScanner::GetFloat
  0053d	8b 85 c4 e1 ff
	ff		 mov	 eax, DWORD PTR _s$[ebp+60]
  00543	d9 9d 84 e1 ff
	ff		 fstp	 DWORD PTR _fExp$3[ebp]
  00549	80 38 7d	 cmp	 BYTE PTR [eax], 125	; 0000007dH
  0054c	75 c2		 jne	 SHORT $LL22@LoadScript
$LN23@LoadScript:

; 243  : 			}
; 244  : 		}
; 245  : 		s.GetToken();

  0054e	6a 00		 push	 0
  00550	8d 8d 88 e1 ff
	ff		 lea	 ecx, DWORD PTR _s$[ebp]
  00556	e8 00 00 00 00	 call	 ?GetToken@CScript@@UAEHH@Z ; CScript::GetToken
  0055b	83 bd cc e9 ff
	ff 15		 cmp	 DWORD PTR _s$[ebp+2116], 21 ; 00000015H
  00562	0f 85 28 fb ff
	ff		 jne	 $LL2@LoadScript
$LN3@LoadScript:

; 246  : 	}
; 247  : 
; 248  : /*
; 249  : #ifdef _DEBUG
; 250  : 	TRACE( "GetAvailParam\n" );
; 251  : 	for( int i = 0; i < PK_MAX; i++ )
; 252  : 	{
; 253  : 		PPETAVAILPARAM pPetAvailParam	= GetAvailParam( i );
; 254  : 		TRACE( "dwDstParam=%d, nBase=%d, nParam=%d\n", pPetAvailParam->dwDstParam, pPetAvailParam->nBase, pPetAvailParam->nParam );
; 255  : 	}
; 256  : 	TRACE( "GetLevelupAvailLevel\n" );
; 257  : 	// 0Ŕş ¸đµÎ 0ŔĚľîľß ÇŃ´Ů.
; 258  : 	for( i = PL_EGG; i < PL_MAX; i++ )
; 259  : 	{
; 260  : 		for( int j = 0; j < 100; j++ )
; 261  : 		{
; 262  : 			BYTE nAvailLevel	= GetLevelupAvailLevel( i );
; 263  : 			TRACE( "PetLevel=%d, AvailLevel=%d\n", i, nAvailLevel );
; 264  : 		}
; 265  : 	}
; 266  : 
; 267  : 	TRACE( "\nGetFeedEnergy\n" );
; 268  : 	for( i = 1; i <= 100; i++ )
; 269  : 	{
; 270  : 		DWORD dwCost	= i * 120;
; 271  : 		WORD wEnergy	= GetFeedEnergy( dwCost );
; 272  : 		TRACE( "dwCost=%d, wEnergy=%d\n", dwCost, wEnergy );
; 273  : 	}
; 274  : 	TRACE( "\nGetIncrementExp\n" );
; 275  : 	for( i = PL_D; i < PL_MAX; i++ )
; 276  : 		TRACE( "nLevel=%d, IncrementExp=%d\n", i, GetIncrementExp( (PETLEVEL)i ) );
; 277  : 
; 278  : 	TRACE( "\nGetMaxEnergy\n" );
; 279  : 	for( i = PL_D; i < PL_MAX; i++ )
; 280  : 		TRACE( "nLevel=%d, MaxEnergy=%d\n", i, GetMaxEnergy( (PETLEVEL)i ) );
; 281  : 
; 282  : 	TRACE( "\nGetAddLife\n" );
; 283  : 	for( i = 0; i < 100; i++ )
; 284  : 	{
; 285  : 		TRACE( "AddLife=%d\n", GetAddLife() );
; 286  : 	}
; 287  : #endif	// _DEBUG
; 288  : */
; 289  : 	return TRUE;

  00568	be 01 00 00 00	 mov	 esi, 1
$LN41@LoadScript:
  0056d	8d 8d 88 e1 ff
	ff		 lea	 ecx, DWORD PTR _s$[ebp]
  00573	e8 00 00 00 00	 call	 ??1CScript@@UAE@XZ	; CScript::~CScript
  00578	8b c6		 mov	 eax, esi

; 290  : }

  0057a	8b 4d f4	 mov	 ecx, DWORD PTR __$EHRec$[ebp]
  0057d	64 89 0d 00 00
	00 00		 mov	 DWORD PTR fs:0, ecx
  00584	59		 pop	 ecx
  00585	5f		 pop	 edi
  00586	5e		 pop	 esi
  00587	5b		 pop	 ebx
  00588	8b 4d f0	 mov	 ecx, DWORD PTR __$ArrayPad$[ebp]
  0058b	33 cd		 xor	 ecx, ebp
  0058d	e8 00 00 00 00	 call	 @__security_check_cookie@4
  00592	8b e5		 mov	 esp, ebp
  00594	5d		 pop	 ebp
  00595	c2 04 00	 ret	 4
_TEXT	ENDS
;	COMDAT text$x
text$x	SEGMENT
__unwindfunclet$?LoadScript@CPetProperty@@QAEHPBD@Z$0:
  00000	8d 8d 88 e1 ff
	ff		 lea	 ecx, DWORD PTR _s$[ebp]
  00006	e9 00 00 00 00	 jmp	 ??1CScript@@UAE@XZ	; CScript::~CScript
  0000b	cc		 int	 3
  0000c	cc		 int	 3
  0000d	cc		 int	 3
  0000e	cc		 int	 3
  0000f	cc		 int	 3
__ehhandler$?LoadScript@CPetProperty@@QAEHPBD@Z:
  00010	90		 npad	 1
  00011	90		 npad	 1
  00012	8b 54 24 08	 mov	 edx, DWORD PTR [esp+8]
  00016	8d 42 0c	 lea	 eax, DWORD PTR [edx+12]
  00019	8b 8a 70 e1 ff
	ff		 mov	 ecx, DWORD PTR [edx-7824]
  0001f	33 c8		 xor	 ecx, eax
  00021	e8 00 00 00 00	 call	 @__security_check_cookie@4
  00026	8b 4a fc	 mov	 ecx, DWORD PTR [edx-4]
  00029	33 c8		 xor	 ecx, eax
  0002b	e8 00 00 00 00	 call	 @__security_check_cookie@4
  00030	b8 00 00 00 00	 mov	 eax, OFFSET __ehfuncinfo$?LoadScript@CPetProperty@@QAEHPBD@Z
  00035	e9 00 00 00 00	 jmp	 ___CxxFrameHandler3
text$x	ENDS
?LoadScript@CPetProperty@@QAEHPBD@Z ENDP		; CPetProperty::LoadScript
; Function compile flags: /Ogtp
; File C:\IAGOS\server\v18\Source\Source\_Common\pet.cpp
;	COMDAT ?GetInstance@CPetProperty@@SAPAV1@XZ
_TEXT	SEGMENT
__$EHRec$ = -12						; size = 12
?GetInstance@CPetProperty@@SAPAV1@XZ PROC		; CPetProperty::GetInstance, COMDAT

; 119  : {

  00000	55		 push	 ebp
  00001	8b ec		 mov	 ebp, esp
  00003	6a ff		 push	 -1
  00005	68 00 00 00 00	 push	 __ehhandler$?GetInstance@CPetProperty@@SAPAV1@XZ
  0000a	64 a1 00 00 00
	00		 mov	 eax, DWORD PTR fs:0
  00010	50		 push	 eax
  00011	a1 00 00 00 00	 mov	 eax, DWORD PTR ___security_cookie
  00016	33 c5		 xor	 eax, ebp
  00018	50		 push	 eax
  00019	8d 45 f4	 lea	 eax, DWORD PTR __$EHRec$[ebp]
  0001c	64 a3 00 00 00
	00		 mov	 DWORD PTR fs:0, eax

; 120  : 	static	CPetProperty	sPetProperty;

  00022	64 a1 00 00 00
	00		 mov	 eax, DWORD PTR fs:__tls_array
  00028	8b 0d 00 00 00
	00		 mov	 ecx, DWORD PTR __tls_index
  0002e	8b 0c 88	 mov	 ecx, DWORD PTR [eax+ecx*4]
  00031	a1 00 00 00 00	 mov	 eax, DWORD PTR ?$TSS0@?1??GetInstance@CPetProperty@@SAPAV2@XZ@4HA
  00036	3b 81 00 00 00
	00		 cmp	 eax, DWORD PTR __Init_thread_epoch[ecx]
  0003c	7f 14		 jg	 SHORT $LN9@GetInstanc
$LN5@GetInstanc:

; 121  : 	return &sPetProperty;
; 122  : }

  0003e	b8 00 00 00 00	 mov	 eax, OFFSET ?sPetProperty@?1??GetInstance@CPetProperty@@SAPAV2@XZ@4V2@A
  00043	8b 4d f4	 mov	 ecx, DWORD PTR __$EHRec$[ebp]
  00046	64 89 0d 00 00
	00 00		 mov	 DWORD PTR fs:0, ecx
  0004d	59		 pop	 ecx
  0004e	8b e5		 mov	 esp, ebp
  00050	5d		 pop	 ebp
  00051	c3		 ret	 0
$LN9@GetInstanc:

; 120  : 	static	CPetProperty	sPetProperty;

  00052	68 00 00 00 00	 push	 OFFSET ?$TSS0@?1??GetInstance@CPetProperty@@SAPAV2@XZ@4HA
  00057	e8 00 00 00 00	 call	 __Init_thread_header
  0005c	83 c4 04	 add	 esp, 4
  0005f	83 3d 00 00 00
	00 ff		 cmp	 DWORD PTR ?$TSS0@?1??GetInstance@CPetProperty@@SAPAV2@XZ@4HA, -1
  00066	75 d6		 jne	 SHORT $LN5@GetInstanc
  00068	b9 00 00 00 00	 mov	 ecx, OFFSET ?sPetProperty@?1??GetInstance@CPetProperty@@SAPAV2@XZ@4V2@A
  0006d	c7 45 fc 00 00
	00 00		 mov	 DWORD PTR __$EHRec$[ebp+8], 0
  00074	e8 00 00 00 00	 call	 ??0CPetProperty@@QAE@XZ	; CPetProperty::CPetProperty
  00079	68 00 00 00 00	 push	 OFFSET ??__FsPetProperty@?1??GetInstance@CPetProperty@@SAPAV1@XZ@YAXXZ ; `CPetProperty::GetInstance'::`2'::`dynamic atexit destructor for 'sPetProperty''
  0007e	e8 00 00 00 00	 call	 _atexit
  00083	68 00 00 00 00	 push	 OFFSET ?$TSS0@?1??GetInstance@CPetProperty@@SAPAV2@XZ@4HA
  00088	e8 00 00 00 00	 call	 __Init_thread_footer
  0008d	83 c4 08	 add	 esp, 8
  00090	eb ac		 jmp	 SHORT $LN5@GetInstanc
_TEXT	ENDS
;	COMDAT text$x
text$x	SEGMENT
__unwindfunclet$?GetInstance@CPetProperty@@SAPAV1@XZ$0:
  00000	68 00 00 00 00	 push	 OFFSET ?$TSS0@?1??GetInstance@CPetProperty@@SAPAV2@XZ@4HA
  00005	e8 00 00 00 00	 call	 __Init_thread_abort
  0000a	59		 pop	 ecx
  0000b	c3		 ret	 0
  0000c	cc		 int	 3
  0000d	cc		 int	 3
  0000e	cc		 int	 3
  0000f	cc		 int	 3
  00010	cc		 int	 3
__ehhandler$?GetInstance@CPetProperty@@SAPAV1@XZ:
  00011	90		 npad	 1
  00012	90		 npad	 1
  00013	8b 54 24 08	 mov	 edx, DWORD PTR [esp+8]
  00017	8d 42 0c	 lea	 eax, DWORD PTR [edx+12]
  0001a	8b 4a fc	 mov	 ecx, DWORD PTR [edx-4]
  0001d	33 c8		 xor	 ecx, eax
  0001f	e8 00 00 00 00	 call	 @__security_check_cookie@4
  00024	b8 00 00 00 00	 mov	 eax, OFFSET __ehfuncinfo$?GetInstance@CPetProperty@@SAPAV1@XZ
  00029	e9 00 00 00 00	 jmp	 ___CxxFrameHandler3
text$x	ENDS
?GetInstance@CPetProperty@@SAPAV1@XZ ENDP		; CPetProperty::GetInstance
; Function compile flags: /Ogtp
; File C:\IAGOS\server\v18\Source\Source\_Common\pet.cpp
; File C:\Program Files\Microsoft Visual Studio\2022\Professional\VC\Tools\MSVC\14.44.35207\include\vector
; File C:\IAGOS\server\v18\Source\Source\_Common\pet.cpp
; File C:\Program Files\Microsoft Visual Studio\2022\Professional\VC\Tools\MSVC\14.44.35207\include\vector
; File C:\IAGOS\server\v18\Source\Source\_Common\pet.cpp
; File C:\Program Files\Microsoft Visual Studio\2022\Professional\VC\Tools\MSVC\14.44.35207\include\vector
; File C:\IAGOS\server\v18\Source\Source\_Common\pet.cpp
; File C:\Program Files\Microsoft Visual Studio\2022\Professional\VC\Tools\MSVC\14.44.35207\include\vector
; File C:\IAGOS\server\v18\Source\Source\_Common\pet.cpp
;	COMDAT ?GetAddLife@CPetProperty@@QAEGXZ
_TEXT	SEGMENT
?GetAddLife@CPetProperty@@QAEGXZ PROC			; CPetProperty::GetAddLife, COMDAT
; _this$ = ecx

; 106  : {

  00000	53		 push	 ebx
  00001	56		 push	 esi
  00002	57		 push	 edi

; 108  : 	DWORD dwRandom	= xRandom( 1, 101 );	// 1 ~ 100

  00003	6a 65		 push	 101			; 00000065H
  00005	6a 01		 push	 1
  00007	8b f1		 mov	 esi, ecx
  00009	33 ff		 xor	 edi, edi
  0000b	e8 00 00 00 00	 call	 ?xRandom@@YAKKK@Z	; xRandom
; File C:\Program Files\Microsoft Visual Studio\2022\Professional\VC\Tools\MSVC\14.44.35207\include\vector

; 1915 :         return static_cast<size_type>(_My_data._Mylast - _My_data._Myfirst);

  00010	8b 8e c4 02 00
	00		 mov	 ecx, DWORD PTR [esi+708]
; File C:\IAGOS\server\v18\Source\Source\_Common\pet.cpp

; 108  : 	DWORD dwRandom	= xRandom( 1, 101 );	// 1 ~ 100

  00016	83 c4 08	 add	 esp, 8
; File C:\Program Files\Microsoft Visual Studio\2022\Professional\VC\Tools\MSVC\14.44.35207\include\vector

; 1915 :         return static_cast<size_type>(_My_data._Mylast - _My_data._Myfirst);

  00019	8b b6 c8 02 00
	00		 mov	 esi, DWORD PTR [esi+712]
; File C:\IAGOS\server\v18\Source\Source\_Common\pet.cpp

; 109  : 	for( DWORD i = 0; i < m_awAddLifeProbability.size(); i++ )

  0001f	33 d2		 xor	 edx, edx
; File C:\Program Files\Microsoft Visual Studio\2022\Professional\VC\Tools\MSVC\14.44.35207\include\vector

; 1915 :         return static_cast<size_type>(_My_data._Mylast - _My_data._Myfirst);

  00021	2b f1		 sub	 esi, ecx
; File C:\IAGOS\server\v18\Source\Source\_Common\pet.cpp

; 108  : 	DWORD dwRandom	= xRandom( 1, 101 );	// 1 ~ 100

  00023	8b d8		 mov	 ebx, eax
; File C:\Program Files\Microsoft Visual Studio\2022\Professional\VC\Tools\MSVC\14.44.35207\include\vector

; 1915 :         return static_cast<size_type>(_My_data._Mylast - _My_data._Myfirst);

  00025	d1 fe		 sar	 esi, 1
; File C:\IAGOS\server\v18\Source\Source\_Common\pet.cpp

; 109  : 	for( DWORD i = 0; i < m_awAddLifeProbability.size(); i++ )

  00027	74 18		 je	 SHORT $LN3@GetAddLife
  00029	0f 1f 80 00 00
	00 00		 npad	 7
$LL4@GetAddLife:

; 110  : 	{
; 111  : 		dwTotal	+= m_awAddLifeProbability[i];

  00030	0f b7 01	 movzx	 eax, WORD PTR [ecx]
  00033	03 f8		 add	 edi, eax

; 112  : 		if( dwTotal >= dwRandom )

  00035	3b fb		 cmp	 edi, ebx
  00037	73 11		 jae	 SHORT $LN14@GetAddLife

; 109  : 	for( DWORD i = 0; i < m_awAddLifeProbability.size(); i++ )

  00039	42		 inc	 edx
  0003a	83 c1 02	 add	 ecx, 2
  0003d	3b d6		 cmp	 edx, esi
  0003f	72 ef		 jb	 SHORT $LL4@GetAddLife
$LN3@GetAddLife:
  00041	5f		 pop	 edi

; 113  : 			return	( (WORD)( i + 1 ) );
; 114  : 	}
; 115  : 	return 1;
; 116  : }

  00042	5e		 pop	 esi
  00043	b8 01 00 00 00	 mov	 eax, 1
  00048	5b		 pop	 ebx
  00049	c3		 ret	 0
$LN14@GetAddLife:
  0004a	5f		 pop	 edi
  0004b	5e		 pop	 esi
  0004c	8d 42 01	 lea	 eax, DWORD PTR [edx+1]
  0004f	5b		 pop	 ebx
  00050	c3		 ret	 0
?GetAddLife@CPetProperty@@QAEGXZ ENDP			; CPetProperty::GetAddLife
_TEXT	ENDS
; Function compile flags: /Ogtp
; File C:\IAGOS\server\v18\Source\Source\_Common\pet.cpp
;	COMDAT ?GetMaxEnergy@CPetProperty@@QAEGE@Z
_TEXT	SEGMENT
_nLevel$ = 8						; size = 1
?GetMaxEnergy@CPetProperty@@QAEGE@Z PROC		; CPetProperty::GetMaxEnergy, COMDAT
; _this$ = ecx

; 99   : {

  00000	55		 push	 ebp
  00001	8b ec		 mov	 ebp, esp

; 100  : 	if( nLevel >= PL_D && nLevel <= PL_S )

  00003	8a 55 08	 mov	 dl, BYTE PTR _nLevel$[ebp]
  00006	8d 42 ff	 lea	 eax, DWORD PTR [edx-1]
  00009	3c 04		 cmp	 al, 4
  0000b	77 0f		 ja	 SHORT $LN2@GetMaxEner

; 101  : 		return m_awMaxEnergy[nLevel-1];

  0000d	0f b6 c2	 movzx	 eax, dl
  00010	66 8b 84 41 b6
	02 00 00	 mov	 ax, WORD PTR [ecx+eax*2+694]

; 103  : }

  00018	5d		 pop	 ebp
  00019	c2 04 00	 ret	 4
$LN2@GetMaxEner:

; 102  : 	return 1;	// 0 łŞ´©±â ąćÁö

  0001c	b8 01 00 00 00	 mov	 eax, 1

; 103  : }

  00021	5d		 pop	 ebp
  00022	c2 04 00	 ret	 4
?GetMaxEnergy@CPetProperty@@QAEGE@Z ENDP		; CPetProperty::GetMaxEnergy
_TEXT	ENDS
; Function compile flags: /Ogtp
; File C:\IAGOS\server\v18\Source\Source\_Common\pet.cpp
;	COMDAT ?GetIncrementExp@CPetProperty@@QAEKE@Z
_TEXT	SEGMENT
_nLevel$ = 8						; size = 1
?GetIncrementExp@CPetProperty@@QAEKE@Z PROC		; CPetProperty::GetIncrementExp, COMDAT
; _this$ = ecx

; 92   : {

  00000	55		 push	 ebp
  00001	8b ec		 mov	 ebp, esp

; 93   : 	if( nLevel >= PL_D && nLevel <= PL_A )

  00003	8a 55 08	 mov	 dl, BYTE PTR _nLevel$[ebp]
  00006	8d 42 ff	 lea	 eax, DWORD PTR [edx-1]
  00009	3c 03		 cmp	 al, 3
  0000b	77 0e		 ja	 SHORT $LN2@GetIncreme

; 94   : 		return m_adwIncrementExp[nLevel-1];

  0000d	0f b6 c2	 movzx	 eax, dl
  00010	8b 84 81 9c 02
	00 00		 mov	 eax, DWORD PTR [ecx+eax*4+668]

; 96   : }

  00017	5d		 pop	 ebp
  00018	c2 04 00	 ret	 4
$LN2@GetIncreme:

; 95   : 	return 0;

  0001b	33 c0		 xor	 eax, eax

; 96   : }

  0001d	5d		 pop	 ebp
  0001e	c2 04 00	 ret	 4
?GetIncrementExp@CPetProperty@@QAEKE@Z ENDP		; CPetProperty::GetIncrementExp
_TEXT	ENDS
; Function compile flags: /Ogtp
; File C:\IAGOS\server\v18\Source\Source\_Common\pet.cpp
; File C:\Program Files\Microsoft Visual Studio\2022\Professional\VC\Tools\MSVC\14.44.35207\include\vector
; File C:\IAGOS\server\v18\Source\Source\_Common\pet.cpp
; File C:\Program Files\Microsoft Visual Studio\2022\Professional\VC\Tools\MSVC\14.44.35207\include\vector
; File C:\IAGOS\server\v18\Source\Source\_Common\pet.cpp
; File C:\Program Files\Microsoft Visual Studio\2022\Professional\VC\Tools\MSVC\14.44.35207\include\vector
; File C:\IAGOS\server\v18\Source\Source\_Common\pet.cpp
;	COMDAT ?GetFeedEnergy@CPetProperty@@QAEGKH@Z
_TEXT	SEGMENT
_dwCost$ = 8						; size = 4
_nIndex$ = 12						; size = 4
?GetFeedEnergy@CPetProperty@@QAEGKH@Z PROC		; CPetProperty::GetFeedEnergy, COMDAT
; _this$ = ecx

; 65   : {

  00000	55		 push	 ebp
  00001	8b ec		 mov	 ebp, esp

; 66   : 	if( nIndex < 0 || nIndex > 1 )

  00003	8b 45 0c	 mov	 eax, DWORD PTR _nIndex$[ebp]
  00006	83 f8 01	 cmp	 eax, 1
  00009	77 29		 ja	 SHORT $LN6@GetFeedEne

; 69   : 	vector<FEEDENERGY>* pArr	= &m_aFeedEnergy[nIndex];

  0000b	8d 04 40	 lea	 eax, DWORD PTR [eax+eax*2]
  0000e	8d 80 a2 00 00
	00		 lea	 eax, DWORD PTR [eax+162]
; File C:\Program Files\Microsoft Visual Studio\2022\Professional\VC\Tools\MSVC\14.44.35207\include\vector

; 46   :     _CONSTEXPR20 _Vector_const_iterator(_Tptr _Parg, const _Container_base* _Pvector) noexcept : _Ptr(_Parg) {

  00014	8b 54 81 04	 mov	 edx, DWORD PTR [ecx+eax*4+4]
; File C:\IAGOS\server\v18\Source\Source\_Common\pet.cpp

; 69   : 	vector<FEEDENERGY>* pArr	= &m_aFeedEnergy[nIndex];

  00018	8d 0c 81	 lea	 ecx, DWORD PTR [ecx+eax*4]
; File C:\Program Files\Microsoft Visual Studio\2022\Professional\VC\Tools\MSVC\14.44.35207\include\vector

; 46   :     _CONSTEXPR20 _Vector_const_iterator(_Tptr _Parg, const _Container_base* _Pvector) noexcept : _Ptr(_Parg) {

  0001b	8b 01		 mov	 eax, DWORD PTR [ecx]

; 176  :         return !(*this == _Right);

  0001d	3b c2		 cmp	 eax, edx
; File C:\IAGOS\server\v18\Source\Source\_Common\pet.cpp

; 70   : 	for( vector<FEEDENERGY>::iterator i = pArr->begin(); i != pArr->end(); ++i )

  0001f	74 13		 je	 SHORT $LN6@GetFeedEne
  00021	8b 4d 08	 mov	 ecx, DWORD PTR _dwCost$[ebp]
$LL4@GetFeedEne:

; 71   : 	{
; 72   : 		if( dwCost >= i->dwCostMin && dwCost <= i->dwCostMax )

  00024	3b 08		 cmp	 ecx, DWORD PTR [eax]
  00026	72 05		 jb	 SHORT $LN2@GetFeedEne
  00028	3b 48 04	 cmp	 ecx, DWORD PTR [eax+4]
  0002b	76 0d		 jbe	 SHORT $LN40@GetFeedEne
$LN2@GetFeedEne:
; File C:\Program Files\Microsoft Visual Studio\2022\Professional\VC\Tools\MSVC\14.44.35207\include\vector

; 82   :         ++_Ptr;

  0002d	83 c0 0c	 add	 eax, 12			; 0000000cH

; 176  :         return !(*this == _Right);

  00030	3b c2		 cmp	 eax, edx
; File C:\IAGOS\server\v18\Source\Source\_Common\pet.cpp

; 70   : 	for( vector<FEEDENERGY>::iterator i = pArr->begin(); i != pArr->end(); ++i )

  00032	75 f0		 jne	 SHORT $LL4@GetFeedEne
$LN6@GetFeedEne:

; 67   : 		return 0;

  00034	33 c0		 xor	 eax, eax

; 74   : 	}
; 75   : 	return 0;
; 76   : }

  00036	5d		 pop	 ebp
  00037	c2 08 00	 ret	 8
$LN40@GetFeedEne:

; 73   : 			return (WORD)xRandom( i->wEnergyMin, i->wEnergyMax + 1 );	// wEnergyMin ~ wEnergyMax

  0003a	0f b7 48 0a	 movzx	 ecx, WORD PTR [eax+10]
  0003e	0f b7 40 08	 movzx	 eax, WORD PTR [eax+8]
  00042	41		 inc	 ecx
  00043	51		 push	 ecx
  00044	50		 push	 eax
  00045	e8 00 00 00 00	 call	 ?xRandom@@YAKKK@Z	; xRandom
  0004a	83 c4 08	 add	 esp, 8

; 74   : 	}
; 75   : 	return 0;
; 76   : }

  0004d	5d		 pop	 ebp
  0004e	c2 08 00	 ret	 8
?GetFeedEnergy@CPetProperty@@QAEGKH@Z ENDP		; CPetProperty::GetFeedEnergy
_TEXT	ENDS
; Function compile flags: /Ogtp
; File C:\IAGOS\server\v18\Source\Source\_Common\pet.cpp
;	COMDAT ?GetLevelupAvailLevel@CPetProperty@@QAEEE@Z
_TEXT	SEGMENT
_wLevel$ = 8						; size = 1
$T1 = 8							; size = 4
?GetLevelupAvailLevel@CPetProperty@@QAEEE@Z PROC	; CPetProperty::GetLevelupAvailLevel, COMDAT
; _this$ = ecx

; 52   : {

  00000	55		 push	 ebp
  00001	8b ec		 mov	 ebp, esp
  00003	53		 push	 ebx
  00004	56		 push	 esi
  00005	57		 push	 edi

; 53   : 	DWORD dwTotal	= 0;
; 54   : 	DWORD dwRandom	= xRandom( 1, 10001 );	// 1 ~ 10000

  00006	68 11 27 00 00	 push	 10001			; 00002711H
  0000b	6a 01		 push	 1
  0000d	8b f1		 mov	 esi, ecx
  0000f	33 ff		 xor	 edi, edi
  00011	e8 00 00 00 00	 call	 ?xRandom@@YAKKK@Z	; xRandom

; 55   : 	for( int i = 0; i <= m_anLevelupAvailLevelMax[wLevel]; i++ )

  00016	0f b6 55 08	 movzx	 edx, BYTE PTR _wLevel$[ebp]
  0001a	8b d8		 mov	 ebx, eax
  0001c	83 c4 08	 add	 esp, 8
  0001f	33 c0		 xor	 eax, eax
  00021	0f b6 8c 32 a8
	01 00 00	 movzx	 ecx, BYTE PTR [edx+esi+424]
  00029	83 c2 0c	 add	 edx, 12			; 0000000cH
  0002c	89 4d 08	 mov	 DWORD PTR $T1[ebp], ecx
  0002f	8d 0c d2	 lea	 ecx, DWORD PTR [edx+edx*8]
  00032	8b 55 08	 mov	 edx, DWORD PTR $T1[ebp]
  00035	8d 0c 8e	 lea	 ecx, DWORD PTR [esi+ecx*4]
$LL4@GetLevelup:

; 56   : 	{
; 57   : 		dwTotal		+= m_adwLevelupAvailLevelProbability[wLevel][i];

  00038	03 39		 add	 edi, DWORD PTR [ecx]

; 58   : 		if(  dwTotal >= dwRandom )

  0003a	3b fb		 cmp	 edi, ebx
  0003c	73 11		 jae	 SHORT $LN8@GetLevelup

; 55   : 	for( int i = 0; i <= m_anLevelupAvailLevelMax[wLevel]; i++ )

  0003e	40		 inc	 eax
  0003f	83 c1 04	 add	 ecx, 4
  00042	3b c2		 cmp	 eax, edx
  00044	7e f2		 jle	 SHORT $LL4@GetLevelup

; 59   : 			return i + 1;
; 60   : 	}
; 61   : 	return 0;
; 62   : }

  00046	5f		 pop	 edi
  00047	5e		 pop	 esi
  00048	32 c0		 xor	 al, al
  0004a	5b		 pop	 ebx
  0004b	5d		 pop	 ebp
  0004c	c2 04 00	 ret	 4
$LN8@GetLevelup:
  0004f	5f		 pop	 edi
  00050	5e		 pop	 esi
  00051	fe c0		 inc	 al
  00053	5b		 pop	 ebx
  00054	5d		 pop	 ebp
  00055	c2 04 00	 ret	 4
?GetLevelupAvailLevel@CPetProperty@@QAEEE@Z ENDP	; CPetProperty::GetLevelupAvailLevel
_TEXT	ENDS
; Function compile flags: /Ogtp
; File C:\IAGOS\server\v18\Source\Source\_Common\pet.cpp
;	COMDAT ?GetAvailParam@CPetProperty@@QAEPAU_PETAVAILPARAM@@E@Z
_TEXT	SEGMENT
_nKind$ = 8						; size = 1
?GetAvailParam@CPetProperty@@QAEPAU_PETAVAILPARAM@@E@Z PROC ; CPetProperty::GetAvailParam, COMDAT
; _this$ = ecx

; 45   : {

  00000	55		 push	 ebp
  00001	8b ec		 mov	 ebp, esp

; 46   : 	if( nKind >= PK_TIGER && nKind < PK_MAX )

  00003	8a 45 08	 mov	 al, BYTE PTR _nKind$[ebp]
  00006	3c 07		 cmp	 al, 7
  00008	73 12		 jae	 SHORT $LN2@GetAvailPa

; 47   : 		return &m_aPetAvailParam[nKind];

  0000a	0f b6 d0	 movzx	 edx, al
  0000d	8b c2		 mov	 eax, edx
  0000f	c1 e0 04	 shl	 eax, 4
  00012	2b c2		 sub	 eax, edx
  00014	40		 inc	 eax
  00015	8d 04 81	 lea	 eax, DWORD PTR [ecx+eax*4]

; 49   : }

  00018	5d		 pop	 ebp
  00019	c2 04 00	 ret	 4
$LN2@GetAvailPa:

; 48   : 	return NULL;

  0001c	33 c0		 xor	 eax, eax

; 49   : }

  0001e	5d		 pop	 ebp
  0001f	c2 04 00	 ret	 4
?GetAvailParam@CPetProperty@@QAEPAU_PETAVAILPARAM@@E@Z ENDP ; CPetProperty::GetAvailParam
_TEXT	ENDS
; Function compile flags: /Ogtp
; File C:\IAGOS\server\v18\Source\Source\_Common\pet.cpp
; File C:\Program Files\Microsoft Visual Studio\2022\Professional\VC\Tools\MSVC\14.44.35207\include\vector
; File C:\IAGOS\server\v18\Source\Source\_Common\pet.cpp
; File C:\Program Files\Microsoft Visual Studio\2022\Professional\VC\Tools\MSVC\14.44.35207\include\vector
; File C:\IAGOS\server\v18\Source\Source\_Common\pet.cpp
;	COMDAT ??1CPetProperty@@UAE@XZ
_TEXT	SEGMENT
__$EHRec$ = -12						; size = 12
??1CPetProperty@@UAE@XZ PROC				; CPetProperty::~CPetProperty, COMDAT
; _this$ = ecx

; 31   : {

  00000	55		 push	 ebp
  00001	8b ec		 mov	 ebp, esp
  00003	6a ff		 push	 -1
  00005	68 00 00 00 00	 push	 __ehhandler$??1CPetProperty@@UAE@XZ
  0000a	64 a1 00 00 00
	00		 mov	 eax, DWORD PTR fs:0
  00010	50		 push	 eax
  00011	56		 push	 esi
  00012	a1 00 00 00 00	 mov	 eax, DWORD PTR ___security_cookie
  00017	33 c5		 xor	 eax, ebp
  00019	50		 push	 eax
  0001a	8d 45 f4	 lea	 eax, DWORD PTR __$EHRec$[ebp]
  0001d	64 a3 00 00 00
	00		 mov	 DWORD PTR fs:0, eax
; File C:\Program Files\Microsoft Visual Studio\2022\Professional\VC\Tools\MSVC\14.44.35207\include\vector

; 1808 :         auto& _My_data    = _Mypair._Myval2;

  00023	8d b1 88 02 00
	00		 lea	 esi, DWORD PTR [ecx+648]
; File C:\IAGOS\server\v18\Source\Source\_Common\pet.cpp

; 31   : {

  00029	c7 01 00 00 00
	00		 mov	 DWORD PTR [ecx], OFFSET ??_7CPetProperty@@6B@
; File C:\Program Files\Microsoft Visual Studio\2022\Professional\VC\Tools\MSVC\14.44.35207\include\vector

; 1812 :         if (_Myfirst == _Mylast) { // already empty, nothing to do

  0002f	8b 06		 mov	 eax, DWORD PTR [esi]
  00031	3b 46 04	 cmp	 eax, DWORD PTR [esi+4]
  00034	74 03		 je	 SHORT $LN4@CPetProper

; 1813 :             // This is an optimization for debug mode: we can avoid taking the debug lock to invalidate iterators.
; 1814 :             // Note that when clearing an empty vector, this will preserve past-the-end iterators, which is allowed by
; 1815 :             // N4950 [sequence.reqmts]/54 "a.clear() [...] may invalidate the past-the-end iterator".
; 1816 :             return;
; 1817 :         }
; 1818 : 
; 1819 :         _My_data._Orphan_all();
; 1820 :         _Destroy_range(_Myfirst, _Mylast, _Getal());
; 1821 :         _ASAN_VECTOR_MODIFY(static_cast<difference_type>(_Myfirst - _Mylast)); // negative when destroying elements
; 1822 :         _Mylast = _Myfirst;

  00036	89 46 04	 mov	 DWORD PTR [esi+4], eax
$LN4@CPetProper:

; 1812 :         if (_Myfirst == _Mylast) { // already empty, nothing to do

  00039	8b 81 94 02 00
	00		 mov	 eax, DWORD PTR [ecx+660]
  0003f	3b 81 98 02 00
	00		 cmp	 eax, DWORD PTR [ecx+664]
  00045	74 06		 je	 SHORT $LN8@CPetProper

; 1813 :             // This is an optimization for debug mode: we can avoid taking the debug lock to invalidate iterators.
; 1814 :             // Note that when clearing an empty vector, this will preserve past-the-end iterators, which is allowed by
; 1815 :             // N4950 [sequence.reqmts]/54 "a.clear() [...] may invalidate the past-the-end iterator".
; 1816 :             return;
; 1817 :         }
; 1818 : 
; 1819 :         _My_data._Orphan_all();
; 1820 :         _Destroy_range(_Myfirst, _Mylast, _Getal());
; 1821 :         _ASAN_VECTOR_MODIFY(static_cast<difference_type>(_Myfirst - _Mylast)); // negative when destroying elements
; 1822 :         _Mylast = _Myfirst;

  00047	89 81 98 02 00
	00		 mov	 DWORD PTR [ecx+664], eax
$LN8@CPetProper:

; 1812 :         if (_Myfirst == _Mylast) { // already empty, nothing to do

  0004d	8b 81 c4 02 00
	00		 mov	 eax, DWORD PTR [ecx+708]
  00053	81 c1 c4 02 00
	00		 add	 ecx, 708		; 000002c4H
  00059	3b 41 04	 cmp	 eax, DWORD PTR [ecx+4]
  0005c	74 03		 je	 SHORT $LN12@CPetProper

; 1813 :             // This is an optimization for debug mode: we can avoid taking the debug lock to invalidate iterators.
; 1814 :             // Note that when clearing an empty vector, this will preserve past-the-end iterators, which is allowed by
; 1815 :             // N4950 [sequence.reqmts]/54 "a.clear() [...] may invalidate the past-the-end iterator".
; 1816 :             return;
; 1817 :         }
; 1818 : 
; 1819 :         _My_data._Orphan_all();
; 1820 :         _Destroy_range(_Myfirst, _Mylast, _Getal());
; 1821 :         _ASAN_VECTOR_MODIFY(static_cast<difference_type>(_Myfirst - _Mylast)); // negative when destroying elements
; 1822 :         _Mylast = _Myfirst;

  0005e	89 41 04	 mov	 DWORD PTR [ecx+4], eax
$LN12@CPetProper:
; File C:\IAGOS\server\v18\Source\Source\_Common\pet.cpp

; 35   : }

  00061	e8 00 00 00 00	 call	 ??1?$vector@GV?$allocator@G@std@@@std@@QAE@XZ ; std::vector<unsigned short,std::allocator<unsigned short> >::~vector<unsigned short,std::allocator<unsigned short> >
  00066	68 00 00 00 00	 push	 OFFSET ??1?$vector@U_FEEDENERGY@@V?$allocator@U_FEEDENERGY@@@std@@@std@@QAE@XZ ; std::vector<_FEEDENERGY,std::allocator<_FEEDENERGY> >::~vector<_FEEDENERGY,std::allocator<_FEEDENERGY> >
  0006b	6a 02		 push	 2
  0006d	6a 0c		 push	 12			; 0000000cH
  0006f	56		 push	 esi
  00070	e8 00 00 00 00	 call	 ??_M@YGXPAXIIP6EX0@Z@Z
  00075	8b 4d f4	 mov	 ecx, DWORD PTR __$EHRec$[ebp]
  00078	64 89 0d 00 00
	00 00		 mov	 DWORD PTR fs:0, ecx
  0007f	59		 pop	 ecx
  00080	5e		 pop	 esi
  00081	8b e5		 mov	 esp, ebp
  00083	5d		 pop	 ebp
  00084	c3		 ret	 0
  00085	cc		 int	 3
  00086	cc		 int	 3
  00087	cc		 int	 3
  00088	cc		 int	 3
  00089	cc		 int	 3
_TEXT	ENDS
;	COMDAT text$x
text$x	SEGMENT
__ehhandler$??1CPetProperty@@UAE@XZ:
  00000	90		 npad	 1
  00001	90		 npad	 1
  00002	8b 54 24 08	 mov	 edx, DWORD PTR [esp+8]
  00006	8d 42 0c	 lea	 eax, DWORD PTR [edx+12]
  00009	8b 4a f8	 mov	 ecx, DWORD PTR [edx-8]
  0000c	33 c8		 xor	 ecx, eax
  0000e	e8 00 00 00 00	 call	 @__security_check_cookie@4
  00013	b8 00 00 00 00	 mov	 eax, OFFSET __ehfuncinfo$??1CPetProperty@@UAE@XZ
  00018	e9 00 00 00 00	 jmp	 ___CxxFrameHandler3
text$x	ENDS
??1CPetProperty@@UAE@XZ ENDP				; CPetProperty::~CPetProperty
; Function compile flags: /Ogtp
; File C:\IAGOS\server\v18\Source\Source\_Common\pet.cpp
; File C:\Program Files\Microsoft Visual Studio\2022\Professional\VC\Tools\MSVC\14.44.35207\include\vector
; File C:\IAGOS\server\v18\Source\Source\_Common\pet.cpp
; File C:\Program Files\Microsoft Visual Studio\2022\Professional\VC\Tools\MSVC\14.44.35207\include\vector
; File C:\IAGOS\server\v18\Source\Source\_Common\pet.cpp
;	COMDAT ??0CPetProperty@@QAE@XZ
_TEXT	SEGMENT
_this$ = -4						; size = 4
??0CPetProperty@@QAE@XZ PROC				; CPetProperty::CPetProperty, COMDAT
; _this$ = ecx

; 21   : {

  00000	55		 push	 ebp
  00001	8b ec		 mov	 ebp, esp
  00003	51		 push	 ecx
  00004	56		 push	 esi
  00005	68 00 00 00 00	 push	 OFFSET ??1?$vector@U_FEEDENERGY@@V?$allocator@U_FEEDENERGY@@@std@@@std@@QAE@XZ ; std::vector<_FEEDENERGY,std::allocator<_FEEDENERGY> >::~vector<_FEEDENERGY,std::allocator<_FEEDENERGY> >
  0000a	8b f1		 mov	 esi, ecx
  0000c	68 00 00 00 00	 push	 OFFSET ??0?$vector@U_FEEDENERGY@@V?$allocator@U_FEEDENERGY@@@std@@@std@@QAE@XZ ; std::vector<_FEEDENERGY,std::allocator<_FEEDENERGY> >::vector<_FEEDENERGY,std::allocator<_FEEDENERGY> >
  00011	6a 02		 push	 2
  00013	6a 0c		 push	 12			; 0000000cH
  00015	8d 86 88 02 00
	00		 lea	 eax, DWORD PTR [esi+648]
  0001b	89 75 fc	 mov	 DWORD PTR _this$[ebp], esi
  0001e	50		 push	 eax
  0001f	c7 06 00 00 00
	00		 mov	 DWORD PTR [esi], OFFSET ??_7CPetProperty@@6B@
  00025	e8 00 00 00 00	 call	 ??_L@YGXPAXIIP6EX0@Z1@Z

; 22   : 	memset( (void*)m_aPetAvailParam, 0, sizeof(PETAVAILPARAM) * PK_MAX );

  0002a	68 a4 01 00 00	 push	 420			; 000001a4H
  0002f	8d 46 04	 lea	 eax, DWORD PTR [esi+4]
; File C:\Program Files\Microsoft Visual Studio\2022\Professional\VC\Tools\MSVC\14.44.35207\include\vector

; 400  :     _CONSTEXPR20 _Vector_val() noexcept : _Myfirst(), _Mylast(), _Myend() {}

  00032	c7 86 c4 02 00
	00 00 00 00 00	 mov	 DWORD PTR [esi+708], 0
; File C:\IAGOS\server\v18\Source\Source\_Common\pet.cpp

; 22   : 	memset( (void*)m_aPetAvailParam, 0, sizeof(PETAVAILPARAM) * PK_MAX );

  0003c	6a 00		 push	 0
  0003e	50		 push	 eax
; File C:\Program Files\Microsoft Visual Studio\2022\Professional\VC\Tools\MSVC\14.44.35207\include\vector

; 400  :     _CONSTEXPR20 _Vector_val() noexcept : _Myfirst(), _Mylast(), _Myend() {}

  0003f	c7 86 c8 02 00
	00 00 00 00 00	 mov	 DWORD PTR [esi+712], 0
  00049	c7 86 cc 02 00
	00 00 00 00 00	 mov	 DWORD PTR [esi+716], 0
; File C:\IAGOS\server\v18\Source\Source\_Common\pet.cpp

; 22   : 	memset( (void*)m_aPetAvailParam, 0, sizeof(PETAVAILPARAM) * PK_MAX );

  00053	e8 00 00 00 00	 call	 _memset

; 23   : 	memset( (void*)m_anLevelupAvailLevelMax, 0, sizeof(BYTE) * PL_MAX );

  00058	33 c0		 xor	 eax, eax
  0005a	89 86 a8 01 00
	00		 mov	 DWORD PTR [esi+424], eax

; 24   : 	memset( (void*)m_adwLevelupAvailLevelProbability, 0, sizeof(DWORD) * PL_MAX * MAX_PET_AVAIL_LEVEL );

  00060	68 d8 00 00 00	 push	 216			; 000000d8H
  00065	50		 push	 eax
  00066	66 89 86 ac 01
	00 00		 mov	 WORD PTR [esi+428], ax
  0006d	8d 86 b0 01 00
	00		 lea	 eax, DWORD PTR [esi+432]
  00073	50		 push	 eax
  00074	e8 00 00 00 00	 call	 _memset
  00079	0f 57 c0	 xorps	 xmm0, xmm0
  0007c	8d 86 d0 02 00
	00		 lea	 eax, DWORD PTR [esi+720]

; 25   : 	memset( (void*)m_adwIncrementExp, 0, sizeof(DWORD) * PL_MAX );
; 26   : 	memset( (void*)m_awMaxEnergy, 0, sizeof(WORD) * PL_MAX );
; 27   : 	memset( (void*)m_aPenalty, 0, sizeof(PETPENALTY) * PL_MAX );

  00082	6a 30		 push	 48			; 00000030H
  00084	0f 11 86 a0 02
	00 00		 movups	 XMMWORD PTR [esi+672], xmm0
  0008b	6a 00		 push	 0
  0008d	0f 11 86 b0 02
	00 00		 movups	 XMMWORD PTR [esi+688], xmm0
  00094	50		 push	 eax
  00095	c7 86 c0 02 00
	00 00 00 00 00	 mov	 DWORD PTR [esi+704], 0
  0009f	e8 00 00 00 00	 call	 _memset
  000a4	83 c4 24	 add	 esp, 36			; 00000024H

; 28   : }

  000a7	8b c6		 mov	 eax, esi
  000a9	5e		 pop	 esi
  000aa	8b e5		 mov	 esp, ebp
  000ac	5d		 pop	 ebp
  000ad	c3		 ret	 0
??0CPetProperty@@QAE@XZ ENDP				; CPetProperty::CPetProperty
_TEXT	ENDS
; Function compile flags: /Ogtp
; File C:\IAGOS\server\v18\Source\Source\_Common\pet.h
;	COMDAT ??0_PETPENALTY@@QAE@XZ
_TEXT	SEGMENT
??0_PETPENALTY@@QAE@XZ PROC				; _PETPENALTY::_PETPENALTY, COMDAT
; _this$ = ecx

; 34   : 	{
; 35   : 		fExp	= 0.0f;
; 36   : 		wEnergy	= 0;

  00000	33 c0		 xor	 eax, eax
  00002	c7 01 00 00 00
	00		 mov	 DWORD PTR [ecx], 0
  00008	66 89 41 04	 mov	 WORD PTR [ecx+4], ax

; 37   : 	}

  0000c	8b c1		 mov	 eax, ecx
  0000e	c3		 ret	 0
??0_PETPENALTY@@QAE@XZ ENDP				; _PETPENALTY::_PETPENALTY
_TEXT	ENDS
; Function compile flags: /Ogtp
; File C:\Program Files\Microsoft Visual Studio\2022\Professional\VC\Tools\MSVC\14.44.35207\include\xmemory
;	COMDAT ?_Throw_bad_array_new_length@std@@YAXXZ
_TEXT	SEGMENT
$T1 = -12						; size = 12
?_Throw_bad_array_new_length@std@@YAXXZ PROC		; std::_Throw_bad_array_new_length, COMDAT

; 107  : [[noreturn]] inline void _Throw_bad_array_new_length() {

  00000	55		 push	 ebp
  00001	8b ec		 mov	 ebp, esp
  00003	83 ec 0c	 sub	 esp, 12			; 0000000cH

; 108  :     _THROW(bad_array_new_length{});

  00006	8d 4d f4	 lea	 ecx, DWORD PTR $T1[ebp]
  00009	e8 00 00 00 00	 call	 ??0bad_array_new_length@std@@QAE@XZ ; std::bad_array_new_length::bad_array_new_length
  0000e	68 00 00 00 00	 push	 OFFSET __TI3?AVbad_array_new_length@std@@
  00013	8d 45 f4	 lea	 eax, DWORD PTR $T1[ebp]
  00016	50		 push	 eax
  00017	e8 00 00 00 00	 call	 __CxxThrowException@8
$LN3@Throw_bad_:
  0001c	cc		 int	 3
?_Throw_bad_array_new_length@std@@YAXXZ ENDP		; std::_Throw_bad_array_new_length
_TEXT	ENDS
; Function compile flags: /Ogtp
; File C:\Program Files\Microsoft Visual Studio\2022\Professional\VC\Tools\MSVC\14.44.35207\include\vcruntime_exception.h
;	COMDAT ??_Gbad_array_new_length@std@@UAEPAXI@Z
_TEXT	SEGMENT
___flags$ = 8						; size = 4
??_Gbad_array_new_length@std@@UAEPAXI@Z PROC		; std::bad_array_new_length::`scalar deleting destructor', COMDAT
; _this$ = ecx
  00000	55		 push	 ebp
  00001	8b ec		 mov	 ebp, esp

; 90   :     {

  00003	56		 push	 esi
  00004	8b f1		 mov	 esi, ecx

; 91   :         __std_exception_destroy(&_Data);

  00006	8d 46 04	 lea	 eax, DWORD PTR [esi+4]
  00009	c7 06 00 00 00
	00		 mov	 DWORD PTR [esi], OFFSET ??_7exception@std@@6B@
  0000f	50		 push	 eax
  00010	e8 00 00 00 00	 call	 ___std_exception_destroy
  00015	83 c4 04	 add	 esp, 4
  00018	f6 45 08 01	 test	 BYTE PTR ___flags$[ebp], 1
  0001c	74 0b		 je	 SHORT $LN18@scalar
  0001e	6a 0c		 push	 12			; 0000000cH
  00020	56		 push	 esi
  00021	e8 00 00 00 00	 call	 ??3@YAXPAXI@Z		; operator delete
  00026	83 c4 08	 add	 esp, 8
$LN18@scalar:
  00029	8b c6		 mov	 eax, esi
  0002b	5e		 pop	 esi
  0002c	5d		 pop	 ebp
  0002d	c2 04 00	 ret	 4
??_Gbad_array_new_length@std@@UAEPAXI@Z ENDP		; std::bad_array_new_length::`scalar deleting destructor'
_TEXT	ENDS
; Function compile flags: /Ogtp
; File C:\Program Files\Microsoft Visual Studio\2022\Professional\VC\Tools\MSVC\14.44.35207\include\vcruntime_exception.h
;	COMDAT ??0bad_array_new_length@std@@QAE@ABV01@@Z
_TEXT	SEGMENT
___that$ = 8						; size = 4
??0bad_array_new_length@std@@QAE@ABV01@@Z PROC		; std::bad_array_new_length::bad_array_new_length, COMDAT
; _this$ = ecx
  00000	55		 push	 ebp
  00001	8b ec		 mov	 ebp, esp

; 73   :     {

  00003	56		 push	 esi
  00004	8b f1		 mov	 esi, ecx
  00006	0f 57 c0	 xorps	 xmm0, xmm0

; 72   :         : _Data()

  00009	8d 46 04	 lea	 eax, DWORD PTR [esi+4]

; 74   :         __std_exception_copy(&_Other._Data, &_Data);

  0000c	50		 push	 eax
  0000d	c7 06 00 00 00
	00		 mov	 DWORD PTR [esi], OFFSET ??_7exception@std@@6B@
  00013	66 0f d6 00	 movq	 QWORD PTR [eax], xmm0
  00017	8b 45 08	 mov	 eax, DWORD PTR ___that$[ebp]
  0001a	83 c0 04	 add	 eax, 4
  0001d	50		 push	 eax
  0001e	e8 00 00 00 00	 call	 ___std_exception_copy
  00023	83 c4 08	 add	 esp, 8
  00026	c7 06 00 00 00
	00		 mov	 DWORD PTR [esi], OFFSET ??_7bad_array_new_length@std@@6B@
  0002c	8b c6		 mov	 eax, esi
  0002e	5e		 pop	 esi
  0002f	5d		 pop	 ebp
  00030	c2 04 00	 ret	 4
??0bad_array_new_length@std@@QAE@ABV01@@Z ENDP		; std::bad_array_new_length::bad_array_new_length
_TEXT	ENDS
; Function compile flags: /Ogtp
; File C:\Program Files\Microsoft Visual Studio\2022\Professional\VC\Tools\MSVC\14.44.35207\include\vcruntime_exception.h
;	COMDAT ??1bad_array_new_length@std@@UAE@XZ
_TEXT	SEGMENT
??1bad_array_new_length@std@@UAE@XZ PROC		; std::bad_array_new_length::~bad_array_new_length, COMDAT
; _this$ = ecx

; 91   :         __std_exception_destroy(&_Data);

  00000	8d 41 04	 lea	 eax, DWORD PTR [ecx+4]
  00003	c7 01 00 00 00
	00		 mov	 DWORD PTR [ecx], OFFSET ??_7exception@std@@6B@
  00009	50		 push	 eax
  0000a	e8 00 00 00 00	 call	 ___std_exception_destroy
  0000f	59		 pop	 ecx
  00010	c3		 ret	 0
??1bad_array_new_length@std@@UAE@XZ ENDP		; std::bad_array_new_length::~bad_array_new_length
_TEXT	ENDS
; Function compile flags: /Ogtp
; File C:\Program Files\Microsoft Visual Studio\2022\Professional\VC\Tools\MSVC\14.44.35207\include\vcruntime_exception.h
;	COMDAT ??0bad_array_new_length@std@@QAE@XZ
_TEXT	SEGMENT
??0bad_array_new_length@std@@QAE@XZ PROC		; std::bad_array_new_length::bad_array_new_length, COMDAT
; _this$ = ecx

; 144  :     {

  00000	0f 57 c0	 xorps	 xmm0, xmm0

; 145  :     }

  00003	8b c1		 mov	 eax, ecx

; 66   :         : _Data()

  00005	66 0f d6 41 04	 movq	 QWORD PTR [ecx+4], xmm0

; 67   :     {
; 68   :         _Data._What = _Message;

  0000a	c7 41 04 00 00
	00 00		 mov	 DWORD PTR [ecx+4], OFFSET ??_C@_0BF@KINCDENJ@bad?5array?5new?5length@

; 144  :     {

  00011	c7 01 00 00 00
	00		 mov	 DWORD PTR [ecx], OFFSET ??_7bad_array_new_length@std@@6B@

; 145  :     }

  00017	c3		 ret	 0
??0bad_array_new_length@std@@QAE@XZ ENDP		; std::bad_array_new_length::bad_array_new_length
_TEXT	ENDS
; Function compile flags: /Ogtp
; File C:\Program Files\Microsoft Visual Studio\2022\Professional\VC\Tools\MSVC\14.44.35207\include\vcruntime_exception.h
;	COMDAT ??_Gbad_alloc@std@@UAEPAXI@Z
_TEXT	SEGMENT
___flags$ = 8						; size = 4
??_Gbad_alloc@std@@UAEPAXI@Z PROC			; std::bad_alloc::`scalar deleting destructor', COMDAT
; _this$ = ecx
  00000	55		 push	 ebp
  00001	8b ec		 mov	 ebp, esp

; 90   :     {

  00003	56		 push	 esi
  00004	8b f1		 mov	 esi, ecx

; 91   :         __std_exception_destroy(&_Data);

  00006	8d 46 04	 lea	 eax, DWORD PTR [esi+4]
  00009	c7 06 00 00 00
	00		 mov	 DWORD PTR [esi], OFFSET ??_7exception@std@@6B@
  0000f	50		 push	 eax
  00010	e8 00 00 00 00	 call	 ___std_exception_destroy
  00015	83 c4 04	 add	 esp, 4
  00018	f6 45 08 01	 test	 BYTE PTR ___flags$[ebp], 1
  0001c	74 0b		 je	 SHORT $LN13@scalar
  0001e	6a 0c		 push	 12			; 0000000cH
  00020	56		 push	 esi
  00021	e8 00 00 00 00	 call	 ??3@YAXPAXI@Z		; operator delete
  00026	83 c4 08	 add	 esp, 8
$LN13@scalar:
  00029	8b c6		 mov	 eax, esi
  0002b	5e		 pop	 esi
  0002c	5d		 pop	 ebp
  0002d	c2 04 00	 ret	 4
??_Gbad_alloc@std@@UAEPAXI@Z ENDP			; std::bad_alloc::`scalar deleting destructor'
_TEXT	ENDS
; Function compile flags: /Ogtp
; File C:\Program Files\Microsoft Visual Studio\2022\Professional\VC\Tools\MSVC\14.44.35207\include\vcruntime_exception.h
;	COMDAT ??0bad_alloc@std@@QAE@ABV01@@Z
_TEXT	SEGMENT
___that$ = 8						; size = 4
??0bad_alloc@std@@QAE@ABV01@@Z PROC			; std::bad_alloc::bad_alloc, COMDAT
; _this$ = ecx
  00000	55		 push	 ebp
  00001	8b ec		 mov	 ebp, esp

; 73   :     {

  00003	56		 push	 esi
  00004	8b f1		 mov	 esi, ecx
  00006	0f 57 c0	 xorps	 xmm0, xmm0

; 72   :         : _Data()

  00009	8d 46 04	 lea	 eax, DWORD PTR [esi+4]

; 74   :         __std_exception_copy(&_Other._Data, &_Data);

  0000c	50		 push	 eax
  0000d	c7 06 00 00 00
	00		 mov	 DWORD PTR [esi], OFFSET ??_7exception@std@@6B@
  00013	66 0f d6 00	 movq	 QWORD PTR [eax], xmm0
  00017	8b 45 08	 mov	 eax, DWORD PTR ___that$[ebp]
  0001a	83 c0 04	 add	 eax, 4
  0001d	50		 push	 eax
  0001e	e8 00 00 00 00	 call	 ___std_exception_copy
  00023	83 c4 08	 add	 esp, 8
  00026	c7 06 00 00 00
	00		 mov	 DWORD PTR [esi], OFFSET ??_7bad_alloc@std@@6B@
  0002c	8b c6		 mov	 eax, esi
  0002e	5e		 pop	 esi
  0002f	5d		 pop	 ebp
  00030	c2 04 00	 ret	 4
??0bad_alloc@std@@QAE@ABV01@@Z ENDP			; std::bad_alloc::bad_alloc
_TEXT	ENDS
; Function compile flags: /Ogtp
; File C:\Program Files\Microsoft Visual Studio\2022\Professional\VC\Tools\MSVC\14.44.35207\include\vcruntime_exception.h
;	COMDAT ??_Gexception@std@@UAEPAXI@Z
_TEXT	SEGMENT
___flags$ = 8						; size = 4
??_Gexception@std@@UAEPAXI@Z PROC			; std::exception::`scalar deleting destructor', COMDAT
; _this$ = ecx
  00000	55		 push	 ebp
  00001	8b ec		 mov	 ebp, esp

; 90   :     {

  00003	56		 push	 esi
  00004	8b f1		 mov	 esi, ecx

; 91   :         __std_exception_destroy(&_Data);

  00006	8d 46 04	 lea	 eax, DWORD PTR [esi+4]
  00009	c7 06 00 00 00
	00		 mov	 DWORD PTR [esi], OFFSET ??_7exception@std@@6B@
  0000f	50		 push	 eax
  00010	e8 00 00 00 00	 call	 ___std_exception_destroy
  00015	83 c4 04	 add	 esp, 4
  00018	f6 45 08 01	 test	 BYTE PTR ___flags$[ebp], 1
  0001c	74 0b		 je	 SHORT $LN8@scalar
  0001e	6a 0c		 push	 12			; 0000000cH
  00020	56		 push	 esi
  00021	e8 00 00 00 00	 call	 ??3@YAXPAXI@Z		; operator delete
  00026	83 c4 08	 add	 esp, 8
$LN8@scalar:
  00029	8b c6		 mov	 eax, esi
  0002b	5e		 pop	 esi
  0002c	5d		 pop	 ebp
  0002d	c2 04 00	 ret	 4
??_Gexception@std@@UAEPAXI@Z ENDP			; std::exception::`scalar deleting destructor'
_TEXT	ENDS
; Function compile flags: /Ogtp
; File C:\Program Files\Microsoft Visual Studio\2022\Professional\VC\Tools\MSVC\14.44.35207\include\vcruntime_exception.h
;	COMDAT ?what@exception@std@@UBEPBDXZ
_TEXT	SEGMENT
?what@exception@std@@UBEPBDXZ PROC			; std::exception::what, COMDAT
; _this$ = ecx

; 96   :         return _Data._What ? _Data._What : "Unknown exception";

  00000	8b 49 04	 mov	 ecx, DWORD PTR [ecx+4]
  00003	b8 00 00 00 00	 mov	 eax, OFFSET ??_C@_0BC@EOODALEL@Unknown?5exception@
  00008	85 c9		 test	 ecx, ecx
  0000a	0f 45 c1	 cmovne	 eax, ecx

; 97   :     }

  0000d	c3		 ret	 0
?what@exception@std@@UBEPBDXZ ENDP			; std::exception::what
_TEXT	ENDS
; Function compile flags: /Ogtp
; File C:\Program Files\Microsoft Visual Studio\2022\Professional\VC\Tools\MSVC\14.44.35207\include\vcruntime_exception.h
;	COMDAT ??1exception@std@@UAE@XZ
_TEXT	SEGMENT
??1exception@std@@UAE@XZ PROC				; std::exception::~exception, COMDAT
; _this$ = ecx

; 91   :         __std_exception_destroy(&_Data);

  00000	8d 41 04	 lea	 eax, DWORD PTR [ecx+4]
  00003	c7 01 00 00 00
	00		 mov	 DWORD PTR [ecx], OFFSET ??_7exception@std@@6B@
  00009	50		 push	 eax
  0000a	e8 00 00 00 00	 call	 ___std_exception_destroy
  0000f	59		 pop	 ecx

; 92   :     }

  00010	c3		 ret	 0
??1exception@std@@UAE@XZ ENDP				; std::exception::~exception
_TEXT	ENDS
; Function compile flags: /Ogtp
; File C:\Program Files\Microsoft Visual Studio\2022\Professional\VC\Tools\MSVC\14.44.35207\include\vcruntime_exception.h
;	COMDAT ??0exception@std@@QAE@ABV01@@Z
_TEXT	SEGMENT
__Other$ = 8						; size = 4
??0exception@std@@QAE@ABV01@@Z PROC			; std::exception::exception, COMDAT
; _this$ = ecx

; 73   :     {

  00000	55		 push	 ebp
  00001	8b ec		 mov	 ebp, esp
  00003	56		 push	 esi
  00004	8b f1		 mov	 esi, ecx
  00006	0f 57 c0	 xorps	 xmm0, xmm0
  00009	8d 46 04	 lea	 eax, DWORD PTR [esi+4]

; 74   :         __std_exception_copy(&_Other._Data, &_Data);

  0000c	50		 push	 eax
  0000d	c7 06 00 00 00
	00		 mov	 DWORD PTR [esi], OFFSET ??_7exception@std@@6B@
  00013	66 0f d6 00	 movq	 QWORD PTR [eax], xmm0
  00017	8b 45 08	 mov	 eax, DWORD PTR __Other$[ebp]
  0001a	83 c0 04	 add	 eax, 4
  0001d	50		 push	 eax
  0001e	e8 00 00 00 00	 call	 ___std_exception_copy
  00023	83 c4 08	 add	 esp, 8

; 75   :     }

  00026	8b c6		 mov	 eax, esi
  00028	5e		 pop	 esi
  00029	5d		 pop	 ebp
  0002a	c2 04 00	 ret	 4
??0exception@std@@QAE@ABV01@@Z ENDP			; std::exception::exception
_TEXT	ENDS
; Function compile flags: /Ogtp
; File C:\IAGOS\server\v18\Source\Source\_Common\pet.cpp
;	COMDAT ?__empty_global_delete@@YAXPAXI@Z
_TEXT	SEGMENT
___formal$ = 8						; size = 4
___formal$ = 12						; size = 4
?__empty_global_delete@@YAXPAXI@Z PROC			; __empty_global_delete, COMDAT

  00000	c2 00 00	 ret	 0
?__empty_global_delete@@YAXPAXI@Z ENDP			; __empty_global_delete
_TEXT	ENDS
; Function compile flags: /Ogtp
; File C:\IAGOS\server\v18\Source\Source\_Common\pet.cpp
;	COMDAT ?__empty_global_delete@@YAXPAX@Z
_TEXT	SEGMENT
___formal$ = 8						; size = 4
?__empty_global_delete@@YAXPAX@Z PROC			; __empty_global_delete, COMDAT

  00000	c2 00 00	 ret	 0
?__empty_global_delete@@YAXPAX@Z ENDP			; __empty_global_delete
_TEXT	ENDS
; Function compile flags: /Ogtp
;	COMDAT ??_H@YGXPAXIIP6EPAX0@Z@Z
_TEXT	SEGMENT
___t$ = 8						; size = 4
___s$ = 12						; size = 4
___n$ = 16						; size = 4
___f$ = 20						; size = 4
??_H@YGXPAXIIP6EPAX0@Z@Z PROC				; `vector constructor iterator', COMDAT
  00000	55		 push	 ebp
  00001	8b ec		 mov	 ebp, esp
  00003	56		 push	 esi
  00004	8b 75 10	 mov	 esi, DWORD PTR ___n$[ebp]
  00007	85 f6		 test	 esi, esi
  00009	74 16		 je	 SHORT $LN6@vector
  0000b	53		 push	 ebx
  0000c	8b 5d 14	 mov	 ebx, DWORD PTR ___f$[ebp]
  0000f	57		 push	 edi
  00010	8b 7d 08	 mov	 edi, DWORD PTR ___t$[ebp]
$LL2@vector:
  00013	8b cf		 mov	 ecx, edi
  00015	ff d3		 call	 ebx
  00017	03 7d 0c	 add	 edi, DWORD PTR ___s$[ebp]
  0001a	83 ee 01	 sub	 esi, 1
  0001d	75 f4		 jne	 SHORT $LL2@vector
  0001f	5f		 pop	 edi
  00020	5b		 pop	 ebx
$LN6@vector:
  00021	5e		 pop	 esi
  00022	5d		 pop	 ebp
  00023	c2 10 00	 ret	 16			; 00000010H
??_H@YGXPAXIIP6EPAX0@Z@Z ENDP				; `vector constructor iterator'
_TEXT	ENDS
END
