; Listing generated by Microsoft (R) Optimizing Compiler Version 19.44.35225.0 

	TITLE	C:\IAGOS\server\v18\Source\Output\DatabaseServer\Release\piercing.obj
	.686P
	.XMM
	include listing.inc
	.model	flat

INCLUDELIB LIBCMT
INCLUDELIB OLDNAMES

PUBLIC	?__empty_global_delete@@YAXPAX@Z		; __empty_global_delete
PUBLIC	?__empty_global_delete@@YAXPAXI@Z		; __empty_global_delete
PUBLIC	??0exception@std@@QAE@ABV01@@Z			; std::exception::exception
PUBLIC	??1exception@std@@UAE@XZ			; std::exception::~exception
PUBLIC	?what@exception@std@@UBEPBDXZ			; std::exception::what
PUBLIC	??_Gexception@std@@UAEPAXI@Z			; std::exception::`scalar deleting destructor'
PUBLIC	??0bad_alloc@std@@QAE@ABV01@@Z			; std::bad_alloc::bad_alloc
PUBLIC	??_Gbad_alloc@std@@UAEPAXI@Z			; std::bad_alloc::`scalar deleting destructor'
PUBLIC	??0bad_array_new_length@std@@QAE@XZ		; std::bad_array_new_length::bad_array_new_length
PUBLIC	??1bad_array_new_length@std@@UAE@XZ		; std::bad_array_new_length::~bad_array_new_length
PUBLIC	??0bad_array_new_length@std@@QAE@ABV01@@Z	; std::bad_array_new_length::bad_array_new_length
PUBLIC	??_Gbad_array_new_length@std@@UAEPAXI@Z		; std::bad_array_new_length::`scalar deleting destructor'
PUBLIC	?_Throw_bad_array_new_length@std@@YAXXZ		; std::_Throw_bad_array_new_length
PUBLIC	?deallocate@?$allocator@K@std@@QAEXQAKI@Z	; std::allocator<unsigned long>::deallocate
PUBLIC	??1?$vector@KV?$allocator@K@std@@@std@@QAE@XZ	; std::vector<unsigned long,std::allocator<unsigned long> >::~vector<unsigned long,std::allocator<unsigned long> >
PUBLIC	?_Xlength@?$vector@KV?$allocator@K@std@@@std@@CAXXZ ; std::vector<unsigned long,std::allocator<unsigned long> >::_Xlength
PUBLIC	??0CPiercing@@QAE@XZ				; CPiercing::CPiercing
PUBLIC	??1CPiercing@@UAE@XZ				; CPiercing::~CPiercing
PUBLIC	??4CPiercing@@QAEAAV0@ABV0@@Z			; CPiercing::operator=
PUBLIC	?Serialize@CPiercing@@UAEXAAVCAr@@@Z		; CPiercing::Serialize
PUBLIC	?SetPiercingSize@CPiercing@@QAEXH@Z		; CPiercing::SetPiercingSize
PUBLIC	?GetPiercingSize@CPiercing@@QAEHXZ		; CPiercing::GetPiercingSize
PUBLIC	?SetPiercingItem@CPiercing@@QAEXHK@Z		; CPiercing::SetPiercingItem
PUBLIC	?GetPiercingItem@CPiercing@@QAEKH@Z		; CPiercing::GetPiercingItem
PUBLIC	?Clear@CPiercing@@QAEXXZ			; CPiercing::Clear
PUBLIC	?IsPiercedItem@CPiercing@@QAEHXZ		; CPiercing::IsPiercedItem
PUBLIC	?SetUltimatePiercingSize@CPiercing@@QAEXH@Z	; CPiercing::SetUltimatePiercingSize
PUBLIC	?GetUltimatePiercingSize@CPiercing@@QAEHXZ	; CPiercing::GetUltimatePiercingSize
PUBLIC	?SetUltimatePiercingItem@CPiercing@@QAEXHK@Z	; CPiercing::SetUltimatePiercingItem
PUBLIC	?GetUltimatePiercingItem@CPiercing@@QAEKH@Z	; CPiercing::GetUltimatePiercingItem
PUBLIC	?deallocate@?$allocator@J@std@@QAEXQAJI@Z	; std::allocator<long>::deallocate
PUBLIC	??1?$vector@JV?$allocator@J@std@@@std@@QAE@XZ	; std::vector<long,std::allocator<long> >::~vector<long,std::allocator<long> >
PUBLIC	?_Xlength@?$vector@JV?$allocator@J@std@@@std@@CAXXZ ; std::vector<long,std::allocator<long> >::_Xlength
PUBLIC	?SetVisKeepTime@CPiercing@@QAEXHJ@Z		; CPiercing::SetVisKeepTime
PUBLIC	?GetVisKeepTime@CPiercing@@QAEJH@Z		; CPiercing::GetVisKeepTime
PUBLIC	??_GCPiercing@@UAEPAXI@Z			; CPiercing::`scalar deleting destructor'
PUBLIC	??$_Resize@J@?$vector@JV?$allocator@J@std@@@std@@AAEXIABJ@Z ; std::vector<long,std::allocator<long> >::_Resize<long>
PUBLIC	??$_Uninitialized_fill_n@V?$allocator@J@std@@@std@@YAPAJPAJIABJAAV?$allocator@J@0@@Z ; std::_Uninitialized_fill_n<std::allocator<long> >
PUBLIC	??$_Is_all_bits_zero@J@std@@YA_NABJ@Z		; std::_Is_all_bits_zero<long>
PUBLIC	??$_Fill_zero_memset@PAJ@std@@YAXPAJI@Z		; std::_Fill_zero_memset<long *>
PUBLIC	??$_Copy_memmove@PAJPAJ@std@@YAPAJPAJ00@Z	; std::_Copy_memmove<long *,long *>
PUBLIC	??$_Copy_memmove_tail@PAJ@std@@YAPAJQBDQAJII@Z	; std::_Copy_memmove_tail<long *>
PUBLIC	??$_Allocate_manually_vector_aligned@U_Default_allocate_traits@std@@@std@@YAPAXI@Z ; std::_Allocate_manually_vector_aligned<std::_Default_allocate_traits>
PUBLIC	??$assign@V?$_Vector_const_iterator@V?$_Vector_val@U?$_Simple_types@K@std@@@std@@@std@@$0A@@?$vector@KV?$allocator@K@std@@@std@@QAEXV?$_Vector_const_iterator@V?$_Vector_val@U?$_Simple_types@K@std@@@std@@@1@0@Z ; std::vector<unsigned long,std::allocator<unsigned long> >::assign<std::_Vector_const_iterator<std::_Vector_val<std::_Simple_types<unsigned long> > >,0>
PUBLIC	??$assign@V?$_Vector_const_iterator@V?$_Vector_val@U?$_Simple_types@J@std@@@std@@@std@@$0A@@?$vector@JV?$allocator@J@std@@@std@@QAEXV?$_Vector_const_iterator@V?$_Vector_val@U?$_Simple_types@J@std@@@std@@@1@0@Z ; std::vector<long,std::allocator<long> >::assign<std::_Vector_const_iterator<std::_Vector_val<std::_Simple_types<long> > >,0>
PUBLIC	??$?6H@CAr@@QAEAAV0@ABH@Z			; CAr::operator<<<int>
PUBLIC	??$?6K@CAr@@QAEAAV0@ABK@Z			; CAr::operator<<<unsigned long>
PUBLIC	??$?6I@CAr@@QAEAAV0@ABI@Z			; CAr::operator<<<unsigned int>
PUBLIC	??$?6J@CAr@@QAEAAV0@ABJ@Z			; CAr::operator<<<long>
PUBLIC	??$?5I@CAr@@QAEAAV0@AAI@Z			; CAr::operator>><unsigned int>
PUBLIC	??$?5K@CAr@@QAEAAV0@AAK@Z			; CAr::operator>><unsigned long>
PUBLIC	??$?5J@CAr@@QAEAAV0@AAJ@Z			; CAr::operator>><long>
PUBLIC	??$_Resize@K@?$vector@KV?$allocator@K@std@@@std@@AAEXIABK@Z ; std::vector<unsigned long,std::allocator<unsigned long> >::_Resize<unsigned long>
PUBLIC	??$_Copy_memmove_n@PBKPAK@std@@YAPAKPBKIPAK@Z	; std::_Copy_memmove_n<unsigned long const *,unsigned long *>
PUBLIC	??$_Copy_memmove_n@PBJPAJ@std@@YAPAJPBJIPAJ@Z	; std::_Copy_memmove_n<long const *,long *>
PUBLIC	??$_Uninitialized_fill_n@V?$allocator@K@std@@@std@@YAPAKPAKIABKAAV?$allocator@K@0@@Z ; std::_Uninitialized_fill_n<std::allocator<unsigned long> >
PUBLIC	??$_Copy_memmove_tail@PAK@std@@YAPAKQBDQAKII@Z	; std::_Copy_memmove_tail<unsigned long *>
PUBLIC	??$_Is_all_bits_zero@K@std@@YA_NABK@Z		; std::_Is_all_bits_zero<unsigned long>
PUBLIC	??$_Fill_zero_memset@PAK@std@@YAXPAKI@Z		; std::_Fill_zero_memset<unsigned long *>
PUBLIC	??$_Copy_memmove@PAKPAK@std@@YAPAKPAK00@Z	; std::_Copy_memmove<unsigned long *,unsigned long *>
PUBLIC	??_7exception@std@@6B@				; std::exception::`vftable'
PUBLIC	??_C@_0BC@EOODALEL@Unknown?5exception@		; `string'
PUBLIC	??_7bad_alloc@std@@6B@				; std::bad_alloc::`vftable'
PUBLIC	??_7bad_array_new_length@std@@6B@		; std::bad_array_new_length::`vftable'
PUBLIC	??_C@_0BF@KINCDENJ@bad?5array?5new?5length@	; `string'
PUBLIC	??_R0?AVexception@std@@@8			; std::exception `RTTI Type Descriptor'
PUBLIC	__CT??_R0?AVexception@std@@@8??0exception@std@@QAE@ABV01@@Z12
PUBLIC	__TI3?AVbad_array_new_length@std@@
PUBLIC	__CTA3?AVbad_array_new_length@std@@
PUBLIC	??_R0?AVbad_array_new_length@std@@@8		; std::bad_array_new_length `RTTI Type Descriptor'
PUBLIC	__CT??_R0?AVbad_array_new_length@std@@@8??0bad_array_new_length@std@@QAE@ABV01@@Z12
PUBLIC	??_R0?AVbad_alloc@std@@@8			; std::bad_alloc `RTTI Type Descriptor'
PUBLIC	__CT??_R0?AVbad_alloc@std@@@8??0bad_alloc@std@@QAE@ABV01@@Z12
PUBLIC	??_7CPiercing@@6B@				; CPiercing::`vftable'
PUBLIC	??_C@_0BA@FOIKENOD@vector?5too?5long@		; `string'
PUBLIC	??_R4exception@std@@6B@				; std::exception::`RTTI Complete Object Locator'
PUBLIC	??_R3exception@std@@8				; std::exception::`RTTI Class Hierarchy Descriptor'
PUBLIC	??_R2exception@std@@8				; std::exception::`RTTI Base Class Array'
PUBLIC	??_R1A@?0A@EA@exception@std@@8			; std::exception::`RTTI Base Class Descriptor at (0,-1,0,64)'
PUBLIC	??_R4bad_array_new_length@std@@6B@		; std::bad_array_new_length::`RTTI Complete Object Locator'
PUBLIC	??_R3bad_array_new_length@std@@8		; std::bad_array_new_length::`RTTI Class Hierarchy Descriptor'
PUBLIC	??_R2bad_array_new_length@std@@8		; std::bad_array_new_length::`RTTI Base Class Array'
PUBLIC	??_R1A@?0A@EA@bad_array_new_length@std@@8	; std::bad_array_new_length::`RTTI Base Class Descriptor at (0,-1,0,64)'
PUBLIC	??_R1A@?0A@EA@bad_alloc@std@@8			; std::bad_alloc::`RTTI Base Class Descriptor at (0,-1,0,64)'
PUBLIC	??_R3bad_alloc@std@@8				; std::bad_alloc::`RTTI Class Hierarchy Descriptor'
PUBLIC	??_R2bad_alloc@std@@8				; std::bad_alloc::`RTTI Base Class Array'
PUBLIC	??_R4bad_alloc@std@@6B@				; std::bad_alloc::`RTTI Complete Object Locator'
PUBLIC	??_R4CPiercing@@6B@				; CPiercing::`RTTI Complete Object Locator'
PUBLIC	??_R0?AVCPiercing@@@8				; CPiercing `RTTI Type Descriptor'
PUBLIC	??_R3CPiercing@@8				; CPiercing::`RTTI Class Hierarchy Descriptor'
PUBLIC	??_R2CPiercing@@8				; CPiercing::`RTTI Base Class Array'
PUBLIC	??_R1A@?0A@EA@CPiercing@@8			; CPiercing::`RTTI Base Class Descriptor at (0,-1,0,64)'
EXTRN	??2@YAPAXI@Z:PROC				; operator new
EXTRN	??3@YAXPAXI@Z:PROC				; operator delete
EXTRN	__invoke_watson:PROC
EXTRN	__time32:PROC
EXTRN	?_Xlength_error@std@@YAXPBD@Z:PROC		; std::_Xlength_error
EXTRN	___std_exception_copy:PROC
EXTRN	___std_exception_destroy:PROC
EXTRN	??_Eexception@std@@UAEPAXI@Z:PROC		; std::exception::`vector deleting destructor'
EXTRN	??_Ebad_alloc@std@@UAEPAXI@Z:PROC		; std::bad_alloc::`vector deleting destructor'
EXTRN	??_Ebad_array_new_length@std@@UAEPAXI@Z:PROC	; std::bad_array_new_length::`vector deleting destructor'
EXTRN	?CheckBuf@CAr@@QAEXI@Z:PROC			; CAr::CheckBuf
EXTRN	??_ECPiercing@@UAEPAXI@Z:PROC			; CPiercing::`vector deleting destructor'
EXTRN	__CxxThrowException@8:PROC
EXTRN	_memmove:PROC
EXTRN	_memset:PROC
EXTRN	??_7type_info@@6B@:QWORD			; type_info::`vftable'
;	COMDAT ??_R1A@?0A@EA@CPiercing@@8
rdata$r	SEGMENT
??_R1A@?0A@EA@CPiercing@@8 DD FLAT:??_R0?AVCPiercing@@@8 ; CPiercing::`RTTI Base Class Descriptor at (0,-1,0,64)'
	DD	00H
	DD	00H
	DD	0ffffffffH
	DD	00H
	DD	040H
	DD	FLAT:??_R3CPiercing@@8
rdata$r	ENDS
;	COMDAT ??_R2CPiercing@@8
rdata$r	SEGMENT
??_R2CPiercing@@8 DD FLAT:??_R1A@?0A@EA@CPiercing@@8	; CPiercing::`RTTI Base Class Array'
rdata$r	ENDS
;	COMDAT ??_R3CPiercing@@8
rdata$r	SEGMENT
??_R3CPiercing@@8 DD 00H				; CPiercing::`RTTI Class Hierarchy Descriptor'
	DD	00H
	DD	01H
	DD	FLAT:??_R2CPiercing@@8
rdata$r	ENDS
;	COMDAT ??_R0?AVCPiercing@@@8
data$rs	SEGMENT
??_R0?AVCPiercing@@@8 DD FLAT:??_7type_info@@6B@	; CPiercing `RTTI Type Descriptor'
	DD	00H
	DB	'.?AVCPiercing@@', 00H
data$rs	ENDS
;	COMDAT ??_R4CPiercing@@6B@
rdata$r	SEGMENT
??_R4CPiercing@@6B@ DD 00H				; CPiercing::`RTTI Complete Object Locator'
	DD	00H
	DD	00H
	DD	FLAT:??_R0?AVCPiercing@@@8
	DD	FLAT:??_R3CPiercing@@8
rdata$r	ENDS
;	COMDAT ??_R4bad_alloc@std@@6B@
rdata$r	SEGMENT
??_R4bad_alloc@std@@6B@ DD 00H				; std::bad_alloc::`RTTI Complete Object Locator'
	DD	00H
	DD	00H
	DD	FLAT:??_R0?AVbad_alloc@std@@@8
	DD	FLAT:??_R3bad_alloc@std@@8
rdata$r	ENDS
;	COMDAT ??_R2bad_alloc@std@@8
rdata$r	SEGMENT
??_R2bad_alloc@std@@8 DD FLAT:??_R1A@?0A@EA@bad_alloc@std@@8 ; std::bad_alloc::`RTTI Base Class Array'
	DD	FLAT:??_R1A@?0A@EA@exception@std@@8
rdata$r	ENDS
;	COMDAT ??_R3bad_alloc@std@@8
rdata$r	SEGMENT
??_R3bad_alloc@std@@8 DD 00H				; std::bad_alloc::`RTTI Class Hierarchy Descriptor'
	DD	00H
	DD	02H
	DD	FLAT:??_R2bad_alloc@std@@8
rdata$r	ENDS
;	COMDAT ??_R1A@?0A@EA@bad_alloc@std@@8
rdata$r	SEGMENT
??_R1A@?0A@EA@bad_alloc@std@@8 DD FLAT:??_R0?AVbad_alloc@std@@@8 ; std::bad_alloc::`RTTI Base Class Descriptor at (0,-1,0,64)'
	DD	01H
	DD	00H
	DD	0ffffffffH
	DD	00H
	DD	040H
	DD	FLAT:??_R3bad_alloc@std@@8
rdata$r	ENDS
;	COMDAT ??_R1A@?0A@EA@bad_array_new_length@std@@8
rdata$r	SEGMENT
??_R1A@?0A@EA@bad_array_new_length@std@@8 DD FLAT:??_R0?AVbad_array_new_length@std@@@8 ; std::bad_array_new_length::`RTTI Base Class Descriptor at (0,-1,0,64)'
	DD	02H
	DD	00H
	DD	0ffffffffH
	DD	00H
	DD	040H
	DD	FLAT:??_R3bad_array_new_length@std@@8
rdata$r	ENDS
;	COMDAT ??_R2bad_array_new_length@std@@8
rdata$r	SEGMENT
??_R2bad_array_new_length@std@@8 DD FLAT:??_R1A@?0A@EA@bad_array_new_length@std@@8 ; std::bad_array_new_length::`RTTI Base Class Array'
	DD	FLAT:??_R1A@?0A@EA@bad_alloc@std@@8
	DD	FLAT:??_R1A@?0A@EA@exception@std@@8
rdata$r	ENDS
;	COMDAT ??_R3bad_array_new_length@std@@8
rdata$r	SEGMENT
??_R3bad_array_new_length@std@@8 DD 00H			; std::bad_array_new_length::`RTTI Class Hierarchy Descriptor'
	DD	00H
	DD	03H
	DD	FLAT:??_R2bad_array_new_length@std@@8
rdata$r	ENDS
;	COMDAT ??_R4bad_array_new_length@std@@6B@
rdata$r	SEGMENT
??_R4bad_array_new_length@std@@6B@ DD 00H		; std::bad_array_new_length::`RTTI Complete Object Locator'
	DD	00H
	DD	00H
	DD	FLAT:??_R0?AVbad_array_new_length@std@@@8
	DD	FLAT:??_R3bad_array_new_length@std@@8
rdata$r	ENDS
;	COMDAT ??_R1A@?0A@EA@exception@std@@8
rdata$r	SEGMENT
??_R1A@?0A@EA@exception@std@@8 DD FLAT:??_R0?AVexception@std@@@8 ; std::exception::`RTTI Base Class Descriptor at (0,-1,0,64)'
	DD	00H
	DD	00H
	DD	0ffffffffH
	DD	00H
	DD	040H
	DD	FLAT:??_R3exception@std@@8
rdata$r	ENDS
;	COMDAT ??_R2exception@std@@8
rdata$r	SEGMENT
??_R2exception@std@@8 DD FLAT:??_R1A@?0A@EA@exception@std@@8 ; std::exception::`RTTI Base Class Array'
rdata$r	ENDS
;	COMDAT ??_R3exception@std@@8
rdata$r	SEGMENT
??_R3exception@std@@8 DD 00H				; std::exception::`RTTI Class Hierarchy Descriptor'
	DD	00H
	DD	01H
	DD	FLAT:??_R2exception@std@@8
rdata$r	ENDS
;	COMDAT ??_R4exception@std@@6B@
rdata$r	SEGMENT
??_R4exception@std@@6B@ DD 00H				; std::exception::`RTTI Complete Object Locator'
	DD	00H
	DD	00H
	DD	FLAT:??_R0?AVexception@std@@@8
	DD	FLAT:??_R3exception@std@@8
rdata$r	ENDS
;	COMDAT ??_C@_0BA@FOIKENOD@vector?5too?5long@
CONST	SEGMENT
??_C@_0BA@FOIKENOD@vector?5too?5long@ DB 'vector too long', 00H ; `string'
CONST	ENDS
;	COMDAT ??_7CPiercing@@6B@
CONST	SEGMENT
??_7CPiercing@@6B@ DD FLAT:??_R4CPiercing@@6B@		; CPiercing::`vftable'
	DD	FLAT:??_ECPiercing@@UAEPAXI@Z
	DD	FLAT:?Serialize@CPiercing@@UAEXAAVCAr@@@Z
CONST	ENDS
;	COMDAT __CT??_R0?AVbad_alloc@std@@@8??0bad_alloc@std@@QAE@ABV01@@Z12
xdata$x	SEGMENT
__CT??_R0?AVbad_alloc@std@@@8??0bad_alloc@std@@QAE@ABV01@@Z12 DD 010H
	DD	FLAT:??_R0?AVbad_alloc@std@@@8
	DD	00H
	DD	0ffffffffH
	ORG $+4
	DD	0cH
	DD	FLAT:??0bad_alloc@std@@QAE@ABV01@@Z
xdata$x	ENDS
;	COMDAT ??_R0?AVbad_alloc@std@@@8
data$r	SEGMENT
??_R0?AVbad_alloc@std@@@8 DD FLAT:??_7type_info@@6B@	; std::bad_alloc `RTTI Type Descriptor'
	DD	00H
	DB	'.?AVbad_alloc@std@@', 00H
data$r	ENDS
;	COMDAT __CT??_R0?AVbad_array_new_length@std@@@8??0bad_array_new_length@std@@QAE@ABV01@@Z12
xdata$x	SEGMENT
__CT??_R0?AVbad_array_new_length@std@@@8??0bad_array_new_length@std@@QAE@ABV01@@Z12 DD 00H
	DD	FLAT:??_R0?AVbad_array_new_length@std@@@8
	DD	00H
	DD	0ffffffffH
	ORG $+4
	DD	0cH
	DD	FLAT:??0bad_array_new_length@std@@QAE@ABV01@@Z
xdata$x	ENDS
;	COMDAT ??_R0?AVbad_array_new_length@std@@@8
data$r	SEGMENT
??_R0?AVbad_array_new_length@std@@@8 DD FLAT:??_7type_info@@6B@ ; std::bad_array_new_length `RTTI Type Descriptor'
	DD	00H
	DB	'.?AVbad_array_new_length@std@@', 00H
data$r	ENDS
;	COMDAT __CTA3?AVbad_array_new_length@std@@
xdata$x	SEGMENT
__CTA3?AVbad_array_new_length@std@@ DD 03H
	DD	FLAT:__CT??_R0?AVbad_array_new_length@std@@@8??0bad_array_new_length@std@@QAE@ABV01@@Z12
	DD	FLAT:__CT??_R0?AVbad_alloc@std@@@8??0bad_alloc@std@@QAE@ABV01@@Z12
	DD	FLAT:__CT??_R0?AVexception@std@@@8??0exception@std@@QAE@ABV01@@Z12
xdata$x	ENDS
;	COMDAT __TI3?AVbad_array_new_length@std@@
xdata$x	SEGMENT
__TI3?AVbad_array_new_length@std@@ DD 00H
	DD	FLAT:??1bad_array_new_length@std@@UAE@XZ
	DD	00H
	DD	FLAT:__CTA3?AVbad_array_new_length@std@@
xdata$x	ENDS
;	COMDAT __CT??_R0?AVexception@std@@@8??0exception@std@@QAE@ABV01@@Z12
xdata$x	SEGMENT
__CT??_R0?AVexception@std@@@8??0exception@std@@QAE@ABV01@@Z12 DD 00H
	DD	FLAT:??_R0?AVexception@std@@@8
	DD	00H
	DD	0ffffffffH
	ORG $+4
	DD	0cH
	DD	FLAT:??0exception@std@@QAE@ABV01@@Z
xdata$x	ENDS
;	COMDAT ??_R0?AVexception@std@@@8
data$r	SEGMENT
??_R0?AVexception@std@@@8 DD FLAT:??_7type_info@@6B@	; std::exception `RTTI Type Descriptor'
	DD	00H
	DB	'.?AVexception@std@@', 00H
data$r	ENDS
;	COMDAT ??_C@_0BF@KINCDENJ@bad?5array?5new?5length@
CONST	SEGMENT
??_C@_0BF@KINCDENJ@bad?5array?5new?5length@ DB 'bad array new length', 00H ; `string'
CONST	ENDS
;	COMDAT ??_7bad_array_new_length@std@@6B@
CONST	SEGMENT
??_7bad_array_new_length@std@@6B@ DD FLAT:??_R4bad_array_new_length@std@@6B@ ; std::bad_array_new_length::`vftable'
	DD	FLAT:??_Ebad_array_new_length@std@@UAEPAXI@Z
	DD	FLAT:?what@exception@std@@UBEPBDXZ
CONST	ENDS
;	COMDAT ??_7bad_alloc@std@@6B@
CONST	SEGMENT
??_7bad_alloc@std@@6B@ DD FLAT:??_R4bad_alloc@std@@6B@	; std::bad_alloc::`vftable'
	DD	FLAT:??_Ebad_alloc@std@@UAEPAXI@Z
	DD	FLAT:?what@exception@std@@UBEPBDXZ
CONST	ENDS
;	COMDAT ??_C@_0BC@EOODALEL@Unknown?5exception@
CONST	SEGMENT
??_C@_0BC@EOODALEL@Unknown?5exception@ DB 'Unknown exception', 00H ; `string'
CONST	ENDS
;	COMDAT ??_7exception@std@@6B@
CONST	SEGMENT
??_7exception@std@@6B@ DD FLAT:??_R4exception@std@@6B@	; std::exception::`vftable'
	DD	FLAT:??_Eexception@std@@UAEPAXI@Z
	DD	FLAT:?what@exception@std@@UBEPBDXZ
CONST	ENDS
; Function compile flags: /Ogtp
; File C:\Program Files\Microsoft Visual Studio\2022\Professional\VC\Tools\MSVC\14.44.35207\include\xutility
;	COMDAT ??$_Copy_memmove@PAKPAK@std@@YAPAKPAK00@Z
_TEXT	SEGMENT
__First$ = 8						; size = 4
__Last$ = 12						; size = 4
__Dest$ = 16						; size = 4
??$_Copy_memmove@PAKPAK@std@@YAPAKPAK00@Z PROC		; std::_Copy_memmove<unsigned long *,unsigned long *>, COMDAT

; 4762 : _OutCtgIt _Copy_memmove(_CtgIt _First, _CtgIt _Last, _OutCtgIt _Dest) {

  00000	55		 push	 ebp
  00001	8b ec		 mov	 ebp, esp

; 4763 :     _STL_INTERNAL_CHECK(_First <= _Last);
; 4764 :     const auto _First_ptr    = _STD _To_address(_First);
; 4765 :     const auto _Last_ptr     = _STD _To_address(_Last);
; 4766 :     const auto _Object_count = static_cast<size_t>(_Last_ptr - _First_ptr);

  00003	8b 55 08	 mov	 edx, DWORD PTR __First$[ebp]
  00006	8b 4d 0c	 mov	 ecx, DWORD PTR __Last$[ebp]
  00009	2b ca		 sub	 ecx, edx
  0000b	8b c1		 mov	 eax, ecx
  0000d	c1 f8 02	 sar	 eax, 2

; 4767 :     const auto _First_ch     = const_cast<const char*>(reinterpret_cast<const volatile char*>(_First_ptr));
; 4768 :     const auto _Last_ch      = const_cast<const char*>(reinterpret_cast<const volatile char*>(_Last_ptr));
; 4769 :     const auto _Byte_count   = static_cast<size_t>(_Last_ch - _First_ch);
; 4770 :     return _STD _Copy_memmove_tail(_First_ch, _STD move(_Dest), _Byte_count, _Object_count);

  00010	50		 push	 eax
  00011	51		 push	 ecx
  00012	ff 75 10	 push	 DWORD PTR __Dest$[ebp]
  00015	52		 push	 edx
  00016	e8 00 00 00 00	 call	 ??$_Copy_memmove_tail@PAK@std@@YAPAKQBDQAKII@Z ; std::_Copy_memmove_tail<unsigned long *>
  0001b	83 c4 10	 add	 esp, 16			; 00000010H

; 4771 : }

  0001e	5d		 pop	 ebp
  0001f	c3		 ret	 0
??$_Copy_memmove@PAKPAK@std@@YAPAKPAK00@Z ENDP		; std::_Copy_memmove<unsigned long *,unsigned long *>
_TEXT	ENDS
; Function compile flags: /Ogtp
; File C:\Program Files\Microsoft Visual Studio\2022\Professional\VC\Tools\MSVC\14.44.35207\include\xutility
;	COMDAT ??$_Fill_zero_memset@PAK@std@@YAXPAKI@Z
_TEXT	SEGMENT
__Dest$ = 8						; size = 4
__Count$ = 12						; size = 4
??$_Fill_zero_memset@PAK@std@@YAXPAKI@Z PROC		; std::_Fill_zero_memset<unsigned long *>, COMDAT

; 5269 : void _Fill_zero_memset(_CtgIt _Dest, const size_t _Count) {

  00000	55		 push	 ebp
  00001	8b ec		 mov	 ebp, esp

; 5270 :     _CSTD memset(_STD _To_address(_Dest), 0, _Count * sizeof(_Iter_value_t<_CtgIt>));

  00003	8b 45 0c	 mov	 eax, DWORD PTR __Count$[ebp]
  00006	c1 e0 02	 shl	 eax, 2
  00009	50		 push	 eax
  0000a	6a 00		 push	 0
  0000c	ff 75 08	 push	 DWORD PTR __Dest$[ebp]
  0000f	e8 00 00 00 00	 call	 _memset
  00014	83 c4 0c	 add	 esp, 12			; 0000000cH

; 5271 : }

  00017	5d		 pop	 ebp
  00018	c3		 ret	 0
??$_Fill_zero_memset@PAK@std@@YAXPAKI@Z ENDP		; std::_Fill_zero_memset<unsigned long *>
_TEXT	ENDS
; Function compile flags: /Ogtp
; File C:\Program Files\Microsoft Visual Studio\2022\Professional\VC\Tools\MSVC\14.44.35207\include\xutility
;	COMDAT ??$_Is_all_bits_zero@K@std@@YA_NABK@Z
_TEXT	SEGMENT
__Zero$1 = -4						; size = 4
__Val$ = 8						; size = 4
??$_Is_all_bits_zero@K@std@@YA_NABK@Z PROC		; std::_Is_all_bits_zero<unsigned long>, COMDAT

; 5274 : _NODISCARD bool _Is_all_bits_zero(const _Ty& _Val) {

  00000	55		 push	 ebp
  00001	8b ec		 mov	 ebp, esp
  00003	51		 push	 ecx

; 5275 :     // checks if scalar type has all bits set to zero
; 5276 :     _STL_INTERNAL_STATIC_ASSERT(is_scalar_v<_Ty> && !is_member_pointer_v<_Ty>);
; 5277 :     if constexpr (is_same_v<_Ty, nullptr_t>) {
; 5278 :         return true;
; 5279 :     } else {
; 5280 :         constexpr _Ty _Zero{};
; 5281 :         return _CSTD memcmp(&_Val, &_Zero, sizeof(_Ty)) == 0;

  00004	8b 45 08	 mov	 eax, DWORD PTR __Val$[ebp]
  00007	8d 4d fc	 lea	 ecx, DWORD PTR __Zero$1[ebp]
  0000a	c7 45 fc 00 00
	00 00		 mov	 DWORD PTR __Zero$1[ebp], 0
  00011	8b 00		 mov	 eax, DWORD PTR [eax]
  00013	3b 01		 cmp	 eax, DWORD PTR [ecx]
  00015	0f 94 c0	 sete	 al

; 5282 :     }
; 5283 : }

  00018	8b e5		 mov	 esp, ebp
  0001a	5d		 pop	 ebp
  0001b	c3		 ret	 0
??$_Is_all_bits_zero@K@std@@YA_NABK@Z ENDP		; std::_Is_all_bits_zero<unsigned long>
_TEXT	ENDS
; Function compile flags: /Ogtp
; File C:\Program Files\Microsoft Visual Studio\2022\Professional\VC\Tools\MSVC\14.44.35207\include\xutility
;	COMDAT ??$_Copy_memmove_tail@PAK@std@@YAPAKQBDQAKII@Z
_TEXT	SEGMENT
__First_ch$ = 8						; size = 4
__Dest$ = 12						; size = 4
__Byte_count$ = 16					; size = 4
__Object_count$ = 20					; size = 4
??$_Copy_memmove_tail@PAK@std@@YAPAKQBDQAKII@Z PROC	; std::_Copy_memmove_tail<unsigned long *>, COMDAT

; 4747 :     const char* const _First_ch, const _OutCtgIt _Dest, const size_t _Byte_count, const size_t _Object_count) {

  00000	55		 push	 ebp
  00001	8b ec		 mov	 ebp, esp
  00003	56		 push	 esi

; 4748 :     _STL_INTERNAL_CHECK(_Byte_count == _Object_count * sizeof(*_Dest));
; 4749 :     const auto _Dest_ptr = _STD _To_address(_Dest);
; 4750 :     const auto _Dest_ch  = const_cast<char*>(reinterpret_cast<const volatile char*>(_Dest_ptr));
; 4751 :     _CSTD memmove(_Dest_ch, _First_ch, _Byte_count);

  00004	8b 75 0c	 mov	 esi, DWORD PTR __Dest$[ebp]
  00007	57		 push	 edi
  00008	8b 7d 10	 mov	 edi, DWORD PTR __Byte_count$[ebp]
  0000b	57		 push	 edi
  0000c	ff 75 08	 push	 DWORD PTR __First_ch$[ebp]
  0000f	56		 push	 esi
  00010	e8 00 00 00 00	 call	 _memmove
  00015	83 c4 0c	 add	 esp, 12			; 0000000cH

; 4752 :     if constexpr (is_pointer_v<_OutCtgIt>) {
; 4753 :         (void) _Object_count;
; 4754 :         // CodeQL [SM02986] This cast is correct: we're bypassing pointer arithmetic for performance.
; 4755 :         return reinterpret_cast<_OutCtgIt>(_Dest_ch + _Byte_count);

  00018	8d 04 3e	 lea	 eax, DWORD PTR [esi+edi]
  0001b	5f		 pop	 edi
  0001c	5e		 pop	 esi

; 4756 :     } else {
; 4757 :         return _Dest + static_cast<_Iter_diff_t<_OutCtgIt>>(_Object_count);
; 4758 :     }
; 4759 : }

  0001d	5d		 pop	 ebp
  0001e	c3		 ret	 0
??$_Copy_memmove_tail@PAK@std@@YAPAKQBDQAKII@Z ENDP	; std::_Copy_memmove_tail<unsigned long *>
_TEXT	ENDS
; Function compile flags: /Ogtp
; File C:\Program Files\Microsoft Visual Studio\2022\Professional\VC\Tools\MSVC\14.44.35207\include\xmemory
;	COMDAT ??$_Uninitialized_fill_n@V?$allocator@K@std@@@std@@YAPAKPAKIABKAAV?$allocator@K@0@@Z
_TEXT	SEGMENT
__First$ = 8						; size = 4
__Count$ = 12						; size = 4
__Val$ = 16						; size = 4
__Al$ = 20						; size = 4
??$_Uninitialized_fill_n@V?$allocator@K@std@@@std@@YAPAKPAKIABKAAV?$allocator@K@0@@Z PROC ; std::_Uninitialized_fill_n<std::allocator<unsigned long> >, COMDAT

; 2007 :     _Alloc_ptr_t<_Alloc> _First, _Alloc_size_t<_Alloc> _Count, const typename _Alloc::value_type& _Val, _Alloc& _Al) {

  00000	55		 push	 ebp
  00001	8b ec		 mov	 ebp, esp
  00003	56		 push	 esi

; 2008 :     // copy _Count copies of _Val to raw _First, using _Al
; 2009 :     using _Ty = typename _Alloc::value_type;
; 2010 :     if constexpr (_Fill_memset_is_safe<_Ty*, _Ty> && _Uses_default_construct<_Alloc, _Ty*, _Ty>::value) {
; 2011 : #if _HAS_CXX20
; 2012 :         if (!_STD is_constant_evaluated())
; 2013 : #endif // _HAS_CXX20
; 2014 :         {
; 2015 :             _Fill_memset(_Unfancy(_First), _Val, static_cast<size_t>(_Count));
; 2016 :             return _First + _Count;
; 2017 :         }
; 2018 :     } else if constexpr (_Fill_zero_memset_is_safe<_Ty*, _Ty> && _Uses_default_construct<_Alloc, _Ty*, _Ty>::value) {
; 2019 : #if _HAS_CXX20
; 2020 :         if (!_STD is_constant_evaluated())
; 2021 : #endif // _HAS_CXX20
; 2022 :         {
; 2023 :             if (_Is_all_bits_zero(_Val)) {

  00004	8b 75 10	 mov	 esi, DWORD PTR __Val$[ebp]
  00007	56		 push	 esi
  00008	e8 00 00 00 00	 call	 ??$_Is_all_bits_zero@K@std@@YA_NABK@Z ; std::_Is_all_bits_zero<unsigned long>
  0000d	83 c4 04	 add	 esp, 4
  00010	84 c0		 test	 al, al
  00012	74 18		 je	 SHORT $LN5@Uninitiali

; 2024 :                 _Fill_zero_memset(_Unfancy(_First), static_cast<size_t>(_Count));

  00014	8b 75 08	 mov	 esi, DWORD PTR __First$[ebp]
  00017	57		 push	 edi
  00018	8b 7d 0c	 mov	 edi, DWORD PTR __Count$[ebp]
  0001b	57		 push	 edi
  0001c	56		 push	 esi
  0001d	e8 00 00 00 00	 call	 ??$_Fill_zero_memset@PAK@std@@YAXPAKI@Z ; std::_Fill_zero_memset<unsigned long *>
  00022	83 c4 08	 add	 esp, 8

; 2025 :                 return _First + _Count;

  00025	8d 04 be	 lea	 eax, DWORD PTR [esi+edi*4]
  00028	5f		 pop	 edi
  00029	5e		 pop	 esi

; 2032 :         _Backout._Emplace_back(_Val);
; 2033 :     }
; 2034 : 
; 2035 :     return _Backout._Release();
; 2036 : }

  0002a	5d		 pop	 ebp
  0002b	c3		 ret	 0
$LN5@Uninitiali:

; 2026 :             }
; 2027 :         }
; 2028 :     }
; 2029 : 
; 2030 :     _Uninitialized_backout_al<_Alloc> _Backout{_First, _Al};
; 2031 :     for (; 0 < _Count; --_Count) {

  0002c	8b 55 0c	 mov	 edx, DWORD PTR __Count$[ebp]

; 1833 :     _CONSTEXPR20 _Uninitialized_backout_al(pointer _Dest, _Alloc& _Al_) : _First(_Dest), _Last(_Dest), _Al(_Al_) {}

  0002f	8b 45 08	 mov	 eax, DWORD PTR __First$[ebp]

; 2026 :             }
; 2027 :         }
; 2028 :     }
; 2029 : 
; 2030 :     _Uninitialized_backout_al<_Alloc> _Backout{_First, _Al};
; 2031 :     for (; 0 < _Count; --_Count) {

  00032	85 d2		 test	 edx, edx
  00034	74 0c		 je	 SHORT $LN1@Uninitiali
$LL4@Uninitiali:

; 1844 :         allocator_traits<_Alloc>::construct(_Al, _STD _Unfancy(_Last), _STD forward<_Types>(_Vals)...);

  00036	8b 0e		 mov	 ecx, DWORD PTR [esi]
  00038	89 08		 mov	 DWORD PTR [eax], ecx

; 1845 :         ++_Last;

  0003a	83 c0 04	 add	 eax, 4

; 2026 :             }
; 2027 :         }
; 2028 :     }
; 2029 : 
; 2030 :     _Uninitialized_backout_al<_Alloc> _Backout{_First, _Al};
; 2031 :     for (; 0 < _Count; --_Count) {

  0003d	83 ea 01	 sub	 edx, 1
  00040	75 f4		 jne	 SHORT $LL4@Uninitiali
$LN1@Uninitiali:
  00042	5e		 pop	 esi

; 2032 :         _Backout._Emplace_back(_Val);
; 2033 :     }
; 2034 : 
; 2035 :     return _Backout._Release();
; 2036 : }

  00043	5d		 pop	 ebp
  00044	c3		 ret	 0
??$_Uninitialized_fill_n@V?$allocator@K@std@@@std@@YAPAKPAKIABKAAV?$allocator@K@0@@Z ENDP ; std::_Uninitialized_fill_n<std::allocator<unsigned long> >
_TEXT	ENDS
; Function compile flags: /Ogtp
; File C:\Program Files\Microsoft Visual Studio\2022\Professional\VC\Tools\MSVC\14.44.35207\include\xutility
;	COMDAT ??$_Copy_memmove_n@PBJPAJ@std@@YAPAJPBJIPAJ@Z
_TEXT	SEGMENT
__First$ = 8						; size = 4
__Object_count$ = 12					; size = 4
__Dest$ = 16						; size = 4
??$_Copy_memmove_n@PBJPAJ@std@@YAPAJPBJIPAJ@Z PROC	; std::_Copy_memmove_n<long const *,long *>, COMDAT

; 4774 : _OutCtgIt _Copy_memmove_n(_CtgIt _First, const size_t _Object_count, _OutCtgIt _Dest) {

  00000	55		 push	 ebp
  00001	8b ec		 mov	 ebp, esp

; 4775 :     const auto _First_ptr  = _STD _To_address(_First);
; 4776 :     const auto _First_ch   = const_cast<const char*>(reinterpret_cast<const volatile char*>(_First_ptr));
; 4777 :     const auto _Byte_count = _Object_count * sizeof(*_First_ptr);
; 4778 :     return _STD _Copy_memmove_tail(_First_ch, _STD move(_Dest), _Byte_count, _Object_count);

  00003	8b 45 0c	 mov	 eax, DWORD PTR __Object_count$[ebp]
  00006	50		 push	 eax
  00007	c1 e0 02	 shl	 eax, 2
  0000a	50		 push	 eax
  0000b	ff 75 10	 push	 DWORD PTR __Dest$[ebp]
  0000e	ff 75 08	 push	 DWORD PTR __First$[ebp]
  00011	e8 00 00 00 00	 call	 ??$_Copy_memmove_tail@PAJ@std@@YAPAJQBDQAJII@Z ; std::_Copy_memmove_tail<long *>
  00016	83 c4 10	 add	 esp, 16			; 00000010H

; 4779 : }

  00019	5d		 pop	 ebp
  0001a	c3		 ret	 0
??$_Copy_memmove_n@PBJPAJ@std@@YAPAJPBJIPAJ@Z ENDP	; std::_Copy_memmove_n<long const *,long *>
_TEXT	ENDS
; Function compile flags: /Ogtp
; File C:\Program Files\Microsoft Visual Studio\2022\Professional\VC\Tools\MSVC\14.44.35207\include\xutility
;	COMDAT ??$_Copy_memmove_n@PBKPAK@std@@YAPAKPBKIPAK@Z
_TEXT	SEGMENT
__First$ = 8						; size = 4
__Object_count$ = 12					; size = 4
__Dest$ = 16						; size = 4
??$_Copy_memmove_n@PBKPAK@std@@YAPAKPBKIPAK@Z PROC	; std::_Copy_memmove_n<unsigned long const *,unsigned long *>, COMDAT

; 4774 : _OutCtgIt _Copy_memmove_n(_CtgIt _First, const size_t _Object_count, _OutCtgIt _Dest) {

  00000	55		 push	 ebp
  00001	8b ec		 mov	 ebp, esp

; 4775 :     const auto _First_ptr  = _STD _To_address(_First);
; 4776 :     const auto _First_ch   = const_cast<const char*>(reinterpret_cast<const volatile char*>(_First_ptr));
; 4777 :     const auto _Byte_count = _Object_count * sizeof(*_First_ptr);
; 4778 :     return _STD _Copy_memmove_tail(_First_ch, _STD move(_Dest), _Byte_count, _Object_count);

  00003	8b 45 0c	 mov	 eax, DWORD PTR __Object_count$[ebp]
  00006	50		 push	 eax
  00007	c1 e0 02	 shl	 eax, 2
  0000a	50		 push	 eax
  0000b	ff 75 10	 push	 DWORD PTR __Dest$[ebp]
  0000e	ff 75 08	 push	 DWORD PTR __First$[ebp]
  00011	e8 00 00 00 00	 call	 ??$_Copy_memmove_tail@PAK@std@@YAPAKQBDQAKII@Z ; std::_Copy_memmove_tail<unsigned long *>
  00016	83 c4 10	 add	 esp, 16			; 00000010H

; 4779 : }

  00019	5d		 pop	 ebp
  0001a	c3		 ret	 0
??$_Copy_memmove_n@PBKPAK@std@@YAPAKPBKIPAK@Z ENDP	; std::_Copy_memmove_n<unsigned long const *,unsigned long *>
_TEXT	ENDS
; Function compile flags: /Ogtp
; File C:\Program Files\Microsoft Visual Studio\2022\Professional\VC\Tools\MSVC\14.44.35207\include\vector
; File C:\Program Files\Microsoft Visual Studio\2022\Professional\VC\Tools\MSVC\14.44.35207\include\xmemory
; File C:\Program Files\Microsoft Visual Studio\2022\Professional\VC\Tools\MSVC\14.44.35207\include\vector
; File C:\Program Files\Microsoft Visual Studio\2022\Professional\VC\Tools\MSVC\14.44.35207\include\xmemory
; File C:\Program Files\Microsoft Visual Studio\2022\Professional\VC\Tools\MSVC\14.44.35207\include\vector
; File C:\Program Files\Microsoft Visual Studio\2022\Professional\VC\Tools\MSVC\14.44.35207\include\xmemory
; File C:\Program Files\Microsoft Visual Studio\2022\Professional\VC\Tools\MSVC\14.44.35207\include\vector
; File C:\Program Files\Microsoft Visual Studio\2022\Professional\VC\Tools\MSVC\14.44.35207\include\xmemory
; File C:\Program Files\Microsoft Visual Studio\2022\Professional\VC\Tools\MSVC\14.44.35207\include\vector
; File C:\Program Files\Microsoft Visual Studio\2022\Professional\VC\Tools\MSVC\14.44.35207\include\xmemory
; File C:\Program Files\Microsoft Visual Studio\2022\Professional\VC\Tools\MSVC\14.44.35207\include\vector
; File C:\Program Files\Microsoft Visual Studio\2022\Professional\VC\Tools\MSVC\14.44.35207\include\xmemory
; File C:\Program Files\Microsoft Visual Studio\2022\Professional\VC\Tools\MSVC\14.44.35207\include\vector
;	COMDAT ??$_Resize@K@?$vector@KV?$allocator@K@std@@@std@@AAEXIABK@Z
_TEXT	SEGMENT
tv575 = -4						; size = 4
__Newsize$ = 8						; size = 4
$T2 = 8							; size = 4
__Val$ = 12						; size = 4
??$_Resize@K@?$vector@KV?$allocator@K@std@@@std@@AAEXIABK@Z PROC ; std::vector<unsigned long,std::allocator<unsigned long> >::_Resize<unsigned long>, COMDAT
; _this$ = ecx

; 1589 :     _CONSTEXPR20 void _Resize(const size_type _Newsize, const _Ty2& _Val) {

  00000	55		 push	 ebp
  00001	8b ec		 mov	 ebp, esp
  00003	51		 push	 ecx
  00004	53		 push	 ebx
  00005	56		 push	 esi

; 1590 :         // trim or append elements, provide strong guarantee
; 1591 :         auto& _Al           = _Getal();
; 1592 :         auto& _My_data      = _Mypair._Myval2;
; 1593 :         pointer& _Myfirst   = _My_data._Myfirst;
; 1594 :         pointer& _Mylast    = _My_data._Mylast;
; 1595 :         const auto _Oldsize = static_cast<size_type>(_Mylast - _Myfirst);
; 1596 :         if (_Newsize < _Oldsize) { // trim

  00006	8b 75 08	 mov	 esi, DWORD PTR __Newsize$[ebp]
  00009	57		 push	 edi
  0000a	8b f9		 mov	 edi, ecx
  0000c	8b 57 04	 mov	 edx, DWORD PTR [edi+4]
  0000f	8b da		 mov	 ebx, edx
  00011	8b 07		 mov	 eax, DWORD PTR [edi]
  00013	2b d8		 sub	 ebx, eax
  00015	c1 fb 02	 sar	 ebx, 2
  00018	3b f3		 cmp	 esi, ebx
  0001a	73 0f		 jae	 SHORT $LN2@Resize

; 1597 :             const pointer _Newlast = _Myfirst + _Newsize;

  0001c	8d 04 b0	 lea	 eax, DWORD PTR [eax+esi*4]

; 1625 :     }

  0001f	89 47 04	 mov	 DWORD PTR [edi+4], eax
  00022	5f		 pop	 edi
  00023	5e		 pop	 esi
  00024	5b		 pop	 ebx
  00025	8b e5		 mov	 esp, ebp
  00027	5d		 pop	 ebp
  00028	c2 08 00	 ret	 8
$LN2@Resize:

; 1598 :             _Orphan_range(_Newlast, _Mylast);
; 1599 :             _Destroy_range(_Newlast, _Mylast, _Al);
; 1600 :             _ASAN_VECTOR_MODIFY(static_cast<difference_type>(_Newsize - _Oldsize));
; 1601 :             _Mylast = _Newlast;
; 1602 :             return;
; 1603 :         }
; 1604 : 
; 1605 :         if (_Newsize > _Oldsize) { // append

  0002b	0f 86 0e 01 00
	00		 jbe	 $LN3@Resize

; 1606 :             const auto _Oldcapacity = static_cast<size_type>(_My_data._Myend - _Myfirst);

  00031	8b 4f 08	 mov	 ecx, DWORD PTR [edi+8]
  00034	2b c8		 sub	 ecx, eax
  00036	c1 f9 02	 sar	 ecx, 2

; 1607 :             if (_Newsize > _Oldcapacity) { // reallocate

  00039	3b f1		 cmp	 esi, ecx
  0003b	0f 86 eb 00 00
	00		 jbe	 $LN4@Resize

; 1553 :         if (_Newsize > max_size()) {

  00041	81 fe ff ff ff
	3f		 cmp	 esi, 1073741823		; 3fffffffH
  00047	0f 87 fb 00 00
	00		 ja	 $LN97@Resize

; 2011 :         if (_Oldcapacity > _Max - _Oldcapacity / 2) {

  0004d	8b d1		 mov	 edx, ecx
  0004f	b8 ff ff ff 3f	 mov	 eax, 1073741823		; 3fffffffH
  00054	d1 ea		 shr	 edx, 1
  00056	2b c2		 sub	 eax, edx
  00058	3b c8		 cmp	 ecx, eax
  0005a	76 19		 jbe	 SHORT $LN11@Resize

; 2012 :             return _Max; // geometric growth would overflow

  0005c	b8 fc ff ff ff	 mov	 eax, -4			; fffffffcH
  00061	c7 45 fc fc ff
	ff ff		 mov	 DWORD PTR tv575[ebp], -4 ; fffffffcH
; File C:\Program Files\Microsoft Visual Studio\2022\Professional\VC\Tools\MSVC\14.44.35207\include\xmemory

; 253  :             return _Allocate_manually_vector_aligned<_Traits>(_Bytes);

  00068	50		 push	 eax
  00069	e8 00 00 00 00	 call	 ??$_Allocate_manually_vector_aligned@U_Default_allocate_traits@std@@@std@@YAPAXI@Z ; std::_Allocate_manually_vector_aligned<std::_Default_allocate_traits>
  0006e	8b c8		 mov	 ecx, eax
  00070	89 4d 08	 mov	 DWORD PTR $T2[ebp], ecx
  00073	eb 46		 jmp	 SHORT $LN95@Resize
$LN11@Resize:
; File C:\Program Files\Microsoft Visual Studio\2022\Professional\VC\Tools\MSVC\14.44.35207\include\vector

; 2015 :         const size_type _Geometric = _Oldcapacity + _Oldcapacity / 2;

  00075	8d 04 0a	 lea	 eax, DWORD PTR [edx+ecx]

; 2016 : 
; 2017 :         if (_Geometric < _Newsize) {

  00078	3b c6		 cmp	 eax, esi
  0007a	73 13		 jae	 SHORT $LN12@Resize

; 2018 :             return _Newsize; // geometric growth would be insufficient

  0007c	8b c6		 mov	 eax, esi
$LN22@Resize:
; File C:\Program Files\Microsoft Visual Studio\2022\Professional\VC\Tools\MSVC\14.44.35207\include\xmemory

; 122  :     return _Count * _Ty_size;

  0007e	c1 e0 02	 shl	 eax, 2
  00081	89 45 fc	 mov	 DWORD PTR tv575[ebp], eax

; 227  :     if (_Bytes == 0) {

  00084	85 c0		 test	 eax, eax
  00086	75 14		 jne	 SHORT $LN26@Resize

; 228  :         return nullptr;

  00088	33 c9		 xor	 ecx, ecx
  0008a	89 4d 08	 mov	 DWORD PTR $T2[ebp], ecx
  0008d	eb 2f		 jmp	 SHORT $LN25@Resize
$LN12@Resize:

; 117  :         if (_Count > _Max_possible) {

  0008f	3d ff ff ff 3f	 cmp	 eax, 1073741823		; 3fffffffH
  00094	0f 87 b3 00 00
	00		 ja	 $LN98@Resize
  0009a	eb e2		 jmp	 SHORT $LN22@Resize
$LN26@Resize:

; 251  :         if (_Bytes >= _Big_allocation_threshold) {

  0009c	3d 00 10 00 00	 cmp	 eax, 4096		; 00001000H
  000a1	72 0d		 jb	 SHORT $LN27@Resize

; 253  :             return _Allocate_manually_vector_aligned<_Traits>(_Bytes);

  000a3	50		 push	 eax
  000a4	e8 00 00 00 00	 call	 ??$_Allocate_manually_vector_aligned@U_Default_allocate_traits@std@@@std@@YAPAXI@Z ; std::_Allocate_manually_vector_aligned<std::_Default_allocate_traits>
  000a9	8b c8		 mov	 ecx, eax
  000ab	89 4d 08	 mov	 DWORD PTR $T2[ebp], ecx
  000ae	eb 0b		 jmp	 SHORT $LN95@Resize
$LN27@Resize:

; 136  :         return ::operator new(_Bytes);

  000b0	50		 push	 eax
  000b1	e8 00 00 00 00	 call	 ??2@YAPAXI@Z		; operator new

; 256  :         return _Traits::_Allocate(_Bytes);

  000b6	8b c8		 mov	 ecx, eax
  000b8	89 45 08	 mov	 DWORD PTR $T2[ebp], eax
$LN95@Resize:
; File C:\Program Files\Microsoft Visual Studio\2022\Professional\VC\Tools\MSVC\14.44.35207\include\vector

; 1572 :             _Appended_last = _Uninitialized_fill_n(_Appended_first, _Newsize - _Oldsize, _Val, _Al);

  000bb	83 c4 04	 add	 esp, 4
$LN25@Resize:
  000be	57		 push	 edi
  000bf	ff 75 0c	 push	 DWORD PTR __Val$[ebp]
  000c2	8b c6		 mov	 eax, esi
  000c4	2b c3		 sub	 eax, ebx
  000c6	50		 push	 eax
  000c7	8d 04 99	 lea	 eax, DWORD PTR [ecx+ebx*4]
  000ca	50		 push	 eax
  000cb	e8 00 00 00 00	 call	 ??$_Uninitialized_fill_n@V?$allocator@K@std@@@std@@YAPAKPAKIABKAAV?$allocator@K@0@@Z ; std::_Uninitialized_fill_n<std::allocator<unsigned long> >
; File C:\Program Files\Microsoft Visual Studio\2022\Professional\VC\Tools\MSVC\14.44.35207\include\xmemory

; 1992 :             _STD _Copy_memmove(_UFirst, _ULast, _STD _Unfancy(_Dest));

  000d0	8b 5d 08	 mov	 ebx, DWORD PTR $T2[ebp]
  000d3	53		 push	 ebx
  000d4	ff 77 04	 push	 DWORD PTR [edi+4]
  000d7	ff 37		 push	 DWORD PTR [edi]
  000d9	e8 00 00 00 00	 call	 ??$_Copy_memmove@PAKPAK@std@@YAPAKPAK00@Z ; std::_Copy_memmove<unsigned long *,unsigned long *>
; File C:\Program Files\Microsoft Visual Studio\2022\Professional\VC\Tools\MSVC\14.44.35207\include\vector

; 2069 :         if (_Myfirst) { // destroy and deallocate old array

  000de	8b 07		 mov	 eax, DWORD PTR [edi]
; File C:\Program Files\Microsoft Visual Studio\2022\Professional\VC\Tools\MSVC\14.44.35207\include\xmemory

; 1992 :             _STD _Copy_memmove(_UFirst, _ULast, _STD _Unfancy(_Dest));

  000e0	83 c4 1c	 add	 esp, 28			; 0000001cH
; File C:\Program Files\Microsoft Visual Studio\2022\Professional\VC\Tools\MSVC\14.44.35207\include\vector

; 2069 :         if (_Myfirst) { // destroy and deallocate old array

  000e3	85 c0		 test	 eax, eax
  000e5	74 2c		 je	 SHORT $LN53@Resize

; 2070 :             _STD _Destroy_range(_Myfirst, _Mylast, _Al);
; 2071 :             _ASAN_VECTOR_REMOVE;
; 2072 :             _Al.deallocate(_Myfirst, static_cast<size_type>(_Myend - _Myfirst));

  000e7	8b 4f 08	 mov	 ecx, DWORD PTR [edi+8]
  000ea	2b c8		 sub	 ecx, eax
; File C:\Program Files\Microsoft Visual Studio\2022\Professional\VC\Tools\MSVC\14.44.35207\include\xmemory

; 985  :         _STD _Deallocate<_New_alignof<_Ty>>(_Ptr, sizeof(_Ty) * _Count);

  000ec	83 e1 fc	 and	 ecx, -4			; fffffffcH

; 284  :         if (_Bytes >= _Big_allocation_threshold) {

  000ef	81 f9 00 10 00
	00		 cmp	 ecx, 4096		; 00001000H
  000f5	72 12		 jb	 SHORT $LN58@Resize

; 205  :     const uintptr_t _Ptr_container   = _Ptr_user[-1];

  000f7	8b 50 fc	 mov	 edx, DWORD PTR [eax-4]
  000fa	83 c1 23	 add	 ecx, 35			; 00000023H

; 206  : 
; 207  :     // If the following asserts, it likely means that we are performing
; 208  :     // an aligned delete on memory coming from an unaligned allocation.
; 209  :     _STL_ASSERT(_Ptr_user[-2] == _Big_allocation_sentinel, "invalid argument");
; 210  : 
; 211  :     // Extra paranoia on aligned allocation/deallocation; ensure _Ptr_container is
; 212  :     // in range [_Min_back_shift, _Non_user_size]
; 213  : #ifdef _DEBUG
; 214  :     constexpr uintptr_t _Min_back_shift = 2 * sizeof(void*);
; 215  : #else // ^^^ defined(_DEBUG) / !defined(_DEBUG) vvv
; 216  :     constexpr uintptr_t _Min_back_shift = sizeof(void*);
; 217  : #endif // ^^^ !defined(_DEBUG) ^^^
; 218  :     const uintptr_t _Back_shift = reinterpret_cast<uintptr_t>(_Ptr) - _Ptr_container;

  000fd	2b c2		 sub	 eax, edx

; 219  :     _STL_VERIFY(_Back_shift >= _Min_back_shift && _Back_shift <= _Non_user_size, "invalid argument");

  000ff	83 c0 fc	 add	 eax, -4			; fffffffcH
  00102	83 f8 1f	 cmp	 eax, 31			; 0000001fH
  00105	77 4b		 ja	 SHORT $LN57@Resize

; 220  :     _Ptr = reinterpret_cast<void*>(_Ptr_container);

  00107	8b c2		 mov	 eax, edx
$LN58@Resize:

; 289  :         ::operator delete(_Ptr, _Bytes);

  00109	51		 push	 ecx
  0010a	50		 push	 eax
  0010b	e8 00 00 00 00	 call	 ??3@YAXPAXI@Z		; operator delete
  00110	83 c4 08	 add	 esp, 8
$LN53@Resize:
; File C:\Program Files\Microsoft Visual Studio\2022\Professional\VC\Tools\MSVC\14.44.35207\include\vector

; 2076 :         _Mylast  = _Newvec + _Newsize;

  00113	8d 04 b3	 lea	 eax, DWORD PTR [ebx+esi*4]
  00116	89 1f		 mov	 DWORD PTR [edi], ebx
  00118	89 47 04	 mov	 DWORD PTR [edi+4], eax

; 2077 :         _Myend   = _Newvec + _Newcapacity;

  0011b	8b 45 fc	 mov	 eax, DWORD PTR tv575[ebp]
  0011e	03 c3		 add	 eax, ebx
  00120	89 47 08	 mov	 DWORD PTR [edi+8], eax
  00123	5f		 pop	 edi

; 1625 :     }

  00124	5e		 pop	 esi
  00125	5b		 pop	 ebx
  00126	8b e5		 mov	 esp, ebp
  00128	5d		 pop	 ebp
  00129	c2 08 00	 ret	 8
$LN4@Resize:

; 1608 :                 _Resize_reallocate(_Newsize, _Val);
; 1609 :                 return;
; 1610 :             }
; 1611 : 
; 1612 :             _ASAN_VECTOR_EXTEND_GUARD(_Newsize);
; 1613 :             const pointer _Oldlast = _Mylast;
; 1614 :             if constexpr (is_same_v<_Ty2, _Ty>) {
; 1615 :                 _Mylast = _Uninitialized_fill_n(_Oldlast, _Newsize - _Oldsize, _Val, _Al);

  0012c	57		 push	 edi
  0012d	ff 75 0c	 push	 DWORD PTR __Val$[ebp]
  00130	2b f3		 sub	 esi, ebx
  00132	56		 push	 esi
  00133	52		 push	 edx
  00134	e8 00 00 00 00	 call	 ??$_Uninitialized_fill_n@V?$allocator@K@std@@@std@@YAPAKPAKIABKAAV?$allocator@K@0@@Z ; std::_Uninitialized_fill_n<std::allocator<unsigned long> >
  00139	83 c4 10	 add	 esp, 16			; 00000010H

; 1625 :     }

  0013c	89 47 04	 mov	 DWORD PTR [edi+4], eax
$LN3@Resize:
  0013f	5f		 pop	 edi
  00140	5e		 pop	 esi
  00141	5b		 pop	 ebx
  00142	8b e5		 mov	 esp, ebp
  00144	5d		 pop	 ebp
  00145	c2 08 00	 ret	 8
$LN97@Resize:

; 1554 :             _Xlength();

  00148	e8 00 00 00 00	 call	 ?_Xlength@?$vector@KV?$allocator@K@std@@@std@@CAXXZ ; std::vector<unsigned long,std::allocator<unsigned long> >::_Xlength
$LN98@Resize:
; File C:\Program Files\Microsoft Visual Studio\2022\Professional\VC\Tools\MSVC\14.44.35207\include\xmemory

; 118  :             _Throw_bad_array_new_length(); // multiply overflow

  0014d	e8 00 00 00 00	 call	 ?_Throw_bad_array_new_length@std@@YAXXZ ; std::_Throw_bad_array_new_length
$LN57@Resize:

; 219  :     _STL_VERIFY(_Back_shift >= _Min_back_shift && _Back_shift <= _Non_user_size, "invalid argument");

  00152	6a 00		 push	 0
  00154	6a 00		 push	 0
  00156	6a 00		 push	 0
  00158	6a 00		 push	 0
  0015a	6a 00		 push	 0
  0015c	e8 00 00 00 00	 call	 __invoke_watson
$LN93@Resize:
  00161	cc		 int	 3
??$_Resize@K@?$vector@KV?$allocator@K@std@@@std@@AAEXIABK@Z ENDP ; std::vector<unsigned long,std::allocator<unsigned long> >::_Resize<unsigned long>
_TEXT	ENDS
; Function compile flags: /Ogtp
; File C:\IAGOS\server\v18\Source\Source\_Network\Misc\Include\Ar.h
;	COMDAT ??$?5J@CAr@@QAEAAV0@AAJ@Z
_TEXT	SEGMENT
_t$ = 8							; size = 4
??$?5J@CAr@@QAEAAV0@AAJ@Z PROC				; CAr::operator>><long>, COMDAT
; _this$ = ecx

; 302  : {

  00000	55		 push	 ebp
  00001	8b ec		 mov	 ebp, esp
  00003	8b d1		 mov	 edx, ecx

; 303  : 	if (m_lpBufCur + sizeof(T) <= m_lpBufMax)

  00005	8b 4a 08	 mov	 ecx, DWORD PTR [edx+8]
  00008	8d 41 04	 lea	 eax, DWORD PTR [ecx+4]
  0000b	3b 42 0c	 cmp	 eax, DWORD PTR [edx+12]
  0000e	8b 45 08	 mov	 eax, DWORD PTR _t$[ebp]
  00011	77 0e		 ja	 SHORT $LN2@operator

; 304  : 	{
; 305  : 		t = *(UNALIGNED T*)m_lpBufCur;

  00013	8b 09		 mov	 ecx, DWORD PTR [ecx]
  00015	89 08		 mov	 DWORD PTR [eax], ecx

; 312  : 	}
; 313  : 	return *this;
; 314  : }

  00017	8b c2		 mov	 eax, edx
  00019	83 42 08 04	 add	 DWORD PTR [edx+8], 4
  0001d	5d		 pop	 ebp
  0001e	c2 04 00	 ret	 4
$LN2@operator:

; 306  : 		m_lpBufCur += sizeof(T);
; 307  : 	}
; 308  : 	else
; 309  : 	{
; 310  : 		t = T();

  00021	c7 00 00 00 00
	00		 mov	 DWORD PTR [eax], 0

; 311  : 		m_lpBufCur = m_lpBufMax;

  00027	8b 42 0c	 mov	 eax, DWORD PTR [edx+12]
  0002a	89 42 08	 mov	 DWORD PTR [edx+8], eax

; 312  : 	}
; 313  : 	return *this;
; 314  : }

  0002d	8b c2		 mov	 eax, edx
  0002f	5d		 pop	 ebp
  00030	c2 04 00	 ret	 4
??$?5J@CAr@@QAEAAV0@AAJ@Z ENDP				; CAr::operator>><long>
_TEXT	ENDS
; Function compile flags: /Ogtp
; File C:\IAGOS\server\v18\Source\Source\_Network\Misc\Include\Ar.h
;	COMDAT ??$?5K@CAr@@QAEAAV0@AAK@Z
_TEXT	SEGMENT
_t$ = 8							; size = 4
??$?5K@CAr@@QAEAAV0@AAK@Z PROC				; CAr::operator>><unsigned long>, COMDAT
; _this$ = ecx

; 302  : {

  00000	55		 push	 ebp
  00001	8b ec		 mov	 ebp, esp
  00003	8b d1		 mov	 edx, ecx

; 303  : 	if (m_lpBufCur + sizeof(T) <= m_lpBufMax)

  00005	8b 4a 08	 mov	 ecx, DWORD PTR [edx+8]
  00008	8d 41 04	 lea	 eax, DWORD PTR [ecx+4]
  0000b	3b 42 0c	 cmp	 eax, DWORD PTR [edx+12]
  0000e	8b 45 08	 mov	 eax, DWORD PTR _t$[ebp]
  00011	77 0e		 ja	 SHORT $LN2@operator

; 304  : 	{
; 305  : 		t = *(UNALIGNED T*)m_lpBufCur;

  00013	8b 09		 mov	 ecx, DWORD PTR [ecx]
  00015	89 08		 mov	 DWORD PTR [eax], ecx

; 312  : 	}
; 313  : 	return *this;
; 314  : }

  00017	8b c2		 mov	 eax, edx
  00019	83 42 08 04	 add	 DWORD PTR [edx+8], 4
  0001d	5d		 pop	 ebp
  0001e	c2 04 00	 ret	 4
$LN2@operator:

; 306  : 		m_lpBufCur += sizeof(T);
; 307  : 	}
; 308  : 	else
; 309  : 	{
; 310  : 		t = T();

  00021	c7 00 00 00 00
	00		 mov	 DWORD PTR [eax], 0

; 311  : 		m_lpBufCur = m_lpBufMax;

  00027	8b 42 0c	 mov	 eax, DWORD PTR [edx+12]
  0002a	89 42 08	 mov	 DWORD PTR [edx+8], eax

; 312  : 	}
; 313  : 	return *this;
; 314  : }

  0002d	8b c2		 mov	 eax, edx
  0002f	5d		 pop	 ebp
  00030	c2 04 00	 ret	 4
??$?5K@CAr@@QAEAAV0@AAK@Z ENDP				; CAr::operator>><unsigned long>
_TEXT	ENDS
; Function compile flags: /Ogtp
; File C:\IAGOS\server\v18\Source\Source\_Network\Misc\Include\Ar.h
;	COMDAT ??$?5I@CAr@@QAEAAV0@AAI@Z
_TEXT	SEGMENT
_t$ = 8							; size = 4
??$?5I@CAr@@QAEAAV0@AAI@Z PROC				; CAr::operator>><unsigned int>, COMDAT
; _this$ = ecx

; 302  : {

  00000	55		 push	 ebp
  00001	8b ec		 mov	 ebp, esp
  00003	8b d1		 mov	 edx, ecx

; 303  : 	if (m_lpBufCur + sizeof(T) <= m_lpBufMax)

  00005	8b 4a 08	 mov	 ecx, DWORD PTR [edx+8]
  00008	8d 41 04	 lea	 eax, DWORD PTR [ecx+4]
  0000b	3b 42 0c	 cmp	 eax, DWORD PTR [edx+12]
  0000e	8b 45 08	 mov	 eax, DWORD PTR _t$[ebp]
  00011	77 0e		 ja	 SHORT $LN2@operator

; 304  : 	{
; 305  : 		t = *(UNALIGNED T*)m_lpBufCur;

  00013	8b 09		 mov	 ecx, DWORD PTR [ecx]
  00015	89 08		 mov	 DWORD PTR [eax], ecx

; 312  : 	}
; 313  : 	return *this;
; 314  : }

  00017	8b c2		 mov	 eax, edx
  00019	83 42 08 04	 add	 DWORD PTR [edx+8], 4
  0001d	5d		 pop	 ebp
  0001e	c2 04 00	 ret	 4
$LN2@operator:

; 306  : 		m_lpBufCur += sizeof(T);
; 307  : 	}
; 308  : 	else
; 309  : 	{
; 310  : 		t = T();

  00021	c7 00 00 00 00
	00		 mov	 DWORD PTR [eax], 0

; 311  : 		m_lpBufCur = m_lpBufMax;

  00027	8b 42 0c	 mov	 eax, DWORD PTR [edx+12]
  0002a	89 42 08	 mov	 DWORD PTR [edx+8], eax

; 312  : 	}
; 313  : 	return *this;
; 314  : }

  0002d	8b c2		 mov	 eax, edx
  0002f	5d		 pop	 ebp
  00030	c2 04 00	 ret	 4
??$?5I@CAr@@QAEAAV0@AAI@Z ENDP				; CAr::operator>><unsigned int>
_TEXT	ENDS
; Function compile flags: /Ogtp
; File C:\IAGOS\server\v18\Source\Source\_Network\Misc\Include\Ar.h
;	COMDAT ??$?6J@CAr@@QAEAAV0@ABJ@Z
_TEXT	SEGMENT
_t$ = 8							; size = 4
??$?6J@CAr@@QAEAAV0@ABJ@Z PROC				; CAr::operator<<<long>, COMDAT
; _this$ = ecx

; 255  : {

  00000	55		 push	 ebp
  00001	8b ec		 mov	 ebp, esp
  00003	56		 push	 esi

; 256  : 	CheckBuf(sizeof(T));

  00004	6a 04		 push	 4
  00006	8b f1		 mov	 esi, ecx
  00008	e8 00 00 00 00	 call	 ?CheckBuf@CAr@@QAEXI@Z	; CAr::CheckBuf

; 257  : 	*(UNALIGNED T*)m_lpBufCur = t;

  0000d	8b 56 08	 mov	 edx, DWORD PTR [esi+8]
  00010	8b 45 08	 mov	 eax, DWORD PTR _t$[ebp]
  00013	8b 00		 mov	 eax, DWORD PTR [eax]
  00015	89 02		 mov	 DWORD PTR [edx], eax

; 258  : 	m_lpBufCur += sizeof(T);
; 259  : 	return *this;

  00017	8b c6		 mov	 eax, esi
  00019	83 46 08 04	 add	 DWORD PTR [esi+8], 4
  0001d	5e		 pop	 esi

; 260  : }

  0001e	5d		 pop	 ebp
  0001f	c2 04 00	 ret	 4
??$?6J@CAr@@QAEAAV0@ABJ@Z ENDP				; CAr::operator<<<long>
_TEXT	ENDS
; Function compile flags: /Ogtp
; File C:\IAGOS\server\v18\Source\Source\_Network\Misc\Include\Ar.h
;	COMDAT ??$?6I@CAr@@QAEAAV0@ABI@Z
_TEXT	SEGMENT
_t$ = 8							; size = 4
??$?6I@CAr@@QAEAAV0@ABI@Z PROC				; CAr::operator<<<unsigned int>, COMDAT
; _this$ = ecx

; 255  : {

  00000	55		 push	 ebp
  00001	8b ec		 mov	 ebp, esp
  00003	56		 push	 esi

; 256  : 	CheckBuf(sizeof(T));

  00004	6a 04		 push	 4
  00006	8b f1		 mov	 esi, ecx
  00008	e8 00 00 00 00	 call	 ?CheckBuf@CAr@@QAEXI@Z	; CAr::CheckBuf

; 257  : 	*(UNALIGNED T*)m_lpBufCur = t;

  0000d	8b 56 08	 mov	 edx, DWORD PTR [esi+8]
  00010	8b 45 08	 mov	 eax, DWORD PTR _t$[ebp]
  00013	8b 00		 mov	 eax, DWORD PTR [eax]
  00015	89 02		 mov	 DWORD PTR [edx], eax

; 258  : 	m_lpBufCur += sizeof(T);
; 259  : 	return *this;

  00017	8b c6		 mov	 eax, esi
  00019	83 46 08 04	 add	 DWORD PTR [esi+8], 4
  0001d	5e		 pop	 esi

; 260  : }

  0001e	5d		 pop	 ebp
  0001f	c2 04 00	 ret	 4
??$?6I@CAr@@QAEAAV0@ABI@Z ENDP				; CAr::operator<<<unsigned int>
_TEXT	ENDS
; Function compile flags: /Ogtp
; File C:\IAGOS\server\v18\Source\Source\_Network\Misc\Include\Ar.h
;	COMDAT ??$?6K@CAr@@QAEAAV0@ABK@Z
_TEXT	SEGMENT
_t$ = 8							; size = 4
??$?6K@CAr@@QAEAAV0@ABK@Z PROC				; CAr::operator<<<unsigned long>, COMDAT
; _this$ = ecx

; 255  : {

  00000	55		 push	 ebp
  00001	8b ec		 mov	 ebp, esp
  00003	56		 push	 esi

; 256  : 	CheckBuf(sizeof(T));

  00004	6a 04		 push	 4
  00006	8b f1		 mov	 esi, ecx
  00008	e8 00 00 00 00	 call	 ?CheckBuf@CAr@@QAEXI@Z	; CAr::CheckBuf

; 257  : 	*(UNALIGNED T*)m_lpBufCur = t;

  0000d	8b 56 08	 mov	 edx, DWORD PTR [esi+8]
  00010	8b 45 08	 mov	 eax, DWORD PTR _t$[ebp]
  00013	8b 00		 mov	 eax, DWORD PTR [eax]
  00015	89 02		 mov	 DWORD PTR [edx], eax

; 258  : 	m_lpBufCur += sizeof(T);
; 259  : 	return *this;

  00017	8b c6		 mov	 eax, esi
  00019	83 46 08 04	 add	 DWORD PTR [esi+8], 4
  0001d	5e		 pop	 esi

; 260  : }

  0001e	5d		 pop	 ebp
  0001f	c2 04 00	 ret	 4
??$?6K@CAr@@QAEAAV0@ABK@Z ENDP				; CAr::operator<<<unsigned long>
_TEXT	ENDS
; Function compile flags: /Ogtp
; File C:\IAGOS\server\v18\Source\Source\_Network\Misc\Include\Ar.h
;	COMDAT ??$?6H@CAr@@QAEAAV0@ABH@Z
_TEXT	SEGMENT
_t$ = 8							; size = 4
??$?6H@CAr@@QAEAAV0@ABH@Z PROC				; CAr::operator<<<int>, COMDAT
; _this$ = ecx

; 255  : {

  00000	55		 push	 ebp
  00001	8b ec		 mov	 ebp, esp
  00003	56		 push	 esi

; 256  : 	CheckBuf(sizeof(T));

  00004	6a 04		 push	 4
  00006	8b f1		 mov	 esi, ecx
  00008	e8 00 00 00 00	 call	 ?CheckBuf@CAr@@QAEXI@Z	; CAr::CheckBuf

; 257  : 	*(UNALIGNED T*)m_lpBufCur = t;

  0000d	8b 56 08	 mov	 edx, DWORD PTR [esi+8]
  00010	8b 45 08	 mov	 eax, DWORD PTR _t$[ebp]
  00013	8b 00		 mov	 eax, DWORD PTR [eax]
  00015	89 02		 mov	 DWORD PTR [edx], eax

; 258  : 	m_lpBufCur += sizeof(T);
; 259  : 	return *this;

  00017	8b c6		 mov	 eax, esi
  00019	83 46 08 04	 add	 DWORD PTR [esi+8], 4
  0001d	5e		 pop	 esi

; 260  : }

  0001e	5d		 pop	 ebp
  0001f	c2 04 00	 ret	 4
??$?6H@CAr@@QAEAAV0@ABH@Z ENDP				; CAr::operator<<<int>
_TEXT	ENDS
; Function compile flags: /Ogtp
; File C:\Program Files\Microsoft Visual Studio\2022\Professional\VC\Tools\MSVC\14.44.35207\include\vector
; File C:\Program Files\Microsoft Visual Studio\2022\Professional\VC\Tools\MSVC\14.44.35207\include\xutility
; File C:\Program Files\Microsoft Visual Studio\2022\Professional\VC\Tools\MSVC\14.44.35207\include\vector
; File C:\Program Files\Microsoft Visual Studio\2022\Professional\VC\Tools\MSVC\14.44.35207\include\xutility
; File C:\Program Files\Microsoft Visual Studio\2022\Professional\VC\Tools\MSVC\14.44.35207\include\vector
; File C:\Program Files\Microsoft Visual Studio\2022\Professional\VC\Tools\MSVC\14.44.35207\include\xutility
; File C:\Program Files\Microsoft Visual Studio\2022\Professional\VC\Tools\MSVC\14.44.35207\include\vector
; File C:\Program Files\Microsoft Visual Studio\2022\Professional\VC\Tools\MSVC\14.44.35207\include\xutility
; File C:\Program Files\Microsoft Visual Studio\2022\Professional\VC\Tools\MSVC\14.44.35207\include\vector
; File C:\Program Files\Microsoft Visual Studio\2022\Professional\VC\Tools\MSVC\14.44.35207\include\xutility
; File C:\Program Files\Microsoft Visual Studio\2022\Professional\VC\Tools\MSVC\14.44.35207\include\vector
; File C:\Program Files\Microsoft Visual Studio\2022\Professional\VC\Tools\MSVC\14.44.35207\include\xmemory
; File C:\Program Files\Microsoft Visual Studio\2022\Professional\VC\Tools\MSVC\14.44.35207\include\vector
; File C:\Program Files\Microsoft Visual Studio\2022\Professional\VC\Tools\MSVC\14.44.35207\include\xmemory
; File C:\Program Files\Microsoft Visual Studio\2022\Professional\VC\Tools\MSVC\14.44.35207\include\vector
; File C:\Program Files\Microsoft Visual Studio\2022\Professional\VC\Tools\MSVC\14.44.35207\include\xmemory
; File C:\Program Files\Microsoft Visual Studio\2022\Professional\VC\Tools\MSVC\14.44.35207\include\vector
; File C:\Program Files\Microsoft Visual Studio\2022\Professional\VC\Tools\MSVC\14.44.35207\include\xmemory
; File C:\Program Files\Microsoft Visual Studio\2022\Professional\VC\Tools\MSVC\14.44.35207\include\vector
; File C:\Program Files\Microsoft Visual Studio\2022\Professional\VC\Tools\MSVC\14.44.35207\include\xmemory
; File C:\Program Files\Microsoft Visual Studio\2022\Professional\VC\Tools\MSVC\14.44.35207\include\vector
; File C:\Program Files\Microsoft Visual Studio\2022\Professional\VC\Tools\MSVC\14.44.35207\include\xutility
; File C:\Program Files\Microsoft Visual Studio\2022\Professional\VC\Tools\MSVC\14.44.35207\include\vector
; File C:\Program Files\Microsoft Visual Studio\2022\Professional\VC\Tools\MSVC\14.44.35207\include\xmemory
; File C:\Program Files\Microsoft Visual Studio\2022\Professional\VC\Tools\MSVC\14.44.35207\include\vector
;	COMDAT ??$assign@V?$_Vector_const_iterator@V?$_Vector_val@U?$_Simple_types@J@std@@@std@@@std@@$0A@@?$vector@JV?$allocator@J@std@@@std@@QAEXV?$_Vector_const_iterator@V?$_Vector_val@U?$_Simple_types@J@std@@@std@@@1@0@Z
_TEXT	SEGMENT
tv582 = -12						; size = 4
__First$1$ = -8						; size = 4
__Oldsize$1$ = -4					; size = 4
$T1 = -4						; size = 4
__First$ = 8						; size = 4
__Last$ = 12						; size = 4
??$assign@V?$_Vector_const_iterator@V?$_Vector_val@U?$_Simple_types@J@std@@@std@@@std@@$0A@@?$vector@JV?$allocator@J@std@@@std@@QAEXV?$_Vector_const_iterator@V?$_Vector_val@U?$_Simple_types@J@std@@@std@@@1@0@Z PROC ; std::vector<long,std::allocator<long> >::assign<std::_Vector_const_iterator<std::_Vector_val<std::_Simple_types<long> > >,0>, COMDAT
; _this$ = ecx

; 1484 :     _CONSTEXPR20 void assign(_Iter _First, _Iter _Last) {

  00000	55		 push	 ebp
  00001	8b ec		 mov	 ebp, esp
  00003	83 ec 0c	 sub	 esp, 12			; 0000000cH
; File C:\Program Files\Microsoft Visual Studio\2022\Professional\VC\Tools\MSVC\14.44.35207\include\xutility

; 1662 :         return _Last - _First; // assume the iterator will do debug checking

  00006	8b 45 08	 mov	 eax, DWORD PTR __First$[ebp]
; File C:\Program Files\Microsoft Visual Studio\2022\Professional\VC\Tools\MSVC\14.44.35207\include\vector

; 1484 :     _CONSTEXPR20 void assign(_Iter _First, _Iter _Last) {

  00009	53		 push	 ebx
  0000a	8b d9		 mov	 ebx, ecx
; File C:\Program Files\Microsoft Visual Studio\2022\Professional\VC\Tools\MSVC\14.44.35207\include\xutility

; 1662 :         return _Last - _First; // assume the iterator will do debug checking

  0000c	89 45 f8	 mov	 DWORD PTR __First$1$[ebp], eax
; File C:\Program Files\Microsoft Visual Studio\2022\Professional\VC\Tools\MSVC\14.44.35207\include\vector

; 1484 :     _CONSTEXPR20 void assign(_Iter _First, _Iter _Last) {

  0000f	56		 push	 esi
  00010	57		 push	 edi
; File C:\Program Files\Microsoft Visual Studio\2022\Professional\VC\Tools\MSVC\14.44.35207\include\xutility

; 1662 :         return _Last - _First; // assume the iterator will do debug checking

  00011	8b 7d 0c	 mov	 edi, DWORD PTR __Last$[ebp]
; File C:\Program Files\Microsoft Visual Studio\2022\Professional\VC\Tools\MSVC\14.44.35207\include\vector

; 1432 :         const auto _Oldcapacity = static_cast<size_type>(_Myend - _Myfirst);

  00014	8b 0b		 mov	 ecx, DWORD PTR [ebx]
; File C:\Program Files\Microsoft Visual Studio\2022\Professional\VC\Tools\MSVC\14.44.35207\include\xutility

; 1662 :         return _Last - _First; // assume the iterator will do debug checking

  00016	2b f8		 sub	 edi, eax
; File C:\Program Files\Microsoft Visual Studio\2022\Professional\VC\Tools\MSVC\14.44.35207\include\vector

; 1432 :         const auto _Oldcapacity = static_cast<size_type>(_Myend - _Myfirst);

  00018	8b 53 08	 mov	 edx, DWORD PTR [ebx+8]
  0001b	2b d1		 sub	 edx, ecx
; File C:\Program Files\Microsoft Visual Studio\2022\Professional\VC\Tools\MSVC\14.44.35207\include\xutility

; 1662 :         return _Last - _First; // assume the iterator will do debug checking

  0001d	c1 ff 02	 sar	 edi, 2
; File C:\Program Files\Microsoft Visual Studio\2022\Professional\VC\Tools\MSVC\14.44.35207\include\vector

; 1432 :         const auto _Oldcapacity = static_cast<size_type>(_Myend - _Myfirst);

  00020	c1 fa 02	 sar	 edx, 2
  00023	89 4d f4	 mov	 DWORD PTR tv582[ebp], ecx

; 1433 :         if (_Newsize > _Oldcapacity) {

  00026	3b fa		 cmp	 edi, edx
  00028	0f 86 a5 00 00
	00		 jbe	 $LN9@assign

; 1703 :         if (_Newsize > max_size()) {

  0002e	81 ff ff ff ff
	3f		 cmp	 edi, 1073741823		; 3fffffffH
  00034	0f 87 f2 00 00
	00		 ja	 $LN91@assign

; 2011 :         if (_Oldcapacity > _Max - _Oldcapacity / 2) {

  0003a	8b f2		 mov	 esi, edx
  0003c	b8 ff ff ff 3f	 mov	 eax, 1073741823		; 3fffffffH
  00041	d1 ee		 shr	 esi, 1
  00043	2b c6		 sub	 eax, esi
  00045	3b d0		 cmp	 edx, eax
  00047	76 07		 jbe	 SHORT $LN19@assign

; 2012 :             return _Max; // geometric growth would overflow

  00049	be ff ff ff 3f	 mov	 esi, 1073741823		; 3fffffffH
  0004e	eb 07		 jmp	 SHORT $LN86@assign
$LN19@assign:

; 2013 :         }
; 2014 : 
; 2015 :         const size_type _Geometric = _Oldcapacity + _Oldcapacity / 2;

  00050	03 f2		 add	 esi, edx

; 2016 : 
; 2017 :         if (_Geometric < _Newsize) {

  00052	3b f7		 cmp	 esi, edi
  00054	0f 42 f7	 cmovb	 esi, edi
$LN86@assign:

; 1709 :         if (_Myfirst) { // destroy and deallocate old array

  00057	89 75 fc	 mov	 DWORD PTR $T1[ebp], esi
  0005a	85 c9		 test	 ecx, ecx
  0005c	74 1d		 je	 SHORT $LN16@assign

; 1710 :             _Destroy_range(_Myfirst, _Mylast, _Al);
; 1711 :             _ASAN_VECTOR_REMOVE;
; 1712 :             _Al.deallocate(_Myfirst, static_cast<size_type>(_Myend - _Myfirst));

  0005e	52		 push	 edx
  0005f	51		 push	 ecx
  00060	8b cb		 mov	 ecx, ebx
  00062	e8 00 00 00 00	 call	 ?deallocate@?$allocator@J@std@@QAEXQAJI@Z ; std::allocator<long>::deallocate

; 1713 : 
; 1714 :             _Myfirst = nullptr;

  00067	c7 03 00 00 00
	00		 mov	 DWORD PTR [ebx], 0

; 1715 :             _Mylast  = nullptr;

  0006d	c7 43 04 00 00
	00 00		 mov	 DWORD PTR [ebx+4], 0

; 1716 :             _Myend   = nullptr;

  00074	c7 43 08 00 00
	00 00		 mov	 DWORD PTR [ebx+8], 0
$LN16@assign:
; File C:\Program Files\Microsoft Visual Studio\2022\Professional\VC\Tools\MSVC\14.44.35207\include\xmemory

; 117  :         if (_Count > _Max_possible) {

  0007b	81 fe ff ff ff
	3f		 cmp	 esi, 1073741823		; 3fffffffH
  00081	0f 87 aa 00 00
	00		 ja	 $LN92@assign

; 119  :         }
; 120  :     }
; 121  : 
; 122  :     return _Count * _Ty_size;

  00087	c1 e6 02	 shl	 esi, 2

; 227  :     if (_Bytes == 0) {

  0008a	85 f6		 test	 esi, esi
  0008c	74 1a		 je	 SHORT $LN35@assign
$LN36@assign:

; 228  :         return nullptr;
; 229  :     }
; 230  : 
; 231  : #if _HAS_CXX20 // TRANSITION, GH-1532
; 232  :     if (_STD is_constant_evaluated()) {
; 233  :         return _Traits::_Allocate(_Bytes);
; 234  :     }
; 235  : #endif // _HAS_CXX20
; 236  : 
; 237  : #ifdef __cpp_aligned_new
; 238  :     if constexpr (_Align > __STDCPP_DEFAULT_NEW_ALIGNMENT__) {
; 239  :         size_t _Passed_align = _Align;
; 240  : #if defined(_M_IX86) || defined(_M_X64)
; 241  :         if (_Bytes >= _Big_allocation_threshold) {
; 242  :             // boost the alignment of big allocations to help autovectorization
; 243  :             _Passed_align = (_STD max)(_Align, _Big_allocation_alignment);
; 244  :         }
; 245  : #endif // defined(_M_IX86) || defined(_M_X64)
; 246  :         return _Traits::_Allocate_aligned(_Bytes, _Passed_align);
; 247  :     } else
; 248  : #endif // defined(__cpp_aligned_new)
; 249  :     {
; 250  : #if defined(_M_IX86) || defined(_M_X64)
; 251  :         if (_Bytes >= _Big_allocation_threshold) {

  0008e	56		 push	 esi
  0008f	81 fe 00 10 00
	00		 cmp	 esi, 4096		; 00001000H
  00095	72 07		 jb	 SHORT $LN37@assign

; 252  :             // boost the alignment of big allocations to help autovectorization
; 253  :             return _Allocate_manually_vector_aligned<_Traits>(_Bytes);

  00097	e8 00 00 00 00	 call	 ??$_Allocate_manually_vector_aligned@U_Default_allocate_traits@std@@@std@@YAPAXI@Z ; std::_Allocate_manually_vector_aligned<std::_Default_allocate_traits>
  0009c	eb 05		 jmp	 SHORT $LN87@assign
$LN37@assign:

; 136  :         return ::operator new(_Bytes);

  0009e	e8 00 00 00 00	 call	 ??2@YAPAXI@Z		; operator new
$LN87@assign:
; File C:\Program Files\Microsoft Visual Studio\2022\Professional\VC\Tools\MSVC\14.44.35207\include\vector

; 2035 :         _Myfirst              = _Newvec;

  000a3	8b f0		 mov	 esi, eax
  000a5	83 c4 04	 add	 esp, 4
$LN35@assign:

; 2037 :         _Myend                = _Newvec + _Newcapacity;

  000a8	8b 45 fc	 mov	 eax, DWORD PTR $T1[ebp]
  000ab	89 33		 mov	 DWORD PTR [ebx], esi
; File C:\Program Files\Microsoft Visual Studio\2022\Professional\VC\Tools\MSVC\14.44.35207\include\xmemory

; 1930 :             _STD _Copy_memmove_n(_UFirst, _Count, _STD _Unfancy(_Dest));

  000ad	56		 push	 esi
; File C:\Program Files\Microsoft Visual Studio\2022\Professional\VC\Tools\MSVC\14.44.35207\include\vector

; 2036 :         _Mylast               = _Newvec;

  000ae	89 73 04	 mov	 DWORD PTR [ebx+4], esi

; 2037 :         _Myend                = _Newvec + _Newcapacity;

  000b1	8d 04 86	 lea	 eax, DWORD PTR [esi+eax*4]
  000b4	89 43 08	 mov	 DWORD PTR [ebx+8], eax
; File C:\Program Files\Microsoft Visual Studio\2022\Professional\VC\Tools\MSVC\14.44.35207\include\xmemory

; 1930 :             _STD _Copy_memmove_n(_UFirst, _Count, _STD _Unfancy(_Dest));

  000b7	8b 45 f8	 mov	 eax, DWORD PTR __First$1$[ebp]
  000ba	57		 push	 edi
  000bb	50		 push	 eax
  000bc	e8 00 00 00 00	 call	 ??$_Copy_memmove_n@PBJPAJ@std@@YAPAJPBJIPAJ@Z ; std::_Copy_memmove_n<long const *,long *>
; File C:\Program Files\Microsoft Visual Studio\2022\Professional\VC\Tools\MSVC\14.44.35207\include\vector

; 1501 :     }

  000c1	83 c4 0c	 add	 esp, 12			; 0000000cH
; File C:\Program Files\Microsoft Visual Studio\2022\Professional\VC\Tools\MSVC\14.44.35207\include\xmemory

; 1931 :             _Dest += _Count;

  000c4	8d 04 be	 lea	 eax, DWORD PTR [esi+edi*4]
; File C:\Program Files\Microsoft Visual Studio\2022\Professional\VC\Tools\MSVC\14.44.35207\include\vector

; 1501 :     }

  000c7	89 43 04	 mov	 DWORD PTR [ebx+4], eax
  000ca	5f		 pop	 edi
  000cb	5e		 pop	 esi
  000cc	5b		 pop	 ebx
  000cd	8b e5		 mov	 esp, ebp
  000cf	5d		 pop	 ebp
  000d0	c2 08 00	 ret	 8
$LN9@assign:

; 1445 :         const auto _Oldsize = static_cast<size_type>(_Mylast - _Myfirst);

  000d3	8b 73 04	 mov	 esi, DWORD PTR [ebx+4]
  000d6	2b f1		 sub	 esi, ecx
  000d8	c1 fe 02	 sar	 esi, 2
  000db	89 75 fc	 mov	 DWORD PTR __Oldsize$1$[ebp], esi

; 1446 :         if (_Newsize > _Oldsize) {

  000de	51		 push	 ecx
  000df	3b fe		 cmp	 edi, esi
  000e1	76 2d		 jbe	 SHORT $LN10@assign

; 1447 :             bool _Copied = false;
; 1448 :             if constexpr (_Iter_copy_cat<_Iter, pointer>::_Bitcopy_assignable) {
; 1449 : #if _HAS_CXX20
; 1450 :                 if (!_STD is_constant_evaluated())
; 1451 : #endif // _HAS_CXX20
; 1452 :                 {
; 1453 :                     _Copy_memmove_n(_First, static_cast<size_t>(_Oldsize), _Myfirst);

  000e3	56		 push	 esi
  000e4	50		 push	 eax
  000e5	e8 00 00 00 00	 call	 ??$_Copy_memmove_n@PBJPAJ@std@@YAPAJPBJIPAJ@Z ; std::_Copy_memmove_n<long const *,long *>

; 1454 :                     _First += _Oldsize;

  000ea	8b 45 f8	 mov	 eax, DWORD PTR __First$1$[ebp]

; 1455 :                     _Copied = true;
; 1456 :                 }
; 1457 :             }
; 1458 : 
; 1459 :             if (!_Copied) {
; 1460 :                 for (auto _Mid = _Myfirst; _Mid != _Mylast; ++_Mid, (void) ++_First) {
; 1461 :                     *_Mid = *_First;
; 1462 :                 }
; 1463 :             }
; 1464 : 
; 1465 :             if constexpr (_Nothrow_construct) {
; 1466 :                 _ASAN_VECTOR_MODIFY(static_cast<difference_type>(_Newsize - _Oldsize));
; 1467 :                 _Mylast = _STD _Uninitialized_copy_n(_STD move(_First), _Newsize - _Oldsize, _Mylast, _Al);

  000ed	2b 7d fc	 sub	 edi, DWORD PTR __Oldsize$1$[ebp]
  000f0	8d 04 b0	 lea	 eax, DWORD PTR [eax+esi*4]
  000f3	8b 73 04	 mov	 esi, DWORD PTR [ebx+4]
; File C:\Program Files\Microsoft Visual Studio\2022\Professional\VC\Tools\MSVC\14.44.35207\include\xmemory

; 1930 :             _STD _Copy_memmove_n(_UFirst, _Count, _STD _Unfancy(_Dest));

  000f6	56		 push	 esi
  000f7	57		 push	 edi
  000f8	50		 push	 eax
  000f9	e8 00 00 00 00	 call	 ??$_Copy_memmove_n@PBJPAJ@std@@YAPAJPBJIPAJ@Z ; std::_Copy_memmove_n<long const *,long *>
  000fe	83 c4 18	 add	 esp, 24			; 00000018H

; 1931 :             _Dest += _Count;

  00101	8d 04 be	 lea	 eax, DWORD PTR [esi+edi*4]
; File C:\Program Files\Microsoft Visual Studio\2022\Professional\VC\Tools\MSVC\14.44.35207\include\vector

; 1501 :     }

  00104	89 43 04	 mov	 DWORD PTR [ebx+4], eax
  00107	5f		 pop	 edi
  00108	5e		 pop	 esi
  00109	5b		 pop	 ebx
  0010a	8b e5		 mov	 esp, ebp
  0010c	5d		 pop	 ebp
  0010d	c2 08 00	 ret	 8
$LN10@assign:
; File C:\Program Files\Microsoft Visual Studio\2022\Professional\VC\Tools\MSVC\14.44.35207\include\xutility

; 4808 :             return _Copy_memmove_n(_First, static_cast<size_t>(_Count), _Dest);

  00110	57		 push	 edi
  00111	50		 push	 eax
  00112	e8 00 00 00 00	 call	 ??$_Copy_memmove_n@PBJPAJ@std@@YAPAJPBJIPAJ@Z ; std::_Copy_memmove_n<long const *,long *>
; File C:\Program Files\Microsoft Visual Studio\2022\Professional\VC\Tools\MSVC\14.44.35207\include\vector

; 1474 :             const pointer _Newlast = _Myfirst + _Newsize;

  00117	8b 45 f4	 mov	 eax, DWORD PTR tv582[ebp]

; 1501 :     }

  0011a	83 c4 0c	 add	 esp, 12			; 0000000cH

; 1474 :             const pointer _Newlast = _Myfirst + _Newsize;

  0011d	8d 04 b8	 lea	 eax, DWORD PTR [eax+edi*4]
  00120	5f		 pop	 edi

; 1501 :     }

  00121	5e		 pop	 esi
  00122	89 43 04	 mov	 DWORD PTR [ebx+4], eax
  00125	5b		 pop	 ebx
  00126	8b e5		 mov	 esp, ebp
  00128	5d		 pop	 ebp
  00129	c2 08 00	 ret	 8
$LN91@assign:

; 1704 :             _Xlength();

  0012c	e8 00 00 00 00	 call	 ?_Xlength@?$vector@JV?$allocator@J@std@@@std@@CAXXZ ; std::vector<long,std::allocator<long> >::_Xlength
$LN92@assign:
; File C:\Program Files\Microsoft Visual Studio\2022\Professional\VC\Tools\MSVC\14.44.35207\include\xmemory

; 118  :             _Throw_bad_array_new_length(); // multiply overflow

  00131	e8 00 00 00 00	 call	 ?_Throw_bad_array_new_length@std@@YAXXZ ; std::_Throw_bad_array_new_length
$LN85@assign:
  00136	cc		 int	 3
??$assign@V?$_Vector_const_iterator@V?$_Vector_val@U?$_Simple_types@J@std@@@std@@@std@@$0A@@?$vector@JV?$allocator@J@std@@@std@@QAEXV?$_Vector_const_iterator@V?$_Vector_val@U?$_Simple_types@J@std@@@std@@@1@0@Z ENDP ; std::vector<long,std::allocator<long> >::assign<std::_Vector_const_iterator<std::_Vector_val<std::_Simple_types<long> > >,0>
_TEXT	ENDS
; Function compile flags: /Ogtp
; File C:\Program Files\Microsoft Visual Studio\2022\Professional\VC\Tools\MSVC\14.44.35207\include\vector
; File C:\Program Files\Microsoft Visual Studio\2022\Professional\VC\Tools\MSVC\14.44.35207\include\xutility
; File C:\Program Files\Microsoft Visual Studio\2022\Professional\VC\Tools\MSVC\14.44.35207\include\vector
; File C:\Program Files\Microsoft Visual Studio\2022\Professional\VC\Tools\MSVC\14.44.35207\include\xutility
; File C:\Program Files\Microsoft Visual Studio\2022\Professional\VC\Tools\MSVC\14.44.35207\include\vector
; File C:\Program Files\Microsoft Visual Studio\2022\Professional\VC\Tools\MSVC\14.44.35207\include\xutility
; File C:\Program Files\Microsoft Visual Studio\2022\Professional\VC\Tools\MSVC\14.44.35207\include\vector
; File C:\Program Files\Microsoft Visual Studio\2022\Professional\VC\Tools\MSVC\14.44.35207\include\xutility
; File C:\Program Files\Microsoft Visual Studio\2022\Professional\VC\Tools\MSVC\14.44.35207\include\vector
; File C:\Program Files\Microsoft Visual Studio\2022\Professional\VC\Tools\MSVC\14.44.35207\include\xutility
; File C:\Program Files\Microsoft Visual Studio\2022\Professional\VC\Tools\MSVC\14.44.35207\include\vector
; File C:\Program Files\Microsoft Visual Studio\2022\Professional\VC\Tools\MSVC\14.44.35207\include\xmemory
; File C:\Program Files\Microsoft Visual Studio\2022\Professional\VC\Tools\MSVC\14.44.35207\include\vector
; File C:\Program Files\Microsoft Visual Studio\2022\Professional\VC\Tools\MSVC\14.44.35207\include\xmemory
; File C:\Program Files\Microsoft Visual Studio\2022\Professional\VC\Tools\MSVC\14.44.35207\include\vector
; File C:\Program Files\Microsoft Visual Studio\2022\Professional\VC\Tools\MSVC\14.44.35207\include\xmemory
; File C:\Program Files\Microsoft Visual Studio\2022\Professional\VC\Tools\MSVC\14.44.35207\include\vector
; File C:\Program Files\Microsoft Visual Studio\2022\Professional\VC\Tools\MSVC\14.44.35207\include\xmemory
; File C:\Program Files\Microsoft Visual Studio\2022\Professional\VC\Tools\MSVC\14.44.35207\include\vector
; File C:\Program Files\Microsoft Visual Studio\2022\Professional\VC\Tools\MSVC\14.44.35207\include\xmemory
; File C:\Program Files\Microsoft Visual Studio\2022\Professional\VC\Tools\MSVC\14.44.35207\include\vector
; File C:\Program Files\Microsoft Visual Studio\2022\Professional\VC\Tools\MSVC\14.44.35207\include\xutility
; File C:\Program Files\Microsoft Visual Studio\2022\Professional\VC\Tools\MSVC\14.44.35207\include\vector
; File C:\Program Files\Microsoft Visual Studio\2022\Professional\VC\Tools\MSVC\14.44.35207\include\xmemory
; File C:\Program Files\Microsoft Visual Studio\2022\Professional\VC\Tools\MSVC\14.44.35207\include\vector
;	COMDAT ??$assign@V?$_Vector_const_iterator@V?$_Vector_val@U?$_Simple_types@K@std@@@std@@@std@@$0A@@?$vector@KV?$allocator@K@std@@@std@@QAEXV?$_Vector_const_iterator@V?$_Vector_val@U?$_Simple_types@K@std@@@std@@@1@0@Z
_TEXT	SEGMENT
tv582 = -12						; size = 4
__First$1$ = -8						; size = 4
__Oldsize$1$ = -4					; size = 4
$T1 = -4						; size = 4
__First$ = 8						; size = 4
__Last$ = 12						; size = 4
??$assign@V?$_Vector_const_iterator@V?$_Vector_val@U?$_Simple_types@K@std@@@std@@@std@@$0A@@?$vector@KV?$allocator@K@std@@@std@@QAEXV?$_Vector_const_iterator@V?$_Vector_val@U?$_Simple_types@K@std@@@std@@@1@0@Z PROC ; std::vector<unsigned long,std::allocator<unsigned long> >::assign<std::_Vector_const_iterator<std::_Vector_val<std::_Simple_types<unsigned long> > >,0>, COMDAT
; _this$ = ecx

; 1484 :     _CONSTEXPR20 void assign(_Iter _First, _Iter _Last) {

  00000	55		 push	 ebp
  00001	8b ec		 mov	 ebp, esp
  00003	83 ec 0c	 sub	 esp, 12			; 0000000cH
; File C:\Program Files\Microsoft Visual Studio\2022\Professional\VC\Tools\MSVC\14.44.35207\include\xutility

; 1662 :         return _Last - _First; // assume the iterator will do debug checking

  00006	8b 45 08	 mov	 eax, DWORD PTR __First$[ebp]
; File C:\Program Files\Microsoft Visual Studio\2022\Professional\VC\Tools\MSVC\14.44.35207\include\vector

; 1484 :     _CONSTEXPR20 void assign(_Iter _First, _Iter _Last) {

  00009	53		 push	 ebx
  0000a	8b d9		 mov	 ebx, ecx
; File C:\Program Files\Microsoft Visual Studio\2022\Professional\VC\Tools\MSVC\14.44.35207\include\xutility

; 1662 :         return _Last - _First; // assume the iterator will do debug checking

  0000c	89 45 f8	 mov	 DWORD PTR __First$1$[ebp], eax
; File C:\Program Files\Microsoft Visual Studio\2022\Professional\VC\Tools\MSVC\14.44.35207\include\vector

; 1484 :     _CONSTEXPR20 void assign(_Iter _First, _Iter _Last) {

  0000f	56		 push	 esi
  00010	57		 push	 edi
; File C:\Program Files\Microsoft Visual Studio\2022\Professional\VC\Tools\MSVC\14.44.35207\include\xutility

; 1662 :         return _Last - _First; // assume the iterator will do debug checking

  00011	8b 7d 0c	 mov	 edi, DWORD PTR __Last$[ebp]
; File C:\Program Files\Microsoft Visual Studio\2022\Professional\VC\Tools\MSVC\14.44.35207\include\vector

; 1432 :         const auto _Oldcapacity = static_cast<size_type>(_Myend - _Myfirst);

  00014	8b 0b		 mov	 ecx, DWORD PTR [ebx]
; File C:\Program Files\Microsoft Visual Studio\2022\Professional\VC\Tools\MSVC\14.44.35207\include\xutility

; 1662 :         return _Last - _First; // assume the iterator will do debug checking

  00016	2b f8		 sub	 edi, eax
; File C:\Program Files\Microsoft Visual Studio\2022\Professional\VC\Tools\MSVC\14.44.35207\include\vector

; 1432 :         const auto _Oldcapacity = static_cast<size_type>(_Myend - _Myfirst);

  00018	8b 53 08	 mov	 edx, DWORD PTR [ebx+8]
  0001b	2b d1		 sub	 edx, ecx
; File C:\Program Files\Microsoft Visual Studio\2022\Professional\VC\Tools\MSVC\14.44.35207\include\xutility

; 1662 :         return _Last - _First; // assume the iterator will do debug checking

  0001d	c1 ff 02	 sar	 edi, 2
; File C:\Program Files\Microsoft Visual Studio\2022\Professional\VC\Tools\MSVC\14.44.35207\include\vector

; 1432 :         const auto _Oldcapacity = static_cast<size_type>(_Myend - _Myfirst);

  00020	c1 fa 02	 sar	 edx, 2
  00023	89 4d f4	 mov	 DWORD PTR tv582[ebp], ecx

; 1433 :         if (_Newsize > _Oldcapacity) {

  00026	3b fa		 cmp	 edi, edx
  00028	0f 86 a5 00 00
	00		 jbe	 $LN9@assign

; 1703 :         if (_Newsize > max_size()) {

  0002e	81 ff ff ff ff
	3f		 cmp	 edi, 1073741823		; 3fffffffH
  00034	0f 87 f2 00 00
	00		 ja	 $LN91@assign

; 2011 :         if (_Oldcapacity > _Max - _Oldcapacity / 2) {

  0003a	8b f2		 mov	 esi, edx
  0003c	b8 ff ff ff 3f	 mov	 eax, 1073741823		; 3fffffffH
  00041	d1 ee		 shr	 esi, 1
  00043	2b c6		 sub	 eax, esi
  00045	3b d0		 cmp	 edx, eax
  00047	76 07		 jbe	 SHORT $LN19@assign

; 2012 :             return _Max; // geometric growth would overflow

  00049	be ff ff ff 3f	 mov	 esi, 1073741823		; 3fffffffH
  0004e	eb 07		 jmp	 SHORT $LN86@assign
$LN19@assign:

; 2013 :         }
; 2014 : 
; 2015 :         const size_type _Geometric = _Oldcapacity + _Oldcapacity / 2;

  00050	03 f2		 add	 esi, edx

; 2016 : 
; 2017 :         if (_Geometric < _Newsize) {

  00052	3b f7		 cmp	 esi, edi
  00054	0f 42 f7	 cmovb	 esi, edi
$LN86@assign:

; 1709 :         if (_Myfirst) { // destroy and deallocate old array

  00057	89 75 fc	 mov	 DWORD PTR $T1[ebp], esi
  0005a	85 c9		 test	 ecx, ecx
  0005c	74 1d		 je	 SHORT $LN16@assign

; 1710 :             _Destroy_range(_Myfirst, _Mylast, _Al);
; 1711 :             _ASAN_VECTOR_REMOVE;
; 1712 :             _Al.deallocate(_Myfirst, static_cast<size_type>(_Myend - _Myfirst));

  0005e	52		 push	 edx
  0005f	51		 push	 ecx
  00060	8b cb		 mov	 ecx, ebx
  00062	e8 00 00 00 00	 call	 ?deallocate@?$allocator@K@std@@QAEXQAKI@Z ; std::allocator<unsigned long>::deallocate

; 1713 : 
; 1714 :             _Myfirst = nullptr;

  00067	c7 03 00 00 00
	00		 mov	 DWORD PTR [ebx], 0

; 1715 :             _Mylast  = nullptr;

  0006d	c7 43 04 00 00
	00 00		 mov	 DWORD PTR [ebx+4], 0

; 1716 :             _Myend   = nullptr;

  00074	c7 43 08 00 00
	00 00		 mov	 DWORD PTR [ebx+8], 0
$LN16@assign:
; File C:\Program Files\Microsoft Visual Studio\2022\Professional\VC\Tools\MSVC\14.44.35207\include\xmemory

; 117  :         if (_Count > _Max_possible) {

  0007b	81 fe ff ff ff
	3f		 cmp	 esi, 1073741823		; 3fffffffH
  00081	0f 87 aa 00 00
	00		 ja	 $LN92@assign

; 119  :         }
; 120  :     }
; 121  : 
; 122  :     return _Count * _Ty_size;

  00087	c1 e6 02	 shl	 esi, 2

; 227  :     if (_Bytes == 0) {

  0008a	85 f6		 test	 esi, esi
  0008c	74 1a		 je	 SHORT $LN35@assign
$LN36@assign:

; 228  :         return nullptr;
; 229  :     }
; 230  : 
; 231  : #if _HAS_CXX20 // TRANSITION, GH-1532
; 232  :     if (_STD is_constant_evaluated()) {
; 233  :         return _Traits::_Allocate(_Bytes);
; 234  :     }
; 235  : #endif // _HAS_CXX20
; 236  : 
; 237  : #ifdef __cpp_aligned_new
; 238  :     if constexpr (_Align > __STDCPP_DEFAULT_NEW_ALIGNMENT__) {
; 239  :         size_t _Passed_align = _Align;
; 240  : #if defined(_M_IX86) || defined(_M_X64)
; 241  :         if (_Bytes >= _Big_allocation_threshold) {
; 242  :             // boost the alignment of big allocations to help autovectorization
; 243  :             _Passed_align = (_STD max)(_Align, _Big_allocation_alignment);
; 244  :         }
; 245  : #endif // defined(_M_IX86) || defined(_M_X64)
; 246  :         return _Traits::_Allocate_aligned(_Bytes, _Passed_align);
; 247  :     } else
; 248  : #endif // defined(__cpp_aligned_new)
; 249  :     {
; 250  : #if defined(_M_IX86) || defined(_M_X64)
; 251  :         if (_Bytes >= _Big_allocation_threshold) {

  0008e	56		 push	 esi
  0008f	81 fe 00 10 00
	00		 cmp	 esi, 4096		; 00001000H
  00095	72 07		 jb	 SHORT $LN37@assign

; 252  :             // boost the alignment of big allocations to help autovectorization
; 253  :             return _Allocate_manually_vector_aligned<_Traits>(_Bytes);

  00097	e8 00 00 00 00	 call	 ??$_Allocate_manually_vector_aligned@U_Default_allocate_traits@std@@@std@@YAPAXI@Z ; std::_Allocate_manually_vector_aligned<std::_Default_allocate_traits>
  0009c	eb 05		 jmp	 SHORT $LN87@assign
$LN37@assign:

; 136  :         return ::operator new(_Bytes);

  0009e	e8 00 00 00 00	 call	 ??2@YAPAXI@Z		; operator new
$LN87@assign:
; File C:\Program Files\Microsoft Visual Studio\2022\Professional\VC\Tools\MSVC\14.44.35207\include\vector

; 2035 :         _Myfirst              = _Newvec;

  000a3	8b f0		 mov	 esi, eax
  000a5	83 c4 04	 add	 esp, 4
$LN35@assign:

; 2037 :         _Myend                = _Newvec + _Newcapacity;

  000a8	8b 45 fc	 mov	 eax, DWORD PTR $T1[ebp]
  000ab	89 33		 mov	 DWORD PTR [ebx], esi
; File C:\Program Files\Microsoft Visual Studio\2022\Professional\VC\Tools\MSVC\14.44.35207\include\xmemory

; 1930 :             _STD _Copy_memmove_n(_UFirst, _Count, _STD _Unfancy(_Dest));

  000ad	56		 push	 esi
; File C:\Program Files\Microsoft Visual Studio\2022\Professional\VC\Tools\MSVC\14.44.35207\include\vector

; 2036 :         _Mylast               = _Newvec;

  000ae	89 73 04	 mov	 DWORD PTR [ebx+4], esi

; 2037 :         _Myend                = _Newvec + _Newcapacity;

  000b1	8d 04 86	 lea	 eax, DWORD PTR [esi+eax*4]
  000b4	89 43 08	 mov	 DWORD PTR [ebx+8], eax
; File C:\Program Files\Microsoft Visual Studio\2022\Professional\VC\Tools\MSVC\14.44.35207\include\xmemory

; 1930 :             _STD _Copy_memmove_n(_UFirst, _Count, _STD _Unfancy(_Dest));

  000b7	8b 45 f8	 mov	 eax, DWORD PTR __First$1$[ebp]
  000ba	57		 push	 edi
  000bb	50		 push	 eax
  000bc	e8 00 00 00 00	 call	 ??$_Copy_memmove_n@PBKPAK@std@@YAPAKPBKIPAK@Z ; std::_Copy_memmove_n<unsigned long const *,unsigned long *>
; File C:\Program Files\Microsoft Visual Studio\2022\Professional\VC\Tools\MSVC\14.44.35207\include\vector

; 1501 :     }

  000c1	83 c4 0c	 add	 esp, 12			; 0000000cH
; File C:\Program Files\Microsoft Visual Studio\2022\Professional\VC\Tools\MSVC\14.44.35207\include\xmemory

; 1931 :             _Dest += _Count;

  000c4	8d 04 be	 lea	 eax, DWORD PTR [esi+edi*4]
; File C:\Program Files\Microsoft Visual Studio\2022\Professional\VC\Tools\MSVC\14.44.35207\include\vector

; 1501 :     }

  000c7	89 43 04	 mov	 DWORD PTR [ebx+4], eax
  000ca	5f		 pop	 edi
  000cb	5e		 pop	 esi
  000cc	5b		 pop	 ebx
  000cd	8b e5		 mov	 esp, ebp
  000cf	5d		 pop	 ebp
  000d0	c2 08 00	 ret	 8
$LN9@assign:

; 1445 :         const auto _Oldsize = static_cast<size_type>(_Mylast - _Myfirst);

  000d3	8b 73 04	 mov	 esi, DWORD PTR [ebx+4]
  000d6	2b f1		 sub	 esi, ecx
  000d8	c1 fe 02	 sar	 esi, 2
  000db	89 75 fc	 mov	 DWORD PTR __Oldsize$1$[ebp], esi

; 1446 :         if (_Newsize > _Oldsize) {

  000de	51		 push	 ecx
  000df	3b fe		 cmp	 edi, esi
  000e1	76 2d		 jbe	 SHORT $LN10@assign

; 1447 :             bool _Copied = false;
; 1448 :             if constexpr (_Iter_copy_cat<_Iter, pointer>::_Bitcopy_assignable) {
; 1449 : #if _HAS_CXX20
; 1450 :                 if (!_STD is_constant_evaluated())
; 1451 : #endif // _HAS_CXX20
; 1452 :                 {
; 1453 :                     _Copy_memmove_n(_First, static_cast<size_t>(_Oldsize), _Myfirst);

  000e3	56		 push	 esi
  000e4	50		 push	 eax
  000e5	e8 00 00 00 00	 call	 ??$_Copy_memmove_n@PBKPAK@std@@YAPAKPBKIPAK@Z ; std::_Copy_memmove_n<unsigned long const *,unsigned long *>

; 1454 :                     _First += _Oldsize;

  000ea	8b 45 f8	 mov	 eax, DWORD PTR __First$1$[ebp]

; 1455 :                     _Copied = true;
; 1456 :                 }
; 1457 :             }
; 1458 : 
; 1459 :             if (!_Copied) {
; 1460 :                 for (auto _Mid = _Myfirst; _Mid != _Mylast; ++_Mid, (void) ++_First) {
; 1461 :                     *_Mid = *_First;
; 1462 :                 }
; 1463 :             }
; 1464 : 
; 1465 :             if constexpr (_Nothrow_construct) {
; 1466 :                 _ASAN_VECTOR_MODIFY(static_cast<difference_type>(_Newsize - _Oldsize));
; 1467 :                 _Mylast = _STD _Uninitialized_copy_n(_STD move(_First), _Newsize - _Oldsize, _Mylast, _Al);

  000ed	2b 7d fc	 sub	 edi, DWORD PTR __Oldsize$1$[ebp]
  000f0	8d 04 b0	 lea	 eax, DWORD PTR [eax+esi*4]
  000f3	8b 73 04	 mov	 esi, DWORD PTR [ebx+4]
; File C:\Program Files\Microsoft Visual Studio\2022\Professional\VC\Tools\MSVC\14.44.35207\include\xmemory

; 1930 :             _STD _Copy_memmove_n(_UFirst, _Count, _STD _Unfancy(_Dest));

  000f6	56		 push	 esi
  000f7	57		 push	 edi
  000f8	50		 push	 eax
  000f9	e8 00 00 00 00	 call	 ??$_Copy_memmove_n@PBKPAK@std@@YAPAKPBKIPAK@Z ; std::_Copy_memmove_n<unsigned long const *,unsigned long *>
  000fe	83 c4 18	 add	 esp, 24			; 00000018H

; 1931 :             _Dest += _Count;

  00101	8d 04 be	 lea	 eax, DWORD PTR [esi+edi*4]
; File C:\Program Files\Microsoft Visual Studio\2022\Professional\VC\Tools\MSVC\14.44.35207\include\vector

; 1501 :     }

  00104	89 43 04	 mov	 DWORD PTR [ebx+4], eax
  00107	5f		 pop	 edi
  00108	5e		 pop	 esi
  00109	5b		 pop	 ebx
  0010a	8b e5		 mov	 esp, ebp
  0010c	5d		 pop	 ebp
  0010d	c2 08 00	 ret	 8
$LN10@assign:
; File C:\Program Files\Microsoft Visual Studio\2022\Professional\VC\Tools\MSVC\14.44.35207\include\xutility

; 4808 :             return _Copy_memmove_n(_First, static_cast<size_t>(_Count), _Dest);

  00110	57		 push	 edi
  00111	50		 push	 eax
  00112	e8 00 00 00 00	 call	 ??$_Copy_memmove_n@PBKPAK@std@@YAPAKPBKIPAK@Z ; std::_Copy_memmove_n<unsigned long const *,unsigned long *>
; File C:\Program Files\Microsoft Visual Studio\2022\Professional\VC\Tools\MSVC\14.44.35207\include\vector

; 1474 :             const pointer _Newlast = _Myfirst + _Newsize;

  00117	8b 45 f4	 mov	 eax, DWORD PTR tv582[ebp]

; 1501 :     }

  0011a	83 c4 0c	 add	 esp, 12			; 0000000cH

; 1474 :             const pointer _Newlast = _Myfirst + _Newsize;

  0011d	8d 04 b8	 lea	 eax, DWORD PTR [eax+edi*4]
  00120	5f		 pop	 edi

; 1501 :     }

  00121	5e		 pop	 esi
  00122	89 43 04	 mov	 DWORD PTR [ebx+4], eax
  00125	5b		 pop	 ebx
  00126	8b e5		 mov	 esp, ebp
  00128	5d		 pop	 ebp
  00129	c2 08 00	 ret	 8
$LN91@assign:

; 1704 :             _Xlength();

  0012c	e8 00 00 00 00	 call	 ?_Xlength@?$vector@KV?$allocator@K@std@@@std@@CAXXZ ; std::vector<unsigned long,std::allocator<unsigned long> >::_Xlength
$LN92@assign:
; File C:\Program Files\Microsoft Visual Studio\2022\Professional\VC\Tools\MSVC\14.44.35207\include\xmemory

; 118  :             _Throw_bad_array_new_length(); // multiply overflow

  00131	e8 00 00 00 00	 call	 ?_Throw_bad_array_new_length@std@@YAXXZ ; std::_Throw_bad_array_new_length
$LN85@assign:
  00136	cc		 int	 3
??$assign@V?$_Vector_const_iterator@V?$_Vector_val@U?$_Simple_types@K@std@@@std@@@std@@$0A@@?$vector@KV?$allocator@K@std@@@std@@QAEXV?$_Vector_const_iterator@V?$_Vector_val@U?$_Simple_types@K@std@@@std@@@1@0@Z ENDP ; std::vector<unsigned long,std::allocator<unsigned long> >::assign<std::_Vector_const_iterator<std::_Vector_val<std::_Simple_types<unsigned long> > >,0>
_TEXT	ENDS
; Function compile flags: /Ogtp
; File C:\Program Files\Microsoft Visual Studio\2022\Professional\VC\Tools\MSVC\14.44.35207\include\xmemory
;	COMDAT ??$_Allocate_manually_vector_aligned@U_Default_allocate_traits@std@@@std@@YAPAXI@Z
_TEXT	SEGMENT
__Bytes$ = 8						; size = 4
??$_Allocate_manually_vector_aligned@U_Default_allocate_traits@std@@@std@@YAPAXI@Z PROC ; std::_Allocate_manually_vector_aligned<std::_Default_allocate_traits>, COMDAT

; 182  : __declspec(allocator) void* _Allocate_manually_vector_aligned(const size_t _Bytes) {

  00000	55		 push	 ebp
  00001	8b ec		 mov	 ebp, esp

; 183  :     // allocate _Bytes manually aligned to at least _Big_allocation_alignment
; 184  :     const size_t _Block_size = _Non_user_size + _Bytes;

  00003	8b 45 08	 mov	 eax, DWORD PTR __Bytes$[ebp]
  00006	8d 48 23	 lea	 ecx, DWORD PTR [eax+35]

; 185  :     if (_Block_size <= _Bytes) {

  00009	3b c8		 cmp	 ecx, eax
  0000b	0f 86 00 00 00
	00		 jbe	 ?_Throw_bad_array_new_length@std@@YAXXZ ; std::_Throw_bad_array_new_length

; 136  :         return ::operator new(_Bytes);

  00011	51		 push	 ecx
  00012	e8 00 00 00 00	 call	 ??2@YAPAXI@Z		; operator new

; 186  :         _Throw_bad_array_new_length(); // add overflow
; 187  :     }
; 188  : 
; 189  :     const uintptr_t _Ptr_container = reinterpret_cast<uintptr_t>(_Traits::_Allocate(_Block_size));

  00017	8b c8		 mov	 ecx, eax

; 136  :         return ::operator new(_Bytes);

  00019	83 c4 04	 add	 esp, 4

; 190  :     _STL_VERIFY(_Ptr_container != 0, "invalid argument"); // validate even in release since we're doing p[-1]

  0001c	85 c9		 test	 ecx, ecx
  0001e	74 0b		 je	 SHORT $LN9@Allocate_m

; 191  :     void* const _Ptr = reinterpret_cast<void*>((_Ptr_container + _Non_user_size) & ~(_Big_allocation_alignment - 1));

  00020	8d 41 23	 lea	 eax, DWORD PTR [ecx+35]
  00023	83 e0 e0	 and	 eax, -32		; ffffffe0H

; 192  :     static_cast<uintptr_t*>(_Ptr)[-1] = _Ptr_container;

  00026	89 48 fc	 mov	 DWORD PTR [eax-4], ecx

; 193  : 
; 194  : #ifdef _DEBUG
; 195  :     static_cast<uintptr_t*>(_Ptr)[-2] = _Big_allocation_sentinel;
; 196  : #endif // defined(_DEBUG)
; 197  :     return _Ptr;
; 198  : }

  00029	5d		 pop	 ebp
  0002a	c3		 ret	 0
$LN9@Allocate_m:

; 190  :     _STL_VERIFY(_Ptr_container != 0, "invalid argument"); // validate even in release since we're doing p[-1]

  0002b	6a 00		 push	 0
  0002d	6a 00		 push	 0
  0002f	6a 00		 push	 0
  00031	6a 00		 push	 0
  00033	6a 00		 push	 0
  00035	e8 00 00 00 00	 call	 __invoke_watson
$LN7@Allocate_m:
  0003a	cc		 int	 3
??$_Allocate_manually_vector_aligned@U_Default_allocate_traits@std@@@std@@YAPAXI@Z ENDP ; std::_Allocate_manually_vector_aligned<std::_Default_allocate_traits>
_TEXT	ENDS
; Function compile flags: /Ogtp
; File C:\Program Files\Microsoft Visual Studio\2022\Professional\VC\Tools\MSVC\14.44.35207\include\xutility
;	COMDAT ??$_Copy_memmove_tail@PAJ@std@@YAPAJQBDQAJII@Z
_TEXT	SEGMENT
__First_ch$ = 8						; size = 4
__Dest$ = 12						; size = 4
__Byte_count$ = 16					; size = 4
__Object_count$ = 20					; size = 4
??$_Copy_memmove_tail@PAJ@std@@YAPAJQBDQAJII@Z PROC	; std::_Copy_memmove_tail<long *>, COMDAT

; 4747 :     const char* const _First_ch, const _OutCtgIt _Dest, const size_t _Byte_count, const size_t _Object_count) {

  00000	55		 push	 ebp
  00001	8b ec		 mov	 ebp, esp
  00003	56		 push	 esi

; 4748 :     _STL_INTERNAL_CHECK(_Byte_count == _Object_count * sizeof(*_Dest));
; 4749 :     const auto _Dest_ptr = _STD _To_address(_Dest);
; 4750 :     const auto _Dest_ch  = const_cast<char*>(reinterpret_cast<const volatile char*>(_Dest_ptr));
; 4751 :     _CSTD memmove(_Dest_ch, _First_ch, _Byte_count);

  00004	8b 75 0c	 mov	 esi, DWORD PTR __Dest$[ebp]
  00007	57		 push	 edi
  00008	8b 7d 10	 mov	 edi, DWORD PTR __Byte_count$[ebp]
  0000b	57		 push	 edi
  0000c	ff 75 08	 push	 DWORD PTR __First_ch$[ebp]
  0000f	56		 push	 esi
  00010	e8 00 00 00 00	 call	 _memmove
  00015	83 c4 0c	 add	 esp, 12			; 0000000cH

; 4752 :     if constexpr (is_pointer_v<_OutCtgIt>) {
; 4753 :         (void) _Object_count;
; 4754 :         // CodeQL [SM02986] This cast is correct: we're bypassing pointer arithmetic for performance.
; 4755 :         return reinterpret_cast<_OutCtgIt>(_Dest_ch + _Byte_count);

  00018	8d 04 3e	 lea	 eax, DWORD PTR [esi+edi]
  0001b	5f		 pop	 edi
  0001c	5e		 pop	 esi

; 4756 :     } else {
; 4757 :         return _Dest + static_cast<_Iter_diff_t<_OutCtgIt>>(_Object_count);
; 4758 :     }
; 4759 : }

  0001d	5d		 pop	 ebp
  0001e	c3		 ret	 0
??$_Copy_memmove_tail@PAJ@std@@YAPAJQBDQAJII@Z ENDP	; std::_Copy_memmove_tail<long *>
_TEXT	ENDS
; Function compile flags: /Ogtp
; File C:\Program Files\Microsoft Visual Studio\2022\Professional\VC\Tools\MSVC\14.44.35207\include\xutility
;	COMDAT ??$_Copy_memmove@PAJPAJ@std@@YAPAJPAJ00@Z
_TEXT	SEGMENT
__First$ = 8						; size = 4
__Last$ = 12						; size = 4
__Dest$ = 16						; size = 4
??$_Copy_memmove@PAJPAJ@std@@YAPAJPAJ00@Z PROC		; std::_Copy_memmove<long *,long *>, COMDAT

; 4762 : _OutCtgIt _Copy_memmove(_CtgIt _First, _CtgIt _Last, _OutCtgIt _Dest) {

  00000	55		 push	 ebp
  00001	8b ec		 mov	 ebp, esp

; 4763 :     _STL_INTERNAL_CHECK(_First <= _Last);
; 4764 :     const auto _First_ptr    = _STD _To_address(_First);
; 4765 :     const auto _Last_ptr     = _STD _To_address(_Last);
; 4766 :     const auto _Object_count = static_cast<size_t>(_Last_ptr - _First_ptr);

  00003	8b 55 08	 mov	 edx, DWORD PTR __First$[ebp]
  00006	8b 4d 0c	 mov	 ecx, DWORD PTR __Last$[ebp]
  00009	2b ca		 sub	 ecx, edx
  0000b	8b c1		 mov	 eax, ecx
  0000d	c1 f8 02	 sar	 eax, 2

; 4767 :     const auto _First_ch     = const_cast<const char*>(reinterpret_cast<const volatile char*>(_First_ptr));
; 4768 :     const auto _Last_ch      = const_cast<const char*>(reinterpret_cast<const volatile char*>(_Last_ptr));
; 4769 :     const auto _Byte_count   = static_cast<size_t>(_Last_ch - _First_ch);
; 4770 :     return _STD _Copy_memmove_tail(_First_ch, _STD move(_Dest), _Byte_count, _Object_count);

  00010	50		 push	 eax
  00011	51		 push	 ecx
  00012	ff 75 10	 push	 DWORD PTR __Dest$[ebp]
  00015	52		 push	 edx
  00016	e8 00 00 00 00	 call	 ??$_Copy_memmove_tail@PAJ@std@@YAPAJQBDQAJII@Z ; std::_Copy_memmove_tail<long *>
  0001b	83 c4 10	 add	 esp, 16			; 00000010H

; 4771 : }

  0001e	5d		 pop	 ebp
  0001f	c3		 ret	 0
??$_Copy_memmove@PAJPAJ@std@@YAPAJPAJ00@Z ENDP		; std::_Copy_memmove<long *,long *>
_TEXT	ENDS
; Function compile flags: /Ogtp
; File C:\Program Files\Microsoft Visual Studio\2022\Professional\VC\Tools\MSVC\14.44.35207\include\xutility
;	COMDAT ??$_Fill_zero_memset@PAJ@std@@YAXPAJI@Z
_TEXT	SEGMENT
__Dest$ = 8						; size = 4
__Count$ = 12						; size = 4
??$_Fill_zero_memset@PAJ@std@@YAXPAJI@Z PROC		; std::_Fill_zero_memset<long *>, COMDAT

; 5269 : void _Fill_zero_memset(_CtgIt _Dest, const size_t _Count) {

  00000	55		 push	 ebp
  00001	8b ec		 mov	 ebp, esp

; 5270 :     _CSTD memset(_STD _To_address(_Dest), 0, _Count * sizeof(_Iter_value_t<_CtgIt>));

  00003	8b 45 0c	 mov	 eax, DWORD PTR __Count$[ebp]
  00006	c1 e0 02	 shl	 eax, 2
  00009	50		 push	 eax
  0000a	6a 00		 push	 0
  0000c	ff 75 08	 push	 DWORD PTR __Dest$[ebp]
  0000f	e8 00 00 00 00	 call	 _memset
  00014	83 c4 0c	 add	 esp, 12			; 0000000cH

; 5271 : }

  00017	5d		 pop	 ebp
  00018	c3		 ret	 0
??$_Fill_zero_memset@PAJ@std@@YAXPAJI@Z ENDP		; std::_Fill_zero_memset<long *>
_TEXT	ENDS
; Function compile flags: /Ogtp
; File C:\Program Files\Microsoft Visual Studio\2022\Professional\VC\Tools\MSVC\14.44.35207\include\xutility
;	COMDAT ??$_Is_all_bits_zero@J@std@@YA_NABJ@Z
_TEXT	SEGMENT
__Zero$1 = -4						; size = 4
__Val$ = 8						; size = 4
??$_Is_all_bits_zero@J@std@@YA_NABJ@Z PROC		; std::_Is_all_bits_zero<long>, COMDAT

; 5274 : _NODISCARD bool _Is_all_bits_zero(const _Ty& _Val) {

  00000	55		 push	 ebp
  00001	8b ec		 mov	 ebp, esp
  00003	51		 push	 ecx

; 5275 :     // checks if scalar type has all bits set to zero
; 5276 :     _STL_INTERNAL_STATIC_ASSERT(is_scalar_v<_Ty> && !is_member_pointer_v<_Ty>);
; 5277 :     if constexpr (is_same_v<_Ty, nullptr_t>) {
; 5278 :         return true;
; 5279 :     } else {
; 5280 :         constexpr _Ty _Zero{};
; 5281 :         return _CSTD memcmp(&_Val, &_Zero, sizeof(_Ty)) == 0;

  00004	8b 45 08	 mov	 eax, DWORD PTR __Val$[ebp]
  00007	8d 4d fc	 lea	 ecx, DWORD PTR __Zero$1[ebp]
  0000a	c7 45 fc 00 00
	00 00		 mov	 DWORD PTR __Zero$1[ebp], 0
  00011	8b 00		 mov	 eax, DWORD PTR [eax]
  00013	3b 01		 cmp	 eax, DWORD PTR [ecx]
  00015	0f 94 c0	 sete	 al

; 5282 :     }
; 5283 : }

  00018	8b e5		 mov	 esp, ebp
  0001a	5d		 pop	 ebp
  0001b	c3		 ret	 0
??$_Is_all_bits_zero@J@std@@YA_NABJ@Z ENDP		; std::_Is_all_bits_zero<long>
_TEXT	ENDS
; Function compile flags: /Ogtp
; File C:\Program Files\Microsoft Visual Studio\2022\Professional\VC\Tools\MSVC\14.44.35207\include\xmemory
;	COMDAT ??$_Uninitialized_fill_n@V?$allocator@J@std@@@std@@YAPAJPAJIABJAAV?$allocator@J@0@@Z
_TEXT	SEGMENT
__First$ = 8						; size = 4
__Count$ = 12						; size = 4
__Val$ = 16						; size = 4
__Al$ = 20						; size = 4
??$_Uninitialized_fill_n@V?$allocator@J@std@@@std@@YAPAJPAJIABJAAV?$allocator@J@0@@Z PROC ; std::_Uninitialized_fill_n<std::allocator<long> >, COMDAT

; 2007 :     _Alloc_ptr_t<_Alloc> _First, _Alloc_size_t<_Alloc> _Count, const typename _Alloc::value_type& _Val, _Alloc& _Al) {

  00000	55		 push	 ebp
  00001	8b ec		 mov	 ebp, esp
  00003	56		 push	 esi

; 2008 :     // copy _Count copies of _Val to raw _First, using _Al
; 2009 :     using _Ty = typename _Alloc::value_type;
; 2010 :     if constexpr (_Fill_memset_is_safe<_Ty*, _Ty> && _Uses_default_construct<_Alloc, _Ty*, _Ty>::value) {
; 2011 : #if _HAS_CXX20
; 2012 :         if (!_STD is_constant_evaluated())
; 2013 : #endif // _HAS_CXX20
; 2014 :         {
; 2015 :             _Fill_memset(_Unfancy(_First), _Val, static_cast<size_t>(_Count));
; 2016 :             return _First + _Count;
; 2017 :         }
; 2018 :     } else if constexpr (_Fill_zero_memset_is_safe<_Ty*, _Ty> && _Uses_default_construct<_Alloc, _Ty*, _Ty>::value) {
; 2019 : #if _HAS_CXX20
; 2020 :         if (!_STD is_constant_evaluated())
; 2021 : #endif // _HAS_CXX20
; 2022 :         {
; 2023 :             if (_Is_all_bits_zero(_Val)) {

  00004	8b 75 10	 mov	 esi, DWORD PTR __Val$[ebp]
  00007	56		 push	 esi
  00008	e8 00 00 00 00	 call	 ??$_Is_all_bits_zero@J@std@@YA_NABJ@Z ; std::_Is_all_bits_zero<long>
  0000d	83 c4 04	 add	 esp, 4
  00010	84 c0		 test	 al, al
  00012	74 18		 je	 SHORT $LN5@Uninitiali

; 2024 :                 _Fill_zero_memset(_Unfancy(_First), static_cast<size_t>(_Count));

  00014	8b 75 08	 mov	 esi, DWORD PTR __First$[ebp]
  00017	57		 push	 edi
  00018	8b 7d 0c	 mov	 edi, DWORD PTR __Count$[ebp]
  0001b	57		 push	 edi
  0001c	56		 push	 esi
  0001d	e8 00 00 00 00	 call	 ??$_Fill_zero_memset@PAJ@std@@YAXPAJI@Z ; std::_Fill_zero_memset<long *>
  00022	83 c4 08	 add	 esp, 8

; 2025 :                 return _First + _Count;

  00025	8d 04 be	 lea	 eax, DWORD PTR [esi+edi*4]
  00028	5f		 pop	 edi
  00029	5e		 pop	 esi

; 2032 :         _Backout._Emplace_back(_Val);
; 2033 :     }
; 2034 : 
; 2035 :     return _Backout._Release();
; 2036 : }

  0002a	5d		 pop	 ebp
  0002b	c3		 ret	 0
$LN5@Uninitiali:

; 2026 :             }
; 2027 :         }
; 2028 :     }
; 2029 : 
; 2030 :     _Uninitialized_backout_al<_Alloc> _Backout{_First, _Al};
; 2031 :     for (; 0 < _Count; --_Count) {

  0002c	8b 55 0c	 mov	 edx, DWORD PTR __Count$[ebp]

; 1833 :     _CONSTEXPR20 _Uninitialized_backout_al(pointer _Dest, _Alloc& _Al_) : _First(_Dest), _Last(_Dest), _Al(_Al_) {}

  0002f	8b 45 08	 mov	 eax, DWORD PTR __First$[ebp]

; 2026 :             }
; 2027 :         }
; 2028 :     }
; 2029 : 
; 2030 :     _Uninitialized_backout_al<_Alloc> _Backout{_First, _Al};
; 2031 :     for (; 0 < _Count; --_Count) {

  00032	85 d2		 test	 edx, edx
  00034	74 0c		 je	 SHORT $LN1@Uninitiali
$LL4@Uninitiali:

; 1844 :         allocator_traits<_Alloc>::construct(_Al, _STD _Unfancy(_Last), _STD forward<_Types>(_Vals)...);

  00036	8b 0e		 mov	 ecx, DWORD PTR [esi]
  00038	89 08		 mov	 DWORD PTR [eax], ecx

; 1845 :         ++_Last;

  0003a	83 c0 04	 add	 eax, 4

; 2026 :             }
; 2027 :         }
; 2028 :     }
; 2029 : 
; 2030 :     _Uninitialized_backout_al<_Alloc> _Backout{_First, _Al};
; 2031 :     for (; 0 < _Count; --_Count) {

  0003d	83 ea 01	 sub	 edx, 1
  00040	75 f4		 jne	 SHORT $LL4@Uninitiali
$LN1@Uninitiali:
  00042	5e		 pop	 esi

; 2032 :         _Backout._Emplace_back(_Val);
; 2033 :     }
; 2034 : 
; 2035 :     return _Backout._Release();
; 2036 : }

  00043	5d		 pop	 ebp
  00044	c3		 ret	 0
??$_Uninitialized_fill_n@V?$allocator@J@std@@@std@@YAPAJPAJIABJAAV?$allocator@J@0@@Z ENDP ; std::_Uninitialized_fill_n<std::allocator<long> >
_TEXT	ENDS
; Function compile flags: /Ogtp
; File C:\Program Files\Microsoft Visual Studio\2022\Professional\VC\Tools\MSVC\14.44.35207\include\vector
; File C:\Program Files\Microsoft Visual Studio\2022\Professional\VC\Tools\MSVC\14.44.35207\include\xmemory
; File C:\Program Files\Microsoft Visual Studio\2022\Professional\VC\Tools\MSVC\14.44.35207\include\vector
; File C:\Program Files\Microsoft Visual Studio\2022\Professional\VC\Tools\MSVC\14.44.35207\include\xmemory
; File C:\Program Files\Microsoft Visual Studio\2022\Professional\VC\Tools\MSVC\14.44.35207\include\vector
; File C:\Program Files\Microsoft Visual Studio\2022\Professional\VC\Tools\MSVC\14.44.35207\include\xmemory
; File C:\Program Files\Microsoft Visual Studio\2022\Professional\VC\Tools\MSVC\14.44.35207\include\vector
; File C:\Program Files\Microsoft Visual Studio\2022\Professional\VC\Tools\MSVC\14.44.35207\include\xmemory
; File C:\Program Files\Microsoft Visual Studio\2022\Professional\VC\Tools\MSVC\14.44.35207\include\vector
; File C:\Program Files\Microsoft Visual Studio\2022\Professional\VC\Tools\MSVC\14.44.35207\include\xmemory
; File C:\Program Files\Microsoft Visual Studio\2022\Professional\VC\Tools\MSVC\14.44.35207\include\vector
; File C:\Program Files\Microsoft Visual Studio\2022\Professional\VC\Tools\MSVC\14.44.35207\include\xmemory
; File C:\Program Files\Microsoft Visual Studio\2022\Professional\VC\Tools\MSVC\14.44.35207\include\vector
;	COMDAT ??$_Resize@J@?$vector@JV?$allocator@J@std@@@std@@AAEXIABJ@Z
_TEXT	SEGMENT
tv575 = -4						; size = 4
__Newsize$ = 8						; size = 4
$T2 = 8							; size = 4
__Val$ = 12						; size = 4
??$_Resize@J@?$vector@JV?$allocator@J@std@@@std@@AAEXIABJ@Z PROC ; std::vector<long,std::allocator<long> >::_Resize<long>, COMDAT
; _this$ = ecx

; 1589 :     _CONSTEXPR20 void _Resize(const size_type _Newsize, const _Ty2& _Val) {

  00000	55		 push	 ebp
  00001	8b ec		 mov	 ebp, esp
  00003	51		 push	 ecx
  00004	53		 push	 ebx
  00005	56		 push	 esi

; 1590 :         // trim or append elements, provide strong guarantee
; 1591 :         auto& _Al           = _Getal();
; 1592 :         auto& _My_data      = _Mypair._Myval2;
; 1593 :         pointer& _Myfirst   = _My_data._Myfirst;
; 1594 :         pointer& _Mylast    = _My_data._Mylast;
; 1595 :         const auto _Oldsize = static_cast<size_type>(_Mylast - _Myfirst);
; 1596 :         if (_Newsize < _Oldsize) { // trim

  00006	8b 75 08	 mov	 esi, DWORD PTR __Newsize$[ebp]
  00009	57		 push	 edi
  0000a	8b f9		 mov	 edi, ecx
  0000c	8b 57 04	 mov	 edx, DWORD PTR [edi+4]
  0000f	8b da		 mov	 ebx, edx
  00011	8b 07		 mov	 eax, DWORD PTR [edi]
  00013	2b d8		 sub	 ebx, eax
  00015	c1 fb 02	 sar	 ebx, 2
  00018	3b f3		 cmp	 esi, ebx
  0001a	73 0f		 jae	 SHORT $LN2@Resize

; 1597 :             const pointer _Newlast = _Myfirst + _Newsize;

  0001c	8d 04 b0	 lea	 eax, DWORD PTR [eax+esi*4]

; 1625 :     }

  0001f	89 47 04	 mov	 DWORD PTR [edi+4], eax
  00022	5f		 pop	 edi
  00023	5e		 pop	 esi
  00024	5b		 pop	 ebx
  00025	8b e5		 mov	 esp, ebp
  00027	5d		 pop	 ebp
  00028	c2 08 00	 ret	 8
$LN2@Resize:

; 1598 :             _Orphan_range(_Newlast, _Mylast);
; 1599 :             _Destroy_range(_Newlast, _Mylast, _Al);
; 1600 :             _ASAN_VECTOR_MODIFY(static_cast<difference_type>(_Newsize - _Oldsize));
; 1601 :             _Mylast = _Newlast;
; 1602 :             return;
; 1603 :         }
; 1604 : 
; 1605 :         if (_Newsize > _Oldsize) { // append

  0002b	0f 86 0e 01 00
	00		 jbe	 $LN3@Resize

; 1606 :             const auto _Oldcapacity = static_cast<size_type>(_My_data._Myend - _Myfirst);

  00031	8b 4f 08	 mov	 ecx, DWORD PTR [edi+8]
  00034	2b c8		 sub	 ecx, eax
  00036	c1 f9 02	 sar	 ecx, 2

; 1607 :             if (_Newsize > _Oldcapacity) { // reallocate

  00039	3b f1		 cmp	 esi, ecx
  0003b	0f 86 eb 00 00
	00		 jbe	 $LN4@Resize

; 1553 :         if (_Newsize > max_size()) {

  00041	81 fe ff ff ff
	3f		 cmp	 esi, 1073741823		; 3fffffffH
  00047	0f 87 fb 00 00
	00		 ja	 $LN97@Resize

; 2011 :         if (_Oldcapacity > _Max - _Oldcapacity / 2) {

  0004d	8b d1		 mov	 edx, ecx
  0004f	b8 ff ff ff 3f	 mov	 eax, 1073741823		; 3fffffffH
  00054	d1 ea		 shr	 edx, 1
  00056	2b c2		 sub	 eax, edx
  00058	3b c8		 cmp	 ecx, eax
  0005a	76 19		 jbe	 SHORT $LN11@Resize

; 2012 :             return _Max; // geometric growth would overflow

  0005c	b8 fc ff ff ff	 mov	 eax, -4			; fffffffcH
  00061	c7 45 fc fc ff
	ff ff		 mov	 DWORD PTR tv575[ebp], -4 ; fffffffcH
; File C:\Program Files\Microsoft Visual Studio\2022\Professional\VC\Tools\MSVC\14.44.35207\include\xmemory

; 253  :             return _Allocate_manually_vector_aligned<_Traits>(_Bytes);

  00068	50		 push	 eax
  00069	e8 00 00 00 00	 call	 ??$_Allocate_manually_vector_aligned@U_Default_allocate_traits@std@@@std@@YAPAXI@Z ; std::_Allocate_manually_vector_aligned<std::_Default_allocate_traits>
  0006e	8b c8		 mov	 ecx, eax
  00070	89 4d 08	 mov	 DWORD PTR $T2[ebp], ecx
  00073	eb 46		 jmp	 SHORT $LN95@Resize
$LN11@Resize:
; File C:\Program Files\Microsoft Visual Studio\2022\Professional\VC\Tools\MSVC\14.44.35207\include\vector

; 2015 :         const size_type _Geometric = _Oldcapacity + _Oldcapacity / 2;

  00075	8d 04 0a	 lea	 eax, DWORD PTR [edx+ecx]

; 2016 : 
; 2017 :         if (_Geometric < _Newsize) {

  00078	3b c6		 cmp	 eax, esi
  0007a	73 13		 jae	 SHORT $LN12@Resize

; 2018 :             return _Newsize; // geometric growth would be insufficient

  0007c	8b c6		 mov	 eax, esi
$LN22@Resize:
; File C:\Program Files\Microsoft Visual Studio\2022\Professional\VC\Tools\MSVC\14.44.35207\include\xmemory

; 122  :     return _Count * _Ty_size;

  0007e	c1 e0 02	 shl	 eax, 2
  00081	89 45 fc	 mov	 DWORD PTR tv575[ebp], eax

; 227  :     if (_Bytes == 0) {

  00084	85 c0		 test	 eax, eax
  00086	75 14		 jne	 SHORT $LN26@Resize

; 228  :         return nullptr;

  00088	33 c9		 xor	 ecx, ecx
  0008a	89 4d 08	 mov	 DWORD PTR $T2[ebp], ecx
  0008d	eb 2f		 jmp	 SHORT $LN25@Resize
$LN12@Resize:

; 117  :         if (_Count > _Max_possible) {

  0008f	3d ff ff ff 3f	 cmp	 eax, 1073741823		; 3fffffffH
  00094	0f 87 b3 00 00
	00		 ja	 $LN98@Resize
  0009a	eb e2		 jmp	 SHORT $LN22@Resize
$LN26@Resize:

; 251  :         if (_Bytes >= _Big_allocation_threshold) {

  0009c	3d 00 10 00 00	 cmp	 eax, 4096		; 00001000H
  000a1	72 0d		 jb	 SHORT $LN27@Resize

; 253  :             return _Allocate_manually_vector_aligned<_Traits>(_Bytes);

  000a3	50		 push	 eax
  000a4	e8 00 00 00 00	 call	 ??$_Allocate_manually_vector_aligned@U_Default_allocate_traits@std@@@std@@YAPAXI@Z ; std::_Allocate_manually_vector_aligned<std::_Default_allocate_traits>
  000a9	8b c8		 mov	 ecx, eax
  000ab	89 4d 08	 mov	 DWORD PTR $T2[ebp], ecx
  000ae	eb 0b		 jmp	 SHORT $LN95@Resize
$LN27@Resize:

; 136  :         return ::operator new(_Bytes);

  000b0	50		 push	 eax
  000b1	e8 00 00 00 00	 call	 ??2@YAPAXI@Z		; operator new

; 256  :         return _Traits::_Allocate(_Bytes);

  000b6	8b c8		 mov	 ecx, eax
  000b8	89 45 08	 mov	 DWORD PTR $T2[ebp], eax
$LN95@Resize:
; File C:\Program Files\Microsoft Visual Studio\2022\Professional\VC\Tools\MSVC\14.44.35207\include\vector

; 1572 :             _Appended_last = _Uninitialized_fill_n(_Appended_first, _Newsize - _Oldsize, _Val, _Al);

  000bb	83 c4 04	 add	 esp, 4
$LN25@Resize:
  000be	57		 push	 edi
  000bf	ff 75 0c	 push	 DWORD PTR __Val$[ebp]
  000c2	8b c6		 mov	 eax, esi
  000c4	2b c3		 sub	 eax, ebx
  000c6	50		 push	 eax
  000c7	8d 04 99	 lea	 eax, DWORD PTR [ecx+ebx*4]
  000ca	50		 push	 eax
  000cb	e8 00 00 00 00	 call	 ??$_Uninitialized_fill_n@V?$allocator@J@std@@@std@@YAPAJPAJIABJAAV?$allocator@J@0@@Z ; std::_Uninitialized_fill_n<std::allocator<long> >
; File C:\Program Files\Microsoft Visual Studio\2022\Professional\VC\Tools\MSVC\14.44.35207\include\xmemory

; 1992 :             _STD _Copy_memmove(_UFirst, _ULast, _STD _Unfancy(_Dest));

  000d0	8b 5d 08	 mov	 ebx, DWORD PTR $T2[ebp]
  000d3	53		 push	 ebx
  000d4	ff 77 04	 push	 DWORD PTR [edi+4]
  000d7	ff 37		 push	 DWORD PTR [edi]
  000d9	e8 00 00 00 00	 call	 ??$_Copy_memmove@PAJPAJ@std@@YAPAJPAJ00@Z ; std::_Copy_memmove<long *,long *>
; File C:\Program Files\Microsoft Visual Studio\2022\Professional\VC\Tools\MSVC\14.44.35207\include\vector

; 2069 :         if (_Myfirst) { // destroy and deallocate old array

  000de	8b 07		 mov	 eax, DWORD PTR [edi]
; File C:\Program Files\Microsoft Visual Studio\2022\Professional\VC\Tools\MSVC\14.44.35207\include\xmemory

; 1992 :             _STD _Copy_memmove(_UFirst, _ULast, _STD _Unfancy(_Dest));

  000e0	83 c4 1c	 add	 esp, 28			; 0000001cH
; File C:\Program Files\Microsoft Visual Studio\2022\Professional\VC\Tools\MSVC\14.44.35207\include\vector

; 2069 :         if (_Myfirst) { // destroy and deallocate old array

  000e3	85 c0		 test	 eax, eax
  000e5	74 2c		 je	 SHORT $LN53@Resize

; 2070 :             _STD _Destroy_range(_Myfirst, _Mylast, _Al);
; 2071 :             _ASAN_VECTOR_REMOVE;
; 2072 :             _Al.deallocate(_Myfirst, static_cast<size_type>(_Myend - _Myfirst));

  000e7	8b 4f 08	 mov	 ecx, DWORD PTR [edi+8]
  000ea	2b c8		 sub	 ecx, eax
; File C:\Program Files\Microsoft Visual Studio\2022\Professional\VC\Tools\MSVC\14.44.35207\include\xmemory

; 985  :         _STD _Deallocate<_New_alignof<_Ty>>(_Ptr, sizeof(_Ty) * _Count);

  000ec	83 e1 fc	 and	 ecx, -4			; fffffffcH

; 284  :         if (_Bytes >= _Big_allocation_threshold) {

  000ef	81 f9 00 10 00
	00		 cmp	 ecx, 4096		; 00001000H
  000f5	72 12		 jb	 SHORT $LN58@Resize

; 205  :     const uintptr_t _Ptr_container   = _Ptr_user[-1];

  000f7	8b 50 fc	 mov	 edx, DWORD PTR [eax-4]
  000fa	83 c1 23	 add	 ecx, 35			; 00000023H

; 206  : 
; 207  :     // If the following asserts, it likely means that we are performing
; 208  :     // an aligned delete on memory coming from an unaligned allocation.
; 209  :     _STL_ASSERT(_Ptr_user[-2] == _Big_allocation_sentinel, "invalid argument");
; 210  : 
; 211  :     // Extra paranoia on aligned allocation/deallocation; ensure _Ptr_container is
; 212  :     // in range [_Min_back_shift, _Non_user_size]
; 213  : #ifdef _DEBUG
; 214  :     constexpr uintptr_t _Min_back_shift = 2 * sizeof(void*);
; 215  : #else // ^^^ defined(_DEBUG) / !defined(_DEBUG) vvv
; 216  :     constexpr uintptr_t _Min_back_shift = sizeof(void*);
; 217  : #endif // ^^^ !defined(_DEBUG) ^^^
; 218  :     const uintptr_t _Back_shift = reinterpret_cast<uintptr_t>(_Ptr) - _Ptr_container;

  000fd	2b c2		 sub	 eax, edx

; 219  :     _STL_VERIFY(_Back_shift >= _Min_back_shift && _Back_shift <= _Non_user_size, "invalid argument");

  000ff	83 c0 fc	 add	 eax, -4			; fffffffcH
  00102	83 f8 1f	 cmp	 eax, 31			; 0000001fH
  00105	77 4b		 ja	 SHORT $LN57@Resize

; 220  :     _Ptr = reinterpret_cast<void*>(_Ptr_container);

  00107	8b c2		 mov	 eax, edx
$LN58@Resize:

; 289  :         ::operator delete(_Ptr, _Bytes);

  00109	51		 push	 ecx
  0010a	50		 push	 eax
  0010b	e8 00 00 00 00	 call	 ??3@YAXPAXI@Z		; operator delete
  00110	83 c4 08	 add	 esp, 8
$LN53@Resize:
; File C:\Program Files\Microsoft Visual Studio\2022\Professional\VC\Tools\MSVC\14.44.35207\include\vector

; 2076 :         _Mylast  = _Newvec + _Newsize;

  00113	8d 04 b3	 lea	 eax, DWORD PTR [ebx+esi*4]
  00116	89 1f		 mov	 DWORD PTR [edi], ebx
  00118	89 47 04	 mov	 DWORD PTR [edi+4], eax

; 2077 :         _Myend   = _Newvec + _Newcapacity;

  0011b	8b 45 fc	 mov	 eax, DWORD PTR tv575[ebp]
  0011e	03 c3		 add	 eax, ebx
  00120	89 47 08	 mov	 DWORD PTR [edi+8], eax
  00123	5f		 pop	 edi

; 1625 :     }

  00124	5e		 pop	 esi
  00125	5b		 pop	 ebx
  00126	8b e5		 mov	 esp, ebp
  00128	5d		 pop	 ebp
  00129	c2 08 00	 ret	 8
$LN4@Resize:

; 1608 :                 _Resize_reallocate(_Newsize, _Val);
; 1609 :                 return;
; 1610 :             }
; 1611 : 
; 1612 :             _ASAN_VECTOR_EXTEND_GUARD(_Newsize);
; 1613 :             const pointer _Oldlast = _Mylast;
; 1614 :             if constexpr (is_same_v<_Ty2, _Ty>) {
; 1615 :                 _Mylast = _Uninitialized_fill_n(_Oldlast, _Newsize - _Oldsize, _Val, _Al);

  0012c	57		 push	 edi
  0012d	ff 75 0c	 push	 DWORD PTR __Val$[ebp]
  00130	2b f3		 sub	 esi, ebx
  00132	56		 push	 esi
  00133	52		 push	 edx
  00134	e8 00 00 00 00	 call	 ??$_Uninitialized_fill_n@V?$allocator@J@std@@@std@@YAPAJPAJIABJAAV?$allocator@J@0@@Z ; std::_Uninitialized_fill_n<std::allocator<long> >
  00139	83 c4 10	 add	 esp, 16			; 00000010H

; 1625 :     }

  0013c	89 47 04	 mov	 DWORD PTR [edi+4], eax
$LN3@Resize:
  0013f	5f		 pop	 edi
  00140	5e		 pop	 esi
  00141	5b		 pop	 ebx
  00142	8b e5		 mov	 esp, ebp
  00144	5d		 pop	 ebp
  00145	c2 08 00	 ret	 8
$LN97@Resize:

; 1554 :             _Xlength();

  00148	e8 00 00 00 00	 call	 ?_Xlength@?$vector@JV?$allocator@J@std@@@std@@CAXXZ ; std::vector<long,std::allocator<long> >::_Xlength
$LN98@Resize:
; File C:\Program Files\Microsoft Visual Studio\2022\Professional\VC\Tools\MSVC\14.44.35207\include\xmemory

; 118  :             _Throw_bad_array_new_length(); // multiply overflow

  0014d	e8 00 00 00 00	 call	 ?_Throw_bad_array_new_length@std@@YAXXZ ; std::_Throw_bad_array_new_length
$LN57@Resize:

; 219  :     _STL_VERIFY(_Back_shift >= _Min_back_shift && _Back_shift <= _Non_user_size, "invalid argument");

  00152	6a 00		 push	 0
  00154	6a 00		 push	 0
  00156	6a 00		 push	 0
  00158	6a 00		 push	 0
  0015a	6a 00		 push	 0
  0015c	e8 00 00 00 00	 call	 __invoke_watson
$LN93@Resize:
  00161	cc		 int	 3
??$_Resize@J@?$vector@JV?$allocator@J@std@@@std@@AAEXIABJ@Z ENDP ; std::vector<long,std::allocator<long> >::_Resize<long>
_TEXT	ENDS
; Function compile flags: /Ogtp
;	COMDAT ??_GCPiercing@@UAEPAXI@Z
_TEXT	SEGMENT
___flags$ = 8						; size = 4
??_GCPiercing@@UAEPAXI@Z PROC				; CPiercing::`scalar deleting destructor', COMDAT
; _this$ = ecx
  00000	55		 push	 ebp
  00001	8b ec		 mov	 ebp, esp
  00003	56		 push	 esi
  00004	8b f1		 mov	 esi, ecx
  00006	e8 00 00 00 00	 call	 ??1CPiercing@@UAE@XZ	; CPiercing::~CPiercing
  0000b	f6 45 08 01	 test	 BYTE PTR ___flags$[ebp], 1
  0000f	74 0b		 je	 SHORT $LN5@scalar
  00011	6a 28		 push	 40			; 00000028H
  00013	56		 push	 esi
  00014	e8 00 00 00 00	 call	 ??3@YAXPAXI@Z		; operator delete
  00019	83 c4 08	 add	 esp, 8
$LN5@scalar:
  0001c	8b c6		 mov	 eax, esi
  0001e	5e		 pop	 esi
  0001f	5d		 pop	 ebp
  00020	c2 04 00	 ret	 4
??_GCPiercing@@UAEPAXI@Z ENDP				; CPiercing::`scalar deleting destructor'
_TEXT	ENDS
; Function compile flags: /Ogtp
; File C:\IAGOS\server\v18\Source\Source\_Common\piercing.cpp
; File C:\Program Files\Microsoft Visual Studio\2022\Professional\VC\Tools\MSVC\14.44.35207\include\vector
; File C:\IAGOS\server\v18\Source\Source\_Common\piercing.cpp
;	COMDAT ?GetVisKeepTime@CPiercing@@QAEJH@Z
_TEXT	SEGMENT
_nth$ = 8						; size = 4
?GetVisKeepTime@CPiercing@@QAEJH@Z PROC			; CPiercing::GetVisKeepTime, COMDAT
; _this$ = ecx

; 172  : {

  00000	55		 push	 ebp
  00001	8b ec		 mov	 ebp, esp
  00003	56		 push	 esi
  00004	8b f1		 mov	 esi, ecx

; 173  : 	if( nth >= GetPiercingSize() || nth >= (int)( m_vtmPetVis.size() ) )

  00006	e8 00 00 00 00	 call	 ?GetPiercingSize@CPiercing@@QAEHXZ ; CPiercing::GetPiercingSize
  0000b	8b 55 08	 mov	 edx, DWORD PTR _nth$[ebp]
  0000e	3b d0		 cmp	 edx, eax
  00010	7d 17		 jge	 SHORT $LN3@GetVisKeep
; File C:\Program Files\Microsoft Visual Studio\2022\Professional\VC\Tools\MSVC\14.44.35207\include\vector

; 1915 :         return static_cast<size_type>(_My_data._Mylast - _My_data._Myfirst);

  00012	8b 4e 20	 mov	 ecx, DWORD PTR [esi+32]
  00015	8b 46 1c	 mov	 eax, DWORD PTR [esi+28]
  00018	2b c8		 sub	 ecx, eax
  0001a	c1 f9 02	 sar	 ecx, 2
; File C:\IAGOS\server\v18\Source\Source\_Common\piercing.cpp

; 173  : 	if( nth >= GetPiercingSize() || nth >= (int)( m_vtmPetVis.size() ) )

  0001d	3b d1		 cmp	 edx, ecx
  0001f	7d 08		 jge	 SHORT $LN3@GetVisKeep

; 175  : 
; 176  : 	return m_vtmPetVis[nth];

  00021	8b 04 90	 mov	 eax, DWORD PTR [eax+edx*4]
  00024	5e		 pop	 esi

; 177  : }

  00025	5d		 pop	 ebp
  00026	c2 04 00	 ret	 4
$LN3@GetVisKeep:

; 174  : 		return 0;

  00029	33 c0		 xor	 eax, eax
  0002b	5e		 pop	 esi

; 177  : }

  0002c	5d		 pop	 ebp
  0002d	c2 04 00	 ret	 4
?GetVisKeepTime@CPiercing@@QAEJH@Z ENDP			; CPiercing::GetVisKeepTime
_TEXT	ENDS
; Function compile flags: /Ogtp
; File C:\IAGOS\server\v18\Source\Source\_Common\piercing.cpp
; File C:\Program Files\Microsoft Visual Studio\2022\Professional\VC\Tools\MSVC\14.44.35207\include\vector
; File C:\IAGOS\server\v18\Source\Source\_Common\piercing.cpp
;	COMDAT ?SetVisKeepTime@CPiercing@@QAEXHJ@Z
_TEXT	SEGMENT
_nth$ = 8						; size = 4
_tmKeep$ = 12						; size = 4
?SetVisKeepTime@CPiercing@@QAEXHJ@Z PROC		; CPiercing::SetVisKeepTime, COMDAT
; _this$ = ecx

; 164  : {

  00000	55		 push	 ebp
  00001	8b ec		 mov	 ebp, esp
  00003	56		 push	 esi
  00004	8b f1		 mov	 esi, ecx

; 165  : 	if( nth >= GetPiercingSize() || nth >= (int)( m_vtmPetVis.size() ) )

  00006	e8 00 00 00 00	 call	 ?GetPiercingSize@CPiercing@@QAEHXZ ; CPiercing::GetPiercingSize
  0000b	8b 55 08	 mov	 edx, DWORD PTR _nth$[ebp]
  0000e	3b d0		 cmp	 edx, eax
  00010	7d 15		 jge	 SHORT $LN3@SetVisKeep
; File C:\Program Files\Microsoft Visual Studio\2022\Professional\VC\Tools\MSVC\14.44.35207\include\vector

; 1915 :         return static_cast<size_type>(_My_data._Mylast - _My_data._Myfirst);

  00012	8b 46 20	 mov	 eax, DWORD PTR [esi+32]
  00015	8b 4e 1c	 mov	 ecx, DWORD PTR [esi+28]
  00018	2b c1		 sub	 eax, ecx
  0001a	c1 f8 02	 sar	 eax, 2
; File C:\IAGOS\server\v18\Source\Source\_Common\piercing.cpp

; 165  : 	if( nth >= GetPiercingSize() || nth >= (int)( m_vtmPetVis.size() ) )

  0001d	3b d0		 cmp	 edx, eax
  0001f	7d 06		 jge	 SHORT $LN3@SetVisKeep

; 166  : 		return;
; 167  : 
; 168  : 	m_vtmPetVis[nth] = tmKeep;

  00021	8b 45 0c	 mov	 eax, DWORD PTR _tmKeep$[ebp]
  00024	89 04 91	 mov	 DWORD PTR [ecx+edx*4], eax
$LN3@SetVisKeep:
  00027	5e		 pop	 esi

; 169  : }

  00028	5d		 pop	 ebp
  00029	c2 08 00	 ret	 8
?SetVisKeepTime@CPiercing@@QAEXHJ@Z ENDP		; CPiercing::SetVisKeepTime
_TEXT	ENDS
; Function compile flags: /Ogtp
; File C:\Program Files\Microsoft Visual Studio\2022\Professional\VC\Tools\MSVC\14.44.35207\include\vector
;	COMDAT ?_Xlength@?$vector@JV?$allocator@J@std@@@std@@CAXXZ
_TEXT	SEGMENT
?_Xlength@?$vector@JV?$allocator@J@std@@@std@@CAXXZ PROC ; std::vector<long,std::allocator<long> >::_Xlength, COMDAT

; 2184 :         _Xlength_error("vector too long");

  00000	68 00 00 00 00	 push	 OFFSET ??_C@_0BA@FOIKENOD@vector?5too?5long@
  00005	e8 00 00 00 00	 call	 ?_Xlength_error@std@@YAXPBD@Z ; std::_Xlength_error
$LN3@Xlength:
  0000a	cc		 int	 3
?_Xlength@?$vector@JV?$allocator@J@std@@@std@@CAXXZ ENDP ; std::vector<long,std::allocator<long> >::_Xlength
_TEXT	ENDS
; Function compile flags: /Ogtp
; File C:\Program Files\Microsoft Visual Studio\2022\Professional\VC\Tools\MSVC\14.44.35207\include\vector
; File C:\Program Files\Microsoft Visual Studio\2022\Professional\VC\Tools\MSVC\14.44.35207\include\xmemory
; File C:\Program Files\Microsoft Visual Studio\2022\Professional\VC\Tools\MSVC\14.44.35207\include\vector
; File C:\Program Files\Microsoft Visual Studio\2022\Professional\VC\Tools\MSVC\14.44.35207\include\xmemory
; File C:\Program Files\Microsoft Visual Studio\2022\Professional\VC\Tools\MSVC\14.44.35207\include\vector
; File C:\Program Files\Microsoft Visual Studio\2022\Professional\VC\Tools\MSVC\14.44.35207\include\xmemory
; File C:\Program Files\Microsoft Visual Studio\2022\Professional\VC\Tools\MSVC\14.44.35207\include\vector
;	COMDAT ??1?$vector@JV?$allocator@J@std@@@std@@QAE@XZ
_TEXT	SEGMENT
??1?$vector@JV?$allocator@J@std@@@std@@QAE@XZ PROC	; std::vector<long,std::allocator<long> >::~vector<long,std::allocator<long> >, COMDAT
; _this$ = ecx

; 829  :     _CONSTEXPR20 ~vector() noexcept {

  00000	56		 push	 esi
  00001	8b f1		 mov	 esi, ecx

; 2090 :         if (_Myfirst) { // destroy and deallocate old array

  00003	8b 06		 mov	 eax, DWORD PTR [esi]
  00005	85 c0		 test	 eax, eax
  00007	74 40		 je	 SHORT $LN5@vector

; 2091 :             _STD _Destroy_range(_Myfirst, _Mylast, _Al);
; 2092 :             _ASAN_VECTOR_REMOVE;
; 2093 :             _Al.deallocate(_Myfirst, static_cast<size_type>(_Myend - _Myfirst));

  00009	8b 4e 08	 mov	 ecx, DWORD PTR [esi+8]
  0000c	2b c8		 sub	 ecx, eax
; File C:\Program Files\Microsoft Visual Studio\2022\Professional\VC\Tools\MSVC\14.44.35207\include\xmemory

; 985  :         _STD _Deallocate<_New_alignof<_Ty>>(_Ptr, sizeof(_Ty) * _Count);

  0000e	83 e1 fc	 and	 ecx, -4			; fffffffcH

; 284  :         if (_Bytes >= _Big_allocation_threshold) {

  00011	81 f9 00 10 00
	00		 cmp	 ecx, 4096		; 00001000H
  00017	72 12		 jb	 SHORT $LN18@vector

; 205  :     const uintptr_t _Ptr_container   = _Ptr_user[-1];

  00019	8b 50 fc	 mov	 edx, DWORD PTR [eax-4]
  0001c	83 c1 23	 add	 ecx, 35			; 00000023H

; 206  : 
; 207  :     // If the following asserts, it likely means that we are performing
; 208  :     // an aligned delete on memory coming from an unaligned allocation.
; 209  :     _STL_ASSERT(_Ptr_user[-2] == _Big_allocation_sentinel, "invalid argument");
; 210  : 
; 211  :     // Extra paranoia on aligned allocation/deallocation; ensure _Ptr_container is
; 212  :     // in range [_Min_back_shift, _Non_user_size]
; 213  : #ifdef _DEBUG
; 214  :     constexpr uintptr_t _Min_back_shift = 2 * sizeof(void*);
; 215  : #else // ^^^ defined(_DEBUG) / !defined(_DEBUG) vvv
; 216  :     constexpr uintptr_t _Min_back_shift = sizeof(void*);
; 217  : #endif // ^^^ !defined(_DEBUG) ^^^
; 218  :     const uintptr_t _Back_shift = reinterpret_cast<uintptr_t>(_Ptr) - _Ptr_container;

  0001f	2b c2		 sub	 eax, edx

; 219  :     _STL_VERIFY(_Back_shift >= _Min_back_shift && _Back_shift <= _Non_user_size, "invalid argument");

  00021	83 c0 fc	 add	 eax, -4			; fffffffcH
  00024	83 f8 1f	 cmp	 eax, 31			; 0000001fH
  00027	77 22		 ja	 SHORT $LN17@vector

; 220  :     _Ptr = reinterpret_cast<void*>(_Ptr_container);

  00029	8b c2		 mov	 eax, edx
$LN18@vector:

; 289  :         ::operator delete(_Ptr, _Bytes);

  0002b	51		 push	 ecx
  0002c	50		 push	 eax
  0002d	e8 00 00 00 00	 call	 ??3@YAXPAXI@Z		; operator delete
; File C:\Program Files\Microsoft Visual Studio\2022\Professional\VC\Tools\MSVC\14.44.35207\include\vector

; 2095 :             _Myfirst = nullptr;

  00032	c7 06 00 00 00
	00		 mov	 DWORD PTR [esi], 0
; File C:\Program Files\Microsoft Visual Studio\2022\Professional\VC\Tools\MSVC\14.44.35207\include\xmemory

; 289  :         ::operator delete(_Ptr, _Bytes);

  00038	83 c4 08	 add	 esp, 8
; File C:\Program Files\Microsoft Visual Studio\2022\Professional\VC\Tools\MSVC\14.44.35207\include\vector

; 2096 :             _Mylast  = nullptr;

  0003b	c7 46 04 00 00
	00 00		 mov	 DWORD PTR [esi+4], 0

; 2097 :             _Myend   = nullptr;

  00042	c7 46 08 00 00
	00 00		 mov	 DWORD PTR [esi+8], 0
$LN5@vector:
  00049	5e		 pop	 esi

; 835  :     }

  0004a	c3		 ret	 0
$LN17@vector:
; File C:\Program Files\Microsoft Visual Studio\2022\Professional\VC\Tools\MSVC\14.44.35207\include\xmemory

; 219  :     _STL_VERIFY(_Back_shift >= _Min_back_shift && _Back_shift <= _Non_user_size, "invalid argument");

  0004b	6a 00		 push	 0
  0004d	6a 00		 push	 0
  0004f	6a 00		 push	 0
  00051	6a 00		 push	 0
  00053	6a 00		 push	 0
  00055	e8 00 00 00 00	 call	 __invoke_watson
$LN26@vector:
  0005a	cc		 int	 3
??1?$vector@JV?$allocator@J@std@@@std@@QAE@XZ ENDP	; std::vector<long,std::allocator<long> >::~vector<long,std::allocator<long> >
_TEXT	ENDS
; Function compile flags: /Ogtp
; File C:\Program Files\Microsoft Visual Studio\2022\Professional\VC\Tools\MSVC\14.44.35207\include\xmemory
;	COMDAT ?deallocate@?$allocator@J@std@@QAEXQAJI@Z
_TEXT	SEGMENT
__Ptr$ = 8						; size = 4
__Count$ = 12						; size = 4
?deallocate@?$allocator@J@std@@QAEXQAJI@Z PROC		; std::allocator<long>::deallocate, COMDAT
; _this$ = ecx

; 982  :     _CONSTEXPR20 void deallocate(_Ty* const _Ptr, const size_t _Count) noexcept /* strengthened */ {

  00000	55		 push	 ebp
  00001	8b ec		 mov	 ebp, esp

; 983  :         _STL_ASSERT(_Ptr != nullptr || _Count == 0, "null pointer cannot point to a block of non-zero size");
; 984  :         // no overflow check on the following multiply; we assume _Allocate did that check
; 985  :         _STD _Deallocate<_New_alignof<_Ty>>(_Ptr, sizeof(_Ty) * _Count);

  00003	8b 45 0c	 mov	 eax, DWORD PTR __Count$[ebp]
  00006	8d 0c 85 00 00
	00 00		 lea	 ecx, DWORD PTR [eax*4]
  0000d	8b 45 08	 mov	 eax, DWORD PTR __Ptr$[ebp]

; 284  :         if (_Bytes >= _Big_allocation_threshold) {

  00010	81 f9 00 10 00
	00		 cmp	 ecx, 4096		; 00001000H
  00016	72 12		 jb	 SHORT $LN11@deallocate

; 205  :     const uintptr_t _Ptr_container   = _Ptr_user[-1];

  00018	8b 50 fc	 mov	 edx, DWORD PTR [eax-4]
  0001b	83 c1 23	 add	 ecx, 35			; 00000023H

; 206  : 
; 207  :     // If the following asserts, it likely means that we are performing
; 208  :     // an aligned delete on memory coming from an unaligned allocation.
; 209  :     _STL_ASSERT(_Ptr_user[-2] == _Big_allocation_sentinel, "invalid argument");
; 210  : 
; 211  :     // Extra paranoia on aligned allocation/deallocation; ensure _Ptr_container is
; 212  :     // in range [_Min_back_shift, _Non_user_size]
; 213  : #ifdef _DEBUG
; 214  :     constexpr uintptr_t _Min_back_shift = 2 * sizeof(void*);
; 215  : #else // ^^^ defined(_DEBUG) / !defined(_DEBUG) vvv
; 216  :     constexpr uintptr_t _Min_back_shift = sizeof(void*);
; 217  : #endif // ^^^ !defined(_DEBUG) ^^^
; 218  :     const uintptr_t _Back_shift = reinterpret_cast<uintptr_t>(_Ptr) - _Ptr_container;

  0001e	2b c2		 sub	 eax, edx

; 219  :     _STL_VERIFY(_Back_shift >= _Min_back_shift && _Back_shift <= _Non_user_size, "invalid argument");

  00020	83 c0 fc	 add	 eax, -4			; fffffffcH
  00023	83 f8 1f	 cmp	 eax, 31			; 0000001fH
  00026	77 10		 ja	 SHORT $LN10@deallocate

; 220  :     _Ptr = reinterpret_cast<void*>(_Ptr_container);

  00028	8b c2		 mov	 eax, edx
$LN11@deallocate:

; 289  :         ::operator delete(_Ptr, _Bytes);

  0002a	51		 push	 ecx
  0002b	50		 push	 eax
  0002c	e8 00 00 00 00	 call	 ??3@YAXPAXI@Z		; operator delete
  00031	83 c4 08	 add	 esp, 8

; 986  :     }

  00034	5d		 pop	 ebp
  00035	c2 08 00	 ret	 8
$LN10@deallocate:

; 219  :     _STL_VERIFY(_Back_shift >= _Min_back_shift && _Back_shift <= _Non_user_size, "invalid argument");

  00038	6a 00		 push	 0
  0003a	6a 00		 push	 0
  0003c	6a 00		 push	 0
  0003e	6a 00		 push	 0
  00040	6a 00		 push	 0
  00042	e8 00 00 00 00	 call	 __invoke_watson
$LN14@deallocate:
  00047	cc		 int	 3
?deallocate@?$allocator@J@std@@QAEXQAJI@Z ENDP		; std::allocator<long>::deallocate
_TEXT	ENDS
; Function compile flags: /Ogtp
; File C:\IAGOS\server\v18\Source\Source\_Common\piercing.cpp
;	COMDAT ?GetUltimatePiercingItem@CPiercing@@QAEKH@Z
_TEXT	SEGMENT
_nth$ = 8						; size = 4
?GetUltimatePiercingItem@CPiercing@@QAEKH@Z PROC	; CPiercing::GetUltimatePiercingItem, COMDAT
; _this$ = ecx

; 154  : {

  00000	55		 push	 ebp
  00001	8b ec		 mov	 ebp, esp
  00003	56		 push	 esi
  00004	8b f1		 mov	 esi, ecx

; 155  : 	if( nth >= GetUltimatePiercingSize()  )

  00006	e8 00 00 00 00	 call	 ?GetUltimatePiercingSize@CPiercing@@QAEHXZ ; CPiercing::GetUltimatePiercingSize
  0000b	8b 4d 08	 mov	 ecx, DWORD PTR _nth$[ebp]
  0000e	3b c8		 cmp	 ecx, eax
  00010	7c 07		 jl	 SHORT $LN2@GetUltimat

; 156  : 		return 0;

  00012	33 c0		 xor	 eax, eax
  00014	5e		 pop	 esi

; 159  : }

  00015	5d		 pop	 ebp
  00016	c2 04 00	 ret	 4
$LN2@GetUltimat:

; 157  : 
; 158  : 	return m_vUltimatePiercing[nth];

  00019	8b 46 10	 mov	 eax, DWORD PTR [esi+16]
  0001c	5e		 pop	 esi
  0001d	8b 04 88	 mov	 eax, DWORD PTR [eax+ecx*4]

; 159  : }

  00020	5d		 pop	 ebp
  00021	c2 04 00	 ret	 4
?GetUltimatePiercingItem@CPiercing@@QAEKH@Z ENDP	; CPiercing::GetUltimatePiercingItem
_TEXT	ENDS
; Function compile flags: /Ogtp
; File C:\IAGOS\server\v18\Source\Source\_Common\piercing.cpp
;	COMDAT ?SetUltimatePiercingItem@CPiercing@@QAEXHK@Z
_TEXT	SEGMENT
_nth$ = 8						; size = 4
_dwItem$ = 12						; size = 4
?SetUltimatePiercingItem@CPiercing@@QAEXHK@Z PROC	; CPiercing::SetUltimatePiercingItem, COMDAT
; _this$ = ecx

; 146  : {

  00000	55		 push	 ebp
  00001	8b ec		 mov	 ebp, esp
  00003	56		 push	 esi
  00004	8b f1		 mov	 esi, ecx

; 147  : 	if( nth >= GetUltimatePiercingSize() )

  00006	e8 00 00 00 00	 call	 ?GetUltimatePiercingSize@CPiercing@@QAEHXZ ; CPiercing::GetUltimatePiercingSize
  0000b	8b 55 08	 mov	 edx, DWORD PTR _nth$[ebp]
  0000e	3b d0		 cmp	 edx, eax
  00010	7d 09		 jge	 SHORT $LN1@SetUltimat

; 148  : 		return;
; 149  : 
; 150  : 	m_vUltimatePiercing[nth]	= dwItem;

  00012	8b 4e 10	 mov	 ecx, DWORD PTR [esi+16]
  00015	8b 45 0c	 mov	 eax, DWORD PTR _dwItem$[ebp]
  00018	89 04 91	 mov	 DWORD PTR [ecx+edx*4], eax
$LN1@SetUltimat:
  0001b	5e		 pop	 esi

; 151  : }

  0001c	5d		 pop	 ebp
  0001d	c2 08 00	 ret	 8
?SetUltimatePiercingItem@CPiercing@@QAEXHK@Z ENDP	; CPiercing::SetUltimatePiercingItem
_TEXT	ENDS
; Function compile flags: /Ogtp
; File C:\IAGOS\server\v18\Source\Source\_Common\piercing.cpp
; File C:\Program Files\Microsoft Visual Studio\2022\Professional\VC\Tools\MSVC\14.44.35207\include\vector
; File C:\IAGOS\server\v18\Source\Source\_Common\piercing.cpp
;	COMDAT ?GetUltimatePiercingSize@CPiercing@@QAEHXZ
_TEXT	SEGMENT
?GetUltimatePiercingSize@CPiercing@@QAEHXZ PROC		; CPiercing::GetUltimatePiercingSize, COMDAT
; _this$ = ecx
; File C:\Program Files\Microsoft Visual Studio\2022\Professional\VC\Tools\MSVC\14.44.35207\include\vector

; 1915 :         return static_cast<size_type>(_My_data._Mylast - _My_data._Myfirst);

  00000	8b 41 14	 mov	 eax, DWORD PTR [ecx+20]
  00003	2b 41 10	 sub	 eax, DWORD PTR [ecx+16]
  00006	c1 f8 02	 sar	 eax, 2
; File C:\IAGOS\server\v18\Source\Source\_Common\piercing.cpp

; 143  : }

  00009	c3		 ret	 0
?GetUltimatePiercingSize@CPiercing@@QAEHXZ ENDP		; CPiercing::GetUltimatePiercingSize
_TEXT	ENDS
; Function compile flags: /Ogtp
; File C:\IAGOS\server\v18\Source\Source\_Common\piercing.cpp
; File C:\Program Files\Microsoft Visual Studio\2022\Professional\VC\Tools\MSVC\14.44.35207\include\vector
; File C:\IAGOS\server\v18\Source\Source\_Common\piercing.cpp
; File C:\Program Files\Microsoft Visual Studio\2022\Professional\VC\Tools\MSVC\14.44.35207\include\vector
; File C:\IAGOS\server\v18\Source\Source\_Common\piercing.cpp
;	COMDAT ?SetUltimatePiercingSize@CPiercing@@QAEXH@Z
_TEXT	SEGMENT
$T1 = -4						; size = 4
_nSize$ = 8						; size = 4
?SetUltimatePiercingSize@CPiercing@@QAEXH@Z PROC	; CPiercing::SetUltimatePiercingSize, COMDAT
; _this$ = ecx

; 133  : {

  00000	55		 push	 ebp
  00001	8b ec		 mov	 ebp, esp
  00003	51		 push	 ecx

; 137  : 	m_vUltimatePiercing.resize( nSize, 0 );

  00004	ba 05 00 00 00	 mov	 edx, 5
  00009	c7 45 fc 00 00
	00 00		 mov	 DWORD PTR $T1[ebp], 0
  00010	39 55 08	 cmp	 DWORD PTR _nSize$[ebp], edx
; File C:\Program Files\Microsoft Visual Studio\2022\Professional\VC\Tools\MSVC\14.44.35207\include\vector

; 1635 :         _Resize(_Newsize, _Val);

  00013	8d 45 fc	 lea	 eax, DWORD PTR $T1[ebp]
  00016	50		 push	 eax
; File C:\IAGOS\server\v18\Source\Source\_Common\piercing.cpp

; 137  : 	m_vUltimatePiercing.resize( nSize, 0 );

  00017	0f 4e 55 08	 cmovle	 edx, DWORD PTR _nSize$[ebp]
  0001b	83 c1 10	 add	 ecx, 16			; 00000010H
; File C:\Program Files\Microsoft Visual Studio\2022\Professional\VC\Tools\MSVC\14.44.35207\include\vector

; 1635 :         _Resize(_Newsize, _Val);

  0001e	52		 push	 edx
  0001f	e8 00 00 00 00	 call	 ??$_Resize@K@?$vector@KV?$allocator@K@std@@@std@@AAEXIABK@Z ; std::vector<unsigned long,std::allocator<unsigned long> >::_Resize<unsigned long>
; File C:\IAGOS\server\v18\Source\Source\_Common\piercing.cpp

; 138  : }

  00024	8b e5		 mov	 esp, ebp
  00026	5d		 pop	 ebp
  00027	c2 04 00	 ret	 4
?SetUltimatePiercingSize@CPiercing@@QAEXH@Z ENDP	; CPiercing::SetUltimatePiercingSize
_TEXT	ENDS
; Function compile flags: /Ogtp
; File C:\IAGOS\server\v18\Source\Source\_Common\piercing.cpp
;	COMDAT ?IsPiercedItem@CPiercing@@QAEHXZ
_TEXT	SEGMENT
?IsPiercedItem@CPiercing@@QAEHXZ PROC			; CPiercing::IsPiercedItem, COMDAT
; _this$ = ecx

; 120  : {

  00000	56		 push	 esi
  00001	8b f1		 mov	 esi, ecx

; 121  : 	if( GetPiercingSize() > 0
; 122  : #if __VER >= 12 // __EXT_PIERCING
; 123  : 		|| GetUltimatePiercingSize() > 0 

  00003	e8 00 00 00 00	 call	 ?GetPiercingSize@CPiercing@@QAEHXZ ; CPiercing::GetPiercingSize
  00008	85 c0		 test	 eax, eax
  0000a	7f 12		 jg	 SHORT $LN3@IsPiercedI
  0000c	8b ce		 mov	 ecx, esi
  0000e	e8 00 00 00 00	 call	 ?GetUltimatePiercingSize@CPiercing@@QAEHXZ ; CPiercing::GetUltimatePiercingSize
  00013	33 c9		 xor	 ecx, ecx
  00015	85 c0		 test	 eax, eax
  00017	5e		 pop	 esi
  00018	0f 9f c1	 setg	 cl

; 127  : 
; 128  : 	return FALSE;

  0001b	8b c1		 mov	 eax, ecx

; 129  : }

  0001d	c3		 ret	 0
$LN3@IsPiercedI:

; 124  : #endif // __EXT_PIERCING
; 125  : 		)
; 126  : 		return TRUE;

  0001e	b8 01 00 00 00	 mov	 eax, 1
  00023	5e		 pop	 esi

; 129  : }

  00024	c3		 ret	 0
?IsPiercedItem@CPiercing@@QAEHXZ ENDP			; CPiercing::IsPiercedItem
_TEXT	ENDS
; Function compile flags: /Ogtp
; File C:\IAGOS\server\v18\Source\Source\_Common\piercing.cpp
; File C:\Program Files\Microsoft Visual Studio\2022\Professional\VC\Tools\MSVC\14.44.35207\include\vector
; File C:\IAGOS\server\v18\Source\Source\_Common\piercing.cpp
;	COMDAT ?Clear@CPiercing@@QAEXXZ
_TEXT	SEGMENT
?Clear@CPiercing@@QAEXXZ PROC				; CPiercing::Clear, COMDAT
; _this$ = ecx
; File C:\Program Files\Microsoft Visual Studio\2022\Professional\VC\Tools\MSVC\14.44.35207\include\vector

; 1812 :         if (_Myfirst == _Mylast) { // already empty, nothing to do

  00000	8b 41 04	 mov	 eax, DWORD PTR [ecx+4]
  00003	3b 41 08	 cmp	 eax, DWORD PTR [ecx+8]
  00006	74 03		 je	 SHORT $LN3@Clear

; 1813 :             // This is an optimization for debug mode: we can avoid taking the debug lock to invalidate iterators.
; 1814 :             // Note that when clearing an empty vector, this will preserve past-the-end iterators, which is allowed by
; 1815 :             // N4950 [sequence.reqmts]/54 "a.clear() [...] may invalidate the past-the-end iterator".
; 1816 :             return;
; 1817 :         }
; 1818 : 
; 1819 :         _My_data._Orphan_all();
; 1820 :         _Destroy_range(_Myfirst, _Mylast, _Getal());
; 1821 :         _ASAN_VECTOR_MODIFY(static_cast<difference_type>(_Myfirst - _Mylast)); // negative when destroying elements
; 1822 :         _Mylast = _Myfirst;

  00008	89 41 08	 mov	 DWORD PTR [ecx+8], eax
$LN3@Clear:

; 1812 :         if (_Myfirst == _Mylast) { // already empty, nothing to do

  0000b	8b 41 10	 mov	 eax, DWORD PTR [ecx+16]
  0000e	3b 41 14	 cmp	 eax, DWORD PTR [ecx+20]
  00011	74 03		 je	 SHORT $LN7@Clear

; 1813 :             // This is an optimization for debug mode: we can avoid taking the debug lock to invalidate iterators.
; 1814 :             // Note that when clearing an empty vector, this will preserve past-the-end iterators, which is allowed by
; 1815 :             // N4950 [sequence.reqmts]/54 "a.clear() [...] may invalidate the past-the-end iterator".
; 1816 :             return;
; 1817 :         }
; 1818 : 
; 1819 :         _My_data._Orphan_all();
; 1820 :         _Destroy_range(_Myfirst, _Mylast, _Getal());
; 1821 :         _ASAN_VECTOR_MODIFY(static_cast<difference_type>(_Myfirst - _Mylast)); // negative when destroying elements
; 1822 :         _Mylast = _Myfirst;

  00013	89 41 14	 mov	 DWORD PTR [ecx+20], eax
$LN7@Clear:

; 1812 :         if (_Myfirst == _Mylast) { // already empty, nothing to do

  00016	8b 41 1c	 mov	 eax, DWORD PTR [ecx+28]
  00019	3b 41 20	 cmp	 eax, DWORD PTR [ecx+32]
  0001c	74 03		 je	 SHORT $LN11@Clear

; 1813 :             // This is an optimization for debug mode: we can avoid taking the debug lock to invalidate iterators.
; 1814 :             // Note that when clearing an empty vector, this will preserve past-the-end iterators, which is allowed by
; 1815 :             // N4950 [sequence.reqmts]/54 "a.clear() [...] may invalidate the past-the-end iterator".
; 1816 :             return;
; 1817 :         }
; 1818 : 
; 1819 :         _My_data._Orphan_all();
; 1820 :         _Destroy_range(_Myfirst, _Mylast, _Getal());
; 1821 :         _ASAN_VECTOR_MODIFY(static_cast<difference_type>(_Myfirst - _Mylast)); // negative when destroying elements
; 1822 :         _Mylast = _Myfirst;

  0001e	89 41 20	 mov	 DWORD PTR [ecx+32], eax
$LN11@Clear:
; File C:\IAGOS\server\v18\Source\Source\_Common\piercing.cpp

; 34   : }

  00021	c3		 ret	 0
?Clear@CPiercing@@QAEXXZ ENDP				; CPiercing::Clear
_TEXT	ENDS
; Function compile flags: /Ogtp
; File C:\IAGOS\server\v18\Source\Source\_Common\piercing.cpp
;	COMDAT ?GetPiercingItem@CPiercing@@QAEKH@Z
_TEXT	SEGMENT
_nth$ = 8						; size = 4
?GetPiercingItem@CPiercing@@QAEKH@Z PROC		; CPiercing::GetPiercingItem, COMDAT
; _this$ = ecx

; 112  : {

  00000	55		 push	 ebp
  00001	8b ec		 mov	 ebp, esp
  00003	56		 push	 esi
  00004	8b f1		 mov	 esi, ecx

; 113  : 	if( nth >= GetPiercingSize()  )

  00006	e8 00 00 00 00	 call	 ?GetPiercingSize@CPiercing@@QAEHXZ ; CPiercing::GetPiercingSize
  0000b	8b 4d 08	 mov	 ecx, DWORD PTR _nth$[ebp]
  0000e	3b c8		 cmp	 ecx, eax
  00010	7c 07		 jl	 SHORT $LN2@GetPiercin

; 114  : 		return 0;

  00012	33 c0		 xor	 eax, eax
  00014	5e		 pop	 esi

; 117  : }

  00015	5d		 pop	 ebp
  00016	c2 04 00	 ret	 4
$LN2@GetPiercin:

; 115  : 	
; 116  : 	return m_vPiercing[nth];

  00019	8b 46 04	 mov	 eax, DWORD PTR [esi+4]
  0001c	5e		 pop	 esi
  0001d	8b 04 88	 mov	 eax, DWORD PTR [eax+ecx*4]

; 117  : }

  00020	5d		 pop	 ebp
  00021	c2 04 00	 ret	 4
?GetPiercingItem@CPiercing@@QAEKH@Z ENDP		; CPiercing::GetPiercingItem
_TEXT	ENDS
; Function compile flags: /Ogtp
; File C:\IAGOS\server\v18\Source\Source\_Common\piercing.cpp
;	COMDAT ?SetPiercingItem@CPiercing@@QAEXHK@Z
_TEXT	SEGMENT
_nth$ = 8						; size = 4
_dwItem$ = 12						; size = 4
?SetPiercingItem@CPiercing@@QAEXHK@Z PROC		; CPiercing::SetPiercingItem, COMDAT
; _this$ = ecx

; 104  : {

  00000	55		 push	 ebp
  00001	8b ec		 mov	 ebp, esp
  00003	56		 push	 esi
  00004	8b f1		 mov	 esi, ecx

; 105  : 	if( nth >= GetPiercingSize() )

  00006	e8 00 00 00 00	 call	 ?GetPiercingSize@CPiercing@@QAEHXZ ; CPiercing::GetPiercingSize
  0000b	8b 55 08	 mov	 edx, DWORD PTR _nth$[ebp]
  0000e	3b d0		 cmp	 edx, eax
  00010	7d 09		 jge	 SHORT $LN1@SetPiercin

; 106  : 		return;
; 107  : 	
; 108  : 	m_vPiercing[nth]	= dwItem;

  00012	8b 4e 04	 mov	 ecx, DWORD PTR [esi+4]
  00015	8b 45 0c	 mov	 eax, DWORD PTR _dwItem$[ebp]
  00018	89 04 91	 mov	 DWORD PTR [ecx+edx*4], eax
$LN1@SetPiercin:
  0001b	5e		 pop	 esi

; 109  : }

  0001c	5d		 pop	 ebp
  0001d	c2 08 00	 ret	 8
?SetPiercingItem@CPiercing@@QAEXHK@Z ENDP		; CPiercing::SetPiercingItem
_TEXT	ENDS
; Function compile flags: /Ogtp
; File C:\IAGOS\server\v18\Source\Source\_Common\piercing.cpp
; File C:\Program Files\Microsoft Visual Studio\2022\Professional\VC\Tools\MSVC\14.44.35207\include\vector
; File C:\IAGOS\server\v18\Source\Source\_Common\piercing.cpp
;	COMDAT ?GetPiercingSize@CPiercing@@QAEHXZ
_TEXT	SEGMENT
?GetPiercingSize@CPiercing@@QAEHXZ PROC			; CPiercing::GetPiercingSize, COMDAT
; _this$ = ecx
; File C:\Program Files\Microsoft Visual Studio\2022\Professional\VC\Tools\MSVC\14.44.35207\include\vector

; 1915 :         return static_cast<size_type>(_My_data._Mylast - _My_data._Myfirst);

  00000	8b 41 08	 mov	 eax, DWORD PTR [ecx+8]
  00003	2b 41 04	 sub	 eax, DWORD PTR [ecx+4]
  00006	c1 f8 02	 sar	 eax, 2
; File C:\IAGOS\server\v18\Source\Source\_Common\piercing.cpp

; 101  : }

  00009	c3		 ret	 0
?GetPiercingSize@CPiercing@@QAEHXZ ENDP			; CPiercing::GetPiercingSize
_TEXT	ENDS
; Function compile flags: /Ogtp
; File C:\IAGOS\server\v18\Source\Source\_Common\piercing.cpp
; File C:\Program Files\Microsoft Visual Studio\2022\Professional\VC\Tools\MSVC\14.44.35207\include\vector
; File C:\IAGOS\server\v18\Source\Source\_Common\piercing.cpp
; File C:\Program Files\Microsoft Visual Studio\2022\Professional\VC\Tools\MSVC\14.44.35207\include\vector
; File C:\IAGOS\server\v18\Source\Source\_Common\piercing.cpp
;	COMDAT ?SetPiercingSize@CPiercing@@QAEXH@Z
_TEXT	SEGMENT
$T1 = -4						; size = 4
_nSize$ = 8						; size = 4
?SetPiercingSize@CPiercing@@QAEXH@Z PROC		; CPiercing::SetPiercingSize, COMDAT
; _this$ = ecx

; 91   : {

  00000	55		 push	 ebp
  00001	8b ec		 mov	 ebp, esp
  00003	51		 push	 ecx

; 95   : 	m_vPiercing.resize( nSize, 0 );

  00004	ba 0a 00 00 00	 mov	 edx, 10			; 0000000aH
  00009	c7 45 fc 00 00
	00 00		 mov	 DWORD PTR $T1[ebp], 0
  00010	39 55 08	 cmp	 DWORD PTR _nSize$[ebp], edx
; File C:\Program Files\Microsoft Visual Studio\2022\Professional\VC\Tools\MSVC\14.44.35207\include\vector

; 1635 :         _Resize(_Newsize, _Val);

  00013	8d 45 fc	 lea	 eax, DWORD PTR $T1[ebp]
  00016	50		 push	 eax
; File C:\IAGOS\server\v18\Source\Source\_Common\piercing.cpp

; 95   : 	m_vPiercing.resize( nSize, 0 );

  00017	0f 4e 55 08	 cmovle	 edx, DWORD PTR _nSize$[ebp]
  0001b	83 c1 04	 add	 ecx, 4
; File C:\Program Files\Microsoft Visual Studio\2022\Professional\VC\Tools\MSVC\14.44.35207\include\vector

; 1635 :         _Resize(_Newsize, _Val);

  0001e	52		 push	 edx
  0001f	e8 00 00 00 00	 call	 ??$_Resize@K@?$vector@KV?$allocator@K@std@@@std@@AAEXIABK@Z ; std::vector<unsigned long,std::allocator<unsigned long> >::_Resize<unsigned long>
; File C:\IAGOS\server\v18\Source\Source\_Common\piercing.cpp

; 96   : }

  00024	8b e5		 mov	 esp, ebp
  00026	5d		 pop	 ebp
  00027	c2 04 00	 ret	 4
?SetPiercingSize@CPiercing@@QAEXH@Z ENDP		; CPiercing::SetPiercingSize
_TEXT	ENDS
; Function compile flags: /Ogtp
; File C:\IAGOS\server\v18\Source\Source\_Common\piercing.cpp
; File C:\IAGOS\server\v18\Source\Source\_Network\Misc\Include\Ar.h
; File C:\IAGOS\server\v18\Source\Source\_Common\piercing.cpp
; File C:\IAGOS\server\v18\Source\Source\_Network\Misc\Include\Ar.h
; File C:\IAGOS\server\v18\Source\Source\_Common\piercing.cpp
; File C:\Program Files\Microsoft Visual Studio\2022\Professional\VC\Tools\MSVC\14.44.35207\include\vector
; File C:\IAGOS\server\v18\Source\Source\_Common\piercing.cpp
; File C:\Program Files\Microsoft Visual Studio\2022\Professional\VC\Tools\MSVC\14.44.35207\include\vector
; File C:\IAGOS\server\v18\Source\Source\_Common\piercing.cpp
; File C:\Program Files\Microsoft Visual Studio\2022\Professional\VC\Tools\MSVC\14.44.35207\include\vector
; File C:\IAGOS\server\v18\Source\Source\_Common\piercing.cpp
; File C:\Program Files (x86)\Windows Kits\10\Include\10.0.26100.0\ucrt\time.h
; File C:\IAGOS\server\v18\Source\Source\_Common\piercing.cpp
; File C:\IAGOS\server\v18\Source\Source\_network\CmnHdr.h
; File C:\IAGOS\server\v18\Source\Source\_Common\piercing.cpp
; File C:\Program Files\Microsoft Visual Studio\2022\Professional\VC\Tools\MSVC\14.44.35207\include\vector
; File C:\IAGOS\server\v18\Source\Source\_Common\piercing.cpp
; File C:\Program Files\Microsoft Visual Studio\2022\Professional\VC\Tools\MSVC\14.44.35207\include\vector
; File C:\IAGOS\server\v18\Source\Source\_Common\piercing.cpp
; File C:\Program Files\Microsoft Visual Studio\2022\Professional\VC\Tools\MSVC\14.44.35207\include\vector
; File C:\IAGOS\server\v18\Source\Source\_Common\piercing.cpp
; File C:\Program Files\Microsoft Visual Studio\2022\Professional\VC\Tools\MSVC\14.44.35207\include\vector
; File C:\IAGOS\server\v18\Source\Source\_Common\piercing.cpp
; File C:\Program Files\Microsoft Visual Studio\2022\Professional\VC\Tools\MSVC\14.44.35207\include\vector
; File C:\IAGOS\server\v18\Source\Source\_Common\piercing.cpp
; File C:\Program Files\Microsoft Visual Studio\2022\Professional\VC\Tools\MSVC\14.44.35207\include\vector
; File C:\IAGOS\server\v18\Source\Source\_Common\Piercing.h
; File C:\Program Files\Microsoft Visual Studio\2022\Professional\VC\Tools\MSVC\14.44.35207\include\vector
; File C:\IAGOS\server\v18\Source\Source\_Common\Piercing.h
; File C:\Program Files\Microsoft Visual Studio\2022\Professional\VC\Tools\MSVC\14.44.35207\include\vector
; File C:\IAGOS\server\v18\Source\Source\_Common\piercing.cpp
; File C:\Program Files (x86)\Windows Kits\10\Include\10.0.26100.0\ucrt\time.h
; File C:\IAGOS\server\v18\Source\Source\_Common\piercing.cpp
; File C:\Program Files (x86)\Windows Kits\10\Include\10.0.26100.0\ucrt\time.h
; File C:\IAGOS\server\v18\Source\Source\_Common\piercing.cpp
;	COMDAT ?Serialize@CPiercing@@UAEXAAVCAr@@@Z
_TEXT	SEGMENT
$T1 = -4						; size = 4
_dwItem$2 = -4						; size = 4
_dwItem$3 = -4						; size = 4
_tmTemp$4 = -4						; size = 4
$T5 = -4						; size = 4
_ar$ = 8						; size = 4
$T6 = 8							; size = 4
$T7 = 8							; size = 4
$T8 = 8							; size = 4
$T9 = 8							; size = 4
$T10 = 8						; size = 4
_nSize$11 = 8						; size = 4
_i$1$ = 8						; size = 4
?Serialize@CPiercing@@UAEXAAVCAr@@@Z PROC		; CPiercing::Serialize, COMDAT
; _this$ = ecx

; 37   : {

  00000	55		 push	 ebp
  00001	8b ec		 mov	 ebp, esp
  00003	51		 push	 ecx
  00004	53		 push	 ebx
; File C:\IAGOS\server\v18\Source\Source\_Network\Misc\Include\Ar.h

; 146  : 	return (m_nMode & CAr::load) == 0;

  00005	8b 5d 08	 mov	 ebx, DWORD PTR _ar$[ebp]
; File C:\IAGOS\server\v18\Source\Source\_Common\piercing.cpp

; 37   : {

  00008	56		 push	 esi
  00009	57		 push	 edi
  0000a	8b f9		 mov	 edi, ecx
; File C:\IAGOS\server\v18\Source\Source\_Network\Misc\Include\Ar.h

; 146  : 	return (m_nMode & CAr::load) == 0;

  0000c	f6 03 01	 test	 BYTE PTR [ebx], 1
; File C:\IAGOS\server\v18\Source\Source\_Common\piercing.cpp

; 38   : 	if( ar.IsStoring() )

  0000f	0f 85 ff 00 00
	00		 jne	 $LN20@Serialize

; 39   : 	{
; 40   : 		ar << GetPiercingSize();

  00015	e8 00 00 00 00	 call	 ?GetPiercingSize@CPiercing@@QAEHXZ ; CPiercing::GetPiercingSize
  0001a	89 45 08	 mov	 DWORD PTR $T6[ebp], eax
  0001d	8b cb		 mov	 ecx, ebx
  0001f	8d 45 08	 lea	 eax, DWORD PTR $T6[ebp]
  00022	50		 push	 eax
  00023	e8 00 00 00 00	 call	 ??$?6H@CAr@@QAEAAV0@ABH@Z ; CAr::operator<<<int>

; 41   : 		for( int i = 0; i < GetPiercingSize(); i++ )

  00028	8b cf		 mov	 ecx, edi
  0002a	33 f6		 xor	 esi, esi
  0002c	e8 00 00 00 00	 call	 ?GetPiercingSize@CPiercing@@QAEHXZ ; CPiercing::GetPiercingSize
  00031	85 c0		 test	 eax, eax
  00033	7e 22		 jle	 SHORT $LN3@Serialize
$LL4@Serialize:

; 42   : 			ar << GetPiercingItem( i );

  00035	56		 push	 esi
  00036	8b cf		 mov	 ecx, edi
  00038	e8 00 00 00 00	 call	 ?GetPiercingItem@CPiercing@@QAEKH@Z ; CPiercing::GetPiercingItem
  0003d	89 45 08	 mov	 DWORD PTR $T7[ebp], eax
  00040	8b cb		 mov	 ecx, ebx
  00042	8d 45 08	 lea	 eax, DWORD PTR $T7[ebp]
  00045	50		 push	 eax
  00046	e8 00 00 00 00	 call	 ??$?6K@CAr@@QAEAAV0@ABK@Z ; CAr::operator<<<unsigned long>
  0004b	8b cf		 mov	 ecx, edi
  0004d	46		 inc	 esi
  0004e	e8 00 00 00 00	 call	 ?GetPiercingSize@CPiercing@@QAEHXZ ; CPiercing::GetPiercingSize
  00053	3b f0		 cmp	 esi, eax
  00055	7c de		 jl	 SHORT $LL4@Serialize
$LN3@Serialize:

; 43   : #if __VER >= 12 // __EXT_PIERCING
; 44   : 		ar << GetUltimatePiercingSize();

  00057	8b cf		 mov	 ecx, edi
  00059	e8 00 00 00 00	 call	 ?GetUltimatePiercingSize@CPiercing@@QAEHXZ ; CPiercing::GetUltimatePiercingSize
  0005e	89 45 08	 mov	 DWORD PTR $T8[ebp], eax
  00061	8b cb		 mov	 ecx, ebx
  00063	8d 45 08	 lea	 eax, DWORD PTR $T8[ebp]
  00066	50		 push	 eax
  00067	e8 00 00 00 00	 call	 ??$?6H@CAr@@QAEAAV0@ABH@Z ; CAr::operator<<<int>

; 45   : 		for( int i = 0; i < GetUltimatePiercingSize(); i++ )

  0006c	8b cf		 mov	 ecx, edi
  0006e	33 f6		 xor	 esi, esi
  00070	e8 00 00 00 00	 call	 ?GetUltimatePiercingSize@CPiercing@@QAEHXZ ; CPiercing::GetUltimatePiercingSize
  00075	85 c0		 test	 eax, eax
  00077	7e 29		 jle	 SHORT $LN6@Serialize
  00079	0f 1f 80 00 00
	00 00		 npad	 7
$LL7@Serialize:

; 46   : 			ar << GetUltimatePiercingItem( i );

  00080	56		 push	 esi
  00081	8b cf		 mov	 ecx, edi
  00083	e8 00 00 00 00	 call	 ?GetUltimatePiercingItem@CPiercing@@QAEKH@Z ; CPiercing::GetUltimatePiercingItem
  00088	89 45 08	 mov	 DWORD PTR $T9[ebp], eax
  0008b	8b cb		 mov	 ecx, ebx
  0008d	8d 45 08	 lea	 eax, DWORD PTR $T9[ebp]
  00090	50		 push	 eax
  00091	e8 00 00 00 00	 call	 ??$?6K@CAr@@QAEAAV0@ABK@Z ; CAr::operator<<<unsigned long>
  00096	8b cf		 mov	 ecx, edi
  00098	46		 inc	 esi
  00099	e8 00 00 00 00	 call	 ?GetUltimatePiercingSize@CPiercing@@QAEHXZ ; CPiercing::GetUltimatePiercingSize
  0009e	3b f0		 cmp	 esi, eax
  000a0	7c de		 jl	 SHORT $LL7@Serialize
$LN6@Serialize:
; File C:\Program Files\Microsoft Visual Studio\2022\Professional\VC\Tools\MSVC\14.44.35207\include\vector

; 1915 :         return static_cast<size_type>(_My_data._Mylast - _My_data._Myfirst);

  000a2	8b 47 20	 mov	 eax, DWORD PTR [edi+32]
; File C:\IAGOS\server\v18\Source\Source\_Common\piercing.cpp

; 49   : 		ar << m_vtmPetVis.size();

  000a5	8b cb		 mov	 ecx, ebx
; File C:\Program Files\Microsoft Visual Studio\2022\Professional\VC\Tools\MSVC\14.44.35207\include\vector

; 1915 :         return static_cast<size_type>(_My_data._Mylast - _My_data._Myfirst);

  000a7	2b 47 1c	 sub	 eax, DWORD PTR [edi+28]
  000aa	c1 f8 02	 sar	 eax, 2
; File C:\IAGOS\server\v18\Source\Source\_Common\piercing.cpp

; 49   : 		ar << m_vtmPetVis.size();

  000ad	89 45 08	 mov	 DWORD PTR $T10[ebp], eax
  000b0	8d 45 08	 lea	 eax, DWORD PTR $T10[ebp]
  000b3	50		 push	 eax
  000b4	e8 00 00 00 00	 call	 ??$?6I@CAr@@QAEAAV0@ABI@Z ; CAr::operator<<<unsigned int>
; File C:\Program Files\Microsoft Visual Studio\2022\Professional\VC\Tools\MSVC\14.44.35207\include\vector

; 1915 :         return static_cast<size_type>(_My_data._Mylast - _My_data._Myfirst);

  000b9	8b 47 20	 mov	 eax, DWORD PTR [edi+32]
  000bc	2b 47 1c	 sub	 eax, DWORD PTR [edi+28]
; File C:\IAGOS\server\v18\Source\Source\_Common\piercing.cpp

; 50   : 		for( int i=0; i<(int)( m_vtmPetVis.size() ); i++ )

  000bf	c7 45 08 00 00
	00 00		 mov	 DWORD PTR _i$1$[ebp], 0
  000c6	a9 fc ff ff ff	 test	 eax, -4			; fffffffcH
  000cb	0f 8e 27 01 00
	00		 jle	 $LN18@Serialize
$LL10@Serialize:
; File C:\Program Files (x86)\Windows Kits\10\Include\10.0.26100.0\ucrt\time.h

; 428  :             return _time32(_Time);

  000d1	6a 00		 push	 0
  000d3	e8 00 00 00 00	 call	 __time32
  000d8	83 c4 04	 add	 esp, 4
; File C:\IAGOS\server\v18\Source\Source\_Common\piercing.cpp

; 51   : 			ar << GetVisKeepTime( i ) - time_null();

  000db	8b cf		 mov	 ecx, edi
; File C:\IAGOS\server\v18\Source\Source\_network\CmnHdr.h

; 699  : 	return time( NULL );

  000dd	8b f0		 mov	 esi, eax
; File C:\IAGOS\server\v18\Source\Source\_Common\piercing.cpp

; 51   : 			ar << GetVisKeepTime( i ) - time_null();

  000df	ff 75 08	 push	 DWORD PTR _i$1$[ebp]
  000e2	e8 00 00 00 00	 call	 ?GetVisKeepTime@CPiercing@@QAEJH@Z ; CPiercing::GetVisKeepTime
  000e7	2b c6		 sub	 eax, esi
  000e9	8b cb		 mov	 ecx, ebx
  000eb	89 45 fc	 mov	 DWORD PTR $T1[ebp], eax
  000ee	8d 45 fc	 lea	 eax, DWORD PTR $T1[ebp]
  000f1	50		 push	 eax
  000f2	e8 00 00 00 00	 call	 ??$?6J@CAr@@QAEAAV0@ABJ@Z ; CAr::operator<<<long>
; File C:\Program Files\Microsoft Visual Studio\2022\Professional\VC\Tools\MSVC\14.44.35207\include\vector

; 1915 :         return static_cast<size_type>(_My_data._Mylast - _My_data._Myfirst);

  000f7	8b 47 20	 mov	 eax, DWORD PTR [edi+32]
; File C:\IAGOS\server\v18\Source\Source\_Common\piercing.cpp

; 50   : 		for( int i=0; i<(int)( m_vtmPetVis.size() ); i++ )

  000fa	8b 4d 08	 mov	 ecx, DWORD PTR _i$1$[ebp]
; File C:\Program Files\Microsoft Visual Studio\2022\Professional\VC\Tools\MSVC\14.44.35207\include\vector

; 1915 :         return static_cast<size_type>(_My_data._Mylast - _My_data._Myfirst);

  000fd	2b 47 1c	 sub	 eax, DWORD PTR [edi+28]
; File C:\IAGOS\server\v18\Source\Source\_Common\piercing.cpp

; 50   : 		for( int i=0; i<(int)( m_vtmPetVis.size() ); i++ )

  00100	41		 inc	 ecx
; File C:\Program Files\Microsoft Visual Studio\2022\Professional\VC\Tools\MSVC\14.44.35207\include\vector

; 1915 :         return static_cast<size_type>(_My_data._Mylast - _My_data._Myfirst);

  00101	c1 f8 02	 sar	 eax, 2
; File C:\IAGOS\server\v18\Source\Source\_Common\piercing.cpp

; 50   : 		for( int i=0; i<(int)( m_vtmPetVis.size() ); i++ )

  00104	89 4d 08	 mov	 DWORD PTR _i$1$[ebp], ecx
  00107	3b c8		 cmp	 ecx, eax
  00109	7c c6		 jl	 SHORT $LL10@Serialize

; 85   : 		}
; 86   : #endif // __PETVIS
; 87   : 	}
; 88   : }

  0010b	5f		 pop	 edi
  0010c	5e		 pop	 esi
  0010d	5b		 pop	 ebx
  0010e	8b e5		 mov	 esp, ebp
  00110	5d		 pop	 ebp
  00111	c2 04 00	 ret	 4
$LN20@Serialize:
; File C:\Program Files\Microsoft Visual Studio\2022\Professional\VC\Tools\MSVC\14.44.35207\include\vector

; 1812 :         if (_Myfirst == _Mylast) { // already empty, nothing to do

  00114	8b 47 04	 mov	 eax, DWORD PTR [edi+4]
  00117	3b 47 08	 cmp	 eax, DWORD PTR [edi+8]
  0011a	74 03		 je	 SHORT $LN35@Serialize

; 1813 :             // This is an optimization for debug mode: we can avoid taking the debug lock to invalidate iterators.
; 1814 :             // Note that when clearing an empty vector, this will preserve past-the-end iterators, which is allowed by
; 1815 :             // N4950 [sequence.reqmts]/54 "a.clear() [...] may invalidate the past-the-end iterator".
; 1816 :             return;
; 1817 :         }
; 1818 : 
; 1819 :         _My_data._Orphan_all();
; 1820 :         _Destroy_range(_Myfirst, _Mylast, _Getal());
; 1821 :         _ASAN_VECTOR_MODIFY(static_cast<difference_type>(_Myfirst - _Mylast)); // negative when destroying elements
; 1822 :         _Mylast = _Myfirst;

  0011c	89 47 08	 mov	 DWORD PTR [edi+8], eax
$LN35@Serialize:
; File C:\IAGOS\server\v18\Source\Source\_Common\piercing.cpp

; 58   : 		ar >> nSize;

  0011f	8d 45 08	 lea	 eax, DWORD PTR _nSize$11[ebp]
  00122	8b cb		 mov	 ecx, ebx
  00124	50		 push	 eax
  00125	e8 00 00 00 00	 call	 ??$?5I@CAr@@QAEAAV0@AAI@Z ; CAr::operator>><unsigned int>

; 59   : 		SetPiercingSize( nSize );

  0012a	ff 75 08	 push	 DWORD PTR _nSize$11[ebp]
  0012d	8b cf		 mov	 ecx, edi
  0012f	e8 00 00 00 00	 call	 ?SetPiercingSize@CPiercing@@QAEXH@Z ; CPiercing::SetPiercingSize
  00134	33 f6		 xor	 esi, esi

; 60   : 		for( size_t i = 0; i < nSize; i++ )

  00136	39 75 08	 cmp	 DWORD PTR _nSize$11[ebp], esi
  00139	76 21		 jbe	 SHORT $LN12@Serialize
  0013b	0f 1f 44 00 00	 npad	 5
$LL13@Serialize:

; 61   : 		{
; 62   : 			DWORD dwItem;
; 63   : 			ar >> dwItem;

  00140	8d 45 fc	 lea	 eax, DWORD PTR _dwItem$2[ebp]
  00143	8b cb		 mov	 ecx, ebx
  00145	50		 push	 eax
  00146	e8 00 00 00 00	 call	 ??$?5K@CAr@@QAEAAV0@AAK@Z ; CAr::operator>><unsigned long>

; 64   : 			SetPiercingItem( i, dwItem );

  0014b	ff 75 fc	 push	 DWORD PTR _dwItem$2[ebp]
  0014e	8b cf		 mov	 ecx, edi
  00150	56		 push	 esi
  00151	e8 00 00 00 00	 call	 ?SetPiercingItem@CPiercing@@QAEXHK@Z ; CPiercing::SetPiercingItem
  00156	46		 inc	 esi
  00157	3b 75 08	 cmp	 esi, DWORD PTR _nSize$11[ebp]
  0015a	72 e4		 jb	 SHORT $LL13@Serialize
$LN12@Serialize:
; File C:\Program Files\Microsoft Visual Studio\2022\Professional\VC\Tools\MSVC\14.44.35207\include\vector

; 1812 :         if (_Myfirst == _Mylast) { // already empty, nothing to do

  0015c	8b 47 10	 mov	 eax, DWORD PTR [edi+16]
  0015f	3b 47 14	 cmp	 eax, DWORD PTR [edi+20]
  00162	74 03		 je	 SHORT $LN39@Serialize

; 1813 :             // This is an optimization for debug mode: we can avoid taking the debug lock to invalidate iterators.
; 1814 :             // Note that when clearing an empty vector, this will preserve past-the-end iterators, which is allowed by
; 1815 :             // N4950 [sequence.reqmts]/54 "a.clear() [...] may invalidate the past-the-end iterator".
; 1816 :             return;
; 1817 :         }
; 1818 : 
; 1819 :         _My_data._Orphan_all();
; 1820 :         _Destroy_range(_Myfirst, _Mylast, _Getal());
; 1821 :         _ASAN_VECTOR_MODIFY(static_cast<difference_type>(_Myfirst - _Mylast)); // negative when destroying elements
; 1822 :         _Mylast = _Myfirst;

  00164	89 47 14	 mov	 DWORD PTR [edi+20], eax
$LN39@Serialize:
; File C:\IAGOS\server\v18\Source\Source\_Common\piercing.cpp

; 68   : 		ar >> nSize;

  00167	8d 45 08	 lea	 eax, DWORD PTR _nSize$11[ebp]
  0016a	8b cb		 mov	 ecx, ebx
  0016c	50		 push	 eax
  0016d	e8 00 00 00 00	 call	 ??$?5I@CAr@@QAEAAV0@AAI@Z ; CAr::operator>><unsigned int>

; 69   : 		SetUltimatePiercingSize( nSize );

  00172	ff 75 08	 push	 DWORD PTR _nSize$11[ebp]
  00175	8b cf		 mov	 ecx, edi
  00177	e8 00 00 00 00	 call	 ?SetUltimatePiercingSize@CPiercing@@QAEXH@Z ; CPiercing::SetUltimatePiercingSize
  0017c	33 f6		 xor	 esi, esi

; 70   : 		for( int i = 0; i < nSize; i++ )

  0017e	39 75 08	 cmp	 DWORD PTR _nSize$11[ebp], esi
  00181	76 1c		 jbe	 SHORT $LN15@Serialize
$LL16@Serialize:

; 71   : 		{
; 72   : 			DWORD dwItem;
; 73   : 			ar >> dwItem;

  00183	8d 45 fc	 lea	 eax, DWORD PTR _dwItem$3[ebp]
  00186	8b cb		 mov	 ecx, ebx
  00188	50		 push	 eax
  00189	e8 00 00 00 00	 call	 ??$?5K@CAr@@QAEAAV0@AAK@Z ; CAr::operator>><unsigned long>

; 74   : 			SetUltimatePiercingItem( i, dwItem );

  0018e	ff 75 fc	 push	 DWORD PTR _dwItem$3[ebp]
  00191	8b cf		 mov	 ecx, edi
  00193	56		 push	 esi
  00194	e8 00 00 00 00	 call	 ?SetUltimatePiercingItem@CPiercing@@QAEXHK@Z ; CPiercing::SetUltimatePiercingItem
  00199	46		 inc	 esi
  0019a	3b 75 08	 cmp	 esi, DWORD PTR _nSize$11[ebp]
  0019d	72 e4		 jb	 SHORT $LL16@Serialize
$LN15@Serialize:

; 78   : 		ar >> nSize;

  0019f	8d 45 08	 lea	 eax, DWORD PTR _nSize$11[ebp]
  001a2	8b cb		 mov	 ecx, ebx
  001a4	50		 push	 eax
  001a5	e8 00 00 00 00	 call	 ??$?5I@CAr@@QAEAAV0@AAI@Z ; CAr::operator>><unsigned int>
; File C:\Program Files\Microsoft Visual Studio\2022\Professional\VC\Tools\MSVC\14.44.35207\include\vector

; 1635 :         _Resize(_Newsize, _Val);

  001aa	8d 45 fc	 lea	 eax, DWORD PTR $T5[ebp]
; File C:\IAGOS\server\v18\Source\Source\_Common\Piercing.h

; 40   : 	void	SetVisKeepTimeSize( int nSize )	{ m_vtmPetVis.resize( min( nSize, MAX_VIS ), 0 ); }

  001ad	c7 45 fc 00 00
	00 00		 mov	 DWORD PTR $T5[ebp], 0
; File C:\Program Files\Microsoft Visual Studio\2022\Professional\VC\Tools\MSVC\14.44.35207\include\vector

; 1635 :         _Resize(_Newsize, _Val);

  001b4	50		 push	 eax
; File C:\IAGOS\server\v18\Source\Source\_Common\Piercing.h

; 40   : 	void	SetVisKeepTimeSize( int nSize )	{ m_vtmPetVis.resize( min( nSize, MAX_VIS ), 0 ); }

  001b5	b8 09 00 00 00	 mov	 eax, 9
  001ba	8d 4f 1c	 lea	 ecx, DWORD PTR [edi+28]
  001bd	39 45 08	 cmp	 DWORD PTR _nSize$11[ebp], eax
  001c0	0f 4c 45 08	 cmovl	 eax, DWORD PTR _nSize$11[ebp]
; File C:\Program Files\Microsoft Visual Studio\2022\Professional\VC\Tools\MSVC\14.44.35207\include\vector

; 1635 :         _Resize(_Newsize, _Val);

  001c4	50		 push	 eax
  001c5	e8 00 00 00 00	 call	 ??$_Resize@J@?$vector@JV?$allocator@J@std@@@std@@AAEXIABJ@Z ; std::vector<long,std::allocator<long> >::_Resize<long>
; File C:\IAGOS\server\v18\Source\Source\_Common\piercing.cpp

; 78   : 		ar >> nSize;

  001ca	33 f6		 xor	 esi, esi
  001cc	39 75 08	 cmp	 DWORD PTR _nSize$11[ebp], esi

; 79   : 		SetVisKeepTimeSize( nSize );
; 80   : 		for( int i=0; i<nSize; i++ )

  001cf	76 27		 jbe	 SHORT $LN18@Serialize
$LL19@Serialize:

; 81   : 		{
; 82   : 			time_t tmTemp;
; 83   : 			ar >> tmTemp;

  001d1	8d 45 fc	 lea	 eax, DWORD PTR _tmTemp$4[ebp]
  001d4	8b cb		 mov	 ecx, ebx
  001d6	50		 push	 eax
  001d7	e8 00 00 00 00	 call	 ??$?5J@CAr@@QAEAAV0@AAJ@Z ; CAr::operator>><long>
; File C:\Program Files (x86)\Windows Kits\10\Include\10.0.26100.0\ucrt\time.h

; 428  :             return _time32(_Time);

  001dc	6a 00		 push	 0
  001de	e8 00 00 00 00	 call	 __time32
; File C:\IAGOS\server\v18\Source\Source\_Common\piercing.cpp

; 84   : 			SetVisKeepTime( i, tmTemp + time_null() );

  001e3	03 45 fc	 add	 eax, DWORD PTR _tmTemp$4[ebp]
; File C:\Program Files (x86)\Windows Kits\10\Include\10.0.26100.0\ucrt\time.h

; 428  :             return _time32(_Time);

  001e6	83 c4 04	 add	 esp, 4
; File C:\IAGOS\server\v18\Source\Source\_Common\piercing.cpp

; 84   : 			SetVisKeepTime( i, tmTemp + time_null() );

  001e9	8b cf		 mov	 ecx, edi
  001eb	50		 push	 eax
  001ec	56		 push	 esi
  001ed	e8 00 00 00 00	 call	 ?SetVisKeepTime@CPiercing@@QAEXHJ@Z ; CPiercing::SetVisKeepTime
  001f2	46		 inc	 esi
  001f3	3b 75 08	 cmp	 esi, DWORD PTR _nSize$11[ebp]
  001f6	72 d9		 jb	 SHORT $LL19@Serialize
$LN18@Serialize:
  001f8	5f		 pop	 edi

; 85   : 		}
; 86   : #endif // __PETVIS
; 87   : 	}
; 88   : }

  001f9	5e		 pop	 esi
  001fa	5b		 pop	 ebx
  001fb	8b e5		 mov	 esp, ebp
  001fd	5d		 pop	 ebp
  001fe	c2 04 00	 ret	 4
?Serialize@CPiercing@@UAEXAAVCAr@@@Z ENDP		; CPiercing::Serialize
_TEXT	ENDS
; Function compile flags: /Ogtp
; File C:\IAGOS\server\v18\Source\Source\_Common\piercing.cpp
; File C:\Program Files\Microsoft Visual Studio\2022\Professional\VC\Tools\MSVC\14.44.35207\include\vector
; File C:\IAGOS\server\v18\Source\Source\_Common\piercing.cpp
;	COMDAT ??4CPiercing@@QAEAAV0@ABV0@@Z
_TEXT	SEGMENT
_piercing$ = 8						; size = 4
??4CPiercing@@QAEAAV0@ABV0@@Z PROC			; CPiercing::operator=, COMDAT
; _this$ = ecx

; 14   : {

  00000	55		 push	 ebp
  00001	8b ec		 mov	 ebp, esp
  00003	56		 push	 esi
; File C:\Program Files\Microsoft Visual Studio\2022\Professional\VC\Tools\MSVC\14.44.35207\include\vector

; 46   :     _CONSTEXPR20 _Vector_const_iterator(_Tptr _Parg, const _Container_base* _Pvector) noexcept : _Ptr(_Parg) {

  00004	8b 75 08	 mov	 esi, DWORD PTR _piercing$[ebp]
; File C:\IAGOS\server\v18\Source\Source\_Common\piercing.cpp

; 14   : {

  00007	57		 push	 edi
  00008	8b f9		 mov	 edi, ecx

; 15   : 	m_vPiercing.assign( piercing.m_vPiercing.begin(), piercing.m_vPiercing.end() );

  0000a	ff 76 08	 push	 DWORD PTR [esi+8]
  0000d	ff 76 04	 push	 DWORD PTR [esi+4]
  00010	8d 4f 04	 lea	 ecx, DWORD PTR [edi+4]
  00013	e8 00 00 00 00	 call	 ??$assign@V?$_Vector_const_iterator@V?$_Vector_val@U?$_Simple_types@K@std@@@std@@@std@@$0A@@?$vector@KV?$allocator@K@std@@@std@@QAEXV?$_Vector_const_iterator@V?$_Vector_val@U?$_Simple_types@K@std@@@std@@@1@0@Z ; std::vector<unsigned long,std::allocator<unsigned long> >::assign<std::_Vector_const_iterator<std::_Vector_val<std::_Simple_types<unsigned long> > >,0>

; 16   : #if __VER >= 12 // __EXT_PIERCING
; 17   : 	m_vUltimatePiercing.assign( piercing.m_vUltimatePiercing.begin(), piercing.m_vUltimatePiercing.end() );

  00018	ff 76 14	 push	 DWORD PTR [esi+20]
  0001b	8d 4f 10	 lea	 ecx, DWORD PTR [edi+16]
  0001e	ff 76 10	 push	 DWORD PTR [esi+16]
  00021	e8 00 00 00 00	 call	 ??$assign@V?$_Vector_const_iterator@V?$_Vector_val@U?$_Simple_types@K@std@@@std@@@std@@$0A@@?$vector@KV?$allocator@K@std@@@std@@QAEXV?$_Vector_const_iterator@V?$_Vector_val@U?$_Simple_types@K@std@@@std@@@1@0@Z ; std::vector<unsigned long,std::allocator<unsigned long> >::assign<std::_Vector_const_iterator<std::_Vector_val<std::_Simple_types<unsigned long> > >,0>

; 18   : #endif // __EXT_PIERCING
; 19   : #if __VER >= 15 // __PETVIS
; 20   : 	m_vtmPetVis.assign( piercing.m_vtmPetVis.begin(), piercing.m_vtmPetVis.end() );

  00026	ff 76 20	 push	 DWORD PTR [esi+32]
  00029	8d 4f 1c	 lea	 ecx, DWORD PTR [edi+28]
  0002c	ff 76 1c	 push	 DWORD PTR [esi+28]
  0002f	e8 00 00 00 00	 call	 ??$assign@V?$_Vector_const_iterator@V?$_Vector_val@U?$_Simple_types@J@std@@@std@@@std@@$0A@@?$vector@JV?$allocator@J@std@@@std@@QAEXV?$_Vector_const_iterator@V?$_Vector_val@U?$_Simple_types@J@std@@@std@@@1@0@Z ; std::vector<long,std::allocator<long> >::assign<std::_Vector_const_iterator<std::_Vector_val<std::_Simple_types<long> > >,0>

; 21   : #endif // __PETVIS
; 22   : 	return *this;

  00034	8b c7		 mov	 eax, edi
  00036	5f		 pop	 edi
  00037	5e		 pop	 esi

; 23   : }

  00038	5d		 pop	 ebp
  00039	c2 04 00	 ret	 4
??4CPiercing@@QAEAAV0@ABV0@@Z ENDP			; CPiercing::operator=
_TEXT	ENDS
; Function compile flags: /Ogtp
; File C:\IAGOS\server\v18\Source\Source\_Common\piercing.cpp
;	COMDAT ??1CPiercing@@UAE@XZ
_TEXT	SEGMENT
??1CPiercing@@UAE@XZ PROC				; CPiercing::~CPiercing, COMDAT
; _this$ = ecx

; 10   : {

  00000	56		 push	 esi
  00001	8b f1		 mov	 esi, ecx

; 11   : }

  00003	8d 4e 1c	 lea	 ecx, DWORD PTR [esi+28]
  00006	c7 06 00 00 00
	00		 mov	 DWORD PTR [esi], OFFSET ??_7CPiercing@@6B@
  0000c	e8 00 00 00 00	 call	 ??1?$vector@JV?$allocator@J@std@@@std@@QAE@XZ ; std::vector<long,std::allocator<long> >::~vector<long,std::allocator<long> >
  00011	8d 4e 10	 lea	 ecx, DWORD PTR [esi+16]
  00014	e8 00 00 00 00	 call	 ??1?$vector@KV?$allocator@K@std@@@std@@QAE@XZ ; std::vector<unsigned long,std::allocator<unsigned long> >::~vector<unsigned long,std::allocator<unsigned long> >
  00019	8d 4e 04	 lea	 ecx, DWORD PTR [esi+4]
  0001c	5e		 pop	 esi
  0001d	e9 00 00 00 00	 jmp	 ??1?$vector@KV?$allocator@K@std@@@std@@QAE@XZ ; std::vector<unsigned long,std::allocator<unsigned long> >::~vector<unsigned long,std::allocator<unsigned long> >
??1CPiercing@@UAE@XZ ENDP				; CPiercing::~CPiercing
_TEXT	ENDS
; Function compile flags: /Ogtp
; File C:\IAGOS\server\v18\Source\Source\_Common\piercing.cpp
; File C:\Program Files\Microsoft Visual Studio\2022\Professional\VC\Tools\MSVC\14.44.35207\include\vector
; File C:\IAGOS\server\v18\Source\Source\_Common\piercing.cpp
; File C:\Program Files\Microsoft Visual Studio\2022\Professional\VC\Tools\MSVC\14.44.35207\include\vector
; File C:\IAGOS\server\v18\Source\Source\_Common\piercing.cpp
;	COMDAT ??0CPiercing@@QAE@XZ
_TEXT	SEGMENT
_this$ = -4						; size = 4
??0CPiercing@@QAE@XZ PROC				; CPiercing::CPiercing, COMDAT
; _this$ = ecx

; 6    : {

  00000	55		 push	 ebp
  00001	8b ec		 mov	 ebp, esp
  00003	51		 push	 ecx
  00004	c7 01 00 00 00
	00		 mov	 DWORD PTR [ecx], OFFSET ??_7CPiercing@@6B@

; 7    : }

  0000a	8b c1		 mov	 eax, ecx
; File C:\Program Files\Microsoft Visual Studio\2022\Professional\VC\Tools\MSVC\14.44.35207\include\vector

; 400  :     _CONSTEXPR20 _Vector_val() noexcept : _Myfirst(), _Mylast(), _Myend() {}

  0000c	c7 41 04 00 00
	00 00		 mov	 DWORD PTR [ecx+4], 0
  00013	c7 41 08 00 00
	00 00		 mov	 DWORD PTR [ecx+8], 0
  0001a	c7 41 0c 00 00
	00 00		 mov	 DWORD PTR [ecx+12], 0
  00021	c7 41 10 00 00
	00 00		 mov	 DWORD PTR [ecx+16], 0
  00028	c7 41 14 00 00
	00 00		 mov	 DWORD PTR [ecx+20], 0
  0002f	c7 41 18 00 00
	00 00		 mov	 DWORD PTR [ecx+24], 0
; File C:\IAGOS\server\v18\Source\Source\_Common\piercing.cpp

; 6    : {

  00036	89 4d fc	 mov	 DWORD PTR _this$[ebp], ecx
; File C:\Program Files\Microsoft Visual Studio\2022\Professional\VC\Tools\MSVC\14.44.35207\include\vector

; 400  :     _CONSTEXPR20 _Vector_val() noexcept : _Myfirst(), _Mylast(), _Myend() {}

  00039	c7 41 1c 00 00
	00 00		 mov	 DWORD PTR [ecx+28], 0
  00040	c7 41 20 00 00
	00 00		 mov	 DWORD PTR [ecx+32], 0
  00047	c7 41 24 00 00
	00 00		 mov	 DWORD PTR [ecx+36], 0
; File C:\IAGOS\server\v18\Source\Source\_Common\piercing.cpp

; 7    : }

  0004e	8b e5		 mov	 esp, ebp
  00050	5d		 pop	 ebp
  00051	c3		 ret	 0
??0CPiercing@@QAE@XZ ENDP				; CPiercing::CPiercing
_TEXT	ENDS
; Function compile flags: /Ogtp
; File C:\Program Files\Microsoft Visual Studio\2022\Professional\VC\Tools\MSVC\14.44.35207\include\vector
;	COMDAT ?_Xlength@?$vector@KV?$allocator@K@std@@@std@@CAXXZ
_TEXT	SEGMENT
?_Xlength@?$vector@KV?$allocator@K@std@@@std@@CAXXZ PROC ; std::vector<unsigned long,std::allocator<unsigned long> >::_Xlength, COMDAT

; 2184 :         _Xlength_error("vector too long");

  00000	68 00 00 00 00	 push	 OFFSET ??_C@_0BA@FOIKENOD@vector?5too?5long@
  00005	e8 00 00 00 00	 call	 ?_Xlength_error@std@@YAXPBD@Z ; std::_Xlength_error
$LN3@Xlength:
  0000a	cc		 int	 3
?_Xlength@?$vector@KV?$allocator@K@std@@@std@@CAXXZ ENDP ; std::vector<unsigned long,std::allocator<unsigned long> >::_Xlength
_TEXT	ENDS
; Function compile flags: /Ogtp
; File C:\Program Files\Microsoft Visual Studio\2022\Professional\VC\Tools\MSVC\14.44.35207\include\vector
; File C:\Program Files\Microsoft Visual Studio\2022\Professional\VC\Tools\MSVC\14.44.35207\include\xmemory
; File C:\Program Files\Microsoft Visual Studio\2022\Professional\VC\Tools\MSVC\14.44.35207\include\vector
; File C:\Program Files\Microsoft Visual Studio\2022\Professional\VC\Tools\MSVC\14.44.35207\include\xmemory
; File C:\Program Files\Microsoft Visual Studio\2022\Professional\VC\Tools\MSVC\14.44.35207\include\vector
; File C:\Program Files\Microsoft Visual Studio\2022\Professional\VC\Tools\MSVC\14.44.35207\include\xmemory
; File C:\Program Files\Microsoft Visual Studio\2022\Professional\VC\Tools\MSVC\14.44.35207\include\vector
;	COMDAT ??1?$vector@KV?$allocator@K@std@@@std@@QAE@XZ
_TEXT	SEGMENT
??1?$vector@KV?$allocator@K@std@@@std@@QAE@XZ PROC	; std::vector<unsigned long,std::allocator<unsigned long> >::~vector<unsigned long,std::allocator<unsigned long> >, COMDAT
; _this$ = ecx

; 829  :     _CONSTEXPR20 ~vector() noexcept {

  00000	56		 push	 esi
  00001	8b f1		 mov	 esi, ecx

; 2090 :         if (_Myfirst) { // destroy and deallocate old array

  00003	8b 06		 mov	 eax, DWORD PTR [esi]
  00005	85 c0		 test	 eax, eax
  00007	74 40		 je	 SHORT $LN5@vector

; 2091 :             _STD _Destroy_range(_Myfirst, _Mylast, _Al);
; 2092 :             _ASAN_VECTOR_REMOVE;
; 2093 :             _Al.deallocate(_Myfirst, static_cast<size_type>(_Myend - _Myfirst));

  00009	8b 4e 08	 mov	 ecx, DWORD PTR [esi+8]
  0000c	2b c8		 sub	 ecx, eax
; File C:\Program Files\Microsoft Visual Studio\2022\Professional\VC\Tools\MSVC\14.44.35207\include\xmemory

; 985  :         _STD _Deallocate<_New_alignof<_Ty>>(_Ptr, sizeof(_Ty) * _Count);

  0000e	83 e1 fc	 and	 ecx, -4			; fffffffcH

; 284  :         if (_Bytes >= _Big_allocation_threshold) {

  00011	81 f9 00 10 00
	00		 cmp	 ecx, 4096		; 00001000H
  00017	72 12		 jb	 SHORT $LN18@vector

; 205  :     const uintptr_t _Ptr_container   = _Ptr_user[-1];

  00019	8b 50 fc	 mov	 edx, DWORD PTR [eax-4]
  0001c	83 c1 23	 add	 ecx, 35			; 00000023H

; 206  : 
; 207  :     // If the following asserts, it likely means that we are performing
; 208  :     // an aligned delete on memory coming from an unaligned allocation.
; 209  :     _STL_ASSERT(_Ptr_user[-2] == _Big_allocation_sentinel, "invalid argument");
; 210  : 
; 211  :     // Extra paranoia on aligned allocation/deallocation; ensure _Ptr_container is
; 212  :     // in range [_Min_back_shift, _Non_user_size]
; 213  : #ifdef _DEBUG
; 214  :     constexpr uintptr_t _Min_back_shift = 2 * sizeof(void*);
; 215  : #else // ^^^ defined(_DEBUG) / !defined(_DEBUG) vvv
; 216  :     constexpr uintptr_t _Min_back_shift = sizeof(void*);
; 217  : #endif // ^^^ !defined(_DEBUG) ^^^
; 218  :     const uintptr_t _Back_shift = reinterpret_cast<uintptr_t>(_Ptr) - _Ptr_container;

  0001f	2b c2		 sub	 eax, edx

; 219  :     _STL_VERIFY(_Back_shift >= _Min_back_shift && _Back_shift <= _Non_user_size, "invalid argument");

  00021	83 c0 fc	 add	 eax, -4			; fffffffcH
  00024	83 f8 1f	 cmp	 eax, 31			; 0000001fH
  00027	77 22		 ja	 SHORT $LN17@vector

; 220  :     _Ptr = reinterpret_cast<void*>(_Ptr_container);

  00029	8b c2		 mov	 eax, edx
$LN18@vector:

; 289  :         ::operator delete(_Ptr, _Bytes);

  0002b	51		 push	 ecx
  0002c	50		 push	 eax
  0002d	e8 00 00 00 00	 call	 ??3@YAXPAXI@Z		; operator delete
; File C:\Program Files\Microsoft Visual Studio\2022\Professional\VC\Tools\MSVC\14.44.35207\include\vector

; 2095 :             _Myfirst = nullptr;

  00032	c7 06 00 00 00
	00		 mov	 DWORD PTR [esi], 0
; File C:\Program Files\Microsoft Visual Studio\2022\Professional\VC\Tools\MSVC\14.44.35207\include\xmemory

; 289  :         ::operator delete(_Ptr, _Bytes);

  00038	83 c4 08	 add	 esp, 8
; File C:\Program Files\Microsoft Visual Studio\2022\Professional\VC\Tools\MSVC\14.44.35207\include\vector

; 2096 :             _Mylast  = nullptr;

  0003b	c7 46 04 00 00
	00 00		 mov	 DWORD PTR [esi+4], 0

; 2097 :             _Myend   = nullptr;

  00042	c7 46 08 00 00
	00 00		 mov	 DWORD PTR [esi+8], 0
$LN5@vector:
  00049	5e		 pop	 esi

; 835  :     }

  0004a	c3		 ret	 0
$LN17@vector:
; File C:\Program Files\Microsoft Visual Studio\2022\Professional\VC\Tools\MSVC\14.44.35207\include\xmemory

; 219  :     _STL_VERIFY(_Back_shift >= _Min_back_shift && _Back_shift <= _Non_user_size, "invalid argument");

  0004b	6a 00		 push	 0
  0004d	6a 00		 push	 0
  0004f	6a 00		 push	 0
  00051	6a 00		 push	 0
  00053	6a 00		 push	 0
  00055	e8 00 00 00 00	 call	 __invoke_watson
$LN26@vector:
  0005a	cc		 int	 3
??1?$vector@KV?$allocator@K@std@@@std@@QAE@XZ ENDP	; std::vector<unsigned long,std::allocator<unsigned long> >::~vector<unsigned long,std::allocator<unsigned long> >
_TEXT	ENDS
; Function compile flags: /Ogtp
; File C:\Program Files\Microsoft Visual Studio\2022\Professional\VC\Tools\MSVC\14.44.35207\include\xmemory
;	COMDAT ?deallocate@?$allocator@K@std@@QAEXQAKI@Z
_TEXT	SEGMENT
__Ptr$ = 8						; size = 4
__Count$ = 12						; size = 4
?deallocate@?$allocator@K@std@@QAEXQAKI@Z PROC		; std::allocator<unsigned long>::deallocate, COMDAT
; _this$ = ecx

; 982  :     _CONSTEXPR20 void deallocate(_Ty* const _Ptr, const size_t _Count) noexcept /* strengthened */ {

  00000	55		 push	 ebp
  00001	8b ec		 mov	 ebp, esp

; 983  :         _STL_ASSERT(_Ptr != nullptr || _Count == 0, "null pointer cannot point to a block of non-zero size");
; 984  :         // no overflow check on the following multiply; we assume _Allocate did that check
; 985  :         _STD _Deallocate<_New_alignof<_Ty>>(_Ptr, sizeof(_Ty) * _Count);

  00003	8b 45 0c	 mov	 eax, DWORD PTR __Count$[ebp]
  00006	8d 0c 85 00 00
	00 00		 lea	 ecx, DWORD PTR [eax*4]
  0000d	8b 45 08	 mov	 eax, DWORD PTR __Ptr$[ebp]

; 284  :         if (_Bytes >= _Big_allocation_threshold) {

  00010	81 f9 00 10 00
	00		 cmp	 ecx, 4096		; 00001000H
  00016	72 12		 jb	 SHORT $LN11@deallocate

; 205  :     const uintptr_t _Ptr_container   = _Ptr_user[-1];

  00018	8b 50 fc	 mov	 edx, DWORD PTR [eax-4]
  0001b	83 c1 23	 add	 ecx, 35			; 00000023H

; 206  : 
; 207  :     // If the following asserts, it likely means that we are performing
; 208  :     // an aligned delete on memory coming from an unaligned allocation.
; 209  :     _STL_ASSERT(_Ptr_user[-2] == _Big_allocation_sentinel, "invalid argument");
; 210  : 
; 211  :     // Extra paranoia on aligned allocation/deallocation; ensure _Ptr_container is
; 212  :     // in range [_Min_back_shift, _Non_user_size]
; 213  : #ifdef _DEBUG
; 214  :     constexpr uintptr_t _Min_back_shift = 2 * sizeof(void*);
; 215  : #else // ^^^ defined(_DEBUG) / !defined(_DEBUG) vvv
; 216  :     constexpr uintptr_t _Min_back_shift = sizeof(void*);
; 217  : #endif // ^^^ !defined(_DEBUG) ^^^
; 218  :     const uintptr_t _Back_shift = reinterpret_cast<uintptr_t>(_Ptr) - _Ptr_container;

  0001e	2b c2		 sub	 eax, edx

; 219  :     _STL_VERIFY(_Back_shift >= _Min_back_shift && _Back_shift <= _Non_user_size, "invalid argument");

  00020	83 c0 fc	 add	 eax, -4			; fffffffcH
  00023	83 f8 1f	 cmp	 eax, 31			; 0000001fH
  00026	77 10		 ja	 SHORT $LN10@deallocate

; 220  :     _Ptr = reinterpret_cast<void*>(_Ptr_container);

  00028	8b c2		 mov	 eax, edx
$LN11@deallocate:

; 289  :         ::operator delete(_Ptr, _Bytes);

  0002a	51		 push	 ecx
  0002b	50		 push	 eax
  0002c	e8 00 00 00 00	 call	 ??3@YAXPAXI@Z		; operator delete
  00031	83 c4 08	 add	 esp, 8

; 986  :     }

  00034	5d		 pop	 ebp
  00035	c2 08 00	 ret	 8
$LN10@deallocate:

; 219  :     _STL_VERIFY(_Back_shift >= _Min_back_shift && _Back_shift <= _Non_user_size, "invalid argument");

  00038	6a 00		 push	 0
  0003a	6a 00		 push	 0
  0003c	6a 00		 push	 0
  0003e	6a 00		 push	 0
  00040	6a 00		 push	 0
  00042	e8 00 00 00 00	 call	 __invoke_watson
$LN14@deallocate:
  00047	cc		 int	 3
?deallocate@?$allocator@K@std@@QAEXQAKI@Z ENDP		; std::allocator<unsigned long>::deallocate
_TEXT	ENDS
; Function compile flags: /Ogtp
; File C:\Program Files\Microsoft Visual Studio\2022\Professional\VC\Tools\MSVC\14.44.35207\include\xmemory
;	COMDAT ?_Throw_bad_array_new_length@std@@YAXXZ
_TEXT	SEGMENT
$T1 = -12						; size = 12
?_Throw_bad_array_new_length@std@@YAXXZ PROC		; std::_Throw_bad_array_new_length, COMDAT

; 107  : [[noreturn]] inline void _Throw_bad_array_new_length() {

  00000	55		 push	 ebp
  00001	8b ec		 mov	 ebp, esp
  00003	83 ec 0c	 sub	 esp, 12			; 0000000cH

; 108  :     _THROW(bad_array_new_length{});

  00006	8d 4d f4	 lea	 ecx, DWORD PTR $T1[ebp]
  00009	e8 00 00 00 00	 call	 ??0bad_array_new_length@std@@QAE@XZ ; std::bad_array_new_length::bad_array_new_length
  0000e	68 00 00 00 00	 push	 OFFSET __TI3?AVbad_array_new_length@std@@
  00013	8d 45 f4	 lea	 eax, DWORD PTR $T1[ebp]
  00016	50		 push	 eax
  00017	e8 00 00 00 00	 call	 __CxxThrowException@8
$LN3@Throw_bad_:
  0001c	cc		 int	 3
?_Throw_bad_array_new_length@std@@YAXXZ ENDP		; std::_Throw_bad_array_new_length
_TEXT	ENDS
; Function compile flags: /Ogtp
; File C:\Program Files\Microsoft Visual Studio\2022\Professional\VC\Tools\MSVC\14.44.35207\include\vcruntime_exception.h
;	COMDAT ??_Gbad_array_new_length@std@@UAEPAXI@Z
_TEXT	SEGMENT
___flags$ = 8						; size = 4
??_Gbad_array_new_length@std@@UAEPAXI@Z PROC		; std::bad_array_new_length::`scalar deleting destructor', COMDAT
; _this$ = ecx
  00000	55		 push	 ebp
  00001	8b ec		 mov	 ebp, esp

; 90   :     {

  00003	56		 push	 esi
  00004	8b f1		 mov	 esi, ecx

; 91   :         __std_exception_destroy(&_Data);

  00006	8d 46 04	 lea	 eax, DWORD PTR [esi+4]
  00009	c7 06 00 00 00
	00		 mov	 DWORD PTR [esi], OFFSET ??_7exception@std@@6B@
  0000f	50		 push	 eax
  00010	e8 00 00 00 00	 call	 ___std_exception_destroy
  00015	83 c4 04	 add	 esp, 4
  00018	f6 45 08 01	 test	 BYTE PTR ___flags$[ebp], 1
  0001c	74 0b		 je	 SHORT $LN18@scalar
  0001e	6a 0c		 push	 12			; 0000000cH
  00020	56		 push	 esi
  00021	e8 00 00 00 00	 call	 ??3@YAXPAXI@Z		; operator delete
  00026	83 c4 08	 add	 esp, 8
$LN18@scalar:
  00029	8b c6		 mov	 eax, esi
  0002b	5e		 pop	 esi
  0002c	5d		 pop	 ebp
  0002d	c2 04 00	 ret	 4
??_Gbad_array_new_length@std@@UAEPAXI@Z ENDP		; std::bad_array_new_length::`scalar deleting destructor'
_TEXT	ENDS
; Function compile flags: /Ogtp
; File C:\Program Files\Microsoft Visual Studio\2022\Professional\VC\Tools\MSVC\14.44.35207\include\vcruntime_exception.h
;	COMDAT ??0bad_array_new_length@std@@QAE@ABV01@@Z
_TEXT	SEGMENT
___that$ = 8						; size = 4
??0bad_array_new_length@std@@QAE@ABV01@@Z PROC		; std::bad_array_new_length::bad_array_new_length, COMDAT
; _this$ = ecx
  00000	55		 push	 ebp
  00001	8b ec		 mov	 ebp, esp

; 73   :     {

  00003	56		 push	 esi
  00004	8b f1		 mov	 esi, ecx
  00006	0f 57 c0	 xorps	 xmm0, xmm0

; 72   :         : _Data()

  00009	8d 46 04	 lea	 eax, DWORD PTR [esi+4]

; 74   :         __std_exception_copy(&_Other._Data, &_Data);

  0000c	50		 push	 eax
  0000d	c7 06 00 00 00
	00		 mov	 DWORD PTR [esi], OFFSET ??_7exception@std@@6B@
  00013	66 0f d6 00	 movq	 QWORD PTR [eax], xmm0
  00017	8b 45 08	 mov	 eax, DWORD PTR ___that$[ebp]
  0001a	83 c0 04	 add	 eax, 4
  0001d	50		 push	 eax
  0001e	e8 00 00 00 00	 call	 ___std_exception_copy
  00023	83 c4 08	 add	 esp, 8
  00026	c7 06 00 00 00
	00		 mov	 DWORD PTR [esi], OFFSET ??_7bad_array_new_length@std@@6B@
  0002c	8b c6		 mov	 eax, esi
  0002e	5e		 pop	 esi
  0002f	5d		 pop	 ebp
  00030	c2 04 00	 ret	 4
??0bad_array_new_length@std@@QAE@ABV01@@Z ENDP		; std::bad_array_new_length::bad_array_new_length
_TEXT	ENDS
; Function compile flags: /Ogtp
; File C:\Program Files\Microsoft Visual Studio\2022\Professional\VC\Tools\MSVC\14.44.35207\include\vcruntime_exception.h
;	COMDAT ??1bad_array_new_length@std@@UAE@XZ
_TEXT	SEGMENT
??1bad_array_new_length@std@@UAE@XZ PROC		; std::bad_array_new_length::~bad_array_new_length, COMDAT
; _this$ = ecx

; 91   :         __std_exception_destroy(&_Data);

  00000	8d 41 04	 lea	 eax, DWORD PTR [ecx+4]
  00003	c7 01 00 00 00
	00		 mov	 DWORD PTR [ecx], OFFSET ??_7exception@std@@6B@
  00009	50		 push	 eax
  0000a	e8 00 00 00 00	 call	 ___std_exception_destroy
  0000f	59		 pop	 ecx
  00010	c3		 ret	 0
??1bad_array_new_length@std@@UAE@XZ ENDP		; std::bad_array_new_length::~bad_array_new_length
_TEXT	ENDS
; Function compile flags: /Ogtp
; File C:\Program Files\Microsoft Visual Studio\2022\Professional\VC\Tools\MSVC\14.44.35207\include\vcruntime_exception.h
;	COMDAT ??0bad_array_new_length@std@@QAE@XZ
_TEXT	SEGMENT
??0bad_array_new_length@std@@QAE@XZ PROC		; std::bad_array_new_length::bad_array_new_length, COMDAT
; _this$ = ecx

; 144  :     {

  00000	0f 57 c0	 xorps	 xmm0, xmm0

; 145  :     }

  00003	8b c1		 mov	 eax, ecx

; 66   :         : _Data()

  00005	66 0f d6 41 04	 movq	 QWORD PTR [ecx+4], xmm0

; 67   :     {
; 68   :         _Data._What = _Message;

  0000a	c7 41 04 00 00
	00 00		 mov	 DWORD PTR [ecx+4], OFFSET ??_C@_0BF@KINCDENJ@bad?5array?5new?5length@

; 144  :     {

  00011	c7 01 00 00 00
	00		 mov	 DWORD PTR [ecx], OFFSET ??_7bad_array_new_length@std@@6B@

; 145  :     }

  00017	c3		 ret	 0
??0bad_array_new_length@std@@QAE@XZ ENDP		; std::bad_array_new_length::bad_array_new_length
_TEXT	ENDS
; Function compile flags: /Ogtp
; File C:\Program Files\Microsoft Visual Studio\2022\Professional\VC\Tools\MSVC\14.44.35207\include\vcruntime_exception.h
;	COMDAT ??_Gbad_alloc@std@@UAEPAXI@Z
_TEXT	SEGMENT
___flags$ = 8						; size = 4
??_Gbad_alloc@std@@UAEPAXI@Z PROC			; std::bad_alloc::`scalar deleting destructor', COMDAT
; _this$ = ecx
  00000	55		 push	 ebp
  00001	8b ec		 mov	 ebp, esp

; 90   :     {

  00003	56		 push	 esi
  00004	8b f1		 mov	 esi, ecx

; 91   :         __std_exception_destroy(&_Data);

  00006	8d 46 04	 lea	 eax, DWORD PTR [esi+4]
  00009	c7 06 00 00 00
	00		 mov	 DWORD PTR [esi], OFFSET ??_7exception@std@@6B@
  0000f	50		 push	 eax
  00010	e8 00 00 00 00	 call	 ___std_exception_destroy
  00015	83 c4 04	 add	 esp, 4
  00018	f6 45 08 01	 test	 BYTE PTR ___flags$[ebp], 1
  0001c	74 0b		 je	 SHORT $LN13@scalar
  0001e	6a 0c		 push	 12			; 0000000cH
  00020	56		 push	 esi
  00021	e8 00 00 00 00	 call	 ??3@YAXPAXI@Z		; operator delete
  00026	83 c4 08	 add	 esp, 8
$LN13@scalar:
  00029	8b c6		 mov	 eax, esi
  0002b	5e		 pop	 esi
  0002c	5d		 pop	 ebp
  0002d	c2 04 00	 ret	 4
??_Gbad_alloc@std@@UAEPAXI@Z ENDP			; std::bad_alloc::`scalar deleting destructor'
_TEXT	ENDS
; Function compile flags: /Ogtp
; File C:\Program Files\Microsoft Visual Studio\2022\Professional\VC\Tools\MSVC\14.44.35207\include\vcruntime_exception.h
;	COMDAT ??0bad_alloc@std@@QAE@ABV01@@Z
_TEXT	SEGMENT
___that$ = 8						; size = 4
??0bad_alloc@std@@QAE@ABV01@@Z PROC			; std::bad_alloc::bad_alloc, COMDAT
; _this$ = ecx
  00000	55		 push	 ebp
  00001	8b ec		 mov	 ebp, esp

; 73   :     {

  00003	56		 push	 esi
  00004	8b f1		 mov	 esi, ecx
  00006	0f 57 c0	 xorps	 xmm0, xmm0

; 72   :         : _Data()

  00009	8d 46 04	 lea	 eax, DWORD PTR [esi+4]

; 74   :         __std_exception_copy(&_Other._Data, &_Data);

  0000c	50		 push	 eax
  0000d	c7 06 00 00 00
	00		 mov	 DWORD PTR [esi], OFFSET ??_7exception@std@@6B@
  00013	66 0f d6 00	 movq	 QWORD PTR [eax], xmm0
  00017	8b 45 08	 mov	 eax, DWORD PTR ___that$[ebp]
  0001a	83 c0 04	 add	 eax, 4
  0001d	50		 push	 eax
  0001e	e8 00 00 00 00	 call	 ___std_exception_copy
  00023	83 c4 08	 add	 esp, 8
  00026	c7 06 00 00 00
	00		 mov	 DWORD PTR [esi], OFFSET ??_7bad_alloc@std@@6B@
  0002c	8b c6		 mov	 eax, esi
  0002e	5e		 pop	 esi
  0002f	5d		 pop	 ebp
  00030	c2 04 00	 ret	 4
??0bad_alloc@std@@QAE@ABV01@@Z ENDP			; std::bad_alloc::bad_alloc
_TEXT	ENDS
; Function compile flags: /Ogtp
; File C:\Program Files\Microsoft Visual Studio\2022\Professional\VC\Tools\MSVC\14.44.35207\include\vcruntime_exception.h
;	COMDAT ??_Gexception@std@@UAEPAXI@Z
_TEXT	SEGMENT
___flags$ = 8						; size = 4
??_Gexception@std@@UAEPAXI@Z PROC			; std::exception::`scalar deleting destructor', COMDAT
; _this$ = ecx
  00000	55		 push	 ebp
  00001	8b ec		 mov	 ebp, esp

; 90   :     {

  00003	56		 push	 esi
  00004	8b f1		 mov	 esi, ecx

; 91   :         __std_exception_destroy(&_Data);

  00006	8d 46 04	 lea	 eax, DWORD PTR [esi+4]
  00009	c7 06 00 00 00
	00		 mov	 DWORD PTR [esi], OFFSET ??_7exception@std@@6B@
  0000f	50		 push	 eax
  00010	e8 00 00 00 00	 call	 ___std_exception_destroy
  00015	83 c4 04	 add	 esp, 4
  00018	f6 45 08 01	 test	 BYTE PTR ___flags$[ebp], 1
  0001c	74 0b		 je	 SHORT $LN8@scalar
  0001e	6a 0c		 push	 12			; 0000000cH
  00020	56		 push	 esi
  00021	e8 00 00 00 00	 call	 ??3@YAXPAXI@Z		; operator delete
  00026	83 c4 08	 add	 esp, 8
$LN8@scalar:
  00029	8b c6		 mov	 eax, esi
  0002b	5e		 pop	 esi
  0002c	5d		 pop	 ebp
  0002d	c2 04 00	 ret	 4
??_Gexception@std@@UAEPAXI@Z ENDP			; std::exception::`scalar deleting destructor'
_TEXT	ENDS
; Function compile flags: /Ogtp
; File C:\Program Files\Microsoft Visual Studio\2022\Professional\VC\Tools\MSVC\14.44.35207\include\vcruntime_exception.h
;	COMDAT ?what@exception@std@@UBEPBDXZ
_TEXT	SEGMENT
?what@exception@std@@UBEPBDXZ PROC			; std::exception::what, COMDAT
; _this$ = ecx

; 96   :         return _Data._What ? _Data._What : "Unknown exception";

  00000	8b 49 04	 mov	 ecx, DWORD PTR [ecx+4]
  00003	b8 00 00 00 00	 mov	 eax, OFFSET ??_C@_0BC@EOODALEL@Unknown?5exception@
  00008	85 c9		 test	 ecx, ecx
  0000a	0f 45 c1	 cmovne	 eax, ecx

; 97   :     }

  0000d	c3		 ret	 0
?what@exception@std@@UBEPBDXZ ENDP			; std::exception::what
_TEXT	ENDS
; Function compile flags: /Ogtp
; File C:\Program Files\Microsoft Visual Studio\2022\Professional\VC\Tools\MSVC\14.44.35207\include\vcruntime_exception.h
;	COMDAT ??1exception@std@@UAE@XZ
_TEXT	SEGMENT
??1exception@std@@UAE@XZ PROC				; std::exception::~exception, COMDAT
; _this$ = ecx

; 91   :         __std_exception_destroy(&_Data);

  00000	8d 41 04	 lea	 eax, DWORD PTR [ecx+4]
  00003	c7 01 00 00 00
	00		 mov	 DWORD PTR [ecx], OFFSET ??_7exception@std@@6B@
  00009	50		 push	 eax
  0000a	e8 00 00 00 00	 call	 ___std_exception_destroy
  0000f	59		 pop	 ecx

; 92   :     }

  00010	c3		 ret	 0
??1exception@std@@UAE@XZ ENDP				; std::exception::~exception
_TEXT	ENDS
; Function compile flags: /Ogtp
; File C:\Program Files\Microsoft Visual Studio\2022\Professional\VC\Tools\MSVC\14.44.35207\include\vcruntime_exception.h
;	COMDAT ??0exception@std@@QAE@ABV01@@Z
_TEXT	SEGMENT
__Other$ = 8						; size = 4
??0exception@std@@QAE@ABV01@@Z PROC			; std::exception::exception, COMDAT
; _this$ = ecx

; 73   :     {

  00000	55		 push	 ebp
  00001	8b ec		 mov	 ebp, esp
  00003	56		 push	 esi
  00004	8b f1		 mov	 esi, ecx
  00006	0f 57 c0	 xorps	 xmm0, xmm0
  00009	8d 46 04	 lea	 eax, DWORD PTR [esi+4]

; 74   :         __std_exception_copy(&_Other._Data, &_Data);

  0000c	50		 push	 eax
  0000d	c7 06 00 00 00
	00		 mov	 DWORD PTR [esi], OFFSET ??_7exception@std@@6B@
  00013	66 0f d6 00	 movq	 QWORD PTR [eax], xmm0
  00017	8b 45 08	 mov	 eax, DWORD PTR __Other$[ebp]
  0001a	83 c0 04	 add	 eax, 4
  0001d	50		 push	 eax
  0001e	e8 00 00 00 00	 call	 ___std_exception_copy
  00023	83 c4 08	 add	 esp, 8

; 75   :     }

  00026	8b c6		 mov	 eax, esi
  00028	5e		 pop	 esi
  00029	5d		 pop	 ebp
  0002a	c2 04 00	 ret	 4
??0exception@std@@QAE@ABV01@@Z ENDP			; std::exception::exception
_TEXT	ENDS
; Function compile flags: /Ogtp
; File C:\IAGOS\server\v18\Source\Source\_Common\piercing.cpp
;	COMDAT ?__empty_global_delete@@YAXPAXI@Z
_TEXT	SEGMENT
___formal$ = 8						; size = 4
___formal$ = 12						; size = 4
?__empty_global_delete@@YAXPAXI@Z PROC			; __empty_global_delete, COMDAT

  00000	c2 00 00	 ret	 0
?__empty_global_delete@@YAXPAXI@Z ENDP			; __empty_global_delete
_TEXT	ENDS
; Function compile flags: /Ogtp
; File C:\IAGOS\server\v18\Source\Source\_Common\piercing.cpp
;	COMDAT ?__empty_global_delete@@YAXPAX@Z
_TEXT	SEGMENT
___formal$ = 8						; size = 4
?__empty_global_delete@@YAXPAX@Z PROC			; __empty_global_delete, COMDAT

  00000	c2 00 00	 ret	 0
?__empty_global_delete@@YAXPAX@Z ENDP			; __empty_global_delete
_TEXT	ENDS
END
