; Listing generated by Microsoft (R) Optimizing Compiler Version 19.44.35225.0 

	TITLE	C:\IAGOS\server\v18\Source\Output\DatabaseServer\Release\pocket.obj
	.686P
	.XMM
	include listing.inc
	.model	flat

INCLUDELIB LIBCMT
INCLUDELIB OLDNAMES

PUBLIC	?__empty_global_delete@@YAXPAX@Z		; __empty_global_delete
PUBLIC	?__empty_global_delete@@YAXPAXI@Z		; __empty_global_delete
PUBLIC	??0?$CItemContainer@VCItemElem@@@@QAE@XZ	; CItemContainer<CItemElem>::CItemContainer<CItemElem>
PUBLIC	??1?$CItemContainer@VCItemElem@@@@UAE@XZ	; CItemContainer<CItemElem>::~CItemContainer<CItemElem>
PUBLIC	?SetItemContainer@?$CItemContainer@VCItemElem@@@@QAEXKKK@Z ; CItemContainer<CItemElem>::SetItemContainer
PUBLIC	?Copy@?$CItemContainer@VCItemElem@@@@QAEXAAV1@@Z ; CItemContainer<CItemElem>::Copy
PUBLIC	?Serialize@?$CItemContainer@VCItemElem@@@@QAEXAAVCAr@@@Z ; CItemContainer<CItemElem>::Serialize
PUBLIC	??_G?$CItemContainer@VCItemElem@@@@UAEPAXI@Z	; CItemContainer<CItemElem>::`scalar deleting destructor'
PUBLIC	??0CPocket@@QAE@XZ				; CPocket::CPocket
PUBLIC	??1CPocket@@UAE@XZ				; CPocket::~CPocket
PUBLIC	?Copy@CPocket@@QAEXAAV1@@Z			; CPocket::Copy
PUBLIC	?Serialize@CPocket@@QAEXAAVCAr@@@Z		; CPocket::Serialize
PUBLIC	??_GCPocket@@UAEPAXI@Z				; CPocket::`scalar deleting destructor'
PUBLIC	??0CPocketController@@QAE@XZ			; CPocketController::CPocketController
PUBLIC	??1CPocketController@@UAE@XZ			; CPocketController::~CPocketController
PUBLIC	?Clear@CPocketController@@QAEXXZ		; CPocketController::Clear
PUBLIC	?Avail@CPocketController@@QAEXHJ@Z		; CPocketController::Avail
PUBLIC	?Copy@CPocketController@@QAEXAAV1@@Z		; CPocketController::Copy
PUBLIC	?Serialize@CPocketController@@QAEXAAVCAr@@@Z	; CPocketController::Serialize
PUBLIC	?GetPocket@CPocketController@@QAEPAVCPocket@@H@Z ; CPocketController::GetPocket
PUBLIC	??_GCPocketController@@UAEPAXI@Z		; CPocketController::`scalar deleting destructor'
PUBLIC	??$?6H@CAr@@QAEAAV0@ABH@Z			; CAr::operator<<<int>
PUBLIC	??$?6J@CAr@@QAEAAV0@ABJ@Z			; CAr::operator<<<long>
PUBLIC	??$?5H@CAr@@QAEAAV0@AAH@Z			; CAr::operator>><int>
PUBLIC	??$?5J@CAr@@QAEAAV0@AAJ@Z			; CAr::operator>><long>
PUBLIC	??$?6E@CAr@@QAEAAV0@ABE@Z			; CAr::operator<<<unsigned char>
PUBLIC	??$?5E@CAr@@QAEAAV0@AAE@Z			; CAr::operator>><unsigned char>
PUBLIC	??_7?$CItemContainer@VCItemElem@@@@6B@		; CItemContainer<CItemElem>::`vftable'
PUBLIC	??_7CPocket@@6B@				; CPocket::`vftable'
PUBLIC	??_7CPocketController@@6B@			; CPocketController::`vftable'
PUBLIC	??_R4?$CItemContainer@VCItemElem@@@@6B@		; CItemContainer<CItemElem>::`RTTI Complete Object Locator'
PUBLIC	??_R0?AV?$CItemContainer@VCItemElem@@@@@8	; CItemContainer<CItemElem> `RTTI Type Descriptor'
PUBLIC	??_R3?$CItemContainer@VCItemElem@@@@8		; CItemContainer<CItemElem>::`RTTI Class Hierarchy Descriptor'
PUBLIC	??_R2?$CItemContainer@VCItemElem@@@@8		; CItemContainer<CItemElem>::`RTTI Base Class Array'
PUBLIC	??_R1A@?0A@EA@?$CItemContainer@VCItemElem@@@@8	; CItemContainer<CItemElem>::`RTTI Base Class Descriptor at (0,-1,0,64)'
PUBLIC	??_R4CPocket@@6B@				; CPocket::`RTTI Complete Object Locator'
PUBLIC	??_R0?AVCPocket@@@8				; CPocket `RTTI Type Descriptor'
PUBLIC	??_R3CPocket@@8					; CPocket::`RTTI Class Hierarchy Descriptor'
PUBLIC	??_R2CPocket@@8					; CPocket::`RTTI Base Class Array'
PUBLIC	??_R1A@?0A@EA@CPocket@@8			; CPocket::`RTTI Base Class Descriptor at (0,-1,0,64)'
PUBLIC	??_R4CPocketController@@6B@			; CPocketController::`RTTI Complete Object Locator'
PUBLIC	??_R0?AVCPocketController@@@8			; CPocketController `RTTI Type Descriptor'
PUBLIC	??_R3CPocketController@@8			; CPocketController::`RTTI Class Hierarchy Descriptor'
PUBLIC	??_R2CPocketController@@8			; CPocketController::`RTTI Base Class Array'
PUBLIC	??_R1A@?0A@EA@CPocketController@@8		; CPocketController::`RTTI Base Class Descriptor at (0,-1,0,64)'
EXTRN	??_L@YGXPAXIIP6EX0@Z1@Z:PROC			; `eh vector constructor iterator'
EXTRN	??2@YAPAXI@Z:PROC				; operator new
EXTRN	??3@YAXPAXI@Z:PROC				; operator delete
EXTRN	??_U@YAPAXI@Z:PROC				; operator new[]
EXTRN	??_V@YAXPAX@Z:PROC				; operator delete[]
EXTRN	??_V@YAXPAXI@Z:PROC				; operator delete[]
EXTRN	__time32:PROC
EXTRN	?Read@CAr@@QAEXPAXI@Z:PROC			; CAr::Read
EXTRN	?Write@CAr@@QAEXPBXI@Z:PROC			; CAr::Write
EXTRN	?CheckBuf@CAr@@QAEXI@Z:PROC			; CAr::CheckBuf
EXTRN	?GetBuffer@CAr@@QAEPAEPAH@Z:PROC		; CAr::GetBuffer
EXTRN	??0CItemElem@@QAE@XZ:PROC			; CItemElem::CItemElem
EXTRN	??1CItemElem@@UAE@XZ:PROC			; CItemElem::~CItemElem
EXTRN	??_E?$CItemContainer@VCItemElem@@@@UAEPAXI@Z:PROC ; CItemContainer<CItemElem>::`vector deleting destructor'
EXTRN	??_ECPocket@@UAEPAXI@Z:PROC			; CPocket::`vector deleting destructor'
EXTRN	??_ECPocketController@@UAEPAXI@Z:PROC		; CPocketController::`vector deleting destructor'
EXTRN	@__security_check_cookie@4:PROC
EXTRN	___CxxFrameHandler3:PROC
EXTRN	_memcpy:PROC
EXTRN	??_7type_info@@6B@:QWORD			; type_info::`vftable'
EXTRN	___security_cookie:DWORD
;	COMDAT ??_R1A@?0A@EA@CPocketController@@8
rdata$r	SEGMENT
??_R1A@?0A@EA@CPocketController@@8 DD FLAT:??_R0?AVCPocketController@@@8 ; CPocketController::`RTTI Base Class Descriptor at (0,-1,0,64)'
	DD	00H
	DD	00H
	DD	0ffffffffH
	DD	00H
	DD	040H
	DD	FLAT:??_R3CPocketController@@8
rdata$r	ENDS
;	COMDAT ??_R2CPocketController@@8
rdata$r	SEGMENT
??_R2CPocketController@@8 DD FLAT:??_R1A@?0A@EA@CPocketController@@8 ; CPocketController::`RTTI Base Class Array'
rdata$r	ENDS
;	COMDAT ??_R3CPocketController@@8
rdata$r	SEGMENT
??_R3CPocketController@@8 DD 00H			; CPocketController::`RTTI Class Hierarchy Descriptor'
	DD	00H
	DD	01H
	DD	FLAT:??_R2CPocketController@@8
rdata$r	ENDS
;	COMDAT ??_R0?AVCPocketController@@@8
data$rs	SEGMENT
??_R0?AVCPocketController@@@8 DD FLAT:??_7type_info@@6B@ ; CPocketController `RTTI Type Descriptor'
	DD	00H
	DB	'.?AVCPocketController@@', 00H
data$rs	ENDS
;	COMDAT ??_R4CPocketController@@6B@
rdata$r	SEGMENT
??_R4CPocketController@@6B@ DD 00H			; CPocketController::`RTTI Complete Object Locator'
	DD	00H
	DD	00H
	DD	FLAT:??_R0?AVCPocketController@@@8
	DD	FLAT:??_R3CPocketController@@8
rdata$r	ENDS
;	COMDAT ??_R1A@?0A@EA@CPocket@@8
rdata$r	SEGMENT
??_R1A@?0A@EA@CPocket@@8 DD FLAT:??_R0?AVCPocket@@@8	; CPocket::`RTTI Base Class Descriptor at (0,-1,0,64)'
	DD	01H
	DD	00H
	DD	0ffffffffH
	DD	00H
	DD	040H
	DD	FLAT:??_R3CPocket@@8
rdata$r	ENDS
;	COMDAT ??_R2CPocket@@8
rdata$r	SEGMENT
??_R2CPocket@@8 DD FLAT:??_R1A@?0A@EA@CPocket@@8	; CPocket::`RTTI Base Class Array'
	DD	FLAT:??_R1A@?0A@EA@?$CItemContainer@VCItemElem@@@@8
rdata$r	ENDS
;	COMDAT ??_R3CPocket@@8
rdata$r	SEGMENT
??_R3CPocket@@8 DD 00H					; CPocket::`RTTI Class Hierarchy Descriptor'
	DD	00H
	DD	02H
	DD	FLAT:??_R2CPocket@@8
rdata$r	ENDS
;	COMDAT ??_R0?AVCPocket@@@8
data$rs	SEGMENT
??_R0?AVCPocket@@@8 DD FLAT:??_7type_info@@6B@		; CPocket `RTTI Type Descriptor'
	DD	00H
	DB	'.?AVCPocket@@', 00H
data$rs	ENDS
;	COMDAT ??_R4CPocket@@6B@
rdata$r	SEGMENT
??_R4CPocket@@6B@ DD 00H				; CPocket::`RTTI Complete Object Locator'
	DD	00H
	DD	00H
	DD	FLAT:??_R0?AVCPocket@@@8
	DD	FLAT:??_R3CPocket@@8
rdata$r	ENDS
;	COMDAT ??_R1A@?0A@EA@?$CItemContainer@VCItemElem@@@@8
rdata$r	SEGMENT
??_R1A@?0A@EA@?$CItemContainer@VCItemElem@@@@8 DD FLAT:??_R0?AV?$CItemContainer@VCItemElem@@@@@8 ; CItemContainer<CItemElem>::`RTTI Base Class Descriptor at (0,-1,0,64)'
	DD	00H
	DD	00H
	DD	0ffffffffH
	DD	00H
	DD	040H
	DD	FLAT:??_R3?$CItemContainer@VCItemElem@@@@8
rdata$r	ENDS
;	COMDAT ??_R2?$CItemContainer@VCItemElem@@@@8
rdata$r	SEGMENT
??_R2?$CItemContainer@VCItemElem@@@@8 DD FLAT:??_R1A@?0A@EA@?$CItemContainer@VCItemElem@@@@8 ; CItemContainer<CItemElem>::`RTTI Base Class Array'
rdata$r	ENDS
;	COMDAT ??_R3?$CItemContainer@VCItemElem@@@@8
rdata$r	SEGMENT
??_R3?$CItemContainer@VCItemElem@@@@8 DD 00H		; CItemContainer<CItemElem>::`RTTI Class Hierarchy Descriptor'
	DD	00H
	DD	01H
	DD	FLAT:??_R2?$CItemContainer@VCItemElem@@@@8
rdata$r	ENDS
;	COMDAT ??_R0?AV?$CItemContainer@VCItemElem@@@@@8
data$rs	SEGMENT
??_R0?AV?$CItemContainer@VCItemElem@@@@@8 DD FLAT:??_7type_info@@6B@ ; CItemContainer<CItemElem> `RTTI Type Descriptor'
	DD	00H
	DB	'.?AV?$CItemContainer@VCItemElem@@@@', 00H
data$rs	ENDS
;	COMDAT ??_R4?$CItemContainer@VCItemElem@@@@6B@
rdata$r	SEGMENT
??_R4?$CItemContainer@VCItemElem@@@@6B@ DD 00H		; CItemContainer<CItemElem>::`RTTI Complete Object Locator'
	DD	00H
	DD	00H
	DD	FLAT:??_R0?AV?$CItemContainer@VCItemElem@@@@@8
	DD	FLAT:??_R3?$CItemContainer@VCItemElem@@@@8
rdata$r	ENDS
;	COMDAT ??_7CPocketController@@6B@
CONST	SEGMENT
??_7CPocketController@@6B@ DD FLAT:??_R4CPocketController@@6B@ ; CPocketController::`vftable'
	DD	FLAT:??_ECPocketController@@UAEPAXI@Z
CONST	ENDS
;	COMDAT ??_7CPocket@@6B@
CONST	SEGMENT
??_7CPocket@@6B@ DD FLAT:??_R4CPocket@@6B@		; CPocket::`vftable'
	DD	FLAT:??_ECPocket@@UAEPAXI@Z
CONST	ENDS
;	COMDAT ??_7?$CItemContainer@VCItemElem@@@@6B@
CONST	SEGMENT
??_7?$CItemContainer@VCItemElem@@@@6B@ DD FLAT:??_R4?$CItemContainer@VCItemElem@@@@6B@ ; CItemContainer<CItemElem>::`vftable'
	DD	FLAT:??_E?$CItemContainer@VCItemElem@@@@UAEPAXI@Z
CONST	ENDS
;	COMDAT xdata$x
xdata$x	SEGMENT
__unwindtable$?SetItemContainer@?$CItemContainer@VCItemElem@@@@QAEXKKK@Z DD 0ffffffffH
	DD	FLAT:__unwindfunclet$?SetItemContainer@?$CItemContainer@VCItemElem@@@@QAEXKKK@Z$0
__ehfuncinfo$?SetItemContainer@?$CItemContainer@VCItemElem@@@@QAEXKKK@Z DD 019930522H
	DD	01H
	DD	FLAT:__unwindtable$?SetItemContainer@?$CItemContainer@VCItemElem@@@@QAEXKKK@Z
	DD	2 DUP(00H)
	DD	2 DUP(00H)
	DD	00H
	DD	01H
xdata$x	ENDS
; Function compile flags: /Ogtp
; File C:\IAGOS\server\v18\Source\Source\_Network\Misc\Include\Ar.h
;	COMDAT ??$?5E@CAr@@QAEAAV0@AAE@Z
_TEXT	SEGMENT
_t$ = 8							; size = 4
??$?5E@CAr@@QAEAAV0@AAE@Z PROC				; CAr::operator>><unsigned char>, COMDAT
; _this$ = ecx

; 302  : {

  00000	55		 push	 ebp
  00001	8b ec		 mov	 ebp, esp
  00003	8b d1		 mov	 edx, ecx

; 303  : 	if (m_lpBufCur + sizeof(T) <= m_lpBufMax)

  00005	8b 4a 08	 mov	 ecx, DWORD PTR [edx+8]
  00008	8d 41 01	 lea	 eax, DWORD PTR [ecx+1]
  0000b	3b 42 0c	 cmp	 eax, DWORD PTR [edx+12]
  0000e	8b 45 08	 mov	 eax, DWORD PTR _t$[ebp]
  00011	77 0d		 ja	 SHORT $LN2@operator

; 304  : 	{
; 305  : 		t = *(UNALIGNED T*)m_lpBufCur;

  00013	8a 09		 mov	 cl, BYTE PTR [ecx]
  00015	88 08		 mov	 BYTE PTR [eax], cl

; 312  : 	}
; 313  : 	return *this;
; 314  : }

  00017	8b c2		 mov	 eax, edx
  00019	ff 42 08	 inc	 DWORD PTR [edx+8]
  0001c	5d		 pop	 ebp
  0001d	c2 04 00	 ret	 4
$LN2@operator:

; 306  : 		m_lpBufCur += sizeof(T);
; 307  : 	}
; 308  : 	else
; 309  : 	{
; 310  : 		t = T();

  00020	c6 00 00	 mov	 BYTE PTR [eax], 0

; 311  : 		m_lpBufCur = m_lpBufMax;

  00023	8b 42 0c	 mov	 eax, DWORD PTR [edx+12]
  00026	89 42 08	 mov	 DWORD PTR [edx+8], eax

; 312  : 	}
; 313  : 	return *this;
; 314  : }

  00029	8b c2		 mov	 eax, edx
  0002b	5d		 pop	 ebp
  0002c	c2 04 00	 ret	 4
??$?5E@CAr@@QAEAAV0@AAE@Z ENDP				; CAr::operator>><unsigned char>
_TEXT	ENDS
; Function compile flags: /Ogtp
; File C:\IAGOS\server\v18\Source\Source\_Network\Misc\Include\Ar.h
;	COMDAT ??$?6E@CAr@@QAEAAV0@ABE@Z
_TEXT	SEGMENT
_t$ = 8							; size = 4
??$?6E@CAr@@QAEAAV0@ABE@Z PROC				; CAr::operator<<<unsigned char>, COMDAT
; _this$ = ecx

; 255  : {

  00000	55		 push	 ebp
  00001	8b ec		 mov	 ebp, esp
  00003	56		 push	 esi

; 256  : 	CheckBuf(sizeof(T));

  00004	6a 01		 push	 1
  00006	8b f1		 mov	 esi, ecx
  00008	e8 00 00 00 00	 call	 ?CheckBuf@CAr@@QAEXI@Z	; CAr::CheckBuf

; 257  : 	*(UNALIGNED T*)m_lpBufCur = t;

  0000d	8b 45 08	 mov	 eax, DWORD PTR _t$[ebp]
  00010	8b 56 08	 mov	 edx, DWORD PTR [esi+8]
  00013	8a 00		 mov	 al, BYTE PTR [eax]
  00015	88 02		 mov	 BYTE PTR [edx], al

; 258  : 	m_lpBufCur += sizeof(T);
; 259  : 	return *this;

  00017	8b c6		 mov	 eax, esi
  00019	ff 46 08	 inc	 DWORD PTR [esi+8]
  0001c	5e		 pop	 esi

; 260  : }

  0001d	5d		 pop	 ebp
  0001e	c2 04 00	 ret	 4
??$?6E@CAr@@QAEAAV0@ABE@Z ENDP				; CAr::operator<<<unsigned char>
_TEXT	ENDS
; Function compile flags: /Ogtp
; File C:\IAGOS\server\v18\Source\Source\_Network\Misc\Include\Ar.h
;	COMDAT ??$?5J@CAr@@QAEAAV0@AAJ@Z
_TEXT	SEGMENT
_t$ = 8							; size = 4
??$?5J@CAr@@QAEAAV0@AAJ@Z PROC				; CAr::operator>><long>, COMDAT
; _this$ = ecx

; 302  : {

  00000	55		 push	 ebp
  00001	8b ec		 mov	 ebp, esp
  00003	8b d1		 mov	 edx, ecx

; 303  : 	if (m_lpBufCur + sizeof(T) <= m_lpBufMax)

  00005	8b 4a 08	 mov	 ecx, DWORD PTR [edx+8]
  00008	8d 41 04	 lea	 eax, DWORD PTR [ecx+4]
  0000b	3b 42 0c	 cmp	 eax, DWORD PTR [edx+12]
  0000e	8b 45 08	 mov	 eax, DWORD PTR _t$[ebp]
  00011	77 0e		 ja	 SHORT $LN2@operator

; 304  : 	{
; 305  : 		t = *(UNALIGNED T*)m_lpBufCur;

  00013	8b 09		 mov	 ecx, DWORD PTR [ecx]
  00015	89 08		 mov	 DWORD PTR [eax], ecx

; 312  : 	}
; 313  : 	return *this;
; 314  : }

  00017	8b c2		 mov	 eax, edx
  00019	83 42 08 04	 add	 DWORD PTR [edx+8], 4
  0001d	5d		 pop	 ebp
  0001e	c2 04 00	 ret	 4
$LN2@operator:

; 306  : 		m_lpBufCur += sizeof(T);
; 307  : 	}
; 308  : 	else
; 309  : 	{
; 310  : 		t = T();

  00021	c7 00 00 00 00
	00		 mov	 DWORD PTR [eax], 0

; 311  : 		m_lpBufCur = m_lpBufMax;

  00027	8b 42 0c	 mov	 eax, DWORD PTR [edx+12]
  0002a	89 42 08	 mov	 DWORD PTR [edx+8], eax

; 312  : 	}
; 313  : 	return *this;
; 314  : }

  0002d	8b c2		 mov	 eax, edx
  0002f	5d		 pop	 ebp
  00030	c2 04 00	 ret	 4
??$?5J@CAr@@QAEAAV0@AAJ@Z ENDP				; CAr::operator>><long>
_TEXT	ENDS
; Function compile flags: /Ogtp
; File C:\IAGOS\server\v18\Source\Source\_Network\Misc\Include\Ar.h
;	COMDAT ??$?5H@CAr@@QAEAAV0@AAH@Z
_TEXT	SEGMENT
_t$ = 8							; size = 4
??$?5H@CAr@@QAEAAV0@AAH@Z PROC				; CAr::operator>><int>, COMDAT
; _this$ = ecx

; 302  : {

  00000	55		 push	 ebp
  00001	8b ec		 mov	 ebp, esp
  00003	8b d1		 mov	 edx, ecx

; 303  : 	if (m_lpBufCur + sizeof(T) <= m_lpBufMax)

  00005	8b 4a 08	 mov	 ecx, DWORD PTR [edx+8]
  00008	8d 41 04	 lea	 eax, DWORD PTR [ecx+4]
  0000b	3b 42 0c	 cmp	 eax, DWORD PTR [edx+12]
  0000e	8b 45 08	 mov	 eax, DWORD PTR _t$[ebp]
  00011	77 0e		 ja	 SHORT $LN2@operator

; 304  : 	{
; 305  : 		t = *(UNALIGNED T*)m_lpBufCur;

  00013	8b 09		 mov	 ecx, DWORD PTR [ecx]
  00015	89 08		 mov	 DWORD PTR [eax], ecx

; 312  : 	}
; 313  : 	return *this;
; 314  : }

  00017	8b c2		 mov	 eax, edx
  00019	83 42 08 04	 add	 DWORD PTR [edx+8], 4
  0001d	5d		 pop	 ebp
  0001e	c2 04 00	 ret	 4
$LN2@operator:

; 306  : 		m_lpBufCur += sizeof(T);
; 307  : 	}
; 308  : 	else
; 309  : 	{
; 310  : 		t = T();

  00021	c7 00 00 00 00
	00		 mov	 DWORD PTR [eax], 0

; 311  : 		m_lpBufCur = m_lpBufMax;

  00027	8b 42 0c	 mov	 eax, DWORD PTR [edx+12]
  0002a	89 42 08	 mov	 DWORD PTR [edx+8], eax

; 312  : 	}
; 313  : 	return *this;
; 314  : }

  0002d	8b c2		 mov	 eax, edx
  0002f	5d		 pop	 ebp
  00030	c2 04 00	 ret	 4
??$?5H@CAr@@QAEAAV0@AAH@Z ENDP				; CAr::operator>><int>
_TEXT	ENDS
; Function compile flags: /Ogtp
; File C:\IAGOS\server\v18\Source\Source\_Network\Misc\Include\Ar.h
;	COMDAT ??$?6J@CAr@@QAEAAV0@ABJ@Z
_TEXT	SEGMENT
_t$ = 8							; size = 4
??$?6J@CAr@@QAEAAV0@ABJ@Z PROC				; CAr::operator<<<long>, COMDAT
; _this$ = ecx

; 255  : {

  00000	55		 push	 ebp
  00001	8b ec		 mov	 ebp, esp
  00003	56		 push	 esi

; 256  : 	CheckBuf(sizeof(T));

  00004	6a 04		 push	 4
  00006	8b f1		 mov	 esi, ecx
  00008	e8 00 00 00 00	 call	 ?CheckBuf@CAr@@QAEXI@Z	; CAr::CheckBuf

; 257  : 	*(UNALIGNED T*)m_lpBufCur = t;

  0000d	8b 56 08	 mov	 edx, DWORD PTR [esi+8]
  00010	8b 45 08	 mov	 eax, DWORD PTR _t$[ebp]
  00013	8b 00		 mov	 eax, DWORD PTR [eax]
  00015	89 02		 mov	 DWORD PTR [edx], eax

; 258  : 	m_lpBufCur += sizeof(T);
; 259  : 	return *this;

  00017	8b c6		 mov	 eax, esi
  00019	83 46 08 04	 add	 DWORD PTR [esi+8], 4
  0001d	5e		 pop	 esi

; 260  : }

  0001e	5d		 pop	 ebp
  0001f	c2 04 00	 ret	 4
??$?6J@CAr@@QAEAAV0@ABJ@Z ENDP				; CAr::operator<<<long>
_TEXT	ENDS
; Function compile flags: /Ogtp
; File C:\IAGOS\server\v18\Source\Source\_Network\Misc\Include\Ar.h
;	COMDAT ??$?6H@CAr@@QAEAAV0@ABH@Z
_TEXT	SEGMENT
_t$ = 8							; size = 4
??$?6H@CAr@@QAEAAV0@ABH@Z PROC				; CAr::operator<<<int>, COMDAT
; _this$ = ecx

; 255  : {

  00000	55		 push	 ebp
  00001	8b ec		 mov	 ebp, esp
  00003	56		 push	 esi

; 256  : 	CheckBuf(sizeof(T));

  00004	6a 04		 push	 4
  00006	8b f1		 mov	 esi, ecx
  00008	e8 00 00 00 00	 call	 ?CheckBuf@CAr@@QAEXI@Z	; CAr::CheckBuf

; 257  : 	*(UNALIGNED T*)m_lpBufCur = t;

  0000d	8b 56 08	 mov	 edx, DWORD PTR [esi+8]
  00010	8b 45 08	 mov	 eax, DWORD PTR _t$[ebp]
  00013	8b 00		 mov	 eax, DWORD PTR [eax]
  00015	89 02		 mov	 DWORD PTR [edx], eax

; 258  : 	m_lpBufCur += sizeof(T);
; 259  : 	return *this;

  00017	8b c6		 mov	 eax, esi
  00019	83 46 08 04	 add	 DWORD PTR [esi+8], 4
  0001d	5e		 pop	 esi

; 260  : }

  0001e	5d		 pop	 ebp
  0001f	c2 04 00	 ret	 4
??$?6H@CAr@@QAEAAV0@ABH@Z ENDP				; CAr::operator<<<int>
_TEXT	ENDS
; Function compile flags: /Ogtp
;	COMDAT ??_GCPocketController@@UAEPAXI@Z
_TEXT	SEGMENT
___flags$ = 8						; size = 4
??_GCPocketController@@UAEPAXI@Z PROC			; CPocketController::`scalar deleting destructor', COMDAT
; _this$ = ecx
  00000	55		 push	 ebp
  00001	8b ec		 mov	 ebp, esp
  00003	56		 push	 esi
  00004	8b f1		 mov	 esi, ecx
  00006	e8 00 00 00 00	 call	 ??1CPocketController@@UAE@XZ ; CPocketController::~CPocketController
  0000b	f6 45 08 01	 test	 BYTE PTR ___flags$[ebp], 1
  0000f	74 0b		 je	 SHORT $LN5@scalar
  00011	6a 10		 push	 16			; 00000010H
  00013	56		 push	 esi
  00014	e8 00 00 00 00	 call	 ??3@YAXPAXI@Z		; operator delete
  00019	83 c4 08	 add	 esp, 8
$LN5@scalar:
  0001c	8b c6		 mov	 eax, esi
  0001e	5e		 pop	 esi
  0001f	5d		 pop	 ebp
  00020	c2 04 00	 ret	 4
??_GCPocketController@@UAEPAXI@Z ENDP			; CPocketController::`scalar deleting destructor'
_TEXT	ENDS
; Function compile flags: /Ogtp
; File C:\IAGOS\server\v18\Source\Source\_Common\pocket.cpp
; File C:\IAGOS\server\v18\Source\Source\_Common\pocket.h
; File C:\IAGOS\server\v18\Source\Source\_Common\pocket.cpp
;	COMDAT ?GetPocket@CPocketController@@QAEPAVCPocket@@H@Z
_TEXT	SEGMENT
_nPocket$ = 8						; size = 4
?GetPocket@CPocketController@@QAEPAVCPocket@@H@Z PROC	; CPocketController::GetPocket, COMDAT
; _this$ = ecx

; 341  : {

  00000	55		 push	 ebp
  00001	8b ec		 mov	 ebp, esp
; File C:\IAGOS\server\v18\Source\Source\_Common\pocket.h

; 70   : 		{	return( m_apPocket[nPocket] && ( !bExpiration || !m_apPocket[nPocket]->IsExpired() ) );		}

  00003	8b 45 08	 mov	 eax, DWORD PTR _nPocket$[ebp]
  00006	8b 44 81 04	 mov	 eax, DWORD PTR [ecx+eax*4+4]
; File C:\IAGOS\server\v18\Source\Source\_Common\pocket.cpp

; 345  : }

  0000a	5d		 pop	 ebp
  0000b	c2 04 00	 ret	 4
?GetPocket@CPocketController@@QAEPAVCPocket@@H@Z ENDP	; CPocketController::GetPocket
_TEXT	ENDS
; Function compile flags: /Ogtp
; File C:\IAGOS\server\v18\Source\Source\_Common\pocket.cpp
; File C:\IAGOS\server\v18\Source\Source\_Network\Misc\Include\Ar.h
; File C:\IAGOS\server\v18\Source\Source\_Common\pocket.cpp
; File C:\IAGOS\server\v18\Source\Source\_Network\Misc\Include\Ar.h
; File C:\IAGOS\server\v18\Source\Source\_Common\pocket.cpp
; File C:\IAGOS\server\v18\Source\Source\_Common\pocket.h
; File C:\IAGOS\server\v18\Source\Source\_Common\pocket.cpp
;	COMDAT ?Serialize@CPocketController@@QAEXAAVCAr@@@Z
_TEXT	SEGMENT
_this$1$ = -4						; size = 4
_ar$ = 8						; size = 4
$T1 = 11						; size = 1
$T2 = 11						; size = 1
_bExists$3 = 11						; size = 1
?Serialize@CPocketController@@QAEXAAVCAr@@@Z PROC	; CPocketController::Serialize, COMDAT
; _this$ = ecx

; 311  : {

  00000	55		 push	 ebp
  00001	8b ec		 mov	 ebp, esp
  00003	51		 push	 ecx
  00004	53		 push	 ebx
; File C:\IAGOS\server\v18\Source\Source\_Network\Misc\Include\Ar.h

; 146  : 	return (m_nMode & CAr::load) == 0;

  00005	8b 5d 08	 mov	 ebx, DWORD PTR _ar$[ebp]
; File C:\IAGOS\server\v18\Source\Source\_Common\pocket.cpp

; 311  : {

  00008	8b c1		 mov	 eax, ecx
  0000a	56		 push	 esi
  0000b	57		 push	 edi
  0000c	89 45 fc	 mov	 DWORD PTR _this$1$[ebp], eax
; File C:\IAGOS\server\v18\Source\Source\_Network\Misc\Include\Ar.h

; 146  : 	return (m_nMode & CAr::load) == 0;

  0000f	f6 03 01	 test	 BYTE PTR [ebx], 1
  00012	8d 70 04	 lea	 esi, DWORD PTR [eax+4]
; File C:\IAGOS\server\v18\Source\Source\_Common\pocket.cpp

; 312  : 	if( ar.IsStoring() )

  00015	75 41		 jne	 SHORT $LN8@Serialize

; 313  : 	{
; 314  : 		for( int i = 0; i < MAX_POCKET; i++ )

  00017	bf 03 00 00 00	 mov	 edi, 3
  0001c	0f 1f 40 00	 npad	 4
$LL4@Serialize:
; File C:\IAGOS\server\v18\Source\Source\_Common\pocket.h

; 70   : 		{	return( m_apPocket[nPocket] && ( !bExpiration || !m_apPocket[nPocket]->IsExpired() ) );		}

  00020	83 3e 00	 cmp	 DWORD PTR [esi], 0
  00023	8d 45 0b	 lea	 eax, DWORD PTR $T1[ebp]
  00026	8b cb		 mov	 ecx, ebx
  00028	50		 push	 eax
  00029	74 13		 je	 SHORT $LN10@Serialize
; File C:\IAGOS\server\v18\Source\Source\_Common\pocket.cpp

; 318  : 				ar << (BYTE)1;

  0002b	c6 45 0b 01	 mov	 BYTE PTR $T1[ebp], 1
  0002f	e8 00 00 00 00	 call	 ??$?6E@CAr@@QAEAAV0@ABE@Z ; CAr::operator<<<unsigned char>

; 319  : 				m_apPocket[i]->Serialize( ar );

  00034	8b 0e		 mov	 ecx, DWORD PTR [esi]
  00036	53		 push	 ebx
  00037	e8 00 00 00 00	 call	 ?Serialize@CPocket@@QAEXAAVCAr@@@Z ; CPocket::Serialize

; 320  : 			}

  0003c	eb 09		 jmp	 SHORT $LN2@Serialize
$LN10@Serialize:

; 321  : 			else
; 322  : 				ar << (BYTE)0;

  0003e	c6 45 0b 00	 mov	 BYTE PTR $T2[ebp], 0
  00042	e8 00 00 00 00	 call	 ??$?6E@CAr@@QAEAAV0@ABE@Z ; CAr::operator<<<unsigned char>
$LN2@Serialize:

; 313  : 	{
; 314  : 		for( int i = 0; i < MAX_POCKET; i++ )

  00047	83 c6 04	 add	 esi, 4
  0004a	83 ef 01	 sub	 edi, 1
  0004d	75 d1		 jne	 SHORT $LL4@Serialize

; 336  : 		}
; 337  : 	}
; 338  : }

  0004f	5f		 pop	 edi
  00050	5e		 pop	 esi
  00051	5b		 pop	 ebx
  00052	8b e5		 mov	 esp, ebp
  00054	5d		 pop	 ebp
  00055	c2 04 00	 ret	 4
$LN8@Serialize:

; 323  : 		}
; 324  : 	}
; 325  : 	else
; 326  : 	{
; 327  : 		Clear();

  00058	e8 00 00 00 00	 call	 ?Clear@CPocketController@@QAEXXZ ; CPocketController::Clear
  0005d	33 ff		 xor	 edi, edi
  0005f	90		 npad	 1
$LL7@Serialize:

; 329  : 		{
; 330  : 			BYTE bExists;
; 331  : 			ar >> bExists;

  00060	8d 45 0b	 lea	 eax, DWORD PTR _bExists$3[ebp]
  00063	8b cb		 mov	 ecx, ebx
  00065	50		 push	 eax
  00066	e8 00 00 00 00	 call	 ??$?5E@CAr@@QAEAAV0@AAE@Z ; CAr::operator>><unsigned char>

; 332  : 			if( !bExists )

  0006b	80 7d 0b 00	 cmp	 BYTE PTR _bExists$3[ebp], 0
  0006f	74 13		 je	 SHORT $LN5@Serialize

; 333  : 				continue;
; 334  : 			Avail( i );

  00071	8b 4d fc	 mov	 ecx, DWORD PTR _this$1$[ebp]
  00074	6a 00		 push	 0
  00076	57		 push	 edi
  00077	e8 00 00 00 00	 call	 ?Avail@CPocketController@@QAEXHJ@Z ; CPocketController::Avail

; 335  : 			m_apPocket[i]->Serialize( ar );

  0007c	8b 0e		 mov	 ecx, DWORD PTR [esi]
  0007e	53		 push	 ebx
  0007f	e8 00 00 00 00	 call	 ?Serialize@CPocket@@QAEXAAVCAr@@@Z ; CPocket::Serialize
$LN5@Serialize:

; 328  : 		for( int i = 0; i < MAX_POCKET; i++ )

  00084	47		 inc	 edi
  00085	83 c6 04	 add	 esi, 4
  00088	83 ff 03	 cmp	 edi, 3
  0008b	7c d3		 jl	 SHORT $LL7@Serialize

; 336  : 		}
; 337  : 	}
; 338  : }

  0008d	5f		 pop	 edi
  0008e	5e		 pop	 esi
  0008f	5b		 pop	 ebx
  00090	8b e5		 mov	 esp, ebp
  00092	5d		 pop	 ebp
  00093	c2 04 00	 ret	 4
?Serialize@CPocketController@@QAEXAAVCAr@@@Z ENDP	; CPocketController::Serialize
_TEXT	ENDS
; Function compile flags: /Ogtp
; File C:\IAGOS\server\v18\Source\Source\_Common\pocket.cpp
; File C:\IAGOS\server\v18\Source\Source\_Common\pocket.h
; File C:\IAGOS\server\v18\Source\Source\_Common\pocket.cpp
;	COMDAT ?Copy@CPocketController@@QAEXAAV1@@Z
_TEXT	SEGMENT
_rPocketController$ = 8					; size = 4
tv236 = 8						; size = 4
?Copy@CPocketController@@QAEXAAV1@@Z PROC		; CPocketController::Copy, COMDAT
; _this$ = ecx

; 298  : {

  00000	55		 push	 ebp
  00001	8b ec		 mov	 ebp, esp
  00003	53		 push	 ebx
  00004	56		 push	 esi
  00005	57		 push	 edi
  00006	8b d9		 mov	 ebx, ecx

; 299  : 	Clear();

  00008	e8 00 00 00 00	 call	 ?Clear@CPocketController@@QAEXXZ ; CPocketController::Clear
  0000d	8b 45 08	 mov	 eax, DWORD PTR _rPocketController$[ebp]
  00010	8b cb		 mov	 ecx, ebx
  00012	33 ff		 xor	 edi, edi
  00014	2b c8		 sub	 ecx, eax
  00016	89 4d 08	 mov	 DWORD PTR tv236[ebp], ecx
  00019	8d 70 04	 lea	 esi, DWORD PTR [eax+4]
  0001c	0f 1f 40 00	 npad	 4
$LL4@Copy:
; File C:\IAGOS\server\v18\Source\Source\_Common\pocket.h

; 70   : 		{	return( m_apPocket[nPocket] && ( !bExpiration || !m_apPocket[nPocket]->IsExpired() ) );		}

  00020	83 3e 00	 cmp	 DWORD PTR [esi], 0
  00023	74 17		 je	 SHORT $LN2@Copy
; File C:\IAGOS\server\v18\Source\Source\_Common\pocket.cpp

; 304  : 			Avail( i );

  00025	6a 00		 push	 0
  00027	57		 push	 edi
  00028	8b cb		 mov	 ecx, ebx
  0002a	e8 00 00 00 00	 call	 ?Avail@CPocketController@@QAEXHJ@Z ; CPocketController::Avail

; 305  : 			m_apPocket[i]->Copy( *rPocketController.m_apPocket[i] );

  0002f	8b 45 08	 mov	 eax, DWORD PTR tv236[ebp]
  00032	ff 36		 push	 DWORD PTR [esi]
  00034	8b 0c 30	 mov	 ecx, DWORD PTR [eax+esi]
  00037	e8 00 00 00 00	 call	 ?Copy@CPocket@@QAEXAAV1@@Z ; CPocket::Copy
$LN2@Copy:

; 300  : 	for( int i = 0; i < MAX_POCKET; i++ )

  0003c	47		 inc	 edi
  0003d	83 c6 04	 add	 esi, 4
  00040	83 ff 03	 cmp	 edi, 3
  00043	7c db		 jl	 SHORT $LL4@Copy
  00045	5f		 pop	 edi
  00046	5e		 pop	 esi
  00047	5b		 pop	 ebx

; 306  : 		}
; 307  : 	}
; 308  : }

  00048	5d		 pop	 ebp
  00049	c2 04 00	 ret	 4
?Copy@CPocketController@@QAEXAAV1@@Z ENDP		; CPocketController::Copy
_TEXT	ENDS
; Function compile flags: /Ogtp
; File C:\IAGOS\server\v18\Source\Source\_Common\pocket.cpp
; File C:\Program Files (x86)\Windows Kits\10\Include\10.0.26100.0\ucrt\time.h
; File C:\IAGOS\server\v18\Source\Source\_Common\pocket.cpp
; File C:\Program Files (x86)\Windows Kits\10\Include\10.0.26100.0\ucrt\time.h
; File C:\IAGOS\server\v18\Source\Source\_Common\pocket.cpp
; File C:\Program Files (x86)\Windows Kits\10\Include\10.0.26100.0\ucrt\time.h
; File C:\IAGOS\server\v18\Source\Source\_Common\pocket.cpp
; File C:\IAGOS\server\v18\Source\Source\_Common\pocket.h
; File C:\IAGOS\server\v18\Source\Source\_Common\pocket.cpp
; File C:\IAGOS\server\v18\Source\Source\_Common\pocket.h
; File C:\IAGOS\server\v18\Source\Source\_Common\pocket.cpp
;	COMDAT ?Avail@CPocketController@@QAEXHJ@Z
_TEXT	SEGMENT
_nPocket$ = 8						; size = 4
$T1 = 8							; size = 4
_t$ = 12						; size = 4
?Avail@CPocketController@@QAEXHJ@Z PROC			; CPocketController::Avail, COMDAT
; _this$ = ecx

; 77   : {

  00000	55		 push	 ebp
  00001	8b ec		 mov	 ebp, esp
  00003	53		 push	 ebx
  00004	56		 push	 esi
  00005	57		 push	 edi
; File C:\Program Files (x86)\Windows Kits\10\Include\10.0.26100.0\ucrt\time.h

; 428  :             return _time32(_Time);

  00006	6a 00		 push	 0
; File C:\IAGOS\server\v18\Source\Source\_Common\pocket.cpp

; 77   : {

  00008	8b f1		 mov	 esi, ecx
; File C:\Program Files (x86)\Windows Kits\10\Include\10.0.26100.0\ucrt\time.h

; 428  :             return _time32(_Time);

  0000a	e8 00 00 00 00	 call	 __time32
; File C:\IAGOS\server\v18\Source\Source\_Common\pocket.cpp

; 79   : 	if( m_apPocket[nPocket] )

  0000f	8b 5d 08	 mov	 ebx, DWORD PTR _nPocket$[ebp]
; File C:\Program Files (x86)\Windows Kits\10\Include\10.0.26100.0\ucrt\time.h

; 428  :             return _time32(_Time);

  00012	83 c4 04	 add	 esp, 4
; File C:\IAGOS\server\v18\Source\Source\_Common\pocket.cpp

; 78   : 	time_t tCurrent		= time_null();

  00015	8b f8		 mov	 edi, eax

; 79   : 	if( m_apPocket[nPocket] )

  00017	8b 4c 9e 04	 mov	 ecx, DWORD PTR [esi+ebx*4+4]
  0001b	85 c9		 test	 ecx, ecx
  0001d	74 16		 je	 SHORT $LN2@Avail

; 80   : 	{
; 81   : 		if( m_apPocket[nPocket]->IsExpired() )

  0001f	83 79 14 00	 cmp	 DWORD PTR [ecx+20], 0
  00023	8b 55 0c	 mov	 edx, DWORD PTR _t$[ebp]
  00026	74 08		 je	 SHORT $LN4@Avail

; 82   : 			m_apPocket[nPocket]->SetExpirationDate( tCurrent + t );

  00028	8d 04 17	 lea	 eax, DWORD PTR [edi+edx]
  0002b	89 41 18	 mov	 DWORD PTR [ecx+24], eax
  0002e	eb 4d		 jmp	 SHORT $LN3@Avail
$LN4@Avail:

; 83   : 		else
; 84   : 			m_apPocket[nPocket]->SetExpirationDate( m_apPocket[nPocket]->GetExpirationDate() + t );

  00030	01 51 18	 add	 DWORD PTR [ecx+24], edx

; 85   : 	}

  00033	eb 48		 jmp	 SHORT $LN3@Avail
$LN2@Avail:

; 86   : 	else
; 87   : 	{
; 88   : 		m_apPocket[nPocket]		= new CPocket;

  00035	6a 1c		 push	 28			; 0000001cH
  00037	e8 00 00 00 00	 call	 ??2@YAPAXI@Z		; operator new
  0003c	83 c4 04	 add	 esp, 4
  0003f	89 45 08	 mov	 DWORD PTR $T1[ebp], eax
  00042	85 c0		 test	 eax, eax
  00044	74 0b		 je	 SHORT $LN8@Avail
  00046	8b c8		 mov	 ecx, eax
  00048	e8 00 00 00 00	 call	 ??0CPocket@@QAE@XZ	; CPocket::CPocket
  0004d	8b c8		 mov	 ecx, eax
  0004f	eb 02		 jmp	 SHORT $LN9@Avail
$LN8@Avail:
  00051	33 c9		 xor	 ecx, ecx
$LN9@Avail:

; 89   : 		m_apPocket[nPocket]->SetItemContainer( 0, nPocket == 0? POCKET_SLOT_SIZE_0: POCKET_SLOT_SIZE_1_2 );

  00053	85 db		 test	 ebx, ebx
  00055	89 4c 9e 04	 mov	 DWORD PTR [esi+ebx*4+4], ecx
  00059	ba 06 00 00 00	 mov	 edx, 6
  0005e	b8 18 00 00 00	 mov	 eax, 24			; 00000018H
  00063	6a ff		 push	 -1
  00065	0f 44 c2	 cmove	 eax, edx
  00068	50		 push	 eax
  00069	6a 00		 push	 0
  0006b	e8 00 00 00 00	 call	 ?SetItemContainer@?$CItemContainer@VCItemElem@@@@QAEXKKK@Z ; CItemContainer<CItemElem>::SetItemContainer

; 90   : 		m_apPocket[nPocket]->SetExpirationDate( tCurrent + t );

  00070	8b 55 0c	 mov	 edx, DWORD PTR _t$[ebp]
; File C:\IAGOS\server\v18\Source\Source\_Common\pocket.h

; 20   : 	void	SetExpirationDate( time_t tExpirationDate )	{	m_tExpirationDate	= tExpirationDate;		}

  00073	8b 44 9e 04	 mov	 eax, DWORD PTR [esi+ebx*4+4]
; File C:\IAGOS\server\v18\Source\Source\_Common\pocket.cpp

; 90   : 		m_apPocket[nPocket]->SetExpirationDate( tCurrent + t );

  00077	8d 0c 17	 lea	 ecx, DWORD PTR [edi+edx]
; File C:\IAGOS\server\v18\Source\Source\_Common\pocket.h

; 20   : 	void	SetExpirationDate( time_t tExpirationDate )	{	m_tExpirationDate	= tExpirationDate;		}

  0007a	89 48 18	 mov	 DWORD PTR [eax+24], ecx
$LN3@Avail:
; File C:\IAGOS\server\v18\Source\Source\_Common\pocket.cpp

; 92   : 	m_apPocket[nPocket]->SetExpired( FALSE );

  0007d	8b 44 9e 04	 mov	 eax, DWORD PTR [esi+ebx*4+4]
  00081	c7 40 14 00 00
	00 00		 mov	 DWORD PTR [eax+20], 0

; 93   : 
; 94   : 	if( t == 0 )

  00088	85 d2		 test	 edx, edx
  0008a	75 07		 jne	 SHORT $LN6@Avail

; 95   : 		m_apPocket[nPocket]->SetExpirationDate( 0 );

  0008c	8b 44 9e 04	 mov	 eax, DWORD PTR [esi+ebx*4+4]
  00090	89 50 18	 mov	 DWORD PTR [eax+24], edx
$LN6@Avail:

; 96   : }

  00093	5f		 pop	 edi
  00094	5e		 pop	 esi
  00095	5b		 pop	 ebx
  00096	5d		 pop	 ebp
  00097	c2 08 00	 ret	 8
?Avail@CPocketController@@QAEXHJ@Z ENDP			; CPocketController::Avail
_TEXT	ENDS
; Function compile flags: /Ogtp
; File C:\IAGOS\server\v18\Source\Source\_Common\pocket.cpp
;	COMDAT ?Clear@CPocketController@@QAEXXZ
_TEXT	SEGMENT
?Clear@CPocketController@@QAEXXZ PROC			; CPocketController::Clear, COMDAT
; _this$ = ecx

; 71   : {

  00000	56		 push	 esi
  00001	57		 push	 edi

; 72   : 	for( int i = 0; i < MAX_POCKET; i++ )

  00002	8d 71 04	 lea	 esi, DWORD PTR [ecx+4]
  00005	bf 03 00 00 00	 mov	 edi, 3
  0000a	66 0f 1f 44 00
	00		 npad	 6
$LL4@Clear:

; 73   : 		SAFE_DELETE( m_apPocket[i] );

  00010	8b 0e		 mov	 ecx, DWORD PTR [esi]
  00012	85 c9		 test	 ecx, ecx
  00014	74 0c		 je	 SHORT $LN2@Clear
  00016	8b 01		 mov	 eax, DWORD PTR [ecx]
  00018	6a 01		 push	 1
  0001a	ff 10		 call	 DWORD PTR [eax]
  0001c	c7 06 00 00 00
	00		 mov	 DWORD PTR [esi], 0
$LN2@Clear:

; 72   : 	for( int i = 0; i < MAX_POCKET; i++ )

  00022	83 c6 04	 add	 esi, 4
  00025	83 ef 01	 sub	 edi, 1
  00028	75 e6		 jne	 SHORT $LL4@Clear
  0002a	5f		 pop	 edi
  0002b	5e		 pop	 esi

; 74   : }

  0002c	c3		 ret	 0
?Clear@CPocketController@@QAEXXZ ENDP			; CPocketController::Clear
_TEXT	ENDS
; Function compile flags: /Ogtp
; File C:\IAGOS\server\v18\Source\Source\_Common\pocket.cpp
;	COMDAT ??1CPocketController@@UAE@XZ
_TEXT	SEGMENT
??1CPocketController@@UAE@XZ PROC			; CPocketController::~CPocketController, COMDAT
; _this$ = ecx

; 66   : {

  00000	c7 01 00 00 00
	00		 mov	 DWORD PTR [ecx], OFFSET ??_7CPocketController@@6B@

; 67   : 	Clear();

  00006	e9 00 00 00 00	 jmp	 ?Clear@CPocketController@@QAEXXZ ; CPocketController::Clear
??1CPocketController@@UAE@XZ ENDP			; CPocketController::~CPocketController
_TEXT	ENDS
; Function compile flags: /Ogtp
; File C:\IAGOS\server\v18\Source\Source\_Common\pocket.cpp
;	COMDAT ??0CPocketController@@QAE@XZ
_TEXT	SEGMENT
??0CPocketController@@QAE@XZ PROC			; CPocketController::CPocketController, COMDAT
; _this$ = ecx

; 55   : {

  00000	56		 push	 esi
  00001	8b f1		 mov	 esi, ecx
  00003	0f 57 c0	 xorps	 xmm0, xmm0

; 56   : #ifdef __WORLDSERVER
; 57   : 	m_pMover	= NULL;
; 58   : #endif	// __WORLDSERVER
; 59   : 	memset( m_apPocket, 0, sizeof(m_apPocket) );
; 60   : #ifndef __OPT_MEM_0811
; 61   : 	Avail( 0 );

  00006	6a 00		 push	 0
  00008	6a 00		 push	 0
  0000a	c7 06 00 00 00
	00		 mov	 DWORD PTR [esi], OFFSET ??_7CPocketController@@6B@
  00010	66 0f d6 46 04	 movq	 QWORD PTR [esi+4], xmm0
  00015	c7 46 0c 00 00
	00 00		 mov	 DWORD PTR [esi+12], 0
  0001c	e8 00 00 00 00	 call	 ?Avail@CPocketController@@QAEXHJ@Z ; CPocketController::Avail

; 62   : #endif	// __OPT_MEM_0811
; 63   : }

  00021	8b c6		 mov	 eax, esi
  00023	5e		 pop	 esi
  00024	c3		 ret	 0
??0CPocketController@@QAE@XZ ENDP			; CPocketController::CPocketController
_TEXT	ENDS
; Function compile flags: /Ogtp
;	COMDAT ??_GCPocket@@UAEPAXI@Z
_TEXT	SEGMENT
___flags$ = 8						; size = 4
??_GCPocket@@UAEPAXI@Z PROC				; CPocket::`scalar deleting destructor', COMDAT
; _this$ = ecx
  00000	55		 push	 ebp
  00001	8b ec		 mov	 ebp, esp
  00003	56		 push	 esi
  00004	8b f1		 mov	 esi, ecx
  00006	e8 00 00 00 00	 call	 ??1CPocket@@UAE@XZ	; CPocket::~CPocket
  0000b	f6 45 08 01	 test	 BYTE PTR ___flags$[ebp], 1
  0000f	74 0b		 je	 SHORT $LN5@scalar
  00011	6a 1c		 push	 28			; 0000001cH
  00013	56		 push	 esi
  00014	e8 00 00 00 00	 call	 ??3@YAXPAXI@Z		; operator delete
  00019	83 c4 08	 add	 esp, 8
$LN5@scalar:
  0001c	8b c6		 mov	 eax, esi
  0001e	5e		 pop	 esi
  0001f	5d		 pop	 ebp
  00020	c2 04 00	 ret	 4
??_GCPocket@@UAEPAXI@Z ENDP				; CPocket::`scalar deleting destructor'
_TEXT	ENDS
; Function compile flags: /Ogtp
; File C:\IAGOS\server\v18\Source\Source\_Common\pocket.cpp
; File C:\IAGOS\server\v18\Source\Source\_Network\Misc\Include\Ar.h
; File C:\IAGOS\server\v18\Source\Source\_Common\pocket.cpp
; File C:\IAGOS\server\v18\Source\Source\_Network\Misc\Include\Ar.h
; File C:\IAGOS\server\v18\Source\Source\_Common\pocket.cpp
; File C:\Program Files (x86)\Windows Kits\10\Include\10.0.26100.0\ucrt\time.h
; File C:\IAGOS\server\v18\Source\Source\_Common\pocket.cpp
; File C:\Program Files (x86)\Windows Kits\10\Include\10.0.26100.0\ucrt\time.h
; File C:\IAGOS\server\v18\Source\Source\_Common\pocket.cpp
;	COMDAT ?Serialize@CPocket@@QAEXAAVCAr@@@Z
_TEXT	SEGMENT
_ar$ = 8						; size = 4
_t$1 = 8						; size = 4
_t$2 = 8						; size = 4
?Serialize@CPocket@@QAEXAAVCAr@@@Z PROC			; CPocket::Serialize, COMDAT
; _this$ = ecx

; 29   : {

  00000	55		 push	 ebp
  00001	8b ec		 mov	 ebp, esp
  00003	53		 push	 ebx
  00004	56		 push	 esi
  00005	57		 push	 edi

; 30   : 	CItemContainer<CItemElem>::Serialize( ar );

  00006	8b 7d 08	 mov	 edi, DWORD PTR _ar$[ebp]
  00009	8b f1		 mov	 esi, ecx
  0000b	57		 push	 edi
  0000c	e8 00 00 00 00	 call	 ?Serialize@?$CItemContainer@VCItemElem@@@@QAEXAAVCAr@@@Z ; CItemContainer<CItemElem>::Serialize
; File C:\IAGOS\server\v18\Source\Source\_Network\Misc\Include\Ar.h

; 146  : 	return (m_nMode & CAr::load) == 0;

  00011	8d 5e 18	 lea	 ebx, DWORD PTR [esi+24]
; File C:\IAGOS\server\v18\Source\Source\_Common\pocket.cpp

; 31   : 	if( ar.IsStoring() )

  00014	8b cf		 mov	 ecx, edi
; File C:\IAGOS\server\v18\Source\Source\_Network\Misc\Include\Ar.h

; 146  : 	return (m_nMode & CAr::load) == 0;

  00016	83 c6 14	 add	 esi, 20			; 00000014H
  00019	f6 07 01	 test	 BYTE PTR [edi], 1
; File C:\IAGOS\server\v18\Source\Source\_Common\pocket.cpp

; 31   : 	if( ar.IsStoring() )

  0001c	53		 push	 ebx
  0001d	56		 push	 esi
  0001e	75 34		 jne	 SHORT $LN2@Serialize

; 32   : 	{
; 33   : 		ar << m_bExpired << m_tExpirationDate;

  00020	e8 00 00 00 00	 call	 ??$?6H@CAr@@QAEAAV0@ABH@Z ; CAr::operator<<<int>
  00025	8b c8		 mov	 ecx, eax
  00027	e8 00 00 00 00	 call	 ??$?6J@CAr@@QAEAAV0@ABJ@Z ; CAr::operator<<<long>

; 34   : 		if( m_tExpirationDate )

  0002c	83 3b 00	 cmp	 DWORD PTR [ebx], 0
  0002f	74 3f		 je	 SHORT $LN5@Serialize
; File C:\Program Files (x86)\Windows Kits\10\Include\10.0.26100.0\ucrt\time.h

; 428  :             return _time32(_Time);

  00031	6a 00		 push	 0
  00033	e8 00 00 00 00	 call	 __time32
; File C:\IAGOS\server\v18\Source\Source\_Common\pocket.cpp

; 36   : 			time_t	t	= m_tExpirationDate - time_null();

  00038	8b 13		 mov	 edx, DWORD PTR [ebx]
; File C:\Program Files (x86)\Windows Kits\10\Include\10.0.26100.0\ucrt\time.h

; 428  :             return _time32(_Time);

  0003a	83 c4 04	 add	 esp, 4
; File C:\IAGOS\server\v18\Source\Source\_Common\pocket.cpp

; 36   : 			time_t	t	= m_tExpirationDate - time_null();

  0003d	2b d0		 sub	 edx, eax

; 37   : 			ar << t;

  0003f	8b cf		 mov	 ecx, edi
  00041	8d 45 08	 lea	 eax, DWORD PTR _t$1[ebp]
  00044	89 55 08	 mov	 DWORD PTR _t$1[ebp], edx
  00047	50		 push	 eax
  00048	e8 00 00 00 00	 call	 ??$?6J@CAr@@QAEAAV0@ABJ@Z ; CAr::operator<<<long>
  0004d	5f		 pop	 edi

; 47   : #ifdef __CLIENT
; 48   : 			m_tExpirationDate	= time_null() + t;
; 49   : #endif	// __CLIENT
; 50   : 		}
; 51   : 	}
; 52   : }

  0004e	5e		 pop	 esi
  0004f	5b		 pop	 ebx
  00050	5d		 pop	 ebp
  00051	c2 04 00	 ret	 4
$LN2@Serialize:

; 38   : 		}
; 39   : 	}
; 40   : 	else
; 41   : 	{
; 42   : 		ar >> m_bExpired >> m_tExpirationDate;

  00054	e8 00 00 00 00	 call	 ??$?5H@CAr@@QAEAAV0@AAH@Z ; CAr::operator>><int>
  00059	8b c8		 mov	 ecx, eax
  0005b	e8 00 00 00 00	 call	 ??$?5J@CAr@@QAEAAV0@AAJ@Z ; CAr::operator>><long>

; 43   : 		if( m_tExpirationDate )

  00060	83 3b 00	 cmp	 DWORD PTR [ebx], 0
  00063	74 0b		 je	 SHORT $LN5@Serialize

; 44   : 		{
; 45   : 			time_t	t;
; 46   : 			ar >> t;

  00065	8d 45 08	 lea	 eax, DWORD PTR _t$2[ebp]
  00068	8b cf		 mov	 ecx, edi
  0006a	50		 push	 eax
  0006b	e8 00 00 00 00	 call	 ??$?5J@CAr@@QAEAAV0@AAJ@Z ; CAr::operator>><long>
$LN5@Serialize:

; 47   : #ifdef __CLIENT
; 48   : 			m_tExpirationDate	= time_null() + t;
; 49   : #endif	// __CLIENT
; 50   : 		}
; 51   : 	}
; 52   : }

  00070	5f		 pop	 edi
  00071	5e		 pop	 esi
  00072	5b		 pop	 ebx
  00073	5d		 pop	 ebp
  00074	c2 04 00	 ret	 4
?Serialize@CPocket@@QAEXAAVCAr@@@Z ENDP			; CPocket::Serialize
_TEXT	ENDS
; Function compile flags: /Ogtp
; File C:\IAGOS\server\v18\Source\Source\_Common\pocket.cpp
;	COMDAT ?Copy@CPocket@@QAEXAAV1@@Z
_TEXT	SEGMENT
_rPocket$ = 8						; size = 4
?Copy@CPocket@@QAEXAAV1@@Z PROC				; CPocket::Copy, COMDAT
; _this$ = ecx

; 22   : {

  00000	55		 push	 ebp
  00001	8b ec		 mov	 ebp, esp
  00003	56		 push	 esi

; 23   : 	CItemContainer<CItemElem>::Copy( rPocket );

  00004	8b 75 08	 mov	 esi, DWORD PTR _rPocket$[ebp]
  00007	57		 push	 edi
  00008	56		 push	 esi
  00009	8b f9		 mov	 edi, ecx
  0000b	e8 00 00 00 00	 call	 ?Copy@?$CItemContainer@VCItemElem@@@@QAEXAAV1@@Z ; CItemContainer<CItemElem>::Copy

; 24   : 	m_bExpired	= rPocket.IsExpired();

  00010	8b 46 14	 mov	 eax, DWORD PTR [esi+20]
  00013	89 47 14	 mov	 DWORD PTR [edi+20], eax

; 25   : 	m_tExpirationDate	= rPocket.GetExpirationDate();

  00016	8b 46 18	 mov	 eax, DWORD PTR [esi+24]
  00019	89 47 18	 mov	 DWORD PTR [edi+24], eax
  0001c	5f		 pop	 edi
  0001d	5e		 pop	 esi

; 26   : }

  0001e	5d		 pop	 ebp
  0001f	c2 04 00	 ret	 4
?Copy@CPocket@@QAEXAAV1@@Z ENDP				; CPocket::Copy
_TEXT	ENDS
; Function compile flags: /Ogtp
; File C:\IAGOS\server\v18\Source\Source\_Common\pocket.cpp
;	COMDAT ??1CPocket@@UAE@XZ
_TEXT	SEGMENT
??1CPocket@@UAE@XZ PROC					; CPocket::~CPocket, COMDAT
; _this$ = ecx

; 18   : {

  00000	c7 01 00 00 00
	00		 mov	 DWORD PTR [ecx], OFFSET ??_7CPocket@@6B@

; 19   : }

  00006	e9 00 00 00 00	 jmp	 ??1?$CItemContainer@VCItemElem@@@@UAE@XZ ; CItemContainer<CItemElem>::~CItemContainer<CItemElem>
??1CPocket@@UAE@XZ ENDP					; CPocket::~CPocket
_TEXT	ENDS
; Function compile flags: /Ogtp
; File C:\IAGOS\server\v18\Source\Source\_Common\pocket.cpp
;	COMDAT ??0CPocket@@QAE@XZ
_TEXT	SEGMENT
_this$ = -4						; size = 4
??0CPocket@@QAE@XZ PROC					; CPocket::CPocket, COMDAT
; _this$ = ecx

; 12   : {

  00000	55		 push	 ebp
  00001	8b ec		 mov	 ebp, esp
  00003	51		 push	 ecx
  00004	56		 push	 esi
  00005	8b f1		 mov	 esi, ecx
  00007	89 75 fc	 mov	 DWORD PTR _this$[ebp], esi
  0000a	e8 00 00 00 00	 call	 ??0?$CItemContainer@VCItemElem@@@@QAE@XZ ; CItemContainer<CItemElem>::CItemContainer<CItemElem>
  0000f	c7 06 00 00 00
	00		 mov	 DWORD PTR [esi], OFFSET ??_7CPocket@@6B@

; 13   : 	m_bExpired	= TRUE;
; 14   : 	m_tExpirationDate	= 0;
; 15   : }

  00015	8b c6		 mov	 eax, esi
  00017	c7 46 14 01 00
	00 00		 mov	 DWORD PTR [esi+20], 1
  0001e	c7 46 18 00 00
	00 00		 mov	 DWORD PTR [esi+24], 0
  00025	5e		 pop	 esi
  00026	8b e5		 mov	 esp, ebp
  00028	5d		 pop	 ebp
  00029	c3		 ret	 0
??0CPocket@@QAE@XZ ENDP					; CPocket::CPocket
_TEXT	ENDS
; Function compile flags: /Ogtp
;	COMDAT ??_G?$CItemContainer@VCItemElem@@@@UAEPAXI@Z
_TEXT	SEGMENT
___flags$ = 8						; size = 4
??_G?$CItemContainer@VCItemElem@@@@UAEPAXI@Z PROC	; CItemContainer<CItemElem>::`scalar deleting destructor', COMDAT
; _this$ = ecx
  00000	55		 push	 ebp
  00001	8b ec		 mov	 ebp, esp
  00003	56		 push	 esi
  00004	8b f1		 mov	 esi, ecx
  00006	e8 00 00 00 00	 call	 ??1?$CItemContainer@VCItemElem@@@@UAE@XZ ; CItemContainer<CItemElem>::~CItemContainer<CItemElem>
  0000b	f6 45 08 01	 test	 BYTE PTR ___flags$[ebp], 1
  0000f	74 0b		 je	 SHORT $LN5@scalar
  00011	6a 14		 push	 20			; 00000014H
  00013	56		 push	 esi
  00014	e8 00 00 00 00	 call	 ??3@YAXPAXI@Z		; operator delete
  00019	83 c4 08	 add	 esp, 8
$LN5@scalar:
  0001c	8b c6		 mov	 eax, esi
  0001e	5e		 pop	 esi
  0001f	5d		 pop	 ebp
  00020	c2 04 00	 ret	 4
??_G?$CItemContainer@VCItemElem@@@@UAEPAXI@Z ENDP	; CItemContainer<CItemElem>::`scalar deleting destructor'
_TEXT	ENDS
; Function compile flags: /Ogtp
; File C:\IAGOS\server\v18\Source\Source\_Network\Objects\Obj.h
; File C:\IAGOS\server\v18\Source\Source\_Network\Misc\Include\Ar.h
; File C:\IAGOS\server\v18\Source\Source\_Network\Objects\Obj.h
; File C:\IAGOS\server\v18\Source\Source\_Network\Misc\Include\Ar.h
; File C:\IAGOS\server\v18\Source\Source\_Network\Objects\Obj.h
; File C:\IAGOS\server\v18\Source\Source\_Network\Misc\Include\Ar.h
; File C:\IAGOS\server\v18\Source\Source\_Network\Objects\Obj.h
;	COMDAT ?Serialize@?$CItemContainer@VCItemElem@@@@QAEXAAVCAr@@@Z
_TEXT	SEGMENT
_nBufSize$1 = -532					; size = 4
tv623 = -528						; size = 4
_uOffset$1$ = -524					; size = 4
_ar$GSCopy$1$ = -524					; size = 4
$T2 = -520						; size = 1
_ch$3 = -519						; size = 1
$T4 = -519						; size = 1
_chSize$1$ = -518					; size = 1
_chSize$ = -517						; size = 1
_ch$5 = -517						; size = 1
_adwObjIndex$ = -516					; size = 512
__$ArrayPad$ = -4					; size = 4
_ar$ = 8						; size = 4
?Serialize@?$CItemContainer@VCItemElem@@@@QAEXAAVCAr@@@Z PROC ; CItemContainer<CItemElem>::Serialize, COMDAT
; _this$ = ecx

; 802  : {

  00000	55		 push	 ebp
  00001	8b ec		 mov	 ebp, esp
  00003	81 ec 14 02 00
	00		 sub	 esp, 532		; 00000214H
  00009	a1 00 00 00 00	 mov	 eax, DWORD PTR ___security_cookie
  0000e	33 c5		 xor	 eax, ebp
  00010	89 45 fc	 mov	 DWORD PTR __$ArrayPad$[ebp], eax
  00013	53		 push	 ebx
  00014	56		 push	 esi
  00015	8b f1		 mov	 esi, ecx

; 803  : //	for( int i = 0; i < m_dwItemMax; i++ )	// 462
; 804  : //		m_apItem[i].Serialize( ar );
; 805  : 	DWORD	adwObjIndex[128];
; 806  : 
; 807  : 	unsigned char chSize	= 0;

  00017	32 db		 xor	 bl, bl
  00019	57		 push	 edi
  0001a	8b 7d 08	 mov	 edi, DWORD PTR _ar$[ebp]
  0001d	89 bd f4 fd ff
	ff		 mov	 DWORD PTR _ar$GSCopy$1$[ebp], edi
; File C:\IAGOS\server\v18\Source\Source\_Network\Misc\Include\Ar.h

; 146  : 	return (m_nMode & CAr::load) == 0;

  00023	8b 46 10	 mov	 eax, DWORD PTR [esi+16]
  00026	8b 4e 04	 mov	 ecx, DWORD PTR [esi+4]
  00029	c1 e0 02	 shl	 eax, 2
  0002c	f6 07 01	 test	 BYTE PTR [edi], 1
; File C:\IAGOS\server\v18\Source\Source\_Network\Objects\Obj.h

; 809  : 	if( ar.IsStoring() )

  0002f	50		 push	 eax
  00030	51		 push	 ecx
  00031	88 9d fa fd ff
	ff		 mov	 BYTE PTR _chSize$1$[ebp], bl
  00037	8b cf		 mov	 ecx, edi
  00039	88 9d fb fd ff
	ff		 mov	 BYTE PTR _chSize$[ebp], bl
  0003f	0f 85 08 01 00
	00		 jne	 $LN14@Serialize

; 810  : 	{
; 811  : 		
; 812  : 		ar.Write( m_apIndex, sizeof(DWORD) * m_dwItemMax );

  00045	e8 00 00 00 00	 call	 ?Write@CAr@@QAEXPBXI@Z	; CAr::Write
; File C:\IAGOS\server\v18\Source\Source\_Network\Misc\Include\Ar.h

; 356  : 	return( m_lpBufCur - m_lpBufStart );

  0004a	8b 47 08	 mov	 eax, DWORD PTR [edi+8]
; File C:\IAGOS\server\v18\Source\Source\_Network\Objects\Obj.h

; 814  : 		ar << chSize;

  0004d	8b cf		 mov	 ecx, edi
; File C:\IAGOS\server\v18\Source\Source\_Network\Misc\Include\Ar.h

; 356  : 	return( m_lpBufCur - m_lpBufStart );

  0004f	2b 47 10	 sub	 eax, DWORD PTR [edi+16]
  00052	89 85 f4 fd ff
	ff		 mov	 DWORD PTR _uOffset$1$[ebp], eax
; File C:\IAGOS\server\v18\Source\Source\_Network\Objects\Obj.h

; 814  : 		ar << chSize;

  00058	8d 85 fb fd ff
	ff		 lea	 eax, DWORD PTR _chSize$[ebp]
  0005e	50		 push	 eax
  0005f	e8 00 00 00 00	 call	 ??$?6E@CAr@@QAEAAV0@ABE@Z ; CAr::operator<<<unsigned char>

; 815  : 
; 816  : 		for( u_char ch = 0; ch < m_dwItemMax; ch++ )	// 0-504

  00064	8b 56 10	 mov	 edx, DWORD PTR [esi+16]
  00067	88 9d fb fd ff
	ff		 mov	 BYTE PTR _ch$5[ebp], bl
  0006d	85 d2		 test	 edx, edx
  0006f	0f 84 98 00 00
	00		 je	 $LN3@Serialize
  00075	32 c9		 xor	 cl, cl
  00077	32 d2		 xor	 dl, dl
  00079	88 8d f8 fd ff
	ff		 mov	 BYTE PTR $T2[ebp], cl
  0007f	eb 06		 jmp	 SHORT $LN4@Serialize
$LL41@Serialize:
  00081	8a 95 f9 fd ff
	ff		 mov	 dl, BYTE PTR $T4[ebp]
$LN4@Serialize:

; 817  : 		{	
; 818  : 			if( m_apItem[ch].IsEmpty() == FALSE )

  00087	0f b6 c3	 movzx	 eax, bl

; 131  : 	BOOL	IsEmpty()	{	return m_dwItemId ? FALSE : TRUE;	}

  0008a	69 d8 98 00 00
	00		 imul	 ebx, eax, 152

; 817  : 		{	
; 818  : 			if( m_apItem[ch].IsEmpty() == FALSE )

  00090	89 85 f0 fd ff
	ff		 mov	 DWORD PTR tv623[ebp], eax
  00096	0f b6 c1	 movzx	 eax, cl
  00099	69 c8 98 00 00
	00		 imul	 ecx, eax, 152

; 131  : 	BOOL	IsEmpty()	{	return m_dwItemId ? FALSE : TRUE;	}

  0009f	8b 46 0c	 mov	 eax, DWORD PTR [esi+12]
  000a2	83 7c 01 08 00	 cmp	 DWORD PTR [ecx+eax+8], 0

; 817  : 		{	
; 818  : 			if( m_apItem[ch].IsEmpty() == FALSE )

  000a7	74 25		 je	 SHORT $LN40@Serialize

; 819  : 			{
; 820  : 				ar << ch;

  000a9	8d 85 fb fd ff
	ff		 lea	 eax, DWORD PTR _ch$5[ebp]
  000af	8b cf		 mov	 ecx, edi
  000b1	50		 push	 eax
  000b2	e8 00 00 00 00	 call	 ??$?6E@CAr@@QAEAAV0@ABE@Z ; CAr::operator<<<unsigned char>

; 821  : 				m_apItem[ch].Serialize( ar );

  000b7	8b 4e 0c	 mov	 ecx, DWORD PTR [esi+12]
  000ba	03 cb		 add	 ecx, ebx
  000bc	57		 push	 edi
  000bd	8b 01		 mov	 eax, DWORD PTR [ecx]
  000bf	ff 50 0c	 call	 DWORD PTR [eax+12]

; 822  : 				chSize++;

  000c2	fe 85 fa fd ff
	ff		 inc	 BYTE PTR _chSize$1$[ebp]
  000c8	8a 95 f8 fd ff
	ff		 mov	 dl, BYTE PTR $T2[ebp]
$LN40@Serialize:

; 823  : 			}
; 824  : 			adwObjIndex[ch]		= m_apItem[ch].m_dwObjIndex;

  000ce	8b 46 0c	 mov	 eax, DWORD PTR [esi+12]
  000d1	8b 8d f0 fd ff
	ff		 mov	 ecx, DWORD PTR tv623[ebp]
  000d7	8b 44 18 2c	 mov	 eax, DWORD PTR [eax+ebx+44]
  000db	89 84 8d fc fd
	ff ff		 mov	 DWORD PTR _adwObjIndex$[ebp+ecx*4], eax
  000e2	8d 4a 01	 lea	 ecx, DWORD PTR [edx+1]
  000e5	8b 56 10	 mov	 edx, DWORD PTR [esi+16]
  000e8	8a d9		 mov	 bl, cl
  000ea	0f b6 c1	 movzx	 eax, cl
  000ed	88 8d fb fd ff
	ff		 mov	 BYTE PTR _ch$5[ebp], cl
  000f3	88 8d f9 fd ff
	ff		 mov	 BYTE PTR $T4[ebp], cl
  000f9	88 8d f8 fd ff
	ff		 mov	 BYTE PTR $T2[ebp], cl
  000ff	3b c2		 cmp	 eax, edx
  00101	0f 82 7a ff ff
	ff		 jb	 $LL41@Serialize
  00107	8a 9d fa fd ff
	ff		 mov	 bl, BYTE PTR _chSize$1$[ebp]
$LN3@Serialize:

; 825  : 		}
; 826  : 
; 827  : 		ar.Write( adwObjIndex, sizeof(DWORD) * m_dwItemMax );

  0010d	8d 04 95 00 00
	00 00		 lea	 eax, DWORD PTR [edx*4]
  00114	8b cf		 mov	 ecx, edi
  00116	50		 push	 eax
  00117	8d 85 fc fd ff
	ff		 lea	 eax, DWORD PTR _adwObjIndex$[ebp]
  0011d	50		 push	 eax
  0011e	e8 00 00 00 00	 call	 ?Write@CAr@@QAEXPBXI@Z	; CAr::Write

; 828  : 
; 829  : 		int nBufSize;
; 830  : 		LPBYTE lpBuf	= ar.GetBuffer( &nBufSize );

  00123	8d 85 ec fd ff
	ff		 lea	 eax, DWORD PTR _nBufSize$1[ebp]
  00129	8b cf		 mov	 ecx, edi
  0012b	50		 push	 eax
  0012c	e8 00 00 00 00	 call	 ?GetBuffer@CAr@@QAEPAEPAH@Z ; CAr::GetBuffer

; 831  : 		*( lpBuf + uOffset )	= chSize;

  00131	8b 8d f4 fd ff
	ff		 mov	 ecx, DWORD PTR _uOffset$1$[ebp]
  00137	5f		 pop	 edi

; 853  : 		}
; 854  : 	}
; 855  : }

  00138	5e		 pop	 esi
  00139	88 1c 08	 mov	 BYTE PTR [eax+ecx], bl
  0013c	5b		 pop	 ebx
  0013d	8b 4d fc	 mov	 ecx, DWORD PTR __$ArrayPad$[ebp]
  00140	33 cd		 xor	 ecx, ebp
  00142	e8 00 00 00 00	 call	 @__security_check_cookie@4
  00147	8b e5		 mov	 esp, ebp
  00149	5d		 pop	 ebp
  0014a	c2 04 00	 ret	 4
$LN14@Serialize:

; 832  : 	}
; 833  : 	else
; 834  : 	{
; 835  : 		ar.Read( m_apIndex, sizeof(DWORD) * m_dwItemMax );

  0014d	e8 00 00 00 00	 call	 ?Read@CAr@@QAEXPAXI@Z	; CAr::Read

; 836  : 		// Clear
; 837  : 		for( u_int i = 0; i < m_dwItemMax; i++ )

  00152	83 7e 10 00	 cmp	 DWORD PTR [esi+16], 0
  00156	76 24		 jbe	 SHORT $LN6@Serialize

; 832  : 	}
; 833  : 	else
; 834  : 	{
; 835  : 		ar.Read( m_apIndex, sizeof(DWORD) * m_dwItemMax );

  00158	33 db		 xor	 ebx, ebx
  0015a	33 ff		 xor	 edi, edi
  0015c	0f 1f 40 00	 npad	 4
$LL7@Serialize:

; 838  : 			m_apItem[i].Empty();

  00160	8b 4e 0c	 mov	 ecx, DWORD PTR [esi+12]
  00163	03 cb		 add	 ecx, ebx
  00165	8b 01		 mov	 eax, DWORD PTR [ecx]
  00167	ff 50 04	 call	 DWORD PTR [eax+4]
  0016a	47		 inc	 edi
  0016b	81 c3 98 00 00
	00		 add	 ebx, 152		; 00000098H
  00171	3b 7e 10	 cmp	 edi, DWORD PTR [esi+16]
  00174	72 ea		 jb	 SHORT $LL7@Serialize
  00176	8b bd f4 fd ff
	ff		 mov	 edi, DWORD PTR _ar$GSCopy$1$[ebp]
$LN6@Serialize:

; 839  : 
; 840  : 		ar >> chSize;

  0017c	8d 85 fb fd ff
	ff		 lea	 eax, DWORD PTR _chSize$[ebp]
  00182	8b cf		 mov	 ecx, edi
  00184	50		 push	 eax
  00185	e8 00 00 00 00	 call	 ??$?5E@CAr@@QAEAAV0@AAE@Z ; CAr::operator>><unsigned char>

; 841  : 
; 842  : 		unsigned char ch;
; 843  : 		for( u_char i = 0; i < chSize; i++ )

  0018a	8a 85 fb fd ff
	ff		 mov	 al, BYTE PTR _chSize$[ebp]
  00190	84 c0		 test	 al, al
  00192	74 2c		 je	 SHORT $LN9@Serialize

; 839  : 
; 840  : 		ar >> chSize;

  00194	0f b6 d8	 movzx	 ebx, al
$LL10@Serialize:

; 844  : 		{
; 845  : 			ar >> ch;

  00197	8d 85 f9 fd ff
	ff		 lea	 eax, DWORD PTR _ch$3[ebp]
  0019d	8b cf		 mov	 ecx, edi
  0019f	50		 push	 eax
  001a0	e8 00 00 00 00	 call	 ??$?5E@CAr@@QAEAAV0@AAE@Z ; CAr::operator>><unsigned char>

; 846  : 			m_apItem[ch].Serialize( ar );

  001a5	0f b6 85 f9 fd
	ff ff		 movzx	 eax, BYTE PTR _ch$3[ebp]
  001ac	69 c8 98 00 00
	00		 imul	 ecx, eax, 152
  001b2	57		 push	 edi
  001b3	03 4e 0c	 add	 ecx, DWORD PTR [esi+12]
  001b6	8b 01		 mov	 eax, DWORD PTR [ecx]
  001b8	ff 50 0c	 call	 DWORD PTR [eax+12]
  001bb	83 eb 01	 sub	 ebx, 1
  001be	75 d7		 jne	 SHORT $LL10@Serialize
$LN9@Serialize:

; 847  : 		}
; 848  : 
; 849  : 		ar.Read( adwObjIndex, sizeof(DWORD) * m_dwItemMax );

  001c0	8b 46 10	 mov	 eax, DWORD PTR [esi+16]
  001c3	8b cf		 mov	 ecx, edi
  001c5	c1 e0 02	 shl	 eax, 2
  001c8	50		 push	 eax
  001c9	8d 85 fc fd ff
	ff		 lea	 eax, DWORD PTR _adwObjIndex$[ebp]
  001cf	50		 push	 eax
  001d0	e8 00 00 00 00	 call	 ?Read@CAr@@QAEXPAXI@Z	; CAr::Read

; 850  : 		for( int i = 0; i < m_dwItemMax; i++ )

  001d5	33 d2		 xor	 edx, edx
  001d7	39 56 10	 cmp	 DWORD PTR [esi+16], edx
  001da	76 1e		 jbe	 SHORT $LN12@Serialize

; 847  : 		}
; 848  : 
; 849  : 		ar.Read( adwObjIndex, sizeof(DWORD) * m_dwItemMax );

  001dc	33 ff		 xor	 edi, edi
  001de	66 90		 npad	 2
$LL13@Serialize:

; 851  : 		{
; 852  : 			m_apItem[i].m_dwObjIndex	= adwObjIndex[i];

  001e0	8b 4e 0c	 mov	 ecx, DWORD PTR [esi+12]
  001e3	8d bf 98 00 00
	00		 lea	 edi, DWORD PTR [edi+152]
  001e9	8b 84 95 fc fd
	ff ff		 mov	 eax, DWORD PTR _adwObjIndex$[ebp+edx*4]
  001f0	42		 inc	 edx
  001f1	89 44 0f 94	 mov	 DWORD PTR [edi+ecx-108], eax
  001f5	3b 56 10	 cmp	 edx, DWORD PTR [esi+16]
  001f8	72 e6		 jb	 SHORT $LL13@Serialize
$LN12@Serialize:

; 853  : 		}
; 854  : 	}
; 855  : }

  001fa	8b 4d fc	 mov	 ecx, DWORD PTR __$ArrayPad$[ebp]
  001fd	5f		 pop	 edi
  001fe	5e		 pop	 esi
  001ff	33 cd		 xor	 ecx, ebp
  00201	5b		 pop	 ebx
  00202	e8 00 00 00 00	 call	 @__security_check_cookie@4
  00207	8b e5		 mov	 esp, ebp
  00209	5d		 pop	 ebp
  0020a	c2 04 00	 ret	 4
?Serialize@?$CItemContainer@VCItemElem@@@@QAEXAAVCAr@@@Z ENDP ; CItemContainer<CItemElem>::Serialize
_TEXT	ENDS
; Function compile flags: /Ogtp
; File C:\IAGOS\server\v18\Source\Source\_Network\Objects\Obj.h
;	COMDAT ?Copy@?$CItemContainer@VCItemElem@@@@QAEXAAV1@@Z
_TEXT	SEGMENT
_rItemContainer$ = 8					; size = 4
?Copy@?$CItemContainer@VCItemElem@@@@QAEXAAV1@@Z PROC	; CItemContainer<CItemElem>::Copy, COMDAT
; _this$ = ecx

; 787  : {

  00000	55		 push	 ebp
  00001	8b ec		 mov	 ebp, esp
  00003	53		 push	 ebx
  00004	8b d9		 mov	 ebx, ecx

; 788  : 	m_dwIndexNum	= rItemContainer.m_dwIndexNum;

  00006	8b 4d 08	 mov	 ecx, DWORD PTR _rItemContainer$[ebp]
  00009	57		 push	 edi
  0000a	8b 41 08	 mov	 eax, DWORD PTR [ecx+8]
  0000d	89 43 08	 mov	 DWORD PTR [ebx+8], eax

; 789  : 	memcpy( (void*)m_apIndex, (void*)rItemContainer.m_apIndex, sizeof(DWORD) * m_dwItemMax );

  00010	8b 43 10	 mov	 eax, DWORD PTR [ebx+16]
  00013	c1 e0 02	 shl	 eax, 2
  00016	50		 push	 eax
  00017	ff 71 04	 push	 DWORD PTR [ecx+4]
  0001a	ff 73 04	 push	 DWORD PTR [ebx+4]
  0001d	e8 00 00 00 00	 call	 _memcpy

; 790  : 	for( u_long i = 0; i < m_dwItemMax; i++ )

  00022	33 ff		 xor	 edi, edi
  00024	83 c4 0c	 add	 esp, 12			; 0000000cH
  00027	39 7b 10	 cmp	 DWORD PTR [ebx+16], edi
  0002a	76 4c		 jbe	 SHORT $LN3@Copy

; 788  : 	m_dwIndexNum	= rItemContainer.m_dwIndexNum;

  0002c	56		 push	 esi
  0002d	33 f6		 xor	 esi, esi
  0002f	90		 npad	 1
$LL4@Copy:

; 791  : 	{
; 792  : 		m_apItem[i].m_dwObjId	= rItemContainer.m_apItem[i].m_dwObjId;

  00030	8b 55 08	 mov	 edx, DWORD PTR _rItemContainer$[ebp]
  00033	8b 4b 0c	 mov	 ecx, DWORD PTR [ebx+12]
  00036	8b 42 0c	 mov	 eax, DWORD PTR [edx+12]
  00039	8b 44 30 04	 mov	 eax, DWORD PTR [eax+esi+4]
  0003d	89 44 31 04	 mov	 DWORD PTR [ecx+esi+4], eax

; 793  : 		m_apItem[i].m_dwObjIndex	= rItemContainer.m_apItem[i].m_dwObjIndex;

  00041	8b 42 0c	 mov	 eax, DWORD PTR [edx+12]
  00044	8b 4b 0c	 mov	 ecx, DWORD PTR [ebx+12]
  00047	8b 44 30 2c	 mov	 eax, DWORD PTR [eax+esi+44]
  0004b	89 44 31 2c	 mov	 DWORD PTR [ecx+esi+44], eax

; 131  : 	BOOL	IsEmpty()	{	return m_dwItemId ? FALSE : TRUE;	}

  0004f	8b 52 0c	 mov	 edx, DWORD PTR [edx+12]
  00052	8b 43 0c	 mov	 eax, DWORD PTR [ebx+12]
  00055	03 d6		 add	 edx, esi
  00057	83 7a 08 00	 cmp	 DWORD PTR [edx+8], 0

; 794  : 		if( rItemContainer.m_apItem[i].IsEmpty() == FALSE )

  0005b	8d 0c 06	 lea	 ecx, DWORD PTR [esi+eax]
  0005e	8b 01		 mov	 eax, DWORD PTR [ecx]
  00060	74 06		 je	 SHORT $LN5@Copy

; 795  : 			m_apItem[i]		= rItemContainer.m_apItem[i];

  00062	52		 push	 edx
  00063	ff 50 10	 call	 DWORD PTR [eax+16]
  00066	eb 03		 jmp	 SHORT $LN2@Copy
$LN5@Copy:

; 796  : 		else
; 797  : 			m_apItem[i].Empty();

  00068	ff 50 04	 call	 DWORD PTR [eax+4]
$LN2@Copy:

; 790  : 	for( u_long i = 0; i < m_dwItemMax; i++ )

  0006b	47		 inc	 edi
  0006c	81 c6 98 00 00
	00		 add	 esi, 152		; 00000098H
  00072	3b 7b 10	 cmp	 edi, DWORD PTR [ebx+16]
  00075	72 b9		 jb	 SHORT $LL4@Copy
  00077	5e		 pop	 esi
$LN3@Copy:
  00078	5f		 pop	 edi

; 798  : 	}
; 799  : }

  00079	5b		 pop	 ebx
  0007a	5d		 pop	 ebp
  0007b	c2 04 00	 ret	 4
?Copy@?$CItemContainer@VCItemElem@@@@QAEXAAV1@@Z ENDP	; CItemContainer<CItemElem>::Copy
_TEXT	ENDS
; Function compile flags: /Ogtp
; File C:\IAGOS\server\v18\Source\Source\_Network\Objects\Obj.h
;	COMDAT ?SetItemContainer@?$CItemContainer@VCItemElem@@@@QAEXKKK@Z
_TEXT	SEGMENT
__$EHRec$ = -12						; size = 12
_dwItemType$ = 8					; size = 4
_dwItemMax$ = 12					; size = 4
$T2 = 12						; size = 4
_dwExtra$ = 16						; size = 4
$T3 = 16						; size = 4
?SetItemContainer@?$CItemContainer@VCItemElem@@@@QAEXKKK@Z PROC ; CItemContainer<CItemElem>::SetItemContainer, COMDAT
; _this$ = ecx

; 354  : {

  00000	55		 push	 ebp
  00001	8b ec		 mov	 ebp, esp
  00003	6a ff		 push	 -1
  00005	68 00 00 00 00	 push	 __ehhandler$?SetItemContainer@?$CItemContainer@VCItemElem@@@@QAEXKKK@Z
  0000a	64 a1 00 00 00
	00		 mov	 eax, DWORD PTR fs:0
  00010	50		 push	 eax
  00011	53		 push	 ebx
  00012	56		 push	 esi
  00013	57		 push	 edi
  00014	a1 00 00 00 00	 mov	 eax, DWORD PTR ___security_cookie
  00019	33 c5		 xor	 eax, ebp
  0001b	50		 push	 eax
  0001c	8d 45 f4	 lea	 eax, DWORD PTR __$EHRec$[ebp]
  0001f	64 a3 00 00 00
	00		 mov	 DWORD PTR fs:0, eax
  00025	8b f1		 mov	 esi, ecx

; 355  : 	m_dwIndexNum	= dwItemMax;

  00027	8b 45 0c	 mov	 eax, DWORD PTR _dwItemMax$[ebp]

; 356  : 	m_dwItemMax		= dwItemMax;
; 357  : 	if( dwExtra != 0xffffffff )

  0002a	8b 4d 10	 mov	 ecx, DWORD PTR _dwExtra$[ebp]
  0002d	89 46 08	 mov	 DWORD PTR [esi+8], eax
  00030	89 46 10	 mov	 DWORD PTR [esi+16], eax
  00033	83 f9 ff	 cmp	 ecx, -1
  00036	74 05		 je	 SHORT $LN5@SetItemCon

; 358  : 		m_dwItemMax		+= dwExtra;

  00038	03 c1		 add	 eax, ecx
  0003a	89 46 10	 mov	 DWORD PTR [esi+16], eax
$LN5@SetItemCon:

; 359  : 
; 360  : 	SAFE_DELETE_ARRAY( m_apItem );

  0003d	8b 4e 0c	 mov	 ecx, DWORD PTR [esi+12]
  00040	85 c9		 test	 ecx, ecx
  00042	74 23		 je	 SHORT $LN6@SetItemCon
  00044	83 79 fc 00	 cmp	 DWORD PTR [ecx-4], 0
  00048	8d 41 fc	 lea	 eax, DWORD PTR [ecx-4]
  0004b	74 08		 je	 SHORT $LN11@SetItemCon
  0004d	8b 01		 mov	 eax, DWORD PTR [ecx]
  0004f	6a 03		 push	 3
  00051	ff 10		 call	 DWORD PTR [eax]
  00053	eb 0b		 jmp	 SHORT $LN12@SetItemCon
$LN11@SetItemCon:
  00055	6a 04		 push	 4
  00057	50		 push	 eax
  00058	e8 00 00 00 00	 call	 ??_V@YAXPAXI@Z		; operator delete[]
  0005d	83 c4 08	 add	 esp, 8
$LN12@SetItemCon:
  00060	c7 46 0c 00 00
	00 00		 mov	 DWORD PTR [esi+12], 0
$LN6@SetItemCon:

; 361  : 	SAFE_DELETE_ARRAY( m_apIndex );

  00067	8b 46 04	 mov	 eax, DWORD PTR [esi+4]
  0006a	85 c0		 test	 eax, eax
  0006c	74 10		 je	 SHORT $LN7@SetItemCon
  0006e	50		 push	 eax
  0006f	e8 00 00 00 00	 call	 ??_V@YAXPAX@Z		; operator delete[]
  00074	83 c4 04	 add	 esp, 4
  00077	c7 46 04 00 00
	00 00		 mov	 DWORD PTR [esi+4], 0
$LN7@SetItemCon:

; 362  : 
; 363  : 	m_apItem	= new T[ m_dwItemMax ];

  0007e	8b 5e 10	 mov	 ebx, DWORD PTR [esi+16]
  00081	b9 98 00 00 00	 mov	 ecx, 152		; 00000098H
  00086	8b c3		 mov	 eax, ebx
  00088	89 5d 0c	 mov	 DWORD PTR $T2[ebp], ebx
  0008b	f7 e1		 mul	 ecx
  0008d	b9 ff ff ff ff	 mov	 ecx, -1
  00092	0f 42 c1	 cmovb	 eax, ecx
  00095	83 c0 04	 add	 eax, 4
  00098	0f 42 c1	 cmovb	 eax, ecx
  0009b	50		 push	 eax
  0009c	e8 00 00 00 00	 call	 ??_U@YAPAXI@Z		; operator new[]
  000a1	83 c4 04	 add	 esp, 4
  000a4	89 45 10	 mov	 DWORD PTR $T3[ebp], eax
  000a7	c7 45 fc 00 00
	00 00		 mov	 DWORD PTR __$EHRec$[ebp+8], 0
  000ae	85 c0		 test	 eax, eax
  000b0	74 1d		 je	 SHORT $LN15@SetItemCon
  000b2	68 00 00 00 00	 push	 OFFSET ??1CItemElem@@UAE@XZ ; CItemElem::~CItemElem
  000b7	68 00 00 00 00	 push	 OFFSET ??0CItemElem@@QAE@XZ ; CItemElem::CItemElem
  000bc	53		 push	 ebx
  000bd	8d 78 04	 lea	 edi, DWORD PTR [eax+4]
  000c0	89 18		 mov	 DWORD PTR [eax], ebx
  000c2	68 98 00 00 00	 push	 152			; 00000098H
  000c7	57		 push	 edi
  000c8	e8 00 00 00 00	 call	 ??_L@YGXPAXIIP6EX0@Z1@Z
  000cd	eb 02		 jmp	 SHORT $LN16@SetItemCon
$LN15@SetItemCon:
  000cf	33 ff		 xor	 edi, edi
$LN16@SetItemCon:

; 364  : 	m_apIndex	= new DWORD[ m_dwItemMax ];

  000d1	8b 46 10	 mov	 eax, DWORD PTR [esi+16]
  000d4	b9 04 00 00 00	 mov	 ecx, 4
  000d9	f7 e1		 mul	 ecx
  000db	b9 ff ff ff ff	 mov	 ecx, -1
  000e0	c7 45 fc ff ff
	ff ff		 mov	 DWORD PTR __$EHRec$[ebp+8], -1
  000e7	89 7e 0c	 mov	 DWORD PTR [esi+12], edi
  000ea	0f 42 c1	 cmovb	 eax, ecx
  000ed	50		 push	 eax
  000ee	e8 00 00 00 00	 call	 ??_U@YAPAXI@Z		; operator new[]

; 365  : 	for( u_long i = 0; i < m_dwItemMax; i++ )

  000f3	33 c9		 xor	 ecx, ecx
  000f5	89 46 04	 mov	 DWORD PTR [esi+4], eax
  000f8	83 c4 04	 add	 esp, 4
  000fb	39 4e 10	 cmp	 DWORD PTR [esi+16], ecx
  000fe	76 33		 jbe	 SHORT $LN3@SetItemCon

; 362  : 
; 363  : 	m_apItem	= new T[ m_dwItemMax ];

  00100	33 d2		 xor	 edx, edx
$LL4@SetItemCon:

; 366  : 	{
; 367  : 		m_apItem[i].m_dwObjId = i;

  00102	8b 46 0c	 mov	 eax, DWORD PTR [esi+12]
  00105	89 4c 10 04	 mov	 DWORD PTR [eax+edx+4], ecx

; 368  : 		if( i < m_dwIndexNum )

  00109	3b 4e 08	 cmp	 ecx, DWORD PTR [esi+8]
  0010c	73 0f		 jae	 SHORT $LN8@SetItemCon

; 369  : 		{
; 370  : 			m_apItem[i].m_dwObjIndex	= i;

  0010e	8b 46 0c	 mov	 eax, DWORD PTR [esi+12]
  00111	89 4c 10 2c	 mov	 DWORD PTR [eax+edx+44], ecx

; 371  : 			m_apIndex[i]	= i;

  00115	8b 46 04	 mov	 eax, DWORD PTR [esi+4]
  00118	89 0c 88	 mov	 DWORD PTR [eax+ecx*4], ecx

; 372  : 		}

  0011b	eb 0a		 jmp	 SHORT $LN2@SetItemCon
$LN8@SetItemCon:

; 373  : 		else 
; 374  : 			m_apIndex[i]	= NULL_ID;

  0011d	8b 46 04	 mov	 eax, DWORD PTR [esi+4]
  00120	c7 04 88 ff ff
	ff ff		 mov	 DWORD PTR [eax+ecx*4], -1
$LN2@SetItemCon:

; 365  : 	for( u_long i = 0; i < m_dwItemMax; i++ )

  00127	41		 inc	 ecx
  00128	81 c2 98 00 00
	00		 add	 edx, 152		; 00000098H
  0012e	3b 4e 10	 cmp	 ecx, DWORD PTR [esi+16]
  00131	72 cf		 jb	 SHORT $LL4@SetItemCon
$LN3@SetItemCon:

; 375  : 	}
; 376  : }

  00133	8b 4d f4	 mov	 ecx, DWORD PTR __$EHRec$[ebp]
  00136	64 89 0d 00 00
	00 00		 mov	 DWORD PTR fs:0, ecx
  0013d	59		 pop	 ecx
  0013e	5f		 pop	 edi
  0013f	5e		 pop	 esi
  00140	5b		 pop	 ebx
  00141	8b e5		 mov	 esp, ebp
  00143	5d		 pop	 ebp
  00144	c2 0c 00	 ret	 12			; 0000000cH
_TEXT	ENDS
;	COMDAT text$x
text$x	SEGMENT
__unwindfunclet$?SetItemContainer@?$CItemContainer@VCItemElem@@@@QAEXKKK@Z$0:
  00000	8b 45 0c	 mov	 eax, DWORD PTR $T2[ebp]
  00003	b9 98 00 00 00	 mov	 ecx, 152		; 00000098H
  00008	f7 e1		 mul	 ecx
  0000a	8b c8		 mov	 ecx, eax
  0000c	b8 ff ff ff ff	 mov	 eax, -1
  00011	0f 42 c8	 cmovb	 ecx, eax
  00014	83 c1 04	 add	 ecx, 4
  00017	b8 ff ff ff ff	 mov	 eax, -1
  0001c	0f 42 c8	 cmovb	 ecx, eax
  0001f	51		 push	 ecx
  00020	8b 45 10	 mov	 eax, DWORD PTR $T3[ebp]
  00023	50		 push	 eax
  00024	e8 00 00 00 00	 call	 ??_V@YAXPAXI@Z		; operator delete[]
  00029	83 c4 08	 add	 esp, 8
  0002c	c3		 ret	 0
  0002d	cc		 int	 3
  0002e	cc		 int	 3
  0002f	cc		 int	 3
  00030	cc		 int	 3
  00031	cc		 int	 3
__ehhandler$?SetItemContainer@?$CItemContainer@VCItemElem@@@@QAEXKKK@Z:
  00032	90		 npad	 1
  00033	90		 npad	 1
  00034	8b 54 24 08	 mov	 edx, DWORD PTR [esp+8]
  00038	8d 42 0c	 lea	 eax, DWORD PTR [edx+12]
  0003b	8b 4a f0	 mov	 ecx, DWORD PTR [edx-16]
  0003e	33 c8		 xor	 ecx, eax
  00040	e8 00 00 00 00	 call	 @__security_check_cookie@4
  00045	b8 00 00 00 00	 mov	 eax, OFFSET __ehfuncinfo$?SetItemContainer@?$CItemContainer@VCItemElem@@@@QAEXKKK@Z
  0004a	e9 00 00 00 00	 jmp	 ___CxxFrameHandler3
text$x	ENDS
?SetItemContainer@?$CItemContainer@VCItemElem@@@@QAEXKKK@Z ENDP ; CItemContainer<CItemElem>::SetItemContainer
; Function compile flags: /Ogtp
; File C:\IAGOS\server\v18\Source\Source\_Network\Objects\Obj.h
;	COMDAT ??1?$CItemContainer@VCItemElem@@@@UAE@XZ
_TEXT	SEGMENT
??1?$CItemContainer@VCItemElem@@@@UAE@XZ PROC		; CItemContainer<CItemElem>::~CItemContainer<CItemElem>, COMDAT
; _this$ = ecx

; 326  : {

  00000	56		 push	 esi
  00001	8b f1		 mov	 esi, ecx

; 327  : 	SAFE_DELETE_ARRAY( m_apItem );

  00003	8b 4e 0c	 mov	 ecx, DWORD PTR [esi+12]
  00006	c7 06 00 00 00
	00		 mov	 DWORD PTR [esi], OFFSET ??_7?$CItemContainer@VCItemElem@@@@6B@
  0000c	85 c9		 test	 ecx, ecx
  0000e	74 23		 je	 SHORT $LN2@CItemConta
  00010	83 79 fc 00	 cmp	 DWORD PTR [ecx-4], 0
  00014	8d 41 fc	 lea	 eax, DWORD PTR [ecx-4]
  00017	74 08		 je	 SHORT $LN5@CItemConta
  00019	8b 01		 mov	 eax, DWORD PTR [ecx]
  0001b	6a 03		 push	 3
  0001d	ff 10		 call	 DWORD PTR [eax]
  0001f	eb 0b		 jmp	 SHORT $LN6@CItemConta
$LN5@CItemConta:
  00021	6a 04		 push	 4
  00023	50		 push	 eax
  00024	e8 00 00 00 00	 call	 ??_V@YAXPAXI@Z		; operator delete[]
  00029	83 c4 08	 add	 esp, 8
$LN6@CItemConta:
  0002c	c7 46 0c 00 00
	00 00		 mov	 DWORD PTR [esi+12], 0
$LN2@CItemConta:

; 328  : 	SAFE_DELETE_ARRAY( m_apIndex );

  00033	8b 46 04	 mov	 eax, DWORD PTR [esi+4]
  00036	85 c0		 test	 eax, eax
  00038	74 10		 je	 SHORT $LN3@CItemConta
  0003a	50		 push	 eax
  0003b	e8 00 00 00 00	 call	 ??_V@YAXPAX@Z		; operator delete[]
  00040	83 c4 04	 add	 esp, 4
  00043	c7 46 04 00 00
	00 00		 mov	 DWORD PTR [esi+4], 0
$LN3@CItemConta:

; 329  : }

  0004a	5e		 pop	 esi
  0004b	c3		 ret	 0
??1?$CItemContainer@VCItemElem@@@@UAE@XZ ENDP		; CItemContainer<CItemElem>::~CItemContainer<CItemElem>
_TEXT	ENDS
; Function compile flags: /Ogtp
; File C:\IAGOS\server\v18\Source\Source\_Network\Objects\Obj.h
;	COMDAT ??0?$CItemContainer@VCItemElem@@@@QAE@XZ
_TEXT	SEGMENT
??0?$CItemContainer@VCItemElem@@@@QAE@XZ PROC		; CItemContainer<CItemElem>::CItemContainer<CItemElem>, COMDAT
; _this$ = ecx

; 310  : {

  00000	c7 01 00 00 00
	00		 mov	 DWORD PTR [ecx], OFFSET ??_7?$CItemContainer@VCItemElem@@@@6B@

; 311  : 	m_apItem = NULL;
; 312  : 	m_apIndex = NULL;
; 313  : }

  00006	8b c1		 mov	 eax, ecx
  00008	c7 41 0c 00 00
	00 00		 mov	 DWORD PTR [ecx+12], 0
  0000f	c7 41 04 00 00
	00 00		 mov	 DWORD PTR [ecx+4], 0
  00016	c3		 ret	 0
??0?$CItemContainer@VCItemElem@@@@QAE@XZ ENDP		; CItemContainer<CItemElem>::CItemContainer<CItemElem>
_TEXT	ENDS
; Function compile flags: /Ogtp
; File C:\IAGOS\server\v18\Source\Source\_Common\pocket.cpp
;	COMDAT ?__empty_global_delete@@YAXPAXI@Z
_TEXT	SEGMENT
___formal$ = 8						; size = 4
___formal$ = 12						; size = 4
?__empty_global_delete@@YAXPAXI@Z PROC			; __empty_global_delete, COMDAT

  00000	c2 00 00	 ret	 0
?__empty_global_delete@@YAXPAXI@Z ENDP			; __empty_global_delete
_TEXT	ENDS
; Function compile flags: /Ogtp
; File C:\IAGOS\server\v18\Source\Source\_Common\pocket.cpp
;	COMDAT ?__empty_global_delete@@YAXPAX@Z
_TEXT	SEGMENT
___formal$ = 8						; size = 4
?__empty_global_delete@@YAXPAX@Z PROC			; __empty_global_delete, COMDAT

  00000	c2 00 00	 ret	 0
?__empty_global_delete@@YAXPAX@Z ENDP			; __empty_global_delete
_TEXT	ENDS
END
