; Listing generated by Microsoft (R) Optimizing Compiler Version 19.44.35225.0 

	TITLE	C:\IAGOS\server\v18\Source\Output\DatabaseServer\Release\Project.obj
	.686P
	.XMM
	include listing.inc
	.model	flat

INCLUDELIB LIBCMT
INCLUDELIB OLDNAMES

CONST	SEGMENT
?piecewise_construct@std@@3Upiecewise_construct_t@1@B	ORG $+1 ; std::piecewise_construct
CONST	ENDS
PUBLIC	??_H@YGXPAXIIP6EPAX0@Z@Z			; `vector constructor iterator'
PUBLIC	?__empty_global_delete@@YAXPAX@Z		; __empty_global_delete
PUBLIC	?__empty_global_delete@@YAXPAXI@Z		; __empty_global_delete
PUBLIC	___local_stdio_printf_options
PUBLIC	_sprintf
PUBLIC	?AtlThrowImpl@ATL@@YGXJ@Z			; ATL::AtlThrowImpl
PUBLIC	??1?$CStringT@DV?$StrTraitMFC@DV?$ChTraitsCRT@D@ATL@@@@@ATL@@QAE@XZ ; ATL::CStringT<char,StrTraitMFC<char,ATL::ChTraitsCRT<char> > >::~CStringT<char,StrTraitMFC<char,ATL::ChTraitsCRT<char> > >
PUBLIC	??0exception@std@@QAE@ABV01@@Z			; std::exception::exception
PUBLIC	??1exception@std@@UAE@XZ			; std::exception::~exception
PUBLIC	?what@exception@std@@UBEPBDXZ			; std::exception::what
PUBLIC	??_Gexception@std@@UAEPAXI@Z			; std::exception::`scalar deleting destructor'
PUBLIC	??0bad_alloc@std@@QAE@ABV01@@Z			; std::bad_alloc::bad_alloc
PUBLIC	??_Gbad_alloc@std@@UAEPAXI@Z			; std::bad_alloc::`scalar deleting destructor'
PUBLIC	??0bad_array_new_length@std@@QAE@XZ		; std::bad_array_new_length::bad_array_new_length
PUBLIC	??1bad_array_new_length@std@@UAE@XZ		; std::bad_array_new_length::~bad_array_new_length
PUBLIC	??0bad_array_new_length@std@@QAE@ABV01@@Z	; std::bad_array_new_length::bad_array_new_length
PUBLIC	??_Gbad_array_new_length@std@@UAEPAXI@Z		; std::bad_array_new_length::`scalar deleting destructor'
PUBLIC	?_Throw_bad_array_new_length@std@@YAXXZ		; std::_Throw_bad_array_new_length
PUBLIC	?_Xlen_string@std@@YAXXZ			; std::_Xlen_string
PUBLIC	??0?$basic_string@DU?$char_traits@D@std@@V?$allocator@D@2@@std@@QAE@QBD@Z ; std::basic_string<char,std::char_traits<char>,std::allocator<char> >::basic_string<char,std::char_traits<char>,std::allocator<char> >
PUBLIC	??1?$basic_string@DU?$char_traits@D@std@@V?$allocator@D@2@@std@@QAE@XZ ; std::basic_string<char,std::char_traits<char>,std::allocator<char> >::~basic_string<char,std::char_traits<char>,std::allocator<char> >
PUBLIC	?_Throw_tree_length_error@std@@YAXXZ		; std::_Throw_tree_length_error
PUBLIC	??0D3DXVECTOR3@@QAE@XZ				; D3DXVECTOR3::D3DXVECTOR3
PUBLIC	??1?$vector@UtagDROPITEM@@V?$allocator@UtagDROPITEM@@@std@@@std@@QAE@XZ ; std::vector<tagDROPITEM,std::allocator<tagDROPITEM> >::~vector<tagDROPITEM,std::allocator<tagDROPITEM> >
PUBLIC	??1CDropItemGenerator@@UAE@XZ			; CDropItemGenerator::~CDropItemGenerator
PUBLIC	??_GCDropItemGenerator@@UAEPAXI@Z		; CDropItemGenerator::`scalar deleting destructor'
PUBLIC	??1CDropKindGenerator@@UAE@XZ			; CDropKindGenerator::~CDropKindGenerator
PUBLIC	??_GCDropKindGenerator@@UAEPAXI@Z		; CDropKindGenerator::`scalar deleting destructor'
PUBLIC	??0MoverProp@@QAE@XZ				; MoverProp::MoverProp
PUBLIC	??1MoverProp@@QAE@XZ				; MoverProp::~MoverProp
PUBLIC	??_EMoverProp@@QAEPAXI@Z			; MoverProp::`vector deleting destructor'
PUBLIC	??0_MONSTER_RESPAWN@@QAE@XZ			; _MONSTER_RESPAWN::_MONSTER_RESPAWN
PUBLIC	??0_MONSTER_PROP@@QAE@XZ			; _MONSTER_PROP::_MONSTER_PROP
PUBLIC	??0CProject@@QAE@XZ				; CProject::CProject
PUBLIC	??1CProject@@UAE@XZ				; CProject::~CProject
PUBLIC	??1?$map@V?$basic_string@DU?$char_traits@D@std@@V?$allocator@D@2@@std@@KU?$less@V?$basic_string@DU?$char_traits@D@std@@V?$allocator@D@2@@std@@@2@V?$allocator@U?$pair@$$CBV?$basic_string@DU?$char_traits@D@std@@V?$allocator@D@2@@std@@K@std@@@2@@std@@QAE@XZ ; std::map<std::basic_string<char,std::char_traits<char>,std::allocator<char> >,unsigned long,std::less<std::basic_string<char,std::char_traits<char>,std::allocator<char> > >,std::allocator<std::pair<std::basic_string<char,std::char_traits<char>,std::allocator<char> > const ,unsigned long> > >::~map<std::basic_string<char,std::char_traits<char>,std::allocator<char> >,unsigned long,std::less<std::basic_string<char,std::char_traits<char>,std::allocator<char> > >,std::allocator<std::pair<std::basic_string<char,std::char_traits<char>,std::allocator<char> > const ,unsigned long> > >
PUBLIC	??0?$CFixedArray@UItemProp@@@@QAE@XZ		; CFixedArray<ItemProp>::CFixedArray<ItemProp>
PUBLIC	??1?$CFixedArray@UItemProp@@@@UAE@XZ		; CFixedArray<ItemProp>::~CFixedArray<ItemProp>
PUBLIC	??_G?$CFixedArray@UItemProp@@@@UAEPAXI@Z	; CFixedArray<ItemProp>::`scalar deleting destructor'
PUBLIC	??1?$CFixedArray@UtagColorText@@@@UAE@XZ	; CFixedArray<tagColorText>::~CFixedArray<tagColorText>
PUBLIC	??_G?$CFixedArray@UtagColorText@@@@UAEPAXI@Z	; CFixedArray<tagColorText>::`scalar deleting destructor'
PUBLIC	??1?$vector@UtagBeginItem@@V?$allocator@UtagBeginItem@@@std@@@std@@QAE@XZ ; std::vector<tagBeginItem,std::allocator<tagBeginItem> >::~vector<tagBeginItem,std::allocator<tagBeginItem> >
PUBLIC	?_Insert_node@?$_Tree_val@U?$_Tree_simple_types@U?$pair@$$CBV?$basic_string@DU?$char_traits@D@std@@V?$allocator@D@2@@std@@PAX@std@@@std@@@std@@QAEPAU?$_Tree_node@U?$pair@$$CBV?$basic_string@DU?$char_traits@D@std@@V?$allocator@D@2@@std@@PAX@std@@PAX@2@U?$_Tree_id@PAU?$_Tree_node@U?$pair@$$CBV?$basic_string@DU?$char_traits@D@std@@V?$allocator@D@2@@std@@PAX@std@@PAX@std@@@2@QAU32@@Z ; std::_Tree_val<std::_Tree_simple_types<std::pair<std::basic_string<char,std::char_traits<char>,std::allocator<char> > const ,void *> > >::_Insert_node
PUBLIC	??1?$map@V?$basic_string@DU?$char_traits@D@std@@V?$allocator@D@2@@std@@PAXU?$less@V?$basic_string@DU?$char_traits@D@std@@V?$allocator@D@2@@std@@@2@V?$allocator@U?$pair@$$CBV?$basic_string@DU?$char_traits@D@std@@V?$allocator@D@2@@std@@PAX@std@@@2@@std@@QAE@XZ ; std::map<std::basic_string<char,std::char_traits<char>,std::allocator<char> >,void *,std::less<std::basic_string<char,std::char_traits<char>,std::allocator<char> > >,std::allocator<std::pair<std::basic_string<char,std::char_traits<char>,std::allocator<char> > const ,void *> > >::~map<std::basic_string<char,std::char_traits<char>,std::allocator<char> >,void *,std::less<std::basic_string<char,std::char_traits<char>,std::allocator<char> > >,std::allocator<std::pair<std::basic_string<char,std::char_traits<char>,std::allocator<char> > const ,void *> > >
PUBLIC	??1?$set@V?$basic_string@DU?$char_traits@D@std@@V?$allocator@D@2@@std@@U?$less@V?$basic_string@DU?$char_traits@D@std@@V?$allocator@D@2@@std@@@2@V?$allocator@V?$basic_string@DU?$char_traits@D@std@@V?$allocator@D@2@@std@@@2@@std@@QAE@XZ ; std::set<std::basic_string<char,std::char_traits<char>,std::allocator<char> >,std::less<std::basic_string<char,std::char_traits<char>,std::allocator<char> > >,std::allocator<std::basic_string<char,std::char_traits<char>,std::allocator<char> > > >::~set<std::basic_string<char,std::char_traits<char>,std::allocator<char> >,std::less<std::basic_string<char,std::char_traits<char>,std::allocator<char> > >,std::allocator<std::basic_string<char,std::char_traits<char>,std::allocator<char> > > >
PUBLIC	??1?$_Tree@V?$_Tset_traits@DU?$less@D@std@@V?$allocator@D@2@$0A@@std@@@std@@QAE@XZ ; std::_Tree<std::_Tset_traits<char,std::less<char>,std::allocator<char>,0> >::~_Tree<std::_Tset_traits<char,std::less<char>,std::allocator<char>,0> >
PUBLIC	?clear@?$_Tree@V?$_Tset_traits@DU?$less@D@std@@V?$allocator@D@2@$0A@@std@@@std@@QAEXXZ ; std::_Tree<std::_Tset_traits<char,std::less<char>,std::allocator<char>,0> >::clear
PUBLIC	??1?$set@DU?$less@D@std@@V?$allocator@D@2@@std@@QAE@XZ ; std::set<char,std::less<char>,std::allocator<char> >::~set<char,std::less<char>,std::allocator<char> >
PUBLIC	?OpenProject@CProject@@QAEHPBD@Z		; CProject::OpenProject
PUBLIC	?LoadBeginPos@CProject@@QAEXXZ			; CProject::LoadBeginPos
PUBLIC	?AddBeginPos@CProject@@QAEXPBDABUD3DXVECTOR3@@@Z ; CProject::AddBeginPos
PUBLIC	?GetRandomBeginPos@CProject@@QAEHKPAUD3DXVECTOR3@@@Z ; CProject::GetRandomBeginPos
PUBLIC	?LoadDefOfWorld@CProject@@QAEHPBD@Z		; CProject::LoadDefOfWorld
PUBLIC	?LoadExpTable@CProject@@QAEHPBD@Z		; CProject::LoadExpTable
PUBLIC	?SetConvMode@CProject@@QAEXK@Z			; CProject::SetConvMode
PUBLIC	?ResetConvMode@CProject@@QAEXK@Z		; CProject::ResetConvMode
PUBLIC	?IsConvMode@CProject@@QAEHK@Z			; CProject::IsConvMode
PUBLIC	??_GCProject@@UAEPAXI@Z				; CProject::`scalar deleting destructor'
PUBLIC	??$?MDU?$char_traits@D@std@@V?$allocator@D@1@@std@@YA_NABV?$basic_string@DU?$char_traits@D@std@@V?$allocator@D@2@@0@0@Z ; std::operator<<char,std::char_traits<char>,std::allocator<char> >
PUBLIC	??$_Allocate_manually_vector_aligned@U_Default_allocate_traits@std@@@std@@YAPAXI@Z ; std::_Allocate_manually_vector_aligned<std::_Default_allocate_traits>
PUBLIC	?SortJobSkill@@YAHPBX0@Z			; SortJobSkill
PUBLIC	??$_Erase_tree@V?$allocator@U?$_Tree_node@DPAX@std@@@std@@@?$_Tree_val@U?$_Tree_simple_types@D@std@@@std@@QAEXAAV?$allocator@U?$_Tree_node@DPAX@std@@@1@PAU?$_Tree_node@DPAX@1@@Z ; std::_Tree_val<std::_Tree_simple_types<char> >::_Erase_tree<std::allocator<std::_Tree_node<char,void *> > >
PUBLIC	??$_Erase_tree@V?$allocator@U?$_Tree_node@V?$basic_string@DU?$char_traits@D@std@@V?$allocator@D@2@@std@@PAX@std@@@std@@@?$_Tree_val@U?$_Tree_simple_types@V?$basic_string@DU?$char_traits@D@std@@V?$allocator@D@2@@std@@@std@@@std@@QAEXAAV?$allocator@U?$_Tree_node@V?$basic_string@DU?$char_traits@D@std@@V?$allocator@D@2@@std@@PAX@std@@@1@PAU?$_Tree_node@V?$basic_string@DU?$char_traits@D@std@@V?$allocator@D@2@@std@@PAX@1@@Z ; std::_Tree_val<std::_Tree_simple_types<std::basic_string<char,std::char_traits<char>,std::allocator<char> > > >::_Erase_tree<std::allocator<std::_Tree_node<std::basic_string<char,std::char_traits<char>,std::allocator<char> >,void *> > >
PUBLIC	??$_Find_lower_bound@V?$basic_string@DU?$char_traits@D@std@@V?$allocator@D@2@@std@@@?$_Tree@V?$_Tmap_traits@V?$basic_string@DU?$char_traits@D@std@@V?$allocator@D@2@@std@@PAXU?$less@V?$basic_string@DU?$char_traits@D@std@@V?$allocator@D@2@@std@@@2@V?$allocator@U?$pair@$$CBV?$basic_string@DU?$char_traits@D@std@@V?$allocator@D@2@@std@@PAX@std@@@2@$0A@@std@@@std@@IBE?AU?$_Tree_find_result@PAU?$_Tree_node@U?$pair@$$CBV?$basic_string@DU?$char_traits@D@std@@V?$allocator@D@2@@std@@PAX@std@@PAX@std@@@1@ABV?$basic_string@DU?$char_traits@D@std@@V?$allocator@D@2@@1@@Z ; std::_Tree<std::_Tmap_traits<std::basic_string<char,std::char_traits<char>,std::allocator<char> >,void *,std::less<std::basic_string<char,std::char_traits<char>,std::allocator<char> > >,std::allocator<std::pair<std::basic_string<char,std::char_traits<char>,std::allocator<char> > const ,void *> >,0> >::_Find_lower_bound<std::basic_string<char,std::char_traits<char>,std::allocator<char> > >
PUBLIC	??$_Erase_tree@V?$allocator@U?$_Tree_node@U?$pair@$$CBV?$basic_string@DU?$char_traits@D@std@@V?$allocator@D@2@@std@@PAX@std@@PAX@std@@@std@@@?$_Tree_val@U?$_Tree_simple_types@U?$pair@$$CBV?$basic_string@DU?$char_traits@D@std@@V?$allocator@D@2@@std@@PAX@std@@@std@@@std@@QAEXAAV?$allocator@U?$_Tree_node@U?$pair@$$CBV?$basic_string@DU?$char_traits@D@std@@V?$allocator@D@2@@std@@PAX@std@@PAX@std@@@1@PAU?$_Tree_node@U?$pair@$$CBV?$basic_string@DU?$char_traits@D@std@@V?$allocator@D@2@@std@@PAX@std@@PAX@1@@Z ; std::_Tree_val<std::_Tree_simple_types<std::pair<std::basic_string<char,std::char_traits<char>,std::allocator<char> > const ,void *> > >::_Erase_tree<std::allocator<std::_Tree_node<std::pair<std::basic_string<char,std::char_traits<char>,std::allocator<char> > const ,void *>,void *> > >
PUBLIC	??$_Erase_tree@V?$allocator@U?$_Tree_node@U?$pair@$$CBV?$basic_string@DU?$char_traits@D@std@@V?$allocator@D@2@@std@@K@std@@PAX@std@@@std@@@?$_Tree_val@U?$_Tree_simple_types@U?$pair@$$CBV?$basic_string@DU?$char_traits@D@std@@V?$allocator@D@2@@std@@K@std@@@std@@@std@@QAEXAAV?$allocator@U?$_Tree_node@U?$pair@$$CBV?$basic_string@DU?$char_traits@D@std@@V?$allocator@D@2@@std@@K@std@@PAX@std@@@1@PAU?$_Tree_node@U?$pair@$$CBV?$basic_string@DU?$char_traits@D@std@@V?$allocator@D@2@@std@@K@std@@PAX@1@@Z ; std::_Tree_val<std::_Tree_simple_types<std::pair<std::basic_string<char,std::char_traits<char>,std::allocator<char> > const ,unsigned long> > >::_Erase_tree<std::allocator<std::_Tree_node<std::pair<std::basic_string<char,std::char_traits<char>,std::allocator<char> > const ,unsigned long>,void *> > >
PUBLIC	??1?$_Alloc_construct_ptr@V?$allocator@U?$_Tree_node@U?$pair@$$CBV?$basic_string@DU?$char_traits@D@std@@V?$allocator@D@2@@std@@PAX@std@@PAX@std@@@std@@@std@@QAE@XZ ; std::_Alloc_construct_ptr<std::allocator<std::_Tree_node<std::pair<std::basic_string<char,std::char_traits<char>,std::allocator<char> > const ,void *>,void *> > >::~_Alloc_construct_ptr<std::allocator<std::_Tree_node<std::pair<std::basic_string<char,std::char_traits<char>,std::allocator<char> > const ,void *>,void *> > >
PUBLIC	?_OptionsStorage@?1??__local_stdio_printf_options@@9@4_KA ; `__local_stdio_printf_options'::`2'::_OptionsStorage
PUBLIC	??_7exception@std@@6B@				; std::exception::`vftable'
PUBLIC	??_C@_0BC@EOODALEL@Unknown?5exception@		; `string'
PUBLIC	??_7bad_alloc@std@@6B@				; std::bad_alloc::`vftable'
PUBLIC	??_7bad_array_new_length@std@@6B@		; std::bad_array_new_length::`vftable'
PUBLIC	??_C@_0BF@KINCDENJ@bad?5array?5new?5length@	; `string'
PUBLIC	??_R0?AVexception@std@@@8			; std::exception `RTTI Type Descriptor'
PUBLIC	__CT??_R0?AVexception@std@@@8??0exception@std@@QAE@ABV01@@Z12
PUBLIC	__TI3?AVbad_array_new_length@std@@
PUBLIC	__CTA3?AVbad_array_new_length@std@@
PUBLIC	??_R0?AVbad_array_new_length@std@@@8		; std::bad_array_new_length `RTTI Type Descriptor'
PUBLIC	__CT??_R0?AVbad_array_new_length@std@@@8??0bad_array_new_length@std@@QAE@ABV01@@Z12
PUBLIC	??_R0?AVbad_alloc@std@@@8			; std::bad_alloc `RTTI Type Descriptor'
PUBLIC	__CT??_R0?AVbad_alloc@std@@@8??0bad_alloc@std@@QAE@ABV01@@Z12
PUBLIC	??_C@_0BA@JFNIOLAK@string?5too?5long@		; `string'
PUBLIC	??_C@_0BB@GCADKGJO@map?1set?5too?5long@		; `string'
PUBLIC	??_7CDropItemGenerator@@6B@			; CDropItemGenerator::`vftable'
PUBLIC	??_7CDropKindGenerator@@6B@			; CDropKindGenerator::`vftable'
PUBLIC	??_7?$CFixedArray@UItemProp@@@@6B@		; CFixedArray<ItemProp>::`vftable'
PUBLIC	??_7?$CFixedArray@UtagColorText@@@@6B@		; CFixedArray<tagColorText>::`vftable'
PUBLIC	??_7CProject@@6B@				; CProject::`vftable'
PUBLIC	?prj@@3VCProject@@A				; prj
PUBLIC	??_R4exception@std@@6B@				; std::exception::`RTTI Complete Object Locator'
PUBLIC	??_R3exception@std@@8				; std::exception::`RTTI Class Hierarchy Descriptor'
PUBLIC	??_R2exception@std@@8				; std::exception::`RTTI Base Class Array'
PUBLIC	??_R1A@?0A@EA@exception@std@@8			; std::exception::`RTTI Base Class Descriptor at (0,-1,0,64)'
PUBLIC	??_R4bad_array_new_length@std@@6B@		; std::bad_array_new_length::`RTTI Complete Object Locator'
PUBLIC	??_R3bad_array_new_length@std@@8		; std::bad_array_new_length::`RTTI Class Hierarchy Descriptor'
PUBLIC	??_R2bad_array_new_length@std@@8		; std::bad_array_new_length::`RTTI Base Class Array'
PUBLIC	??_R1A@?0A@EA@bad_array_new_length@std@@8	; std::bad_array_new_length::`RTTI Base Class Descriptor at (0,-1,0,64)'
PUBLIC	??_R1A@?0A@EA@bad_alloc@std@@8			; std::bad_alloc::`RTTI Base Class Descriptor at (0,-1,0,64)'
PUBLIC	??_R3bad_alloc@std@@8				; std::bad_alloc::`RTTI Class Hierarchy Descriptor'
PUBLIC	??_R2bad_alloc@std@@8				; std::bad_alloc::`RTTI Base Class Array'
PUBLIC	??_R4bad_alloc@std@@6B@				; std::bad_alloc::`RTTI Complete Object Locator'
PUBLIC	??_R4CDropItemGenerator@@6B@			; CDropItemGenerator::`RTTI Complete Object Locator'
PUBLIC	??_R0?AVCDropItemGenerator@@@8			; CDropItemGenerator `RTTI Type Descriptor'
PUBLIC	??_R3CDropItemGenerator@@8			; CDropItemGenerator::`RTTI Class Hierarchy Descriptor'
PUBLIC	??_R2CDropItemGenerator@@8			; CDropItemGenerator::`RTTI Base Class Array'
PUBLIC	??_R1A@?0A@EA@CDropItemGenerator@@8		; CDropItemGenerator::`RTTI Base Class Descriptor at (0,-1,0,64)'
PUBLIC	??_R4CDropKindGenerator@@6B@			; CDropKindGenerator::`RTTI Complete Object Locator'
PUBLIC	??_R0?AVCDropKindGenerator@@@8			; CDropKindGenerator `RTTI Type Descriptor'
PUBLIC	??_R3CDropKindGenerator@@8			; CDropKindGenerator::`RTTI Class Hierarchy Descriptor'
PUBLIC	??_R2CDropKindGenerator@@8			; CDropKindGenerator::`RTTI Base Class Array'
PUBLIC	??_R1A@?0A@EA@CDropKindGenerator@@8		; CDropKindGenerator::`RTTI Base Class Descriptor at (0,-1,0,64)'
PUBLIC	??_R4?$CFixedArray@UItemProp@@@@6B@		; CFixedArray<ItemProp>::`RTTI Complete Object Locator'
PUBLIC	??_R0?AV?$CFixedArray@UItemProp@@@@@8		; CFixedArray<ItemProp> `RTTI Type Descriptor'
PUBLIC	??_R3?$CFixedArray@UItemProp@@@@8		; CFixedArray<ItemProp>::`RTTI Class Hierarchy Descriptor'
PUBLIC	??_R2?$CFixedArray@UItemProp@@@@8		; CFixedArray<ItemProp>::`RTTI Base Class Array'
PUBLIC	??_R1A@?0A@EA@?$CFixedArray@UItemProp@@@@8	; CFixedArray<ItemProp>::`RTTI Base Class Descriptor at (0,-1,0,64)'
PUBLIC	??_R4?$CFixedArray@UtagColorText@@@@6B@		; CFixedArray<tagColorText>::`RTTI Complete Object Locator'
PUBLIC	??_R0?AV?$CFixedArray@UtagColorText@@@@@8	; CFixedArray<tagColorText> `RTTI Type Descriptor'
PUBLIC	??_R3?$CFixedArray@UtagColorText@@@@8		; CFixedArray<tagColorText>::`RTTI Class Hierarchy Descriptor'
PUBLIC	??_R2?$CFixedArray@UtagColorText@@@@8		; CFixedArray<tagColorText>::`RTTI Base Class Array'
PUBLIC	??_R1A@?0A@EA@?$CFixedArray@UtagColorText@@@@8	; CFixedArray<tagColorText>::`RTTI Base Class Descriptor at (0,-1,0,64)'
PUBLIC	??_C@_08FOANJOHG@propItem@			; `string'
PUBLIC	??_C@_0O@ECNAFEFK@Spec_Item?4txt@		; `string'
PUBLIC	??_C@_09GECPIPKP@propMover@			; `string'
PUBLIC	??_C@_09HLJJAJBN@propSkill@			; `string'
PUBLIC	??_C@_0BO@ELKNDCGL@ItmeProp?$CI?$CFs?$CJ?5dwItemKind2?5?$DN?5?91@ ; `string'
PUBLIC	??_C@_05MCBCHHEJ@world@				; `string'
PUBLIC	??_C@_08GHPKPDIG@expTable@			; `string'
PUBLIC	??_C@_0M@FDPIKJBI@jobItem?4inc@			; `string'
PUBLIC	??_C@_07ELPGGKDB@pet?4inc@			; `string'
PUBLIC	??_C@_0O@HJJMHNFH@honorList?4txt@		; `string'
PUBLIC	??_C@_03EMIMMIHL@?$CK?4?$CK@			; `string'
PUBLIC	??_C@_06NGHBMAIH@World?2@			; `string'
PUBLIC	??_C@_01LFCBOECM@?4@				; `string'
PUBLIC	??_C@_02DJGKEECL@?4?4@				; `string'
PUBLIC	??_C@_0M@BILJHLCN@?$CFs?$CFs?2?$CFs?4rgn@	; `string'
PUBLIC	??_C@_06JEJEKGIK@region@			; `string'
PUBLIC	??_C@_07OAIJKKOJ@region2@			; `string'
PUBLIC	??_C@_07PJJCJLKI@region3@			; `string'
PUBLIC	??_C@_07PABIOCAD@respawn@			; `string'
PUBLIC	??_C@_0CL@LMMKJOOA@Error?5LoadDefOfWorld?5i?5?$DN?5?$CFd?5Max@ ; `string'
PUBLIC	??_C@_08GMCCAJLF@SetTitle@			; `string'
PUBLIC	??_C@_0P@FNFGFCDJ@expCompanyTest@		; `string'
PUBLIC	??_C@_08FIDAEJJK@expParty@			; `string'
PUBLIC	??_R4CProject@@6B@				; CProject::`RTTI Complete Object Locator'
PUBLIC	??_R0?AVCProject@@@8				; CProject `RTTI Type Descriptor'
PUBLIC	??_R3CProject@@8				; CProject::`RTTI Class Hierarchy Descriptor'
PUBLIC	??_R2CProject@@8				; CProject::`RTTI Base Class Array'
PUBLIC	??_R1A@?0A@EA@CProject@@8			; CProject::`RTTI Base Class Descriptor at (0,-1,0,64)'
EXTRN	??_L@YGXPAXIIP6EX0@Z1@Z:PROC			; `eh vector constructor iterator'
EXTRN	??_M@YGXPAXIIP6EX0@Z@Z:PROC			; `eh vector destructor iterator'
EXTRN	??2@YAPAXI@Z:PROC				; operator new
EXTRN	??3@YAXPAXI@Z:PROC				; operator delete
EXTRN	??_U@YAPAXI@Z:PROC				; operator new[]
EXTRN	??_V@YAXPAX@Z:PROC				; operator delete[]
EXTRN	??_V@YAXPAXI@Z:PROC				; operator delete[]
EXTRN	_atexit:PROC
EXTRN	___std_terminate:PROC
EXTRN	__invoke_watson:PROC
EXTRN	_strlwr:PROC
EXTRN	__imp__FindClose@4:PROC
EXTRN	__imp__FindFirstFileA@8:PROC
EXTRN	__imp__FindNextFileA@8:PROC
EXTRN	__mbscmp:PROC
EXTRN	__mbslwr:PROC
EXTRN	___stdio_common_vsprintf:PROC
EXTRN	_free:PROC
EXTRN	_qsort:PROC
EXTRN	?AfxThrowMemoryException@@YGXXZ:PROC		; AfxThrowMemoryException
EXTRN	?AfxThrowOleException@@YGXJ@Z:PROC		; AfxThrowOleException
EXTRN	?AfxGetStringManager@@YGPAUIAtlStringMgr@ATL@@XZ:PROC ; AfxGetStringManager
EXTRN	?_Xlength_error@std@@YAXPBD@Z:PROC		; std::_Xlength_error
EXTRN	___std_exception_copy:PROC
EXTRN	___std_exception_destroy:PROC
EXTRN	??_Eexception@std@@UAEPAXI@Z:PROC		; std::exception::`vector deleting destructor'
EXTRN	??_Ebad_alloc@std@@UAEPAXI@Z:PROC		; std::bad_alloc::`vector deleting destructor'
EXTRN	??_Ebad_array_new_length@std@@UAEPAXI@Z:PROC	; std::bad_array_new_length::`vector deleting destructor'
EXTRN	?Error@@YAPBDPBDZZ:PROC				; Error
EXTRN	?MakePath@@YA?AV?$CStringT@DV?$StrTraitMFC@DV?$ChTraitsCRT@D@ATL@@@@@ATL@@PBD0@Z:PROC ; MakePath
EXTRN	??0CScanner@@QAE@H@Z:PROC			; CScanner::CScanner
EXTRN	??1CScanner@@UAE@XZ:PROC			; CScanner::~CScanner
EXTRN	?GetToken@CScanner@@UAEHH@Z:PROC		; CScanner::GetToken
EXTRN	?Load@CScanner@@QAEHPBDH@Z:PROC			; CScanner::Load
EXTRN	?GetNumber@CScanner@@QAEHH@Z:PROC		; CScanner::GetNumber
EXTRN	?GetFloat@CScanner@@QAEMH@Z:PROC		; CScanner::GetFloat
EXTRN	??0CScript@@QAE@H@Z:PROC			; CScript::CScript
EXTRN	??1CScript@@UAE@XZ:PROC				; CScript::~CScript
EXTRN	?SetMark@CScript@@UAEXXZ:PROC			; CScript::SetMark
EXTRN	?GoMark@CScript@@UAEXXZ:PROC			; CScript::GoMark
EXTRN	?Load@CScript@@QAEHPBDHH@Z:PROC			; CScript::Load
EXTRN	?GetToken@CScript@@UAEHH@Z:PROC			; CScript::GetToken
EXTRN	??_ECDropItemGenerator@@UAEPAXI@Z:PROC		; CDropItemGenerator::`vector deleting destructor'
EXTRN	??_ECDropKindGenerator@@UAEPAXI@Z:PROC		; CDropKindGenerator::`vector deleting destructor'
EXTRN	??0CEventLua@@QAE@XZ:PROC			; CEventLua::CEventLua
EXTRN	??1CEventLua@@UAE@XZ:PROC			; CEventLua::~CEventLua
EXTRN	?CheckEventState@CEventLua@@QAEHXZ:PROC		; CEventLua::CheckEventState
EXTRN	?LoadScript@CEventLua@@QAEXXZ:PROC		; CEventLua::LoadScript
EXTRN	??0CGuildCombat1to1Mng@@QAE@XZ:PROC		; CGuildCombat1to1Mng::CGuildCombat1to1Mng
EXTRN	??1CGuildCombat1to1Mng@@UAE@XZ:PROC		; CGuildCombat1to1Mng::~CGuildCombat1to1Mng
EXTRN	?LoadScript@CGuildCombat1to1Mng@@QAEHXZ:PROC	; CGuildCombat1to1Mng::LoadScript
EXTRN	??_E?$CFixedArray@UItemProp@@@@UAEPAXI@Z:PROC	; CFixedArray<ItemProp>::`vector deleting destructor'
EXTRN	??_E?$CFixedArray@UtagColorText@@@@UAEPAXI@Z:PROC ; CFixedArray<tagColorText>::`vector deleting destructor'
EXTRN	?LoadInvalidName@CProject@@QAEHXZ:PROC		; CProject::LoadInvalidName
EXTRN	?LoadAllowedLetter@CProject@@QAEHH@Z:PROC	; CProject::LoadAllowedLetter
EXTRN	?LoadPreFiles@CProject@@QAEXXZ:PROC		; CProject::LoadPreFiles
EXTRN	?LoadPropMover@CProject@@QAEHPBD@Z:PROC		; CProject::LoadPropMover
EXTRN	?LoadPropItem@CProject@@QAEHPBDPAV?$CFixedArray@UItemProp@@@@@Z:PROC ; CProject::LoadPropItem
EXTRN	?LoadPropItemEx@CProject@@QAEHPBDPAV?$CFixedArray@UItemProp@@@@@Z:PROC ; CProject::LoadPropItemEx
EXTRN	?LoadJobItem@CProject@@QAEHPBD@Z:PROC		; CProject::LoadJobItem
EXTRN	?GetLangScript@CProject@@QAE?AV?$CStringT@DV?$StrTraitMFC@DV?$ChTraitsCRT@D@ATL@@@@@ATL@@AAVCScript@@@Z:PROC ; CProject::GetLangScript
EXTRN	??_ECProject@@UAEPAXI@Z:PROC			; CProject::`vector deleting destructor'
EXTRN	?GetInstance@CPetProperty@@SAPAV1@XZ:PROC	; CPetProperty::GetInstance
EXTRN	?LoadScript@CPetProperty@@QAEHPBD@Z:PROC	; CPetProperty::LoadScript
EXTRN	?Instance@CCoupleHelper@@SAPAV1@XZ:PROC		; CCoupleHelper::Instance
EXTRN	?Initialize@CCoupleHelper@@QAEHXZ:PROC		; CCoupleHelper::Initialize
EXTRN	?ReadBlock@CGuildTable@@QAEHAAVCScript@@@Z:PROC	; CGuildTable::ReadBlock
EXTRN	?GetInstance@CGuildTable@@SAAAV1@XZ:PROC	; CGuildTable::GetInstance
EXTRN	?GetInstance@CTax@@SAPAV1@XZ:PROC		; CTax::GetInstance
EXTRN	?LoadScript@CTax@@QAEXXZ:PROC			; CTax::LoadScript
EXTRN	?Instance@CTitleManager@@SAPAV1@XZ:PROC		; CTitleManager::Instance
EXTRN	?LoadTitle@CTitleManager@@QAEHPBD@Z:PROC	; CTitleManager::LoadTitle
EXTRN	?GetInstance@CQuiz@@SAPAV1@XZ:PROC		; CQuiz::GetInstance
EXTRN	?LoadScript@CQuiz@@QAEXXZ:PROC			; CQuiz::LoadScript
EXTRN	@__security_check_cookie@4:PROC
EXTRN	__CxxThrowException@8:PROC
EXTRN	___CxxFrameHandler3:PROC
EXTRN	__chkstk:PROC
EXTRN	_memcpy:PROC
EXTRN	_memset:PROC
EXTRN	??_7type_info@@6B@:QWORD			; type_info::`vftable'
EXTRN	?g_next@@3KA:DWORD				; g_next
EXTRN	___security_cookie:DWORD
EXTRN	__fltused:DWORD
;	COMDAT ?_OptionsStorage@?1??__local_stdio_printf_options@@9@4_KA
_BSS	SEGMENT
?_OptionsStorage@?1??__local_stdio_printf_options@@9@4_KA DQ 01H DUP (?) ; `__local_stdio_printf_options'::`2'::_OptionsStorage
_BSS	ENDS
_BSS	SEGMENT
?prj@@3VCProject@@A DB 051558H DUP (?)			; prj
_BSS	ENDS
CRT$XCU	SEGMENT
?prj$initializer$@@3P6AXXZA DD FLAT:??__Eprj@@YAXXZ	; prj$initializer$
CRT$XCU	ENDS
;	COMDAT ??_R1A@?0A@EA@CProject@@8
rdata$r	SEGMENT
??_R1A@?0A@EA@CProject@@8 DD FLAT:??_R0?AVCProject@@@8	; CProject::`RTTI Base Class Descriptor at (0,-1,0,64)'
	DD	00H
	DD	00H
	DD	0ffffffffH
	DD	00H
	DD	040H
	DD	FLAT:??_R3CProject@@8
rdata$r	ENDS
;	COMDAT ??_R2CProject@@8
rdata$r	SEGMENT
??_R2CProject@@8 DD FLAT:??_R1A@?0A@EA@CProject@@8	; CProject::`RTTI Base Class Array'
rdata$r	ENDS
;	COMDAT ??_R3CProject@@8
rdata$r	SEGMENT
??_R3CProject@@8 DD 00H					; CProject::`RTTI Class Hierarchy Descriptor'
	DD	00H
	DD	01H
	DD	FLAT:??_R2CProject@@8
rdata$r	ENDS
;	COMDAT ??_R0?AVCProject@@@8
data$rs	SEGMENT
??_R0?AVCProject@@@8 DD FLAT:??_7type_info@@6B@		; CProject `RTTI Type Descriptor'
	DD	00H
	DB	'.?AVCProject@@', 00H
data$rs	ENDS
;	COMDAT ??_R4CProject@@6B@
rdata$r	SEGMENT
??_R4CProject@@6B@ DD 00H				; CProject::`RTTI Complete Object Locator'
	DD	00H
	DD	00H
	DD	FLAT:??_R0?AVCProject@@@8
	DD	FLAT:??_R3CProject@@8
rdata$r	ENDS
;	COMDAT ??_C@_08FIDAEJJK@expParty@
CONST	SEGMENT
??_C@_08FIDAEJJK@expParty@ DB 'expParty', 00H		; `string'
CONST	ENDS
;	COMDAT ??_C@_0P@FNFGFCDJ@expCompanyTest@
CONST	SEGMENT
??_C@_0P@FNFGFCDJ@expCompanyTest@ DB 'expCompanyTest', 00H ; `string'
CONST	ENDS
;	COMDAT ??_C@_08GMCCAJLF@SetTitle@
CONST	SEGMENT
??_C@_08GMCCAJLF@SetTitle@ DB 'SetTitle', 00H		; `string'
CONST	ENDS
;	COMDAT ??_C@_0CL@LMMKJOOA@Error?5LoadDefOfWorld?5i?5?$DN?5?$CFd?5Max@
CONST	SEGMENT
??_C@_0CL@LMMKJOOA@Error?5LoadDefOfWorld?5i?5?$DN?5?$CFd?5Max@ DB 'Error '
	DB	'LoadDefOfWorld i = %d Max', 0b0H, 0aaH, 0baH, 0b8H, 0b4H, 0d9H
	DB	' ', 0b8H, 0b9H, 0c0H, 0bdH, 00H		; `string'
CONST	ENDS
;	COMDAT ??_C@_07PABIOCAD@respawn@
CONST	SEGMENT
??_C@_07PABIOCAD@respawn@ DB 'respawn', 00H		; `string'
CONST	ENDS
;	COMDAT ??_C@_07PJJCJLKI@region3@
CONST	SEGMENT
??_C@_07PJJCJLKI@region3@ DB 'region3', 00H		; `string'
CONST	ENDS
;	COMDAT ??_C@_07OAIJKKOJ@region2@
CONST	SEGMENT
??_C@_07OAIJKKOJ@region2@ DB 'region2', 00H		; `string'
CONST	ENDS
;	COMDAT ??_C@_06JEJEKGIK@region@
CONST	SEGMENT
??_C@_06JEJEKGIK@region@ DB 'region', 00H		; `string'
CONST	ENDS
;	COMDAT ??_C@_0M@BILJHLCN@?$CFs?$CFs?2?$CFs?4rgn@
CONST	SEGMENT
??_C@_0M@BILJHLCN@?$CFs?$CFs?2?$CFs?4rgn@ DB '%s%s\%s.rgn', 00H ; `string'
CONST	ENDS
;	COMDAT ??_C@_02DJGKEECL@?4?4@
CONST	SEGMENT
??_C@_02DJGKEECL@?4?4@ DB '..', 00H			; `string'
CONST	ENDS
;	COMDAT ??_C@_01LFCBOECM@?4@
CONST	SEGMENT
??_C@_01LFCBOECM@?4@ DB '.', 00H			; `string'
CONST	ENDS
;	COMDAT ??_C@_06NGHBMAIH@World?2@
CONST	SEGMENT
??_C@_06NGHBMAIH@World?2@ DB 'World\', 00H		; `string'
CONST	ENDS
;	COMDAT ??_C@_03EMIMMIHL@?$CK?4?$CK@
CONST	SEGMENT
??_C@_03EMIMMIHL@?$CK?4?$CK@ DB '*.*', 00H		; `string'
CONST	ENDS
;	COMDAT ??_C@_0O@HJJMHNFH@honorList?4txt@
CONST	SEGMENT
??_C@_0O@HJJMHNFH@honorList?4txt@ DB 'honorList.txt', 00H ; `string'
CONST	ENDS
;	COMDAT ??_C@_07ELPGGKDB@pet?4inc@
CONST	SEGMENT
??_C@_07ELPGGKDB@pet?4inc@ DB 'pet.inc', 00H		; `string'
CONST	ENDS
;	COMDAT ??_C@_0M@FDPIKJBI@jobItem?4inc@
CONST	SEGMENT
??_C@_0M@FDPIKJBI@jobItem?4inc@ DB 'jobItem.inc', 00H	; `string'
CONST	ENDS
;	COMDAT ??_C@_08GHPKPDIG@expTable@
CONST	SEGMENT
??_C@_08GHPKPDIG@expTable@ DB 'expTable', 00H		; `string'
CONST	ENDS
;	COMDAT ??_C@_05MCBCHHEJ@world@
CONST	SEGMENT
??_C@_05MCBCHHEJ@world@ DB 'world', 00H			; `string'
CONST	ENDS
;	COMDAT ??_C@_0BO@ELKNDCGL@ItmeProp?$CI?$CFs?$CJ?5dwItemKind2?5?$DN?5?91@
CONST	SEGMENT
??_C@_0BO@ELKNDCGL@ItmeProp?$CI?$CFs?$CJ?5dwItemKind2?5?$DN?5?91@ DB 'Itm'
	DB	'eProp(%s) dwItemKind2 = -1', 00H		; `string'
CONST	ENDS
;	COMDAT ??_C@_09HLJJAJBN@propSkill@
CONST	SEGMENT
??_C@_09HLJJAJBN@propSkill@ DB 'propSkill', 00H		; `string'
CONST	ENDS
;	COMDAT ??_C@_09GECPIPKP@propMover@
CONST	SEGMENT
??_C@_09GECPIPKP@propMover@ DB 'propMover', 00H		; `string'
CONST	ENDS
;	COMDAT ??_C@_0O@ECNAFEFK@Spec_Item?4txt@
CONST	SEGMENT
??_C@_0O@ECNAFEFK@Spec_Item?4txt@ DB 'Spec_Item.txt', 00H ; `string'
CONST	ENDS
;	COMDAT ??_C@_08FOANJOHG@propItem@
CONST	SEGMENT
??_C@_08FOANJOHG@propItem@ DB 'propItem', 00H		; `string'
CONST	ENDS
;	COMDAT ??_R1A@?0A@EA@?$CFixedArray@UtagColorText@@@@8
rdata$r	SEGMENT
??_R1A@?0A@EA@?$CFixedArray@UtagColorText@@@@8 DD FLAT:??_R0?AV?$CFixedArray@UtagColorText@@@@@8 ; CFixedArray<tagColorText>::`RTTI Base Class Descriptor at (0,-1,0,64)'
	DD	00H
	DD	00H
	DD	0ffffffffH
	DD	00H
	DD	040H
	DD	FLAT:??_R3?$CFixedArray@UtagColorText@@@@8
rdata$r	ENDS
;	COMDAT ??_R2?$CFixedArray@UtagColorText@@@@8
rdata$r	SEGMENT
??_R2?$CFixedArray@UtagColorText@@@@8 DD FLAT:??_R1A@?0A@EA@?$CFixedArray@UtagColorText@@@@8 ; CFixedArray<tagColorText>::`RTTI Base Class Array'
rdata$r	ENDS
;	COMDAT ??_R3?$CFixedArray@UtagColorText@@@@8
rdata$r	SEGMENT
??_R3?$CFixedArray@UtagColorText@@@@8 DD 00H		; CFixedArray<tagColorText>::`RTTI Class Hierarchy Descriptor'
	DD	00H
	DD	01H
	DD	FLAT:??_R2?$CFixedArray@UtagColorText@@@@8
rdata$r	ENDS
;	COMDAT ??_R0?AV?$CFixedArray@UtagColorText@@@@@8
data$rs	SEGMENT
??_R0?AV?$CFixedArray@UtagColorText@@@@@8 DD FLAT:??_7type_info@@6B@ ; CFixedArray<tagColorText> `RTTI Type Descriptor'
	DD	00H
	DB	'.?AV?$CFixedArray@UtagColorText@@@@', 00H
data$rs	ENDS
;	COMDAT ??_R4?$CFixedArray@UtagColorText@@@@6B@
rdata$r	SEGMENT
??_R4?$CFixedArray@UtagColorText@@@@6B@ DD 00H		; CFixedArray<tagColorText>::`RTTI Complete Object Locator'
	DD	00H
	DD	00H
	DD	FLAT:??_R0?AV?$CFixedArray@UtagColorText@@@@@8
	DD	FLAT:??_R3?$CFixedArray@UtagColorText@@@@8
rdata$r	ENDS
;	COMDAT ??_R1A@?0A@EA@?$CFixedArray@UItemProp@@@@8
rdata$r	SEGMENT
??_R1A@?0A@EA@?$CFixedArray@UItemProp@@@@8 DD FLAT:??_R0?AV?$CFixedArray@UItemProp@@@@@8 ; CFixedArray<ItemProp>::`RTTI Base Class Descriptor at (0,-1,0,64)'
	DD	00H
	DD	00H
	DD	0ffffffffH
	DD	00H
	DD	040H
	DD	FLAT:??_R3?$CFixedArray@UItemProp@@@@8
rdata$r	ENDS
;	COMDAT ??_R2?$CFixedArray@UItemProp@@@@8
rdata$r	SEGMENT
??_R2?$CFixedArray@UItemProp@@@@8 DD FLAT:??_R1A@?0A@EA@?$CFixedArray@UItemProp@@@@8 ; CFixedArray<ItemProp>::`RTTI Base Class Array'
rdata$r	ENDS
;	COMDAT ??_R3?$CFixedArray@UItemProp@@@@8
rdata$r	SEGMENT
??_R3?$CFixedArray@UItemProp@@@@8 DD 00H		; CFixedArray<ItemProp>::`RTTI Class Hierarchy Descriptor'
	DD	00H
	DD	01H
	DD	FLAT:??_R2?$CFixedArray@UItemProp@@@@8
rdata$r	ENDS
;	COMDAT ??_R0?AV?$CFixedArray@UItemProp@@@@@8
data$rs	SEGMENT
??_R0?AV?$CFixedArray@UItemProp@@@@@8 DD FLAT:??_7type_info@@6B@ ; CFixedArray<ItemProp> `RTTI Type Descriptor'
	DD	00H
	DB	'.?AV?$CFixedArray@UItemProp@@@@', 00H
data$rs	ENDS
;	COMDAT ??_R4?$CFixedArray@UItemProp@@@@6B@
rdata$r	SEGMENT
??_R4?$CFixedArray@UItemProp@@@@6B@ DD 00H		; CFixedArray<ItemProp>::`RTTI Complete Object Locator'
	DD	00H
	DD	00H
	DD	FLAT:??_R0?AV?$CFixedArray@UItemProp@@@@@8
	DD	FLAT:??_R3?$CFixedArray@UItemProp@@@@8
rdata$r	ENDS
;	COMDAT ??_R1A@?0A@EA@CDropKindGenerator@@8
rdata$r	SEGMENT
??_R1A@?0A@EA@CDropKindGenerator@@8 DD FLAT:??_R0?AVCDropKindGenerator@@@8 ; CDropKindGenerator::`RTTI Base Class Descriptor at (0,-1,0,64)'
	DD	00H
	DD	00H
	DD	0ffffffffH
	DD	00H
	DD	040H
	DD	FLAT:??_R3CDropKindGenerator@@8
rdata$r	ENDS
;	COMDAT ??_R2CDropKindGenerator@@8
rdata$r	SEGMENT
??_R2CDropKindGenerator@@8 DD FLAT:??_R1A@?0A@EA@CDropKindGenerator@@8 ; CDropKindGenerator::`RTTI Base Class Array'
rdata$r	ENDS
;	COMDAT ??_R3CDropKindGenerator@@8
rdata$r	SEGMENT
??_R3CDropKindGenerator@@8 DD 00H			; CDropKindGenerator::`RTTI Class Hierarchy Descriptor'
	DD	00H
	DD	01H
	DD	FLAT:??_R2CDropKindGenerator@@8
rdata$r	ENDS
;	COMDAT ??_R0?AVCDropKindGenerator@@@8
data$rs	SEGMENT
??_R0?AVCDropKindGenerator@@@8 DD FLAT:??_7type_info@@6B@ ; CDropKindGenerator `RTTI Type Descriptor'
	DD	00H
	DB	'.?AVCDropKindGenerator@@', 00H
data$rs	ENDS
;	COMDAT ??_R4CDropKindGenerator@@6B@
rdata$r	SEGMENT
??_R4CDropKindGenerator@@6B@ DD 00H			; CDropKindGenerator::`RTTI Complete Object Locator'
	DD	00H
	DD	00H
	DD	FLAT:??_R0?AVCDropKindGenerator@@@8
	DD	FLAT:??_R3CDropKindGenerator@@8
rdata$r	ENDS
;	COMDAT ??_R1A@?0A@EA@CDropItemGenerator@@8
rdata$r	SEGMENT
??_R1A@?0A@EA@CDropItemGenerator@@8 DD FLAT:??_R0?AVCDropItemGenerator@@@8 ; CDropItemGenerator::`RTTI Base Class Descriptor at (0,-1,0,64)'
	DD	00H
	DD	00H
	DD	0ffffffffH
	DD	00H
	DD	040H
	DD	FLAT:??_R3CDropItemGenerator@@8
rdata$r	ENDS
;	COMDAT ??_R2CDropItemGenerator@@8
rdata$r	SEGMENT
??_R2CDropItemGenerator@@8 DD FLAT:??_R1A@?0A@EA@CDropItemGenerator@@8 ; CDropItemGenerator::`RTTI Base Class Array'
rdata$r	ENDS
;	COMDAT ??_R3CDropItemGenerator@@8
rdata$r	SEGMENT
??_R3CDropItemGenerator@@8 DD 00H			; CDropItemGenerator::`RTTI Class Hierarchy Descriptor'
	DD	00H
	DD	01H
	DD	FLAT:??_R2CDropItemGenerator@@8
rdata$r	ENDS
;	COMDAT ??_R0?AVCDropItemGenerator@@@8
data$rs	SEGMENT
??_R0?AVCDropItemGenerator@@@8 DD FLAT:??_7type_info@@6B@ ; CDropItemGenerator `RTTI Type Descriptor'
	DD	00H
	DB	'.?AVCDropItemGenerator@@', 00H
data$rs	ENDS
;	COMDAT ??_R4CDropItemGenerator@@6B@
rdata$r	SEGMENT
??_R4CDropItemGenerator@@6B@ DD 00H			; CDropItemGenerator::`RTTI Complete Object Locator'
	DD	00H
	DD	00H
	DD	FLAT:??_R0?AVCDropItemGenerator@@@8
	DD	FLAT:??_R3CDropItemGenerator@@8
rdata$r	ENDS
;	COMDAT ??_R4bad_alloc@std@@6B@
rdata$r	SEGMENT
??_R4bad_alloc@std@@6B@ DD 00H				; std::bad_alloc::`RTTI Complete Object Locator'
	DD	00H
	DD	00H
	DD	FLAT:??_R0?AVbad_alloc@std@@@8
	DD	FLAT:??_R3bad_alloc@std@@8
rdata$r	ENDS
;	COMDAT ??_R2bad_alloc@std@@8
rdata$r	SEGMENT
??_R2bad_alloc@std@@8 DD FLAT:??_R1A@?0A@EA@bad_alloc@std@@8 ; std::bad_alloc::`RTTI Base Class Array'
	DD	FLAT:??_R1A@?0A@EA@exception@std@@8
rdata$r	ENDS
;	COMDAT ??_R3bad_alloc@std@@8
rdata$r	SEGMENT
??_R3bad_alloc@std@@8 DD 00H				; std::bad_alloc::`RTTI Class Hierarchy Descriptor'
	DD	00H
	DD	02H
	DD	FLAT:??_R2bad_alloc@std@@8
rdata$r	ENDS
;	COMDAT ??_R1A@?0A@EA@bad_alloc@std@@8
rdata$r	SEGMENT
??_R1A@?0A@EA@bad_alloc@std@@8 DD FLAT:??_R0?AVbad_alloc@std@@@8 ; std::bad_alloc::`RTTI Base Class Descriptor at (0,-1,0,64)'
	DD	01H
	DD	00H
	DD	0ffffffffH
	DD	00H
	DD	040H
	DD	FLAT:??_R3bad_alloc@std@@8
rdata$r	ENDS
;	COMDAT ??_R1A@?0A@EA@bad_array_new_length@std@@8
rdata$r	SEGMENT
??_R1A@?0A@EA@bad_array_new_length@std@@8 DD FLAT:??_R0?AVbad_array_new_length@std@@@8 ; std::bad_array_new_length::`RTTI Base Class Descriptor at (0,-1,0,64)'
	DD	02H
	DD	00H
	DD	0ffffffffH
	DD	00H
	DD	040H
	DD	FLAT:??_R3bad_array_new_length@std@@8
rdata$r	ENDS
;	COMDAT ??_R2bad_array_new_length@std@@8
rdata$r	SEGMENT
??_R2bad_array_new_length@std@@8 DD FLAT:??_R1A@?0A@EA@bad_array_new_length@std@@8 ; std::bad_array_new_length::`RTTI Base Class Array'
	DD	FLAT:??_R1A@?0A@EA@bad_alloc@std@@8
	DD	FLAT:??_R1A@?0A@EA@exception@std@@8
rdata$r	ENDS
;	COMDAT ??_R3bad_array_new_length@std@@8
rdata$r	SEGMENT
??_R3bad_array_new_length@std@@8 DD 00H			; std::bad_array_new_length::`RTTI Class Hierarchy Descriptor'
	DD	00H
	DD	03H
	DD	FLAT:??_R2bad_array_new_length@std@@8
rdata$r	ENDS
;	COMDAT ??_R4bad_array_new_length@std@@6B@
rdata$r	SEGMENT
??_R4bad_array_new_length@std@@6B@ DD 00H		; std::bad_array_new_length::`RTTI Complete Object Locator'
	DD	00H
	DD	00H
	DD	FLAT:??_R0?AVbad_array_new_length@std@@@8
	DD	FLAT:??_R3bad_array_new_length@std@@8
rdata$r	ENDS
;	COMDAT ??_R1A@?0A@EA@exception@std@@8
rdata$r	SEGMENT
??_R1A@?0A@EA@exception@std@@8 DD FLAT:??_R0?AVexception@std@@@8 ; std::exception::`RTTI Base Class Descriptor at (0,-1,0,64)'
	DD	00H
	DD	00H
	DD	0ffffffffH
	DD	00H
	DD	040H
	DD	FLAT:??_R3exception@std@@8
rdata$r	ENDS
;	COMDAT ??_R2exception@std@@8
rdata$r	SEGMENT
??_R2exception@std@@8 DD FLAT:??_R1A@?0A@EA@exception@std@@8 ; std::exception::`RTTI Base Class Array'
rdata$r	ENDS
;	COMDAT ??_R3exception@std@@8
rdata$r	SEGMENT
??_R3exception@std@@8 DD 00H				; std::exception::`RTTI Class Hierarchy Descriptor'
	DD	00H
	DD	01H
	DD	FLAT:??_R2exception@std@@8
rdata$r	ENDS
;	COMDAT ??_R4exception@std@@6B@
rdata$r	SEGMENT
??_R4exception@std@@6B@ DD 00H				; std::exception::`RTTI Complete Object Locator'
	DD	00H
	DD	00H
	DD	FLAT:??_R0?AVexception@std@@@8
	DD	FLAT:??_R3exception@std@@8
rdata$r	ENDS
;	COMDAT ??_7CProject@@6B@
CONST	SEGMENT
??_7CProject@@6B@ DD FLAT:??_R4CProject@@6B@		; CProject::`vftable'
	DD	FLAT:??_ECProject@@UAEPAXI@Z
CONST	ENDS
;	COMDAT ??_7?$CFixedArray@UtagColorText@@@@6B@
CONST	SEGMENT
??_7?$CFixedArray@UtagColorText@@@@6B@ DD FLAT:??_R4?$CFixedArray@UtagColorText@@@@6B@ ; CFixedArray<tagColorText>::`vftable'
	DD	FLAT:??_E?$CFixedArray@UtagColorText@@@@UAEPAXI@Z
CONST	ENDS
;	COMDAT ??_7?$CFixedArray@UItemProp@@@@6B@
CONST	SEGMENT
??_7?$CFixedArray@UItemProp@@@@6B@ DD FLAT:??_R4?$CFixedArray@UItemProp@@@@6B@ ; CFixedArray<ItemProp>::`vftable'
	DD	FLAT:??_E?$CFixedArray@UItemProp@@@@UAEPAXI@Z
CONST	ENDS
;	COMDAT ??_7CDropKindGenerator@@6B@
CONST	SEGMENT
??_7CDropKindGenerator@@6B@ DD FLAT:??_R4CDropKindGenerator@@6B@ ; CDropKindGenerator::`vftable'
	DD	FLAT:??_ECDropKindGenerator@@UAEPAXI@Z
CONST	ENDS
;	COMDAT ??_7CDropItemGenerator@@6B@
CONST	SEGMENT
??_7CDropItemGenerator@@6B@ DD FLAT:??_R4CDropItemGenerator@@6B@ ; CDropItemGenerator::`vftable'
	DD	FLAT:??_ECDropItemGenerator@@UAEPAXI@Z
CONST	ENDS
;	COMDAT ??_C@_0BB@GCADKGJO@map?1set?5too?5long@
CONST	SEGMENT
??_C@_0BB@GCADKGJO@map?1set?5too?5long@ DB 'map/set too long', 00H ; `string'
CONST	ENDS
;	COMDAT ??_C@_0BA@JFNIOLAK@string?5too?5long@
CONST	SEGMENT
??_C@_0BA@JFNIOLAK@string?5too?5long@ DB 'string too long', 00H ; `string'
CONST	ENDS
;	COMDAT __CT??_R0?AVbad_alloc@std@@@8??0bad_alloc@std@@QAE@ABV01@@Z12
xdata$x	SEGMENT
__CT??_R0?AVbad_alloc@std@@@8??0bad_alloc@std@@QAE@ABV01@@Z12 DD 010H
	DD	FLAT:??_R0?AVbad_alloc@std@@@8
	DD	00H
	DD	0ffffffffH
	ORG $+4
	DD	0cH
	DD	FLAT:??0bad_alloc@std@@QAE@ABV01@@Z
xdata$x	ENDS
;	COMDAT ??_R0?AVbad_alloc@std@@@8
data$r	SEGMENT
??_R0?AVbad_alloc@std@@@8 DD FLAT:??_7type_info@@6B@	; std::bad_alloc `RTTI Type Descriptor'
	DD	00H
	DB	'.?AVbad_alloc@std@@', 00H
data$r	ENDS
;	COMDAT __CT??_R0?AVbad_array_new_length@std@@@8??0bad_array_new_length@std@@QAE@ABV01@@Z12
xdata$x	SEGMENT
__CT??_R0?AVbad_array_new_length@std@@@8??0bad_array_new_length@std@@QAE@ABV01@@Z12 DD 00H
	DD	FLAT:??_R0?AVbad_array_new_length@std@@@8
	DD	00H
	DD	0ffffffffH
	ORG $+4
	DD	0cH
	DD	FLAT:??0bad_array_new_length@std@@QAE@ABV01@@Z
xdata$x	ENDS
;	COMDAT ??_R0?AVbad_array_new_length@std@@@8
data$r	SEGMENT
??_R0?AVbad_array_new_length@std@@@8 DD FLAT:??_7type_info@@6B@ ; std::bad_array_new_length `RTTI Type Descriptor'
	DD	00H
	DB	'.?AVbad_array_new_length@std@@', 00H
data$r	ENDS
;	COMDAT __CTA3?AVbad_array_new_length@std@@
xdata$x	SEGMENT
__CTA3?AVbad_array_new_length@std@@ DD 03H
	DD	FLAT:__CT??_R0?AVbad_array_new_length@std@@@8??0bad_array_new_length@std@@QAE@ABV01@@Z12
	DD	FLAT:__CT??_R0?AVbad_alloc@std@@@8??0bad_alloc@std@@QAE@ABV01@@Z12
	DD	FLAT:__CT??_R0?AVexception@std@@@8??0exception@std@@QAE@ABV01@@Z12
xdata$x	ENDS
;	COMDAT __TI3?AVbad_array_new_length@std@@
xdata$x	SEGMENT
__TI3?AVbad_array_new_length@std@@ DD 00H
	DD	FLAT:??1bad_array_new_length@std@@UAE@XZ
	DD	00H
	DD	FLAT:__CTA3?AVbad_array_new_length@std@@
xdata$x	ENDS
;	COMDAT __CT??_R0?AVexception@std@@@8??0exception@std@@QAE@ABV01@@Z12
xdata$x	SEGMENT
__CT??_R0?AVexception@std@@@8??0exception@std@@QAE@ABV01@@Z12 DD 00H
	DD	FLAT:??_R0?AVexception@std@@@8
	DD	00H
	DD	0ffffffffH
	ORG $+4
	DD	0cH
	DD	FLAT:??0exception@std@@QAE@ABV01@@Z
xdata$x	ENDS
;	COMDAT ??_R0?AVexception@std@@@8
data$r	SEGMENT
??_R0?AVexception@std@@@8 DD FLAT:??_7type_info@@6B@	; std::exception `RTTI Type Descriptor'
	DD	00H
	DB	'.?AVexception@std@@', 00H
data$r	ENDS
;	COMDAT ??_C@_0BF@KINCDENJ@bad?5array?5new?5length@
CONST	SEGMENT
??_C@_0BF@KINCDENJ@bad?5array?5new?5length@ DB 'bad array new length', 00H ; `string'
CONST	ENDS
;	COMDAT ??_7bad_array_new_length@std@@6B@
CONST	SEGMENT
??_7bad_array_new_length@std@@6B@ DD FLAT:??_R4bad_array_new_length@std@@6B@ ; std::bad_array_new_length::`vftable'
	DD	FLAT:??_Ebad_array_new_length@std@@UAEPAXI@Z
	DD	FLAT:?what@exception@std@@UBEPBDXZ
CONST	ENDS
;	COMDAT ??_7bad_alloc@std@@6B@
CONST	SEGMENT
??_7bad_alloc@std@@6B@ DD FLAT:??_R4bad_alloc@std@@6B@	; std::bad_alloc::`vftable'
	DD	FLAT:??_Ebad_alloc@std@@UAEPAXI@Z
	DD	FLAT:?what@exception@std@@UBEPBDXZ
CONST	ENDS
;	COMDAT ??_C@_0BC@EOODALEL@Unknown?5exception@
CONST	SEGMENT
??_C@_0BC@EOODALEL@Unknown?5exception@ DB 'Unknown exception', 00H ; `string'
CONST	ENDS
;	COMDAT ??_7exception@std@@6B@
CONST	SEGMENT
??_7exception@std@@6B@ DD FLAT:??_R4exception@std@@6B@	; std::exception::`vftable'
	DD	FLAT:??_Eexception@std@@UAEPAXI@Z
	DD	FLAT:?what@exception@std@@UBEPBDXZ
CONST	ENDS
;	COMDAT xdata$x
xdata$x	SEGMENT
__unwindtable$??$?0ABUpiecewise_construct_t@std@@V?$tuple@$$QAV?$basic_string@DU?$char_traits@D@std@@V?$allocator@D@2@@std@@@1@V?$tuple@$$V@1@@?$_Tree_temp_node@V?$allocator@U?$_Tree_node@U?$pair@$$CBV?$basic_string@DU?$char_traits@D@std@@V?$allocator@D@2@@std@@PAX@std@@PAX@std@@@std@@@std@@QAE@AAV?$allocator@U?$_Tree_node@U?$pair@$$CBV?$basic_string@DU?$char_traits@D@std@@V?$allocator@D@2@@std@@PAX@std@@PAX@std@@@1@PAU?$_Tree_node@U?$pair@$$CBV?$basic_string@DU?$char_traits@D@std@@V?$allocator@D@2@@std@@PAX@std@@PAX@1@ABUpiecewise_construct_t@1@$$QAV?$tuple@$$QAV?$basic_string@DU?$char_traits@D@std@@V?$allocator@D@2@@std@@@1@$$QAV?$tuple@$$V@1@@Z DD 0ffffffffH
	DD	FLAT:__unwindfunclet$??$?0ABUpiecewise_construct_t@std@@V?$tuple@$$QAV?$basic_string@DU?$char_traits@D@std@@V?$allocator@D@2@@std@@@1@V?$tuple@$$V@1@@?$_Tree_temp_node@V?$allocator@U?$_Tree_node@U?$pair@$$CBV?$basic_string@DU?$char_traits@D@std@@V?$allocator@D@2@@std@@PAX@std@@PAX@std@@@std@@@std@@QAE@AAV?$allocator@U?$_Tree_node@U?$pair@$$CBV?$basic_string@DU?$char_traits@D@std@@V?$allocator@D@2@@std@@PAX@std@@PAX@std@@@1@PAU?$_Tree_node@U?$pair@$$CBV?$basic_string@DU?$char_traits@D@std@@V?$allocator@D@2@@std@@PAX@std@@PAX@1@ABUpiecewise_construct_t@1@$$QAV?$tuple@$$QAV?$basic_string@DU?$char_traits@D@std@@V?$allocator@D@2@@std@@@1@$$QAV?$tuple@$$V@1@@Z$1
__ehfuncinfo$??$?0ABUpiecewise_construct_t@std@@V?$tuple@$$QAV?$basic_string@DU?$char_traits@D@std@@V?$allocator@D@2@@std@@@1@V?$tuple@$$V@1@@?$_Tree_temp_node@V?$allocator@U?$_Tree_node@U?$pair@$$CBV?$basic_string@DU?$char_traits@D@std@@V?$allocator@D@2@@std@@PAX@std@@PAX@std@@@std@@@std@@QAE@AAV?$allocator@U?$_Tree_node@U?$pair@$$CBV?$basic_string@DU?$char_traits@D@std@@V?$allocator@D@2@@std@@PAX@std@@PAX@std@@@1@PAU?$_Tree_node@U?$pair@$$CBV?$basic_string@DU?$char_traits@D@std@@V?$allocator@D@2@@std@@PAX@std@@PAX@1@ABUpiecewise_construct_t@1@$$QAV?$tuple@$$QAV?$basic_string@DU?$char_traits@D@std@@V?$allocator@D@2@@std@@@1@$$QAV?$tuple@$$V@1@@Z DD 019930522H
	DD	01H
	DD	FLAT:__unwindtable$??$?0ABUpiecewise_construct_t@std@@V?$tuple@$$QAV?$basic_string@DU?$char_traits@D@std@@V?$allocator@D@2@@std@@@1@V?$tuple@$$V@1@@?$_Tree_temp_node@V?$allocator@U?$_Tree_node@U?$pair@$$CBV?$basic_string@DU?$char_traits@D@std@@V?$allocator@D@2@@std@@PAX@std@@PAX@std@@@std@@@std@@QAE@AAV?$allocator@U?$_Tree_node@U?$pair@$$CBV?$basic_string@DU?$char_traits@D@std@@V?$allocator@D@2@@std@@PAX@std@@PAX@std@@@1@PAU?$_Tree_node@U?$pair@$$CBV?$basic_string@DU?$char_traits@D@std@@V?$allocator@D@2@@std@@PAX@std@@PAX@1@ABUpiecewise_construct_t@1@$$QAV?$tuple@$$QAV?$basic_string@DU?$char_traits@D@std@@V?$allocator@D@2@@std@@@1@$$QAV?$tuple@$$V@1@@Z
	DD	2 DUP(00H)
	DD	2 DUP(00H)
	DD	00H
	DD	01H
xdata$x	ENDS
;	COMDAT xdata$x
xdata$x	SEGMENT
__unwindtable$??0?$_Tree_temp_node_alloc@V?$allocator@U?$_Tree_node@U?$pair@$$CBV?$basic_string@DU?$char_traits@D@std@@V?$allocator@D@2@@std@@PAX@std@@PAX@std@@@std@@@std@@QAE@AAV?$allocator@U?$_Tree_node@U?$pair@$$CBV?$basic_string@DU?$char_traits@D@std@@V?$allocator@D@2@@std@@PAX@std@@PAX@std@@@1@@Z DD 0ffffffffH
	DD	FLAT:__unwindfunclet$??0?$_Tree_temp_node_alloc@V?$allocator@U?$_Tree_node@U?$pair@$$CBV?$basic_string@DU?$char_traits@D@std@@V?$allocator@D@2@@std@@PAX@std@@PAX@std@@@std@@@std@@QAE@AAV?$allocator@U?$_Tree_node@U?$pair@$$CBV?$basic_string@DU?$char_traits@D@std@@V?$allocator@D@2@@std@@PAX@std@@PAX@std@@@1@@Z$0
__ehfuncinfo$??0?$_Tree_temp_node_alloc@V?$allocator@U?$_Tree_node@U?$pair@$$CBV?$basic_string@DU?$char_traits@D@std@@V?$allocator@D@2@@std@@PAX@std@@PAX@std@@@std@@@std@@QAE@AAV?$allocator@U?$_Tree_node@U?$pair@$$CBV?$basic_string@DU?$char_traits@D@std@@V?$allocator@D@2@@std@@PAX@std@@PAX@std@@@1@@Z DD 019930522H
	DD	01H
	DD	FLAT:__unwindtable$??0?$_Tree_temp_node_alloc@V?$allocator@U?$_Tree_node@U?$pair@$$CBV?$basic_string@DU?$char_traits@D@std@@V?$allocator@D@2@@std@@PAX@std@@PAX@std@@@std@@@std@@QAE@AAV?$allocator@U?$_Tree_node@U?$pair@$$CBV?$basic_string@DU?$char_traits@D@std@@V?$allocator@D@2@@std@@PAX@std@@PAX@std@@@1@@Z
	DD	2 DUP(00H)
	DD	2 DUP(00H)
	DD	00H
	DD	01H
xdata$x	ENDS
;	COMDAT xdata$x
xdata$x	SEGMENT
__unwindtable$??$_Try_emplace@V?$basic_string@DU?$char_traits@D@std@@V?$allocator@D@2@@std@@$$V@?$map@V?$basic_string@DU?$char_traits@D@std@@V?$allocator@D@2@@std@@PAXU?$less@V?$basic_string@DU?$char_traits@D@std@@V?$allocator@D@2@@std@@@2@V?$allocator@U?$pair@$$CBV?$basic_string@DU?$char_traits@D@std@@V?$allocator@D@2@@std@@PAX@std@@@2@@std@@AAE?AU?$pair@PAU?$_Tree_node@U?$pair@$$CBV?$basic_string@DU?$char_traits@D@std@@V?$allocator@D@2@@std@@PAX@std@@PAX@std@@_N@1@$$QAV?$basic_string@DU?$char_traits@D@std@@V?$allocator@D@2@@1@@Z DD 0ffffffffH
	DD	FLAT:__unwindfunclet$??$_Try_emplace@V?$basic_string@DU?$char_traits@D@std@@V?$allocator@D@2@@std@@$$V@?$map@V?$basic_string@DU?$char_traits@D@std@@V?$allocator@D@2@@std@@PAXU?$less@V?$basic_string@DU?$char_traits@D@std@@V?$allocator@D@2@@std@@@2@V?$allocator@U?$pair@$$CBV?$basic_string@DU?$char_traits@D@std@@V?$allocator@D@2@@std@@PAX@std@@@2@@std@@AAE?AU?$pair@PAU?$_Tree_node@U?$pair@$$CBV?$basic_string@DU?$char_traits@D@std@@V?$allocator@D@2@@std@@PAX@std@@PAX@std@@_N@1@$$QAV?$basic_string@DU?$char_traits@D@std@@V?$allocator@D@2@@1@@Z$2
__ehfuncinfo$??$_Try_emplace@V?$basic_string@DU?$char_traits@D@std@@V?$allocator@D@2@@std@@$$V@?$map@V?$basic_string@DU?$char_traits@D@std@@V?$allocator@D@2@@std@@PAXU?$less@V?$basic_string@DU?$char_traits@D@std@@V?$allocator@D@2@@std@@@2@V?$allocator@U?$pair@$$CBV?$basic_string@DU?$char_traits@D@std@@V?$allocator@D@2@@std@@PAX@std@@@2@@std@@AAE?AU?$pair@PAU?$_Tree_node@U?$pair@$$CBV?$basic_string@DU?$char_traits@D@std@@V?$allocator@D@2@@std@@PAX@std@@PAX@std@@_N@1@$$QAV?$basic_string@DU?$char_traits@D@std@@V?$allocator@D@2@@1@@Z DD 019930522H
	DD	01H
	DD	FLAT:__unwindtable$??$_Try_emplace@V?$basic_string@DU?$char_traits@D@std@@V?$allocator@D@2@@std@@$$V@?$map@V?$basic_string@DU?$char_traits@D@std@@V?$allocator@D@2@@std@@PAXU?$less@V?$basic_string@DU?$char_traits@D@std@@V?$allocator@D@2@@std@@@2@V?$allocator@U?$pair@$$CBV?$basic_string@DU?$char_traits@D@std@@V?$allocator@D@2@@std@@PAX@std@@@2@@std@@AAE?AU?$pair@PAU?$_Tree_node@U?$pair@$$CBV?$basic_string@DU?$char_traits@D@std@@V?$allocator@D@2@@std@@PAX@std@@PAX@std@@_N@1@$$QAV?$basic_string@DU?$char_traits@D@std@@V?$allocator@D@2@@1@@Z
	DD	2 DUP(00H)
	DD	2 DUP(00H)
	DD	00H
	DD	01H
xdata$x	ENDS
;	COMDAT xdata$x
xdata$x	SEGMENT
__unwindtable$?LoadExpTable@CProject@@QAEHPBD@Z DD 0ffffffffH
	DD	FLAT:__unwindfunclet$?LoadExpTable@CProject@@QAEHPBD@Z$0
__ehfuncinfo$?LoadExpTable@CProject@@QAEHPBD@Z DD 019930522H
	DD	01H
	DD	FLAT:__unwindtable$?LoadExpTable@CProject@@QAEHPBD@Z
	DD	2 DUP(00H)
	DD	2 DUP(00H)
	DD	00H
	DD	01H
xdata$x	ENDS
;	COMDAT xdata$x
xdata$x	SEGMENT
__unwindtable$?LoadDefOfWorld@CProject@@QAEHPBD@Z DD 0ffffffffH
	DD	FLAT:__unwindfunclet$?LoadDefOfWorld@CProject@@QAEHPBD@Z$0
__ehfuncinfo$?LoadDefOfWorld@CProject@@QAEHPBD@Z DD 019930522H
	DD	01H
	DD	FLAT:__unwindtable$?LoadDefOfWorld@CProject@@QAEHPBD@Z
	DD	2 DUP(00H)
	DD	2 DUP(00H)
	DD	00H
	DD	01H
xdata$x	ENDS
;	COMDAT xdata$x
xdata$x	SEGMENT
__unwindtable$?AddBeginPos@CProject@@QAEXPBDABUD3DXVECTOR3@@@Z DD 0ffffffffH
	DD	FLAT:__unwindfunclet$?AddBeginPos@CProject@@QAEXPBDABUD3DXVECTOR3@@@Z$2
	DD	00H
	DD	FLAT:__unwindfunclet$?AddBeginPos@CProject@@QAEXPBDABUD3DXVECTOR3@@@Z$6
__ehfuncinfo$?AddBeginPos@CProject@@QAEXPBDABUD3DXVECTOR3@@@Z DD 019930522H
	DD	02H
	DD	FLAT:__unwindtable$?AddBeginPos@CProject@@QAEXPBDABUD3DXVECTOR3@@@Z
	DD	2 DUP(00H)
	DD	2 DUP(00H)
	DD	00H
	DD	01H
xdata$x	ENDS
;	COMDAT xdata$x
xdata$x	SEGMENT
__unwindtable$?LoadBeginPos@CProject@@QAEXXZ DD 0ffffffffH
	DD	FLAT:__unwindfunclet$?LoadBeginPos@CProject@@QAEXXZ$1
	DD	00H
	DD	FLAT:__unwindfunclet$?LoadBeginPos@CProject@@QAEXXZ$2
	DD	00H
	DD	FLAT:__unwindfunclet$?LoadBeginPos@CProject@@QAEXXZ$3
__ehfuncinfo$?LoadBeginPos@CProject@@QAEXXZ DD 019930522H
	DD	03H
	DD	FLAT:__unwindtable$?LoadBeginPos@CProject@@QAEXXZ
	DD	2 DUP(00H)
	DD	2 DUP(00H)
	DD	00H
	DD	01H
xdata$x	ENDS
;	COMDAT xdata$x
xdata$x	SEGMENT
__unwindtable$?OpenProject@CProject@@QAEHPBD@Z DD 0ffffffffH
	DD	FLAT:__unwindfunclet$?OpenProject@CProject@@QAEHPBD@Z$0
__ehfuncinfo$?OpenProject@CProject@@QAEHPBD@Z DD 019930522H
	DD	01H
	DD	FLAT:__unwindtable$?OpenProject@CProject@@QAEHPBD@Z
	DD	2 DUP(00H)
	DD	2 DUP(00H)
	DD	00H
	DD	01H
xdata$x	ENDS
;	COMDAT xdata$x
xdata$x	SEGMENT
__unwindtable$??A?$map@V?$basic_string@DU?$char_traits@D@std@@V?$allocator@D@2@@std@@PAXU?$less@V?$basic_string@DU?$char_traits@D@std@@V?$allocator@D@2@@std@@@2@V?$allocator@U?$pair@$$CBV?$basic_string@DU?$char_traits@D@std@@V?$allocator@D@2@@std@@PAX@std@@@2@@std@@QAEAAPAX$$QAV?$basic_string@DU?$char_traits@D@std@@V?$allocator@D@2@@1@@Z DD 0ffffffffH
	DD	FLAT:__unwindfunclet$??A?$map@V?$basic_string@DU?$char_traits@D@std@@V?$allocator@D@2@@std@@PAXU?$less@V?$basic_string@DU?$char_traits@D@std@@V?$allocator@D@2@@std@@@2@V?$allocator@U?$pair@$$CBV?$basic_string@DU?$char_traits@D@std@@V?$allocator@D@2@@std@@PAX@std@@@2@@std@@QAEAAPAX$$QAV?$basic_string@DU?$char_traits@D@std@@V?$allocator@D@2@@1@@Z$2
__ehfuncinfo$??A?$map@V?$basic_string@DU?$char_traits@D@std@@V?$allocator@D@2@@std@@PAXU?$less@V?$basic_string@DU?$char_traits@D@std@@V?$allocator@D@2@@std@@@2@V?$allocator@U?$pair@$$CBV?$basic_string@DU?$char_traits@D@std@@V?$allocator@D@2@@std@@PAX@std@@@2@@std@@QAEAAPAX$$QAV?$basic_string@DU?$char_traits@D@std@@V?$allocator@D@2@@1@@Z DD 019930522H
	DD	01H
	DD	FLAT:__unwindtable$??A?$map@V?$basic_string@DU?$char_traits@D@std@@V?$allocator@D@2@@std@@PAXU?$less@V?$basic_string@DU?$char_traits@D@std@@V?$allocator@D@2@@std@@@2@V?$allocator@U?$pair@$$CBV?$basic_string@DU?$char_traits@D@std@@V?$allocator@D@2@@std@@PAX@std@@@2@@std@@QAEAAPAX$$QAV?$basic_string@DU?$char_traits@D@std@@V?$allocator@D@2@@1@@Z
	DD	2 DUP(00H)
	DD	2 DUP(00H)
	DD	00H
	DD	01H
xdata$x	ENDS
;	COMDAT xdata$x
xdata$x	SEGMENT
__unwindtable$??1CProject@@UAE@XZ DD 0ffffffffH
	DD	FLAT:___std_terminate
__ehfuncinfo$??1CProject@@UAE@XZ DD 019930522H
	DD	01H
	DD	FLAT:__unwindtable$??1CProject@@UAE@XZ
	DD	2 DUP(00H)
	DD	2 DUP(00H)
	DD	00H
	DD	05H
xdata$x	ENDS
;	COMDAT xdata$x
xdata$x	SEGMENT
__ehfuncinfo$??0CProject@@QAE@XZ DD 019930522H
	DD	0cH
	DD	FLAT:__unwindtable$??0CProject@@QAE@XZ
	DD	2 DUP(00H)
	DD	2 DUP(00H)
	DD	00H
	DD	01H
__unwindtable$??0CProject@@QAE@XZ DD 0ffffffffH
	DD	FLAT:__unwindfunclet$??0CProject@@QAE@XZ$0
	DD	00H
	DD	FLAT:__unwindfunclet$??0CProject@@QAE@XZ$1
	DD	01H
	DD	FLAT:__unwindfunclet$??0CProject@@QAE@XZ$2
	DD	02H
	DD	FLAT:__unwindfunclet$??0CProject@@QAE@XZ$3
	DD	03H
	DD	FLAT:__unwindfunclet$??0CProject@@QAE@XZ$4
	DD	04H
	DD	FLAT:__unwindfunclet$??0CProject@@QAE@XZ$5
	DD	05H
	DD	FLAT:__unwindfunclet$??0CProject@@QAE@XZ$6
	DD	06H
	DD	FLAT:__unwindfunclet$??0CProject@@QAE@XZ$7
	DD	07H
	DD	FLAT:__unwindfunclet$??0CProject@@QAE@XZ$8
	DD	08H
	DD	FLAT:__unwindfunclet$??0CProject@@QAE@XZ$9
	DD	09H
	DD	FLAT:__unwindfunclet$??0CProject@@QAE@XZ$10
	DD	0aH
	DD	FLAT:__unwindfunclet$??0CProject@@QAE@XZ$11
xdata$x	ENDS
;	COMDAT xdata$x
xdata$x	SEGMENT
__ehfuncinfo$??_EMoverProp@@QAEPAXI@Z DD 019930522H
	DD	00H
	DD	00H
	DD	2 DUP(00H)
	DD	2 DUP(00H)
	DD	00H
	DD	05H
xdata$x	ENDS
; Function compile flags: /Ogtp
; File C:\Program Files\Microsoft Visual Studio\2022\Professional\VC\Tools\MSVC\14.44.35207\include\xmemory
;	COMDAT ??1?$_Alloc_construct_ptr@V?$allocator@U?$_Tree_node@U?$pair@$$CBV?$basic_string@DU?$char_traits@D@std@@V?$allocator@D@2@@std@@PAX@std@@PAX@std@@@std@@@std@@QAE@XZ
_TEXT	SEGMENT
??1?$_Alloc_construct_ptr@V?$allocator@U?$_Tree_node@U?$pair@$$CBV?$basic_string@DU?$char_traits@D@std@@V?$allocator@D@2@@std@@PAX@std@@PAX@std@@@std@@@std@@QAE@XZ PROC ; std::_Alloc_construct_ptr<std::allocator<std::_Tree_node<std::pair<std::basic_string<char,std::char_traits<char>,std::allocator<char> > const ,void *>,void *> > >::~_Alloc_construct_ptr<std::allocator<std::_Tree_node<std::pair<std::basic_string<char,std::char_traits<char>,std::allocator<char> > const ,void *>,void *> > >, COMDAT
; _this$ = ecx

; 1172 :         if (_Ptr) {

  00000	8b 41 04	 mov	 eax, DWORD PTR [ecx+4]
  00003	85 c0		 test	 eax, eax
  00005	74 0b		 je	 SHORT $LN10@Alloc_cons

; 289  :         ::operator delete(_Ptr, _Bytes);

  00007	6a 2c		 push	 44			; 0000002cH
  00009	50		 push	 eax
  0000a	e8 00 00 00 00	 call	 ??3@YAXPAXI@Z		; operator delete
  0000f	83 c4 08	 add	 esp, 8
$LN10@Alloc_cons:

; 1173 :             _Al.deallocate(_Ptr, 1);
; 1174 :         }
; 1175 :     }

  00012	c3		 ret	 0
??1?$_Alloc_construct_ptr@V?$allocator@U?$_Tree_node@U?$pair@$$CBV?$basic_string@DU?$char_traits@D@std@@V?$allocator@D@2@@std@@PAX@std@@PAX@std@@@std@@@std@@QAE@XZ ENDP ; std::_Alloc_construct_ptr<std::allocator<std::_Tree_node<std::pair<std::basic_string<char,std::char_traits<char>,std::allocator<char> > const ,void *>,void *> > >::~_Alloc_construct_ptr<std::allocator<std::_Tree_node<std::pair<std::basic_string<char,std::char_traits<char>,std::allocator<char> > const ,void *>,void *> > >
_TEXT	ENDS
; Function compile flags: /Ogtp
; File C:\Program Files\Microsoft Visual Studio\2022\Professional\VC\Tools\MSVC\14.44.35207\include\xtree
; File C:\Program Files\Microsoft Visual Studio\2022\Professional\VC\Tools\MSVC\14.44.35207\include\utility
; File C:\Program Files\Microsoft Visual Studio\2022\Professional\VC\Tools\MSVC\14.44.35207\include\xtree
; File C:\Program Files\Microsoft Visual Studio\2022\Professional\VC\Tools\MSVC\14.44.35207\include\xmemory
; File C:\Program Files\Microsoft Visual Studio\2022\Professional\VC\Tools\MSVC\14.44.35207\include\xtree
; File C:\Program Files\Microsoft Visual Studio\2022\Professional\VC\Tools\MSVC\14.44.35207\include\xmemory
; File C:\Program Files\Microsoft Visual Studio\2022\Professional\VC\Tools\MSVC\14.44.35207\include\xtree
;	COMDAT ??$_Erase_tree@V?$allocator@U?$_Tree_node@U?$pair@$$CBV?$basic_string@DU?$char_traits@D@std@@V?$allocator@D@2@@std@@K@std@@PAX@std@@@std@@@?$_Tree_val@U?$_Tree_simple_types@U?$pair@$$CBV?$basic_string@DU?$char_traits@D@std@@V?$allocator@D@2@@std@@K@std@@@std@@@std@@QAEXAAV?$allocator@U?$_Tree_node@U?$pair@$$CBV?$basic_string@DU?$char_traits@D@std@@V?$allocator@D@2@@std@@K@std@@PAX@std@@@1@PAU?$_Tree_node@U?$pair@$$CBV?$basic_string@DU?$char_traits@D@std@@V?$allocator@D@2@@std@@K@std@@PAX@1@@Z
_TEXT	SEGMENT
_this$1$ = -4						; size = 4
__Al$ = 8						; size = 4
__Rootnode$ = 12					; size = 4
??$_Erase_tree@V?$allocator@U?$_Tree_node@U?$pair@$$CBV?$basic_string@DU?$char_traits@D@std@@V?$allocator@D@2@@std@@K@std@@PAX@std@@@std@@@?$_Tree_val@U?$_Tree_simple_types@U?$pair@$$CBV?$basic_string@DU?$char_traits@D@std@@V?$allocator@D@2@@std@@K@std@@@std@@@std@@QAEXAAV?$allocator@U?$_Tree_node@U?$pair@$$CBV?$basic_string@DU?$char_traits@D@std@@V?$allocator@D@2@@std@@K@std@@PAX@std@@@1@PAU?$_Tree_node@U?$pair@$$CBV?$basic_string@DU?$char_traits@D@std@@V?$allocator@D@2@@std@@K@std@@PAX@1@@Z PROC ; std::_Tree_val<std::_Tree_simple_types<std::pair<std::basic_string<char,std::char_traits<char>,std::allocator<char> > const ,unsigned long> > >::_Erase_tree<std::allocator<std::_Tree_node<std::pair<std::basic_string<char,std::char_traits<char>,std::allocator<char> > const ,unsigned long>,void *> > >, COMDAT
; _this$ = ecx

; 767  :     void _Erase_tree(_Alnode& _Al, _Nodeptr _Rootnode) noexcept {

  00000	55		 push	 ebp
  00001	8b ec		 mov	 ebp, esp
  00003	51		 push	 ecx
  00004	56		 push	 esi

; 768  :         while (!_Rootnode->_Isnil) { // free subtrees, then node

  00005	8b 75 0c	 mov	 esi, DWORD PTR __Rootnode$[ebp]
  00008	8b c1		 mov	 eax, ecx
  0000a	89 45 fc	 mov	 DWORD PTR _this$1$[ebp], eax
  0000d	80 7e 0d 00	 cmp	 BYTE PTR [esi+13], 0
  00011	75 32		 jne	 SHORT $LN45@Erase_tree
  00013	53		 push	 ebx
  00014	8b 5d 08	 mov	 ebx, DWORD PTR __Al$[ebp]
  00017	57		 push	 edi
$LL2@Erase_tree:

; 769  :             _Erase_tree(_Al, _Rootnode->_Right);

  00018	ff 76 08	 push	 DWORD PTR [esi+8]
  0001b	8b c8		 mov	 ecx, eax
  0001d	53		 push	 ebx
  0001e	e8 00 00 00 00	 call	 ??$_Erase_tree@V?$allocator@U?$_Tree_node@U?$pair@$$CBV?$basic_string@DU?$char_traits@D@std@@V?$allocator@D@2@@std@@K@std@@PAX@std@@@std@@@?$_Tree_val@U?$_Tree_simple_types@U?$pair@$$CBV?$basic_string@DU?$char_traits@D@std@@V?$allocator@D@2@@std@@K@std@@@std@@@std@@QAEXAAV?$allocator@U?$_Tree_node@U?$pair@$$CBV?$basic_string@DU?$char_traits@D@std@@V?$allocator@D@2@@std@@K@std@@PAX@std@@@1@PAU?$_Tree_node@U?$pair@$$CBV?$basic_string@DU?$char_traits@D@std@@V?$allocator@D@2@@std@@K@std@@PAX@1@@Z ; std::_Tree_val<std::_Tree_simple_types<std::pair<std::basic_string<char,std::char_traits<char>,std::allocator<char> > const ,unsigned long> > >::_Erase_tree<std::allocator<std::_Tree_node<std::pair<std::basic_string<char,std::char_traits<char>,std::allocator<char> > const ,unsigned long>,void *> > >
; File C:\Program Files\Microsoft Visual Studio\2022\Professional\VC\Tools\MSVC\14.44.35207\include\utility

; 773  :     _Ty _Old_val = static_cast<_Ty&&>(_Val);

  00023	8b fe		 mov	 edi, esi

; 774  :     _Val         = static_cast<_Other&&>(_New_val);

  00025	8b 36		 mov	 esi, DWORD PTR [esi]
; File C:\Program Files\Microsoft Visual Studio\2022\Professional\VC\Tools\MSVC\14.44.35207\include\xtree

; 381  :         allocator_traits<_Alloc>::destroy(_Al, _STD addressof(_Ptr->_Myval));

  00027	8d 4f 10	 lea	 ecx, DWORD PTR [edi+16]
  0002a	e8 00 00 00 00	 call	 ??1?$basic_string@DU?$char_traits@D@std@@V?$allocator@D@2@@std@@QAE@XZ ; std::basic_string<char,std::char_traits<char>,std::allocator<char> >::~basic_string<char,std::char_traits<char>,std::allocator<char> >
; File C:\Program Files\Microsoft Visual Studio\2022\Professional\VC\Tools\MSVC\14.44.35207\include\xmemory

; 289  :         ::operator delete(_Ptr, _Bytes);

  0002f	6a 2c		 push	 44			; 0000002cH
  00031	57		 push	 edi
  00032	e8 00 00 00 00	 call	 ??3@YAXPAXI@Z		; operator delete
; File C:\Program Files\Microsoft Visual Studio\2022\Professional\VC\Tools\MSVC\14.44.35207\include\xtree

; 768  :         while (!_Rootnode->_Isnil) { // free subtrees, then node

  00037	8b 45 fc	 mov	 eax, DWORD PTR _this$1$[ebp]
; File C:\Program Files\Microsoft Visual Studio\2022\Professional\VC\Tools\MSVC\14.44.35207\include\xmemory

; 289  :         ::operator delete(_Ptr, _Bytes);

  0003a	83 c4 08	 add	 esp, 8
; File C:\Program Files\Microsoft Visual Studio\2022\Professional\VC\Tools\MSVC\14.44.35207\include\xtree

; 768  :         while (!_Rootnode->_Isnil) { // free subtrees, then node

  0003d	80 7e 0d 00	 cmp	 BYTE PTR [esi+13], 0
  00041	74 d5		 je	 SHORT $LL2@Erase_tree
  00043	5f		 pop	 edi
  00044	5b		 pop	 ebx
$LN45@Erase_tree:
  00045	5e		 pop	 esi

; 770  :             _Alnode::value_type::_Freenode(_Al, _STD exchange(_Rootnode, _Rootnode->_Left));
; 771  :         }
; 772  :     }

  00046	8b e5		 mov	 esp, ebp
  00048	5d		 pop	 ebp
  00049	c2 08 00	 ret	 8
??$_Erase_tree@V?$allocator@U?$_Tree_node@U?$pair@$$CBV?$basic_string@DU?$char_traits@D@std@@V?$allocator@D@2@@std@@K@std@@PAX@std@@@std@@@?$_Tree_val@U?$_Tree_simple_types@U?$pair@$$CBV?$basic_string@DU?$char_traits@D@std@@V?$allocator@D@2@@std@@K@std@@@std@@@std@@QAEXAAV?$allocator@U?$_Tree_node@U?$pair@$$CBV?$basic_string@DU?$char_traits@D@std@@V?$allocator@D@2@@std@@K@std@@PAX@std@@@1@PAU?$_Tree_node@U?$pair@$$CBV?$basic_string@DU?$char_traits@D@std@@V?$allocator@D@2@@std@@K@std@@PAX@1@@Z ENDP ; std::_Tree_val<std::_Tree_simple_types<std::pair<std::basic_string<char,std::char_traits<char>,std::allocator<char> > const ,unsigned long> > >::_Erase_tree<std::allocator<std::_Tree_node<std::pair<std::basic_string<char,std::char_traits<char>,std::allocator<char> > const ,unsigned long>,void *> > >
_TEXT	ENDS
; Function compile flags: /Ogtp
; File C:\Program Files\Microsoft Visual Studio\2022\Professional\VC\Tools\MSVC\14.44.35207\include\xtree
; File C:\Program Files\Microsoft Visual Studio\2022\Professional\VC\Tools\MSVC\14.44.35207\include\utility
; File C:\Program Files\Microsoft Visual Studio\2022\Professional\VC\Tools\MSVC\14.44.35207\include\xtree
; File C:\Program Files\Microsoft Visual Studio\2022\Professional\VC\Tools\MSVC\14.44.35207\include\xmemory
; File C:\Program Files\Microsoft Visual Studio\2022\Professional\VC\Tools\MSVC\14.44.35207\include\xtree
; File C:\Program Files\Microsoft Visual Studio\2022\Professional\VC\Tools\MSVC\14.44.35207\include\xmemory
; File C:\Program Files\Microsoft Visual Studio\2022\Professional\VC\Tools\MSVC\14.44.35207\include\xtree
;	COMDAT ??$_Erase_tree@V?$allocator@U?$_Tree_node@U?$pair@$$CBV?$basic_string@DU?$char_traits@D@std@@V?$allocator@D@2@@std@@PAX@std@@PAX@std@@@std@@@?$_Tree_val@U?$_Tree_simple_types@U?$pair@$$CBV?$basic_string@DU?$char_traits@D@std@@V?$allocator@D@2@@std@@PAX@std@@@std@@@std@@QAEXAAV?$allocator@U?$_Tree_node@U?$pair@$$CBV?$basic_string@DU?$char_traits@D@std@@V?$allocator@D@2@@std@@PAX@std@@PAX@std@@@1@PAU?$_Tree_node@U?$pair@$$CBV?$basic_string@DU?$char_traits@D@std@@V?$allocator@D@2@@std@@PAX@std@@PAX@1@@Z
_TEXT	SEGMENT
_this$1$ = -4						; size = 4
__Al$ = 8						; size = 4
__Rootnode$ = 12					; size = 4
??$_Erase_tree@V?$allocator@U?$_Tree_node@U?$pair@$$CBV?$basic_string@DU?$char_traits@D@std@@V?$allocator@D@2@@std@@PAX@std@@PAX@std@@@std@@@?$_Tree_val@U?$_Tree_simple_types@U?$pair@$$CBV?$basic_string@DU?$char_traits@D@std@@V?$allocator@D@2@@std@@PAX@std@@@std@@@std@@QAEXAAV?$allocator@U?$_Tree_node@U?$pair@$$CBV?$basic_string@DU?$char_traits@D@std@@V?$allocator@D@2@@std@@PAX@std@@PAX@std@@@1@PAU?$_Tree_node@U?$pair@$$CBV?$basic_string@DU?$char_traits@D@std@@V?$allocator@D@2@@std@@PAX@std@@PAX@1@@Z PROC ; std::_Tree_val<std::_Tree_simple_types<std::pair<std::basic_string<char,std::char_traits<char>,std::allocator<char> > const ,void *> > >::_Erase_tree<std::allocator<std::_Tree_node<std::pair<std::basic_string<char,std::char_traits<char>,std::allocator<char> > const ,void *>,void *> > >, COMDAT
; _this$ = ecx

; 767  :     void _Erase_tree(_Alnode& _Al, _Nodeptr _Rootnode) noexcept {

  00000	55		 push	 ebp
  00001	8b ec		 mov	 ebp, esp
  00003	51		 push	 ecx
  00004	56		 push	 esi

; 768  :         while (!_Rootnode->_Isnil) { // free subtrees, then node

  00005	8b 75 0c	 mov	 esi, DWORD PTR __Rootnode$[ebp]
  00008	8b c1		 mov	 eax, ecx
  0000a	89 45 fc	 mov	 DWORD PTR _this$1$[ebp], eax
  0000d	80 7e 0d 00	 cmp	 BYTE PTR [esi+13], 0
  00011	75 32		 jne	 SHORT $LN45@Erase_tree
  00013	53		 push	 ebx
  00014	8b 5d 08	 mov	 ebx, DWORD PTR __Al$[ebp]
  00017	57		 push	 edi
$LL2@Erase_tree:

; 769  :             _Erase_tree(_Al, _Rootnode->_Right);

  00018	ff 76 08	 push	 DWORD PTR [esi+8]
  0001b	8b c8		 mov	 ecx, eax
  0001d	53		 push	 ebx
  0001e	e8 00 00 00 00	 call	 ??$_Erase_tree@V?$allocator@U?$_Tree_node@U?$pair@$$CBV?$basic_string@DU?$char_traits@D@std@@V?$allocator@D@2@@std@@PAX@std@@PAX@std@@@std@@@?$_Tree_val@U?$_Tree_simple_types@U?$pair@$$CBV?$basic_string@DU?$char_traits@D@std@@V?$allocator@D@2@@std@@PAX@std@@@std@@@std@@QAEXAAV?$allocator@U?$_Tree_node@U?$pair@$$CBV?$basic_string@DU?$char_traits@D@std@@V?$allocator@D@2@@std@@PAX@std@@PAX@std@@@1@PAU?$_Tree_node@U?$pair@$$CBV?$basic_string@DU?$char_traits@D@std@@V?$allocator@D@2@@std@@PAX@std@@PAX@1@@Z ; std::_Tree_val<std::_Tree_simple_types<std::pair<std::basic_string<char,std::char_traits<char>,std::allocator<char> > const ,void *> > >::_Erase_tree<std::allocator<std::_Tree_node<std::pair<std::basic_string<char,std::char_traits<char>,std::allocator<char> > const ,void *>,void *> > >
; File C:\Program Files\Microsoft Visual Studio\2022\Professional\VC\Tools\MSVC\14.44.35207\include\utility

; 773  :     _Ty _Old_val = static_cast<_Ty&&>(_Val);

  00023	8b fe		 mov	 edi, esi

; 774  :     _Val         = static_cast<_Other&&>(_New_val);

  00025	8b 36		 mov	 esi, DWORD PTR [esi]
; File C:\Program Files\Microsoft Visual Studio\2022\Professional\VC\Tools\MSVC\14.44.35207\include\xtree

; 381  :         allocator_traits<_Alloc>::destroy(_Al, _STD addressof(_Ptr->_Myval));

  00027	8d 4f 10	 lea	 ecx, DWORD PTR [edi+16]
  0002a	e8 00 00 00 00	 call	 ??1?$basic_string@DU?$char_traits@D@std@@V?$allocator@D@2@@std@@QAE@XZ ; std::basic_string<char,std::char_traits<char>,std::allocator<char> >::~basic_string<char,std::char_traits<char>,std::allocator<char> >
; File C:\Program Files\Microsoft Visual Studio\2022\Professional\VC\Tools\MSVC\14.44.35207\include\xmemory

; 289  :         ::operator delete(_Ptr, _Bytes);

  0002f	6a 2c		 push	 44			; 0000002cH
  00031	57		 push	 edi
  00032	e8 00 00 00 00	 call	 ??3@YAXPAXI@Z		; operator delete
; File C:\Program Files\Microsoft Visual Studio\2022\Professional\VC\Tools\MSVC\14.44.35207\include\xtree

; 768  :         while (!_Rootnode->_Isnil) { // free subtrees, then node

  00037	8b 45 fc	 mov	 eax, DWORD PTR _this$1$[ebp]
; File C:\Program Files\Microsoft Visual Studio\2022\Professional\VC\Tools\MSVC\14.44.35207\include\xmemory

; 289  :         ::operator delete(_Ptr, _Bytes);

  0003a	83 c4 08	 add	 esp, 8
; File C:\Program Files\Microsoft Visual Studio\2022\Professional\VC\Tools\MSVC\14.44.35207\include\xtree

; 768  :         while (!_Rootnode->_Isnil) { // free subtrees, then node

  0003d	80 7e 0d 00	 cmp	 BYTE PTR [esi+13], 0
  00041	74 d5		 je	 SHORT $LL2@Erase_tree
  00043	5f		 pop	 edi
  00044	5b		 pop	 ebx
$LN45@Erase_tree:
  00045	5e		 pop	 esi

; 770  :             _Alnode::value_type::_Freenode(_Al, _STD exchange(_Rootnode, _Rootnode->_Left));
; 771  :         }
; 772  :     }

  00046	8b e5		 mov	 esp, ebp
  00048	5d		 pop	 ebp
  00049	c2 08 00	 ret	 8
??$_Erase_tree@V?$allocator@U?$_Tree_node@U?$pair@$$CBV?$basic_string@DU?$char_traits@D@std@@V?$allocator@D@2@@std@@PAX@std@@PAX@std@@@std@@@?$_Tree_val@U?$_Tree_simple_types@U?$pair@$$CBV?$basic_string@DU?$char_traits@D@std@@V?$allocator@D@2@@std@@PAX@std@@@std@@@std@@QAEXAAV?$allocator@U?$_Tree_node@U?$pair@$$CBV?$basic_string@DU?$char_traits@D@std@@V?$allocator@D@2@@std@@PAX@std@@PAX@std@@@1@PAU?$_Tree_node@U?$pair@$$CBV?$basic_string@DU?$char_traits@D@std@@V?$allocator@D@2@@std@@PAX@std@@PAX@1@@Z ENDP ; std::_Tree_val<std::_Tree_simple_types<std::pair<std::basic_string<char,std::char_traits<char>,std::allocator<char> > const ,void *> > >::_Erase_tree<std::allocator<std::_Tree_node<std::pair<std::basic_string<char,std::char_traits<char>,std::allocator<char> > const ,void *>,void *> > >
_TEXT	ENDS
; Function compile flags: /Ogtp
; File C:\Program Files\Microsoft Visual Studio\2022\Professional\VC\Tools\MSVC\14.44.35207\include\xtree
; File C:\Program Files\Microsoft Visual Studio\2022\Professional\VC\Tools\MSVC\14.44.35207\include\type_traits
; File C:\Program Files\Microsoft Visual Studio\2022\Professional\VC\Tools\MSVC\14.44.35207\include\xtree
;	COMDAT ??$_Find_lower_bound@V?$basic_string@DU?$char_traits@D@std@@V?$allocator@D@2@@std@@@?$_Tree@V?$_Tmap_traits@V?$basic_string@DU?$char_traits@D@std@@V?$allocator@D@2@@std@@PAXU?$less@V?$basic_string@DU?$char_traits@D@std@@V?$allocator@D@2@@std@@@2@V?$allocator@U?$pair@$$CBV?$basic_string@DU?$char_traits@D@std@@V?$allocator@D@2@@std@@PAX@std@@@2@$0A@@std@@@std@@IBE?AU?$_Tree_find_result@PAU?$_Tree_node@U?$pair@$$CBV?$basic_string@DU?$char_traits@D@std@@V?$allocator@D@2@@std@@PAX@std@@PAX@std@@@1@ABV?$basic_string@DU?$char_traits@D@std@@V?$allocator@D@2@@1@@Z
_TEXT	SEGMENT
___$ReturnUdt$ = 8					; size = 4
__Keyval$ = 12						; size = 4
??$_Find_lower_bound@V?$basic_string@DU?$char_traits@D@std@@V?$allocator@D@2@@std@@@?$_Tree@V?$_Tmap_traits@V?$basic_string@DU?$char_traits@D@std@@V?$allocator@D@2@@std@@PAXU?$less@V?$basic_string@DU?$char_traits@D@std@@V?$allocator@D@2@@std@@@2@V?$allocator@U?$pair@$$CBV?$basic_string@DU?$char_traits@D@std@@V?$allocator@D@2@@std@@PAX@std@@@2@$0A@@std@@@std@@IBE?AU?$_Tree_find_result@PAU?$_Tree_node@U?$pair@$$CBV?$basic_string@DU?$char_traits@D@std@@V?$allocator@D@2@@std@@PAX@std@@PAX@std@@@1@ABV?$basic_string@DU?$char_traits@D@std@@V?$allocator@D@2@@1@@Z PROC ; std::_Tree<std::_Tmap_traits<std::basic_string<char,std::char_traits<char>,std::allocator<char> >,void *,std::less<std::basic_string<char,std::char_traits<char>,std::allocator<char> > >,std::allocator<std::pair<std::basic_string<char,std::char_traits<char>,std::allocator<char> > const ,void *> >,0> >::_Find_lower_bound<std::basic_string<char,std::char_traits<char>,std::allocator<char> > >, COMDAT
; _this$ = ecx

; 1628 :     _Tree_find_result<_Nodeptr> _Find_lower_bound(const _Keyty& _Keyval) const {

  00000	55		 push	 ebp
  00001	8b ec		 mov	 ebp, esp

; 1629 :         const auto _Scary = _Get_scary();
; 1630 :         _Tree_find_result<_Nodeptr> _Result{{_Scary->_Myhead->_Parent, _Tree_child::_Right}, _Scary->_Myhead};

  00003	8b 01		 mov	 eax, DWORD PTR [ecx]
  00005	56		 push	 esi
  00006	57		 push	 edi
  00007	8b 7d 08	 mov	 edi, DWORD PTR ___$ReturnUdt$[ebp]
  0000a	8b 70 04	 mov	 esi, DWORD PTR [eax+4]
  0000d	89 37		 mov	 DWORD PTR [edi], esi

; 1631 :         _Nodeptr _Trynode = _Result._Location._Parent;
; 1632 :         while (!_Trynode->_Isnil) {

  0000f	80 7e 0d 00	 cmp	 BYTE PTR [esi+13], 0
  00013	c7 47 04 00 00
	00 00		 mov	 DWORD PTR [edi+4], 0
  0001a	89 47 08	 mov	 DWORD PTR [edi+8], eax
  0001d	75 32		 jne	 SHORT $LN13@Find_lower
  0001f	53		 push	 ebx
  00020	8b 5d 0c	 mov	 ebx, DWORD PTR __Keyval$[ebp]
$LL2@Find_lower:

; 1634 :             if (_DEBUG_LT_PRED(_Getcomp(), _Traits::_Kfn(_Trynode->_Myval), _Keyval)) {

  00023	8d 46 10	 lea	 eax, DWORD PTR [esi+16]
  00026	89 37		 mov	 DWORD PTR [edi], esi
; File C:\Program Files\Microsoft Visual Studio\2022\Professional\VC\Tools\MSVC\14.44.35207\include\type_traits

; 2380 :         return _Left < _Right;

  00028	53		 push	 ebx
  00029	50		 push	 eax
  0002a	e8 00 00 00 00	 call	 ??$?MDU?$char_traits@D@std@@V?$allocator@D@1@@std@@YA_NABV?$basic_string@DU?$char_traits@D@std@@V?$allocator@D@2@@0@0@Z ; std::operator<<char,std::char_traits<char>,std::allocator<char> >
  0002f	83 c4 08	 add	 esp, 8
; File C:\Program Files\Microsoft Visual Studio\2022\Professional\VC\Tools\MSVC\14.44.35207\include\xtree

; 1634 :             if (_DEBUG_LT_PRED(_Getcomp(), _Traits::_Kfn(_Trynode->_Myval), _Keyval)) {

  00032	84 c0		 test	 al, al
  00034	74 07		 je	 SHORT $LN4@Find_lower

; 1635 :                 _Result._Location._Child = _Tree_child::_Right;
; 1636 :                 _Trynode                 = _Trynode->_Right;

  00036	8b 76 08	 mov	 esi, DWORD PTR [esi+8]
  00039	33 c0		 xor	 eax, eax

; 1637 :             } else {

  0003b	eb 0a		 jmp	 SHORT $LN5@Find_lower
$LN4@Find_lower:

; 1638 :                 _Result._Location._Child = _Tree_child::_Left;
; 1639 :                 _Result._Bound           = _Trynode;

  0003d	89 77 08	 mov	 DWORD PTR [edi+8], esi

; 1640 :                 _Trynode                 = _Trynode->_Left;

  00040	b8 01 00 00 00	 mov	 eax, 1
  00045	8b 36		 mov	 esi, DWORD PTR [esi]
$LN5@Find_lower:

; 1631 :         _Nodeptr _Trynode = _Result._Location._Parent;
; 1632 :         while (!_Trynode->_Isnil) {

  00047	89 47 04	 mov	 DWORD PTR [edi+4], eax
  0004a	80 7e 0d 00	 cmp	 BYTE PTR [esi+13], 0
  0004e	74 d3		 je	 SHORT $LL2@Find_lower
  00050	5b		 pop	 ebx
$LN13@Find_lower:

; 1641 :             }
; 1642 :         }
; 1643 : 
; 1644 :         return _Result;
; 1645 :     }

  00051	8b c7		 mov	 eax, edi
  00053	5f		 pop	 edi
  00054	5e		 pop	 esi
  00055	5d		 pop	 ebp
  00056	c2 08 00	 ret	 8
??$_Find_lower_bound@V?$basic_string@DU?$char_traits@D@std@@V?$allocator@D@2@@std@@@?$_Tree@V?$_Tmap_traits@V?$basic_string@DU?$char_traits@D@std@@V?$allocator@D@2@@std@@PAXU?$less@V?$basic_string@DU?$char_traits@D@std@@V?$allocator@D@2@@std@@@2@V?$allocator@U?$pair@$$CBV?$basic_string@DU?$char_traits@D@std@@V?$allocator@D@2@@std@@PAX@std@@@2@$0A@@std@@@std@@IBE?AU?$_Tree_find_result@PAU?$_Tree_node@U?$pair@$$CBV?$basic_string@DU?$char_traits@D@std@@V?$allocator@D@2@@std@@PAX@std@@PAX@std@@@1@ABV?$basic_string@DU?$char_traits@D@std@@V?$allocator@D@2@@1@@Z ENDP ; std::_Tree<std::_Tmap_traits<std::basic_string<char,std::char_traits<char>,std::allocator<char> >,void *,std::less<std::basic_string<char,std::char_traits<char>,std::allocator<char> > >,std::allocator<std::pair<std::basic_string<char,std::char_traits<char>,std::allocator<char> > const ,void *> >,0> >::_Find_lower_bound<std::basic_string<char,std::char_traits<char>,std::allocator<char> > >
_TEXT	ENDS
; Function compile flags: /Ogtp
; File C:\Program Files\Microsoft Visual Studio\2022\Professional\VC\Tools\MSVC\14.44.35207\include\xtree
; File C:\Program Files\Microsoft Visual Studio\2022\Professional\VC\Tools\MSVC\14.44.35207\include\utility
; File C:\Program Files\Microsoft Visual Studio\2022\Professional\VC\Tools\MSVC\14.44.35207\include\xtree
; File C:\Program Files\Microsoft Visual Studio\2022\Professional\VC\Tools\MSVC\14.44.35207\include\xmemory
; File C:\Program Files\Microsoft Visual Studio\2022\Professional\VC\Tools\MSVC\14.44.35207\include\xtree
; File C:\Program Files\Microsoft Visual Studio\2022\Professional\VC\Tools\MSVC\14.44.35207\include\xmemory
; File C:\Program Files\Microsoft Visual Studio\2022\Professional\VC\Tools\MSVC\14.44.35207\include\xtree
;	COMDAT ??$_Erase_tree@V?$allocator@U?$_Tree_node@V?$basic_string@DU?$char_traits@D@std@@V?$allocator@D@2@@std@@PAX@std@@@std@@@?$_Tree_val@U?$_Tree_simple_types@V?$basic_string@DU?$char_traits@D@std@@V?$allocator@D@2@@std@@@std@@@std@@QAEXAAV?$allocator@U?$_Tree_node@V?$basic_string@DU?$char_traits@D@std@@V?$allocator@D@2@@std@@PAX@std@@@1@PAU?$_Tree_node@V?$basic_string@DU?$char_traits@D@std@@V?$allocator@D@2@@std@@PAX@1@@Z
_TEXT	SEGMENT
_this$1$ = -4						; size = 4
__Al$ = 8						; size = 4
__Rootnode$ = 12					; size = 4
??$_Erase_tree@V?$allocator@U?$_Tree_node@V?$basic_string@DU?$char_traits@D@std@@V?$allocator@D@2@@std@@PAX@std@@@std@@@?$_Tree_val@U?$_Tree_simple_types@V?$basic_string@DU?$char_traits@D@std@@V?$allocator@D@2@@std@@@std@@@std@@QAEXAAV?$allocator@U?$_Tree_node@V?$basic_string@DU?$char_traits@D@std@@V?$allocator@D@2@@std@@PAX@std@@@1@PAU?$_Tree_node@V?$basic_string@DU?$char_traits@D@std@@V?$allocator@D@2@@std@@PAX@1@@Z PROC ; std::_Tree_val<std::_Tree_simple_types<std::basic_string<char,std::char_traits<char>,std::allocator<char> > > >::_Erase_tree<std::allocator<std::_Tree_node<std::basic_string<char,std::char_traits<char>,std::allocator<char> >,void *> > >, COMDAT
; _this$ = ecx

; 767  :     void _Erase_tree(_Alnode& _Al, _Nodeptr _Rootnode) noexcept {

  00000	55		 push	 ebp
  00001	8b ec		 mov	 ebp, esp
  00003	51		 push	 ecx
  00004	56		 push	 esi

; 768  :         while (!_Rootnode->_Isnil) { // free subtrees, then node

  00005	8b 75 0c	 mov	 esi, DWORD PTR __Rootnode$[ebp]
  00008	8b c1		 mov	 eax, ecx
  0000a	89 45 fc	 mov	 DWORD PTR _this$1$[ebp], eax
  0000d	80 7e 0d 00	 cmp	 BYTE PTR [esi+13], 0
  00011	75 32		 jne	 SHORT $LN40@Erase_tree
  00013	53		 push	 ebx
  00014	8b 5d 08	 mov	 ebx, DWORD PTR __Al$[ebp]
  00017	57		 push	 edi
$LL2@Erase_tree:

; 769  :             _Erase_tree(_Al, _Rootnode->_Right);

  00018	ff 76 08	 push	 DWORD PTR [esi+8]
  0001b	8b c8		 mov	 ecx, eax
  0001d	53		 push	 ebx
  0001e	e8 00 00 00 00	 call	 ??$_Erase_tree@V?$allocator@U?$_Tree_node@V?$basic_string@DU?$char_traits@D@std@@V?$allocator@D@2@@std@@PAX@std@@@std@@@?$_Tree_val@U?$_Tree_simple_types@V?$basic_string@DU?$char_traits@D@std@@V?$allocator@D@2@@std@@@std@@@std@@QAEXAAV?$allocator@U?$_Tree_node@V?$basic_string@DU?$char_traits@D@std@@V?$allocator@D@2@@std@@PAX@std@@@1@PAU?$_Tree_node@V?$basic_string@DU?$char_traits@D@std@@V?$allocator@D@2@@std@@PAX@1@@Z ; std::_Tree_val<std::_Tree_simple_types<std::basic_string<char,std::char_traits<char>,std::allocator<char> > > >::_Erase_tree<std::allocator<std::_Tree_node<std::basic_string<char,std::char_traits<char>,std::allocator<char> >,void *> > >
; File C:\Program Files\Microsoft Visual Studio\2022\Professional\VC\Tools\MSVC\14.44.35207\include\utility

; 773  :     _Ty _Old_val = static_cast<_Ty&&>(_Val);

  00023	8b fe		 mov	 edi, esi

; 774  :     _Val         = static_cast<_Other&&>(_New_val);

  00025	8b 36		 mov	 esi, DWORD PTR [esi]
; File C:\Program Files\Microsoft Visual Studio\2022\Professional\VC\Tools\MSVC\14.44.35207\include\xtree

; 381  :         allocator_traits<_Alloc>::destroy(_Al, _STD addressof(_Ptr->_Myval));

  00027	8d 4f 10	 lea	 ecx, DWORD PTR [edi+16]
  0002a	e8 00 00 00 00	 call	 ??1?$basic_string@DU?$char_traits@D@std@@V?$allocator@D@2@@std@@QAE@XZ ; std::basic_string<char,std::char_traits<char>,std::allocator<char> >::~basic_string<char,std::char_traits<char>,std::allocator<char> >
; File C:\Program Files\Microsoft Visual Studio\2022\Professional\VC\Tools\MSVC\14.44.35207\include\xmemory

; 289  :         ::operator delete(_Ptr, _Bytes);

  0002f	6a 28		 push	 40			; 00000028H
  00031	57		 push	 edi
  00032	e8 00 00 00 00	 call	 ??3@YAXPAXI@Z		; operator delete
; File C:\Program Files\Microsoft Visual Studio\2022\Professional\VC\Tools\MSVC\14.44.35207\include\xtree

; 768  :         while (!_Rootnode->_Isnil) { // free subtrees, then node

  00037	8b 45 fc	 mov	 eax, DWORD PTR _this$1$[ebp]
; File C:\Program Files\Microsoft Visual Studio\2022\Professional\VC\Tools\MSVC\14.44.35207\include\xmemory

; 289  :         ::operator delete(_Ptr, _Bytes);

  0003a	83 c4 08	 add	 esp, 8
; File C:\Program Files\Microsoft Visual Studio\2022\Professional\VC\Tools\MSVC\14.44.35207\include\xtree

; 768  :         while (!_Rootnode->_Isnil) { // free subtrees, then node

  0003d	80 7e 0d 00	 cmp	 BYTE PTR [esi+13], 0
  00041	74 d5		 je	 SHORT $LL2@Erase_tree
  00043	5f		 pop	 edi
  00044	5b		 pop	 ebx
$LN40@Erase_tree:
  00045	5e		 pop	 esi

; 770  :             _Alnode::value_type::_Freenode(_Al, _STD exchange(_Rootnode, _Rootnode->_Left));
; 771  :         }
; 772  :     }

  00046	8b e5		 mov	 esp, ebp
  00048	5d		 pop	 ebp
  00049	c2 08 00	 ret	 8
??$_Erase_tree@V?$allocator@U?$_Tree_node@V?$basic_string@DU?$char_traits@D@std@@V?$allocator@D@2@@std@@PAX@std@@@std@@@?$_Tree_val@U?$_Tree_simple_types@V?$basic_string@DU?$char_traits@D@std@@V?$allocator@D@2@@std@@@std@@@std@@QAEXAAV?$allocator@U?$_Tree_node@V?$basic_string@DU?$char_traits@D@std@@V?$allocator@D@2@@std@@PAX@std@@@1@PAU?$_Tree_node@V?$basic_string@DU?$char_traits@D@std@@V?$allocator@D@2@@std@@PAX@1@@Z ENDP ; std::_Tree_val<std::_Tree_simple_types<std::basic_string<char,std::char_traits<char>,std::allocator<char> > > >::_Erase_tree<std::allocator<std::_Tree_node<std::basic_string<char,std::char_traits<char>,std::allocator<char> >,void *> > >
_TEXT	ENDS
; Function compile flags: /Ogtp
; File C:\Program Files\Microsoft Visual Studio\2022\Professional\VC\Tools\MSVC\14.44.35207\include\xtree
; File C:\Program Files\Microsoft Visual Studio\2022\Professional\VC\Tools\MSVC\14.44.35207\include\utility
; File C:\Program Files\Microsoft Visual Studio\2022\Professional\VC\Tools\MSVC\14.44.35207\include\xmemory
; File C:\Program Files\Microsoft Visual Studio\2022\Professional\VC\Tools\MSVC\14.44.35207\include\xtree
;	COMDAT ??$_Erase_tree@V?$allocator@U?$_Tree_node@DPAX@std@@@std@@@?$_Tree_val@U?$_Tree_simple_types@D@std@@@std@@QAEXAAV?$allocator@U?$_Tree_node@DPAX@std@@@1@PAU?$_Tree_node@DPAX@1@@Z
_TEXT	SEGMENT
__Al$ = 8						; size = 4
__Rootnode$ = 12					; size = 4
??$_Erase_tree@V?$allocator@U?$_Tree_node@DPAX@std@@@std@@@?$_Tree_val@U?$_Tree_simple_types@D@std@@@std@@QAEXAAV?$allocator@U?$_Tree_node@DPAX@std@@@1@PAU?$_Tree_node@DPAX@1@@Z PROC ; std::_Tree_val<std::_Tree_simple_types<char> >::_Erase_tree<std::allocator<std::_Tree_node<char,void *> > >, COMDAT
; _this$ = ecx

; 767  :     void _Erase_tree(_Alnode& _Al, _Nodeptr _Rootnode) noexcept {

  00000	55		 push	 ebp
  00001	8b ec		 mov	 ebp, esp
  00003	53		 push	 ebx
  00004	56		 push	 esi

; 768  :         while (!_Rootnode->_Isnil) { // free subtrees, then node

  00005	8b 75 0c	 mov	 esi, DWORD PTR __Rootnode$[ebp]
  00008	8b d9		 mov	 ebx, ecx
  0000a	80 7e 0d 00	 cmp	 BYTE PTR [esi+13], 0
  0000e	75 25		 jne	 SHORT $LN34@Erase_tree
  00010	57		 push	 edi
  00011	8b 7d 08	 mov	 edi, DWORD PTR __Al$[ebp]
$LL2@Erase_tree:

; 769  :             _Erase_tree(_Al, _Rootnode->_Right);

  00014	ff 76 08	 push	 DWORD PTR [esi+8]
  00017	8b cb		 mov	 ecx, ebx
  00019	57		 push	 edi
  0001a	e8 00 00 00 00	 call	 ??$_Erase_tree@V?$allocator@U?$_Tree_node@DPAX@std@@@std@@@?$_Tree_val@U?$_Tree_simple_types@D@std@@@std@@QAEXAAV?$allocator@U?$_Tree_node@DPAX@std@@@1@PAU?$_Tree_node@DPAX@1@@Z ; std::_Tree_val<std::_Tree_simple_types<char> >::_Erase_tree<std::allocator<std::_Tree_node<char,void *> > >
; File C:\Program Files\Microsoft Visual Studio\2022\Professional\VC\Tools\MSVC\14.44.35207\include\utility

; 773  :     _Ty _Old_val = static_cast<_Ty&&>(_Val);

  0001f	8b c6		 mov	 eax, esi

; 774  :     _Val         = static_cast<_Other&&>(_New_val);

  00021	8b 36		 mov	 esi, DWORD PTR [esi]
; File C:\Program Files\Microsoft Visual Studio\2022\Professional\VC\Tools\MSVC\14.44.35207\include\xmemory

; 289  :         ::operator delete(_Ptr, _Bytes);

  00023	6a 10		 push	 16			; 00000010H
  00025	50		 push	 eax
  00026	e8 00 00 00 00	 call	 ??3@YAXPAXI@Z		; operator delete
  0002b	83 c4 08	 add	 esp, 8
; File C:\Program Files\Microsoft Visual Studio\2022\Professional\VC\Tools\MSVC\14.44.35207\include\xtree

; 768  :         while (!_Rootnode->_Isnil) { // free subtrees, then node

  0002e	80 7e 0d 00	 cmp	 BYTE PTR [esi+13], 0
  00032	74 e0		 je	 SHORT $LL2@Erase_tree
  00034	5f		 pop	 edi
$LN34@Erase_tree:
  00035	5e		 pop	 esi

; 770  :             _Alnode::value_type::_Freenode(_Al, _STD exchange(_Rootnode, _Rootnode->_Left));
; 771  :         }
; 772  :     }

  00036	5b		 pop	 ebx
  00037	5d		 pop	 ebp
  00038	c2 08 00	 ret	 8
??$_Erase_tree@V?$allocator@U?$_Tree_node@DPAX@std@@@std@@@?$_Tree_val@U?$_Tree_simple_types@D@std@@@std@@QAEXAAV?$allocator@U?$_Tree_node@DPAX@std@@@1@PAU?$_Tree_node@DPAX@1@@Z ENDP ; std::_Tree_val<std::_Tree_simple_types<char> >::_Erase_tree<std::allocator<std::_Tree_node<char,void *> > >
_TEXT	ENDS
; Function compile flags: /Ogtp
;	COMDAT ??__Fprj@@YAXXZ
text$yd	SEGMENT
??__Fprj@@YAXXZ PROC					; `dynamic atexit destructor for 'prj'', COMDAT
  00000	b9 00 00 00 00	 mov	 ecx, OFFSET ?prj@@3VCProject@@A ; prj
  00005	e9 00 00 00 00	 jmp	 ??1CProject@@UAE@XZ	; CProject::~CProject
??__Fprj@@YAXXZ ENDP					; `dynamic atexit destructor for 'prj''
text$yd	ENDS
; Function compile flags: /Ogtp
; File C:\IAGOS\server\v18\Source\Source\DatabaseServer\Project.cpp
;	COMDAT ??__Eprj@@YAXXZ
text$di	SEGMENT
??__Eprj@@YAXXZ PROC					; `dynamic initializer for 'prj'', COMDAT

; 563  : CProject	prj;

  00000	b9 00 00 00 00	 mov	 ecx, OFFSET ?prj@@3VCProject@@A ; prj
  00005	e8 00 00 00 00	 call	 ??0CProject@@QAE@XZ	; CProject::CProject
  0000a	68 00 00 00 00	 push	 OFFSET ??__Fprj@@YAXXZ	; `dynamic atexit destructor for 'prj''
  0000f	e8 00 00 00 00	 call	 _atexit
  00014	59		 pop	 ecx
  00015	c3		 ret	 0
??__Eprj@@YAXXZ ENDP					; `dynamic initializer for 'prj''
text$di	ENDS
; Function compile flags: /Ogtp
; File C:\IAGOS\server\v18\Source\Source\DatabaseServer\Project.cpp
;	COMDAT ?SortJobSkill@@YAHPBX0@Z
_TEXT	SEGMENT
_arg1$ = 8						; size = 4
_arg2$ = 12						; size = 4
?SortJobSkill@@YAHPBX0@Z PROC				; SortJobSkill, COMDAT

; 98   : {

  00000	55		 push	 ebp
  00001	8b ec		 mov	 ebp, esp

; 99   : 	ItemProp* pItemProp1 = *(ItemProp**) arg1;
; 100  : 	ItemProp* pItemProp2 = *(ItemProp**) arg2;
; 101  : 	if( pItemProp1->dwReqDisLV < pItemProp2->dwReqDisLV )

  00003	8b 45 08	 mov	 eax, DWORD PTR _arg1$[ebp]
  00006	8b 10		 mov	 edx, DWORD PTR [eax]
  00008	8b 45 0c	 mov	 eax, DWORD PTR _arg2$[ebp]
  0000b	8b 08		 mov	 ecx, DWORD PTR [eax]
  0000d	8b 82 80 01 00
	00		 mov	 eax, DWORD PTR [edx+384]
  00013	3b 81 80 01 00
	00		 cmp	 eax, DWORD PTR [ecx+384]
  00019	1b c0		 sbb	 eax, eax
  0001b	83 e0 fe	 and	 eax, -2			; fffffffeH
  0001e	40		 inc	 eax

; 102  : 		return -1;
; 103  : 	if( pItemProp1->dwReqDisLV >= pItemProp2->dwReqDisLV )
; 104  : 		return 1;
; 105  : 	return 0;
; 106  : }

  0001f	5d		 pop	 ebp
  00020	c3		 ret	 0
?SortJobSkill@@YAHPBX0@Z ENDP				; SortJobSkill
_TEXT	ENDS
; Function compile flags: /Ogtp
; File C:\Program Files\Microsoft Visual Studio\2022\Professional\VC\Tools\MSVC\14.44.35207\include\xmemory
;	COMDAT ??$_Allocate_manually_vector_aligned@U_Default_allocate_traits@std@@@std@@YAPAXI@Z
_TEXT	SEGMENT
__Bytes$ = 8						; size = 4
??$_Allocate_manually_vector_aligned@U_Default_allocate_traits@std@@@std@@YAPAXI@Z PROC ; std::_Allocate_manually_vector_aligned<std::_Default_allocate_traits>, COMDAT

; 182  : __declspec(allocator) void* _Allocate_manually_vector_aligned(const size_t _Bytes) {

  00000	55		 push	 ebp
  00001	8b ec		 mov	 ebp, esp

; 183  :     // allocate _Bytes manually aligned to at least _Big_allocation_alignment
; 184  :     const size_t _Block_size = _Non_user_size + _Bytes;

  00003	8b 45 08	 mov	 eax, DWORD PTR __Bytes$[ebp]
  00006	8d 48 23	 lea	 ecx, DWORD PTR [eax+35]

; 185  :     if (_Block_size <= _Bytes) {

  00009	3b c8		 cmp	 ecx, eax
  0000b	0f 86 00 00 00
	00		 jbe	 ?_Throw_bad_array_new_length@std@@YAXXZ ; std::_Throw_bad_array_new_length

; 136  :         return ::operator new(_Bytes);

  00011	51		 push	 ecx
  00012	e8 00 00 00 00	 call	 ??2@YAPAXI@Z		; operator new

; 186  :         _Throw_bad_array_new_length(); // add overflow
; 187  :     }
; 188  : 
; 189  :     const uintptr_t _Ptr_container = reinterpret_cast<uintptr_t>(_Traits::_Allocate(_Block_size));

  00017	8b c8		 mov	 ecx, eax

; 136  :         return ::operator new(_Bytes);

  00019	83 c4 04	 add	 esp, 4

; 190  :     _STL_VERIFY(_Ptr_container != 0, "invalid argument"); // validate even in release since we're doing p[-1]

  0001c	85 c9		 test	 ecx, ecx
  0001e	74 0b		 je	 SHORT $LN9@Allocate_m

; 191  :     void* const _Ptr = reinterpret_cast<void*>((_Ptr_container + _Non_user_size) & ~(_Big_allocation_alignment - 1));

  00020	8d 41 23	 lea	 eax, DWORD PTR [ecx+35]
  00023	83 e0 e0	 and	 eax, -32		; ffffffe0H

; 192  :     static_cast<uintptr_t*>(_Ptr)[-1] = _Ptr_container;

  00026	89 48 fc	 mov	 DWORD PTR [eax-4], ecx

; 193  : 
; 194  : #ifdef _DEBUG
; 195  :     static_cast<uintptr_t*>(_Ptr)[-2] = _Big_allocation_sentinel;
; 196  : #endif // defined(_DEBUG)
; 197  :     return _Ptr;
; 198  : }

  00029	5d		 pop	 ebp
  0002a	c3		 ret	 0
$LN9@Allocate_m:

; 190  :     _STL_VERIFY(_Ptr_container != 0, "invalid argument"); // validate even in release since we're doing p[-1]

  0002b	6a 00		 push	 0
  0002d	6a 00		 push	 0
  0002f	6a 00		 push	 0
  00031	6a 00		 push	 0
  00033	6a 00		 push	 0
  00035	e8 00 00 00 00	 call	 __invoke_watson
$LN7@Allocate_m:
  0003a	cc		 int	 3
??$_Allocate_manually_vector_aligned@U_Default_allocate_traits@std@@@std@@YAPAXI@Z ENDP ; std::_Allocate_manually_vector_aligned<std::_Default_allocate_traits>
_TEXT	ENDS
; Function compile flags: /Ogtp
; File C:\Program Files\Microsoft Visual Studio\2022\Professional\VC\Tools\MSVC\14.44.35207\include\xstring
; File C:\Program Files\Microsoft Visual Studio\2022\Professional\VC\Tools\MSVC\14.44.35207\include\__msvc_string_view.hpp
; File C:\Program Files\Microsoft Visual Studio\2022\Professional\VC\Tools\MSVC\14.44.35207\include\xstring
; File C:\Program Files\Microsoft Visual Studio\2022\Professional\VC\Tools\MSVC\14.44.35207\include\__msvc_string_view.hpp
; File C:\Program Files\Microsoft Visual Studio\2022\Professional\VC\Tools\MSVC\14.44.35207\include\xstring
; File C:\Program Files\Microsoft Visual Studio\2022\Professional\VC\Tools\MSVC\14.44.35207\include\__msvc_string_view.hpp
; File C:\Program Files\Microsoft Visual Studio\2022\Professional\VC\Tools\MSVC\14.44.35207\include\xstring
;	COMDAT ??$?MDU?$char_traits@D@std@@V?$allocator@D@1@@std@@YA_NABV?$basic_string@DU?$char_traits@D@std@@V?$allocator@D@2@@0@0@Z
_TEXT	SEGMENT
__Left$ = 8						; size = 4
__Right$ = 12						; size = 4
??$?MDU?$char_traits@D@std@@V?$allocator@D@1@@std@@YA_NABV?$basic_string@DU?$char_traits@D@std@@V?$allocator@D@2@@0@0@Z PROC ; std::operator<<char,std::char_traits<char>,std::allocator<char> >, COMDAT

; 3307 :     const basic_string<_Elem, _Traits, _Alloc>& _Left, const basic_string<_Elem, _Traits, _Alloc>& _Right) noexcept {

  00000	55		 push	 ebp
  00001	8b ec		 mov	 ebp, esp

; 444  :         const value_type* _Result = _Bx._Buf;

  00003	8b 45 0c	 mov	 eax, DWORD PTR __Right$[ebp]
  00006	8b c8		 mov	 ecx, eax

; 453  :         return _Myres > _Small_string_capacity;

  00008	83 78 14 0f	 cmp	 DWORD PTR [eax+20], 15	; 0000000fH

; 445  :         if (_Large_mode_engaged()) {

  0000c	76 02		 jbe	 SHORT $LN8@operator

; 446  :             _Result = _Unfancy(_Bx._Ptr);

  0000e	8b 08		 mov	 ecx, DWORD PTR [eax]
$LN8@operator:
  00010	53		 push	 ebx
  00011	56		 push	 esi

; 444  :         const value_type* _Result = _Bx._Buf;

  00012	8b 75 08	 mov	 esi, DWORD PTR __Left$[ebp]
  00015	8b d6		 mov	 edx, esi
  00017	57		 push	 edi

; 453  :         return _Myres > _Small_string_capacity;

  00018	83 7e 14 0f	 cmp	 DWORD PTR [esi+20], 15	; 0000000fH

; 445  :         if (_Large_mode_engaged()) {

  0001c	76 02		 jbe	 SHORT $LN15@operator

; 446  :             _Result = _Unfancy(_Bx._Ptr);

  0001e	8b 16		 mov	 edx, DWORD PTR [esi]
$LN15@operator:

; 2890 :         return _Traits_compare<_Traits>(_Mypair._Myval2._Myptr(), _Mypair._Myval2._Mysize,

  00020	8b 5e 10	 mov	 ebx, DWORD PTR [esi+16]
  00023	8b f3		 mov	 esi, ebx
  00025	8b 78 10	 mov	 edi, DWORD PTR [eax+16]
  00028	3b fb		 cmp	 edi, ebx
  0002a	0f 42 f7	 cmovb	 esi, edi
; File C:\Program Files\Microsoft Visual Studio\2022\Professional\VC\Tools\MSVC\14.44.35207\include\__msvc_string_view.hpp

; 439  :         return _CSTD memcmp(_First1, _First2, _Count);

  0002d	83 ee 04	 sub	 esi, 4
  00030	72 11		 jb	 SHORT $LN35@operator
$LL36@operator:
  00032	8b 02		 mov	 eax, DWORD PTR [edx]
  00034	3b 01		 cmp	 eax, DWORD PTR [ecx]
  00036	75 10		 jne	 SHORT $LN34@operator
  00038	83 c2 04	 add	 edx, 4
  0003b	83 c1 04	 add	 ecx, 4
  0003e	83 ee 04	 sub	 esi, 4
  00041	73 ef		 jae	 SHORT $LL36@operator
$LN35@operator:
  00043	83 fe fc	 cmp	 esi, -4			; fffffffcH
  00046	74 34		 je	 SHORT $LN33@operator
$LN34@operator:
  00048	8a 02		 mov	 al, BYTE PTR [edx]
  0004a	3a 01		 cmp	 al, BYTE PTR [ecx]
  0004c	75 27		 jne	 SHORT $LN37@operator
  0004e	83 fe fd	 cmp	 esi, -3			; fffffffdH
  00051	74 29		 je	 SHORT $LN33@operator
  00053	8a 42 01	 mov	 al, BYTE PTR [edx+1]
  00056	3a 41 01	 cmp	 al, BYTE PTR [ecx+1]
  00059	75 1a		 jne	 SHORT $LN37@operator
  0005b	83 fe fe	 cmp	 esi, -2			; fffffffeH
  0005e	74 1c		 je	 SHORT $LN33@operator
  00060	8a 42 02	 mov	 al, BYTE PTR [edx+2]
  00063	3a 41 02	 cmp	 al, BYTE PTR [ecx+2]
  00066	75 0d		 jne	 SHORT $LN37@operator
  00068	83 fe ff	 cmp	 esi, -1
  0006b	74 0f		 je	 SHORT $LN33@operator
  0006d	8a 42 03	 mov	 al, BYTE PTR [edx+3]
  00070	3a 41 03	 cmp	 al, BYTE PTR [ecx+3]
  00073	74 07		 je	 SHORT $LN33@operator
$LN37@operator:
  00075	1b c0		 sbb	 eax, eax
  00077	83 c8 01	 or	 eax, 1
  0007a	eb 02		 jmp	 SHORT $LN38@operator
$LN33@operator:
  0007c	33 c0		 xor	 eax, eax
$LN38@operator:

; 621  :     if (_Ans != 0) {

  0007e	85 c0		 test	 eax, eax
  00080	75 13		 jne	 SHORT $LN24@operator

; 622  :         return _Ans;
; 623  :     }
; 624  : 
; 625  :     if (_Left_size < _Right_size) {

  00082	3b fb		 cmp	 edi, ebx
  00084	76 0b		 jbe	 SHORT $LN51@operator
; File C:\Program Files\Microsoft Visual Studio\2022\Professional\VC\Tools\MSVC\14.44.35207\include\xstring

; 3308 :     return _Left.compare(_Right) < 0;

  00086	5f		 pop	 edi
; File C:\Program Files\Microsoft Visual Studio\2022\Professional\VC\Tools\MSVC\14.44.35207\include\__msvc_string_view.hpp

; 626  :         return -1;

  00087	83 c8 ff	 or	 eax, -1
; File C:\Program Files\Microsoft Visual Studio\2022\Professional\VC\Tools\MSVC\14.44.35207\include\xstring

; 3308 :     return _Left.compare(_Right) < 0;

  0008a	5e		 pop	 esi
  0008b	c1 e8 1f	 shr	 eax, 31			; 0000001fH
  0008e	5b		 pop	 ebx

; 3309 : }

  0008f	5d		 pop	 ebp
  00090	c3		 ret	 0
$LN51@operator:
; File C:\Program Files\Microsoft Visual Studio\2022\Professional\VC\Tools\MSVC\14.44.35207\include\__msvc_string_view.hpp

; 629  :     if (_Left_size > _Right_size) {

  00091	1b c0		 sbb	 eax, eax
  00093	f7 d8		 neg	 eax
$LN24@operator:
; File C:\Program Files\Microsoft Visual Studio\2022\Professional\VC\Tools\MSVC\14.44.35207\include\xstring

; 3308 :     return _Left.compare(_Right) < 0;

  00095	5f		 pop	 edi
  00096	5e		 pop	 esi
  00097	c1 e8 1f	 shr	 eax, 31			; 0000001fH
  0009a	5b		 pop	 ebx

; 3309 : }

  0009b	5d		 pop	 ebp
  0009c	c3		 ret	 0
??$?MDU?$char_traits@D@std@@V?$allocator@D@1@@std@@YA_NABV?$basic_string@DU?$char_traits@D@std@@V?$allocator@D@2@@0@0@Z ENDP ; std::operator<<char,std::char_traits<char>,std::allocator<char> >
_TEXT	ENDS
; Function compile flags: /Ogtp
;	COMDAT ??_GCProject@@UAEPAXI@Z
_TEXT	SEGMENT
___flags$ = 8						; size = 4
??_GCProject@@UAEPAXI@Z PROC				; CProject::`scalar deleting destructor', COMDAT
; _this$ = ecx
  00000	55		 push	 ebp
  00001	8b ec		 mov	 ebp, esp
  00003	56		 push	 esi
  00004	8b f1		 mov	 esi, ecx
  00006	e8 00 00 00 00	 call	 ??1CProject@@UAE@XZ	; CProject::~CProject
  0000b	f6 45 08 01	 test	 BYTE PTR ___flags$[ebp], 1
  0000f	74 0e		 je	 SHORT $LN5@scalar
  00011	68 58 15 05 00	 push	 333144			; 00051558H
  00016	56		 push	 esi
  00017	e8 00 00 00 00	 call	 ??3@YAXPAXI@Z		; operator delete
  0001c	83 c4 08	 add	 esp, 8
$LN5@scalar:
  0001f	8b c6		 mov	 eax, esi
  00021	5e		 pop	 esi
  00022	5d		 pop	 ebp
  00023	c2 04 00	 ret	 4
??_GCProject@@UAEPAXI@Z ENDP				; CProject::`scalar deleting destructor'
_TEXT	ENDS
; Function compile flags: /Ogtp
; File C:\IAGOS\server\v18\Source\Source\DatabaseServer\Project.cpp
;	COMDAT ?IsConvMode@CProject@@QAEHK@Z
_TEXT	SEGMENT
_dwMode$ = 8						; size = 4
?IsConvMode@CProject@@QAEHK@Z PROC			; CProject::IsConvMode, COMDAT
; _this$ = ecx

; 559  : {

  00000	55		 push	 ebp
  00001	8b ec		 mov	 ebp, esp

; 560  : 	return m_dwConvMode & dwMode;

  00003	8b 81 04 34 00
	00		 mov	 eax, DWORD PTR [ecx+13316]
  00009	23 45 08	 and	 eax, DWORD PTR _dwMode$[ebp]

; 561  : }

  0000c	5d		 pop	 ebp
  0000d	c2 04 00	 ret	 4
?IsConvMode@CProject@@QAEHK@Z ENDP			; CProject::IsConvMode
_TEXT	ENDS
; Function compile flags: /Ogtp
; File C:\IAGOS\server\v18\Source\Source\DatabaseServer\Project.cpp
;	COMDAT ?ResetConvMode@CProject@@QAEXK@Z
_TEXT	SEGMENT
_dwMode$ = 8						; size = 4
?ResetConvMode@CProject@@QAEXK@Z PROC			; CProject::ResetConvMode, COMDAT
; _this$ = ecx

; 555  : {

  00000	55		 push	 ebp
  00001	8b ec		 mov	 ebp, esp

; 556  : 	m_dwConvMode &= (~dwMode);

  00003	8b 45 08	 mov	 eax, DWORD PTR _dwMode$[ebp]
  00006	f7 d0		 not	 eax
  00008	21 81 04 34 00
	00		 and	 DWORD PTR [ecx+13316], eax

; 557  : }

  0000e	5d		 pop	 ebp
  0000f	c2 04 00	 ret	 4
?ResetConvMode@CProject@@QAEXK@Z ENDP			; CProject::ResetConvMode
_TEXT	ENDS
; Function compile flags: /Ogtp
; File C:\IAGOS\server\v18\Source\Source\DatabaseServer\Project.cpp
;	COMDAT ?SetConvMode@CProject@@QAEXK@Z
_TEXT	SEGMENT
_dwMode$ = 8						; size = 4
?SetConvMode@CProject@@QAEXK@Z PROC			; CProject::SetConvMode, COMDAT
; _this$ = ecx

; 551  : {

  00000	55		 push	 ebp
  00001	8b ec		 mov	 ebp, esp

; 552  : 	m_dwConvMode |= dwMode;

  00003	8b 45 08	 mov	 eax, DWORD PTR _dwMode$[ebp]
  00006	09 81 04 34 00
	00		 or	 DWORD PTR [ecx+13316], eax

; 553  : }

  0000c	5d		 pop	 ebp
  0000d	c2 04 00	 ret	 4
?SetConvMode@CProject@@QAEXK@Z ENDP			; CProject::SetConvMode
_TEXT	ENDS
; Function compile flags: /Ogtp
; File C:\IAGOS\server\v18\Source\Source\DatabaseServer\Project.cpp
; File C:\Program Files\Microsoft Visual Studio\2022\Professional\VC\Tools\MSVC\14.44.35207\atlmfc\include\cstringt.h
; File C:\IAGOS\server\v18\Source\Source\DatabaseServer\Project.cpp
; File C:\Program Files\Microsoft Visual Studio\2022\Professional\VC\Tools\MSVC\14.44.35207\atlmfc\include\cstringt.h
; File C:\IAGOS\server\v18\Source\Source\DatabaseServer\Project.cpp
;	COMDAT ?LoadExpTable@CProject@@QAEHPBD@Z
_TEXT	SEGMENT
_s$ = -7800						; size = 7784
__$ArrayPad$ = -16					; size = 4
__$EHRec$ = -12						; size = 12
_lpszFileName$ = 8					; size = 4
?LoadExpTable@CProject@@QAEHPBD@Z PROC			; CProject::LoadExpTable, COMDAT
; _this$ = ecx

; 426  : {

  00000	55		 push	 ebp
  00001	8b ec		 mov	 ebp, esp
  00003	6a ff		 push	 -1
  00005	68 00 00 00 00	 push	 __ehhandler$?LoadExpTable@CProject@@QAEHPBD@Z
  0000a	64 a1 00 00 00
	00		 mov	 eax, DWORD PTR fs:0
  00010	50		 push	 eax
  00011	b8 6c 1e 00 00	 mov	 eax, 7788		; 00001e6cH
  00016	e8 00 00 00 00	 call	 __chkstk
  0001b	a1 00 00 00 00	 mov	 eax, DWORD PTR ___security_cookie
  00020	33 c5		 xor	 eax, ebp
  00022	89 45 f0	 mov	 DWORD PTR __$ArrayPad$[ebp], eax
  00025	56		 push	 esi
  00026	57		 push	 edi
  00027	50		 push	 eax
  00028	8d 45 f4	 lea	 eax, DWORD PTR __$EHRec$[ebp]
  0002b	64 a3 00 00 00
	00		 mov	 DWORD PTR fs:0, eax
  00031	8b f9		 mov	 edi, ecx
  00033	8b 75 08	 mov	 esi, DWORD PTR _lpszFileName$[ebp]

; 427  : #ifdef __DBSERVER
; 428  : 	CScript s;

  00036	8d 8d 88 e1 ff
	ff		 lea	 ecx, DWORD PTR _s$[ebp]
  0003c	6a 00		 push	 0
  0003e	e8 00 00 00 00	 call	 ??0CScript@@QAE@H@Z	; CScript::CScript

; 429  : 	if( s.Load( lpszFileName ) == FALSE )

  00043	6a 00		 push	 0
  00045	6a 01		 push	 1
  00047	56		 push	 esi
  00048	8d 8d 88 e1 ff
	ff		 lea	 ecx, DWORD PTR _s$[ebp]
  0004e	c7 45 fc 00 00
	00 00		 mov	 DWORD PTR __$EHRec$[ebp+8], 0
  00055	e8 00 00 00 00	 call	 ?Load@CScript@@QAEHPBDHH@Z ; CScript::Load
  0005a	85 c0		 test	 eax, eax
  0005c	75 07		 jne	 SHORT $LN6@LoadExpTab
  0005e	33 f6		 xor	 esi, esi
  00060	e9 ee 00 00 00	 jmp	 $LN12@LoadExpTab
$LN6@LoadExpTab:

; 430  : 		return FALSE;
; 431  : 	int i	= 0;
; 432  : 	
; 433  : 	s.GetToken();	// subject or FINISHED

  00065	6a 00		 push	 0
  00067	8d 8d 88 e1 ff
	ff		 lea	 ecx, DWORD PTR _s$[ebp]
  0006d	e8 00 00 00 00	 call	 ?GetToken@CScript@@UAEHH@Z ; CScript::GetToken

; 434  : 	while( s.tok != FINISHED )

  00072	83 bd cc e9 ff
	ff 15		 cmp	 DWORD PTR _s$[ebp+2116], 21 ; 00000015H
  00079	0f 84 cf 00 00
	00		 je	 $LN3@LoadExpTab
  0007f	90		 npad	 1
$LL2@LoadExpTab:
; File C:\Program Files\Microsoft Visual Studio\2022\Professional\VC\Tools\MSVC\14.44.35207\atlmfc\include\cstringt.h

; 184  : 		return _mbscmp( reinterpret_cast< const unsigned char* >( pszA ), reinterpret_cast< const unsigned char* >( pszB ) );

  00080	68 00 00 00 00	 push	 OFFSET ??_C@_0P@FNFGFCDJ@expCompanyTest@
  00085	ff b5 a8 e1 ff
	ff		 push	 DWORD PTR _s$[ebp+32]
  0008b	e8 00 00 00 00	 call	 __mbscmp
  00090	83 c4 08	 add	 esp, 8

; 2490 : 		return(str1.Compare(psz2) == 0);

  00093	85 c0		 test	 eax, eax
; File C:\IAGOS\server\v18\Source\Source\DatabaseServer\Project.cpp

; 437  : 		if( s.Token == _T( "expCompanyTest" ) )

  00095	75 18		 jne	 SHORT $LN35@LoadExpTab

; 438  : 		{
; 439  : 			CGuildTable::GetInstance().ReadBlock( s );

  00097	8d 85 88 e1 ff
	ff		 lea	 eax, DWORD PTR _s$[ebp]
  0009d	50		 push	 eax
  0009e	e8 00 00 00 00	 call	 ?GetInstance@CGuildTable@@SAAAV1@XZ ; CGuildTable::GetInstance
  000a3	8b c8		 mov	 ecx, eax
  000a5	e8 00 00 00 00	 call	 ?ReadBlock@CGuildTable@@QAEHAAVCScript@@@Z ; CGuildTable::ReadBlock

; 440  : 		}

  000aa	e9 85 00 00 00	 jmp	 $LN5@LoadExpTab
$LN35@LoadExpTab:
; File C:\Program Files\Microsoft Visual Studio\2022\Professional\VC\Tools\MSVC\14.44.35207\atlmfc\include\cstringt.h

; 184  : 		return _mbscmp( reinterpret_cast< const unsigned char* >( pszA ), reinterpret_cast< const unsigned char* >( pszB ) );

  000af	68 00 00 00 00	 push	 OFFSET ??_C@_08FIDAEJJK@expParty@
  000b4	ff b5 a8 e1 ff
	ff		 push	 DWORD PTR _s$[ebp+32]
  000ba	e8 00 00 00 00	 call	 __mbscmp
  000bf	83 c4 08	 add	 esp, 8

; 2490 : 		return(str1.Compare(psz2) == 0);

  000c2	85 c0		 test	 eax, eax
; File C:\IAGOS\server\v18\Source\Source\DatabaseServer\Project.cpp

; 457  : 		else if( s.Token == _T( "expParty" ) )

  000c4	75 6e		 jne	 SHORT $LN5@LoadExpTab

; 458  : 		{
; 459  : 			ZeroMemory( m_aExpParty, sizeof( m_aExpParty ) );

  000c6	6a 50		 push	 80			; 00000050H
  000c8	50		 push	 eax
  000c9	8d 87 9c 1a 00
	00		 lea	 eax, DWORD PTR [edi+6812]
  000cf	50		 push	 eax
  000d0	e8 00 00 00 00	 call	 _memset
  000d5	83 c4 0c	 add	 esp, 12			; 0000000cH

; 460  : 			s.GetToken();	// {

  000d8	8d 8d 88 e1 ff
	ff		 lea	 ecx, DWORD PTR _s$[ebp]
  000de	6a 00		 push	 0
  000e0	e8 00 00 00 00	 call	 ?GetToken@CScript@@UAEHH@Z ; CScript::GetToken

; 461  : 			DWORD dwVal	= s.GetNumber();

  000e5	6a 00		 push	 0
  000e7	8d 8d 88 e1 ff
	ff		 lea	 ecx, DWORD PTR _s$[ebp]
  000ed	e8 00 00 00 00	 call	 ?GetNumber@CScanner@@QAEHH@Z ; CScanner::GetNumber
  000f2	8b c8		 mov	 ecx, eax

; 462  : 			while( *s.token != '}' )

  000f4	8b 85 c4 e1 ff
	ff		 mov	 eax, DWORD PTR _s$[ebp+60]
  000fa	80 38 7d	 cmp	 BYTE PTR [eax], 125	; 0000007dH
  000fd	74 35		 je	 SHORT $LN5@LoadExpTab

; 458  : 		{
; 459  : 			ZeroMemory( m_aExpParty, sizeof( m_aExpParty ) );

  000ff	8d b7 a0 1a 00
	00		 lea	 esi, DWORD PTR [edi+6816]
$LL4@LoadExpTab:

; 463  : 			{
; 464  : 				m_aExpParty[i].Exp	= dwVal;

  00105	89 4e fc	 mov	 DWORD PTR [esi-4], ecx

; 465  : 				m_aExpParty[i++].Point	= s.GetNumber();

  00108	8d 8d 88 e1 ff
	ff		 lea	 ecx, DWORD PTR _s$[ebp]
  0010e	6a 00		 push	 0
  00110	e8 00 00 00 00	 call	 ?GetNumber@CScanner@@QAEHH@Z ; CScanner::GetNumber
  00115	89 06		 mov	 DWORD PTR [esi], eax

; 466  : 				dwVal	= s.GetNumber();

  00117	8d 8d 88 e1 ff
	ff		 lea	 ecx, DWORD PTR _s$[ebp]
  0011d	6a 00		 push	 0
  0011f	8d 76 08	 lea	 esi, DWORD PTR [esi+8]
  00122	e8 00 00 00 00	 call	 ?GetNumber@CScanner@@QAEHH@Z ; CScanner::GetNumber
  00127	8b c8		 mov	 ecx, eax
  00129	8b 85 c4 e1 ff
	ff		 mov	 eax, DWORD PTR _s$[ebp+60]
  0012f	80 38 7d	 cmp	 BYTE PTR [eax], 125	; 0000007dH
  00132	75 d1		 jne	 SHORT $LL4@LoadExpTab
$LN5@LoadExpTab:

; 467  : 			}
; 468  : 		}
; 469  : #ifdef __RECOVER0816
; 470  : 		else if( s.Token == _T( "expCharacter" ) )
; 471  : 		{
; 472  : 			ZeroMemory( m_aExpCharacter, sizeof( m_aExpCharacter ) );
; 473  : 			s.GetToken(); // { 
; 474  : 			DWORD dwVal = s.GetNumber();
; 475  : 			while( *s.token != '}' )
; 476  : 			{
; 477  : 				m_aExpCharacter[i].dwExp1 = dwVal;
; 478  : 				m_aExpCharacter[i].dwExp2 = s.GetNumber();
; 479  : 				m_aExpCharacter[i].dwLPPoint = s.GetNumber();
; 480  : 				m_aExpCharacter[i++].dwLimitExp = s.GetNumber();
; 481  : 				dwVal	= s.GetNumber();
; 482  : 			}
; 483  : 		}
; 484  : #endif	// __RECOVER0816
; 485  : 
; 486  : 		s.GetToken();	// type name or }

  00134	6a 00		 push	 0
  00136	8d 8d 88 e1 ff
	ff		 lea	 ecx, DWORD PTR _s$[ebp]
  0013c	e8 00 00 00 00	 call	 ?GetToken@CScript@@UAEHH@Z ; CScript::GetToken
  00141	83 bd cc e9 ff
	ff 15		 cmp	 DWORD PTR _s$[ebp+2116], 21 ; 00000015H
  00148	0f 85 32 ff ff
	ff		 jne	 $LL2@LoadExpTab
$LN3@LoadExpTab:

; 487  : 	}
; 488  : #endif	// __DBSERVER
; 489  : 	return TRUE;

  0014e	be 01 00 00 00	 mov	 esi, 1
$LN12@LoadExpTab:
  00153	8d 8d 88 e1 ff
	ff		 lea	 ecx, DWORD PTR _s$[ebp]
  00159	e8 00 00 00 00	 call	 ??1CScript@@UAE@XZ	; CScript::~CScript
  0015e	8b c6		 mov	 eax, esi

; 490  : }

  00160	8b 4d f4	 mov	 ecx, DWORD PTR __$EHRec$[ebp]
  00163	64 89 0d 00 00
	00 00		 mov	 DWORD PTR fs:0, ecx
  0016a	59		 pop	 ecx
  0016b	5f		 pop	 edi
  0016c	5e		 pop	 esi
  0016d	8b 4d f0	 mov	 ecx, DWORD PTR __$ArrayPad$[ebp]
  00170	33 cd		 xor	 ecx, ebp
  00172	e8 00 00 00 00	 call	 @__security_check_cookie@4
  00177	8b e5		 mov	 esp, ebp
  00179	5d		 pop	 ebp
  0017a	c2 04 00	 ret	 4
_TEXT	ENDS
;	COMDAT text$x
text$x	SEGMENT
__unwindfunclet$?LoadExpTable@CProject@@QAEHPBD@Z$0:
  00000	8d 8d 88 e1 ff
	ff		 lea	 ecx, DWORD PTR _s$[ebp]
  00006	e9 00 00 00 00	 jmp	 ??1CScript@@UAE@XZ	; CScript::~CScript
  0000b	cc		 int	 3
  0000c	cc		 int	 3
  0000d	cc		 int	 3
  0000e	cc		 int	 3
  0000f	cc		 int	 3
__ehhandler$?LoadExpTable@CProject@@QAEHPBD@Z:
  00010	90		 npad	 1
  00011	90		 npad	 1
  00012	8b 54 24 08	 mov	 edx, DWORD PTR [esp+8]
  00016	8d 42 0c	 lea	 eax, DWORD PTR [edx+12]
  00019	8b 8a 88 e1 ff
	ff		 mov	 ecx, DWORD PTR [edx-7800]
  0001f	33 c8		 xor	 ecx, eax
  00021	e8 00 00 00 00	 call	 @__security_check_cookie@4
  00026	8b 4a fc	 mov	 ecx, DWORD PTR [edx-4]
  00029	33 c8		 xor	 ecx, eax
  0002b	e8 00 00 00 00	 call	 @__security_check_cookie@4
  00030	b8 00 00 00 00	 mov	 eax, OFFSET __ehfuncinfo$?LoadExpTable@CProject@@QAEHPBD@Z
  00035	e9 00 00 00 00	 jmp	 ___CxxFrameHandler3
text$x	ENDS
?LoadExpTable@CProject@@QAEHPBD@Z ENDP			; CProject::LoadExpTable
; Function compile flags: /Ogtp
; File C:\IAGOS\server\v18\Source\Source\DatabaseServer\Project.cpp
; File C:\Program Files\Microsoft Visual Studio\2022\Professional\VC\Tools\MSVC\14.44.35207\atlmfc\include\cstringt.h
; File C:\IAGOS\server\v18\Source\Source\DatabaseServer\Project.cpp
; File C:\Program Files\Microsoft Visual Studio\2022\Professional\VC\Tools\MSVC\14.44.35207\atlmfc\include\cstringt.h
; File C:\IAGOS\server\v18\Source\Source\DatabaseServer\Project.cpp
; File C:\Program Files\Microsoft Visual Studio\2022\Professional\VC\Tools\MSVC\14.44.35207\atlmfc\include\atlsimpstr.h
; File C:\IAGOS\server\v18\Source\Source\DatabaseServer\Project.cpp
; File C:\Program Files (x86)\Windows Kits\10\Include\10.0.26100.0\ucrt\tchar.h
; File C:\IAGOS\server\v18\Source\Source\DatabaseServer\Project.cpp
;	COMDAT ?LoadDefOfWorld@CProject@@QAEHPBD@Z
_TEXT	SEGMENT
$T2 = -7804						; size = 4
_s$ = -7800						; size = 7784
__$ArrayPad$ = -16					; size = 4
__$EHRec$ = -12						; size = 12
_lpszFileName$ = 8					; size = 4
?LoadDefOfWorld@CProject@@QAEHPBD@Z PROC		; CProject::LoadDefOfWorld, COMDAT
; _this$ = ecx

; 377  : {

  00000	55		 push	 ebp
  00001	8b ec		 mov	 ebp, esp
  00003	6a ff		 push	 -1
  00005	68 00 00 00 00	 push	 __ehhandler$?LoadDefOfWorld@CProject@@QAEHPBD@Z
  0000a	64 a1 00 00 00
	00		 mov	 eax, DWORD PTR fs:0
  00010	50		 push	 eax
  00011	b8 70 1e 00 00	 mov	 eax, 7792		; 00001e70H
  00016	e8 00 00 00 00	 call	 __chkstk
  0001b	a1 00 00 00 00	 mov	 eax, DWORD PTR ___security_cookie
  00020	33 c5		 xor	 eax, ebp
  00022	89 45 f0	 mov	 DWORD PTR __$ArrayPad$[ebp], eax
  00025	53		 push	 ebx
  00026	56		 push	 esi
  00027	57		 push	 edi
  00028	50		 push	 eax
  00029	8d 45 f4	 lea	 eax, DWORD PTR __$EHRec$[ebp]
  0002c	64 a3 00 00 00
	00		 mov	 DWORD PTR fs:0, eax
  00032	8b d9		 mov	 ebx, ecx
  00034	8b 75 08	 mov	 esi, DWORD PTR _lpszFileName$[ebp]

; 378  : 	CScript s;

  00037	8d 8d 88 e1 ff
	ff		 lea	 ecx, DWORD PTR _s$[ebp]
  0003d	6a 00		 push	 0
  0003f	e8 00 00 00 00	 call	 ??0CScript@@QAE@H@Z	; CScript::CScript

; 379  : 	if( s.Load( lpszFileName ) == FALSE )

  00044	6a 00		 push	 0
  00046	6a 01		 push	 1
  00048	56		 push	 esi
  00049	8d 8d 88 e1 ff
	ff		 lea	 ecx, DWORD PTR _s$[ebp]
  0004f	c7 45 fc 00 00
	00 00		 mov	 DWORD PTR __$EHRec$[ebp+8], 0
  00056	e8 00 00 00 00	 call	 ?Load@CScript@@QAEHPBDHH@Z ; CScript::Load
  0005b	85 c0		 test	 eax, eax
  0005d	75 07		 jne	 SHORT $LN4@LoadDefOfW
  0005f	33 f6		 xor	 esi, esi
  00061	e9 48 01 00 00	 jmp	 $LN17@LoadDefOfW
$LN4@LoadDefOfW:

; 380  : 		return( FALSE );
; 381  : 
; 382  : 	int nBrace	= 1;
; 383  : 	s.SetMark();

  00066	8d 8d 88 e1 ff
	ff		 lea	 ecx, DWORD PTR _s$[ebp]
  0006c	bf 01 00 00 00	 mov	 edi, 1
  00071	e8 00 00 00 00	 call	 ?SetMark@CScript@@UAEXXZ ; CScript::SetMark

; 384  : 	int i	= s.GetNumber();	// folder or id

  00076	6a 00		 push	 0
  00078	8d 8d 88 e1 ff
	ff		 lea	 ecx, DWORD PTR _s$[ebp]
  0007e	e8 00 00 00 00	 call	 ?GetNumber@CScanner@@QAEHH@Z ; CScanner::GetNumber
  00083	8b f0		 mov	 esi, eax
$LL2@LoadDefOfW:

; 387  : 	{
; 388  : 		if( MAX_WORLD <= i )

  00085	81 fe 00 01 00
	00		 cmp	 esi, 256		; 00000100H
  0008b	7c 0e		 jl	 SHORT $LN5@LoadDefOfW

; 389  : 			Error( "Error LoadDefOfWorld i = %d Max°Şş¸´Ů ¸ąŔ˝", i );

  0008d	56		 push	 esi
  0008e	68 00 00 00 00	 push	 OFFSET ??_C@_0CL@LMMKJOOA@Error?5LoadDefOfWorld?5i?5?$DN?5?$CFd?5Max@
  00093	e8 00 00 00 00	 call	 ?Error@@YAPBDPBDZZ	; Error
  00098	83 c4 08	 add	 esp, 8
$LN5@LoadDefOfW:

; 390  : 
; 391  : 		if( *s.token == '}' || s.tok == FINISHED )

  0009b	8b 85 c4 e1 ff
	ff		 mov	 eax, DWORD PTR _s$[ebp+60]
  000a1	80 38 7d	 cmp	 BYTE PTR [eax], 125	; 0000007dH
  000a4	74 09		 je	 SHORT $LN7@LoadDefOfW
  000a6	83 bd cc e9 ff
	ff 15		 cmp	 DWORD PTR _s$[ebp+2116], 21 ; 00000015H
  000ad	75 0f		 jne	 SHORT $LN9@LoadDefOfW
$LN7@LoadDefOfW:

; 392  : 		{
; 393  : 			nBrace--;

  000af	4f		 dec	 edi

; 394  : 			if( nBrace > 0 )

  000b0	85 ff		 test	 edi, edi
  000b2	0f 8f d1 00 00
	00		 jg	 $LN11@LoadDefOfW

; 395  : 			{
; 396  : 				s.SetMark();
; 397  : 				i	= s.GetNumber();	// folder or id
; 398  : 				continue;
; 399  : 			}
; 400  : 			if( nBrace == 0 )

  000b8	0f 84 eb 00 00
	00		 je	 $LN53@LoadDefOfW
$LN9@LoadDefOfW:

; 401  : 				continue;
; 402  : 		}
; 403  : 		s.GetToken();		// { or filename

  000be	6a 00		 push	 0
  000c0	8d 8d 88 e1 ff
	ff		 lea	 ecx, DWORD PTR _s$[ebp]
  000c6	e8 00 00 00 00	 call	 ?GetToken@CScript@@UAEHH@Z ; CScript::GetToken
; File C:\Program Files\Microsoft Visual Studio\2022\Professional\VC\Tools\MSVC\14.44.35207\atlmfc\include\cstringt.h

; 184  : 		return _mbscmp( reinterpret_cast< const unsigned char* >( pszA ), reinterpret_cast< const unsigned char* >( pszB ) );

  000cb	68 00 00 00 00	 push	 OFFSET ??_C@_08GMCCAJLF@SetTitle@
  000d0	ff b5 a8 e1 ff
	ff		 push	 DWORD PTR _s$[ebp+32]
  000d6	e8 00 00 00 00	 call	 __mbscmp
  000db	83 c4 08	 add	 esp, 8
; File C:\IAGOS\server\v18\Source\Source\DatabaseServer\Project.cpp

; 404  : 		if( s.Token == "SetTitle" )

  000de	8d 8d 88 e1 ff
	ff		 lea	 ecx, DWORD PTR _s$[ebp]
; File C:\Program Files\Microsoft Visual Studio\2022\Professional\VC\Tools\MSVC\14.44.35207\atlmfc\include\cstringt.h

; 2490 : 		return(str1.Compare(psz2) == 0);

  000e4	85 c0		 test	 eax, eax
; File C:\IAGOS\server\v18\Source\Source\DatabaseServer\Project.cpp

; 404  : 		if( s.Token == "SetTitle" )

  000e6	75 56		 jne	 SHORT $LN10@LoadDefOfW

; 405  : 		{
; 406  : 			s.GetToken(); // (

  000e8	50		 push	 eax
  000e9	e8 00 00 00 00	 call	 ?GetToken@CScript@@UAEHH@Z ; CScript::GetToken

; 407  : 			strcpy(	m_apszWorldName[i], GetLangScript( s ) );

  000ee	8d 85 88 e1 ff
	ff		 lea	 eax, DWORD PTR _s$[ebp]
  000f4	8b cb		 mov	 ecx, ebx
  000f6	50		 push	 eax
  000f7	8d 85 84 e1 ff
	ff		 lea	 eax, DWORD PTR $T2[ebp]
  000fd	50		 push	 eax
  000fe	e8 00 00 00 00	 call	 ?GetLangScript@CProject@@QAE?AV?$CStringT@DV?$StrTraitMFC@DV?$ChTraitsCRT@D@ATL@@@@@ATL@@AAVCScript@@@Z ; CProject::GetLangScript
  00103	c1 e6 06	 shl	 esi, 6
  00106	8b 10		 mov	 edx, DWORD PTR [eax]
  00108	8d 83 58 be 04
	00		 lea	 eax, DWORD PTR [ebx+310872]
  0010e	03 c6		 add	 eax, esi
$LL13@LoadDefOfW:
  00110	8a 0a		 mov	 cl, BYTE PTR [edx]
  00112	8d 52 01	 lea	 edx, DWORD PTR [edx+1]
  00115	88 08		 mov	 BYTE PTR [eax], cl
  00117	8d 40 01	 lea	 eax, DWORD PTR [eax+1]
  0011a	84 c9		 test	 cl, cl
  0011c	75 f2		 jne	 SHORT $LL13@LoadDefOfW
; File C:\Program Files\Microsoft Visual Studio\2022\Professional\VC\Tools\MSVC\14.44.35207\atlmfc\include\atlsimpstr.h

; 804  : 		return( reinterpret_cast< CStringData* >( m_pszData )-1 );

  0011e	8b 95 84 e1 ff
	ff		 mov	 edx, DWORD PTR $T2[ebp]

; 92   : 		if( _InterlockedDecrement( &nRefs ) <= 0 )

  00124	83 c8 ff	 or	 eax, -1

; 804  : 		return( reinterpret_cast< CStringData* >( m_pszData )-1 );

  00127	83 c2 f0	 add	 edx, -16		; fffffff0H

; 92   : 		if( _InterlockedDecrement( &nRefs ) <= 0 )

  0012a	f0 0f c1 42 0c	 lock	  xadd	 DWORD PTR [edx+12], eax
  0012f	48		 dec	 eax
  00130	85 c0		 test	 eax, eax
  00132	7f 55		 jg	 SHORT $LN11@LoadDefOfW

; 93   : 		{
; 94   : 			pStringMgr->Free( this );

  00134	8b 0a		 mov	 ecx, DWORD PTR [edx]
  00136	52		 push	 edx
  00137	8b 01		 mov	 eax, DWORD PTR [ecx]
  00139	ff 50 04	 call	 DWORD PTR [eax+4]
; File C:\IAGOS\server\v18\Source\Source\DatabaseServer\Project.cpp

; 408  : 		}

  0013c	eb 4b		 jmp	 SHORT $LN11@LoadDefOfW
$LN10@LoadDefOfW:

; 409  : 		else
; 410  : 		{
; 411  : 			s.GoMark();

  0013e	e8 00 00 00 00	 call	 ?GoMark@CScript@@UAEXXZ	; CScript::GoMark

; 412  : 			i	= s.GetNumber(); // id

  00143	6a 00		 push	 0
  00145	8d 8d 88 e1 ff
	ff		 lea	 ecx, DWORD PTR _s$[ebp]
  0014b	e8 00 00 00 00	 call	 ?GetNumber@CScanner@@QAEHH@Z ; CScanner::GetNumber

; 413  : 			
; 414  : 			s.GetToken();		// filename

  00150	6a 00		 push	 0
  00152	8d 8d 88 e1 ff
	ff		 lea	 ecx, DWORD PTR _s$[ebp]
  00158	8b f0		 mov	 esi, eax
  0015a	e8 00 00 00 00	 call	 ?GetToken@CScript@@UAEHH@Z ; CScript::GetToken

; 415  : 			_tcscpy( m_apszWorld[i], s.token );

  0015f	8b 8d c4 e1 ff
	ff		 mov	 ecx, DWORD PTR _s$[ebp+60]
  00165	c1 e6 06	 shl	 esi, 6
  00168	81 c6 58 7e 04
	00		 add	 esi, 294488		; 00047e58H
  0016e	03 f3		 add	 esi, ebx
  00170	8b d6		 mov	 edx, esi
$LL14@LoadDefOfW:
  00172	8a 01		 mov	 al, BYTE PTR [ecx]
  00174	8d 49 01	 lea	 ecx, DWORD PTR [ecx+1]
  00177	88 02		 mov	 BYTE PTR [edx], al
  00179	8d 52 01	 lea	 edx, DWORD PTR [edx+1]
  0017c	84 c0		 test	 al, al
  0017e	75 f2		 jne	 SHORT $LL14@LoadDefOfW
; File C:\Program Files (x86)\Windows Kits\10\Include\10.0.26100.0\ucrt\tchar.h

; 1848 :     return (char *)_mbslwr((unsigned char *)_String);

  00180	56		 push	 esi
  00181	e8 00 00 00 00	 call	 __mbslwr
  00186	83 c4 04	 add	 esp, 4
$LN11@LoadDefOfW:
; File C:\IAGOS\server\v18\Source\Source\DatabaseServer\Project.cpp

; 386  : 	while( nBrace )

  00189	8d b5 88 e1 ff
	ff		 lea	 esi, DWORD PTR _s$[ebp]
  0018f	8b ce		 mov	 ecx, esi
  00191	e8 00 00 00 00	 call	 ?SetMark@CScript@@UAEXXZ ; CScript::SetMark
  00196	6a 00		 push	 0
  00198	8b ce		 mov	 ecx, esi
  0019a	e8 00 00 00 00	 call	 ?GetNumber@CScanner@@QAEHH@Z ; CScanner::GetNumber
  0019f	8b f0		 mov	 esi, eax
  001a1	85 ff		 test	 edi, edi
  001a3	0f 85 dc fe ff
	ff		 jne	 $LL2@LoadDefOfW
$LN53@LoadDefOfW:

; 416  : 			_tcslwr( m_apszWorld[i] );
; 417  : 		}
; 418  : 		s.SetMark();
; 419  : 		i	= s.GetNumber();	// texture fileName
; 420  : 	}
; 421  : 
; 422  : 	return( TRUE );

  001a9	be 01 00 00 00	 mov	 esi, 1
$LN17@LoadDefOfW:
  001ae	8d 8d 88 e1 ff
	ff		 lea	 ecx, DWORD PTR _s$[ebp]
  001b4	e8 00 00 00 00	 call	 ??1CScript@@UAE@XZ	; CScript::~CScript
  001b9	8b c6		 mov	 eax, esi

; 423  : }

  001bb	8b 4d f4	 mov	 ecx, DWORD PTR __$EHRec$[ebp]
  001be	64 89 0d 00 00
	00 00		 mov	 DWORD PTR fs:0, ecx
  001c5	59		 pop	 ecx
  001c6	5f		 pop	 edi
  001c7	5e		 pop	 esi
  001c8	5b		 pop	 ebx
  001c9	8b 4d f0	 mov	 ecx, DWORD PTR __$ArrayPad$[ebp]
  001cc	33 cd		 xor	 ecx, ebp
  001ce	e8 00 00 00 00	 call	 @__security_check_cookie@4
  001d3	8b e5		 mov	 esp, ebp
  001d5	5d		 pop	 ebp
  001d6	c2 04 00	 ret	 4
_TEXT	ENDS
;	COMDAT text$x
text$x	SEGMENT
__unwindfunclet$?LoadDefOfWorld@CProject@@QAEHPBD@Z$0:
  00000	8d 8d 88 e1 ff
	ff		 lea	 ecx, DWORD PTR _s$[ebp]
  00006	e9 00 00 00 00	 jmp	 ??1CScript@@UAE@XZ	; CScript::~CScript
  0000b	cc		 int	 3
  0000c	cc		 int	 3
  0000d	cc		 int	 3
  0000e	cc		 int	 3
  0000f	cc		 int	 3
__ehhandler$?LoadDefOfWorld@CProject@@QAEHPBD@Z:
  00010	90		 npad	 1
  00011	90		 npad	 1
  00012	8b 54 24 08	 mov	 edx, DWORD PTR [esp+8]
  00016	8d 42 0c	 lea	 eax, DWORD PTR [edx+12]
  00019	8b 8a 80 e1 ff
	ff		 mov	 ecx, DWORD PTR [edx-7808]
  0001f	33 c8		 xor	 ecx, eax
  00021	e8 00 00 00 00	 call	 @__security_check_cookie@4
  00026	8b 4a fc	 mov	 ecx, DWORD PTR [edx-4]
  00029	33 c8		 xor	 ecx, eax
  0002b	e8 00 00 00 00	 call	 @__security_check_cookie@4
  00030	b8 00 00 00 00	 mov	 eax, OFFSET __ehfuncinfo$?LoadDefOfWorld@CProject@@QAEHPBD@Z
  00035	e9 00 00 00 00	 jmp	 ___CxxFrameHandler3
text$x	ENDS
?LoadDefOfWorld@CProject@@QAEHPBD@Z ENDP		; CProject::LoadDefOfWorld
; Function compile flags: /Ogtp
; File C:\IAGOS\server\v18\Source\Source\DatabaseServer\Project.cpp
; File C:\Program Files\Microsoft Visual Studio\2022\Professional\VC\Tools\MSVC\14.44.35207\include\xtree
; File C:\IAGOS\server\v18\Source\Source\DatabaseServer\Project.cpp
; File C:\Program Files\Microsoft Visual Studio\2022\Professional\VC\Tools\MSVC\14.44.35207\include\xtree
; File C:\Program Files\Microsoft Visual Studio\2022\Professional\VC\Tools\MSVC\14.44.35207\include\type_traits
; File C:\Program Files\Microsoft Visual Studio\2022\Professional\VC\Tools\MSVC\14.44.35207\include\xtree
; File C:\Program Files\Microsoft Visual Studio\2022\Professional\VC\Tools\MSVC\14.44.35207\include\xstring
; File C:\Program Files\Microsoft Visual Studio\2022\Professional\VC\Tools\MSVC\14.44.35207\include\xmemory
; File C:\Program Files\Microsoft Visual Studio\2022\Professional\VC\Tools\MSVC\14.44.35207\include\xstring
; File C:\Program Files\Microsoft Visual Studio\2022\Professional\VC\Tools\MSVC\14.44.35207\include\xmemory
; File C:\Program Files\Microsoft Visual Studio\2022\Professional\VC\Tools\MSVC\14.44.35207\include\xtree
; File C:\IAGOS\server\v18\Source\Source\DatabaseServer\Project.cpp
; File C:\IAGOS\server\v18\Source\Source\_Common\xutil.h
; File C:\IAGOS\server\v18\Source\Source\DatabaseServer\Project.cpp
; File C:\IAGOS\server\v18\Source\Source\_Common\xutil.h
; File C:\IAGOS\server\v18\Source\Source\DatabaseServer\Project.cpp
; File C:\Program Files\Microsoft Visual Studio\2022\Professional\VC\Tools\MSVC\14.44.35207\include\xmemory
; File C:\IAGOS\server\v18\Source\Source\DatabaseServer\Project.cpp
;	COMDAT ?GetRandomBeginPos@CProject@@QAEHKPAUD3DXVECTOR3@@@Z
_TEXT	SEGMENT
__Loc$1 = -40						; size = 12
$T2 = -28						; size = 24
__$ArrayPad$ = -4					; size = 4
_dwWorldID$ = 8						; size = 4
_pvOut$ = 12						; size = 4
?GetRandomBeginPos@CProject@@QAEHKPAUD3DXVECTOR3@@@Z PROC ; CProject::GetRandomBeginPos, COMDAT
; _this$ = ecx

; 362  : {

  00000	55		 push	 ebp
  00001	8b ec		 mov	 ebp, esp
  00003	83 ec 28	 sub	 esp, 40			; 00000028H
  00006	a1 00 00 00 00	 mov	 eax, DWORD PTR ___security_cookie
  0000b	33 c5		 xor	 eax, ebp
  0000d	89 45 fc	 mov	 DWORD PTR __$ArrayPad$[ebp], eax
  00010	8b 45 08	 mov	 eax, DWORD PTR _dwWorldID$[ebp]
  00013	53		 push	 ebx
  00014	8b 5d 0c	 mov	 ebx, DWORD PTR _pvOut$[ebp]
  00017	56		 push	 esi

; 363  : 	char* lpszWorld
; 364  : 		= m_apszWorld[dwWorldID];

  00018	c1 e0 06	 shl	 eax, 6
  0001b	8b f1		 mov	 esi, ecx
  0001d	05 58 7e 04 00	 add	 eax, 294488		; 00047e58H

; 366  : 	CMapStrToPtr::iterator i	= m_mapBeginPos.find( lpszWorld );

  00022	8d 4d e4	 lea	 ecx, DWORD PTR $T2[ebp]
  00025	57		 push	 edi
  00026	03 c6		 add	 eax, esi
  00028	50		 push	 eax
  00029	e8 00 00 00 00	 call	 ??0?$basic_string@DU?$char_traits@D@std@@V?$allocator@D@2@@std@@QAE@QBD@Z ; std::basic_string<char,std::char_traits<char>,std::allocator<char> >::basic_string<char,std::char_traits<char>,std::allocator<char> >
; File C:\Program Files\Microsoft Visual Studio\2022\Professional\VC\Tools\MSVC\14.44.35207\include\xtree

; 1384 :         const _Tree_find_result<_Nodeptr> _Loc = _Find_lower_bound(_Keyval);

  0002e	8d 45 e4	 lea	 eax, DWORD PTR $T2[ebp]
  00031	50		 push	 eax
  00032	8d 45 d8	 lea	 eax, DWORD PTR __Loc$1[ebp]
; File C:\IAGOS\server\v18\Source\Source\DatabaseServer\Project.cpp

; 366  : 	CMapStrToPtr::iterator i	= m_mapBeginPos.find( lpszWorld );

  00035	8d be 64 fe 04
	00		 lea	 edi, DWORD PTR [esi+327268]
; File C:\Program Files\Microsoft Visual Studio\2022\Professional\VC\Tools\MSVC\14.44.35207\include\xtree

; 1384 :         const _Tree_find_result<_Nodeptr> _Loc = _Find_lower_bound(_Keyval);

  0003b	50		 push	 eax
  0003c	8b cf		 mov	 ecx, edi
  0003e	e8 00 00 00 00	 call	 ??$_Find_lower_bound@V?$basic_string@DU?$char_traits@D@std@@V?$allocator@D@2@@std@@@?$_Tree@V?$_Tmap_traits@V?$basic_string@DU?$char_traits@D@std@@V?$allocator@D@2@@std@@PAXU?$less@V?$basic_string@DU?$char_traits@D@std@@V?$allocator@D@2@@std@@@2@V?$allocator@U?$pair@$$CBV?$basic_string@DU?$char_traits@D@std@@V?$allocator@D@2@@std@@PAX@std@@@2@$0A@@std@@@std@@IBE?AU?$_Tree_find_result@PAU?$_Tree_node@U?$pair@$$CBV?$basic_string@DU?$char_traits@D@std@@V?$allocator@D@2@@std@@PAX@std@@PAX@std@@@1@ABV?$basic_string@DU?$char_traits@D@std@@V?$allocator@D@2@@1@@Z ; std::_Tree<std::_Tmap_traits<std::basic_string<char,std::char_traits<char>,std::allocator<char> >,void *,std::less<std::basic_string<char,std::char_traits<char>,std::allocator<char> > >,std::allocator<std::pair<std::basic_string<char,std::char_traits<char>,std::allocator<char> > const ,void *> >,0> >::_Find_lower_bound<std::basic_string<char,std::char_traits<char>,std::allocator<char> > >

; 1624 :         return !_Bound->_Isnil && !_DEBUG_LT_PRED(_Getcomp(), _Keyval, _Traits::_Kfn(_Bound->_Myval));

  00043	8b 75 e0	 mov	 esi, DWORD PTR __Loc$1[ebp+8]
  00046	80 7e 0d 00	 cmp	 BYTE PTR [esi+13], 0
  0004a	75 14		 jne	 SHORT $LN8@GetRandomB
  0004c	8d 46 10	 lea	 eax, DWORD PTR [esi+16]
; File C:\Program Files\Microsoft Visual Studio\2022\Professional\VC\Tools\MSVC\14.44.35207\include\type_traits

; 2380 :         return _Left < _Right;

  0004f	50		 push	 eax
  00050	8d 45 e4	 lea	 eax, DWORD PTR $T2[ebp]
  00053	50		 push	 eax
  00054	e8 00 00 00 00	 call	 ??$?MDU?$char_traits@D@std@@V?$allocator@D@1@@std@@YA_NABV?$basic_string@DU?$char_traits@D@std@@V?$allocator@D@2@@0@0@Z ; std::operator<<char,std::char_traits<char>,std::allocator<char> >
  00059	83 c4 08	 add	 esp, 8
; File C:\Program Files\Microsoft Visual Studio\2022\Professional\VC\Tools\MSVC\14.44.35207\include\xtree

; 1624 :         return !_Bound->_Isnil && !_DEBUG_LT_PRED(_Getcomp(), _Keyval, _Traits::_Kfn(_Bound->_Myval));

  0005c	84 c0		 test	 al, al
  0005e	74 02		 je	 SHORT $LN7@GetRandomB
$LN8@GetRandomB:

; 1389 :         return _Get_scary()->_Myhead;

  00060	8b 37		 mov	 esi, DWORD PTR [edi]
$LN7@GetRandomB:
; File C:\Program Files\Microsoft Visual Studio\2022\Professional\VC\Tools\MSVC\14.44.35207\include\xstring

; 453  :         return _Myres > _Small_string_capacity;

  00062	8b 4d f8	 mov	 ecx, DWORD PTR $T2[ebp+20]
  00065	83 f9 0f	 cmp	 ecx, 15			; 0000000fH

; 3083 :         if (_My_data._Large_mode_engaged()) {

  00068	76 28		 jbe	 SHORT $LN46@GetRandomB
; File C:\Program Files\Microsoft Visual Studio\2022\Professional\VC\Tools\MSVC\14.44.35207\include\xmemory

; 985  :         _STD _Deallocate<_New_alignof<_Ty>>(_Ptr, sizeof(_Ty) * _Count);

  0006a	8b 55 e4	 mov	 edx, DWORD PTR $T2[ebp]
; File C:\Program Files\Microsoft Visual Studio\2022\Professional\VC\Tools\MSVC\14.44.35207\include\xstring

; 852  :         _Al.deallocate(_Old_ptr, _Capacity + 1); // +1 for null terminator

  0006d	41		 inc	 ecx
; File C:\Program Files\Microsoft Visual Studio\2022\Professional\VC\Tools\MSVC\14.44.35207\include\xmemory

; 985  :         _STD _Deallocate<_New_alignof<_Ty>>(_Ptr, sizeof(_Ty) * _Count);

  0006e	8b c2		 mov	 eax, edx

; 284  :         if (_Bytes >= _Big_allocation_threshold) {

  00070	81 f9 00 10 00
	00		 cmp	 ecx, 4096		; 00001000H
  00076	72 10		 jb	 SHORT $LN51@GetRandomB

; 205  :     const uintptr_t _Ptr_container   = _Ptr_user[-1];

  00078	8b 50 fc	 mov	 edx, DWORD PTR [eax-4]
  0007b	83 c1 23	 add	 ecx, 35			; 00000023H
  0007e	2b c2		 sub	 eax, edx

; 219  :     _STL_VERIFY(_Back_shift >= _Min_back_shift && _Back_shift <= _Non_user_size, "invalid argument");

  00080	83 c0 fc	 add	 eax, -4			; fffffffcH
  00083	83 f8 1f	 cmp	 eax, 31			; 0000001fH
  00086	77 6c		 ja	 SHORT $LN97@GetRandomB
$LN51@GetRandomB:

; 289  :         ::operator delete(_Ptr, _Bytes);

  00088	51		 push	 ecx
  00089	52		 push	 edx
  0008a	e8 00 00 00 00	 call	 ??3@YAXPAXI@Z		; operator delete
  0008f	83 c4 08	 add	 esp, 8
$LN46@GetRandomB:
; File C:\Program Files\Microsoft Visual Studio\2022\Professional\VC\Tools\MSVC\14.44.35207\include\xtree

; 37   :     _Tree_unchecked_const_iterator(_Nodeptr _Pnode, const _Mytree* _Plist) noexcept : _Ptr(_Pnode) {

  00092	3b 37		 cmp	 esi, DWORD PTR [edi]
; File C:\IAGOS\server\v18\Source\Source\DatabaseServer\Project.cpp

; 367  : 	if( i != m_mapBeginPos.end() )

  00094	74 49		 je	 SHORT $LN2@GetRandomB

; 368  : 	{
; 369  : 		LPBEGINPOSARR lpBeginPosArr		= (LPBEGINPOSARR)i->second;

  00096	8b 76 28	 mov	 esi, DWORD PTR [esi+40]
; File C:\IAGOS\server\v18\Source\Source\_Common\xutil.h

; 16   : 	g_next = g_next * 1103515245 + 12345;// + nRandomSeed[ i++ ];

  00099	33 d2		 xor	 edx, edx
  0009b	69 05 00 00 00
	00 6d 4e c6 41	 imul	 eax, DWORD PTR ?g_next@@3KA, 1103515245 ; g_next
  000a5	5f		 pop	 edi
; File C:\IAGOS\server\v18\Source\Source\DatabaseServer\Project.cpp

; 370  : 		*pvOut	= lpBeginPosArr->avPos[xRandom( lpBeginPosArr->uSize )];

  000a6	8b 0e		 mov	 ecx, DWORD PTR [esi]
; File C:\IAGOS\server\v18\Source\Source\_Common\xutil.h

; 16   : 	g_next = g_next * 1103515245 + 12345;// + nRandomSeed[ i++ ];

  000a8	05 39 30 00 00	 add	 eax, 12345		; 00003039H
  000ad	a3 00 00 00 00	 mov	 DWORD PTR ?g_next@@3KA, eax ; g_next
  000b2	f7 f1		 div	 ecx
; File C:\IAGOS\server\v18\Source\Source\DatabaseServer\Project.cpp

; 370  : 		*pvOut	= lpBeginPosArr->avPos[xRandom( lpBeginPosArr->uSize )];

  000b4	8d 04 52	 lea	 eax, DWORD PTR [edx+edx*2]
  000b7	f3 0f 7e 44 86
	04		 movq	 xmm0, QWORD PTR [esi+eax*4+4]
  000bd	66 0f d6 03	 movq	 QWORD PTR [ebx], xmm0
  000c1	8b 44 86 0c	 mov	 eax, DWORD PTR [esi+eax*4+12]
  000c5	89 43 08	 mov	 DWORD PTR [ebx+8], eax

; 371  : 		return TRUE;

  000c8	b8 01 00 00 00	 mov	 eax, 1

; 374  : }

  000cd	5e		 pop	 esi
  000ce	5b		 pop	 ebx
  000cf	8b 4d fc	 mov	 ecx, DWORD PTR __$ArrayPad$[ebp]
  000d2	33 cd		 xor	 ecx, ebp
  000d4	e8 00 00 00 00	 call	 @__security_check_cookie@4
  000d9	8b e5		 mov	 esp, ebp
  000db	5d		 pop	 ebp
  000dc	c2 08 00	 ret	 8
$LN2@GetRandomB:
  000df	8b 4d fc	 mov	 ecx, DWORD PTR __$ArrayPad$[ebp]
  000e2	33 c0		 xor	 eax, eax
  000e4	5f		 pop	 edi
  000e5	5e		 pop	 esi
  000e6	33 cd		 xor	 ecx, ebp
  000e8	5b		 pop	 ebx
  000e9	e8 00 00 00 00	 call	 @__security_check_cookie@4
  000ee	8b e5		 mov	 esp, ebp
  000f0	5d		 pop	 ebp
  000f1	c2 08 00	 ret	 8
$LN97@GetRandomB:
; File C:\Program Files\Microsoft Visual Studio\2022\Professional\VC\Tools\MSVC\14.44.35207\include\xmemory

; 219  :     _STL_VERIFY(_Back_shift >= _Min_back_shift && _Back_shift <= _Non_user_size, "invalid argument");

  000f4	6a 00		 push	 0
  000f6	6a 00		 push	 0
  000f8	6a 00		 push	 0
  000fa	6a 00		 push	 0
  000fc	6a 00		 push	 0
  000fe	e8 00 00 00 00	 call	 __invoke_watson
$LN95@GetRandomB:
  00103	cc		 int	 3
?GetRandomBeginPos@CProject@@QAEHKPAUD3DXVECTOR3@@@Z ENDP ; CProject::GetRandomBeginPos
_TEXT	ENDS
; Function compile flags: /Ogtp
; File C:\IAGOS\server\v18\Source\Source\DatabaseServer\Project.cpp
; File C:\Program Files\Microsoft Visual Studio\2022\Professional\VC\Tools\MSVC\14.44.35207\include\xtree
; File C:\IAGOS\server\v18\Source\Source\DatabaseServer\Project.cpp
; File C:\Program Files\Microsoft Visual Studio\2022\Professional\VC\Tools\MSVC\14.44.35207\include\xtree
; File C:\Program Files\Microsoft Visual Studio\2022\Professional\VC\Tools\MSVC\14.44.35207\include\type_traits
; File C:\Program Files\Microsoft Visual Studio\2022\Professional\VC\Tools\MSVC\14.44.35207\include\xtree
; File C:\Program Files\Microsoft Visual Studio\2022\Professional\VC\Tools\MSVC\14.44.35207\include\xstring
; File C:\Program Files\Microsoft Visual Studio\2022\Professional\VC\Tools\MSVC\14.44.35207\include\xmemory
; File C:\Program Files\Microsoft Visual Studio\2022\Professional\VC\Tools\MSVC\14.44.35207\include\xstring
; File C:\Program Files\Microsoft Visual Studio\2022\Professional\VC\Tools\MSVC\14.44.35207\include\xmemory
; File C:\Program Files\Microsoft Visual Studio\2022\Professional\VC\Tools\MSVC\14.44.35207\include\xtree
; File C:\IAGOS\server\v18\Source\Source\DatabaseServer\Project.cpp
; File C:\Program Files\Microsoft Visual Studio\2022\Professional\VC\Tools\MSVC\14.44.35207\include\map
; File C:\IAGOS\server\v18\Source\Source\DatabaseServer\Project.cpp
; File C:\Program Files\Microsoft Visual Studio\2022\Professional\VC\Tools\MSVC\14.44.35207\include\map
; File C:\Program Files\Microsoft Visual Studio\2022\Professional\VC\Tools\MSVC\14.44.35207\include\xtree
; File C:\Program Files\Microsoft Visual Studio\2022\Professional\VC\Tools\MSVC\14.44.35207\include\type_traits
; File C:\Program Files\Microsoft Visual Studio\2022\Professional\VC\Tools\MSVC\14.44.35207\include\xtree
; File C:\Program Files\Microsoft Visual Studio\2022\Professional\VC\Tools\MSVC\14.44.35207\include\map
; File C:\Program Files\Microsoft Visual Studio\2022\Professional\VC\Tools\MSVC\14.44.35207\include\xmemory
; File C:\Program Files\Microsoft Visual Studio\2022\Professional\VC\Tools\MSVC\14.44.35207\include\xtree
; File C:\Program Files\Microsoft Visual Studio\2022\Professional\VC\Tools\MSVC\14.44.35207\include\xmemory
; File C:\Program Files\Microsoft Visual Studio\2022\Professional\VC\Tools\MSVC\14.44.35207\include\map
; File C:\Program Files\Microsoft Visual Studio\2022\Professional\VC\Tools\MSVC\14.44.35207\include\xstring
; File C:\Program Files\Microsoft Visual Studio\2022\Professional\VC\Tools\MSVC\14.44.35207\include\map
; File C:\Program Files\Microsoft Visual Studio\2022\Professional\VC\Tools\MSVC\14.44.35207\include\xstring
; File C:\Program Files\Microsoft Visual Studio\2022\Professional\VC\Tools\MSVC\14.44.35207\include\map
; File C:\Program Files\Microsoft Visual Studio\2022\Professional\VC\Tools\MSVC\14.44.35207\include\xstring
; File C:\Program Files\Microsoft Visual Studio\2022\Professional\VC\Tools\MSVC\14.44.35207\include\utility
; File C:\Program Files\Microsoft Visual Studio\2022\Professional\VC\Tools\MSVC\14.44.35207\include\xtree
; File C:\Program Files\Microsoft Visual Studio\2022\Professional\VC\Tools\MSVC\14.44.35207\include\map
; File C:\IAGOS\server\v18\Source\Source\DatabaseServer\Project.cpp
; File C:\Program Files\Microsoft Visual Studio\2022\Professional\VC\Tools\MSVC\14.44.35207\include\xmemory
; File C:\Program Files\Microsoft Visual Studio\2022\Professional\VC\Tools\MSVC\14.44.35207\include\xtree
; File C:\IAGOS\server\v18\Source\Source\DatabaseServer\Project.cpp
;	COMDAT ?AddBeginPos@CProject@@QAEXPBDABUD3DXVECTOR3@@@Z
_TEXT	SEGMENT
__Loc$2 = -88						; size = 12
__Loc$3 = -88						; size = 12
$T4 = -76						; size = 4
$T5 = -72						; size = 8
_lpszWorld$GSCopy$1$ = -68				; size = 4
$T6 = -64						; size = 24
$T7 = -40						; size = 24
__$ArrayPad$ = -16					; size = 4
__$EHRec$ = -12						; size = 12
_lpszWorld$ = 8						; size = 4
_vPos$ = 12						; size = 4
?AddBeginPos@CProject@@QAEXPBDABUD3DXVECTOR3@@@Z PROC	; CProject::AddBeginPos, COMDAT
; _this$ = ecx

; 343  : {

  00000	55		 push	 ebp
  00001	8b ec		 mov	 ebp, esp
  00003	6a ff		 push	 -1
  00005	68 00 00 00 00	 push	 __ehhandler$?AddBeginPos@CProject@@QAEXPBDABUD3DXVECTOR3@@@Z
  0000a	64 a1 00 00 00
	00		 mov	 eax, DWORD PTR fs:0
  00010	50		 push	 eax
  00011	83 ec 4c	 sub	 esp, 76			; 0000004cH
  00014	a1 00 00 00 00	 mov	 eax, DWORD PTR ___security_cookie
  00019	33 c5		 xor	 eax, ebp
  0001b	89 45 f0	 mov	 DWORD PTR __$ArrayPad$[ebp], eax
  0001e	56		 push	 esi
  0001f	57		 push	 edi
  00020	50		 push	 eax
  00021	8d 45 f4	 lea	 eax, DWORD PTR __$EHRec$[ebp]
  00024	64 a3 00 00 00
	00		 mov	 DWORD PTR fs:0, eax
  0002a	8b f9		 mov	 edi, ecx
  0002c	8b 45 08	 mov	 eax, DWORD PTR _lpszWorld$[ebp]

; 346  : 	CMapStrToPtr::iterator i	= m_mapBeginPos.find( lpszWorld );

  0002f	8d 4d c0	 lea	 ecx, DWORD PTR $T6[ebp]
  00032	50		 push	 eax
  00033	89 45 bc	 mov	 DWORD PTR _lpszWorld$GSCopy$1$[ebp], eax
  00036	e8 00 00 00 00	 call	 ??0?$basic_string@DU?$char_traits@D@std@@V?$allocator@D@2@@std@@QAE@QBD@Z ; std::basic_string<char,std::char_traits<char>,std::allocator<char> >::basic_string<char,std::char_traits<char>,std::allocator<char> >
; File C:\Program Files\Microsoft Visual Studio\2022\Professional\VC\Tools\MSVC\14.44.35207\include\xtree

; 1384 :         const _Tree_find_result<_Nodeptr> _Loc = _Find_lower_bound(_Keyval);

  0003b	8d 45 c0	 lea	 eax, DWORD PTR $T6[ebp]
; File C:\IAGOS\server\v18\Source\Source\DatabaseServer\Project.cpp

; 346  : 	CMapStrToPtr::iterator i	= m_mapBeginPos.find( lpszWorld );

  0003e	81 c7 64 fe 04
	00		 add	 edi, 327268		; 0004fe64H
; File C:\Program Files\Microsoft Visual Studio\2022\Professional\VC\Tools\MSVC\14.44.35207\include\xtree

; 1384 :         const _Tree_find_result<_Nodeptr> _Loc = _Find_lower_bound(_Keyval);

  00044	50		 push	 eax
  00045	8d 45 a8	 lea	 eax, DWORD PTR __Loc$2[ebp]
  00048	8b cf		 mov	 ecx, edi
  0004a	50		 push	 eax
  0004b	e8 00 00 00 00	 call	 ??$_Find_lower_bound@V?$basic_string@DU?$char_traits@D@std@@V?$allocator@D@2@@std@@@?$_Tree@V?$_Tmap_traits@V?$basic_string@DU?$char_traits@D@std@@V?$allocator@D@2@@std@@PAXU?$less@V?$basic_string@DU?$char_traits@D@std@@V?$allocator@D@2@@std@@@2@V?$allocator@U?$pair@$$CBV?$basic_string@DU?$char_traits@D@std@@V?$allocator@D@2@@std@@PAX@std@@@2@$0A@@std@@@std@@IBE?AU?$_Tree_find_result@PAU?$_Tree_node@U?$pair@$$CBV?$basic_string@DU?$char_traits@D@std@@V?$allocator@D@2@@std@@PAX@std@@PAX@std@@@1@ABV?$basic_string@DU?$char_traits@D@std@@V?$allocator@D@2@@1@@Z ; std::_Tree<std::_Tmap_traits<std::basic_string<char,std::char_traits<char>,std::allocator<char> >,void *,std::less<std::basic_string<char,std::char_traits<char>,std::allocator<char> > >,std::allocator<std::pair<std::basic_string<char,std::char_traits<char>,std::allocator<char> > const ,void *> >,0> >::_Find_lower_bound<std::basic_string<char,std::char_traits<char>,std::allocator<char> > >

; 1624 :         return !_Bound->_Isnil && !_DEBUG_LT_PRED(_Getcomp(), _Keyval, _Traits::_Kfn(_Bound->_Myval));

  00050	8b 75 b0	 mov	 esi, DWORD PTR __Loc$2[ebp+8]
  00053	80 7e 0d 00	 cmp	 BYTE PTR [esi+13], 0
  00057	75 14		 jne	 SHORT $LN13@AddBeginPo
  00059	8d 46 10	 lea	 eax, DWORD PTR [esi+16]
; File C:\Program Files\Microsoft Visual Studio\2022\Professional\VC\Tools\MSVC\14.44.35207\include\type_traits

; 2380 :         return _Left < _Right;

  0005c	50		 push	 eax
  0005d	8d 45 c0	 lea	 eax, DWORD PTR $T6[ebp]
  00060	50		 push	 eax
  00061	e8 00 00 00 00	 call	 ??$?MDU?$char_traits@D@std@@V?$allocator@D@1@@std@@YA_NABV?$basic_string@DU?$char_traits@D@std@@V?$allocator@D@2@@0@0@Z ; std::operator<<char,std::char_traits<char>,std::allocator<char> >
  00066	83 c4 08	 add	 esp, 8
; File C:\Program Files\Microsoft Visual Studio\2022\Professional\VC\Tools\MSVC\14.44.35207\include\xtree

; 1624 :         return !_Bound->_Isnil && !_DEBUG_LT_PRED(_Getcomp(), _Keyval, _Traits::_Kfn(_Bound->_Myval));

  00069	84 c0		 test	 al, al
  0006b	74 02		 je	 SHORT $LN12@AddBeginPo
$LN13@AddBeginPo:

; 1389 :         return _Get_scary()->_Myhead;

  0006d	8b 37		 mov	 esi, DWORD PTR [edi]
$LN12@AddBeginPo:
; File C:\Program Files\Microsoft Visual Studio\2022\Professional\VC\Tools\MSVC\14.44.35207\include\xstring

; 453  :         return _Myres > _Small_string_capacity;

  0006f	8b 4d d4	 mov	 ecx, DWORD PTR $T6[ebp+20]
  00072	83 f9 0f	 cmp	 ecx, 15			; 0000000fH

; 3083 :         if (_My_data._Large_mode_engaged()) {

  00075	76 2c		 jbe	 SHORT $LN51@AddBeginPo
; File C:\Program Files\Microsoft Visual Studio\2022\Professional\VC\Tools\MSVC\14.44.35207\include\xmemory

; 985  :         _STD _Deallocate<_New_alignof<_Ty>>(_Ptr, sizeof(_Ty) * _Count);

  00077	8b 55 c0	 mov	 edx, DWORD PTR $T6[ebp]
; File C:\Program Files\Microsoft Visual Studio\2022\Professional\VC\Tools\MSVC\14.44.35207\include\xstring

; 852  :         _Al.deallocate(_Old_ptr, _Capacity + 1); // +1 for null terminator

  0007a	41		 inc	 ecx
; File C:\Program Files\Microsoft Visual Studio\2022\Professional\VC\Tools\MSVC\14.44.35207\include\xmemory

; 985  :         _STD _Deallocate<_New_alignof<_Ty>>(_Ptr, sizeof(_Ty) * _Count);

  0007b	8b c2		 mov	 eax, edx

; 284  :         if (_Bytes >= _Big_allocation_threshold) {

  0007d	81 f9 00 10 00
	00		 cmp	 ecx, 4096		; 00001000H
  00083	72 14		 jb	 SHORT $LN56@AddBeginPo

; 205  :     const uintptr_t _Ptr_container   = _Ptr_user[-1];

  00085	8b 50 fc	 mov	 edx, DWORD PTR [eax-4]
  00088	83 c1 23	 add	 ecx, 35			; 00000023H
  0008b	2b c2		 sub	 eax, edx

; 219  :     _STL_VERIFY(_Back_shift >= _Min_back_shift && _Back_shift <= _Non_user_size, "invalid argument");

  0008d	83 c0 fc	 add	 eax, -4			; fffffffcH
  00090	83 f8 1f	 cmp	 eax, 31			; 0000001fH
  00093	0f 87 53 01 00
	00		 ja	 $LN271@AddBeginPo
$LN56@AddBeginPo:

; 289  :         ::operator delete(_Ptr, _Bytes);

  00099	51		 push	 ecx
  0009a	52		 push	 edx
  0009b	e8 00 00 00 00	 call	 ??3@YAXPAXI@Z		; operator delete
  000a0	83 c4 08	 add	 esp, 8
$LN51@AddBeginPo:
; File C:\Program Files\Microsoft Visual Studio\2022\Professional\VC\Tools\MSVC\14.44.35207\include\xtree

; 37   :     _Tree_unchecked_const_iterator(_Nodeptr _Pnode, const _Mytree* _Plist) noexcept : _Ptr(_Pnode) {

  000a3	3b 37		 cmp	 esi, DWORD PTR [edi]
; File C:\IAGOS\server\v18\Source\Source\DatabaseServer\Project.cpp

; 347  : 	if( i == m_mapBeginPos.end() )

  000a5	0f 85 05 01 00
	00		 jne	 $LN2@AddBeginPo

; 348  : 	{
; 349  : 		LPBEGINPOSARR lpBeginPosArr	= new BEGINPOSARR;

  000ab	68 c4 00 00 00	 push	 196			; 000000c4H
  000b0	e8 00 00 00 00	 call	 ??2@YAPAXI@Z		; operator new

; 350  : 		lpBeginPosArr->uSize	= 0;
; 351  : 		lpBeginPosArr->avPos[lpBeginPosArr->uSize++]	= vPos;

  000b5	8b 4d 0c	 mov	 ecx, DWORD PTR _vPos$[ebp]
  000b8	83 c4 04	 add	 esp, 4
  000bb	89 45 b4	 mov	 DWORD PTR $T4[ebp], eax
  000be	c7 00 00 00 00
	00		 mov	 DWORD PTR [eax], 0
  000c4	f3 0f 7e 01	 movq	 xmm0, QWORD PTR [ecx]

; 352  : 		m_mapBeginPos[lpszWorld]	= (void*)lpBeginPosArr;

  000c8	ff 75 bc	 push	 DWORD PTR _lpszWorld$GSCopy$1$[ebp]
  000cb	66 0f d6 40 04	 movq	 QWORD PTR [eax+4], xmm0
  000d0	8b 49 08	 mov	 ecx, DWORD PTR [ecx+8]
  000d3	89 48 0c	 mov	 DWORD PTR [eax+12], ecx
  000d6	8d 4d d8	 lea	 ecx, DWORD PTR $T7[ebp]
  000d9	c7 00 01 00 00
	00		 mov	 DWORD PTR [eax], 1
  000df	e8 00 00 00 00	 call	 ??0?$basic_string@DU?$char_traits@D@std@@V?$allocator@D@2@@std@@QAE@QBD@Z ; std::basic_string<char,std::char_traits<char>,std::allocator<char> >::basic_string<char,std::char_traits<char>,std::allocator<char> >
; File C:\Program Files\Microsoft Visual Studio\2022\Professional\VC\Tools\MSVC\14.44.35207\include\map

; 197  :         const auto _Loc = _Mybase::_Find_lower_bound(_Keyval);

  000e4	8d 45 d8	 lea	 eax, DWORD PTR $T7[ebp]
; File C:\IAGOS\server\v18\Source\Source\DatabaseServer\Project.cpp

; 352  : 		m_mapBeginPos[lpszWorld]	= (void*)lpBeginPosArr;

  000e7	c7 45 fc 00 00
	00 00		 mov	 DWORD PTR __$EHRec$[ebp+8], 0
; File C:\Program Files\Microsoft Visual Studio\2022\Professional\VC\Tools\MSVC\14.44.35207\include\map

; 197  :         const auto _Loc = _Mybase::_Find_lower_bound(_Keyval);

  000ee	50		 push	 eax
  000ef	8d 45 a8	 lea	 eax, DWORD PTR __Loc$3[ebp]
  000f2	8b cf		 mov	 ecx, edi
  000f4	50		 push	 eax
  000f5	e8 00 00 00 00	 call	 ??$_Find_lower_bound@V?$basic_string@DU?$char_traits@D@std@@V?$allocator@D@2@@std@@@?$_Tree@V?$_Tmap_traits@V?$basic_string@DU?$char_traits@D@std@@V?$allocator@D@2@@std@@PAXU?$less@V?$basic_string@DU?$char_traits@D@std@@V?$allocator@D@2@@std@@@2@V?$allocator@U?$pair@$$CBV?$basic_string@DU?$char_traits@D@std@@V?$allocator@D@2@@std@@PAX@std@@@2@$0A@@std@@@std@@IBE?AU?$_Tree_find_result@PAU?$_Tree_node@U?$pair@$$CBV?$basic_string@DU?$char_traits@D@std@@V?$allocator@D@2@@std@@PAX@std@@PAX@std@@@1@ABV?$basic_string@DU?$char_traits@D@std@@V?$allocator@D@2@@1@@Z ; std::_Tree<std::_Tmap_traits<std::basic_string<char,std::char_traits<char>,std::allocator<char> >,void *,std::less<std::basic_string<char,std::char_traits<char>,std::allocator<char> > >,std::allocator<std::pair<std::basic_string<char,std::char_traits<char>,std::allocator<char> > const ,void *> >,0> >::_Find_lower_bound<std::basic_string<char,std::char_traits<char>,std::allocator<char> > >
; File C:\Program Files\Microsoft Visual Studio\2022\Professional\VC\Tools\MSVC\14.44.35207\include\xtree

; 1624 :         return !_Bound->_Isnil && !_DEBUG_LT_PRED(_Getcomp(), _Keyval, _Traits::_Kfn(_Bound->_Myval));

  000fa	8b 75 b0	 mov	 esi, DWORD PTR __Loc$3[ebp+8]
  000fd	80 7e 0d 00	 cmp	 BYTE PTR [esi+13], 0
  00101	75 18		 jne	 SHORT $LN81@AddBeginPo
  00103	8d 46 10	 lea	 eax, DWORD PTR [esi+16]
; File C:\Program Files\Microsoft Visual Studio\2022\Professional\VC\Tools\MSVC\14.44.35207\include\type_traits

; 2380 :         return _Left < _Right;

  00106	50		 push	 eax
  00107	8d 45 d8	 lea	 eax, DWORD PTR $T7[ebp]
  0010a	50		 push	 eax
  0010b	e8 00 00 00 00	 call	 ??$?MDU?$char_traits@D@std@@V?$allocator@D@1@@std@@YA_NABV?$basic_string@DU?$char_traits@D@std@@V?$allocator@D@2@@0@0@Z ; std::operator<<char,std::char_traits<char>,std::allocator<char> >
  00110	83 c4 08	 add	 esp, 8
; File C:\Program Files\Microsoft Visual Studio\2022\Professional\VC\Tools\MSVC\14.44.35207\include\xtree

; 1624 :         return !_Bound->_Isnil && !_DEBUG_LT_PRED(_Getcomp(), _Keyval, _Traits::_Kfn(_Bound->_Myval));

  00113	84 c0		 test	 al, al
  00115	0f 84 85 00 00
	00		 je	 $LN80@AddBeginPo
$LN81@AddBeginPo:

; 1648 :         if (max_size() == _Get_scary()->_Mysize) {

  0011b	81 7f 04 5d 74
	d1 05		 cmp	 DWORD PTR [edi+4], 97612893 ; 05d1745dH
  00122	0f 84 d3 00 00
	00		 je	 $LN272@AddBeginPo
; File C:\Program Files\Microsoft Visual Studio\2022\Professional\VC\Tools\MSVC\14.44.35207\include\map

; 205  :         const auto _Inserted = _Tree_temp_node<_Alnode>(_Mybase::_Getal(), _Scary->_Myhead, piecewise_construct,

  00128	8b 37		 mov	 esi, DWORD PTR [edi]
; File C:\Program Files\Microsoft Visual Studio\2022\Professional\VC\Tools\MSVC\14.44.35207\include\xmemory

; 1160 :     _CONSTEXPR20 explicit _Alloc_construct_ptr(_Alloc& _Al_) : _Al(_Al_), _Ptr(nullptr) {}

  0012a	89 7d b8	 mov	 DWORD PTR $T5[ebp], edi

; 136  :         return ::operator new(_Bytes);

  0012d	6a 2c		 push	 44			; 0000002cH
; File C:\Program Files\Microsoft Visual Studio\2022\Professional\VC\Tools\MSVC\14.44.35207\include\xtree

; 808  :     explicit _Tree_temp_node_alloc(_Alnode& _Al_) : _Alloc_construct_ptr<_Alnode>(_Al_) {

  0012f	c6 45 fc 01	 mov	 BYTE PTR __$EHRec$[ebp+8], 1
; File C:\Program Files\Microsoft Visual Studio\2022\Professional\VC\Tools\MSVC\14.44.35207\include\xmemory

; 1167 :         _Ptr = nullptr; // if allocate throws, prevents double-free

  00133	c7 45 bc 00 00
	00 00		 mov	 DWORD PTR $T5[ebp+4], 0

; 136  :         return ::operator new(_Bytes);

  0013a	e8 00 00 00 00	 call	 ??2@YAPAXI@Z		; operator new
  0013f	0f 57 c0	 xorps	 xmm0, xmm0
  00142	83 c4 04	 add	 esp, 4
; File C:\Program Files\Microsoft Visual Studio\2022\Professional\VC\Tools\MSVC\14.44.35207\include\map

; 211  :         return {_Scary->_Insert_node(_Loc._Location, _Inserted), true};

  00145	8b cf		 mov	 ecx, edi
; File C:\Program Files\Microsoft Visual Studio\2022\Professional\VC\Tools\MSVC\14.44.35207\include\xstring

; 493  :         _CONSTEXPR20 _Bxty() noexcept : _Buf() {} // user-provided, for fancy pointers

  00147	0f 11 40 10	 movups	 XMMWORD PTR [eax+16], xmm0

; 517  :     size_type _Mysize = 0; // current length of string (size)

  0014b	c7 40 20 00 00
	00 00		 mov	 DWORD PTR [eax+32], 0

; 518  :     size_type _Myres  = 0; // current storage reserved for string (capacity)

  00152	c7 40 24 00 00
	00 00		 mov	 DWORD PTR [eax+36], 0

; 1286 :                 _CSTD memcpy(_My_data_mem, _Right_data_mem, _Memcpy_val_size);

  00159	0f 10 45 d8	 movups	 xmm0, XMMWORD PTR $T7[ebp]
; File C:\Program Files\Microsoft Visual Studio\2022\Professional\VC\Tools\MSVC\14.44.35207\include\map

; 211  :         return {_Scary->_Insert_node(_Loc._Location, _Inserted), true};

  0015d	50		 push	 eax
  0015e	ff 75 ac	 push	 DWORD PTR __Loc$3[ebp+4]
; File C:\Program Files\Microsoft Visual Studio\2022\Professional\VC\Tools\MSVC\14.44.35207\include\xstring

; 1286 :                 _CSTD memcpy(_My_data_mem, _Right_data_mem, _Memcpy_val_size);

  00161	0f 11 40 10	 movups	 XMMWORD PTR [eax+16], xmm0
  00165	f3 0f 7e 45 e8	 movq	 xmm0, QWORD PTR $T7[ebp+16]
; File C:\Program Files\Microsoft Visual Studio\2022\Professional\VC\Tools\MSVC\14.44.35207\include\map

; 211  :         return {_Scary->_Insert_node(_Loc._Location, _Inserted), true};

  0016a	ff 75 a8	 push	 DWORD PTR __Loc$3[ebp]
; File C:\Program Files\Microsoft Visual Studio\2022\Professional\VC\Tools\MSVC\14.44.35207\include\xstring

; 1286 :                 _CSTD memcpy(_My_data_mem, _Right_data_mem, _Memcpy_val_size);

  0016d	66 0f d6 40 20	 movq	 QWORD PTR [eax+32], xmm0

; 1287 : 
; 1288 :                 _Right_data._Mysize = 0;

  00172	c7 45 e8 00 00
	00 00		 mov	 DWORD PTR $T7[ebp+16], 0

; 1289 :                 _Right_data._Myres  = _Small_string_capacity;

  00179	c7 45 ec 0f 00
	00 00		 mov	 DWORD PTR $T7[ebp+20], 15 ; 0000000fH

; 1290 :                 _Right_data._Activate_SSO_buffer();
; 1291 :                 _Traits::assign(_Right_data._Bx._Buf[0], _Elem());

  00180	c6 45 d8 00	 mov	 BYTE PTR $T7[ebp], 0
; File C:\Program Files\Microsoft Visual Studio\2022\Professional\VC\Tools\MSVC\14.44.35207\include\utility

; 479  :           second(_STD _Tuple_get<_Indices2>(_STD move(_Val2))...) {}

  00184	c7 40 28 00 00
	00 00		 mov	 DWORD PTR [eax+40], 0
; File C:\Program Files\Microsoft Visual Studio\2022\Professional\VC\Tools\MSVC\14.44.35207\include\xtree

; 831  :         _Construct_in_place(this->_Ptr->_Left, _Myhead);

  0018b	89 30		 mov	 DWORD PTR [eax], esi

; 832  :         _Construct_in_place(this->_Ptr->_Parent, _Myhead);

  0018d	89 70 04	 mov	 DWORD PTR [eax+4], esi

; 833  :         _Construct_in_place(this->_Ptr->_Right, _Myhead);

  00190	89 70 08	 mov	 DWORD PTR [eax+8], esi

; 834  :         this->_Ptr->_Color = _Red;

  00193	66 c7 40 0c 00
	00		 mov	 WORD PTR [eax+12], 0
; File C:\Program Files\Microsoft Visual Studio\2022\Professional\VC\Tools\MSVC\14.44.35207\include\map

; 211  :         return {_Scary->_Insert_node(_Loc._Location, _Inserted), true};

  00199	e8 00 00 00 00	 call	 ?_Insert_node@?$_Tree_val@U?$_Tree_simple_types@U?$pair@$$CBV?$basic_string@DU?$char_traits@D@std@@V?$allocator@D@2@@std@@PAX@std@@@std@@@std@@QAEPAU?$_Tree_node@U?$pair@$$CBV?$basic_string@DU?$char_traits@D@std@@V?$allocator@D@2@@std@@PAX@std@@PAX@2@U?$_Tree_id@PAU?$_Tree_node@U?$pair@$$CBV?$basic_string@DU?$char_traits@D@std@@V?$allocator@D@2@@std@@PAX@std@@PAX@std@@@2@QAU32@@Z ; std::_Tree_val<std::_Tree_simple_types<std::pair<std::basic_string<char,std::char_traits<char>,std::allocator<char> > const ,void *> > >::_Insert_node
  0019e	8b f0		 mov	 esi, eax
$LN80@AddBeginPo:
; File C:\IAGOS\server\v18\Source\Source\DatabaseServer\Project.cpp

; 352  : 		m_mapBeginPos[lpszWorld]	= (void*)lpBeginPosArr;

  001a0	8b 45 b4	 mov	 eax, DWORD PTR $T4[ebp]
  001a3	8d 4d d8	 lea	 ecx, DWORD PTR $T7[ebp]
  001a6	89 46 28	 mov	 DWORD PTR [esi+40], eax
  001a9	e8 00 00 00 00	 call	 ??1?$basic_string@DU?$char_traits@D@std@@V?$allocator@D@2@@std@@QAE@XZ ; std::basic_string<char,std::char_traits<char>,std::allocator<char> >::~basic_string<char,std::char_traits<char>,std::allocator<char> >

; 353  : 	}

  001ae	eb 1f		 jmp	 SHORT $LN3@AddBeginPo
$LN2@AddBeginPo:

; 354  : 	else
; 355  : 	{
; 356  : 		LPBEGINPOSARR lpBeginPosArr		= (LPBEGINPOSARR)i->second;

  001b0	8b 56 28	 mov	 edx, DWORD PTR [esi+40]

; 357  : 		lpBeginPosArr->avPos[lpBeginPosArr->uSize++]	= vPos;

  001b3	8b 02		 mov	 eax, DWORD PTR [edx]
  001b5	8d 04 40	 lea	 eax, DWORD PTR [eax+eax*2]
  001b8	8d 0c 82	 lea	 ecx, DWORD PTR [edx+eax*4]
  001bb	8b 45 0c	 mov	 eax, DWORD PTR _vPos$[ebp]
  001be	f3 0f 7e 00	 movq	 xmm0, QWORD PTR [eax]
  001c2	66 0f d6 41 04	 movq	 QWORD PTR [ecx+4], xmm0
  001c7	8b 40 08	 mov	 eax, DWORD PTR [eax+8]
  001ca	89 41 0c	 mov	 DWORD PTR [ecx+12], eax
  001cd	ff 02		 inc	 DWORD PTR [edx]
$LN3@AddBeginPo:

; 359  : }

  001cf	8b 4d f4	 mov	 ecx, DWORD PTR __$EHRec$[ebp]
  001d2	64 89 0d 00 00
	00 00		 mov	 DWORD PTR fs:0, ecx
  001d9	59		 pop	 ecx
  001da	5f		 pop	 edi
  001db	5e		 pop	 esi
  001dc	8b 4d f0	 mov	 ecx, DWORD PTR __$ArrayPad$[ebp]
  001df	33 cd		 xor	 ecx, ebp
  001e1	e8 00 00 00 00	 call	 @__security_check_cookie@4
  001e6	8b e5		 mov	 esp, ebp
  001e8	5d		 pop	 ebp
  001e9	c2 08 00	 ret	 8
$LN271@AddBeginPo:
; File C:\Program Files\Microsoft Visual Studio\2022\Professional\VC\Tools\MSVC\14.44.35207\include\xmemory

; 219  :     _STL_VERIFY(_Back_shift >= _Min_back_shift && _Back_shift <= _Non_user_size, "invalid argument");

  001ec	6a 00		 push	 0
  001ee	6a 00		 push	 0
  001f0	6a 00		 push	 0
  001f2	6a 00		 push	 0
  001f4	6a 00		 push	 0
  001f6	e8 00 00 00 00	 call	 __invoke_watson
$LN272@AddBeginPo:
; File C:\Program Files\Microsoft Visual Studio\2022\Professional\VC\Tools\MSVC\14.44.35207\include\xtree

; 1649 :             _Throw_tree_length_error();

  001fb	e8 00 00 00 00	 call	 ?_Throw_tree_length_error@std@@YAXXZ ; std::_Throw_tree_length_error
$LN269@AddBeginPo:
  00200	cc		 int	 3
_TEXT	ENDS
;	COMDAT text$x
text$x	SEGMENT
__unwindfunclet$?AddBeginPos@CProject@@QAEXPBDABUD3DXVECTOR3@@@Z$2:
  00000	8d 4d d8	 lea	 ecx, DWORD PTR $T7[ebp]
  00003	e9 00 00 00 00	 jmp	 ??1?$basic_string@DU?$char_traits@D@std@@V?$allocator@D@2@@std@@QAE@XZ ; std::basic_string<char,std::char_traits<char>,std::allocator<char> >::~basic_string<char,std::char_traits<char>,std::allocator<char> >
__unwindfunclet$?AddBeginPos@CProject@@QAEXPBDABUD3DXVECTOR3@@@Z$6:
  00008	8d 4d b8	 lea	 ecx, DWORD PTR $T5[ebp]
  0000b	e9 00 00 00 00	 jmp	 ??1?$_Alloc_construct_ptr@V?$allocator@U?$_Tree_node@U?$pair@$$CBV?$basic_string@DU?$char_traits@D@std@@V?$allocator@D@2@@std@@PAX@std@@PAX@std@@@std@@@std@@QAE@XZ ; std::_Alloc_construct_ptr<std::allocator<std::_Tree_node<std::pair<std::basic_string<char,std::char_traits<char>,std::allocator<char> > const ,void *>,void *> > >::~_Alloc_construct_ptr<std::allocator<std::_Tree_node<std::pair<std::basic_string<char,std::char_traits<char>,std::allocator<char> > const ,void *>,void *> > >
  00010	cc		 int	 3
  00011	cc		 int	 3
  00012	cc		 int	 3
  00013	cc		 int	 3
  00014	cc		 int	 3
__ehhandler$?AddBeginPos@CProject@@QAEXPBDABUD3DXVECTOR3@@@Z:
  00015	90		 npad	 1
  00016	90		 npad	 1
  00017	8b 54 24 08	 mov	 edx, DWORD PTR [esp+8]
  0001b	8d 42 0c	 lea	 eax, DWORD PTR [edx+12]
  0001e	8b 4a a8	 mov	 ecx, DWORD PTR [edx-88]
  00021	33 c8		 xor	 ecx, eax
  00023	e8 00 00 00 00	 call	 @__security_check_cookie@4
  00028	8b 4a fc	 mov	 ecx, DWORD PTR [edx-4]
  0002b	33 c8		 xor	 ecx, eax
  0002d	e8 00 00 00 00	 call	 @__security_check_cookie@4
  00032	b8 00 00 00 00	 mov	 eax, OFFSET __ehfuncinfo$?AddBeginPos@CProject@@QAEXPBDABUD3DXVECTOR3@@@Z
  00037	e9 00 00 00 00	 jmp	 ___CxxFrameHandler3
text$x	ENDS
?AddBeginPos@CProject@@QAEXPBDABUD3DXVECTOR3@@@Z ENDP	; CProject::AddBeginPos
; Function compile flags: /Ogtp
; File C:\IAGOS\server\v18\Source\Source\DatabaseServer\Project.cpp
; File C:\Program Files\Microsoft Visual Studio\2022\Professional\VC\Tools\MSVC\14.44.35207\atlmfc\include\atlsimpstr.h
; File C:\IAGOS\server\v18\Source\Source\DatabaseServer\Project.cpp
; File C:\Program Files\Microsoft Visual Studio\2022\Professional\VC\Tools\MSVC\14.44.35207\atlmfc\include\atlsimpstr.h
; File C:\IAGOS\server\v18\Source\Source\DatabaseServer\Project.cpp
; File C:\Program Files\Microsoft Visual Studio\2022\Professional\VC\Tools\MSVC\14.44.35207\atlmfc\include\cstringt.h
; File C:\IAGOS\server\v18\Source\Source\DatabaseServer\Project.cpp
; File C:\Program Files\Microsoft Visual Studio\2022\Professional\VC\Tools\MSVC\14.44.35207\atlmfc\include\cstringt.h
; File C:\IAGOS\server\v18\Source\Source\DatabaseServer\Project.cpp
; File C:\Program Files\Microsoft Visual Studio\2022\Professional\VC\Tools\MSVC\14.44.35207\atlmfc\include\cstringt.h
; File C:\IAGOS\server\v18\Source\Source\DatabaseServer\Project.cpp
; File C:\Program Files\Microsoft Visual Studio\2022\Professional\VC\Tools\MSVC\14.44.35207\atlmfc\include\cstringt.h
; File C:\IAGOS\server\v18\Source\Source\DatabaseServer\Project.cpp
; File C:\Program Files\Microsoft Visual Studio\2022\Professional\VC\Tools\MSVC\14.44.35207\atlmfc\include\cstringt.h
; File C:\IAGOS\server\v18\Source\Source\DatabaseServer\Project.cpp
; File C:\Program Files\Microsoft Visual Studio\2022\Professional\VC\Tools\MSVC\14.44.35207\atlmfc\include\cstringt.h
; File C:\IAGOS\server\v18\Source\Source\DatabaseServer\Project.cpp
; File C:\Program Files\Microsoft Visual Studio\2022\Professional\VC\Tools\MSVC\14.44.35207\atlmfc\include\cstringt.h
; File C:\IAGOS\server\v18\Source\Source\DatabaseServer\Project.cpp
; File C:\Program Files\Microsoft Visual Studio\2022\Professional\VC\Tools\MSVC\14.44.35207\atlmfc\include\afxstr.h
; File C:\Program Files\Microsoft Visual Studio\2022\Professional\VC\Tools\MSVC\14.44.35207\atlmfc\include\atlsimpstr.h
; File C:\IAGOS\server\v18\Source\Source\DatabaseServer\Project.cpp
; File C:\Program Files\Microsoft Visual Studio\2022\Professional\VC\Tools\MSVC\14.44.35207\atlmfc\include\atlsimpstr.h
; File C:\IAGOS\server\v18\Source\Source\DatabaseServer\Project.cpp
; File C:\Program Files\Microsoft Visual Studio\2022\Professional\VC\Tools\MSVC\14.44.35207\atlmfc\include\afxstr.h
; File C:\Program Files\Microsoft Visual Studio\2022\Professional\VC\Tools\MSVC\14.44.35207\atlmfc\include\atlsimpstr.h
; File C:\IAGOS\server\v18\Source\Source\DatabaseServer\Project.cpp
; File C:\Program Files\Microsoft Visual Studio\2022\Professional\VC\Tools\MSVC\14.44.35207\atlmfc\include\atlsimpstr.h
; File C:\IAGOS\server\v18\Source\Source\DatabaseServer\Project.cpp
; File C:\Program Files\Microsoft Visual Studio\2022\Professional\VC\Tools\MSVC\14.44.35207\atlmfc\include\atlsimpstr.h
; File C:\IAGOS\server\v18\Source\Source\DatabaseServer\Project.cpp
;	COMDAT ?LoadBeginPos@CProject@@QAEXXZ
_TEXT	SEGMENT
_vPos$ = -2760						; size = 12
_string$2 = -2748					; size = 4
_string$3 = -2748					; size = 4
_hFound$1$ = -2744					; size = 4
_this$GSCopy$1$ = -2740					; size = 4
$T4 = -2736						; size = 4
_s$5 = -2732						; size = 2136
_ffdFoundData$ = -596					; size = 320
_lpFileName$ = -276					; size = 260
__$ArrayPad$ = -16					; size = 4
__$EHRec$ = -12						; size = 12
?LoadBeginPos@CProject@@QAEXXZ PROC			; CProject::LoadBeginPos, COMDAT
; _this$ = ecx

; 237  : {

  00000	55		 push	 ebp
  00001	8b ec		 mov	 ebp, esp
  00003	6a ff		 push	 -1
  00005	68 00 00 00 00	 push	 __ehhandler$?LoadBeginPos@CProject@@QAEXXZ
  0000a	64 a1 00 00 00
	00		 mov	 eax, DWORD PTR fs:0
  00010	50		 push	 eax
  00011	81 ec bc 0a 00
	00		 sub	 esp, 2748		; 00000abcH
  00017	a1 00 00 00 00	 mov	 eax, DWORD PTR ___security_cookie
  0001c	33 c5		 xor	 eax, ebp
  0001e	89 45 f0	 mov	 DWORD PTR __$ArrayPad$[ebp], eax
  00021	53		 push	 ebx
  00022	56		 push	 esi
  00023	57		 push	 edi
  00024	50		 push	 eax
  00025	8d 45 f4	 lea	 eax, DWORD PTR __$EHRec$[ebp]
  00028	64 a3 00 00 00
	00		 mov	 DWORD PTR fs:0, eax
  0002e	89 8d 4c f5 ff
	ff		 mov	 DWORD PTR _this$GSCopy$1$[ebp], ecx

; 243  : 	hFound	= FindFirstFile( MakePath( DIR_WORLD, "*.*" ), (LPWIN32_FIND_DATA)&ffdFoundData );

  00034	68 00 00 00 00	 push	 OFFSET ??_C@_03EMIMMIHL@?$CK?4?$CK@
  00039	8d 85 50 f5 ff
	ff		 lea	 eax, DWORD PTR $T4[ebp]
  0003f	68 00 00 00 00	 push	 OFFSET ??_C@_06NGHBMAIH@World?2@
  00044	50		 push	 eax
  00045	e8 00 00 00 00	 call	 ?MakePath@@YA?AV?$CStringT@DV?$StrTraitMFC@DV?$ChTraitsCRT@D@ATL@@@@@ATL@@PBD0@Z ; MakePath
  0004a	83 c4 0c	 add	 esp, 12			; 0000000cH
  0004d	8d 8d ac fd ff
	ff		 lea	 ecx, DWORD PTR _ffdFoundData$[ebp]
  00053	51		 push	 ecx
  00054	ff 30		 push	 DWORD PTR [eax]
  00056	ff 15 00 00 00
	00		 call	 DWORD PTR __imp__FindFirstFileA@8
; File C:\Program Files\Microsoft Visual Studio\2022\Professional\VC\Tools\MSVC\14.44.35207\atlmfc\include\atlsimpstr.h

; 804  : 		return( reinterpret_cast< CStringData* >( m_pszData )-1 );

  0005c	8b 95 50 f5 ff
	ff		 mov	 edx, DWORD PTR $T4[ebp]
; File C:\IAGOS\server\v18\Source\Source\DatabaseServer\Project.cpp

; 243  : 	hFound	= FindFirstFile( MakePath( DIR_WORLD, "*.*" ), (LPWIN32_FIND_DATA)&ffdFoundData );

  00062	8b d8		 mov	 ebx, eax
  00064	89 9d 48 f5 ff
	ff		 mov	 DWORD PTR _hFound$1$[ebp], ebx
; File C:\Program Files\Microsoft Visual Studio\2022\Professional\VC\Tools\MSVC\14.44.35207\atlmfc\include\atlsimpstr.h

; 804  : 		return( reinterpret_cast< CStringData* >( m_pszData )-1 );

  0006a	83 c2 f0	 add	 edx, -16		; fffffff0H

; 92   : 		if( _InterlockedDecrement( &nRefs ) <= 0 )

  0006d	83 c9 ff	 or	 ecx, -1
  00070	f0 0f c1 4a 0c	 lock	  xadd	 DWORD PTR [edx+12], ecx
  00075	49		 dec	 ecx
  00076	85 c9		 test	 ecx, ecx
  00078	7f 08		 jg	 SHORT $LN91@LoadBeginP

; 93   : 		{
; 94   : 			pStringMgr->Free( this );

  0007a	8b 0a		 mov	 ecx, DWORD PTR [edx]
  0007c	52		 push	 edx
  0007d	8b 01		 mov	 eax, DWORD PTR [ecx]
  0007f	ff 50 04	 call	 DWORD PTR [eax+4]
$LN91@LoadBeginP:
; File C:\IAGOS\server\v18\Source\Source\DatabaseServer\Project.cpp

; 245  : 	if( (HANDLE)( -1 ) == hFound )

  00082	83 fb ff	 cmp	 ebx, -1
  00085	0f 84 8e 05 00
	00		 je	 $LN204@LoadBeginP
  0008b	0f 1f 44 00 00	 npad	 5
$LL2@LoadBeginP:

; 246  : 		bDoneWithHandle	= TRUE;
; 247  : 
; 248  : 	D3DXVECTOR3 vPos;
; 249  : 	DWORD dwIndex;
; 250  : 
; 251  : 	while( !bDoneWithHandle )
; 252  : 	{
; 253  : 		if( ( FILE_ATTRIBUTE_DIRECTORY & ffdFoundData.dwFileAttributes ) && ( 0 != strcmp( ".", ffdFoundData.cFileName ) ) && ( 0 != strcmp( "..", ffdFoundData.cFileName ) ) )

  00090	f6 85 ac fd ff
	ff 10		 test	 BYTE PTR _ffdFoundData$[ebp], 16 ; 00000010H
  00097	0f 84 66 05 00
	00		 je	 $LN16@LoadBeginP
  0009d	8d 8d d8 fd ff
	ff		 lea	 ecx, DWORD PTR _ffdFoundData$[ebp+44]
  000a3	b8 00 00 00 00	 mov	 eax, OFFSET ??_C@_01LFCBOECM@?4@
$LL221@LoadBeginP:
  000a8	8a 10		 mov	 dl, BYTE PTR [eax]
  000aa	3a 11		 cmp	 dl, BYTE PTR [ecx]
  000ac	75 1a		 jne	 SHORT $LN222@LoadBeginP
  000ae	84 d2		 test	 dl, dl
  000b0	74 12		 je	 SHORT $LN223@LoadBeginP
  000b2	8a 50 01	 mov	 dl, BYTE PTR [eax+1]
  000b5	3a 51 01	 cmp	 dl, BYTE PTR [ecx+1]
  000b8	75 0e		 jne	 SHORT $LN222@LoadBeginP
  000ba	83 c0 02	 add	 eax, 2
  000bd	83 c1 02	 add	 ecx, 2
  000c0	84 d2		 test	 dl, dl
  000c2	75 e4		 jne	 SHORT $LL221@LoadBeginP
$LN223@LoadBeginP:
  000c4	33 c0		 xor	 eax, eax
  000c6	eb 05		 jmp	 SHORT $LN224@LoadBeginP
$LN222@LoadBeginP:
  000c8	1b c0		 sbb	 eax, eax
  000ca	83 c8 01	 or	 eax, 1
$LN224@LoadBeginP:
  000cd	85 c0		 test	 eax, eax
  000cf	0f 84 2e 05 00
	00		 je	 $LN16@LoadBeginP
  000d5	8d 8d d8 fd ff
	ff		 lea	 ecx, DWORD PTR _ffdFoundData$[ebp+44]
  000db	b8 00 00 00 00	 mov	 eax, OFFSET ??_C@_02DJGKEECL@?4?4@
$LL225@LoadBeginP:
  000e0	8a 10		 mov	 dl, BYTE PTR [eax]
  000e2	3a 11		 cmp	 dl, BYTE PTR [ecx]
  000e4	75 1a		 jne	 SHORT $LN226@LoadBeginP
  000e6	84 d2		 test	 dl, dl
  000e8	74 12		 je	 SHORT $LN227@LoadBeginP
  000ea	8a 50 01	 mov	 dl, BYTE PTR [eax+1]
  000ed	3a 51 01	 cmp	 dl, BYTE PTR [ecx+1]
  000f0	75 0e		 jne	 SHORT $LN226@LoadBeginP
  000f2	83 c0 02	 add	 eax, 2
  000f5	83 c1 02	 add	 ecx, 2
  000f8	84 d2		 test	 dl, dl
  000fa	75 e4		 jne	 SHORT $LL225@LoadBeginP
$LN227@LoadBeginP:
  000fc	33 c0		 xor	 eax, eax
  000fe	eb 05		 jmp	 SHORT $LN228@LoadBeginP
$LN226@LoadBeginP:
  00100	1b c0		 sbb	 eax, eax
  00102	83 c8 01	 or	 eax, 1
$LN228@LoadBeginP:
  00105	85 c0		 test	 eax, eax
  00107	0f 84 f6 04 00
	00		 je	 $LN16@LoadBeginP

; 254  : 		{
; 255  : 			sprintf( lpFileName, "%s%s\\%s.rgn", DIR_WORLD, ffdFoundData.cFileName, ffdFoundData.cFileName );

  0010d	8d 85 d8 fd ff
	ff		 lea	 eax, DWORD PTR _ffdFoundData$[ebp+44]
  00113	50		 push	 eax
  00114	50		 push	 eax
  00115	68 00 00 00 00	 push	 OFFSET ??_C@_06NGHBMAIH@World?2@
  0011a	8d 85 ec fe ff
	ff		 lea	 eax, DWORD PTR _lpFileName$[ebp]
  00120	68 00 00 00 00	 push	 OFFSET ??_C@_0M@BILJHLCN@?$CFs?$CFs?2?$CFs?4rgn@
  00125	50		 push	 eax
  00126	e8 00 00 00 00	 call	 _sprintf
  0012b	83 c4 14	 add	 esp, 20			; 00000014H

; 256  : 			CScanner s;

  0012e	8d 8d 54 f5 ff
	ff		 lea	 ecx, DWORD PTR _s$5[ebp]
  00134	6a 00		 push	 0
  00136	e8 00 00 00 00	 call	 ??0CScanner@@QAE@H@Z	; CScanner::CScanner

; 257  : 			if( s.Load( lpFileName ) == TRUE )

  0013b	6a 01		 push	 1
  0013d	8d 85 ec fe ff
	ff		 lea	 eax, DWORD PTR _lpFileName$[ebp]
  00143	c7 45 fc 00 00
	00 00		 mov	 DWORD PTR __$EHRec$[ebp+8], 0
  0014a	50		 push	 eax
  0014b	8d 8d 54 f5 ff
	ff		 lea	 ecx, DWORD PTR _s$5[ebp]
  00151	e8 00 00 00 00	 call	 ?Load@CScanner@@QAEHPBDH@Z ; CScanner::Load
  00156	83 f8 01	 cmp	 eax, 1
  00159	0f 85 92 04 00
	00		 jne	 $LN203@LoadBeginP

; 258  : 			{
; 259  : 				s.GetToken();

  0015f	6a 00		 push	 0
  00161	8d 8d 54 f5 ff
	ff		 lea	 ecx, DWORD PTR _s$5[ebp]
  00167	e8 00 00 00 00	 call	 ?GetToken@CScanner@@UAEHH@Z ; CScanner::GetToken

; 260  : 				while( s.tok != FINISHED )

  0016c	83 bd 98 fd ff
	ff 15		 cmp	 DWORD PTR _s$5[ebp+2116], 21 ; 00000015H
  00173	0f 84 78 04 00
	00		 je	 $LN203@LoadBeginP
  00179	0f 1f 80 00 00
	00 00		 npad	 7
$LL4@LoadBeginP:
; File C:\Program Files\Microsoft Visual Studio\2022\Professional\VC\Tools\MSVC\14.44.35207\atlmfc\include\cstringt.h

; 184  : 		return _mbscmp( reinterpret_cast< const unsigned char* >( pszA ), reinterpret_cast< const unsigned char* >( pszB ) );

  00180	68 00 00 00 00	 push	 OFFSET ??_C@_06JEJEKGIK@region@
  00185	ff b5 74 f5 ff
	ff		 push	 DWORD PTR _s$5[ebp+32]
  0018b	e8 00 00 00 00	 call	 __mbscmp
  00190	83 c4 08	 add	 esp, 8

; 2490 : 		return(str1.Compare(psz2) == 0);

  00193	85 c0		 test	 eax, eax
; File C:\IAGOS\server\v18\Source\Source\DatabaseServer\Project.cpp

; 262  : 					if( s.Token == _T( "region" ) ||  s.Token == _T( "region2" ) || s.Token == _T( "region3" ) )

  00195	0f 84 f7 00 00
	00		 je	 $LN20@LoadBeginP
; File C:\Program Files\Microsoft Visual Studio\2022\Professional\VC\Tools\MSVC\14.44.35207\atlmfc\include\cstringt.h

; 184  : 		return _mbscmp( reinterpret_cast< const unsigned char* >( pszA ), reinterpret_cast< const unsigned char* >( pszB ) );

  0019b	68 00 00 00 00	 push	 OFFSET ??_C@_07OAIJKKOJ@region2@
  001a0	ff b5 74 f5 ff
	ff		 push	 DWORD PTR _s$5[ebp+32]
  001a6	e8 00 00 00 00	 call	 __mbscmp
  001ab	83 c4 08	 add	 esp, 8

; 2490 : 		return(str1.Compare(psz2) == 0);

  001ae	85 c0		 test	 eax, eax
; File C:\IAGOS\server\v18\Source\Source\DatabaseServer\Project.cpp

; 262  : 					if( s.Token == _T( "region" ) ||  s.Token == _T( "region2" ) || s.Token == _T( "region3" ) )

  001b0	0f 84 dc 00 00
	00		 je	 $LN20@LoadBeginP
; File C:\Program Files\Microsoft Visual Studio\2022\Professional\VC\Tools\MSVC\14.44.35207\atlmfc\include\cstringt.h

; 184  : 		return _mbscmp( reinterpret_cast< const unsigned char* >( pszA ), reinterpret_cast< const unsigned char* >( pszB ) );

  001b6	68 00 00 00 00	 push	 OFFSET ??_C@_07PJJCJLKI@region3@
  001bb	ff b5 74 f5 ff
	ff		 push	 DWORD PTR _s$5[ebp+32]
  001c1	e8 00 00 00 00	 call	 __mbscmp
  001c6	83 c4 08	 add	 esp, 8

; 2490 : 		return(str1.Compare(psz2) == 0);

  001c9	85 c0		 test	 eax, eax
; File C:\IAGOS\server\v18\Source\Source\DatabaseServer\Project.cpp

; 262  : 					if( s.Token == _T( "region" ) ||  s.Token == _T( "region2" ) || s.Token == _T( "region3" ) )

  001cb	0f 84 c1 00 00
	00		 je	 $LN20@LoadBeginP
; File C:\Program Files\Microsoft Visual Studio\2022\Professional\VC\Tools\MSVC\14.44.35207\atlmfc\include\cstringt.h

; 184  : 		return _mbscmp( reinterpret_cast< const unsigned char* >( pszA ), reinterpret_cast< const unsigned char* >( pszB ) );

  001d1	68 00 00 00 00	 push	 OFFSET ??_C@_07PABIOCAD@respawn@
  001d6	ff b5 74 f5 ff
	ff		 push	 DWORD PTR _s$5[ebp+32]
  001dc	e8 00 00 00 00	 call	 __mbscmp
  001e1	83 c4 08	 add	 esp, 8

; 2490 : 		return(str1.Compare(psz2) == 0);

  001e4	85 c0		 test	 eax, eax
; File C:\IAGOS\server\v18\Source\Source\DatabaseServer\Project.cpp

; 325  : 					else if( s.Token == _T( "respawn" ) )

  001e6	0f 85 e5 03 00
	00		 jne	 $LN28@LoadBeginP

; 326  : 					{
; 327  : 						// type, index, x, y, z, cb, time, left, top, right, bottom
; 328  : 						s.GetNumber();	s.GetNumber();	s.GetFloat();	s.GetFloat();	s.GetFloat();	s.GetNumber();	s.GetNumber();

  001ec	50		 push	 eax
  001ed	8d 8d 54 f5 ff
	ff		 lea	 ecx, DWORD PTR _s$5[ebp]
  001f3	e8 00 00 00 00	 call	 ?GetNumber@CScanner@@QAEHH@Z ; CScanner::GetNumber
  001f8	6a 00		 push	 0
  001fa	8d 8d 54 f5 ff
	ff		 lea	 ecx, DWORD PTR _s$5[ebp]
  00200	e8 00 00 00 00	 call	 ?GetNumber@CScanner@@QAEHH@Z ; CScanner::GetNumber
  00205	6a 00		 push	 0
  00207	8d 8d 54 f5 ff
	ff		 lea	 ecx, DWORD PTR _s$5[ebp]
  0020d	e8 00 00 00 00	 call	 ?GetFloat@CScanner@@QAEMH@Z ; CScanner::GetFloat
  00212	dd d8		 fstp	 ST(0)
  00214	8d 8d 54 f5 ff
	ff		 lea	 ecx, DWORD PTR _s$5[ebp]
  0021a	6a 00		 push	 0
  0021c	e8 00 00 00 00	 call	 ?GetFloat@CScanner@@QAEMH@Z ; CScanner::GetFloat
  00221	dd d8		 fstp	 ST(0)
  00223	8d 8d 54 f5 ff
	ff		 lea	 ecx, DWORD PTR _s$5[ebp]
  00229	6a 00		 push	 0
  0022b	e8 00 00 00 00	 call	 ?GetFloat@CScanner@@QAEMH@Z ; CScanner::GetFloat
  00230	6a 00		 push	 0
  00232	8d 8d 54 f5 ff
	ff		 lea	 ecx, DWORD PTR _s$5[ebp]
  00238	dd d8		 fstp	 ST(0)
  0023a	e8 00 00 00 00	 call	 ?GetNumber@CScanner@@QAEHH@Z ; CScanner::GetNumber
  0023f	6a 00		 push	 0
  00241	8d 8d 54 f5 ff
	ff		 lea	 ecx, DWORD PTR _s$5[ebp]
  00247	e8 00 00 00 00	 call	 ?GetNumber@CScanner@@QAEHH@Z ; CScanner::GetNumber

; 329  : 						s.GetNumber();	// m_nActiveAttackNum

  0024c	6a 00		 push	 0
  0024e	8d 8d 54 f5 ff
	ff		 lea	 ecx, DWORD PTR _s$5[ebp]
  00254	e8 00 00 00 00	 call	 ?GetNumber@CScanner@@QAEHH@Z ; CScanner::GetNumber

; 330  : 						s.GetNumber();	s.GetNumber();	s.GetNumber();	s.GetNumber();

  00259	6a 00		 push	 0
  0025b	8d 8d 54 f5 ff
	ff		 lea	 ecx, DWORD PTR _s$5[ebp]
  00261	e8 00 00 00 00	 call	 ?GetNumber@CScanner@@QAEHH@Z ; CScanner::GetNumber
  00266	6a 00		 push	 0
  00268	8d 8d 54 f5 ff
	ff		 lea	 ecx, DWORD PTR _s$5[ebp]
  0026e	e8 00 00 00 00	 call	 ?GetNumber@CScanner@@QAEHH@Z ; CScanner::GetNumber
  00273	6a 00		 push	 0
  00275	8d 8d 54 f5 ff
	ff		 lea	 ecx, DWORD PTR _s$5[ebp]
  0027b	e8 00 00 00 00	 call	 ?GetNumber@CScanner@@QAEHH@Z ; CScanner::GetNumber
  00280	6a 00		 push	 0
  00282	8d 8d 54 f5 ff
	ff		 lea	 ecx, DWORD PTR _s$5[ebp]
  00288	e8 00 00 00 00	 call	 ?GetNumber@CScanner@@QAEHH@Z ; CScanner::GetNumber
  0028d	e9 3f 03 00 00	 jmp	 $LN28@LoadBeginP
$LN20@LoadBeginP:
; File C:\Program Files\Microsoft Visual Studio\2022\Professional\VC\Tools\MSVC\14.44.35207\atlmfc\include\cstringt.h

; 184  : 		return _mbscmp( reinterpret_cast< const unsigned char* >( pszA ), reinterpret_cast< const unsigned char* >( pszB ) );

  00292	68 00 00 00 00	 push	 OFFSET ??_C@_07OAIJKKOJ@region2@
  00297	ff b5 74 f5 ff
	ff		 push	 DWORD PTR _s$5[ebp+32]
  0029d	e8 00 00 00 00	 call	 __mbscmp

; 1452 : 		ATLENSURE( AtlIsValidString( psz ) );

  002a2	f7 d8		 neg	 eax

; 184  : 		return _mbscmp( reinterpret_cast< const unsigned char* >( pszA ), reinterpret_cast< const unsigned char* >( pszB ) );

  002a4	68 00 00 00 00	 push	 OFFSET ??_C@_07PJJCJLKI@region3@
  002a9	ff b5 74 f5 ff
	ff		 push	 DWORD PTR _s$5[ebp+32]

; 1452 : 		ATLENSURE( AtlIsValidString( psz ) );

  002af	1b ff		 sbb	 edi, edi
  002b1	47		 inc	 edi

; 184  : 		return _mbscmp( reinterpret_cast< const unsigned char* >( pszA ), reinterpret_cast< const unsigned char* >( pszB ) );

  002b2	e8 00 00 00 00	 call	 __mbscmp
  002b7	83 c4 10	 add	 esp, 16			; 00000010H
; File C:\IAGOS\server\v18\Source\Source\DatabaseServer\Project.cpp

; 274  : 						s.GetNumber();	// type

  002ba	8d 8d 54 f5 ff
	ff		 lea	 ecx, DWORD PTR _s$5[ebp]
; File C:\Program Files\Microsoft Visual Studio\2022\Professional\VC\Tools\MSVC\14.44.35207\atlmfc\include\cstringt.h

; 184  : 		return _mbscmp( reinterpret_cast< const unsigned char* >( pszA ), reinterpret_cast< const unsigned char* >( pszB ) );

  002c0	8b f0		 mov	 esi, eax
; File C:\IAGOS\server\v18\Source\Source\DatabaseServer\Project.cpp

; 268  : 						if( s.Token == _T( "region3" ) )

  002c2	b8 01 00 00 00	 mov	 eax, 1
; File C:\Program Files\Microsoft Visual Studio\2022\Professional\VC\Tools\MSVC\14.44.35207\atlmfc\include\cstringt.h

; 2490 : 		return(str1.Compare(psz2) == 0);

  002c7	85 f6		 test	 esi, esi
; File C:\IAGOS\server\v18\Source\Source\DatabaseServer\Project.cpp

; 274  : 						s.GetNumber();	// type

  002c9	6a 00		 push	 0
  002cb	0f 44 f8	 cmove	 edi, eax
  002ce	e8 00 00 00 00	 call	 ?GetNumber@CScanner@@QAEHH@Z ; CScanner::GetNumber

; 275  : 						dwIndex		= s.GetNumber();

  002d3	6a 00		 push	 0
  002d5	8d 8d 54 f5 ff
	ff		 lea	 ecx, DWORD PTR _s$5[ebp]
  002db	e8 00 00 00 00	 call	 ?GetNumber@CScanner@@QAEHH@Z ; CScanner::GetNumber

; 276  : 						vPos.x	= s.GetFloat();

  002e0	6a 00		 push	 0
  002e2	8d 8d 54 f5 ff
	ff		 lea	 ecx, DWORD PTR _s$5[ebp]
  002e8	8b d8		 mov	 ebx, eax
  002ea	e8 00 00 00 00	 call	 ?GetFloat@CScanner@@QAEMH@Z ; CScanner::GetFloat
  002ef	d9 9d 38 f5 ff
	ff		 fstp	 DWORD PTR _vPos$[ebp]

; 277  : 						vPos.y	= s.GetFloat();

  002f5	6a 00		 push	 0
  002f7	8d 8d 54 f5 ff
	ff		 lea	 ecx, DWORD PTR _s$5[ebp]
  002fd	e8 00 00 00 00	 call	 ?GetFloat@CScanner@@QAEMH@Z ; CScanner::GetFloat
  00302	d9 9d 3c f5 ff
	ff		 fstp	 DWORD PTR _vPos$[ebp+4]

; 278  : 						vPos.z	= s.GetFloat();

  00308	6a 00		 push	 0
  0030a	8d 8d 54 f5 ff
	ff		 lea	 ecx, DWORD PTR _s$5[ebp]
  00310	e8 00 00 00 00	 call	 ?GetFloat@CScanner@@QAEMH@Z ; CScanner::GetFloat

; 279  : 						s.GetNumber();	s.GetNumber(); s.GetToken();	s.GetToken();	s.GetToken();	// attribute, id, script, music, sound

  00315	6a 00		 push	 0
  00317	8d 8d 54 f5 ff
	ff		 lea	 ecx, DWORD PTR _s$5[ebp]
  0031d	d9 9d 40 f5 ff
	ff		 fstp	 DWORD PTR _vPos$[ebp+8]
  00323	e8 00 00 00 00	 call	 ?GetNumber@CScanner@@QAEHH@Z ; CScanner::GetNumber
  00328	6a 00		 push	 0
  0032a	8d 8d 54 f5 ff
	ff		 lea	 ecx, DWORD PTR _s$5[ebp]
  00330	e8 00 00 00 00	 call	 ?GetNumber@CScanner@@QAEHH@Z ; CScanner::GetNumber
  00335	6a 00		 push	 0
  00337	8d 8d 54 f5 ff
	ff		 lea	 ecx, DWORD PTR _s$5[ebp]
  0033d	e8 00 00 00 00	 call	 ?GetToken@CScanner@@UAEHH@Z ; CScanner::GetToken
  00342	6a 00		 push	 0
  00344	8d 8d 54 f5 ff
	ff		 lea	 ecx, DWORD PTR _s$5[ebp]
  0034a	e8 00 00 00 00	 call	 ?GetToken@CScanner@@UAEHH@Z ; CScanner::GetToken
  0034f	6a 00		 push	 0
  00351	8d 8d 54 f5 ff
	ff		 lea	 ecx, DWORD PTR _s$5[ebp]
  00357	e8 00 00 00 00	 call	 ?GetToken@CScanner@@UAEHH@Z ; CScanner::GetToken

; 280  : 						s.GetToken();	s.GetFloat();	s.GetFloat();	s.GetFloat();	// teleport

  0035c	6a 00		 push	 0
  0035e	8d 8d 54 f5 ff
	ff		 lea	 ecx, DWORD PTR _s$5[ebp]
  00364	e8 00 00 00 00	 call	 ?GetToken@CScanner@@UAEHH@Z ; CScanner::GetToken
  00369	6a 00		 push	 0
  0036b	8d 8d 54 f5 ff
	ff		 lea	 ecx, DWORD PTR _s$5[ebp]
  00371	e8 00 00 00 00	 call	 ?GetFloat@CScanner@@QAEMH@Z ; CScanner::GetFloat
  00376	dd d8		 fstp	 ST(0)
  00378	8d 8d 54 f5 ff
	ff		 lea	 ecx, DWORD PTR _s$5[ebp]
  0037e	6a 00		 push	 0
  00380	e8 00 00 00 00	 call	 ?GetFloat@CScanner@@QAEMH@Z ; CScanner::GetFloat
  00385	dd d8		 fstp	 ST(0)
  00387	8d 8d 54 f5 ff
	ff		 lea	 ecx, DWORD PTR _s$5[ebp]
  0038d	6a 00		 push	 0
  0038f	e8 00 00 00 00	 call	 ?GetFloat@CScanner@@QAEMH@Z ; CScanner::GetFloat

; 281  : 						s.GetNumber();	s.GetNumber();	s.GetNumber();	s.GetNumber();	// rect

  00394	6a 00		 push	 0
  00396	8d 8d 54 f5 ff
	ff		 lea	 ecx, DWORD PTR _s$5[ebp]
  0039c	dd d8		 fstp	 ST(0)
  0039e	e8 00 00 00 00	 call	 ?GetNumber@CScanner@@QAEHH@Z ; CScanner::GetNumber
  003a3	6a 00		 push	 0
  003a5	8d 8d 54 f5 ff
	ff		 lea	 ecx, DWORD PTR _s$5[ebp]
  003ab	e8 00 00 00 00	 call	 ?GetNumber@CScanner@@QAEHH@Z ; CScanner::GetNumber
  003b0	6a 00		 push	 0
  003b2	8d 8d 54 f5 ff
	ff		 lea	 ecx, DWORD PTR _s$5[ebp]
  003b8	e8 00 00 00 00	 call	 ?GetNumber@CScanner@@QAEHH@Z ; CScanner::GetNumber
  003bd	6a 00		 push	 0
  003bf	8d 8d 54 f5 ff
	ff		 lea	 ecx, DWORD PTR _s$5[ebp]
  003c5	e8 00 00 00 00	 call	 ?GetNumber@CScanner@@QAEHH@Z ; CScanner::GetNumber

; 282  : 						s.GetToken();	s.GetNumber();	// key, target

  003ca	6a 00		 push	 0
  003cc	8d 8d 54 f5 ff
	ff		 lea	 ecx, DWORD PTR _s$5[ebp]
  003d2	e8 00 00 00 00	 call	 ?GetToken@CScanner@@UAEHH@Z ; CScanner::GetToken
  003d7	6a 00		 push	 0
  003d9	8d 8d 54 f5 ff
	ff		 lea	 ecx, DWORD PTR _s$5[ebp]
  003df	e8 00 00 00 00	 call	 ?GetNumber@CScanner@@QAEHH@Z ; CScanner::GetNumber

; 283  : 						if( bNewFormat3 )

  003e4	85 f6		 test	 esi, esi
  003e6	0f 85 84 00 00
	00		 jne	 $LN23@LoadBeginP

; 284  : 						{
; 285  : 							s.GetNumber(); s.GetNumber(); s.GetNumber(); s.GetNumber(); s.GetNumber();

  003ec	56		 push	 esi
  003ed	8d 8d 54 f5 ff
	ff		 lea	 ecx, DWORD PTR _s$5[ebp]
  003f3	e8 00 00 00 00	 call	 ?GetNumber@CScanner@@QAEHH@Z ; CScanner::GetNumber
  003f8	56		 push	 esi
  003f9	8d 8d 54 f5 ff
	ff		 lea	 ecx, DWORD PTR _s$5[ebp]
  003ff	e8 00 00 00 00	 call	 ?GetNumber@CScanner@@QAEHH@Z ; CScanner::GetNumber
  00404	56		 push	 esi
  00405	8d 8d 54 f5 ff
	ff		 lea	 ecx, DWORD PTR _s$5[ebp]
  0040b	e8 00 00 00 00	 call	 ?GetNumber@CScanner@@QAEHH@Z ; CScanner::GetNumber
  00410	56		 push	 esi
  00411	8d 8d 54 f5 ff
	ff		 lea	 ecx, DWORD PTR _s$5[ebp]
  00417	e8 00 00 00 00	 call	 ?GetNumber@CScanner@@QAEHH@Z ; CScanner::GetNumber
  0041c	56		 push	 esi
  0041d	8d 8d 54 f5 ff
	ff		 lea	 ecx, DWORD PTR _s$5[ebp]
  00423	e8 00 00 00 00	 call	 ?GetNumber@CScanner@@QAEHH@Z ; CScanner::GetNumber

; 286  : 							s.GetNumber(); s.GetNumber(); s.GetNumber(); s.GetNumber(); s.GetNumber();

  00428	56		 push	 esi
  00429	8d 8d 54 f5 ff
	ff		 lea	 ecx, DWORD PTR _s$5[ebp]
  0042f	e8 00 00 00 00	 call	 ?GetNumber@CScanner@@QAEHH@Z ; CScanner::GetNumber
  00434	56		 push	 esi
  00435	8d 8d 54 f5 ff
	ff		 lea	 ecx, DWORD PTR _s$5[ebp]
  0043b	e8 00 00 00 00	 call	 ?GetNumber@CScanner@@QAEHH@Z ; CScanner::GetNumber
  00440	56		 push	 esi
  00441	8d 8d 54 f5 ff
	ff		 lea	 ecx, DWORD PTR _s$5[ebp]
  00447	e8 00 00 00 00	 call	 ?GetNumber@CScanner@@QAEHH@Z ; CScanner::GetNumber
  0044c	56		 push	 esi
  0044d	8d 8d 54 f5 ff
	ff		 lea	 ecx, DWORD PTR _s$5[ebp]
  00453	e8 00 00 00 00	 call	 ?GetNumber@CScanner@@QAEHH@Z ; CScanner::GetNumber
  00458	56		 push	 esi
  00459	8d 8d 54 f5 ff
	ff		 lea	 ecx, DWORD PTR _s$5[ebp]
  0045f	e8 00 00 00 00	 call	 ?GetNumber@CScanner@@QAEHH@Z ; CScanner::GetNumber

; 287  : 							s.GetNumber();

  00464	56		 push	 esi
  00465	8d 8d 54 f5 ff
	ff		 lea	 ecx, DWORD PTR _s$5[ebp]
  0046b	e8 00 00 00 00	 call	 ?GetNumber@CScanner@@QAEHH@Z ; CScanner::GetNumber
$LN23@LoadBeginP:

; 288  : 						}
; 289  : 
; 290  : 						if( bNewFormat == FALSE )

  00470	8d 8d 54 f5 ff
	ff		 lea	 ecx, DWORD PTR _s$5[ebp]
  00476	6a 00		 push	 0
  00478	85 ff		 test	 edi, edi
  0047a	75 2b		 jne	 SHORT $LN24@LoadBeginP

; 291  : 						{
; 292  : 							char cbDesc	= s.GetNumber();	// size

  0047c	e8 00 00 00 00	 call	 ?GetNumber@CScanner@@QAEHH@Z ; CScanner::GetNumber

; 293  : 							for( int i = 0; i < cbDesc; i++ )

  00481	0f be f0	 movsx	 esi, al
  00484	84 c0		 test	 al, al
  00486	0f 8e 18 01 00
	00		 jle	 $LN169@LoadBeginP
  0048c	0f 1f 40 00	 npad	 4
$LL8@LoadBeginP:

; 294  : 								s.GetToken();	// desc

  00490	6a 00		 push	 0
  00492	8d 8d 54 f5 ff
	ff		 lea	 ecx, DWORD PTR _s$5[ebp]
  00498	e8 00 00 00 00	 call	 ?GetToken@CScanner@@UAEHH@Z ; CScanner::GetToken
  0049d	83 ee 01	 sub	 esi, 1
  004a0	75 ee		 jne	 SHORT $LL8@LoadBeginP

; 295  : 						}

  004a2	e9 fd 00 00 00	 jmp	 $LN169@LoadBeginP
$LN24@LoadBeginP:

; 296  : 						else
; 297  : 						{
; 298  : 							s.GetToken(); // get "title"

  004a7	e8 00 00 00 00	 call	 ?GetToken@CScanner@@UAEHH@Z ; CScanner::GetToken

; 299  : 							BOOL bDesc = s.GetNumber();

  004ac	6a 00		 push	 0
  004ae	8d 8d 54 f5 ff
	ff		 lea	 ecx, DWORD PTR _s$5[ebp]
  004b4	e8 00 00 00 00	 call	 ?GetNumber@CScanner@@QAEHH@Z ; CScanner::GetNumber

; 300  : 							if( bDesc )

  004b9	85 c0		 test	 eax, eax
  004bb	74 67		 je	 SHORT $LN146@LoadBeginP
; File C:\Program Files\Microsoft Visual Studio\2022\Professional\VC\Tools\MSVC\14.44.35207\atlmfc\include\afxstr.h

; 56   : 		return( AfxGetStringManager() );

  004bd	e8 00 00 00 00	 call	 ?AfxGetStringManager@@YGPAUIAtlStringMgr@ATL@@XZ ; AfxGetStringManager
  004c2	8b c8		 mov	 ecx, eax
; File C:\Program Files\Microsoft Visual Studio\2022\Professional\VC\Tools\MSVC\14.44.35207\atlmfc\include\atlsimpstr.h

; 209  : 		ATLENSURE( pStringMgr != NULL );

  004c4	85 c9		 test	 ecx, ecx
  004c6	0f 84 70 01 00
	00		 je	 $LN199@LoadBeginP

; 210  : 		CStringData* pData = pStringMgr->GetNilString();

  004cc	8b 01		 mov	 eax, DWORD PTR [ecx]
  004ce	ff 50 0c	 call	 DWORD PTR [eax+12]

; 211  : 		Attach( pData );

  004d1	8d 70 10	 lea	 esi, DWORD PTR [eax+16]
  004d4	89 b5 44 f5 ff
	ff		 mov	 DWORD PTR _string$2[ebp], esi
; File C:\IAGOS\server\v18\Source\Source\DatabaseServer\Project.cpp

; 303  : 								s.GetToken(); // {

  004da	6a 00		 push	 0
  004dc	8d 8d 54 f5 ff
	ff		 lea	 ecx, DWORD PTR _s$5[ebp]
  004e2	c6 45 fc 01	 mov	 BYTE PTR __$EHRec$[ebp+8], 1
  004e6	e8 00 00 00 00	 call	 ?GetToken@CScanner@@UAEHH@Z ; CScanner::GetToken
  004eb	0f 1f 44 00 00	 npad	 5
$LL11@LoadBeginP:

; 304  : 								do
; 305  : 									s.GetToken(); 

  004f0	6a 00		 push	 0
  004f2	8d 8d 54 f5 ff
	ff		 lea	 ecx, DWORD PTR _s$5[ebp]
  004f8	e8 00 00 00 00	 call	 ?GetToken@CScanner@@UAEHH@Z ; CScanner::GetToken

; 306  : 								while( *s.token != '}' );

  004fd	8b 85 90 f5 ff
	ff		 mov	 eax, DWORD PTR _s$5[ebp+60]
  00503	80 38 7d	 cmp	 BYTE PTR [eax], 125	; 0000007dH
  00506	75 e8		 jne	 SHORT $LL11@LoadBeginP

; 307  : 							}

  00508	c6 45 fc 00	 mov	 BYTE PTR __$EHRec$[ebp+8], 0
; File C:\Program Files\Microsoft Visual Studio\2022\Professional\VC\Tools\MSVC\14.44.35207\atlmfc\include\atlsimpstr.h

; 804  : 		return( reinterpret_cast< CStringData* >( m_pszData )-1 );

  0050c	83 c6 f0	 add	 esi, -16		; fffffff0H

; 92   : 		if( _InterlockedDecrement( &nRefs ) <= 0 )

  0050f	83 c8 ff	 or	 eax, -1
  00512	f0 0f c1 46 0c	 lock	  xadd	 DWORD PTR [esi+12], eax
  00517	48		 dec	 eax
  00518	85 c0		 test	 eax, eax
  0051a	7f 08		 jg	 SHORT $LN146@LoadBeginP

; 93   : 		{
; 94   : 			pStringMgr->Free( this );

  0051c	8b 0e		 mov	 ecx, DWORD PTR [esi]
  0051e	56		 push	 esi
  0051f	8b 01		 mov	 eax, DWORD PTR [ecx]
  00521	ff 50 04	 call	 DWORD PTR [eax+4]
$LN146@LoadBeginP:
; File C:\IAGOS\server\v18\Source\Source\DatabaseServer\Project.cpp

; 308  : 							s.GetToken(); // get "desc"

  00524	6a 00		 push	 0
  00526	8d 8d 54 f5 ff
	ff		 lea	 ecx, DWORD PTR _s$5[ebp]
  0052c	e8 00 00 00 00	 call	 ?GetToken@CScanner@@UAEHH@Z ; CScanner::GetToken

; 309  : 							bDesc = s.GetNumber();

  00531	6a 00		 push	 0
  00533	8d 8d 54 f5 ff
	ff		 lea	 ecx, DWORD PTR _s$5[ebp]
  00539	e8 00 00 00 00	 call	 ?GetNumber@CScanner@@QAEHH@Z ; CScanner::GetNumber

; 310  : 							if( bDesc )

  0053e	85 c0		 test	 eax, eax
  00540	74 62		 je	 SHORT $LN169@LoadBeginP
; File C:\Program Files\Microsoft Visual Studio\2022\Professional\VC\Tools\MSVC\14.44.35207\atlmfc\include\afxstr.h

; 56   : 		return( AfxGetStringManager() );

  00542	e8 00 00 00 00	 call	 ?AfxGetStringManager@@YGPAUIAtlStringMgr@ATL@@XZ ; AfxGetStringManager
  00547	8b c8		 mov	 ecx, eax
; File C:\Program Files\Microsoft Visual Studio\2022\Professional\VC\Tools\MSVC\14.44.35207\atlmfc\include\atlsimpstr.h

; 209  : 		ATLENSURE( pStringMgr != NULL );

  00549	85 c9		 test	 ecx, ecx
  0054b	0f 84 eb 00 00
	00		 je	 $LN199@LoadBeginP

; 210  : 		CStringData* pData = pStringMgr->GetNilString();

  00551	8b 01		 mov	 eax, DWORD PTR [ecx]
  00553	ff 50 0c	 call	 DWORD PTR [eax+12]

; 211  : 		Attach( pData );

  00556	8d 70 10	 lea	 esi, DWORD PTR [eax+16]
  00559	89 b5 44 f5 ff
	ff		 mov	 DWORD PTR _string$3[ebp], esi
; File C:\IAGOS\server\v18\Source\Source\DatabaseServer\Project.cpp

; 313  : 								s.GetToken(); // {

  0055f	6a 00		 push	 0
  00561	8d 8d 54 f5 ff
	ff		 lea	 ecx, DWORD PTR _s$5[ebp]
  00567	c6 45 fc 02	 mov	 BYTE PTR __$EHRec$[ebp+8], 2
  0056b	e8 00 00 00 00	 call	 ?GetToken@CScanner@@UAEHH@Z ; CScanner::GetToken
$LL14@LoadBeginP:

; 314  : 								do
; 315  : 									s.GetToken(); 

  00570	6a 00		 push	 0
  00572	8d 8d 54 f5 ff
	ff		 lea	 ecx, DWORD PTR _s$5[ebp]
  00578	e8 00 00 00 00	 call	 ?GetToken@CScanner@@UAEHH@Z ; CScanner::GetToken

; 316  : 								while( *s.token != '}' );

  0057d	8b 85 90 f5 ff
	ff		 mov	 eax, DWORD PTR _s$5[ebp+60]
  00583	80 38 7d	 cmp	 BYTE PTR [eax], 125	; 0000007dH
  00586	75 e8		 jne	 SHORT $LL14@LoadBeginP

; 317  : 							}

  00588	c6 45 fc 00	 mov	 BYTE PTR __$EHRec$[ebp+8], 0
; File C:\Program Files\Microsoft Visual Studio\2022\Professional\VC\Tools\MSVC\14.44.35207\atlmfc\include\atlsimpstr.h

; 804  : 		return( reinterpret_cast< CStringData* >( m_pszData )-1 );

  0058c	83 c6 f0	 add	 esi, -16		; fffffff0H

; 92   : 		if( _InterlockedDecrement( &nRefs ) <= 0 )

  0058f	83 c8 ff	 or	 eax, -1
  00592	f0 0f c1 46 0c	 lock	  xadd	 DWORD PTR [esi+12], eax
  00597	48		 dec	 eax
  00598	85 c0		 test	 eax, eax
  0059a	7f 08		 jg	 SHORT $LN169@LoadBeginP

; 93   : 		{
; 94   : 			pStringMgr->Free( this );

  0059c	8b 0e		 mov	 ecx, DWORD PTR [esi]
  0059e	56		 push	 esi
  0059f	8b 01		 mov	 eax, DWORD PTR [ecx]
  005a1	ff 50 04	 call	 DWORD PTR [eax+4]
$LN169@LoadBeginP:
; File C:\IAGOS\server\v18\Source\Source\DatabaseServer\Project.cpp

; 319  : 						if( RI_BEGIN == dwIndex ) 

  005a4	83 fb 0c	 cmp	 ebx, 12			; 0000000cH
  005a7	75 28		 jne	 SHORT $LN28@LoadBeginP

; 320  : 						{
; 321  : 							strlwr( ffdFoundData.cFileName );

  005a9	8d 85 d8 fd ff
	ff		 lea	 eax, DWORD PTR _ffdFoundData$[ebp+44]
  005af	50		 push	 eax
  005b0	e8 00 00 00 00	 call	 _strlwr

; 322  : 							AddBeginPos( ffdFoundData.cFileName, vPos );

  005b5	8b 8d 4c f5 ff
	ff		 mov	 ecx, DWORD PTR _this$GSCopy$1$[ebp]
  005bb	8d 85 38 f5 ff
	ff		 lea	 eax, DWORD PTR _vPos$[ebp]
  005c1	83 c4 04	 add	 esp, 4
  005c4	50		 push	 eax
  005c5	8d 85 d8 fd ff
	ff		 lea	 eax, DWORD PTR _ffdFoundData$[ebp+44]
  005cb	50		 push	 eax
  005cc	e8 00 00 00 00	 call	 ?AddBeginPos@CProject@@QAEXPBDABUD3DXVECTOR3@@@Z ; CProject::AddBeginPos
$LN28@LoadBeginP:

; 331  : 					}
; 332  : 					s.GetToken();

  005d1	6a 00		 push	 0
  005d3	8d 8d 54 f5 ff
	ff		 lea	 ecx, DWORD PTR _s$5[ebp]
  005d9	e8 00 00 00 00	 call	 ?GetToken@CScanner@@UAEHH@Z ; CScanner::GetToken
  005de	83 bd 98 fd ff
	ff 15		 cmp	 DWORD PTR _s$5[ebp+2116], 21 ; 00000015H
  005e5	0f 85 95 fb ff
	ff		 jne	 $LL4@LoadBeginP
  005eb	8b 9d 48 f5 ff
	ff		 mov	 ebx, DWORD PTR _hFound$1$[ebp]
$LN203@LoadBeginP:

; 333  : 				}
; 334  : 			}
; 335  : 		}

  005f1	8d 8d 54 f5 ff
	ff		 lea	 ecx, DWORD PTR _s$5[ebp]
  005f7	c7 45 fc ff ff
	ff ff		 mov	 DWORD PTR __$EHRec$[ebp+8], -1
  005fe	e8 00 00 00 00	 call	 ??1CScanner@@UAE@XZ	; CScanner::~CScanner
$LN16@LoadBeginP:

; 336  : 		bDoneWithHandle

  00603	8d 85 ac fd ff
	ff		 lea	 eax, DWORD PTR _ffdFoundData$[ebp]
  00609	50		 push	 eax
  0060a	53		 push	 ebx
  0060b	ff 15 00 00 00
	00		 call	 DWORD PTR __imp__FindNextFileA@8
  00611	85 c0		 test	 eax, eax
  00613	0f 85 77 fa ff
	ff		 jne	 $LL2@LoadBeginP
$LN204@LoadBeginP:

; 337  : 			= !FindNextFile( hFound, (LPWIN32_FIND_DATA)&ffdFoundData );
; 338  : 	}
; 339  : 	FindClose( hFound );

  00619	53		 push	 ebx
  0061a	ff 15 00 00 00
	00		 call	 DWORD PTR __imp__FindClose@4

; 340  : }

  00620	8b 4d f4	 mov	 ecx, DWORD PTR __$EHRec$[ebp]
  00623	64 89 0d 00 00
	00 00		 mov	 DWORD PTR fs:0, ecx
  0062a	59		 pop	 ecx
  0062b	5f		 pop	 edi
  0062c	5e		 pop	 esi
  0062d	5b		 pop	 ebx
  0062e	8b 4d f0	 mov	 ecx, DWORD PTR __$ArrayPad$[ebp]
  00631	33 cd		 xor	 ecx, ebp
  00633	e8 00 00 00 00	 call	 @__security_check_cookie@4
  00638	8b e5		 mov	 esp, ebp
  0063a	5d		 pop	 ebp
  0063b	c3		 ret	 0
$LN199@LoadBeginP:
; File C:\Program Files\Microsoft Visual Studio\2022\Professional\VC\Tools\MSVC\14.44.35207\atlmfc\include\atlsimpstr.h

; 209  : 		ATLENSURE( pStringMgr != NULL );

  0063c	68 05 40 00 80	 push	 -2147467259		; 80004005H
  00641	e8 00 00 00 00	 call	 ?AtlThrowImpl@ATL@@YGXJ@Z ; ATL::AtlThrowImpl
$LN230@LoadBeginP:
  00646	cc		 int	 3
_TEXT	ENDS
;	COMDAT text$x
text$x	SEGMENT
__unwindfunclet$?LoadBeginPos@CProject@@QAEXXZ$1:
  00000	8d 8d 54 f5 ff
	ff		 lea	 ecx, DWORD PTR _s$5[ebp]
  00006	e9 00 00 00 00	 jmp	 ??1CScanner@@UAE@XZ	; CScanner::~CScanner
__unwindfunclet$?LoadBeginPos@CProject@@QAEXXZ$2:
  0000b	8d 8d 44 f5 ff
	ff		 lea	 ecx, DWORD PTR _string$2[ebp]
  00011	e9 00 00 00 00	 jmp	 ??1?$CStringT@DV?$StrTraitMFC@DV?$ChTraitsCRT@D@ATL@@@@@ATL@@QAE@XZ ; ATL::CStringT<char,StrTraitMFC<char,ATL::ChTraitsCRT<char> > >::~CStringT<char,StrTraitMFC<char,ATL::ChTraitsCRT<char> > >
__unwindfunclet$?LoadBeginPos@CProject@@QAEXXZ$3:
  00016	8d 8d 44 f5 ff
	ff		 lea	 ecx, DWORD PTR _string$3[ebp]
  0001c	e9 00 00 00 00	 jmp	 ??1?$CStringT@DV?$StrTraitMFC@DV?$ChTraitsCRT@D@ATL@@@@@ATL@@QAE@XZ ; ATL::CStringT<char,StrTraitMFC<char,ATL::ChTraitsCRT<char> > >::~CStringT<char,StrTraitMFC<char,ATL::ChTraitsCRT<char> > >
  00021	cc		 int	 3
  00022	cc		 int	 3
  00023	cc		 int	 3
  00024	cc		 int	 3
  00025	cc		 int	 3
__ehhandler$?LoadBeginPos@CProject@@QAEXXZ:
  00026	90		 npad	 1
  00027	90		 npad	 1
  00028	8b 54 24 08	 mov	 edx, DWORD PTR [esp+8]
  0002c	8d 42 0c	 lea	 eax, DWORD PTR [edx+12]
  0002f	8b 8a 34 f5 ff
	ff		 mov	 ecx, DWORD PTR [edx-2764]
  00035	33 c8		 xor	 ecx, eax
  00037	e8 00 00 00 00	 call	 @__security_check_cookie@4
  0003c	8b 4a fc	 mov	 ecx, DWORD PTR [edx-4]
  0003f	33 c8		 xor	 ecx, eax
  00041	e8 00 00 00 00	 call	 @__security_check_cookie@4
  00046	b8 00 00 00 00	 mov	 eax, OFFSET __ehfuncinfo$?LoadBeginPos@CProject@@QAEXXZ
  0004b	e9 00 00 00 00	 jmp	 ___CxxFrameHandler3
text$x	ENDS
?LoadBeginPos@CProject@@QAEXXZ ENDP			; CProject::LoadBeginPos
; Function compile flags: /Ogtp
; File C:\IAGOS\server\v18\Source\Source\DatabaseServer\Project.cpp
; File C:\Program Files\Microsoft Visual Studio\2022\Professional\VC\Tools\MSVC\14.44.35207\atlmfc\include\cstringt.h
; File C:\IAGOS\server\v18\Source\Source\DatabaseServer\Project.cpp
; File C:\Program Files\Microsoft Visual Studio\2022\Professional\VC\Tools\MSVC\14.44.35207\atlmfc\include\cstringt.h
; File C:\IAGOS\server\v18\Source\Source\DatabaseServer\Project.cpp
; File C:\Program Files\Microsoft Visual Studio\2022\Professional\VC\Tools\MSVC\14.44.35207\atlmfc\include\cstringt.h
; File C:\IAGOS\server\v18\Source\Source\DatabaseServer\Project.cpp
; File C:\IAGOS\server\v18\Source\Source\_Common\Data.h
; File C:\IAGOS\server\v18\Source\Source\DatabaseServer\Project.cpp
; File C:\Program Files\Microsoft Visual Studio\2022\Professional\VC\Tools\MSVC\14.44.35207\atlmfc\include\cstringt.h
; File C:\IAGOS\server\v18\Source\Source\DatabaseServer\Project.cpp
; File C:\Program Files\Microsoft Visual Studio\2022\Professional\VC\Tools\MSVC\14.44.35207\atlmfc\include\cstringt.h
; File C:\IAGOS\server\v18\Source\Source\DatabaseServer\Project.cpp
;	COMDAT ?OpenProject@CProject@@QAEHPBD@Z
_TEXT	SEGMENT
_this$GSCopy$1$ = -2160					; size = 4
tv608 = -2156						; size = 4
_s$ = -2152						; size = 2136
__$ArrayPad$ = -16					; size = 4
__$EHRec$ = -12						; size = 12
_lpszFileName$ = 8					; size = 4
?OpenProject@CProject@@QAEHPBD@Z PROC			; CProject::OpenProject, COMDAT
; _this$ = ecx

; 109  : {

  00000	55		 push	 ebp
  00001	8b ec		 mov	 ebp, esp
  00003	6a ff		 push	 -1
  00005	68 00 00 00 00	 push	 __ehhandler$?OpenProject@CProject@@QAEHPBD@Z
  0000a	64 a1 00 00 00
	00		 mov	 eax, DWORD PTR fs:0
  00010	50		 push	 eax
  00011	81 ec 64 08 00
	00		 sub	 esp, 2148		; 00000864H
  00017	a1 00 00 00 00	 mov	 eax, DWORD PTR ___security_cookie
  0001c	33 c5		 xor	 eax, ebp
  0001e	89 45 f0	 mov	 DWORD PTR __$ArrayPad$[ebp], eax
  00021	53		 push	 ebx
  00022	56		 push	 esi
  00023	57		 push	 edi
  00024	50		 push	 eax
  00025	8d 45 f4	 lea	 eax, DWORD PTR __$EHRec$[ebp]
  00028	64 a3 00 00 00
	00		 mov	 DWORD PTR fs:0, eax
  0002e	8b f9		 mov	 edi, ecx
  00030	89 bd 90 f7 ff
	ff		 mov	 DWORD PTR _this$GSCopy$1$[ebp], edi
  00036	8b 75 08	 mov	 esi, DWORD PTR _lpszFileName$[ebp]

; 110  : 	CScanner s;

  00039	8d 8d 98 f7 ff
	ff		 lea	 ecx, DWORD PTR _s$[ebp]
  0003f	6a 00		 push	 0
  00041	e8 00 00 00 00	 call	 ??0CScanner@@QAE@H@Z	; CScanner::CScanner

; 111  : 	if( s.Load( lpszFileName )	== FALSE )

  00046	6a 01		 push	 1
  00048	56		 push	 esi
  00049	8d 8d 98 f7 ff
	ff		 lea	 ecx, DWORD PTR _s$[ebp]
  0004f	c7 45 fc 00 00
	00 00		 mov	 DWORD PTR __$EHRec$[ebp+8], 0
  00056	e8 00 00 00 00	 call	 ?Load@CScanner@@QAEHPBDH@Z ; CScanner::Load
  0005b	85 c0		 test	 eax, eax
  0005d	75 07		 jne	 SHORT $LN11@OpenProjec
  0005f	33 f6		 xor	 esi, esi
  00061	e9 76 02 00 00	 jmp	 $LN27@OpenProjec
$LN11@OpenProjec:

; 112  : 		return FALSE;
; 113  : 
; 114  : 	LoadPreFiles();

  00066	8b cf		 mov	 ecx, edi
  00068	e8 00 00 00 00	 call	 ?LoadPreFiles@CProject@@QAEXXZ ; CProject::LoadPreFiles
  0006d	0f 1f 00	 npad	 3
$LL4@OpenProjec:

; 115  : 
; 116  : 	do {
; 117  : 		s.GetToken();

  00070	6a 00		 push	 0
  00072	8d 8d 98 f7 ff
	ff		 lea	 ecx, DWORD PTR _s$[ebp]
  00078	e8 00 00 00 00	 call	 ?GetToken@CScanner@@UAEHH@Z ; CScanner::GetToken
; File C:\Program Files\Microsoft Visual Studio\2022\Professional\VC\Tools\MSVC\14.44.35207\atlmfc\include\cstringt.h

; 184  : 		return _mbscmp( reinterpret_cast< const unsigned char* >( pszA ), reinterpret_cast< const unsigned char* >( pszB ) );

  0007d	68 00 00 00 00	 push	 OFFSET ??_C@_08FOANJOHG@propItem@
  00082	ff b5 b8 f7 ff
	ff		 push	 DWORD PTR _s$[ebp+32]
  00088	e8 00 00 00 00	 call	 __mbscmp
  0008d	83 c4 08	 add	 esp, 8

; 2490 : 		return(str1.Compare(psz2) == 0);

  00090	85 c0		 test	 eax, eax
; File C:\IAGOS\server\v18\Source\Source\DatabaseServer\Project.cpp

; 119  : 		if( s.Token == _T( "propItem" ) )

  00092	75 21		 jne	 SHORT $LN50@OpenProjec

; 120  : 		{
; 121  : 			s.GetToken();

  00094	50		 push	 eax
  00095	8d 8d 98 f7 ff
	ff		 lea	 ecx, DWORD PTR _s$[ebp]
  0009b	e8 00 00 00 00	 call	 ?GetToken@CScanner@@UAEHH@Z ; CScanner::GetToken

; 122  : 			LoadPropItem( "Spec_Item.txt" , &m_aPropItem );

  000a0	8d 47 34	 lea	 eax, DWORD PTR [edi+52]
  000a3	8b cf		 mov	 ecx, edi
  000a5	50		 push	 eax
  000a6	68 00 00 00 00	 push	 OFFSET ??_C@_0O@ECNAFEFK@Spec_Item?4txt@
  000ab	e8 00 00 00 00	 call	 ?LoadPropItem@CProject@@QAEHPBDPAV?$CFixedArray@UItemProp@@@@@Z ; CProject::LoadPropItem

; 123  : 		}

  000b0	e9 85 01 00 00	 jmp	 $LN2@OpenProjec
$LN50@OpenProjec:
; File C:\Program Files\Microsoft Visual Studio\2022\Professional\VC\Tools\MSVC\14.44.35207\atlmfc\include\cstringt.h

; 184  : 		return _mbscmp( reinterpret_cast< const unsigned char* >( pszA ), reinterpret_cast< const unsigned char* >( pszB ) );

  000b5	68 00 00 00 00	 push	 OFFSET ??_C@_09GECPIPKP@propMover@
  000ba	ff b5 b8 f7 ff
	ff		 push	 DWORD PTR _s$[ebp+32]
  000c0	e8 00 00 00 00	 call	 __mbscmp
  000c5	83 c4 08	 add	 esp, 8

; 2490 : 		return(str1.Compare(psz2) == 0);

  000c8	85 c0		 test	 eax, eax
; File C:\IAGOS\server\v18\Source\Source\DatabaseServer\Project.cpp

; 131  : 		else if( s.Token == _T( "propMover" ) )

  000ca	75 1e		 jne	 SHORT $LN66@OpenProjec

; 132  : 		{
; 133  : 			s.GetToken();

  000cc	50		 push	 eax
  000cd	8d 8d 98 f7 ff
	ff		 lea	 ecx, DWORD PTR _s$[ebp]
  000d3	e8 00 00 00 00	 call	 ?GetToken@CScanner@@UAEHH@Z ; CScanner::GetToken

; 134  : 			LoadPropMover( s.token );

  000d8	ff b5 d4 f7 ff
	ff		 push	 DWORD PTR _s$[ebp+60]
  000de	8b cf		 mov	 ecx, edi
  000e0	e8 00 00 00 00	 call	 ?LoadPropMover@CProject@@QAEHPBD@Z ; CProject::LoadPropMover

; 135  : 		}

  000e5	e9 50 01 00 00	 jmp	 $LN2@OpenProjec
$LN66@OpenProjec:
; File C:\Program Files\Microsoft Visual Studio\2022\Professional\VC\Tools\MSVC\14.44.35207\atlmfc\include\cstringt.h

; 184  : 		return _mbscmp( reinterpret_cast< const unsigned char* >( pszA ), reinterpret_cast< const unsigned char* >( pszB ) );

  000ea	68 00 00 00 00	 push	 OFFSET ??_C@_09HLJJAJBN@propSkill@
  000ef	ff b5 b8 f7 ff
	ff		 push	 DWORD PTR _s$[ebp+32]
  000f5	e8 00 00 00 00	 call	 __mbscmp
  000fa	83 c4 08	 add	 esp, 8

; 2490 : 		return(str1.Compare(psz2) == 0);

  000fd	85 c0		 test	 eax, eax
; File C:\IAGOS\server\v18\Source\Source\DatabaseServer\Project.cpp

; 136  : 		else if( s.Token == _T( "propSkill" ) )

  000ff	0f 85 d3 00 00
	00		 jne	 $LN85@OpenProjec

; 137  : 		{
; 138  : 			s.GetToken();

  00105	50		 push	 eax
  00106	8d 8d 98 f7 ff
	ff		 lea	 ecx, DWORD PTR _s$[ebp]
  0010c	e8 00 00 00 00	 call	 ?GetToken@CScanner@@UAEHH@Z ; CScanner::GetToken

; 139  : #ifdef __NEW_PROP_PARAMETER
; 140  : 			LoadPropItemEx( s.token, &m_aPropSkill );

  00111	8d 47 10	 lea	 eax, DWORD PTR [edi+16]
  00114	8b cf		 mov	 ecx, edi
  00116	50		 push	 eax
  00117	ff b5 d4 f7 ff
	ff		 push	 DWORD PTR _s$[ebp+60]
  0011d	e8 00 00 00 00	 call	 ?LoadPropItemEx@CProject@@QAEHPBDPAV?$CFixedArray@UItemProp@@@@@Z ; CProject::LoadPropItemEx

; 141  : #else  // __NEW_PROP_PARAMETER
; 142  : 			LoadPropItem( s.token, &m_aPropSkill );
; 143  : #endif // __NEW_PROP_PARAMETER
; 144  : 			memset( m_aJobSkillNum, 0, sizeof(m_aJobSkillNum ) );

  00122	68 a0 00 00 00	 push	 160			; 000000a0H
  00127	8d 87 fc 19 00
	00		 lea	 eax, DWORD PTR [edi+6652]
  0012d	6a 00		 push	 0
  0012f	50		 push	 eax
  00130	89 85 94 f7 ff
	ff		 mov	 DWORD PTR tv608[ebp], eax
  00136	e8 00 00 00 00	 call	 _memset

; 145  : 			for( int i = 1; i < m_aPropSkill.GetSize(); i++ )

  0013b	8b 47 28	 mov	 eax, DWORD PTR [edi+40]
  0013e	bb 01 00 00 00	 mov	 ebx, 1
  00143	83 c4 0c	 add	 esp, 12			; 0000000cH
  00146	3b c3		 cmp	 eax, ebx
  00148	7e 54		 jle	 SHORT $LN6@OpenProjec
; File C:\IAGOS\server\v18\Source\Source\_Common\Data.h

; 270  : 	if( dwIndex >= (DWORD)m_nMaxIndex )

  0014a	3b d8		 cmp	 ebx, eax
$LN130@OpenProjec:
  0014c	73 48		 jae	 SHORT $LN5@OpenProjec

; 271  : 		return NULL;
; 272  : 	return (T*) m_apOffset[ dwIndex ];

  0014e	8b 77 18	 mov	 esi, DWORD PTR [edi+24]
  00151	8b 34 9e	 mov	 esi, DWORD PTR [esi+ebx*4]
; File C:\IAGOS\server\v18\Source\Source\DatabaseServer\Project.cpp

; 148  : 				if( pItemProp )

  00154	85 f6		 test	 esi, esi
  00156	74 3e		 je	 SHORT $LN5@OpenProjec

; 149  : 				{
; 150  : 					if( pItemProp->dwItemKind2 == -1 )

  00158	83 7e 74 ff	 cmp	 DWORD PTR [esi+116], -1
  0015c	75 11		 jne	 SHORT $LN20@OpenProjec

; 151  : 					{
; 152  : 						Error( "ItmeProp(%s) dwItemKind2 = -1", pItemProp->szName );

  0015e	8d 46 04	 lea	 eax, DWORD PTR [esi+4]
  00161	50		 push	 eax
  00162	68 00 00 00 00	 push	 OFFSET ??_C@_0BO@ELKNDCGL@ItmeProp?$CI?$CFs?$CJ?5dwItemKind2?5?$DN?5?91@
  00167	e8 00 00 00 00	 call	 ?Error@@YAPBDPBDZZ	; Error
  0016c	83 c4 08	 add	 esp, 8
$LN20@OpenProjec:

; 153  : 					}
; 154  : 
; 155  : 					if( pItemProp->dwItemKind1 == JTYPE_COMMON )

  0016f	83 7e 70 04	 cmp	 DWORD PTR [esi+112], 4
  00173	74 21		 je	 SHORT $LN5@OpenProjec

; 156  : 						continue;
; 157  : 
; 158  : 					ItemProp** apJobSkill	= m_aJobSkill[pItemProp->dwItemKind2];
; 159  : 					apJobSkill[m_aJobSkillNum[pItemProp->dwItemKind2]]	= pItemProp;

  00175	8b 46 74	 mov	 eax, DWORD PTR [esi+116]
  00178	8d 0c 80	 lea	 ecx, DWORD PTR [eax+eax*4]
  0017b	8b 84 87 fc 19
	00 00		 mov	 eax, DWORD PTR [edi+eax*4+6652]
  00182	8d 04 c8	 lea	 eax, DWORD PTR [eax+ecx*8]
  00185	89 b4 87 fc 00
	00 00		 mov	 DWORD PTR [edi+eax*4+252], esi

; 160  : 					m_aJobSkillNum[pItemProp->dwItemKind2]++;

  0018c	8b 46 74	 mov	 eax, DWORD PTR [esi+116]
  0018f	ff 84 87 fc 19
	00 00		 inc	 DWORD PTR [edi+eax*4+6652]
$LN5@OpenProjec:

; 145  : 			for( int i = 1; i < m_aPropSkill.GetSize(); i++ )

  00196	8b 47 28	 mov	 eax, DWORD PTR [edi+40]
  00199	43		 inc	 ebx
  0019a	3b d8		 cmp	 ebx, eax
  0019c	7c ae		 jl	 SHORT $LN130@OpenProjec
$LN6@OpenProjec:
  0019e	8b 9d 94 f7 ff
	ff		 mov	 ebx, DWORD PTR tv608[ebp]

; 161  : 				}
; 162  : 				else
; 163  : 				{
; 164  : 					TRACE( "PropSkill Prop NULL SkillIndex = %d now no problem\n", i );
; 165  : 				}
; 166  : 			}
; 167  : 			for( int i = 0; i < MAX_JOB; i++ )

  001a4	8d b7 fc 00 00
	00		 lea	 esi, DWORD PTR [edi+252]
  001aa	bf 28 00 00 00	 mov	 edi, 40			; 00000028H
  001af	90		 npad	 1
$LL10@OpenProjec:

; 168  : 			{
; 169  : 				ItemProp** apJobSkill	= m_aJobSkill[i];
; 170  : 				qsort( (void*)apJobSkill, (size_t)m_aJobSkillNum[i], sizeof(ItemProp*), SortJobSkill );

  001b0	68 00 00 00 00	 push	 OFFSET ?SortJobSkill@@YAHPBX0@Z ; SortJobSkill
  001b5	6a 04		 push	 4
  001b7	ff 33		 push	 DWORD PTR [ebx]
  001b9	56		 push	 esi
  001ba	e8 00 00 00 00	 call	 _qsort
  001bf	83 c4 10	 add	 esp, 16			; 00000010H
  001c2	8d 5b 04	 lea	 ebx, DWORD PTR [ebx+4]
  001c5	81 c6 a0 00 00
	00		 add	 esi, 160		; 000000a0H
  001cb	83 ef 01	 sub	 edi, 1
  001ce	75 e0		 jne	 SHORT $LL10@OpenProjec

; 171  : 			}
; 172  : 		}

  001d0	8b bd 90 f7 ff
	ff		 mov	 edi, DWORD PTR _this$GSCopy$1$[ebp]
  001d6	eb 62		 jmp	 SHORT $LN2@OpenProjec
$LN85@OpenProjec:
; File C:\Program Files\Microsoft Visual Studio\2022\Professional\VC\Tools\MSVC\14.44.35207\atlmfc\include\cstringt.h

; 184  : 		return _mbscmp( reinterpret_cast< const unsigned char* >( pszA ), reinterpret_cast< const unsigned char* >( pszB ) );

  001d8	68 00 00 00 00	 push	 OFFSET ??_C@_05MCBCHHEJ@world@
  001dd	ff b5 b8 f7 ff
	ff		 push	 DWORD PTR _s$[ebp+32]
  001e3	e8 00 00 00 00	 call	 __mbscmp
  001e8	83 c4 08	 add	 esp, 8

; 2490 : 		return(str1.Compare(psz2) == 0);

  001eb	85 c0		 test	 eax, eax
; File C:\IAGOS\server\v18\Source\Source\DatabaseServer\Project.cpp

; 173  : 		else if( s.Token == _T( "world" ) )

  001ed	75 1b		 jne	 SHORT $LN101@OpenProjec

; 174  : 		{
; 175  : 			s.GetToken();

  001ef	50		 push	 eax
  001f0	8d 8d 98 f7 ff
	ff		 lea	 ecx, DWORD PTR _s$[ebp]
  001f6	e8 00 00 00 00	 call	 ?GetToken@CScanner@@UAEHH@Z ; CScanner::GetToken

; 176  : 			LoadDefOfWorld( s.token );

  001fb	ff b5 d4 f7 ff
	ff		 push	 DWORD PTR _s$[ebp+60]
  00201	8b cf		 mov	 ecx, edi
  00203	e8 00 00 00 00	 call	 ?LoadDefOfWorld@CProject@@QAEHPBD@Z ; CProject::LoadDefOfWorld

; 177  : 		}

  00208	eb 30		 jmp	 SHORT $LN2@OpenProjec
$LN101@OpenProjec:
; File C:\Program Files\Microsoft Visual Studio\2022\Professional\VC\Tools\MSVC\14.44.35207\atlmfc\include\cstringt.h

; 184  : 		return _mbscmp( reinterpret_cast< const unsigned char* >( pszA ), reinterpret_cast< const unsigned char* >( pszB ) );

  0020a	68 00 00 00 00	 push	 OFFSET ??_C@_08GHPKPDIG@expTable@
  0020f	ff b5 b8 f7 ff
	ff		 push	 DWORD PTR _s$[ebp+32]
  00215	e8 00 00 00 00	 call	 __mbscmp
  0021a	83 c4 08	 add	 esp, 8

; 2490 : 		return(str1.Compare(psz2) == 0);

  0021d	85 c0		 test	 eax, eax
; File C:\IAGOS\server\v18\Source\Source\DatabaseServer\Project.cpp

; 178  : 		else if( s.Token == _T( "expTable" ) )

  0021f	75 19		 jne	 SHORT $LN2@OpenProjec

; 179  : 		{
; 180  : 			s.GetToken();

  00221	50		 push	 eax
  00222	8d 8d 98 f7 ff
	ff		 lea	 ecx, DWORD PTR _s$[ebp]
  00228	e8 00 00 00 00	 call	 ?GetToken@CScanner@@UAEHH@Z ; CScanner::GetToken

; 181  : 			LoadExpTable( s.token );

  0022d	ff b5 d4 f7 ff
	ff		 push	 DWORD PTR _s$[ebp+60]
  00233	8b cf		 mov	 ecx, edi
  00235	e8 00 00 00 00	 call	 ?LoadExpTable@CProject@@QAEHPBD@Z ; CProject::LoadExpTable
$LN2@OpenProjec:

; 182  : 		}
; 183  : 	}	while( s.tok != FINISHED );

  0023a	83 7d dc 15	 cmp	 DWORD PTR _s$[ebp+2116], 21 ; 00000015H
  0023e	0f 85 2c fe ff
	ff		 jne	 $LL4@OpenProjec

; 184  : 
; 185  : 	LoadBeginPos();

  00244	8b cf		 mov	 ecx, edi
  00246	e8 00 00 00 00	 call	 ?LoadBeginPos@CProject@@QAEXXZ ; CProject::LoadBeginPos

; 186  : 	LoadJobItem( _T( "jobItem.inc" ) );

  0024b	68 00 00 00 00	 push	 OFFSET ??_C@_0M@FDPIKJBI@jobItem?4inc@
  00250	8b cf		 mov	 ecx, edi
  00252	e8 00 00 00 00	 call	 ?LoadJobItem@CProject@@QAEHPBD@Z ; CProject::LoadJobItem

; 187  : 
; 188  : #ifdef __CONV_SKILL_11_MONTH_JOB1
; 189  : 	LoadPropAddSkill( _T( "propSkillAdd.csv" ) );
; 190  : #endif // __CONV_SKILL_11_MONTH_JOB1
; 191  : 
; 192  : #if __VER >= 9 // __EVENTLUA
; 193  : 	m_EventLua.LoadScript();

  00257	8d 8f 84 00 00
	00		 lea	 ecx, DWORD PTR [edi+132]
  0025d	e8 00 00 00 00	 call	 ?LoadScript@CEventLua@@QAEXXZ ; CEventLua::LoadScript

; 194  : 	m_EventLua.CheckEventState();

  00262	8d 8f 84 00 00
	00		 lea	 ecx, DWORD PTR [edi+132]
  00268	e8 00 00 00 00	 call	 ?CheckEventState@CEventLua@@QAEHXZ ; CEventLua::CheckEventState

; 195  : #endif // __EVENTLUA
; 196  : 
; 197  : #if __VER >= 11 // __GUILD_COMBAT_1TO1
; 198  : 	m_GuildCombat1to1.LoadScript();

  0026d	8d 8f b8 00 00
	00		 lea	 ecx, DWORD PTR [edi+184]
  00273	e8 00 00 00 00	 call	 ?LoadScript@CGuildCombat1to1Mng@@QAEHXZ ; CGuildCombat1to1Mng::LoadScript

; 199  : #endif // __GUILD_COMBAT_1TO1
; 200  : 
; 201  : #ifdef __RULE_0615
; 202  : 	LoadInvalidName();

  00278	8b cf		 mov	 ecx, edi
  0027a	e8 00 00 00 00	 call	 ?LoadInvalidName@CProject@@QAEHXZ ; CProject::LoadInvalidName

; 203  : 	LoadAllowedLetter();

  0027f	6a 00		 push	 0
  00281	8b cf		 mov	 ecx, edi
  00283	e8 00 00 00 00	 call	 ?LoadAllowedLetter@CProject@@QAEHH@Z ; CProject::LoadAllowedLetter

; 204  : #ifdef __VENDOR_1106
; 205  : 	LoadAllowedLetter( TRUE );

  00288	6a 01		 push	 1
  0028a	8b cf		 mov	 ecx, edi
  0028c	e8 00 00 00 00	 call	 ?LoadAllowedLetter@CProject@@QAEHH@Z ; CProject::LoadAllowedLetter

; 206  : #endif	// __VENDOR_1106
; 207  : #endif	// __RULE_0615
; 208  : 	
; 209  : #if __VER >= 9	// __PET_0410
; 210  : 	CPetProperty::GetInstance()->LoadScript( "pet.inc" );

  00291	68 00 00 00 00	 push	 OFFSET ??_C@_07ELPGGKDB@pet?4inc@
  00296	e8 00 00 00 00	 call	 ?GetInstance@CPetProperty@@SAPAV1@XZ ; CPetProperty::GetInstance
  0029b	8b c8		 mov	 ecx, eax
  0029d	e8 00 00 00 00	 call	 ?LoadScript@CPetProperty@@QAEHPBD@Z ; CPetProperty::LoadScript

; 211  : #endif	// __PET_0410
; 212  : 
; 213  : #if __VER >= 12 // __TAX
; 214  : 	CTax::GetInstance()->LoadScript();

  002a2	e8 00 00 00 00	 call	 ?GetInstance@CTax@@SAPAV1@XZ ; CTax::GetInstance
  002a7	8b c8		 mov	 ecx, eax
  002a9	e8 00 00 00 00	 call	 ?LoadScript@CTax@@QAEXXZ ; CTax::LoadScript

; 215  : #endif // __TAX
; 216  : 
; 217  : #if __VER >= 13 // __HONORABLE_TITLE
; 218  : 	CTitleManager::Instance()->LoadTitle("honorList.txt");

  002ae	68 00 00 00 00	 push	 OFFSET ??_C@_0O@HJJMHNFH@honorList?4txt@
  002b3	e8 00 00 00 00	 call	 ?Instance@CTitleManager@@SAPAV1@XZ ; CTitleManager::Instance
  002b8	8b c8		 mov	 ecx, eax
  002ba	e8 00 00 00 00	 call	 ?LoadTitle@CTitleManager@@QAEHPBD@Z ; CTitleManager::LoadTitle

; 219  : //CTitleManager::Instance()->AddValue(MI_AIBATT1, HI_HUNT_MONSTER, 1);
; 220  : #endif
; 221  : 
; 222  : #if __VER >= 13 // __COUPLE_1117
; 223  : 	CCoupleHelper::Instance()->Initialize();

  002bf	e8 00 00 00 00	 call	 ?Instance@CCoupleHelper@@SAPAV1@XZ ; CCoupleHelper::Instance
  002c4	8b c8		 mov	 ecx, eax
  002c6	e8 00 00 00 00	 call	 ?Initialize@CCoupleHelper@@QAEHXZ ; CCoupleHelper::Initialize

; 224  : #endif	// __COUPLE_1117
; 225  : 
; 226  : #ifdef __QUIZ
; 227  : 	CQuiz::GetInstance()->LoadScript();

  002cb	e8 00 00 00 00	 call	 ?GetInstance@CQuiz@@SAPAV1@XZ ; CQuiz::GetInstance
  002d0	8b c8		 mov	 ecx, eax
  002d2	e8 00 00 00 00	 call	 ?LoadScript@CQuiz@@QAEXXZ ; CQuiz::LoadScript

; 228  : #endif // __QUIZ
; 229  : #ifdef __GUILD_HOUSE_MIDDLE
; 230  : 	GuildHouseMng->LoadScript();
; 231  : #endif // __GUILD_HOUSE_MIDDLE
; 232  : 
; 233  : 	return TRUE;

  002d7	be 01 00 00 00	 mov	 esi, 1
$LN27@OpenProjec:
  002dc	8d 8d 98 f7 ff
	ff		 lea	 ecx, DWORD PTR _s$[ebp]
  002e2	e8 00 00 00 00	 call	 ??1CScanner@@UAE@XZ	; CScanner::~CScanner
  002e7	8b c6		 mov	 eax, esi

; 234  : }

  002e9	8b 4d f4	 mov	 ecx, DWORD PTR __$EHRec$[ebp]
  002ec	64 89 0d 00 00
	00 00		 mov	 DWORD PTR fs:0, ecx
  002f3	59		 pop	 ecx
  002f4	5f		 pop	 edi
  002f5	5e		 pop	 esi
  002f6	5b		 pop	 ebx
  002f7	8b 4d f0	 mov	 ecx, DWORD PTR __$ArrayPad$[ebp]
  002fa	33 cd		 xor	 ecx, ebp
  002fc	e8 00 00 00 00	 call	 @__security_check_cookie@4
  00301	8b e5		 mov	 esp, ebp
  00303	5d		 pop	 ebp
  00304	c2 04 00	 ret	 4
_TEXT	ENDS
;	COMDAT text$x
text$x	SEGMENT
__unwindfunclet$?OpenProject@CProject@@QAEHPBD@Z$0:
  00000	8d 8d 98 f7 ff
	ff		 lea	 ecx, DWORD PTR _s$[ebp]
  00006	e9 00 00 00 00	 jmp	 ??1CScanner@@UAE@XZ	; CScanner::~CScanner
  0000b	cc		 int	 3
  0000c	cc		 int	 3
  0000d	cc		 int	 3
  0000e	cc		 int	 3
  0000f	cc		 int	 3
__ehhandler$?OpenProject@CProject@@QAEHPBD@Z:
  00010	90		 npad	 1
  00011	90		 npad	 1
  00012	8b 54 24 08	 mov	 edx, DWORD PTR [esp+8]
  00016	8d 42 0c	 lea	 eax, DWORD PTR [edx+12]
  00019	8b 8a 8c f7 ff
	ff		 mov	 ecx, DWORD PTR [edx-2164]
  0001f	33 c8		 xor	 ecx, eax
  00021	e8 00 00 00 00	 call	 @__security_check_cookie@4
  00026	8b 4a fc	 mov	 ecx, DWORD PTR [edx-4]
  00029	33 c8		 xor	 ecx, eax
  0002b	e8 00 00 00 00	 call	 @__security_check_cookie@4
  00030	b8 00 00 00 00	 mov	 eax, OFFSET __ehfuncinfo$?OpenProject@CProject@@QAEHPBD@Z
  00035	e9 00 00 00 00	 jmp	 ___CxxFrameHandler3
text$x	ENDS
?OpenProject@CProject@@QAEHPBD@Z ENDP			; CProject::OpenProject
; Function compile flags: /Ogtp
;	COMDAT ??1?$set@DU?$less@D@std@@V?$allocator@D@2@@std@@QAE@XZ
_TEXT	SEGMENT
??1?$set@DU?$less@D@std@@V?$allocator@D@2@@std@@QAE@XZ PROC ; std::set<char,std::less<char>,std::allocator<char> >::~set<char,std::less<char>,std::allocator<char> >, COMDAT
; _this$ = ecx
  00000	e9 00 00 00 00	 jmp	 ??1?$_Tree@V?$_Tset_traits@DU?$less@D@std@@V?$allocator@D@2@$0A@@std@@@std@@QAE@XZ ; std::_Tree<std::_Tset_traits<char,std::less<char>,std::allocator<char>,0> >::~_Tree<std::_Tset_traits<char,std::less<char>,std::allocator<char>,0> >
??1?$set@DU?$less@D@std@@V?$allocator@D@2@@std@@QAE@XZ ENDP ; std::set<char,std::less<char>,std::allocator<char> >::~set<char,std::less<char>,std::allocator<char> >
_TEXT	ENDS
; Function compile flags: /Ogtp
; File C:\Program Files\Microsoft Visual Studio\2022\Professional\VC\Tools\MSVC\14.44.35207\include\xtree
; File C:\Program Files\Microsoft Visual Studio\2022\Professional\VC\Tools\MSVC\14.44.35207\include\utility
; File C:\Program Files\Microsoft Visual Studio\2022\Professional\VC\Tools\MSVC\14.44.35207\include\xmemory
; File C:\Program Files\Microsoft Visual Studio\2022\Professional\VC\Tools\MSVC\14.44.35207\include\xtree
;	COMDAT ?clear@?$_Tree@V?$_Tset_traits@DU?$less@D@std@@V?$allocator@D@2@$0A@@std@@@std@@QAEXXZ
_TEXT	SEGMENT
?clear@?$_Tree@V?$_Tset_traits@DU?$less@D@std@@V?$allocator@D@2@$0A@@std@@@std@@QAEXXZ PROC ; std::_Tree<std::_Tset_traits<char,std::less<char>,std::allocator<char>,0> >::clear, COMDAT
; _this$ = ecx

; 1370 :     void clear() noexcept {

  00000	53		 push	 ebx
  00001	8b d9		 mov	 ebx, ecx
  00003	56		 push	 esi
  00004	57		 push	 edi

; 1371 :         const auto _Scary = _Get_scary();
; 1372 :         _Scary->_Orphan_ptr(nullptr);
; 1373 :         auto _Head = _Scary->_Myhead;

  00005	8b 3b		 mov	 edi, DWORD PTR [ebx]

; 1374 :         _Scary->_Erase_tree(_Getal(), _Head->_Parent);

  00007	8b 77 04	 mov	 esi, DWORD PTR [edi+4]

; 768  :         while (!_Rootnode->_Isnil) { // free subtrees, then node

  0000a	80 7e 0d 00	 cmp	 BYTE PTR [esi+13], 0
  0000e	75 20		 jne	 SHORT $LN38@clear
$LL5@clear:

; 769  :             _Erase_tree(_Al, _Rootnode->_Right);

  00010	ff 76 08	 push	 DWORD PTR [esi+8]
  00013	8b cb		 mov	 ecx, ebx
  00015	53		 push	 ebx
  00016	e8 00 00 00 00	 call	 ??$_Erase_tree@V?$allocator@U?$_Tree_node@DPAX@std@@@std@@@?$_Tree_val@U?$_Tree_simple_types@D@std@@@std@@QAEXAAV?$allocator@U?$_Tree_node@DPAX@std@@@1@PAU?$_Tree_node@DPAX@1@@Z ; std::_Tree_val<std::_Tree_simple_types<char> >::_Erase_tree<std::allocator<std::_Tree_node<char,void *> > >
; File C:\Program Files\Microsoft Visual Studio\2022\Professional\VC\Tools\MSVC\14.44.35207\include\utility

; 773  :     _Ty _Old_val = static_cast<_Ty&&>(_Val);

  0001b	8b c6		 mov	 eax, esi

; 774  :     _Val         = static_cast<_Other&&>(_New_val);

  0001d	8b 36		 mov	 esi, DWORD PTR [esi]
; File C:\Program Files\Microsoft Visual Studio\2022\Professional\VC\Tools\MSVC\14.44.35207\include\xmemory

; 289  :         ::operator delete(_Ptr, _Bytes);

  0001f	6a 10		 push	 16			; 00000010H
  00021	50		 push	 eax
  00022	e8 00 00 00 00	 call	 ??3@YAXPAXI@Z		; operator delete
  00027	83 c4 08	 add	 esp, 8
; File C:\Program Files\Microsoft Visual Studio\2022\Professional\VC\Tools\MSVC\14.44.35207\include\xtree

; 768  :         while (!_Rootnode->_Isnil) { // free subtrees, then node

  0002a	80 7e 0d 00	 cmp	 BYTE PTR [esi+13], 0
  0002e	74 e0		 je	 SHORT $LL5@clear
$LN38@clear:

; 1375 :         _Head->_Parent  = _Head;

  00030	89 7f 04	 mov	 DWORD PTR [edi+4], edi

; 1376 :         _Head->_Left    = _Head;

  00033	89 3f		 mov	 DWORD PTR [edi], edi

; 1377 :         _Head->_Right   = _Head;

  00035	89 7f 08	 mov	 DWORD PTR [edi+8], edi

; 1378 :         _Scary->_Mysize = 0;

  00038	5f		 pop	 edi
  00039	5e		 pop	 esi
  0003a	c7 43 04 00 00
	00 00		 mov	 DWORD PTR [ebx+4], 0
  00041	5b		 pop	 ebx

; 1379 :     }

  00042	c3		 ret	 0
?clear@?$_Tree@V?$_Tset_traits@DU?$less@D@std@@V?$allocator@D@2@$0A@@std@@@std@@QAEXXZ ENDP ; std::_Tree<std::_Tset_traits<char,std::less<char>,std::allocator<char>,0> >::clear
_TEXT	ENDS
; Function compile flags: /Ogtp
; File C:\Program Files\Microsoft Visual Studio\2022\Professional\VC\Tools\MSVC\14.44.35207\include\xtree
; File C:\Program Files\Microsoft Visual Studio\2022\Professional\VC\Tools\MSVC\14.44.35207\include\utility
; File C:\Program Files\Microsoft Visual Studio\2022\Professional\VC\Tools\MSVC\14.44.35207\include\xmemory
; File C:\Program Files\Microsoft Visual Studio\2022\Professional\VC\Tools\MSVC\14.44.35207\include\xtree
; File C:\Program Files\Microsoft Visual Studio\2022\Professional\VC\Tools\MSVC\14.44.35207\include\xmemory
; File C:\Program Files\Microsoft Visual Studio\2022\Professional\VC\Tools\MSVC\14.44.35207\include\xtree
;	COMDAT ??1?$_Tree@V?$_Tset_traits@DU?$less@D@std@@V?$allocator@D@2@$0A@@std@@@std@@QAE@XZ
_TEXT	SEGMENT
??1?$_Tree@V?$_Tset_traits@DU?$less@D@std@@V?$allocator@D@2@$0A@@std@@@std@@QAE@XZ PROC ; std::_Tree<std::_Tset_traits<char,std::less<char>,std::allocator<char>,0> >::~_Tree<std::_Tset_traits<char,std::less<char>,std::allocator<char>,0> >, COMDAT
; _this$ = ecx

; 1095 :     ~_Tree() noexcept {

  00000	56		 push	 esi
  00001	57		 push	 edi
  00002	8b f9		 mov	 edi, ecx

; 777  :         _Erase_tree(_Al, _Myhead->_Parent);

  00004	8b 37		 mov	 esi, DWORD PTR [edi]
  00006	8b 76 04	 mov	 esi, DWORD PTR [esi+4]

; 768  :         while (!_Rootnode->_Isnil) { // free subtrees, then node

  00009	80 7e 0d 00	 cmp	 BYTE PTR [esi+13], 0
  0000d	75 21		 jne	 SHORT $LN61@Tree
  0000f	90		 npad	 1
$LL8@Tree:

; 769  :             _Erase_tree(_Al, _Rootnode->_Right);

  00010	ff 76 08	 push	 DWORD PTR [esi+8]
  00013	8b cf		 mov	 ecx, edi
  00015	57		 push	 edi
  00016	e8 00 00 00 00	 call	 ??$_Erase_tree@V?$allocator@U?$_Tree_node@DPAX@std@@@std@@@?$_Tree_val@U?$_Tree_simple_types@D@std@@@std@@QAEXAAV?$allocator@U?$_Tree_node@DPAX@std@@@1@PAU?$_Tree_node@DPAX@1@@Z ; std::_Tree_val<std::_Tree_simple_types<char> >::_Erase_tree<std::allocator<std::_Tree_node<char,void *> > >
; File C:\Program Files\Microsoft Visual Studio\2022\Professional\VC\Tools\MSVC\14.44.35207\include\utility

; 773  :     _Ty _Old_val = static_cast<_Ty&&>(_Val);

  0001b	8b c6		 mov	 eax, esi

; 774  :     _Val         = static_cast<_Other&&>(_New_val);

  0001d	8b 36		 mov	 esi, DWORD PTR [esi]
; File C:\Program Files\Microsoft Visual Studio\2022\Professional\VC\Tools\MSVC\14.44.35207\include\xmemory

; 289  :         ::operator delete(_Ptr, _Bytes);

  0001f	6a 10		 push	 16			; 00000010H
  00021	50		 push	 eax
  00022	e8 00 00 00 00	 call	 ??3@YAXPAXI@Z		; operator delete
  00027	83 c4 08	 add	 esp, 8
; File C:\Program Files\Microsoft Visual Studio\2022\Professional\VC\Tools\MSVC\14.44.35207\include\xtree

; 768  :         while (!_Rootnode->_Isnil) { // free subtrees, then node

  0002a	80 7e 0d 00	 cmp	 BYTE PTR [esi+13], 0
  0002e	74 e0		 je	 SHORT $LL8@Tree
$LN61@Tree:
; File C:\Program Files\Microsoft Visual Studio\2022\Professional\VC\Tools\MSVC\14.44.35207\include\xmemory

; 289  :         ::operator delete(_Ptr, _Bytes);

  00030	6a 10		 push	 16			; 00000010H
  00032	ff 37		 push	 DWORD PTR [edi]
  00034	e8 00 00 00 00	 call	 ??3@YAXPAXI@Z		; operator delete
  00039	83 c4 08	 add	 esp, 8
  0003c	5f		 pop	 edi
  0003d	5e		 pop	 esi
; File C:\Program Files\Microsoft Visual Studio\2022\Professional\VC\Tools\MSVC\14.44.35207\include\xtree

; 1102 :     }

  0003e	c3		 ret	 0
??1?$_Tree@V?$_Tset_traits@DU?$less@D@std@@V?$allocator@D@2@$0A@@std@@@std@@QAE@XZ ENDP ; std::_Tree<std::_Tset_traits<char,std::less<char>,std::allocator<char>,0> >::~_Tree<std::_Tset_traits<char,std::less<char>,std::allocator<char>,0> >
_TEXT	ENDS
; Function compile flags: /Ogtp
; File C:\Program Files\Microsoft Visual Studio\2022\Professional\VC\Tools\MSVC\14.44.35207\include\xtree
; File C:\Program Files\Microsoft Visual Studio\2022\Professional\VC\Tools\MSVC\14.44.35207\include\xmemory
;	COMDAT ??1?$set@V?$basic_string@DU?$char_traits@D@std@@V?$allocator@D@2@@std@@U?$less@V?$basic_string@DU?$char_traits@D@std@@V?$allocator@D@2@@std@@@2@V?$allocator@V?$basic_string@DU?$char_traits@D@std@@V?$allocator@D@2@@std@@@2@@std@@QAE@XZ
_TEXT	SEGMENT
??1?$set@V?$basic_string@DU?$char_traits@D@std@@V?$allocator@D@2@@std@@U?$less@V?$basic_string@DU?$char_traits@D@std@@V?$allocator@D@2@@std@@@2@V?$allocator@V?$basic_string@DU?$char_traits@D@std@@V?$allocator@D@2@@std@@@2@@std@@QAE@XZ PROC ; std::set<std::basic_string<char,std::char_traits<char>,std::allocator<char> >,std::less<std::basic_string<char,std::char_traits<char>,std::allocator<char> > >,std::allocator<std::basic_string<char,std::char_traits<char>,std::allocator<char> > > >::~set<std::basic_string<char,std::char_traits<char>,std::allocator<char> >,std::less<std::basic_string<char,std::char_traits<char>,std::allocator<char> > >,std::allocator<std::basic_string<char,std::char_traits<char>,std::allocator<char> > > >, COMDAT
; _this$ = ecx
; File C:\Program Files\Microsoft Visual Studio\2022\Professional\VC\Tools\MSVC\14.44.35207\include\xtree

; 777  :         _Erase_tree(_Al, _Myhead->_Parent);

  00000	56		 push	 esi
  00001	8b f1		 mov	 esi, ecx
  00003	8b 06		 mov	 eax, DWORD PTR [esi]
  00005	ff 70 04	 push	 DWORD PTR [eax+4]
  00008	56		 push	 esi
  00009	e8 00 00 00 00	 call	 ??$_Erase_tree@V?$allocator@U?$_Tree_node@V?$basic_string@DU?$char_traits@D@std@@V?$allocator@D@2@@std@@PAX@std@@@std@@@?$_Tree_val@U?$_Tree_simple_types@V?$basic_string@DU?$char_traits@D@std@@V?$allocator@D@2@@std@@@std@@@std@@QAEXAAV?$allocator@U?$_Tree_node@V?$basic_string@DU?$char_traits@D@std@@V?$allocator@D@2@@std@@PAX@std@@@1@PAU?$_Tree_node@V?$basic_string@DU?$char_traits@D@std@@V?$allocator@D@2@@std@@PAX@1@@Z ; std::_Tree_val<std::_Tree_simple_types<std::basic_string<char,std::char_traits<char>,std::allocator<char> > > >::_Erase_tree<std::allocator<std::_Tree_node<std::basic_string<char,std::char_traits<char>,std::allocator<char> >,void *> > >
; File C:\Program Files\Microsoft Visual Studio\2022\Professional\VC\Tools\MSVC\14.44.35207\include\xmemory

; 289  :         ::operator delete(_Ptr, _Bytes);

  0000e	6a 28		 push	 40			; 00000028H
  00010	ff 36		 push	 DWORD PTR [esi]
  00012	e8 00 00 00 00	 call	 ??3@YAXPAXI@Z		; operator delete
  00017	83 c4 08	 add	 esp, 8
  0001a	5e		 pop	 esi
  0001b	c3		 ret	 0
??1?$set@V?$basic_string@DU?$char_traits@D@std@@V?$allocator@D@2@@std@@U?$less@V?$basic_string@DU?$char_traits@D@std@@V?$allocator@D@2@@std@@@2@V?$allocator@V?$basic_string@DU?$char_traits@D@std@@V?$allocator@D@2@@std@@@2@@std@@QAE@XZ ENDP ; std::set<std::basic_string<char,std::char_traits<char>,std::allocator<char> >,std::less<std::basic_string<char,std::char_traits<char>,std::allocator<char> > >,std::allocator<std::basic_string<char,std::char_traits<char>,std::allocator<char> > > >::~set<std::basic_string<char,std::char_traits<char>,std::allocator<char> >,std::less<std::basic_string<char,std::char_traits<char>,std::allocator<char> > >,std::allocator<std::basic_string<char,std::char_traits<char>,std::allocator<char> > > >
_TEXT	ENDS
; Function compile flags: /Ogtp
; File C:\Program Files\Microsoft Visual Studio\2022\Professional\VC\Tools\MSVC\14.44.35207\include\xtree
; File C:\Program Files\Microsoft Visual Studio\2022\Professional\VC\Tools\MSVC\14.44.35207\include\xmemory
;	COMDAT ??1?$map@V?$basic_string@DU?$char_traits@D@std@@V?$allocator@D@2@@std@@PAXU?$less@V?$basic_string@DU?$char_traits@D@std@@V?$allocator@D@2@@std@@@2@V?$allocator@U?$pair@$$CBV?$basic_string@DU?$char_traits@D@std@@V?$allocator@D@2@@std@@PAX@std@@@2@@std@@QAE@XZ
_TEXT	SEGMENT
??1?$map@V?$basic_string@DU?$char_traits@D@std@@V?$allocator@D@2@@std@@PAXU?$less@V?$basic_string@DU?$char_traits@D@std@@V?$allocator@D@2@@std@@@2@V?$allocator@U?$pair@$$CBV?$basic_string@DU?$char_traits@D@std@@V?$allocator@D@2@@std@@PAX@std@@@2@@std@@QAE@XZ PROC ; std::map<std::basic_string<char,std::char_traits<char>,std::allocator<char> >,void *,std::less<std::basic_string<char,std::char_traits<char>,std::allocator<char> > >,std::allocator<std::pair<std::basic_string<char,std::char_traits<char>,std::allocator<char> > const ,void *> > >::~map<std::basic_string<char,std::char_traits<char>,std::allocator<char> >,void *,std::less<std::basic_string<char,std::char_traits<char>,std::allocator<char> > >,std::allocator<std::pair<std::basic_string<char,std::char_traits<char>,std::allocator<char> > const ,void *> > >, COMDAT
; _this$ = ecx
; File C:\Program Files\Microsoft Visual Studio\2022\Professional\VC\Tools\MSVC\14.44.35207\include\xtree

; 777  :         _Erase_tree(_Al, _Myhead->_Parent);

  00000	56		 push	 esi
  00001	8b f1		 mov	 esi, ecx
  00003	8b 06		 mov	 eax, DWORD PTR [esi]
  00005	ff 70 04	 push	 DWORD PTR [eax+4]
  00008	56		 push	 esi
  00009	e8 00 00 00 00	 call	 ??$_Erase_tree@V?$allocator@U?$_Tree_node@U?$pair@$$CBV?$basic_string@DU?$char_traits@D@std@@V?$allocator@D@2@@std@@PAX@std@@PAX@std@@@std@@@?$_Tree_val@U?$_Tree_simple_types@U?$pair@$$CBV?$basic_string@DU?$char_traits@D@std@@V?$allocator@D@2@@std@@PAX@std@@@std@@@std@@QAEXAAV?$allocator@U?$_Tree_node@U?$pair@$$CBV?$basic_string@DU?$char_traits@D@std@@V?$allocator@D@2@@std@@PAX@std@@PAX@std@@@1@PAU?$_Tree_node@U?$pair@$$CBV?$basic_string@DU?$char_traits@D@std@@V?$allocator@D@2@@std@@PAX@std@@PAX@1@@Z ; std::_Tree_val<std::_Tree_simple_types<std::pair<std::basic_string<char,std::char_traits<char>,std::allocator<char> > const ,void *> > >::_Erase_tree<std::allocator<std::_Tree_node<std::pair<std::basic_string<char,std::char_traits<char>,std::allocator<char> > const ,void *>,void *> > >
; File C:\Program Files\Microsoft Visual Studio\2022\Professional\VC\Tools\MSVC\14.44.35207\include\xmemory

; 289  :         ::operator delete(_Ptr, _Bytes);

  0000e	6a 2c		 push	 44			; 0000002cH
  00010	ff 36		 push	 DWORD PTR [esi]
  00012	e8 00 00 00 00	 call	 ??3@YAXPAXI@Z		; operator delete
  00017	83 c4 08	 add	 esp, 8
  0001a	5e		 pop	 esi
  0001b	c3		 ret	 0
??1?$map@V?$basic_string@DU?$char_traits@D@std@@V?$allocator@D@2@@std@@PAXU?$less@V?$basic_string@DU?$char_traits@D@std@@V?$allocator@D@2@@std@@@2@V?$allocator@U?$pair@$$CBV?$basic_string@DU?$char_traits@D@std@@V?$allocator@D@2@@std@@PAX@std@@@2@@std@@QAE@XZ ENDP ; std::map<std::basic_string<char,std::char_traits<char>,std::allocator<char> >,void *,std::less<std::basic_string<char,std::char_traits<char>,std::allocator<char> > >,std::allocator<std::pair<std::basic_string<char,std::char_traits<char>,std::allocator<char> > const ,void *> > >::~map<std::basic_string<char,std::char_traits<char>,std::allocator<char> >,void *,std::less<std::basic_string<char,std::char_traits<char>,std::allocator<char> > >,std::allocator<std::pair<std::basic_string<char,std::char_traits<char>,std::allocator<char> > const ,void *> > >
_TEXT	ENDS
; Function compile flags: /Ogtp
; File C:\Program Files\Microsoft Visual Studio\2022\Professional\VC\Tools\MSVC\14.44.35207\include\xtree
;	COMDAT ?_Insert_node@?$_Tree_val@U?$_Tree_simple_types@U?$pair@$$CBV?$basic_string@DU?$char_traits@D@std@@V?$allocator@D@2@@std@@PAX@std@@@std@@@std@@QAEPAU?$_Tree_node@U?$pair@$$CBV?$basic_string@DU?$char_traits@D@std@@V?$allocator@D@2@@std@@PAX@std@@PAX@2@U?$_Tree_id@PAU?$_Tree_node@U?$pair@$$CBV?$basic_string@DU?$char_traits@D@std@@V?$allocator@D@2@@std@@PAX@std@@PAX@std@@@2@QAU32@@Z
_TEXT	SEGMENT
__Head$1$ = -4						; size = 4
__Loc$ = 8						; size = 8
__Newnode$ = 16						; size = 4
?_Insert_node@?$_Tree_val@U?$_Tree_simple_types@U?$pair@$$CBV?$basic_string@DU?$char_traits@D@std@@V?$allocator@D@2@@std@@PAX@std@@@std@@@std@@QAEPAU?$_Tree_node@U?$pair@$$CBV?$basic_string@DU?$char_traits@D@std@@V?$allocator@D@2@@std@@PAX@std@@PAX@2@U?$_Tree_id@PAU?$_Tree_node@U?$pair@$$CBV?$basic_string@DU?$char_traits@D@std@@V?$allocator@D@2@@std@@PAX@std@@PAX@std@@@2@QAU32@@Z PROC ; std::_Tree_val<std::_Tree_simple_types<std::pair<std::basic_string<char,std::char_traits<char>,std::allocator<char> > const ,void *> > >::_Insert_node, COMDAT
; _this$ = ecx

; 669  :     _Nodeptr _Insert_node(const _Tree_id<_Nodeptr> _Loc, const _Nodeptr _Newnode) noexcept {

  00000	55		 push	 ebp
  00001	8b ec		 mov	 ebp, esp
  00003	51		 push	 ecx

; 670  :         ++_Mysize;
; 671  :         const auto _Head  = _Myhead;
; 672  :         _Newnode->_Parent = _Loc._Parent;

  00004	8b 55 08	 mov	 edx, DWORD PTR __Loc$[ebp]
  00007	53		 push	 ebx
  00008	8b d9		 mov	 ebx, ecx
  0000a	57		 push	 edi
  0000b	8b 7d 10	 mov	 edi, DWORD PTR __Newnode$[ebp]
  0000e	8b 03		 mov	 eax, DWORD PTR [ebx]
  00010	ff 43 04	 inc	 DWORD PTR [ebx+4]
  00013	89 45 fc	 mov	 DWORD PTR __Head$1$[ebp], eax
  00016	89 57 04	 mov	 DWORD PTR [edi+4], edx

; 673  :         if (_Loc._Parent == _Head) { // first node in tree, just set head values

  00019	3b d0		 cmp	 edx, eax
  0001b	75 16		 jne	 SHORT $LN5@Insert_nod

; 674  :             _Head->_Left     = _Newnode;

  0001d	89 38		 mov	 DWORD PTR [eax], edi

; 675  :             _Head->_Parent   = _Newnode;

  0001f	89 78 04	 mov	 DWORD PTR [eax+4], edi

; 676  :             _Head->_Right    = _Newnode;

  00022	89 78 08	 mov	 DWORD PTR [eax+8], edi

; 735  :         return _Newnode;
; 736  :     }

  00025	8b c7		 mov	 eax, edi
  00027	c6 47 0c 01	 mov	 BYTE PTR [edi+12], 1
  0002b	5f		 pop	 edi
  0002c	5b		 pop	 ebx
  0002d	8b e5		 mov	 esp, ebp
  0002f	5d		 pop	 ebp
  00030	c2 0c 00	 ret	 12			; 0000000cH
$LN5@Insert_nod:

; 677  :             _Newnode->_Color = _Black; // the root is black
; 678  :             return _Newnode;
; 679  :         }
; 680  : 
; 681  :         _STL_INTERNAL_CHECK(_Loc._Child != _Tree_child::_Unused);
; 682  :         if (_Loc._Child == _Tree_child::_Right) { // add to right of _Loc._Parent

  00033	83 7d 0c 00	 cmp	 DWORD PTR __Loc$[ebp+4], 0
  00037	75 0d		 jne	 SHORT $LN6@Insert_nod

; 683  :             _STL_INTERNAL_CHECK(_Loc._Parent->_Right->_Isnil);
; 684  :             _Loc._Parent->_Right = _Newnode;

  00039	89 7a 08	 mov	 DWORD PTR [edx+8], edi

; 685  :             if (_Loc._Parent == _Head->_Right) { // remember rightmost node

  0003c	3b 50 08	 cmp	 edx, DWORD PTR [eax+8]
  0003f	75 0d		 jne	 SHORT $LN9@Insert_nod

; 686  :                 _Head->_Right = _Newnode;

  00041	89 78 08	 mov	 DWORD PTR [eax+8], edi

; 687  :             }
; 688  :         } else { // add to left of _Loc._Parent

  00044	eb 08		 jmp	 SHORT $LN9@Insert_nod
$LN6@Insert_nod:

; 689  :             _STL_INTERNAL_CHECK(_Loc._Parent->_Left->_Isnil);
; 690  :             _Loc._Parent->_Left = _Newnode;

  00046	89 3a		 mov	 DWORD PTR [edx], edi

; 691  :             if (_Loc._Parent == _Head->_Left) { // remember leftmost node

  00048	3b 10		 cmp	 edx, DWORD PTR [eax]
  0004a	75 02		 jne	 SHORT $LN9@Insert_nod

; 692  :                 _Head->_Left = _Newnode;

  0004c	89 38		 mov	 DWORD PTR [eax], edi
$LN9@Insert_nod:

; 693  :             }
; 694  :         }
; 695  : 
; 696  :         for (_Nodeptr _Pnode = _Newnode; _Pnode->_Parent->_Color == _Red;) {

  0004e	8b 4f 04	 mov	 ecx, DWORD PTR [edi+4]
  00051	8b c7		 mov	 eax, edi
  00053	80 79 0c 00	 cmp	 BYTE PTR [ecx+12], 0
  00057	0f 85 7d 01 00
	00		 jne	 $LN3@Insert_nod
  0005d	56		 push	 esi
  0005e	66 90		 npad	 2
$LL4@Insert_nod:

; 697  :             if (_Pnode->_Parent == _Pnode->_Parent->_Parent->_Left) { // fixup red-red in left subtree

  00060	8b 50 04	 mov	 edx, DWORD PTR [eax+4]
  00063	8b 72 04	 mov	 esi, DWORD PTR [edx+4]
  00066	8b 0e		 mov	 ecx, DWORD PTR [esi]
  00068	3b d1		 cmp	 edx, ecx
  0006a	0f 85 aa 00 00
	00		 jne	 $LN10@Insert_nod

; 698  :                 const auto _Parent_sibling = _Pnode->_Parent->_Parent->_Right;

  00070	8b 4e 08	 mov	 ecx, DWORD PTR [esi+8]

; 699  :                 if (_Parent_sibling->_Color == _Red) { // parent's sibling has two red children, blacken both

  00073	80 79 0c 00	 cmp	 BYTE PTR [ecx+12], 0
  00077	0f 84 a3 00 00
	00		 je	 $LN82@Insert_nod

; 700  :                     _Pnode->_Parent->_Color          = _Black;
; 701  :                     _Parent_sibling->_Color          = _Black;
; 702  :                     _Pnode->_Parent->_Parent->_Color = _Red;
; 703  :                     _Pnode                           = _Pnode->_Parent->_Parent;
; 704  :                 } else { // parent's sibling has red and black children
; 705  :                     if (_Pnode == _Pnode->_Parent->_Right) { // rotate right child to left

  0007d	8b 72 08	 mov	 esi, DWORD PTR [edx+8]
  00080	3b c6		 cmp	 eax, esi
  00082	75 37		 jne	 SHORT $LN57@Insert_nod

; 485  :         _Wherenode->_Right = _Pnode->_Left;

  00084	8b 0e		 mov	 ecx, DWORD PTR [esi]

; 706  :                         _Pnode = _Pnode->_Parent;

  00086	8b c2		 mov	 eax, edx

; 485  :         _Wherenode->_Right = _Pnode->_Left;

  00088	89 4a 08	 mov	 DWORD PTR [edx+8], ecx

; 486  : 
; 487  :         if (!_Pnode->_Left->_Isnil) {

  0008b	8b 0e		 mov	 ecx, DWORD PTR [esi]
  0008d	80 79 0d 00	 cmp	 BYTE PTR [ecx+13], 0
  00091	75 03		 jne	 SHORT $LN21@Insert_nod

; 488  :             _Pnode->_Left->_Parent = _Wherenode;

  00093	89 41 04	 mov	 DWORD PTR [ecx+4], eax
$LN21@Insert_nod:

; 489  :         }
; 490  : 
; 491  :         _Pnode->_Parent = _Wherenode->_Parent;

  00096	8b 4a 04	 mov	 ecx, DWORD PTR [edx+4]
  00099	89 4e 04	 mov	 DWORD PTR [esi+4], ecx

; 492  : 
; 493  :         if (_Wherenode == _Myhead->_Parent) {

  0009c	8b 0b		 mov	 ecx, DWORD PTR [ebx]
  0009e	3b 41 04	 cmp	 eax, DWORD PTR [ecx+4]
  000a1	75 05		 jne	 SHORT $LN22@Insert_nod

; 494  :             _Myhead->_Parent = _Pnode;

  000a3	89 71 04	 mov	 DWORD PTR [ecx+4], esi
  000a6	eb 0e		 jmp	 SHORT $LN25@Insert_nod
$LN22@Insert_nod:

; 495  :         } else if (_Wherenode == _Wherenode->_Parent->_Left) {

  000a8	8b 4a 04	 mov	 ecx, DWORD PTR [edx+4]
  000ab	3b 01		 cmp	 eax, DWORD PTR [ecx]
  000ad	75 04		 jne	 SHORT $LN24@Insert_nod

; 496  :             _Wherenode->_Parent->_Left = _Pnode;

  000af	89 31		 mov	 DWORD PTR [ecx], esi

; 497  :         } else {

  000b1	eb 03		 jmp	 SHORT $LN25@Insert_nod
$LN24@Insert_nod:

; 498  :             _Wherenode->_Parent->_Right = _Pnode;

  000b3	89 71 08	 mov	 DWORD PTR [ecx+8], esi
$LN25@Insert_nod:

; 499  :         }
; 500  : 
; 501  :         _Pnode->_Left       = _Wherenode;

  000b6	89 06		 mov	 DWORD PTR [esi], eax

; 502  :         _Wherenode->_Parent = _Pnode;

  000b8	89 70 04	 mov	 DWORD PTR [eax+4], esi
$LN57@Insert_nod:

; 707  :                         _Lrotate(_Pnode);
; 708  :                     }
; 709  : 
; 710  :                     _Pnode->_Parent->_Color          = _Black; // propagate red up

  000bb	8b 48 04	 mov	 ecx, DWORD PTR [eax+4]
  000be	c6 41 0c 01	 mov	 BYTE PTR [ecx+12], 1

; 711  :                     _Pnode->_Parent->_Parent->_Color = _Red;

  000c2	8b 48 04	 mov	 ecx, DWORD PTR [eax+4]
  000c5	8b 49 04	 mov	 ecx, DWORD PTR [ecx+4]
  000c8	c6 41 0c 00	 mov	 BYTE PTR [ecx+12], 0

; 712  :                     _Rrotate(_Pnode->_Parent->_Parent);

  000cc	8b 48 04	 mov	 ecx, DWORD PTR [eax+4]
  000cf	8b 51 04	 mov	 edx, DWORD PTR [ecx+4]

; 506  :         _Nodeptr _Pnode   = _Wherenode->_Left;

  000d2	8b 32		 mov	 esi, DWORD PTR [edx]

; 507  :         _Wherenode->_Left = _Pnode->_Right;

  000d4	8b 4e 08	 mov	 ecx, DWORD PTR [esi+8]
  000d7	89 0a		 mov	 DWORD PTR [edx], ecx

; 508  : 
; 509  :         if (!_Pnode->_Right->_Isnil) {

  000d9	8b 4e 08	 mov	 ecx, DWORD PTR [esi+8]
  000dc	80 79 0d 00	 cmp	 BYTE PTR [ecx+13], 0
  000e0	75 03		 jne	 SHORT $LN29@Insert_nod

; 510  :             _Pnode->_Right->_Parent = _Wherenode;

  000e2	89 51 04	 mov	 DWORD PTR [ecx+4], edx
$LN29@Insert_nod:

; 511  :         }
; 512  : 
; 513  :         _Pnode->_Parent = _Wherenode->_Parent;

  000e5	8b 4a 04	 mov	 ecx, DWORD PTR [edx+4]
  000e8	89 4e 04	 mov	 DWORD PTR [esi+4], ecx

; 514  : 
; 515  :         if (_Wherenode == _Myhead->_Parent) {

  000eb	8b 0b		 mov	 ecx, DWORD PTR [ebx]
  000ed	3b 51 04	 cmp	 edx, DWORD PTR [ecx+4]
  000f0	75 0b		 jne	 SHORT $LN30@Insert_nod

; 516  :             _Myhead->_Parent = _Pnode;

  000f2	89 71 04	 mov	 DWORD PTR [ecx+4], esi

; 521  :         }
; 522  : 
; 523  :         _Pnode->_Right      = _Wherenode;

  000f5	89 56 08	 mov	 DWORD PTR [esi+8], edx

; 713  :                 }
; 714  :             } else { // fixup red-red in right subtree

  000f8	e9 cc 00 00 00	 jmp	 $LN81@Insert_nod
$LN30@Insert_nod:

; 517  :         } else if (_Wherenode == _Wherenode->_Parent->_Right) {

  000fd	8b 4a 04	 mov	 ecx, DWORD PTR [edx+4]
  00100	3b 51 08	 cmp	 edx, DWORD PTR [ecx+8]
  00103	75 0b		 jne	 SHORT $LN32@Insert_nod

; 518  :             _Wherenode->_Parent->_Right = _Pnode;

  00105	89 71 08	 mov	 DWORD PTR [ecx+8], esi

; 521  :         }
; 522  : 
; 523  :         _Pnode->_Right      = _Wherenode;

  00108	89 56 08	 mov	 DWORD PTR [esi+8], edx

; 713  :                 }
; 714  :             } else { // fixup red-red in right subtree

  0010b	e9 b9 00 00 00	 jmp	 $LN81@Insert_nod
$LN32@Insert_nod:

; 520  :             _Wherenode->_Parent->_Left = _Pnode;

  00110	89 31		 mov	 DWORD PTR [ecx], esi

; 521  :         }
; 522  : 
; 523  :         _Pnode->_Right      = _Wherenode;

  00112	89 56 08	 mov	 DWORD PTR [esi+8], edx

; 713  :                 }
; 714  :             } else { // fixup red-red in right subtree

  00115	e9 af 00 00 00	 jmp	 $LN81@Insert_nod
$LN10@Insert_nod:

; 715  :                 const auto _Parent_sibling = _Pnode->_Parent->_Parent->_Left;
; 716  :                 if (_Parent_sibling->_Color == _Red) { // parent's sibling has two red children, blacken both

  0011a	80 79 0c 00	 cmp	 BYTE PTR [ecx+12], 0
  0011e	75 1d		 jne	 SHORT $LN15@Insert_nod
$LN82@Insert_nod:

; 693  :             }
; 694  :         }
; 695  : 
; 696  :         for (_Nodeptr _Pnode = _Newnode; _Pnode->_Parent->_Color == _Red;) {

  00120	c6 42 0c 01	 mov	 BYTE PTR [edx+12], 1
  00124	c6 41 0c 01	 mov	 BYTE PTR [ecx+12], 1
  00128	8b 48 04	 mov	 ecx, DWORD PTR [eax+4]
  0012b	8b 49 04	 mov	 ecx, DWORD PTR [ecx+4]
  0012e	c6 41 0c 00	 mov	 BYTE PTR [ecx+12], 0
  00132	8b 48 04	 mov	 ecx, DWORD PTR [eax+4]
  00135	8b 41 04	 mov	 eax, DWORD PTR [ecx+4]
  00138	e9 8f 00 00 00	 jmp	 $LN2@Insert_nod
$LN15@Insert_nod:

; 717  :                     _Pnode->_Parent->_Color          = _Black;
; 718  :                     _Parent_sibling->_Color          = _Black;
; 719  :                     _Pnode->_Parent->_Parent->_Color = _Red;
; 720  :                     _Pnode                           = _Pnode->_Parent->_Parent;
; 721  :                 } else { // parent's sibling has red and black children
; 722  :                     if (_Pnode == _Pnode->_Parent->_Left) { // rotate left child to right

  0013d	8b 32		 mov	 esi, DWORD PTR [edx]
  0013f	3b c6		 cmp	 eax, esi
  00141	75 3a		 jne	 SHORT $LN42@Insert_nod

; 507  :         _Wherenode->_Left = _Pnode->_Right;

  00143	8b 4e 08	 mov	 ecx, DWORD PTR [esi+8]

; 723  :                         _Pnode = _Pnode->_Parent;

  00146	8b c2		 mov	 eax, edx

; 507  :         _Wherenode->_Left = _Pnode->_Right;

  00148	89 08		 mov	 DWORD PTR [eax], ecx

; 508  : 
; 509  :         if (!_Pnode->_Right->_Isnil) {

  0014a	8b 4e 08	 mov	 ecx, DWORD PTR [esi+8]
  0014d	80 79 0d 00	 cmp	 BYTE PTR [ecx+13], 0
  00151	75 03		 jne	 SHORT $LN37@Insert_nod

; 510  :             _Pnode->_Right->_Parent = _Wherenode;

  00153	89 41 04	 mov	 DWORD PTR [ecx+4], eax
$LN37@Insert_nod:

; 511  :         }
; 512  : 
; 513  :         _Pnode->_Parent = _Wherenode->_Parent;

  00156	8b 4a 04	 mov	 ecx, DWORD PTR [edx+4]
  00159	89 4e 04	 mov	 DWORD PTR [esi+4], ecx

; 514  : 
; 515  :         if (_Wherenode == _Myhead->_Parent) {

  0015c	8b 0b		 mov	 ecx, DWORD PTR [ebx]
  0015e	3b 41 04	 cmp	 eax, DWORD PTR [ecx+4]
  00161	75 05		 jne	 SHORT $LN38@Insert_nod

; 516  :             _Myhead->_Parent = _Pnode;

  00163	89 71 04	 mov	 DWORD PTR [ecx+4], esi
  00166	eb 0f		 jmp	 SHORT $LN41@Insert_nod
$LN38@Insert_nod:

; 517  :         } else if (_Wherenode == _Wherenode->_Parent->_Right) {

  00168	8b 4a 04	 mov	 ecx, DWORD PTR [edx+4]
  0016b	3b 41 08	 cmp	 eax, DWORD PTR [ecx+8]
  0016e	75 05		 jne	 SHORT $LN40@Insert_nod

; 518  :             _Wherenode->_Parent->_Right = _Pnode;

  00170	89 71 08	 mov	 DWORD PTR [ecx+8], esi

; 519  :         } else {

  00173	eb 02		 jmp	 SHORT $LN41@Insert_nod
$LN40@Insert_nod:

; 520  :             _Wherenode->_Parent->_Left = _Pnode;

  00175	89 31		 mov	 DWORD PTR [ecx], esi
$LN41@Insert_nod:

; 521  :         }
; 522  : 
; 523  :         _Pnode->_Right      = _Wherenode;

  00177	89 46 08	 mov	 DWORD PTR [esi+8], eax

; 524  :         _Wherenode->_Parent = _Pnode;

  0017a	89 70 04	 mov	 DWORD PTR [eax+4], esi
$LN42@Insert_nod:

; 724  :                         _Rrotate(_Pnode);
; 725  :                     }
; 726  : 
; 727  :                     _Pnode->_Parent->_Color          = _Black; // propagate red up

  0017d	8b 48 04	 mov	 ecx, DWORD PTR [eax+4]
  00180	c6 41 0c 01	 mov	 BYTE PTR [ecx+12], 1

; 728  :                     _Pnode->_Parent->_Parent->_Color = _Red;

  00184	8b 48 04	 mov	 ecx, DWORD PTR [eax+4]
  00187	8b 49 04	 mov	 ecx, DWORD PTR [ecx+4]
  0018a	c6 41 0c 00	 mov	 BYTE PTR [ecx+12], 0

; 729  :                     _Lrotate(_Pnode->_Parent->_Parent);

  0018e	8b 48 04	 mov	 ecx, DWORD PTR [eax+4]
  00191	8b 51 04	 mov	 edx, DWORD PTR [ecx+4]

; 484  :         _Nodeptr _Pnode    = _Wherenode->_Right;

  00194	8b 72 08	 mov	 esi, DWORD PTR [edx+8]

; 485  :         _Wherenode->_Right = _Pnode->_Left;

  00197	8b 0e		 mov	 ecx, DWORD PTR [esi]
  00199	89 4a 08	 mov	 DWORD PTR [edx+8], ecx

; 486  : 
; 487  :         if (!_Pnode->_Left->_Isnil) {

  0019c	8b 0e		 mov	 ecx, DWORD PTR [esi]
  0019e	80 79 0d 00	 cmp	 BYTE PTR [ecx+13], 0
  001a2	75 03		 jne	 SHORT $LN45@Insert_nod

; 488  :             _Pnode->_Left->_Parent = _Wherenode;

  001a4	89 51 04	 mov	 DWORD PTR [ecx+4], edx
$LN45@Insert_nod:

; 489  :         }
; 490  : 
; 491  :         _Pnode->_Parent = _Wherenode->_Parent;

  001a7	8b 4a 04	 mov	 ecx, DWORD PTR [edx+4]
  001aa	89 4e 04	 mov	 DWORD PTR [esi+4], ecx

; 492  : 
; 493  :         if (_Wherenode == _Myhead->_Parent) {

  001ad	8b 0b		 mov	 ecx, DWORD PTR [ebx]
  001af	3b 51 04	 cmp	 edx, DWORD PTR [ecx+4]
  001b2	75 05		 jne	 SHORT $LN46@Insert_nod

; 494  :             _Myhead->_Parent = _Pnode;

  001b4	89 71 04	 mov	 DWORD PTR [ecx+4], esi
  001b7	eb 0e		 jmp	 SHORT $LN49@Insert_nod
$LN46@Insert_nod:

; 495  :         } else if (_Wherenode == _Wherenode->_Parent->_Left) {

  001b9	8b 4a 04	 mov	 ecx, DWORD PTR [edx+4]
  001bc	3b 11		 cmp	 edx, DWORD PTR [ecx]
  001be	75 04		 jne	 SHORT $LN48@Insert_nod

; 496  :             _Wherenode->_Parent->_Left = _Pnode;

  001c0	89 31		 mov	 DWORD PTR [ecx], esi

; 497  :         } else {

  001c2	eb 03		 jmp	 SHORT $LN49@Insert_nod
$LN48@Insert_nod:

; 498  :             _Wherenode->_Parent->_Right = _Pnode;

  001c4	89 71 08	 mov	 DWORD PTR [ecx+8], esi
$LN49@Insert_nod:

; 499  :         }
; 500  : 
; 501  :         _Pnode->_Left       = _Wherenode;

  001c7	89 16		 mov	 DWORD PTR [esi], edx
$LN81@Insert_nod:

; 693  :             }
; 694  :         }
; 695  : 
; 696  :         for (_Nodeptr _Pnode = _Newnode; _Pnode->_Parent->_Color == _Red;) {

  001c9	89 72 04	 mov	 DWORD PTR [edx+4], esi
$LN2@Insert_nod:
  001cc	8b 48 04	 mov	 ecx, DWORD PTR [eax+4]
  001cf	80 79 0c 00	 cmp	 BYTE PTR [ecx+12], 0
  001d3	0f 84 87 fe ff
	ff		 je	 $LL4@Insert_nod
  001d9	5e		 pop	 esi
$LN3@Insert_nod:

; 730  :                 }
; 731  :             }
; 732  :         }
; 733  : 
; 734  :         _Head->_Parent->_Color = _Black; // root is always black

  001da	8b 45 fc	 mov	 eax, DWORD PTR __Head$1$[ebp]
  001dd	8b 40 04	 mov	 eax, DWORD PTR [eax+4]
  001e0	c6 40 0c 01	 mov	 BYTE PTR [eax+12], 1

; 735  :         return _Newnode;
; 736  :     }

  001e4	8b c7		 mov	 eax, edi
  001e6	5f		 pop	 edi
  001e7	5b		 pop	 ebx
  001e8	8b e5		 mov	 esp, ebp
  001ea	5d		 pop	 ebp
  001eb	c2 0c 00	 ret	 12			; 0000000cH
?_Insert_node@?$_Tree_val@U?$_Tree_simple_types@U?$pair@$$CBV?$basic_string@DU?$char_traits@D@std@@V?$allocator@D@2@@std@@PAX@std@@@std@@@std@@QAEPAU?$_Tree_node@U?$pair@$$CBV?$basic_string@DU?$char_traits@D@std@@V?$allocator@D@2@@std@@PAX@std@@PAX@2@U?$_Tree_id@PAU?$_Tree_node@U?$pair@$$CBV?$basic_string@DU?$char_traits@D@std@@V?$allocator@D@2@@std@@PAX@std@@PAX@std@@@2@QAU32@@Z ENDP ; std::_Tree_val<std::_Tree_simple_types<std::pair<std::basic_string<char,std::char_traits<char>,std::allocator<char> > const ,void *> > >::_Insert_node
_TEXT	ENDS
; Function compile flags: /Ogtp
; File C:\Program Files\Microsoft Visual Studio\2022\Professional\VC\Tools\MSVC\14.44.35207\include\vector
; File C:\Program Files\Microsoft Visual Studio\2022\Professional\VC\Tools\MSVC\14.44.35207\include\xmemory
; File C:\Program Files\Microsoft Visual Studio\2022\Professional\VC\Tools\MSVC\14.44.35207\include\vector
; File C:\Program Files\Microsoft Visual Studio\2022\Professional\VC\Tools\MSVC\14.44.35207\include\xmemory
; File C:\Program Files\Microsoft Visual Studio\2022\Professional\VC\Tools\MSVC\14.44.35207\include\vector
; File C:\Program Files\Microsoft Visual Studio\2022\Professional\VC\Tools\MSVC\14.44.35207\include\xmemory
; File C:\Program Files\Microsoft Visual Studio\2022\Professional\VC\Tools\MSVC\14.44.35207\include\vector
;	COMDAT ??1?$vector@UtagBeginItem@@V?$allocator@UtagBeginItem@@@std@@@std@@QAE@XZ
_TEXT	SEGMENT
??1?$vector@UtagBeginItem@@V?$allocator@UtagBeginItem@@@std@@@std@@QAE@XZ PROC ; std::vector<tagBeginItem,std::allocator<tagBeginItem> >::~vector<tagBeginItem,std::allocator<tagBeginItem> >, COMDAT
; _this$ = ecx

; 829  :     _CONSTEXPR20 ~vector() noexcept {

  00000	56		 push	 esi
  00001	57		 push	 edi
  00002	8b f9		 mov	 edi, ecx

; 2090 :         if (_Myfirst) { // destroy and deallocate old array

  00004	8b 37		 mov	 esi, DWORD PTR [edi]
  00006	85 f6		 test	 esi, esi
  00008	74 53		 je	 SHORT $LN5@vector

; 2091 :             _STD _Destroy_range(_Myfirst, _Mylast, _Al);
; 2092 :             _ASAN_VECTOR_REMOVE;
; 2093 :             _Al.deallocate(_Myfirst, static_cast<size_type>(_Myend - _Myfirst));

  0000a	8b 4f 08	 mov	 ecx, DWORD PTR [edi+8]
  0000d	b8 ab aa aa 2a	 mov	 eax, 715827883		; 2aaaaaabH
  00012	2b ce		 sub	 ecx, esi
  00014	f7 e9		 imul	 ecx
  00016	d1 fa		 sar	 edx, 1
  00018	8b c2		 mov	 eax, edx
  0001a	c1 e8 1f	 shr	 eax, 31			; 0000001fH
  0001d	03 c2		 add	 eax, edx
; File C:\Program Files\Microsoft Visual Studio\2022\Professional\VC\Tools\MSVC\14.44.35207\include\xmemory

; 985  :         _STD _Deallocate<_New_alignof<_Ty>>(_Ptr, sizeof(_Ty) * _Count);

  0001f	8d 0c 40	 lea	 ecx, DWORD PTR [eax+eax*2]
  00022	c1 e1 02	 shl	 ecx, 2

; 284  :         if (_Bytes >= _Big_allocation_threshold) {

  00025	81 f9 00 10 00
	00		 cmp	 ecx, 4096		; 00001000H
  0002b	72 12		 jb	 SHORT $LN18@vector

; 205  :     const uintptr_t _Ptr_container   = _Ptr_user[-1];

  0002d	8b 56 fc	 mov	 edx, DWORD PTR [esi-4]
  00030	83 c1 23	 add	 ecx, 35			; 00000023H

; 206  : 
; 207  :     // If the following asserts, it likely means that we are performing
; 208  :     // an aligned delete on memory coming from an unaligned allocation.
; 209  :     _STL_ASSERT(_Ptr_user[-2] == _Big_allocation_sentinel, "invalid argument");
; 210  : 
; 211  :     // Extra paranoia on aligned allocation/deallocation; ensure _Ptr_container is
; 212  :     // in range [_Min_back_shift, _Non_user_size]
; 213  : #ifdef _DEBUG
; 214  :     constexpr uintptr_t _Min_back_shift = 2 * sizeof(void*);
; 215  : #else // ^^^ defined(_DEBUG) / !defined(_DEBUG) vvv
; 216  :     constexpr uintptr_t _Min_back_shift = sizeof(void*);
; 217  : #endif // ^^^ !defined(_DEBUG) ^^^
; 218  :     const uintptr_t _Back_shift = reinterpret_cast<uintptr_t>(_Ptr) - _Ptr_container;

  00033	2b f2		 sub	 esi, edx

; 219  :     _STL_VERIFY(_Back_shift >= _Min_back_shift && _Back_shift <= _Non_user_size, "invalid argument");

  00035	8d 46 fc	 lea	 eax, DWORD PTR [esi-4]
  00038	83 f8 1f	 cmp	 eax, 31			; 0000001fH
  0003b	77 23		 ja	 SHORT $LN17@vector

; 220  :     _Ptr = reinterpret_cast<void*>(_Ptr_container);

  0003d	8b f2		 mov	 esi, edx
$LN18@vector:

; 289  :         ::operator delete(_Ptr, _Bytes);

  0003f	51		 push	 ecx
  00040	56		 push	 esi
  00041	e8 00 00 00 00	 call	 ??3@YAXPAXI@Z		; operator delete
; File C:\Program Files\Microsoft Visual Studio\2022\Professional\VC\Tools\MSVC\14.44.35207\include\vector

; 2095 :             _Myfirst = nullptr;

  00046	c7 07 00 00 00
	00		 mov	 DWORD PTR [edi], 0
; File C:\Program Files\Microsoft Visual Studio\2022\Professional\VC\Tools\MSVC\14.44.35207\include\xmemory

; 289  :         ::operator delete(_Ptr, _Bytes);

  0004c	83 c4 08	 add	 esp, 8
; File C:\Program Files\Microsoft Visual Studio\2022\Professional\VC\Tools\MSVC\14.44.35207\include\vector

; 2096 :             _Mylast  = nullptr;

  0004f	c7 47 04 00 00
	00 00		 mov	 DWORD PTR [edi+4], 0

; 2097 :             _Myend   = nullptr;

  00056	c7 47 08 00 00
	00 00		 mov	 DWORD PTR [edi+8], 0
$LN5@vector:
  0005d	5f		 pop	 edi

; 835  :     }

  0005e	5e		 pop	 esi
  0005f	c3		 ret	 0
$LN17@vector:
; File C:\Program Files\Microsoft Visual Studio\2022\Professional\VC\Tools\MSVC\14.44.35207\include\xmemory

; 219  :     _STL_VERIFY(_Back_shift >= _Min_back_shift && _Back_shift <= _Non_user_size, "invalid argument");

  00060	6a 00		 push	 0
  00062	6a 00		 push	 0
  00064	6a 00		 push	 0
  00066	6a 00		 push	 0
  00068	6a 00		 push	 0
  0006a	e8 00 00 00 00	 call	 __invoke_watson
$LN26@vector:
  0006f	cc		 int	 3
??1?$vector@UtagBeginItem@@V?$allocator@UtagBeginItem@@@std@@@std@@QAE@XZ ENDP ; std::vector<tagBeginItem,std::allocator<tagBeginItem> >::~vector<tagBeginItem,std::allocator<tagBeginItem> >
_TEXT	ENDS
; Function compile flags: /Ogtp
; File C:\IAGOS\server\v18\Source\Source\_Common\Data.h
;	COMDAT ??_G?$CFixedArray@UtagColorText@@@@UAEPAXI@Z
_TEXT	SEGMENT
___flags$ = 8						; size = 4
??_G?$CFixedArray@UtagColorText@@@@UAEPAXI@Z PROC	; CFixedArray<tagColorText>::`scalar deleting destructor', COMDAT
; _this$ = ecx
  00000	55		 push	 ebp
  00001	8b ec		 mov	 ebp, esp

; 238  : {

  00003	56		 push	 esi
  00004	8b f1		 mov	 esi, ecx

; 239  : 	SAFE_DELETE_ARRAY( m_apOffset );

  00006	8b 46 08	 mov	 eax, DWORD PTR [esi+8]
  00009	c7 06 00 00 00
	00		 mov	 DWORD PTR [esi], OFFSET ??_7?$CFixedArray@UtagColorText@@@@6B@
  0000f	85 c0		 test	 eax, eax
  00011	74 10		 je	 SHORT $LN6@scalar
  00013	50		 push	 eax
  00014	e8 00 00 00 00	 call	 ??_V@YAXPAX@Z		; operator delete[]
  00019	83 c4 04	 add	 esp, 4
  0001c	c7 46 08 00 00
	00 00		 mov	 DWORD PTR [esi+8], 0
$LN6@scalar:

; 240  : 	SAFE_DELETE_ARRAY( m_pData ); 

  00023	8b 46 04	 mov	 eax, DWORD PTR [esi+4]
  00026	85 c0		 test	 eax, eax
  00028	74 10		 je	 SHORT $LN7@scalar
  0002a	50		 push	 eax
  0002b	e8 00 00 00 00	 call	 ??_V@YAXPAX@Z		; operator delete[]
  00030	83 c4 04	 add	 esp, 4
  00033	c7 46 04 00 00
	00 00		 mov	 DWORD PTR [esi+4], 0
$LN7@scalar:
  0003a	f6 45 08 01	 test	 BYTE PTR ___flags$[ebp], 1
  0003e	74 0b		 je	 SHORT $LN10@scalar
  00040	6a 24		 push	 36			; 00000024H
  00042	56		 push	 esi
  00043	e8 00 00 00 00	 call	 ??3@YAXPAXI@Z		; operator delete
  00048	83 c4 08	 add	 esp, 8
$LN10@scalar:
  0004b	8b c6		 mov	 eax, esi
  0004d	5e		 pop	 esi
  0004e	5d		 pop	 ebp
  0004f	c2 04 00	 ret	 4
??_G?$CFixedArray@UtagColorText@@@@UAEPAXI@Z ENDP	; CFixedArray<tagColorText>::`scalar deleting destructor'
_TEXT	ENDS
; Function compile flags: /Ogtp
; File C:\IAGOS\server\v18\Source\Source\_Common\Data.h
;	COMDAT ??1?$CFixedArray@UtagColorText@@@@UAE@XZ
_TEXT	SEGMENT
??1?$CFixedArray@UtagColorText@@@@UAE@XZ PROC		; CFixedArray<tagColorText>::~CFixedArray<tagColorText>, COMDAT
; _this$ = ecx

; 238  : {

  00000	56		 push	 esi
  00001	8b f1		 mov	 esi, ecx

; 239  : 	SAFE_DELETE_ARRAY( m_apOffset );

  00003	8b 46 08	 mov	 eax, DWORD PTR [esi+8]
  00006	c7 06 00 00 00
	00		 mov	 DWORD PTR [esi], OFFSET ??_7?$CFixedArray@UtagColorText@@@@6B@
  0000c	85 c0		 test	 eax, eax
  0000e	74 10		 je	 SHORT $LN2@CFixedArra
  00010	50		 push	 eax
  00011	e8 00 00 00 00	 call	 ??_V@YAXPAX@Z		; operator delete[]
  00016	83 c4 04	 add	 esp, 4
  00019	c7 46 08 00 00
	00 00		 mov	 DWORD PTR [esi+8], 0
$LN2@CFixedArra:

; 240  : 	SAFE_DELETE_ARRAY( m_pData ); 

  00020	8b 46 04	 mov	 eax, DWORD PTR [esi+4]
  00023	85 c0		 test	 eax, eax
  00025	74 10		 je	 SHORT $LN3@CFixedArra
  00027	50		 push	 eax
  00028	e8 00 00 00 00	 call	 ??_V@YAXPAX@Z		; operator delete[]
  0002d	83 c4 04	 add	 esp, 4
  00030	c7 46 04 00 00
	00 00		 mov	 DWORD PTR [esi+4], 0
$LN3@CFixedArra:

; 241  : }

  00037	5e		 pop	 esi
  00038	c3		 ret	 0
??1?$CFixedArray@UtagColorText@@@@UAE@XZ ENDP		; CFixedArray<tagColorText>::~CFixedArray<tagColorText>
_TEXT	ENDS
; Function compile flags: /Ogtp
; File C:\IAGOS\server\v18\Source\Source\_Common\Data.h
;	COMDAT ??_G?$CFixedArray@UItemProp@@@@UAEPAXI@Z
_TEXT	SEGMENT
___flags$ = 8						; size = 4
??_G?$CFixedArray@UItemProp@@@@UAEPAXI@Z PROC		; CFixedArray<ItemProp>::`scalar deleting destructor', COMDAT
; _this$ = ecx
  00000	55		 push	 ebp
  00001	8b ec		 mov	 ebp, esp

; 238  : {

  00003	56		 push	 esi
  00004	8b f1		 mov	 esi, ecx

; 239  : 	SAFE_DELETE_ARRAY( m_apOffset );

  00006	8b 46 08	 mov	 eax, DWORD PTR [esi+8]
  00009	c7 06 00 00 00
	00		 mov	 DWORD PTR [esi], OFFSET ??_7?$CFixedArray@UItemProp@@@@6B@
  0000f	85 c0		 test	 eax, eax
  00011	74 10		 je	 SHORT $LN6@scalar
  00013	50		 push	 eax
  00014	e8 00 00 00 00	 call	 ??_V@YAXPAX@Z		; operator delete[]
  00019	83 c4 04	 add	 esp, 4
  0001c	c7 46 08 00 00
	00 00		 mov	 DWORD PTR [esi+8], 0
$LN6@scalar:

; 240  : 	SAFE_DELETE_ARRAY( m_pData ); 

  00023	8b 46 04	 mov	 eax, DWORD PTR [esi+4]
  00026	85 c0		 test	 eax, eax
  00028	74 10		 je	 SHORT $LN7@scalar
  0002a	50		 push	 eax
  0002b	e8 00 00 00 00	 call	 ??_V@YAXPAX@Z		; operator delete[]
  00030	83 c4 04	 add	 esp, 4
  00033	c7 46 04 00 00
	00 00		 mov	 DWORD PTR [esi+4], 0
$LN7@scalar:
  0003a	f6 45 08 01	 test	 BYTE PTR ___flags$[ebp], 1
  0003e	74 0b		 je	 SHORT $LN10@scalar
  00040	6a 24		 push	 36			; 00000024H
  00042	56		 push	 esi
  00043	e8 00 00 00 00	 call	 ??3@YAXPAXI@Z		; operator delete
  00048	83 c4 08	 add	 esp, 8
$LN10@scalar:
  0004b	8b c6		 mov	 eax, esi
  0004d	5e		 pop	 esi
  0004e	5d		 pop	 ebp
  0004f	c2 04 00	 ret	 4
??_G?$CFixedArray@UItemProp@@@@UAEPAXI@Z ENDP		; CFixedArray<ItemProp>::`scalar deleting destructor'
_TEXT	ENDS
; Function compile flags: /Ogtp
; File C:\IAGOS\server\v18\Source\Source\_Common\Data.h
;	COMDAT ??1?$CFixedArray@UItemProp@@@@UAE@XZ
_TEXT	SEGMENT
??1?$CFixedArray@UItemProp@@@@UAE@XZ PROC		; CFixedArray<ItemProp>::~CFixedArray<ItemProp>, COMDAT
; _this$ = ecx

; 238  : {

  00000	56		 push	 esi
  00001	8b f1		 mov	 esi, ecx

; 239  : 	SAFE_DELETE_ARRAY( m_apOffset );

  00003	8b 46 08	 mov	 eax, DWORD PTR [esi+8]
  00006	c7 06 00 00 00
	00		 mov	 DWORD PTR [esi], OFFSET ??_7?$CFixedArray@UItemProp@@@@6B@
  0000c	85 c0		 test	 eax, eax
  0000e	74 10		 je	 SHORT $LN2@CFixedArra
  00010	50		 push	 eax
  00011	e8 00 00 00 00	 call	 ??_V@YAXPAX@Z		; operator delete[]
  00016	83 c4 04	 add	 esp, 4
  00019	c7 46 08 00 00
	00 00		 mov	 DWORD PTR [esi+8], 0
$LN2@CFixedArra:

; 240  : 	SAFE_DELETE_ARRAY( m_pData ); 

  00020	8b 46 04	 mov	 eax, DWORD PTR [esi+4]
  00023	85 c0		 test	 eax, eax
  00025	74 10		 je	 SHORT $LN3@CFixedArra
  00027	50		 push	 eax
  00028	e8 00 00 00 00	 call	 ??_V@YAXPAX@Z		; operator delete[]
  0002d	83 c4 04	 add	 esp, 4
  00030	c7 46 04 00 00
	00 00		 mov	 DWORD PTR [esi+4], 0
$LN3@CFixedArra:

; 241  : }

  00037	5e		 pop	 esi
  00038	c3		 ret	 0
??1?$CFixedArray@UItemProp@@@@UAE@XZ ENDP		; CFixedArray<ItemProp>::~CFixedArray<ItemProp>
_TEXT	ENDS
; Function compile flags: /Ogtp
; File C:\IAGOS\server\v18\Source\Source\_Common\Data.h
;	COMDAT ??0?$CFixedArray@UItemProp@@@@QAE@XZ
_TEXT	SEGMENT
??0?$CFixedArray@UItemProp@@@@QAE@XZ PROC		; CFixedArray<ItemProp>::CFixedArray<ItemProp>, COMDAT
; _this$ = ecx

; 230  : {

  00000	56		 push	 esi
  00001	8b f1		 mov	 esi, ecx

; 260  : 	m_pData = new BYTE[ sizeof( T ) * nMaxNum ];

  00003	68 60 35 01 00	 push	 79200			; 00013560H

; 230  : {

  00008	c7 06 00 00 00
	00		 mov	 DWORD PTR [esi], OFFSET ??_7?$CFixedArray@UItemProp@@@@6B@

; 231  : 	m_pData = NULL;

  0000e	c7 46 04 00 00
	00 00		 mov	 DWORD PTR [esi+4], 0

; 232  : 	m_apOffset = NULL;

  00015	c7 46 08 00 00
	00 00		 mov	 DWORD PTR [esi+8], 0

; 233  : 	m_nEndByte = 0;

  0001c	c7 46 1c 00 00
	00 00		 mov	 DWORD PTR [esi+28], 0

; 234  : 	m_nEndIndex = -1;

  00023	c7 46 20 ff ff
	ff ff		 mov	 DWORD PTR [esi+32], -1

; 260  : 	m_pData = new BYTE[ sizeof( T ) * nMaxNum ];

  0002a	e8 00 00 00 00	 call	 ??_U@YAPAXI@Z		; operator new[]

; 261  : 	m_apOffset = new LPBYTE [ nMaxIndex ];

  0002f	68 90 01 00 00	 push	 400			; 00000190H
  00034	89 46 04	 mov	 DWORD PTR [esi+4], eax
  00037	e8 00 00 00 00	 call	 ??_U@YAPAXI@Z		; operator new[]

; 262  : 	ZeroMemory( m_apOffset, sizeof( LPBYTE ) * nMaxIndex );

  0003c	68 90 01 00 00	 push	 400			; 00000190H
  00041	6a 00		 push	 0
  00043	50		 push	 eax
  00044	89 46 08	 mov	 DWORD PTR [esi+8], eax
  00047	e8 00 00 00 00	 call	 _memset
  0004c	83 c4 14	 add	 esp, 20			; 00000014H

; 263  : 	m_nMaxByte = sizeof( T ) * nMaxNum;

  0004f	c7 46 14 60 35
	01 00		 mov	 DWORD PTR [esi+20], 79200 ; 00013560H

; 264  : 	m_nMaxIndex = nMaxIndex;

  00056	c7 46 18 64 00
	00 00		 mov	 DWORD PTR [esi+24], 100	; 00000064H

; 235  : 	SetSize( 100, 100 );
; 236  : }

  0005d	8b c6		 mov	 eax, esi

; 265  : 	m_nCurOffset = 0;

  0005f	c7 46 0c 00 00
	00 00		 mov	 DWORD PTR [esi+12], 0

; 266  : 	m_nCurNum = 0;

  00066	c7 46 10 00 00
	00 00		 mov	 DWORD PTR [esi+16], 0

; 235  : 	SetSize( 100, 100 );
; 236  : }

  0006d	5e		 pop	 esi
  0006e	c3		 ret	 0
??0?$CFixedArray@UItemProp@@@@QAE@XZ ENDP		; CFixedArray<ItemProp>::CFixedArray<ItemProp>
_TEXT	ENDS
; Function compile flags: /Ogtp
; File C:\Program Files\Microsoft Visual Studio\2022\Professional\VC\Tools\MSVC\14.44.35207\include\xtree
; File C:\Program Files\Microsoft Visual Studio\2022\Professional\VC\Tools\MSVC\14.44.35207\include\xmemory
;	COMDAT ??1?$map@V?$basic_string@DU?$char_traits@D@std@@V?$allocator@D@2@@std@@KU?$less@V?$basic_string@DU?$char_traits@D@std@@V?$allocator@D@2@@std@@@2@V?$allocator@U?$pair@$$CBV?$basic_string@DU?$char_traits@D@std@@V?$allocator@D@2@@std@@K@std@@@2@@std@@QAE@XZ
_TEXT	SEGMENT
??1?$map@V?$basic_string@DU?$char_traits@D@std@@V?$allocator@D@2@@std@@KU?$less@V?$basic_string@DU?$char_traits@D@std@@V?$allocator@D@2@@std@@@2@V?$allocator@U?$pair@$$CBV?$basic_string@DU?$char_traits@D@std@@V?$allocator@D@2@@std@@K@std@@@2@@std@@QAE@XZ PROC ; std::map<std::basic_string<char,std::char_traits<char>,std::allocator<char> >,unsigned long,std::less<std::basic_string<char,std::char_traits<char>,std::allocator<char> > >,std::allocator<std::pair<std::basic_string<char,std::char_traits<char>,std::allocator<char> > const ,unsigned long> > >::~map<std::basic_string<char,std::char_traits<char>,std::allocator<char> >,unsigned long,std::less<std::basic_string<char,std::char_traits<char>,std::allocator<char> > >,std::allocator<std::pair<std::basic_string<char,std::char_traits<char>,std::allocator<char> > const ,unsigned long> > >, COMDAT
; _this$ = ecx
; File C:\Program Files\Microsoft Visual Studio\2022\Professional\VC\Tools\MSVC\14.44.35207\include\xtree

; 777  :         _Erase_tree(_Al, _Myhead->_Parent);

  00000	56		 push	 esi
  00001	8b f1		 mov	 esi, ecx
  00003	8b 06		 mov	 eax, DWORD PTR [esi]
  00005	ff 70 04	 push	 DWORD PTR [eax+4]
  00008	56		 push	 esi
  00009	e8 00 00 00 00	 call	 ??$_Erase_tree@V?$allocator@U?$_Tree_node@U?$pair@$$CBV?$basic_string@DU?$char_traits@D@std@@V?$allocator@D@2@@std@@K@std@@PAX@std@@@std@@@?$_Tree_val@U?$_Tree_simple_types@U?$pair@$$CBV?$basic_string@DU?$char_traits@D@std@@V?$allocator@D@2@@std@@K@std@@@std@@@std@@QAEXAAV?$allocator@U?$_Tree_node@U?$pair@$$CBV?$basic_string@DU?$char_traits@D@std@@V?$allocator@D@2@@std@@K@std@@PAX@std@@@1@PAU?$_Tree_node@U?$pair@$$CBV?$basic_string@DU?$char_traits@D@std@@V?$allocator@D@2@@std@@K@std@@PAX@1@@Z ; std::_Tree_val<std::_Tree_simple_types<std::pair<std::basic_string<char,std::char_traits<char>,std::allocator<char> > const ,unsigned long> > >::_Erase_tree<std::allocator<std::_Tree_node<std::pair<std::basic_string<char,std::char_traits<char>,std::allocator<char> > const ,unsigned long>,void *> > >
; File C:\Program Files\Microsoft Visual Studio\2022\Professional\VC\Tools\MSVC\14.44.35207\include\xmemory

; 289  :         ::operator delete(_Ptr, _Bytes);

  0000e	6a 2c		 push	 44			; 0000002cH
  00010	ff 36		 push	 DWORD PTR [esi]
  00012	e8 00 00 00 00	 call	 ??3@YAXPAXI@Z		; operator delete
  00017	83 c4 08	 add	 esp, 8
  0001a	5e		 pop	 esi
  0001b	c3		 ret	 0
??1?$map@V?$basic_string@DU?$char_traits@D@std@@V?$allocator@D@2@@std@@KU?$less@V?$basic_string@DU?$char_traits@D@std@@V?$allocator@D@2@@std@@@2@V?$allocator@U?$pair@$$CBV?$basic_string@DU?$char_traits@D@std@@V?$allocator@D@2@@std@@K@std@@@2@@std@@QAE@XZ ENDP ; std::map<std::basic_string<char,std::char_traits<char>,std::allocator<char> >,unsigned long,std::less<std::basic_string<char,std::char_traits<char>,std::allocator<char> > >,std::allocator<std::pair<std::basic_string<char,std::char_traits<char>,std::allocator<char> > const ,unsigned long> > >::~map<std::basic_string<char,std::char_traits<char>,std::allocator<char> >,unsigned long,std::less<std::basic_string<char,std::char_traits<char>,std::allocator<char> > >,std::allocator<std::pair<std::basic_string<char,std::char_traits<char>,std::allocator<char> > const ,unsigned long> > >
_TEXT	ENDS
; Function compile flags: /Ogtp
; File C:\IAGOS\server\v18\Source\Source\DatabaseServer\Project.cpp
; File C:\Program Files\Microsoft Visual Studio\2022\Professional\VC\Tools\MSVC\14.44.35207\include\xtree
; File C:\IAGOS\server\v18\Source\Source\DatabaseServer\Project.cpp
; File C:\Program Files\Microsoft Visual Studio\2022\Professional\VC\Tools\MSVC\14.44.35207\include\xtree
; File C:\IAGOS\server\v18\Source\Source\DatabaseServer\Project.cpp
; File C:\Program Files\Microsoft Visual Studio\2022\Professional\VC\Tools\MSVC\14.44.35207\include\xtree
; File C:\IAGOS\server\v18\Source\Source\DatabaseServer\Project.cpp
; File C:\Program Files\Microsoft Visual Studio\2022\Professional\VC\Tools\MSVC\14.44.35207\include\xtree
; File C:\IAGOS\server\v18\Source\Source\DatabaseServer\Project.cpp
; File C:\IAGOS\server\v18\Source\Source\_Common\Data.h
; File C:\IAGOS\server\v18\Source\Source\DatabaseServer\Project.cpp
; File C:\Program Files\Microsoft Visual Studio\2022\Professional\VC\Tools\MSVC\14.44.35207\include\xtree
; File C:\IAGOS\server\v18\Source\Source\DatabaseServer\Project.cpp
; File C:\Program Files\Microsoft Visual Studio\2022\Professional\VC\Tools\MSVC\14.44.35207\include\xtree
; File C:\IAGOS\server\v18\Source\Source\DatabaseServer\Project.cpp
; File C:\Program Files\Microsoft Visual Studio\2022\Professional\VC\Tools\MSVC\14.44.35207\include\xtree
; File C:\IAGOS\server\v18\Source\Source\DatabaseServer\Project.cpp
; File C:\Program Files\Microsoft Visual Studio\2022\Professional\VC\Tools\MSVC\14.44.35207\include\xtree
; File C:\Program Files\Microsoft Visual Studio\2022\Professional\VC\Tools\MSVC\14.44.35207\include\xmemory
; File C:\Program Files\Microsoft Visual Studio\2022\Professional\VC\Tools\MSVC\14.44.35207\include\xtree
; File C:\Program Files\Microsoft Visual Studio\2022\Professional\VC\Tools\MSVC\14.44.35207\include\xmemory
; File C:\Program Files\Microsoft Visual Studio\2022\Professional\VC\Tools\MSVC\14.44.35207\include\xtree
; File C:\Program Files\Microsoft Visual Studio\2022\Professional\VC\Tools\MSVC\14.44.35207\include\xmemory
; File C:\IAGOS\server\v18\Source\Source\DatabaseServer\Project.cpp
; File C:\Program Files\Microsoft Visual Studio\2022\Professional\VC\Tools\MSVC\14.44.35207\include\xmemory
; File C:\IAGOS\server\v18\Source\Source\DatabaseServer\Project.cpp
; File C:\IAGOS\server\v18\Source\Source\_Common\Data.h
; File C:\Program Files\Microsoft Visual Studio\2022\Professional\VC\Tools\MSVC\14.44.35207\include\xtree
; File C:\IAGOS\server\v18\Source\Source\DatabaseServer\Project.cpp
; File C:\Program Files\Microsoft Visual Studio\2022\Professional\VC\Tools\MSVC\14.44.35207\include\xtree
; File C:\Program Files\Microsoft Visual Studio\2022\Professional\VC\Tools\MSVC\14.44.35207\include\xmemory
; File C:\IAGOS\server\v18\Source\Source\DatabaseServer\Project.cpp
;	COMDAT ??1CProject@@UAE@XZ
_TEXT	SEGMENT
_this$1$ = -20						; size = 4
_this$1$ = -16						; size = 4
__$EHRec$ = -12						; size = 12
??1CProject@@UAE@XZ PROC				; CProject::~CProject, COMDAT
; _this$ = ecx

; 76   : {

  00000	55		 push	 ebp
  00001	8b ec		 mov	 ebp, esp
  00003	6a ff		 push	 -1
  00005	68 00 00 00 00	 push	 __ehhandler$??1CProject@@UAE@XZ
  0000a	64 a1 00 00 00
	00		 mov	 eax, DWORD PTR fs:0
  00010	50		 push	 eax
  00011	83 ec 08	 sub	 esp, 8
  00014	53		 push	 ebx
  00015	56		 push	 esi
  00016	57		 push	 edi
  00017	a1 00 00 00 00	 mov	 eax, DWORD PTR ___security_cookie
  0001c	33 c5		 xor	 eax, ebp
  0001e	50		 push	 eax
  0001f	8d 45 f4	 lea	 eax, DWORD PTR __$EHRec$[ebp]
  00022	64 a3 00 00 00
	00		 mov	 DWORD PTR fs:0, eax
  00028	8b f9		 mov	 edi, ecx
  0002a	89 7d f0	 mov	 DWORD PTR _this$1$[ebp], edi

; 77   : 	for( CMapStrToPtr::iterator i	= m_mapBeginPos.begin(); i != m_mapBeginPos.end(); ++i )

  0002d	8d 9f 64 fe 04
	00		 lea	 ebx, DWORD PTR [edi+327268]
  00033	c7 07 00 00 00
	00		 mov	 DWORD PTR [edi], OFFSET ??_7CProject@@6B@
; File C:\Program Files\Microsoft Visual Studio\2022\Professional\VC\Tools\MSVC\14.44.35207\include\xtree

; 1142 :         return iterator(_Scary->_Myhead->_Left, _Scary);

  00039	8b 03		 mov	 eax, DWORD PTR [ebx]
; File C:\IAGOS\server\v18\Source\Source\DatabaseServer\Project.cpp

; 77   : 	for( CMapStrToPtr::iterator i	= m_mapBeginPos.begin(); i != m_mapBeginPos.end(); ++i )

  0003b	89 5d ec	 mov	 DWORD PTR _this$1$[ebp], ebx
; File C:\Program Files\Microsoft Visual Studio\2022\Professional\VC\Tools\MSVC\14.44.35207\include\xtree

; 37   :     _Tree_unchecked_const_iterator(_Nodeptr _Pnode, const _Mytree* _Plist) noexcept : _Ptr(_Pnode) {

  0003e	8b 30		 mov	 esi, DWORD PTR [eax]

; 237  :         return !(*this == _Right);

  00040	3b f0		 cmp	 esi, eax
; File C:\IAGOS\server\v18\Source\Source\DatabaseServer\Project.cpp

; 77   : 	for( CMapStrToPtr::iterator i	= m_mapBeginPos.begin(); i != m_mapBeginPos.end(); ++i )

  00042	74 5c		 je	 SHORT $LN3@CProject
  00044	0f 1f 40 00 0f
	1f 84 00 00 00
	00 00		 npad	 12
$LL4@CProject:

; 78   : 		safe_delete( (BEGINPOSARR*)i->second );

  00050	68 c4 00 00 00	 push	 196			; 000000c4H
  00055	ff 76 28	 push	 DWORD PTR [esi+40]
  00058	e8 00 00 00 00	 call	 ??3@YAXPAXI@Z		; operator delete
; File C:\Program Files\Microsoft Visual Studio\2022\Professional\VC\Tools\MSVC\14.44.35207\include\xtree

; 50   :         if (_Ptr->_Right->_Isnil) { // climb looking for right subtree

  0005d	8b 46 08	 mov	 eax, DWORD PTR [esi+8]
; File C:\IAGOS\server\v18\Source\Source\DatabaseServer\Project.cpp

; 78   : 		safe_delete( (BEGINPOSARR*)i->second );

  00060	83 c4 08	 add	 esp, 8
; File C:\Program Files\Microsoft Visual Studio\2022\Professional\VC\Tools\MSVC\14.44.35207\include\xtree

; 50   :         if (_Ptr->_Right->_Isnil) { // climb looking for right subtree

  00063	80 78 0d 00	 cmp	 BYTE PTR [eax+13], 0
  00067	74 1d		 je	 SHORT $LN166@CProject

; 51   :             _Nodeptr _Pnode;
; 52   :             while (!(_Pnode = _Ptr->_Parent)->_Isnil && _Ptr == _Pnode->_Right) {

  00069	8b 46 04	 mov	 eax, DWORD PTR [esi+4]
  0006c	80 78 0d 00	 cmp	 BYTE PTR [eax+13], 0
  00070	75 10		 jne	 SHORT $LN165@CProject
$LL164@CProject:
  00072	3b 70 08	 cmp	 esi, DWORD PTR [eax+8]
  00075	75 0b		 jne	 SHORT $LN165@CProject

; 53   :                 _Ptr = _Pnode; // ==> parent while right subtree

  00077	8b f0		 mov	 esi, eax
  00079	8b 40 04	 mov	 eax, DWORD PTR [eax+4]
  0007c	80 78 0d 00	 cmp	 BYTE PTR [eax+13], 0
  00080	74 f0		 je	 SHORT $LL164@CProject
$LN165@CProject:

; 54   :             }
; 55   : 
; 56   :             _Ptr = _Pnode; // ==> parent (head if end())

  00082	8b f0		 mov	 esi, eax

; 57   :         } else {

  00084	eb 16		 jmp	 SHORT $LN226@CProject
$LN166@CProject:

; 58   :             _Ptr = _Mytree::_Min(_Ptr->_Right); // ==> smallest of right subtree

  00086	8b f0		 mov	 esi, eax

; 476  :         while (!_Pnode->_Left->_Isnil) {

  00088	8b 0e		 mov	 ecx, DWORD PTR [esi]
  0008a	80 79 0d 00	 cmp	 BYTE PTR [ecx+13], 0
  0008e	75 0c		 jne	 SHORT $LN226@CProject
$LL171@CProject:
  00090	8b 01		 mov	 eax, DWORD PTR [ecx]

; 477  :             _Pnode = _Pnode->_Left;

  00092	8b f1		 mov	 esi, ecx
  00094	8b c8		 mov	 ecx, eax
  00096	80 78 0d 00	 cmp	 BYTE PTR [eax+13], 0
  0009a	74 f4		 je	 SHORT $LL171@CProject
$LN226@CProject:

; 237  :         return !(*this == _Right);

  0009c	3b 33		 cmp	 esi, DWORD PTR [ebx]
; File C:\IAGOS\server\v18\Source\Source\DatabaseServer\Project.cpp

; 77   : 	for( CMapStrToPtr::iterator i	= m_mapBeginPos.begin(); i != m_mapBeginPos.end(); ++i )

  0009e	75 b0		 jne	 SHORT $LL4@CProject
$LN3@CProject:

; 79   : //	if( m_pPropMover )
; 80   : //		::VirtualFree( m_pPropMover, sizeof(MoverProp) * MAX_PROPMOVER, MEM_DECOMMIT );
; 81   : 	SAFE_DELETE_ARRAY( m_pPropMover );

  000a0	8b 47 5c	 mov	 eax, DWORD PTR [edi+92]
  000a3	85 c0		 test	 eax, eax
  000a5	74 37		 je	 SHORT $LN8@CProject
  000a7	68 00 00 00 00	 push	 OFFSET ??1MoverProp@@QAE@XZ
  000ac	ff 70 fc	 push	 DWORD PTR [eax-4]
  000af	8d 70 fc	 lea	 esi, DWORD PTR [eax-4]
  000b2	c7 45 fc 00 00
	00 00		 mov	 DWORD PTR __$EHRec$[ebp+8], 0
  000b9	68 90 06 00 00	 push	 1680			; 00000690H
  000be	50		 push	 eax
  000bf	e8 00 00 00 00	 call	 ??_M@YGXPAXIIP6EX0@Z@Z
  000c4	69 06 90 06 00
	00		 imul	 eax, DWORD PTR [esi], 1680
  000ca	83 c0 04	 add	 eax, 4
  000cd	50		 push	 eax
  000ce	56		 push	 esi
  000cf	e8 00 00 00 00	 call	 ??_V@YAXPAXI@Z		; operator delete[]
  000d4	83 c4 08	 add	 esp, 8
  000d7	c7 47 5c 00 00
	00 00		 mov	 DWORD PTR [edi+92], 0
$LN8@CProject:

; 82   : 	for( int j = 0; j < m_colorText.GetSize(); j++ )

  000de	8b 47 78	 mov	 eax, DWORD PTR [edi+120]
  000e1	33 f6		 xor	 esi, esi
  000e3	85 c0		 test	 eax, eax
  000e5	7e 26		 jle	 SHORT $LN6@CProject
; File C:\IAGOS\server\v18\Source\Source\_Common\Data.h

; 270  : 	if( dwIndex >= (DWORD)m_nMaxIndex )

  000e7	3b f0		 cmp	 esi, eax
$LN238@CProject:
  000e9	73 1a		 jae	 SHORT $LN5@CProject

; 271  : 		return NULL;
; 272  : 	return (T*) m_apOffset[ dwIndex ];

  000eb	8b 47 68	 mov	 eax, DWORD PTR [edi+104]
  000ee	8b 04 b0	 mov	 eax, DWORD PTR [eax+esi*4]
; File C:\IAGOS\server\v18\Source\Source\DatabaseServer\Project.cpp

; 85   : 		if( lpText && lpText->lpszData )

  000f1	85 c0		 test	 eax, eax
  000f3	74 10		 je	 SHORT $LN5@CProject
  000f5	8b 40 04	 mov	 eax, DWORD PTR [eax+4]
  000f8	85 c0		 test	 eax, eax
  000fa	74 09		 je	 SHORT $LN5@CProject

; 86   : 			free( lpText->lpszData ); 

  000fc	50		 push	 eax
  000fd	e8 00 00 00 00	 call	 _free
  00102	83 c4 04	 add	 esp, 4
$LN5@CProject:

; 82   : 	for( int j = 0; j < m_colorText.GetSize(); j++ )

  00105	8b 47 78	 mov	 eax, DWORD PTR [edi+120]
  00108	46		 inc	 esi
  00109	3b f0		 cmp	 esi, eax
  0010b	7c dc		 jl	 SHORT $LN238@CProject
$LN6@CProject:
; File C:\Program Files\Microsoft Visual Studio\2022\Professional\VC\Tools\MSVC\14.44.35207\include\xtree

; 1373 :         auto _Head = _Scary->_Myhead;

  0010d	8b b7 3c 15 05
	00		 mov	 esi, DWORD PTR [edi+333116]
; File C:\IAGOS\server\v18\Source\Source\DatabaseServer\Project.cpp

; 89   : 	m_sInvalidNames.clear();

  00113	8d 9f 3c 15 05
	00		 lea	 ebx, DWORD PTR [edi+333116]
; File C:\Program Files\Microsoft Visual Studio\2022\Professional\VC\Tools\MSVC\14.44.35207\include\xtree

; 1374 :         _Scary->_Erase_tree(_Getal(), _Head->_Parent);

  00119	8b cb		 mov	 ecx, ebx
  0011b	ff 76 04	 push	 DWORD PTR [esi+4]
  0011e	53		 push	 ebx
  0011f	e8 00 00 00 00	 call	 ??$_Erase_tree@V?$allocator@U?$_Tree_node@V?$basic_string@DU?$char_traits@D@std@@V?$allocator@D@2@@std@@PAX@std@@@std@@@?$_Tree_val@U?$_Tree_simple_types@V?$basic_string@DU?$char_traits@D@std@@V?$allocator@D@2@@std@@@std@@@std@@QAEXAAV?$allocator@U?$_Tree_node@V?$basic_string@DU?$char_traits@D@std@@V?$allocator@D@2@@std@@PAX@std@@@1@PAU?$_Tree_node@V?$basic_string@DU?$char_traits@D@std@@V?$allocator@D@2@@std@@PAX@1@@Z ; std::_Tree_val<std::_Tree_simple_types<std::basic_string<char,std::char_traits<char>,std::allocator<char> > > >::_Erase_tree<std::allocator<std::_Tree_node<std::basic_string<char,std::char_traits<char>,std::allocator<char> >,void *> > >

; 1375 :         _Head->_Parent  = _Head;

  00124	89 76 04	 mov	 DWORD PTR [esi+4], esi
; File C:\IAGOS\server\v18\Source\Source\DatabaseServer\Project.cpp

; 90   : 	m_sAllowedLetter.clear();

  00127	8d 8f 44 15 05
	00		 lea	 ecx, DWORD PTR [edi+333124]
; File C:\Program Files\Microsoft Visual Studio\2022\Professional\VC\Tools\MSVC\14.44.35207\include\xtree

; 1376 :         _Head->_Left    = _Head;

  0012d	89 36		 mov	 DWORD PTR [esi], esi

; 1377 :         _Head->_Right   = _Head;

  0012f	89 76 08	 mov	 DWORD PTR [esi+8], esi

; 1378 :         _Scary->_Mysize = 0;

  00132	c7 43 04 00 00
	00 00		 mov	 DWORD PTR [ebx+4], 0
; File C:\IAGOS\server\v18\Source\Source\DatabaseServer\Project.cpp

; 90   : 	m_sAllowedLetter.clear();

  00139	e8 00 00 00 00	 call	 ?clear@?$_Tree@V?$_Tset_traits@DU?$less@D@std@@V?$allocator@D@2@$0A@@std@@@std@@QAEXXZ ; std::_Tree<std::_Tset_traits<char,std::less<char>,std::allocator<char>,0> >::clear

; 91   : #ifdef __VENDOR_1106
; 92   : 	m_sAllowedLetter2.clear();

  0013e	8b 75 f0	 mov	 esi, DWORD PTR _this$1$[ebp]
  00141	8d 8e 4c 15 05
	00		 lea	 ecx, DWORD PTR [esi+333132]
  00147	e8 00 00 00 00	 call	 ?clear@?$_Tree@V?$_Tset_traits@DU?$less@D@std@@V?$allocator@D@2@$0A@@std@@@std@@QAEXXZ ; std::_Tree<std::_Tset_traits<char,std::less<char>,std::allocator<char>,0> >::clear
  0014c	8d 8e 4c 15 05
	00		 lea	 ecx, DWORD PTR [esi+333132]
  00152	e8 00 00 00 00	 call	 ??1?$_Tree@V?$_Tset_traits@DU?$less@D@std@@V?$allocator@D@2@$0A@@std@@@std@@QAE@XZ ; std::_Tree<std::_Tset_traits<char,std::less<char>,std::allocator<char>,0> >::~_Tree<std::_Tset_traits<char,std::less<char>,std::allocator<char>,0> >
  00157	8d 8f 44 15 05
	00		 lea	 ecx, DWORD PTR [edi+333124]
  0015d	e8 00 00 00 00	 call	 ??1?$_Tree@V?$_Tset_traits@DU?$less@D@std@@V?$allocator@D@2@$0A@@std@@@std@@QAE@XZ ; std::_Tree<std::_Tset_traits<char,std::less<char>,std::allocator<char>,0> >::~_Tree<std::_Tset_traits<char,std::less<char>,std::allocator<char>,0> >
; File C:\Program Files\Microsoft Visual Studio\2022\Professional\VC\Tools\MSVC\14.44.35207\include\xtree

; 777  :         _Erase_tree(_Al, _Myhead->_Parent);

  00162	8b 03		 mov	 eax, DWORD PTR [ebx]
  00164	8b cb		 mov	 ecx, ebx
  00166	ff 70 04	 push	 DWORD PTR [eax+4]
  00169	53		 push	 ebx
  0016a	e8 00 00 00 00	 call	 ??$_Erase_tree@V?$allocator@U?$_Tree_node@V?$basic_string@DU?$char_traits@D@std@@V?$allocator@D@2@@std@@PAX@std@@@std@@@?$_Tree_val@U?$_Tree_simple_types@V?$basic_string@DU?$char_traits@D@std@@V?$allocator@D@2@@std@@@std@@@std@@QAEXAAV?$allocator@U?$_Tree_node@V?$basic_string@DU?$char_traits@D@std@@V?$allocator@D@2@@std@@PAX@std@@@1@PAU?$_Tree_node@V?$basic_string@DU?$char_traits@D@std@@V?$allocator@D@2@@std@@PAX@1@@Z ; std::_Tree_val<std::_Tree_simple_types<std::basic_string<char,std::char_traits<char>,std::allocator<char> > > >::_Erase_tree<std::allocator<std::_Tree_node<std::basic_string<char,std::char_traits<char>,std::allocator<char> >,void *> > >
; File C:\Program Files\Microsoft Visual Studio\2022\Professional\VC\Tools\MSVC\14.44.35207\include\xmemory

; 289  :         ::operator delete(_Ptr, _Bytes);

  0016f	6a 28		 push	 40			; 00000028H
  00171	ff 33		 push	 DWORD PTR [ebx]
  00173	e8 00 00 00 00	 call	 ??3@YAXPAXI@Z		; operator delete
; File C:\Program Files\Microsoft Visual Studio\2022\Professional\VC\Tools\MSVC\14.44.35207\include\xtree

; 777  :         _Erase_tree(_Al, _Myhead->_Parent);

  00178	8b 75 ec	 mov	 esi, DWORD PTR _this$1$[ebp]
; File C:\Program Files\Microsoft Visual Studio\2022\Professional\VC\Tools\MSVC\14.44.35207\include\xmemory

; 289  :         ::operator delete(_Ptr, _Bytes);

  0017b	83 c4 08	 add	 esp, 8
; File C:\Program Files\Microsoft Visual Studio\2022\Professional\VC\Tools\MSVC\14.44.35207\include\xtree

; 777  :         _Erase_tree(_Al, _Myhead->_Parent);

  0017e	8b ce		 mov	 ecx, esi
  00180	8b 06		 mov	 eax, DWORD PTR [esi]
  00182	ff 70 04	 push	 DWORD PTR [eax+4]
  00185	56		 push	 esi
  00186	e8 00 00 00 00	 call	 ??$_Erase_tree@V?$allocator@U?$_Tree_node@U?$pair@$$CBV?$basic_string@DU?$char_traits@D@std@@V?$allocator@D@2@@std@@PAX@std@@PAX@std@@@std@@@?$_Tree_val@U?$_Tree_simple_types@U?$pair@$$CBV?$basic_string@DU?$char_traits@D@std@@V?$allocator@D@2@@std@@PAX@std@@@std@@@std@@QAEXAAV?$allocator@U?$_Tree_node@U?$pair@$$CBV?$basic_string@DU?$char_traits@D@std@@V?$allocator@D@2@@std@@PAX@std@@PAX@std@@@1@PAU?$_Tree_node@U?$pair@$$CBV?$basic_string@DU?$char_traits@D@std@@V?$allocator@D@2@@std@@PAX@std@@PAX@1@@Z ; std::_Tree_val<std::_Tree_simple_types<std::pair<std::basic_string<char,std::char_traits<char>,std::allocator<char> > const ,void *> > >::_Erase_tree<std::allocator<std::_Tree_node<std::pair<std::basic_string<char,std::char_traits<char>,std::allocator<char> > const ,void *>,void *> > >
; File C:\Program Files\Microsoft Visual Studio\2022\Professional\VC\Tools\MSVC\14.44.35207\include\xmemory

; 289  :         ::operator delete(_Ptr, _Bytes);

  0018b	6a 2c		 push	 44			; 0000002cH
  0018d	ff 36		 push	 DWORD PTR [esi]
  0018f	e8 00 00 00 00	 call	 ??3@YAXPAXI@Z		; operator delete
; File C:\IAGOS\server\v18\Source\Source\DatabaseServer\Project.cpp

; 95   : }

  00194	8b 5d f0	 mov	 ebx, DWORD PTR _this$1$[ebp]
; File C:\Program Files\Microsoft Visual Studio\2022\Professional\VC\Tools\MSVC\14.44.35207\include\xmemory

; 289  :         ::operator delete(_Ptr, _Bytes);

  00197	83 c4 08	 add	 esp, 8
; File C:\IAGOS\server\v18\Source\Source\DatabaseServer\Project.cpp

; 95   : }

  0019a	8d 8b 58 fe 04
	00		 lea	 ecx, DWORD PTR [ebx+327256]
  001a0	e8 00 00 00 00	 call	 ??1?$vector@UtagBeginItem@@V?$allocator@UtagBeginItem@@@std@@@std@@QAE@XZ ; std::vector<tagBeginItem,std::allocator<tagBeginItem> >::~vector<tagBeginItem,std::allocator<tagBeginItem> >
  001a5	8d 8b b8 00 00
	00		 lea	 ecx, DWORD PTR [ebx+184]
  001ab	e8 00 00 00 00	 call	 ??1CGuildCombat1to1Mng@@UAE@XZ ; CGuildCombat1to1Mng::~CGuildCombat1to1Mng
  001b0	8d 8b 84 00 00
	00		 lea	 ecx, DWORD PTR [ebx+132]
  001b6	e8 00 00 00 00	 call	 ??1CEventLua@@UAE@XZ	; CEventLua::~CEventLua
; File C:\IAGOS\server\v18\Source\Source\_Common\Data.h

; 239  : 	SAFE_DELETE_ARRAY( m_apOffset );

  001bb	8b 43 68	 mov	 eax, DWORD PTR [ebx+104]
  001be	c7 43 60 00 00
	00 00		 mov	 DWORD PTR [ebx+96], OFFSET ??_7?$CFixedArray@UtagColorText@@@@6B@
  001c5	85 c0		 test	 eax, eax
  001c7	74 10		 je	 SHORT $LN94@CProject
  001c9	50		 push	 eax
  001ca	e8 00 00 00 00	 call	 ??_V@YAXPAX@Z		; operator delete[]
  001cf	83 c4 04	 add	 esp, 4
  001d2	c7 43 68 00 00
	00 00		 mov	 DWORD PTR [ebx+104], 0
$LN94@CProject:

; 240  : 	SAFE_DELETE_ARRAY( m_pData ); 

  001d9	8b 43 64	 mov	 eax, DWORD PTR [ebx+100]
  001dc	85 c0		 test	 eax, eax
  001de	74 10		 je	 SHORT $LN95@CProject
  001e0	50		 push	 eax
  001e1	e8 00 00 00 00	 call	 ??_V@YAXPAX@Z		; operator delete[]
  001e6	83 c4 04	 add	 esp, 4
  001e9	c7 43 64 00 00
	00 00		 mov	 DWORD PTR [ebx+100], 0
$LN95@CProject:

; 239  : 	SAFE_DELETE_ARRAY( m_apOffset );

  001f0	8b 43 3c	 mov	 eax, DWORD PTR [ebx+60]
  001f3	c7 43 34 00 00
	00 00		 mov	 DWORD PTR [ebx+52], OFFSET ??_7?$CFixedArray@UItemProp@@@@6B@
  001fa	85 c0		 test	 eax, eax
  001fc	74 10		 je	 SHORT $LN99@CProject
  001fe	50		 push	 eax
  001ff	e8 00 00 00 00	 call	 ??_V@YAXPAX@Z		; operator delete[]
  00204	83 c4 04	 add	 esp, 4
  00207	c7 43 3c 00 00
	00 00		 mov	 DWORD PTR [ebx+60], 0
$LN99@CProject:

; 240  : 	SAFE_DELETE_ARRAY( m_pData ); 

  0020e	8b 43 38	 mov	 eax, DWORD PTR [ebx+56]
  00211	85 c0		 test	 eax, eax
  00213	74 10		 je	 SHORT $LN100@CProject
  00215	50		 push	 eax
  00216	e8 00 00 00 00	 call	 ??_V@YAXPAX@Z		; operator delete[]
  0021b	83 c4 04	 add	 esp, 4
  0021e	c7 43 38 00 00
	00 00		 mov	 DWORD PTR [ebx+56], 0
$LN100@CProject:

; 239  : 	SAFE_DELETE_ARRAY( m_apOffset );

  00225	8b 43 18	 mov	 eax, DWORD PTR [ebx+24]
  00228	c7 43 10 00 00
	00 00		 mov	 DWORD PTR [ebx+16], OFFSET ??_7?$CFixedArray@UItemProp@@@@6B@
  0022f	85 c0		 test	 eax, eax
  00231	74 10		 je	 SHORT $LN104@CProject
  00233	50		 push	 eax
  00234	e8 00 00 00 00	 call	 ??_V@YAXPAX@Z		; operator delete[]
  00239	83 c4 04	 add	 esp, 4
  0023c	c7 43 18 00 00
	00 00		 mov	 DWORD PTR [ebx+24], 0
$LN104@CProject:

; 240  : 	SAFE_DELETE_ARRAY( m_pData ); 

  00243	8b 43 14	 mov	 eax, DWORD PTR [ebx+20]
  00246	85 c0		 test	 eax, eax
  00248	74 10		 je	 SHORT $LN105@CProject
  0024a	50		 push	 eax
  0024b	e8 00 00 00 00	 call	 ??_V@YAXPAX@Z		; operator delete[]
  00250	83 c4 04	 add	 esp, 4
  00253	c7 43 14 00 00
	00 00		 mov	 DWORD PTR [ebx+20], 0
$LN105@CProject:
; File C:\Program Files\Microsoft Visual Studio\2022\Professional\VC\Tools\MSVC\14.44.35207\include\xtree

; 777  :         _Erase_tree(_Al, _Myhead->_Parent);

  0025a	8b 43 08	 mov	 eax, DWORD PTR [ebx+8]
; File C:\IAGOS\server\v18\Source\Source\DatabaseServer\Project.cpp

; 95   : }

  0025d	8d 73 08	 lea	 esi, DWORD PTR [ebx+8]
; File C:\Program Files\Microsoft Visual Studio\2022\Professional\VC\Tools\MSVC\14.44.35207\include\xtree

; 777  :         _Erase_tree(_Al, _Myhead->_Parent);

  00260	8b ce		 mov	 ecx, esi
  00262	ff 70 04	 push	 DWORD PTR [eax+4]
  00265	56		 push	 esi
  00266	e8 00 00 00 00	 call	 ??$_Erase_tree@V?$allocator@U?$_Tree_node@U?$pair@$$CBV?$basic_string@DU?$char_traits@D@std@@V?$allocator@D@2@@std@@K@std@@PAX@std@@@std@@@?$_Tree_val@U?$_Tree_simple_types@U?$pair@$$CBV?$basic_string@DU?$char_traits@D@std@@V?$allocator@D@2@@std@@K@std@@@std@@@std@@QAEXAAV?$allocator@U?$_Tree_node@U?$pair@$$CBV?$basic_string@DU?$char_traits@D@std@@V?$allocator@D@2@@std@@K@std@@PAX@std@@@1@PAU?$_Tree_node@U?$pair@$$CBV?$basic_string@DU?$char_traits@D@std@@V?$allocator@D@2@@std@@K@std@@PAX@1@@Z ; std::_Tree_val<std::_Tree_simple_types<std::pair<std::basic_string<char,std::char_traits<char>,std::allocator<char> > const ,unsigned long> > >::_Erase_tree<std::allocator<std::_Tree_node<std::pair<std::basic_string<char,std::char_traits<char>,std::allocator<char> > const ,unsigned long>,void *> > >
; File C:\Program Files\Microsoft Visual Studio\2022\Professional\VC\Tools\MSVC\14.44.35207\include\xmemory

; 289  :         ::operator delete(_Ptr, _Bytes);

  0026b	6a 2c		 push	 44			; 0000002cH
  0026d	ff 36		 push	 DWORD PTR [esi]
  0026f	e8 00 00 00 00	 call	 ??3@YAXPAXI@Z		; operator delete
  00274	83 c4 08	 add	 esp, 8
; File C:\IAGOS\server\v18\Source\Source\DatabaseServer\Project.cpp

; 95   : }

  00277	8b 4d f4	 mov	 ecx, DWORD PTR __$EHRec$[ebp]
  0027a	64 89 0d 00 00
	00 00		 mov	 DWORD PTR fs:0, ecx
  00281	59		 pop	 ecx
  00282	5f		 pop	 edi
  00283	5e		 pop	 esi
  00284	5b		 pop	 ebx
  00285	8b e5		 mov	 esp, ebp
  00287	5d		 pop	 ebp
  00288	c3		 ret	 0
  00289	cc		 int	 3
  0028a	cc		 int	 3
  0028b	cc		 int	 3
  0028c	cc		 int	 3
  0028d	cc		 int	 3
_TEXT	ENDS
;	COMDAT text$x
text$x	SEGMENT
__ehhandler$??1CProject@@UAE@XZ:
  00000	90		 npad	 1
  00001	90		 npad	 1
  00002	8b 54 24 08	 mov	 edx, DWORD PTR [esp+8]
  00006	8d 42 0c	 lea	 eax, DWORD PTR [edx+12]
  00009	8b 4a e8	 mov	 ecx, DWORD PTR [edx-24]
  0000c	33 c8		 xor	 ecx, eax
  0000e	e8 00 00 00 00	 call	 @__security_check_cookie@4
  00013	b8 00 00 00 00	 mov	 eax, OFFSET __ehfuncinfo$??1CProject@@UAE@XZ
  00018	e9 00 00 00 00	 jmp	 ___CxxFrameHandler3
text$x	ENDS
??1CProject@@UAE@XZ ENDP				; CProject::~CProject
; Function compile flags: /Ogtp
; File C:\IAGOS\server\v18\Source\Source\DatabaseServer\Project.cpp
; File C:\Program Files\Microsoft Visual Studio\2022\Professional\VC\Tools\MSVC\14.44.35207\include\xmemory
; File C:\Program Files\Microsoft Visual Studio\2022\Professional\VC\Tools\MSVC\14.44.35207\include\xtree
; File C:\Program Files\Microsoft Visual Studio\2022\Professional\VC\Tools\MSVC\14.44.35207\include\xmemory
; File C:\Program Files\Microsoft Visual Studio\2022\Professional\VC\Tools\MSVC\14.44.35207\include\xtree
; File C:\IAGOS\server\v18\Source\Source\DatabaseServer\Project.cpp
; File C:\IAGOS\server\v18\Source\Source\_Common\Data.h
; File C:\IAGOS\server\v18\Source\Source\DatabaseServer\Project.cpp
; File C:\IAGOS\server\v18\Source\Source\_Common\Data.h
; File C:\IAGOS\server\v18\Source\Source\DatabaseServer\Project.cpp
; File C:\Program Files\Microsoft Visual Studio\2022\Professional\VC\Tools\MSVC\14.44.35207\include\xtree
; File C:\IAGOS\server\v18\Source\Source\DatabaseServer\Project.cpp
; File C:\IAGOS\server\v18\Source\Source\DatabaseServer\Project.h
; File C:\IAGOS\server\v18\Source\Source\DatabaseServer\Project.cpp
; File C:\IAGOS\server\v18\Source\Source\DatabaseServer\Project.h
; File C:\IAGOS\server\v18\Source\Source\DatabaseServer\Project.cpp
; File C:\IAGOS\server\v18\Source\Source\DatabaseServer\Project.h
; File C:\IAGOS\server\v18\Source\Source\DatabaseServer\Project.cpp
; File C:\IAGOS\server\v18\Source\Source\DatabaseServer\Project.h
; File C:\Program Files\Microsoft Visual Studio\2022\Professional\VC\Tools\MSVC\14.44.35207\include\vector
; File C:\IAGOS\server\v18\Source\Source\DatabaseServer\Project.cpp
; File C:\Program Files\Microsoft Visual Studio\2022\Professional\VC\Tools\MSVC\14.44.35207\include\xmemory
; File C:\Program Files\Microsoft Visual Studio\2022\Professional\VC\Tools\MSVC\14.44.35207\include\xtree
; File C:\Program Files\Microsoft Visual Studio\2022\Professional\VC\Tools\MSVC\14.44.35207\include\xmemory
; File C:\Program Files\Microsoft Visual Studio\2022\Professional\VC\Tools\MSVC\14.44.35207\include\xtree
; File C:\IAGOS\server\v18\Source\Source\DatabaseServer\Project.cpp
; File C:\Program Files\Microsoft Visual Studio\2022\Professional\VC\Tools\MSVC\14.44.35207\include\xmemory
; File C:\Program Files\Microsoft Visual Studio\2022\Professional\VC\Tools\MSVC\14.44.35207\include\xtree
; File C:\Program Files\Microsoft Visual Studio\2022\Professional\VC\Tools\MSVC\14.44.35207\include\xmemory
; File C:\Program Files\Microsoft Visual Studio\2022\Professional\VC\Tools\MSVC\14.44.35207\include\xtree
; File C:\IAGOS\server\v18\Source\Source\DatabaseServer\Project.cpp
; File C:\Program Files\Microsoft Visual Studio\2022\Professional\VC\Tools\MSVC\14.44.35207\include\xmemory
; File C:\Program Files\Microsoft Visual Studio\2022\Professional\VC\Tools\MSVC\14.44.35207\include\xtree
; File C:\Program Files\Microsoft Visual Studio\2022\Professional\VC\Tools\MSVC\14.44.35207\include\xmemory
; File C:\Program Files\Microsoft Visual Studio\2022\Professional\VC\Tools\MSVC\14.44.35207\include\xtree
; File C:\IAGOS\server\v18\Source\Source\DatabaseServer\Project.cpp
; File C:\Program Files\Microsoft Visual Studio\2022\Professional\VC\Tools\MSVC\14.44.35207\include\xmemory
; File C:\Program Files\Microsoft Visual Studio\2022\Professional\VC\Tools\MSVC\14.44.35207\include\xtree
; File C:\Program Files\Microsoft Visual Studio\2022\Professional\VC\Tools\MSVC\14.44.35207\include\xmemory
; File C:\Program Files\Microsoft Visual Studio\2022\Professional\VC\Tools\MSVC\14.44.35207\include\xtree
; File C:\IAGOS\server\v18\Source\Source\DatabaseServer\Project.cpp
;	COMDAT ??0CProject@@QAE@XZ
_TEXT	SEGMENT
$T2 = -20						; size = 4
_this$ = -20						; size = 4
_this$ = -20						; size = 4
_this$ = -20						; size = 4
_this$ = -20						; size = 4
_this$ = -20						; size = 4
_this$ = -16						; size = 4
__$EHRec$ = -12						; size = 12
??0CProject@@QAE@XZ PROC				; CProject::CProject, COMDAT
; _this$ = ecx

; 38   : {

  00000	55		 push	 ebp
  00001	8b ec		 mov	 ebp, esp
  00003	6a ff		 push	 -1
  00005	68 00 00 00 00	 push	 __ehhandler$??0CProject@@QAE@XZ
  0000a	64 a1 00 00 00
	00		 mov	 eax, DWORD PTR fs:0
  00010	50		 push	 eax
  00011	83 ec 08	 sub	 esp, 8
  00014	56		 push	 esi
  00015	57		 push	 edi
  00016	a1 00 00 00 00	 mov	 eax, DWORD PTR ___security_cookie
  0001b	33 c5		 xor	 eax, ebp
  0001d	50		 push	 eax
  0001e	8d 45 f4	 lea	 eax, DWORD PTR __$EHRec$[ebp]
  00021	64 a3 00 00 00
	00		 mov	 DWORD PTR fs:0, eax
  00027	8b f9		 mov	 edi, ecx
  00029	89 7d f0	 mov	 DWORD PTR _this$[ebp], edi
  0002c	8d 77 08	 lea	 esi, DWORD PTR [edi+8]
  0002f	c7 07 00 00 00
	00		 mov	 DWORD PTR [edi], OFFSET ??_7CProject@@6B@
  00035	89 75 ec	 mov	 DWORD PTR _this$[ebp], esi
; File C:\Program Files\Microsoft Visual Studio\2022\Professional\VC\Tools\MSVC\14.44.35207\include\xmemory

; 136  :         return ::operator new(_Bytes);

  00038	6a 2c		 push	 44			; 0000002cH
; File C:\Program Files\Microsoft Visual Studio\2022\Professional\VC\Tools\MSVC\14.44.35207\include\xtree

; 450  :     _Tree_val() noexcept : _Myhead(), _Mysize(0) {}

  0003a	c7 06 00 00 00
	00		 mov	 DWORD PTR [esi], 0
  00040	c7 46 04 00 00
	00 00		 mov	 DWORD PTR [esi+4], 0
; File C:\Program Files\Microsoft Visual Studio\2022\Professional\VC\Tools\MSVC\14.44.35207\include\xmemory

; 136  :         return ::operator new(_Bytes);

  00047	e8 00 00 00 00	 call	 ??2@YAPAXI@Z		; operator new
  0004c	83 c4 04	 add	 esp, 4
; File C:\Program Files\Microsoft Visual Studio\2022\Professional\VC\Tools\MSVC\14.44.35207\include\xtree

; 346  :         _Construct_in_place(_Pnode->_Left, _Pnode);

  0004f	89 00		 mov	 DWORD PTR [eax], eax

; 347  :         _Construct_in_place(_Pnode->_Parent, _Pnode);

  00051	89 40 04	 mov	 DWORD PTR [eax+4], eax

; 348  :         _Construct_in_place(_Pnode->_Right, _Pnode);

  00054	89 40 08	 mov	 DWORD PTR [eax+8], eax

; 349  :         _Pnode->_Color = _Black;

  00057	66 c7 40 0c 01
	01		 mov	 WORD PTR [eax+12], 257	; 00000101H

; 1957 :         _Scary->_Myhead = _Node::_Buyheadnode(_Getal());

  0005d	89 06		 mov	 DWORD PTR [esi], eax
; File C:\IAGOS\server\v18\Source\Source\DatabaseServer\Project.cpp

; 38   : {

  0005f	8d 4f 10	 lea	 ecx, DWORD PTR [edi+16]
  00062	c7 45 fc 00 00
	00 00		 mov	 DWORD PTR __$EHRec$[ebp+8], 0
  00069	e8 00 00 00 00	 call	 ??0?$CFixedArray@UItemProp@@@@QAE@XZ ; CFixedArray<ItemProp>::CFixedArray<ItemProp>
  0006e	8d 4f 34	 lea	 ecx, DWORD PTR [edi+52]
  00071	c6 45 fc 01	 mov	 BYTE PTR __$EHRec$[ebp+8], 1
  00075	e8 00 00 00 00	 call	 ??0?$CFixedArray@UItemProp@@@@QAE@XZ ; CFixedArray<ItemProp>::CFixedArray<ItemProp>
; File C:\IAGOS\server\v18\Source\Source\_Common\Data.h

; 260  : 	m_pData = new BYTE[ sizeof( T ) * nMaxNum ];

  0007a	68 20 03 00 00	 push	 800			; 00000320H
; File C:\IAGOS\server\v18\Source\Source\DatabaseServer\Project.cpp

; 38   : {

  0007f	c6 45 fc 02	 mov	 BYTE PTR __$EHRec$[ebp+8], 2
; File C:\IAGOS\server\v18\Source\Source\_Common\Data.h

; 230  : {

  00083	c7 47 60 00 00
	00 00		 mov	 DWORD PTR [edi+96], OFFSET ??_7?$CFixedArray@UtagColorText@@@@6B@

; 231  : 	m_pData = NULL;

  0008a	c7 47 64 00 00
	00 00		 mov	 DWORD PTR [edi+100], 0

; 232  : 	m_apOffset = NULL;

  00091	c7 47 68 00 00
	00 00		 mov	 DWORD PTR [edi+104], 0

; 233  : 	m_nEndByte = 0;

  00098	c7 47 7c 00 00
	00 00		 mov	 DWORD PTR [edi+124], 0

; 234  : 	m_nEndIndex = -1;

  0009f	c7 87 80 00 00
	00 ff ff ff ff	 mov	 DWORD PTR [edi+128], -1

; 260  : 	m_pData = new BYTE[ sizeof( T ) * nMaxNum ];

  000a9	e8 00 00 00 00	 call	 ??_U@YAPAXI@Z		; operator new[]

; 261  : 	m_apOffset = new LPBYTE [ nMaxIndex ];

  000ae	68 90 01 00 00	 push	 400			; 00000190H
  000b3	89 47 64	 mov	 DWORD PTR [edi+100], eax
  000b6	e8 00 00 00 00	 call	 ??_U@YAPAXI@Z		; operator new[]

; 262  : 	ZeroMemory( m_apOffset, sizeof( LPBYTE ) * nMaxIndex );

  000bb	68 90 01 00 00	 push	 400			; 00000190H
  000c0	6a 00		 push	 0
  000c2	50		 push	 eax
  000c3	89 47 68	 mov	 DWORD PTR [edi+104], eax
  000c6	e8 00 00 00 00	 call	 _memset
  000cb	83 c4 14	 add	 esp, 20			; 00000014H

; 263  : 	m_nMaxByte = sizeof( T ) * nMaxNum;

  000ce	c7 47 74 20 03
	00 00		 mov	 DWORD PTR [edi+116], 800 ; 00000320H

; 264  : 	m_nMaxIndex = nMaxIndex;

  000d5	c7 47 78 64 00
	00 00		 mov	 DWORD PTR [edi+120], 100 ; 00000064H

; 265  : 	m_nCurOffset = 0;

  000dc	c7 47 6c 00 00
	00 00		 mov	 DWORD PTR [edi+108], 0

; 266  : 	m_nCurNum = 0;

  000e3	c7 47 70 00 00
	00 00		 mov	 DWORD PTR [edi+112], 0
; File C:\IAGOS\server\v18\Source\Source\DatabaseServer\Project.cpp

; 38   : {

  000ea	8d 8f 84 00 00
	00		 lea	 ecx, DWORD PTR [edi+132]
  000f0	c6 45 fc 03	 mov	 BYTE PTR __$EHRec$[ebp+8], 3
  000f4	e8 00 00 00 00	 call	 ??0CEventLua@@QAE@XZ	; CEventLua::CEventLua
  000f9	8d 8f b8 00 00
	00		 lea	 ecx, DWORD PTR [edi+184]
  000ff	c6 45 fc 04	 mov	 BYTE PTR __$EHRec$[ebp+8], 4
  00103	e8 00 00 00 00	 call	 ??0CGuildCombat1to1Mng@@QAE@XZ ; CGuildCombat1to1Mng::CGuildCombat1to1Mng
  00108	8d 8f 20 34 00
	00		 lea	 ecx, DWORD PTR [edi+13344]
; File C:\Program Files\Microsoft Visual Studio\2022\Professional\VC\Tools\MSVC\14.44.35207\include\xtree

; 345  :         const auto _Pnode = _Al.allocate(1);

  0010e	ba 00 04 00 00	 mov	 edx, 1024		; 00000400H
; File C:\IAGOS\server\v18\Source\Source\DatabaseServer\Project.cpp

; 38   : {

  00113	8d 41 2c	 lea	 eax, DWORD PTR [ecx+44]
  00116	66 66 0f 1f 84
	00 00 00 00 00	 npad	 10
$LL57@CProject:
; File C:\IAGOS\server\v18\Source\Source\DatabaseServer\Project.h

; 38   : 		szMonsterName[0] = '\0';

  00120	c6 01 00	 mov	 BYTE PTR [ecx], 0
  00123	8d 49 40	 lea	 ecx, DWORD PTR [ecx+64]

; 39   : 		vPos = D3DXVECTOR3( 0.0f, 0.0f, 0.0f );

  00126	c7 40 f8 00 00
	00 00		 mov	 DWORD PTR [eax-8], 0
  0012d	8d 40 40	 lea	 eax, DWORD PTR [eax+64]
  00130	c7 40 bc 00 00
	00 00		 mov	 DWORD PTR [eax-68], 0
  00137	c7 40 c0 00 00
	00 00		 mov	 DWORD PTR [eax-64], 0

; 40   : 		nQuantity = 0;

  0013e	c7 40 c4 00 00
	00 00		 mov	 DWORD PTR [eax-60], 0

; 41   : 		nAggressive = 0;

  00145	c7 40 c8 00 00
	00 00		 mov	 DWORD PTR [eax-56], 0

; 42   : 		nRange = 0;

  0014c	c7 40 cc 00 00
	00 00		 mov	 DWORD PTR [eax-52], 0

; 43   : 		nTime = 0;

  00153	c7 40 d0 00 00
	00 00		 mov	 DWORD PTR [eax-48], 0

; 44   : 		nRespawnIndex = 0;

  0015a	c7 40 b4 00 00
	00 00		 mov	 DWORD PTR [eax-76], 0
  00161	83 ea 01	 sub	 edx, 1
  00164	75 ba		 jne	 SHORT $LL57@CProject
; File C:\IAGOS\server\v18\Source\Source\DatabaseServer\Project.cpp

; 38   : {

  00166	8d 8f 20 34 01
	00		 lea	 ecx, DWORD PTR [edi+78880]
  0016c	ba 00 04 00 00	 mov	 edx, 1024		; 00000400H
  00171	8d 41 2c	 lea	 eax, DWORD PTR [ecx+44]
  00174	0f 1f 40 00 0f
	1f 84 00 00 00
	00 00		 npad	 12
$LL65@CProject:
; File C:\IAGOS\server\v18\Source\Source\DatabaseServer\Project.h

; 38   : 		szMonsterName[0] = '\0';

  00180	c6 01 00	 mov	 BYTE PTR [ecx], 0
  00183	8d 49 40	 lea	 ecx, DWORD PTR [ecx+64]

; 39   : 		vPos = D3DXVECTOR3( 0.0f, 0.0f, 0.0f );

  00186	c7 40 f8 00 00
	00 00		 mov	 DWORD PTR [eax-8], 0
  0018d	8d 40 40	 lea	 eax, DWORD PTR [eax+64]
  00190	c7 40 bc 00 00
	00 00		 mov	 DWORD PTR [eax-68], 0
  00197	c7 40 c0 00 00
	00 00		 mov	 DWORD PTR [eax-64], 0

; 40   : 		nQuantity = 0;

  0019e	c7 40 c4 00 00
	00 00		 mov	 DWORD PTR [eax-60], 0

; 41   : 		nAggressive = 0;

  001a5	c7 40 c8 00 00
	00 00		 mov	 DWORD PTR [eax-56], 0

; 42   : 		nRange = 0;

  001ac	c7 40 cc 00 00
	00 00		 mov	 DWORD PTR [eax-52], 0

; 43   : 		nTime = 0;

  001b3	c7 40 d0 00 00
	00 00		 mov	 DWORD PTR [eax-48], 0

; 44   : 		nRespawnIndex = 0;

  001ba	c7 40 b4 00 00
	00 00		 mov	 DWORD PTR [eax-76], 0
  001c1	83 ea 01	 sub	 edx, 1
  001c4	75 ba		 jne	 SHORT $LL65@CProject
; File C:\IAGOS\server\v18\Source\Source\DatabaseServer\Project.cpp

; 38   : {

  001c6	8d 87 28 34 02
	00		 lea	 eax, DWORD PTR [edi+144424]
  001cc	b9 00 04 00 00	 mov	 ecx, 1024		; 00000400H
$LL73@CProject:
; File C:\IAGOS\server\v18\Source\Source\DatabaseServer\Project.h

; 60   : 		szMonsterName[0] = '\0';

  001d1	c6 00 00	 mov	 BYTE PTR [eax], 0
  001d4	8d 40 38	 lea	 eax, DWORD PTR [eax+56]

; 61   : 		nHitPoint = 0;

  001d7	c7 40 e8 00 00
	00 00		 mov	 DWORD PTR [eax-24], 0

; 62   : 		nAttackPower = 0;

  001de	c7 40 ec 00 00
	00 00		 mov	 DWORD PTR [eax-20], 0

; 63   : 		nDefence = 0;

  001e5	c7 40 f0 00 00
	00 00		 mov	 DWORD PTR [eax-16], 0

; 64   : 		nExp = 0;

  001ec	c7 40 f4 00 00
	00 00		 mov	 DWORD PTR [eax-12], 0

; 65   : 		nItemDrop = 0;

  001f3	c7 40 f8 00 00
	00 00		 mov	 DWORD PTR [eax-8], 0

; 66   : 		nPenya = 0;

  001fa	c7 40 fc 00 00
	00 00		 mov	 DWORD PTR [eax-4], 0
  00201	83 e9 01	 sub	 ecx, 1
  00204	75 cb		 jne	 SHORT $LL73@CProject
; File C:\IAGOS\server\v18\Source\Source\DatabaseServer\Project.cpp

; 38   : {

  00206	8d 87 28 14 03
	00		 lea	 eax, DWORD PTR [edi+201768]
  0020c	b9 00 04 00 00	 mov	 ecx, 1024		; 00000400H
$LL79@CProject:
; File C:\IAGOS\server\v18\Source\Source\DatabaseServer\Project.h

; 60   : 		szMonsterName[0] = '\0';

  00211	c6 00 00	 mov	 BYTE PTR [eax], 0
  00214	8d 40 38	 lea	 eax, DWORD PTR [eax+56]

; 61   : 		nHitPoint = 0;

  00217	c7 40 e8 00 00
	00 00		 mov	 DWORD PTR [eax-24], 0

; 62   : 		nAttackPower = 0;

  0021e	c7 40 ec 00 00
	00 00		 mov	 DWORD PTR [eax-20], 0

; 63   : 		nDefence = 0;

  00225	c7 40 f0 00 00
	00 00		 mov	 DWORD PTR [eax-16], 0

; 64   : 		nExp = 0;

  0022c	c7 40 f4 00 00
	00 00		 mov	 DWORD PTR [eax-12], 0

; 65   : 		nItemDrop = 0;

  00233	c7 40 f8 00 00
	00 00		 mov	 DWORD PTR [eax-8], 0

; 66   : 		nPenya = 0;

  0023a	c7 40 fc 00 00
	00 00		 mov	 DWORD PTR [eax-4], 0
  00241	83 e9 01	 sub	 ecx, 1
  00244	75 cb		 jne	 SHORT $LL79@CProject
; File C:\Program Files\Microsoft Visual Studio\2022\Professional\VC\Tools\MSVC\14.44.35207\include\vector

; 400  :     _CONSTEXPR20 _Vector_val() noexcept : _Myfirst(), _Mylast(), _Myend() {}

  00246	89 8f 58 fe 04
	00		 mov	 DWORD PTR [edi+327256], ecx
  0024c	89 8f 5c fe 04
	00		 mov	 DWORD PTR [edi+327260], ecx
  00252	89 8f 60 fe 04
	00		 mov	 DWORD PTR [edi+327264], ecx
; File C:\IAGOS\server\v18\Source\Source\DatabaseServer\Project.cpp

; 38   : {

  00258	8d b7 64 fe 04
	00		 lea	 esi, DWORD PTR [edi+327268]
  0025e	c6 45 fc 06	 mov	 BYTE PTR __$EHRec$[ebp+8], 6
  00262	89 75 ec	 mov	 DWORD PTR _this$[ebp], esi
; File C:\Program Files\Microsoft Visual Studio\2022\Professional\VC\Tools\MSVC\14.44.35207\include\xmemory

; 136  :         return ::operator new(_Bytes);

  00265	6a 2c		 push	 44			; 0000002cH
; File C:\Program Files\Microsoft Visual Studio\2022\Professional\VC\Tools\MSVC\14.44.35207\include\xtree

; 450  :     _Tree_val() noexcept : _Myhead(), _Mysize(0) {}

  00267	89 0e		 mov	 DWORD PTR [esi], ecx
  00269	89 4e 04	 mov	 DWORD PTR [esi+4], ecx
; File C:\Program Files\Microsoft Visual Studio\2022\Professional\VC\Tools\MSVC\14.44.35207\include\xmemory

; 136  :         return ::operator new(_Bytes);

  0026c	e8 00 00 00 00	 call	 ??2@YAPAXI@Z		; operator new
; File C:\Program Files\Microsoft Visual Studio\2022\Professional\VC\Tools\MSVC\14.44.35207\include\xtree

; 346  :         _Construct_in_place(_Pnode->_Left, _Pnode);

  00271	89 00		 mov	 DWORD PTR [eax], eax

; 347  :         _Construct_in_place(_Pnode->_Parent, _Pnode);

  00273	89 40 04	 mov	 DWORD PTR [eax+4], eax

; 348  :         _Construct_in_place(_Pnode->_Right, _Pnode);

  00276	89 40 08	 mov	 DWORD PTR [eax+8], eax

; 349  :         _Pnode->_Color = _Black;

  00279	66 c7 40 0c 01
	01		 mov	 WORD PTR [eax+12], 257	; 00000101H

; 1957 :         _Scary->_Myhead = _Node::_Buyheadnode(_Getal());

  0027f	89 06		 mov	 DWORD PTR [esi], eax
; File C:\IAGOS\server\v18\Source\Source\DatabaseServer\Project.cpp

; 38   : {

  00281	8d b7 3c 15 05
	00		 lea	 esi, DWORD PTR [edi+333116]
  00287	c6 45 fc 07	 mov	 BYTE PTR __$EHRec$[ebp+8], 7
  0028b	89 75 ec	 mov	 DWORD PTR _this$[ebp], esi
; File C:\Program Files\Microsoft Visual Studio\2022\Professional\VC\Tools\MSVC\14.44.35207\include\xmemory

; 136  :         return ::operator new(_Bytes);

  0028e	6a 28		 push	 40			; 00000028H
; File C:\Program Files\Microsoft Visual Studio\2022\Professional\VC\Tools\MSVC\14.44.35207\include\xtree

; 450  :     _Tree_val() noexcept : _Myhead(), _Mysize(0) {}

  00290	c7 06 00 00 00
	00		 mov	 DWORD PTR [esi], 0
  00296	c7 46 04 00 00
	00 00		 mov	 DWORD PTR [esi+4], 0
; File C:\Program Files\Microsoft Visual Studio\2022\Professional\VC\Tools\MSVC\14.44.35207\include\xmemory

; 136  :         return ::operator new(_Bytes);

  0029d	e8 00 00 00 00	 call	 ??2@YAPAXI@Z		; operator new
; File C:\Program Files\Microsoft Visual Studio\2022\Professional\VC\Tools\MSVC\14.44.35207\include\xtree

; 346  :         _Construct_in_place(_Pnode->_Left, _Pnode);

  002a2	89 00		 mov	 DWORD PTR [eax], eax

; 347  :         _Construct_in_place(_Pnode->_Parent, _Pnode);

  002a4	89 40 04	 mov	 DWORD PTR [eax+4], eax

; 348  :         _Construct_in_place(_Pnode->_Right, _Pnode);

  002a7	89 40 08	 mov	 DWORD PTR [eax+8], eax

; 349  :         _Pnode->_Color = _Black;

  002aa	66 c7 40 0c 01
	01		 mov	 WORD PTR [eax+12], 257	; 00000101H

; 1957 :         _Scary->_Myhead = _Node::_Buyheadnode(_Getal());

  002b0	89 06		 mov	 DWORD PTR [esi], eax
; File C:\IAGOS\server\v18\Source\Source\DatabaseServer\Project.cpp

; 38   : {

  002b2	8d b7 44 15 05
	00		 lea	 esi, DWORD PTR [edi+333124]
  002b8	c6 45 fc 08	 mov	 BYTE PTR __$EHRec$[ebp+8], 8
  002bc	89 75 ec	 mov	 DWORD PTR _this$[ebp], esi
; File C:\Program Files\Microsoft Visual Studio\2022\Professional\VC\Tools\MSVC\14.44.35207\include\xmemory

; 136  :         return ::operator new(_Bytes);

  002bf	6a 10		 push	 16			; 00000010H
; File C:\Program Files\Microsoft Visual Studio\2022\Professional\VC\Tools\MSVC\14.44.35207\include\xtree

; 450  :     _Tree_val() noexcept : _Myhead(), _Mysize(0) {}

  002c1	c7 06 00 00 00
	00		 mov	 DWORD PTR [esi], 0
  002c7	c7 46 04 00 00
	00 00		 mov	 DWORD PTR [esi+4], 0
; File C:\Program Files\Microsoft Visual Studio\2022\Professional\VC\Tools\MSVC\14.44.35207\include\xmemory

; 136  :         return ::operator new(_Bytes);

  002ce	e8 00 00 00 00	 call	 ??2@YAPAXI@Z		; operator new
; File C:\Program Files\Microsoft Visual Studio\2022\Professional\VC\Tools\MSVC\14.44.35207\include\xtree

; 346  :         _Construct_in_place(_Pnode->_Left, _Pnode);

  002d3	89 00		 mov	 DWORD PTR [eax], eax

; 347  :         _Construct_in_place(_Pnode->_Parent, _Pnode);

  002d5	89 40 04	 mov	 DWORD PTR [eax+4], eax

; 348  :         _Construct_in_place(_Pnode->_Right, _Pnode);

  002d8	89 40 08	 mov	 DWORD PTR [eax+8], eax

; 349  :         _Pnode->_Color = _Black;

  002db	66 c7 40 0c 01
	01		 mov	 WORD PTR [eax+12], 257	; 00000101H

; 1957 :         _Scary->_Myhead = _Node::_Buyheadnode(_Getal());

  002e1	89 06		 mov	 DWORD PTR [esi], eax
; File C:\IAGOS\server\v18\Source\Source\DatabaseServer\Project.cpp

; 38   : {

  002e3	8d b7 4c 15 05
	00		 lea	 esi, DWORD PTR [edi+333132]
  002e9	c6 45 fc 09	 mov	 BYTE PTR __$EHRec$[ebp+8], 9
  002ed	89 75 ec	 mov	 DWORD PTR _this$[ebp], esi
; File C:\Program Files\Microsoft Visual Studio\2022\Professional\VC\Tools\MSVC\14.44.35207\include\xmemory

; 136  :         return ::operator new(_Bytes);

  002f0	6a 10		 push	 16			; 00000010H
; File C:\Program Files\Microsoft Visual Studio\2022\Professional\VC\Tools\MSVC\14.44.35207\include\xtree

; 450  :     _Tree_val() noexcept : _Myhead(), _Mysize(0) {}

  002f2	c7 06 00 00 00
	00		 mov	 DWORD PTR [esi], 0
  002f8	c7 46 04 00 00
	00 00		 mov	 DWORD PTR [esi+4], 0
; File C:\Program Files\Microsoft Visual Studio\2022\Professional\VC\Tools\MSVC\14.44.35207\include\xmemory

; 136  :         return ::operator new(_Bytes);

  002ff	e8 00 00 00 00	 call	 ??2@YAPAXI@Z		; operator new
; File C:\Program Files\Microsoft Visual Studio\2022\Professional\VC\Tools\MSVC\14.44.35207\include\xtree

; 346  :         _Construct_in_place(_Pnode->_Left, _Pnode);

  00304	89 00		 mov	 DWORD PTR [eax], eax

; 347  :         _Construct_in_place(_Pnode->_Parent, _Pnode);

  00306	89 40 04	 mov	 DWORD PTR [eax+4], eax

; 348  :         _Construct_in_place(_Pnode->_Right, _Pnode);

  00309	89 40 08	 mov	 DWORD PTR [eax+8], eax

; 349  :         _Pnode->_Color = _Black;

  0030c	66 c7 40 0c 01
	01		 mov	 WORD PTR [eax+12], 257	; 00000101H

; 1957 :         _Scary->_Myhead = _Node::_Buyheadnode(_Getal());

  00312	89 06		 mov	 DWORD PTR [esi], eax
; File C:\IAGOS\server\v18\Source\Source\DatabaseServer\Project.cpp

; 39   : 	memset( m_apszWorld, 0, sizeof(TCHAR) * 64 * MAX_WORLD );

  00314	68 00 40 00 00	 push	 16384			; 00004000H
  00319	8d 87 58 7e 04
	00		 lea	 eax, DWORD PTR [edi+294488]
  0031f	c6 45 fc 0a	 mov	 BYTE PTR __$EHRec$[ebp+8], 10 ; 0000000aH
  00323	6a 00		 push	 0
  00325	50		 push	 eax
  00326	e8 00 00 00 00	 call	 _memset

; 40   : //	for( int i = 0; i < MAX_WORLD; i++ )
; 41   : //		m_apszWorld[i][0]	= '\0';
; 42   : //	m_mapII.SetSize( 128, 128, 128 );
; 43   : 	m_nMoverPropSize	= 0;
; 44   : 	m_pPropMover	= new MoverProp[MAX_PROPMOVER];

  0032b	68 44 f5 7d 01	 push	 25032004		; 017df544H
  00330	c7 47 58 00 00
	00 00		 mov	 DWORD PTR [edi+88], 0
  00337	e8 00 00 00 00	 call	 ??_U@YAPAXI@Z		; operator new[]
  0033c	83 c4 20	 add	 esp, 32			; 00000020H
  0033f	89 45 ec	 mov	 DWORD PTR $T2[ebp], eax
  00342	c6 45 fc 0b	 mov	 BYTE PTR __$EHRec$[ebp+8], 11 ; 0000000bH
  00346	85 c0		 test	 eax, eax
  00348	74 25		 je	 SHORT $LN3@CProject
  0034a	68 00 00 00 00	 push	 OFFSET ??1MoverProp@@QAE@XZ
  0034f	68 00 00 00 00	 push	 OFFSET ??0MoverProp@@QAE@XZ ; MoverProp::MoverProp
  00354	68 34 3a 00 00	 push	 14900			; 00003a34H
  00359	8d 70 04	 lea	 esi, DWORD PTR [eax+4]
  0035c	c7 00 34 3a 00
	00		 mov	 DWORD PTR [eax], 14900	; 00003a34H
  00362	68 90 06 00 00	 push	 1680			; 00000690H
  00367	56		 push	 esi
  00368	e8 00 00 00 00	 call	 ??_L@YGXPAXIIP6EX0@Z1@Z
  0036d	eb 02		 jmp	 SHORT $LN4@CProject
$LN3@CProject:
  0036f	33 f6		 xor	 esi, esi
$LN4@CProject:
  00371	89 77 5c	 mov	 DWORD PTR [edi+92], esi

; 45   : //	m_pPropMover	= (MoverProp*)::VirtualAlloc( NULL, sizeof(MoverProp) * MAX_PROPMOVER, MEM_COMMIT, PAGE_READWRITE );
; 46   : 
; 47   : 	m_fItemDropRate = 1.0f;
; 48   : 	m_fGoldDropRate = 1.0f;
; 49   : 	m_fMonsterExpRate = 1.0f;
; 50   : 	m_fMonsterHitRate = 1.0f;
; 51   : 	m_fShopCost	= 1.0f;
; 52   : #ifdef __S1108_BACK_END_SYSTEM
; 53   : 	m_fMonsterRebirthRate = 1.0f;	
; 54   : 	m_fMonsterHitpointRate = 1.0f;	
; 55   : 	m_fMonsterAggressiveRate = 0.2f;
; 56   : 	m_fMonsterRespawnRate = 1.0f;
; 57   : 	m_bBaseGameSetting = FALSE;
; 58   : 	m_nMonsterRespawnSize = 0;
; 59   : 	m_nMonsterPropSize = 0;
; 60   : 	m_nAddMonsterRespawnSize = 0;
; 61   : 	m_nAddMonsterPropSize = 0;
; 62   : 	m_nRemoveMonsterPropSize = 0;
; 63   : 	m_bBackEndSystem = FALSE;
; 64   : 	ZeroMemory( m_chBackEndSystemTime, sizeof( m_chBackEndSystemTime ) );
; 65   : 	ZeroMemory( m_chBackEndSystemChatTime, sizeof( m_chBackEndSystemChatTime ) );
; 66   : 	ZeroMemory( m_chGMChat, sizeof( m_chGMChat ) );

  00374	8d 87 52 74 04
	00		 lea	 eax, DWORD PTR [edi+291922]
  0037a	c7 87 f0 33 00
	00 00 00 80 3f	 mov	 DWORD PTR [edi+13296], 1065353216 ; 3f800000H
  00384	0f 57 c0	 xorps	 xmm0, xmm0
  00387	c7 87 f4 33 00
	00 00 00 80 3f	 mov	 DWORD PTR [edi+13300], 1065353216 ; 3f800000H
  00391	c7 87 f8 33 00
	00 00 00 80 3f	 mov	 DWORD PTR [edi+13304], 1065353216 ; 3f800000H
  0039b	c7 87 fc 33 00
	00 00 00 80 3f	 mov	 DWORD PTR [edi+13308], 1065353216 ; 3f800000H
  003a5	c7 87 00 34 00
	00 00 00 80 3f	 mov	 DWORD PTR [edi+13312], 1065353216 ; 3f800000H
  003af	c7 87 08 34 00
	00 00 00 80 3f	 mov	 DWORD PTR [edi+13320], 1065353216 ; 3f800000H
  003b9	c7 87 0c 34 00
	00 00 00 80 3f	 mov	 DWORD PTR [edi+13324], 1065353216 ; 3f800000H
  003c3	c7 87 10 34 00
	00 cd cc 4c 3e	 mov	 DWORD PTR [edi+13328], 1045220557 ; 3e4ccccdH
  003cd	c7 87 14 34 00
	00 00 00 80 3f	 mov	 DWORD PTR [edi+13332], 1065353216 ; 3f800000H
  003d7	c7 87 18 34 00
	00 00 00 00 00	 mov	 DWORD PTR [edi+13336], 0
  003e1	c7 87 24 34 02
	00 00 00 00 00	 mov	 DWORD PTR [edi+144420], 0
  003eb	c7 87 30 74 04
	00 00 00 00 00	 mov	 DWORD PTR [edi+291888], 0
  003f5	c7 87 20 34 02
	00 00 00 00 00	 mov	 DWORD PTR [edi+144416], 0
  003ff	c7 87 28 74 04
	00 00 00 00 00	 mov	 DWORD PTR [edi+291880], 0
  00409	c7 87 2c 74 04
	00 00 00 00 00	 mov	 DWORD PTR [edi+291884], 0
  00413	c7 87 1c 34 00
	00 00 00 00 00	 mov	 DWORD PTR [edi+13340], 0
  0041d	66 0f d6 87 34
	74 04 00	 movq	 QWORD PTR [edi+291892], xmm0
  00425	c7 87 3c 74 04
	00 00 00 00 00	 mov	 DWORD PTR [edi+291900], 0
  0042f	66 c7 87 40 74
	04 00 00 00	 mov	 WORD PTR [edi+291904], 0
  00438	c6 87 42 74 04
	00 00		 mov	 BYTE PTR [edi+291906], 0
  0043f	66 0f d6 87 43
	74 04 00	 movq	 QWORD PTR [edi+291907], xmm0
  00447	68 00 0a 00 00	 push	 2560			; 00000a00H
  0044c	c7 87 4b 74 04
	00 00 00 00 00	 mov	 DWORD PTR [edi+291915], 0
  00456	6a 00		 push	 0
  00458	66 c7 87 4f 74
	04 00 00 00	 mov	 WORD PTR [edi+291919], 0
  00461	50		 push	 eax
  00462	c6 87 51 74 04
	00 00		 mov	 BYTE PTR [edi+291921], 0
  00469	e8 00 00 00 00	 call	 _memset
  0046e	83 c4 0c	 add	 esp, 12			; 0000000cH

; 67   : #endif // __S1108_BACK_END_SYSTEM
; 68   : 
; 69   : 	m_bItemUpdate = FALSE;

  00471	c7 87 54 7e 04
	00 00 00 00 00	 mov	 DWORD PTR [edi+294484], 0

; 70   : #ifdef __ITEM_REMOVE_LIST
; 71   : 	m_dwConvMode = 0;

  0047b	c7 87 04 34 00
	00 00 00 00 00	 mov	 DWORD PTR [edi+13316], 0

; 72   : #endif // __ITEM_REMOVE_LIST
; 73   : }

  00485	8b c7		 mov	 eax, edi
  00487	8b 4d f4	 mov	 ecx, DWORD PTR __$EHRec$[ebp]
  0048a	64 89 0d 00 00
	00 00		 mov	 DWORD PTR fs:0, ecx
  00491	59		 pop	 ecx
  00492	5f		 pop	 edi
  00493	5e		 pop	 esi
  00494	8b e5		 mov	 esp, ebp
  00496	5d		 pop	 ebp
  00497	c3		 ret	 0
_TEXT	ENDS
;	COMDAT text$x
text$x	SEGMENT
__unwindfunclet$??0CProject@@QAE@XZ$0:
  00000	8b 4d f0	 mov	 ecx, DWORD PTR _this$[ebp]
  00003	83 c1 08	 add	 ecx, 8
  00006	e9 00 00 00 00	 jmp	 ??1?$map@V?$basic_string@DU?$char_traits@D@std@@V?$allocator@D@2@@std@@KU?$less@V?$basic_string@DU?$char_traits@D@std@@V?$allocator@D@2@@std@@@2@V?$allocator@U?$pair@$$CBV?$basic_string@DU?$char_traits@D@std@@V?$allocator@D@2@@std@@K@std@@@2@@std@@QAE@XZ
__unwindfunclet$??0CProject@@QAE@XZ$1:
  0000b	8b 4d f0	 mov	 ecx, DWORD PTR _this$[ebp]
  0000e	83 c1 10	 add	 ecx, 16			; 00000010H
  00011	e9 00 00 00 00	 jmp	 ??1?$CFixedArray@UItemProp@@@@UAE@XZ ; CFixedArray<ItemProp>::~CFixedArray<ItemProp>
__unwindfunclet$??0CProject@@QAE@XZ$2:
  00016	8b 4d f0	 mov	 ecx, DWORD PTR _this$[ebp]
  00019	83 c1 34	 add	 ecx, 52			; 00000034H
  0001c	e9 00 00 00 00	 jmp	 ??1?$CFixedArray@UItemProp@@@@UAE@XZ ; CFixedArray<ItemProp>::~CFixedArray<ItemProp>
__unwindfunclet$??0CProject@@QAE@XZ$3:
  00021	8b 4d f0	 mov	 ecx, DWORD PTR _this$[ebp]
  00024	83 c1 60	 add	 ecx, 96			; 00000060H
  00027	e9 00 00 00 00	 jmp	 ??1?$CFixedArray@UtagColorText@@@@UAE@XZ ; CFixedArray<tagColorText>::~CFixedArray<tagColorText>
__unwindfunclet$??0CProject@@QAE@XZ$4:
  0002c	8b 4d f0	 mov	 ecx, DWORD PTR _this$[ebp]
  0002f	81 c1 84 00 00
	00		 add	 ecx, 132		; 00000084H
  00035	e9 00 00 00 00	 jmp	 ??1CEventLua@@UAE@XZ	; CEventLua::~CEventLua
__unwindfunclet$??0CProject@@QAE@XZ$5:
  0003a	8b 4d f0	 mov	 ecx, DWORD PTR _this$[ebp]
  0003d	81 c1 b8 00 00
	00		 add	 ecx, 184		; 000000b8H
  00043	e9 00 00 00 00	 jmp	 ??1CGuildCombat1to1Mng@@UAE@XZ ; CGuildCombat1to1Mng::~CGuildCombat1to1Mng
__unwindfunclet$??0CProject@@QAE@XZ$6:
  00048	8b 4d f0	 mov	 ecx, DWORD PTR _this$[ebp]
  0004b	81 c1 58 fe 04
	00		 add	 ecx, 327256		; 0004fe58H
  00051	e9 00 00 00 00	 jmp	 ??1?$vector@UtagBeginItem@@V?$allocator@UtagBeginItem@@@std@@@std@@QAE@XZ ; std::vector<tagBeginItem,std::allocator<tagBeginItem> >::~vector<tagBeginItem,std::allocator<tagBeginItem> >
__unwindfunclet$??0CProject@@QAE@XZ$7:
  00056	8b 4d f0	 mov	 ecx, DWORD PTR _this$[ebp]
  00059	81 c1 64 fe 04
	00		 add	 ecx, 327268		; 0004fe64H
  0005f	e9 00 00 00 00	 jmp	 ??1?$map@V?$basic_string@DU?$char_traits@D@std@@V?$allocator@D@2@@std@@PAXU?$less@V?$basic_string@DU?$char_traits@D@std@@V?$allocator@D@2@@std@@@2@V?$allocator@U?$pair@$$CBV?$basic_string@DU?$char_traits@D@std@@V?$allocator@D@2@@std@@PAX@std@@@2@@std@@QAE@XZ
__unwindfunclet$??0CProject@@QAE@XZ$8:
  00064	8b 4d f0	 mov	 ecx, DWORD PTR _this$[ebp]
  00067	81 c1 3c 15 05
	00		 add	 ecx, 333116		; 0005153cH
  0006d	e9 00 00 00 00	 jmp	 ??1?$set@V?$basic_string@DU?$char_traits@D@std@@V?$allocator@D@2@@std@@U?$less@V?$basic_string@DU?$char_traits@D@std@@V?$allocator@D@2@@std@@@2@V?$allocator@V?$basic_string@DU?$char_traits@D@std@@V?$allocator@D@2@@std@@@2@@std@@QAE@XZ
__unwindfunclet$??0CProject@@QAE@XZ$9:
  00072	8b 4d f0	 mov	 ecx, DWORD PTR _this$[ebp]
  00075	81 c1 44 15 05
	00		 add	 ecx, 333124		; 00051544H
  0007b	e9 00 00 00 00	 jmp	 ??1?$set@DU?$less@D@std@@V?$allocator@D@2@@std@@QAE@XZ
__unwindfunclet$??0CProject@@QAE@XZ$10:
  00080	8b 4d f0	 mov	 ecx, DWORD PTR _this$[ebp]
  00083	81 c1 4c 15 05
	00		 add	 ecx, 333132		; 0005154cH
  00089	e9 00 00 00 00	 jmp	 ??1?$set@DU?$less@D@std@@V?$allocator@D@2@@std@@QAE@XZ
__unwindfunclet$??0CProject@@QAE@XZ$11:
  0008e	68 44 f5 7d 01	 push	 25032004		; 017df544H
  00093	8b 45 ec	 mov	 eax, DWORD PTR $T2[ebp]
  00096	50		 push	 eax
  00097	e8 00 00 00 00	 call	 ??_V@YAXPAXI@Z		; operator delete[]
  0009c	83 c4 08	 add	 esp, 8
  0009f	c3		 ret	 0
  000a0	cc		 int	 3
  000a1	cc		 int	 3
  000a2	cc		 int	 3
  000a3	cc		 int	 3
  000a4	cc		 int	 3
__ehhandler$??0CProject@@QAE@XZ:
  000a5	90		 npad	 1
  000a6	90		 npad	 1
  000a7	8b 54 24 08	 mov	 edx, DWORD PTR [esp+8]
  000ab	8d 42 0c	 lea	 eax, DWORD PTR [edx+12]
  000ae	8b 4a ec	 mov	 ecx, DWORD PTR [edx-20]
  000b1	33 c8		 xor	 ecx, eax
  000b3	e8 00 00 00 00	 call	 @__security_check_cookie@4
  000b8	b8 00 00 00 00	 mov	 eax, OFFSET __ehfuncinfo$??0CProject@@QAE@XZ
  000bd	e9 00 00 00 00	 jmp	 ___CxxFrameHandler3
text$x	ENDS
??0CProject@@QAE@XZ ENDP				; CProject::CProject
; Function compile flags: /Ogtp
; File C:\IAGOS\server\v18\Source\Source\DatabaseServer\Project.h
;	COMDAT ??0_MONSTER_PROP@@QAE@XZ
_TEXT	SEGMENT
??0_MONSTER_PROP@@QAE@XZ PROC				; _MONSTER_PROP::_MONSTER_PROP, COMDAT
; _this$ = ecx

; 59   : 	{
; 60   : 		szMonsterName[0] = '\0';

  00000	c6 01 00	 mov	 BYTE PTR [ecx], 0

; 61   : 		nHitPoint = 0;
; 62   : 		nAttackPower = 0;
; 63   : 		nDefence = 0;
; 64   : 		nExp = 0;
; 65   : 		nItemDrop = 0;
; 66   : 		nPenya = 0;
; 67   : 	}

  00003	8b c1		 mov	 eax, ecx
  00005	c7 41 20 00 00
	00 00		 mov	 DWORD PTR [ecx+32], 0
  0000c	c7 41 24 00 00
	00 00		 mov	 DWORD PTR [ecx+36], 0
  00013	c7 41 28 00 00
	00 00		 mov	 DWORD PTR [ecx+40], 0
  0001a	c7 41 2c 00 00
	00 00		 mov	 DWORD PTR [ecx+44], 0
  00021	c7 41 30 00 00
	00 00		 mov	 DWORD PTR [ecx+48], 0
  00028	c7 41 34 00 00
	00 00		 mov	 DWORD PTR [ecx+52], 0
  0002f	c3		 ret	 0
??0_MONSTER_PROP@@QAE@XZ ENDP				; _MONSTER_PROP::_MONSTER_PROP
_TEXT	ENDS
; Function compile flags: /Ogtp
; File C:\IAGOS\server\v18\Source\Source\DatabaseServer\Project.h
;	COMDAT ??0_MONSTER_RESPAWN@@QAE@XZ
_TEXT	SEGMENT
??0_MONSTER_RESPAWN@@QAE@XZ PROC			; _MONSTER_RESPAWN::_MONSTER_RESPAWN, COMDAT
; _this$ = ecx

; 37   : 	{	
; 38   : 		szMonsterName[0] = '\0';

  00000	c6 01 00	 mov	 BYTE PTR [ecx], 0

; 39   : 		vPos = D3DXVECTOR3( 0.0f, 0.0f, 0.0f );
; 40   : 		nQuantity = 0;
; 41   : 		nAggressive = 0;
; 42   : 		nRange = 0;
; 43   : 		nTime = 0;
; 44   : 		nRespawnIndex = 0;
; 45   : 	}

  00003	8b c1		 mov	 eax, ecx
  00005	c7 41 24 00 00
	00 00		 mov	 DWORD PTR [ecx+36], 0
  0000c	c7 41 28 00 00
	00 00		 mov	 DWORD PTR [ecx+40], 0
  00013	c7 41 2c 00 00
	00 00		 mov	 DWORD PTR [ecx+44], 0
  0001a	c7 41 30 00 00
	00 00		 mov	 DWORD PTR [ecx+48], 0
  00021	c7 41 34 00 00
	00 00		 mov	 DWORD PTR [ecx+52], 0
  00028	c7 41 38 00 00
	00 00		 mov	 DWORD PTR [ecx+56], 0
  0002f	c7 41 3c 00 00
	00 00		 mov	 DWORD PTR [ecx+60], 0
  00036	c7 41 20 00 00
	00 00		 mov	 DWORD PTR [ecx+32], 0
  0003d	c3		 ret	 0
??0_MONSTER_RESPAWN@@QAE@XZ ENDP			; _MONSTER_RESPAWN::_MONSTER_RESPAWN
_TEXT	ENDS
; Function compile flags: /Ogtp
; File C:\Program Files\Microsoft Visual Studio\2022\Professional\VC\Tools\MSVC\14.44.35207\include\vector
; File C:\IAGOS\server\v18\Source\Source\_Common\ProjectCmn.h
; File C:\Program Files\Microsoft Visual Studio\2022\Professional\VC\Tools\MSVC\14.44.35207\include\vector
; File C:\IAGOS\server\v18\Source\Source\_Common\ProjectCmn.h
;	COMDAT ??_EMoverProp@@QAEPAXI@Z
_TEXT	SEGMENT
__$EHRec$ = -12						; size = 12
___flags$ = 8						; size = 4
??_EMoverProp@@QAEPAXI@Z PROC				; MoverProp::`vector deleting destructor', COMDAT
; _this$ = ecx
  00000	55		 push	 ebp
  00001	8b ec		 mov	 ebp, esp
  00003	6a ff		 push	 -1
  00005	68 00 00 00 00	 push	 __ehhandler$??_EMoverProp@@QAEPAXI@Z
  0000a	64 a1 00 00 00
	00		 mov	 eax, DWORD PTR fs:0
  00010	50		 push	 eax
  00011	53		 push	 ebx
  00012	56		 push	 esi
  00013	57		 push	 edi
  00014	a1 00 00 00 00	 mov	 eax, DWORD PTR ___security_cookie
  00019	33 c5		 xor	 eax, ebp
  0001b	50		 push	 eax
  0001c	8d 45 f4	 lea	 eax, DWORD PTR __$EHRec$[ebp]
  0001f	64 a3 00 00 00
	00		 mov	 DWORD PTR fs:0, eax
  00025	8b f1		 mov	 esi, ecx
  00027	8b 5d 08	 mov	 ebx, DWORD PTR ___flags$[ebp]
  0002a	f6 c3 02	 test	 bl, 2
  0002d	74 44		 je	 SHORT $LN2@vector
  0002f	68 00 00 00 00	 push	 OFFSET ??1MoverProp@@QAE@XZ
  00034	ff 76 fc	 push	 DWORD PTR [esi-4]
  00037	8d 7e fc	 lea	 edi, DWORD PTR [esi-4]
  0003a	68 90 06 00 00	 push	 1680			; 00000690H
  0003f	56		 push	 esi
  00040	e8 00 00 00 00	 call	 ??_M@YGXPAXIIP6EX0@Z@Z
  00045	f6 c3 01	 test	 bl, 1
  00048	74 13		 je	 SHORT $LN3@vector
  0004a	69 0f 90 06 00
	00		 imul	 ecx, DWORD PTR [edi], 1680
  00050	83 c1 04	 add	 ecx, 4
  00053	51		 push	 ecx
  00054	57		 push	 edi
  00055	e8 00 00 00 00	 call	 ??_V@YAXPAXI@Z		; operator delete[]
  0005a	83 c4 08	 add	 esp, 8
$LN3@vector:
  0005d	8b c7		 mov	 eax, edi
  0005f	8b 4d f4	 mov	 ecx, DWORD PTR __$EHRec$[ebp]
  00062	64 89 0d 00 00
	00 00		 mov	 DWORD PTR fs:0, ecx
  00069	59		 pop	 ecx
  0006a	5f		 pop	 edi
  0006b	5e		 pop	 esi
  0006c	5b		 pop	 ebx
  0006d	8b e5		 mov	 esp, ebp
  0006f	5d		 pop	 ebp
  00070	c2 04 00	 ret	 4
$LN2@vector:
; File C:\Program Files\Microsoft Visual Studio\2022\Professional\VC\Tools\MSVC\14.44.35207\include\vector

; 1808 :         auto& _My_data    = _Mypair._Myval2;

  00073	8d 8e a8 02 00
	00		 lea	 ecx, DWORD PTR [esi+680]
  00079	c7 86 fc 03 00
	00 00 00 00 00	 mov	 DWORD PTR [esi+1020], OFFSET ??_7CDropKindGenerator@@6B@
; File C:\IAGOS\server\v18\Source\Source\_Common\ProjectCmn.h

; 613  : 	virtual	~CDropItemGenerator()	{	Clear();	}

  00083	c7 86 a4 02 00
	00 00 00 00 00	 mov	 DWORD PTR [esi+676], OFFSET ??_7CDropItemGenerator@@6B@
; File C:\Program Files\Microsoft Visual Studio\2022\Professional\VC\Tools\MSVC\14.44.35207\include\vector

; 1812 :         if (_Myfirst == _Mylast) { // already empty, nothing to do

  0008d	8b 01		 mov	 eax, DWORD PTR [ecx]
  0008f	3b 41 04	 cmp	 eax, DWORD PTR [ecx+4]
  00092	74 03		 je	 SHORT $LN19@vector

; 1813 :             // This is an optimization for debug mode: we can avoid taking the debug lock to invalidate iterators.
; 1814 :             // Note that when clearing an empty vector, this will preserve past-the-end iterators, which is allowed by
; 1815 :             // N4950 [sequence.reqmts]/54 "a.clear() [...] may invalidate the past-the-end iterator".
; 1816 :             return;
; 1817 :         }
; 1818 : 
; 1819 :         _My_data._Orphan_all();
; 1820 :         _Destroy_range(_Myfirst, _Mylast, _Getal());
; 1821 :         _ASAN_VECTOR_MODIFY(static_cast<difference_type>(_Myfirst - _Mylast)); // negative when destroying elements
; 1822 :         _Mylast = _Myfirst;

  00094	89 41 04	 mov	 DWORD PTR [ecx+4], eax
$LN19@vector:
; File C:\IAGOS\server\v18\Source\Source\_Common\ProjectCmn.h

; 613  : 	virtual	~CDropItemGenerator()	{	Clear();	}

  00097	e8 00 00 00 00	 call	 ??1?$vector@UtagDROPITEM@@V?$allocator@UtagDROPITEM@@@std@@@std@@QAE@XZ ; std::vector<tagDROPITEM,std::allocator<tagDROPITEM> >::~vector<tagDROPITEM,std::allocator<tagDROPITEM> >
  0009c	f6 c3 01	 test	 bl, 1
  0009f	74 0e		 je	 SHORT $LN4@vector
  000a1	68 90 06 00 00	 push	 1680			; 00000690H
  000a6	56		 push	 esi
  000a7	e8 00 00 00 00	 call	 ??3@YAXPAXI@Z		; operator delete
  000ac	83 c4 08	 add	 esp, 8
$LN4@vector:
  000af	8b c6		 mov	 eax, esi
  000b1	8b 4d f4	 mov	 ecx, DWORD PTR __$EHRec$[ebp]
  000b4	64 89 0d 00 00
	00 00		 mov	 DWORD PTR fs:0, ecx
  000bb	59		 pop	 ecx
  000bc	5f		 pop	 edi
  000bd	5e		 pop	 esi
  000be	5b		 pop	 ebx
  000bf	8b e5		 mov	 esp, ebp
  000c1	5d		 pop	 ebp
  000c2	c2 04 00	 ret	 4
  000c5	cc		 int	 3
  000c6	cc		 int	 3
  000c7	cc		 int	 3
  000c8	cc		 int	 3
  000c9	cc		 int	 3
_TEXT	ENDS
;	COMDAT text$x
text$x	SEGMENT
__ehhandler$??_EMoverProp@@QAEPAXI@Z:
  00000	90		 npad	 1
  00001	90		 npad	 1
  00002	8b 54 24 08	 mov	 edx, DWORD PTR [esp+8]
  00006	8d 42 0c	 lea	 eax, DWORD PTR [edx+12]
  00009	8b 4a f0	 mov	 ecx, DWORD PTR [edx-16]
  0000c	33 c8		 xor	 ecx, eax
  0000e	e8 00 00 00 00	 call	 @__security_check_cookie@4
  00013	b8 00 00 00 00	 mov	 eax, OFFSET __ehfuncinfo$??_EMoverProp@@QAEPAXI@Z
  00018	e9 00 00 00 00	 jmp	 ___CxxFrameHandler3
text$x	ENDS
??_EMoverProp@@QAEPAXI@Z ENDP				; MoverProp::`vector deleting destructor'
; Function compile flags: /Ogtp
; File C:\IAGOS\server\v18\Source\Source\_Common\ProjectCmn.h
; File C:\Program Files\Microsoft Visual Studio\2022\Professional\VC\Tools\MSVC\14.44.35207\include\vector
; File C:\IAGOS\server\v18\Source\Source\_Common\ProjectCmn.h
;	COMDAT ??1MoverProp@@QAE@XZ
_TEXT	SEGMENT
??1MoverProp@@QAE@XZ PROC				; MoverProp::~MoverProp, COMDAT
; _this$ = ecx
  00000	c7 81 fc 03 00
	00 00 00 00 00	 mov	 DWORD PTR [ecx+1020], OFFSET ??_7CDropKindGenerator@@6B@

; 613  : 	virtual	~CDropItemGenerator()	{	Clear();	}

  0000a	c7 81 a4 02 00
	00 00 00 00 00	 mov	 DWORD PTR [ecx+676], OFFSET ??_7CDropItemGenerator@@6B@
; File C:\Program Files\Microsoft Visual Studio\2022\Professional\VC\Tools\MSVC\14.44.35207\include\vector

; 1808 :         auto& _My_data    = _Mypair._Myval2;

  00014	81 c1 a8 02 00
	00		 add	 ecx, 680		; 000002a8H

; 1809 :         pointer& _Myfirst = _My_data._Myfirst;
; 1810 :         pointer& _Mylast  = _My_data._Mylast;
; 1811 : 
; 1812 :         if (_Myfirst == _Mylast) { // already empty, nothing to do

  0001a	8b 01		 mov	 eax, DWORD PTR [ecx]
  0001c	3b 41 04	 cmp	 eax, DWORD PTR [ecx+4]
  0001f	74 03		 je	 SHORT $LN11@MoverProp

; 1813 :             // This is an optimization for debug mode: we can avoid taking the debug lock to invalidate iterators.
; 1814 :             // Note that when clearing an empty vector, this will preserve past-the-end iterators, which is allowed by
; 1815 :             // N4950 [sequence.reqmts]/54 "a.clear() [...] may invalidate the past-the-end iterator".
; 1816 :             return;
; 1817 :         }
; 1818 : 
; 1819 :         _My_data._Orphan_all();
; 1820 :         _Destroy_range(_Myfirst, _Mylast, _Getal());
; 1821 :         _ASAN_VECTOR_MODIFY(static_cast<difference_type>(_Myfirst - _Mylast)); // negative when destroying elements
; 1822 :         _Mylast = _Myfirst;

  00021	89 41 04	 mov	 DWORD PTR [ecx+4], eax
$LN11@MoverProp:
; File C:\IAGOS\server\v18\Source\Source\_Common\ProjectCmn.h

; 613  : 	virtual	~CDropItemGenerator()	{	Clear();	}

  00024	e9 00 00 00 00	 jmp	 ??1?$vector@UtagDROPITEM@@V?$allocator@UtagDROPITEM@@@std@@@std@@QAE@XZ ; std::vector<tagDROPITEM,std::allocator<tagDROPITEM> >::~vector<tagDROPITEM,std::allocator<tagDROPITEM> >
??1MoverProp@@QAE@XZ ENDP				; MoverProp::~MoverProp
_TEXT	ENDS
; Function compile flags: /Ogtp
; File C:\IAGOS\server\v18\Source\Source\_Common\ProjectCmn.h
; File C:\Program Files\Microsoft Visual Studio\2022\Professional\VC\Tools\MSVC\14.44.35207\include\vector
; File C:\IAGOS\server\v18\Source\Source\_Common\ProjectCmn.h
;	COMDAT ??0MoverProp@@QAE@XZ
_TEXT	SEGMENT
_this$ = -4						; size = 4
??0MoverProp@@QAE@XZ PROC				; MoverProp::MoverProp, COMDAT
; _this$ = ecx

; 831  : 	MoverProp()

  00000	55		 push	 ebp
  00001	8b ec		 mov	 ebp, esp
  00003	51		 push	 ecx
  00004	89 4d fc	 mov	 DWORD PTR _this$[ebp], ecx

; 546  : 		m_nGoldMax		= 0;

  00007	33 c0		 xor	 eax, eax

; 94   : 		*szName	= '\0';

  00009	c6 41 04 00	 mov	 BYTE PTR [ecx+4], 0

; 95   : 		dwID	= dwType	= dwAI	= dwHP	= 0;

  0000d	c7 41 4c 00 00
	00 00		 mov	 DWORD PTR [ecx+76], 0
  00014	c7 41 48 00 00
	00 00		 mov	 DWORD PTR [ecx+72], 0
  0001b	c7 41 44 00 00
	00 00		 mov	 DWORD PTR [ecx+68], 0
  00022	c7 01 00 00 00
	00		 mov	 DWORD PTR [ecx], 0

; 108  : 		dwCtrlKind1	= dwCtrlKind2	= dwCtrlKind3	= dwSfxCtrl	= dwSndDamage	= 0;

  00028	c7 41 60 00 00
	00 00		 mov	 DWORD PTR [ecx+96], 0
  0002f	c7 41 5c 00 00
	00 00		 mov	 DWORD PTR [ecx+92], 0
  00036	c7 41 58 00 00
	00 00		 mov	 DWORD PTR [ecx+88], 0
  0003d	c7 41 54 00 00
	00 00		 mov	 DWORD PTR [ecx+84], 0
  00044	c7 41 50 00 00
	00 00		 mov	 DWORD PTR [ecx+80], 0

; 543  : 		m_nTotalNum		= 0;

  0004b	66 c7 81 95 02
	00 00 00 00	 mov	 WORD PTR [ecx+661], 0

; 544  : 		m_nUniqueMax	= 0;
; 545  : 		m_nUniqueMin	= 0;

  00054	c6 81 97 02 00
	00 00		 mov	 BYTE PTR [ecx+663], 0

; 546  : 		m_nGoldMax		= 0;

  0005b	89 81 98 02 00
	00		 mov	 DWORD PTR [ecx+664], eax

; 547  : 		m_nAmmoMax		= 0;
; 548  : 		m_nDartMax		= 0;

  00061	89 81 9c 02 00
	00		 mov	 DWORD PTR [ecx+668], eax

; 549  : 		m_nGoldMin		= 0;
; 550  : 		m_nAmmoMin		= 0;

  00067	89 81 a0 02 00
	00		 mov	 DWORD PTR [ecx+672], eax

; 612  : 	CDropItemGenerator() { m_dwMax = 0; }

  0006d	c7 81 a4 02 00
	00 00 00 00 00	 mov	 DWORD PTR [ecx+676], OFFSET ??_7CDropItemGenerator@@6B@
; File C:\Program Files\Microsoft Visual Studio\2022\Professional\VC\Tools\MSVC\14.44.35207\include\vector

; 400  :     _CONSTEXPR20 _Vector_val() noexcept : _Myfirst(), _Mylast(), _Myend() {}

  00077	89 81 a8 02 00
	00		 mov	 DWORD PTR [ecx+680], eax
  0007d	89 81 ac 02 00
	00		 mov	 DWORD PTR [ecx+684], eax
  00083	89 81 b0 02 00
	00		 mov	 DWORD PTR [ecx+688], eax
; File C:\IAGOS\server\v18\Source\Source\_Common\ProjectCmn.h

; 612  : 	CDropItemGenerator() { m_dwMax = 0; }

  00089	89 81 b4 02 00
	00		 mov	 DWORD PTR [ecx+692], eax

; 645  : 		{	m_uSize	= 0;	}

  0008f	89 81 b8 02 00
	00		 mov	 DWORD PTR [ecx+696], eax

; 630  : 		{	m_nSize	= 0;	}

  00095	c7 81 fc 03 00
	00 00 00 00 00	 mov	 DWORD PTR [ecx+1020], OFFSET ??_7CDropKindGenerator@@6B@
  0009f	89 81 00 04 00
	00		 mov	 DWORD PTR [ecx+1024], eax

; 657  : 	MonsterTransform() : fHPRate( 0.0f ), dwMonsterId( NULL_ID ) {}

  000a5	89 81 84 06 00
	00		 mov	 DWORD PTR [ecx+1668], eax
  000ab	c7 81 88 06 00
	00 ff ff ff ff	 mov	 DWORD PTR [ecx+1672], -1

; 832  : 	{
; 833  : 		dwStr	= dwSta	= dwDex	= dwInt	= dwHR	= dwER	= dwRace	= dwBelligerence	=dwGender

  000b5	89 81 bc 00 00
	00		 mov	 DWORD PTR [ecx+188], eax
  000bb	89 81 b8 00 00
	00		 mov	 DWORD PTR [ecx+184], eax
  000c1	89 81 b4 00 00
	00		 mov	 DWORD PTR [ecx+180], eax
  000c7	89 81 b0 00 00
	00		 mov	 DWORD PTR [ecx+176], eax
  000cd	89 81 ac 00 00
	00		 mov	 DWORD PTR [ecx+172], eax
  000d3	89 81 a8 00 00
	00		 mov	 DWORD PTR [ecx+168], eax
  000d9	89 81 a4 00 00
	00		 mov	 DWORD PTR [ecx+164], eax
  000df	89 81 a0 00 00
	00		 mov	 DWORD PTR [ecx+160], eax
  000e5	89 81 9c 00 00
	00		 mov	 DWORD PTR [ecx+156], eax
  000eb	89 81 98 00 00
	00		 mov	 DWORD PTR [ecx+152], eax
  000f1	89 81 94 00 00
	00		 mov	 DWORD PTR [ecx+148], eax
  000f7	89 81 90 00 00
	00		 mov	 DWORD PTR [ecx+144], eax
  000fd	89 81 8c 00 00
	00		 mov	 DWORD PTR [ecx+140], eax
  00103	89 81 88 00 00
	00		 mov	 DWORD PTR [ecx+136], eax
  00109	89 81 84 00 00
	00		 mov	 DWORD PTR [ecx+132], eax
  0010f	89 81 80 00 00
	00		 mov	 DWORD PTR [ecx+128], eax
  00115	89 41 7c	 mov	 DWORD PTR [ecx+124], eax
  00118	89 41 78	 mov	 DWORD PTR [ecx+120], eax
  0011b	89 41 74	 mov	 DWORD PTR [ecx+116], eax
  0011e	89 41 70	 mov	 DWORD PTR [ecx+112], eax
  00121	89 41 6c	 mov	 DWORD PTR [ecx+108], eax
  00124	89 41 68	 mov	 DWORD PTR [ecx+104], eax
  00127	89 41 64	 mov	 DWORD PTR [ecx+100], eax

; 834  : 		= dwLevel	= dwFlightLevel	= dwSize	= dwClass	= bIfParts	= nChaotic
; 835  : 		#ifdef __S1108_BACK_END_SYSTEM
; 836  : 		= dwUseable
; 837  : 		#else // __S1108_BACK_END_SYSTEM
; 838  : 		= dwDefExtent
; 839  : 		#endif // __S1108_BACK_END_SYSTEM
; 840  : 		= dwActionRadius	= dwAtkMin	= dwAtkMax	= dwAtk1	= dwAtk2	= dwAtk3	= dwAtk4	= 0;
; 841  : 		#if __VER >= 9	//__AI_0509
; 842  : 			fFrame	= 1.0F;

  0012a	c7 81 c0 00 00
	00 00 00 80 3f	 mov	 DWORD PTR [ecx+192], 1065353216 ; 3f800000H

; 843  : 			dwOrthograde	= 0;

  00134	89 81 c4 00 00
	00		 mov	 DWORD PTR [ecx+196], eax

; 844  : 		#else	// __AI_0509
; 845  : 			dwVerticalRate	= dwDiagonalRate	= 0;
; 846  : 		#endif	// __AI_0509
; 847  : 		dwThrustRate		= 0;

  0013a	89 81 c8 00 00
	00		 mov	 DWORD PTR [ecx+200], eax

; 848  : 		dwChestRate			= 0;

  00140	89 81 cc 00 00
	00		 mov	 DWORD PTR [ecx+204], eax

; 849  : 		dwHeadRate			= 0;

  00146	89 81 d0 00 00
	00		 mov	 DWORD PTR [ecx+208], eax

; 850  : 		dwArmRate			= 0;

  0014c	89 81 d4 00 00
	00		 mov	 DWORD PTR [ecx+212], eax

; 851  : 		dwLegRate			= 0;

  00152	89 81 d8 00 00
	00		 mov	 DWORD PTR [ecx+216], eax

; 852  : 		dwAttackSpeed		= 0;

  00158	89 81 dc 00 00
	00		 mov	 DWORD PTR [ecx+220], eax

; 853  : 		dwReAttackDelay		= 0;

  0015e	89 81 e0 00 00
	00		 mov	 DWORD PTR [ecx+224], eax

; 854  : 		dwAddHp				= 0;

  00164	89 81 e4 00 00
	00		 mov	 DWORD PTR [ecx+228], eax

; 855  : 		dwAddMp				= 0;

  0016a	89 81 e8 00 00
	00		 mov	 DWORD PTR [ecx+232], eax

; 856  : 		dwNaturalArmor		= 0;

  00170	89 81 ec 00 00
	00		 mov	 DWORD PTR [ecx+236], eax

; 857  : 		nAbrasion			= 0;

  00176	89 81 f0 00 00
	00		 mov	 DWORD PTR [ecx+240], eax

; 858  : 		nHardness			= 0;

  0017c	89 81 f4 00 00
	00		 mov	 DWORD PTR [ecx+244], eax

; 859  : 		dwAdjAtkDelay		= 0;

  00182	89 81 f8 00 00
	00		 mov	 DWORD PTR [ecx+248], eax

; 860  : 		dwHideLevel			= 0;

  00188	89 81 04 01 00
	00		 mov	 DWORD PTR [ecx+260], eax

; 861  : 		eElementType		= SAI79::NO_PROP;

  0018e	89 81 fc 00 00
	00		 mov	 DWORD PTR [ecx+252], eax

; 862  : 		wElementAtk			= 0;

  00194	66 89 81 00 01
	00 00		 mov	 WORD PTR [ecx+256], ax

; 863  : 		fSpeed				= 0.0F;

  0019b	89 81 08 01 00
	00		 mov	 DWORD PTR [ecx+264], eax

; 864  : 		dwShelter			= 0;

  001a1	89 81 0c 01 00
	00		 mov	 DWORD PTR [ecx+268], eax

; 865  : 		dwFlying			= 0;

  001a7	89 81 10 01 00
	00		 mov	 DWORD PTR [ecx+272], eax

; 866  : 		dwJumpIng			= 0;

  001ad	89 81 14 01 00
	00		 mov	 DWORD PTR [ecx+276], eax

; 867  : 		dwAirJump			= 0;

  001b3	89 81 18 01 00
	00		 mov	 DWORD PTR [ecx+280], eax

; 868  : 		bTaming				= 0;

  001b9	89 81 1c 01 00
	00		 mov	 DWORD PTR [ecx+284], eax

; 869  : 		dwResisMgic			= 0;

  001bf	89 81 20 01 00
	00		 mov	 DWORD PTR [ecx+288], eax

; 870  : 		nResistElecricity	= 0;

  001c5	89 81 24 01 00
	00		 mov	 DWORD PTR [ecx+292], eax

; 871  : 		nResistDark			= 0;

  001cb	89 81 28 01 00
	00		 mov	 DWORD PTR [ecx+296], eax

; 872  : 		nResistFire			= 0;

  001d1	89 81 2c 01 00
	00		 mov	 DWORD PTR [ecx+300], eax

; 873  : 		nResistWind			= 0;

  001d7	89 81 30 01 00
	00		 mov	 DWORD PTR [ecx+304], eax

; 874  : 		nResistWater		= 0;

  001dd	89 81 34 01 00
	00		 mov	 DWORD PTR [ecx+308], eax

; 875  : 		nResistEarth		= 0;

  001e3	89 81 38 01 00
	00		 mov	 DWORD PTR [ecx+312], eax

; 876  : 		dwCash				= 0;

  001e9	89 81 3c 01 00
	00		 mov	 DWORD PTR [ecx+316], eax
  001ef	0f 57 c0	 xorps	 xmm0, xmm0

; 877  : 		dwSourceMaterial	= 0;

  001f2	89 81 40 01 00
	00		 mov	 DWORD PTR [ecx+320], eax

; 878  : 		dwMaterialAmount	= 0;

  001f8	89 81 44 01 00
	00		 mov	 DWORD PTR [ecx+324], eax

; 879  : 		dwCohesion			= 0;

  001fe	89 81 48 01 00
	00		 mov	 DWORD PTR [ecx+328], eax

; 880  : 		dwHoldingTime		= 0;

  00204	89 81 4c 01 00
	00		 mov	 DWORD PTR [ecx+332], eax

; 881  : 		dwCorrectionValue	= 0;

  0020a	89 81 50 01 00
	00		 mov	 DWORD PTR [ecx+336], eax

; 882  : 		nExpValue			= 0;

  00210	89 81 58 01 00
	00		 mov	 DWORD PTR [ecx+344], eax
  00216	89 81 5c 01 00
	00		 mov	 DWORD PTR [ecx+348], eax

; 883  : 		nFxpValue			= 0;

  0021c	89 81 60 01 00
	00		 mov	 DWORD PTR [ecx+352], eax

; 884  : 		nBodyState			= 0;

  00222	89 81 64 01 00
	00		 mov	 DWORD PTR [ecx+356], eax

; 885  : 		dwAddAbility		= 0;

  00228	89 81 68 01 00
	00		 mov	 DWORD PTR [ecx+360], eax

; 886  : 		bKillable			= 0;

  0022e	89 81 6c 01 00
	00		 mov	 DWORD PTR [ecx+364], eax

; 887  : 		
; 888  : 		memset( dwVirtItem, 0, sizeof(dwVirtItem) );

  00234	66 0f d6 81 70
	01 00 00	 movq	 QWORD PTR [ecx+368], xmm0
  0023c	89 81 78 01 00
	00		 mov	 DWORD PTR [ecx+376], eax

; 889  : 		memset( bVirtType, 0, sizeof(bVirtType) );

  00242	66 0f d6 81 7c
	01 00 00	 movq	 QWORD PTR [ecx+380], xmm0
  0024a	89 81 84 01 00
	00		 mov	 DWORD PTR [ecx+388], eax

; 890  : 
; 891  : 		dwSndAtk1			= 0;

  00250	89 81 88 01 00
	00		 mov	 DWORD PTR [ecx+392], eax

; 892  : 		dwSndAtk2			= 0;

  00256	89 81 8c 01 00
	00		 mov	 DWORD PTR [ecx+396], eax

; 893  : 		dwSndDie1			= 0;

  0025c	89 81 90 01 00
	00		 mov	 DWORD PTR [ecx+400], eax

; 894  : 		dwSndDie2			= 0;

  00262	89 81 94 01 00
	00		 mov	 DWORD PTR [ecx+404], eax

; 895  : 		dwSndDmg1			= 0;

  00268	89 81 98 01 00
	00		 mov	 DWORD PTR [ecx+408], eax

; 896  : 		dwSndDmg2			= 0;

  0026e	89 81 9c 01 00
	00		 mov	 DWORD PTR [ecx+412], eax

; 897  : 		dwSndDmg3			= 0;

  00274	89 81 a0 01 00
	00		 mov	 DWORD PTR [ecx+416], eax

; 898  : 		dwSndIdle1			= 0;

  0027a	89 81 a4 01 00
	00		 mov	 DWORD PTR [ecx+420], eax

; 899  : 		dwSndIdle2			= 0;

  00280	89 81 a8 01 00
	00		 mov	 DWORD PTR [ecx+424], eax

; 900  : 		m_nEvasionHP		= 0;

  00286	89 81 ac 01 00
	00		 mov	 DWORD PTR [ecx+428], eax

; 901  : 		m_nEvasionSec		= 0;
; 902  : 		m_nRunawayHP		= 0;

  0028c	89 81 b0 01 00
	00		 mov	 DWORD PTR [ecx+432], eax

; 903  : 		m_nCallHelperMax	= 0;
; 904  : 		m_nCallHP			= 0;

  00292	66 89 81 b4 01
	00 00		 mov	 WORD PTR [ecx+436], ax

; 905  : 		
; 906  : 		memset( m_nCallHelperIdx, 0, sizeof(m_nCallHelperIdx) );

  00299	66 0f d6 81 b6
	01 00 00	 movq	 QWORD PTR [ecx+438], xmm0
  002a1	66 89 81 be 01
	00 00		 mov	 WORD PTR [ecx+446], ax

; 907  : 		memset( m_nCallHelperNum, 0, sizeof(m_nCallHelperNum) );

  002a8	66 0f d6 81 c0
	01 00 00	 movq	 QWORD PTR [ecx+448], xmm0
  002b0	66 89 81 c8 01
	00 00		 mov	 WORD PTR [ecx+456], ax

; 908  : 		memset( m_bCallHelperParty, 0, sizeof(m_bCallHelperParty) );

  002b7	66 0f d6 81 ca
	01 00 00	 movq	 QWORD PTR [ecx+458], xmm0
  002bf	89 81 d2 01 00
	00		 mov	 DWORD PTR [ecx+466], eax

; 909  : 		
; 910  : 		m_dwAttackMoveDelay	= 0;
; 911  : 		m_dwRunawayDelay	= 0;

  002c5	89 81 d6 01 00
	00		 mov	 DWORD PTR [ecx+470], eax

; 912  : 		m_bPartyAttack		= 0;
; 913  : 		m_nHelperNum		= 0;

  002cb	66 89 81 da 01
	00 00		 mov	 WORD PTR [ecx+474], ax

; 914  : 
; 915  : #if !defined(__CORESERVER) 
; 916  : 		m_nScanJob			= 0;

  002d2	89 81 dc 01 00
	00		 mov	 DWORD PTR [ecx+476], eax

; 917  : 		m_nHPCond			= 0;

  002d8	89 81 e0 01 00
	00		 mov	 DWORD PTR [ecx+480], eax

; 918  : 		m_nLvCond			= 0;

  002de	89 81 e4 01 00
	00		 mov	 DWORD PTR [ecx+484], eax

; 919  : 		m_nRecvCondMe		= 0;

  002e4	89 81 e8 01 00
	00		 mov	 DWORD PTR [ecx+488], eax

; 920  : 		m_nRecvCondHow		= 0;

  002ea	89 81 ec 01 00
	00		 mov	 DWORD PTR [ecx+492], eax

; 921  : 		m_nRecvCondMP		= 0;

  002f0	89 81 f0 01 00
	00		 mov	 DWORD PTR [ecx+496], eax

; 922  : 		m_bMeleeAttack		= 0;

  002f6	89 81 f4 01 00
	00		 mov	 DWORD PTR [ecx+500], eax

; 923  : 		m_bRecvCondWho		= 0;
; 924  : 		m_bRecvCond			= 0;
; 925  : 		m_bHelpWho			= 0;
; 926  : 		memset( m_bRangeAttack, 0, sizeof(m_bRangeAttack) );

  002fc	0f 11 81 f8 01
	00 00		 movups	 XMMWORD PTR [ecx+504], xmm0
  00303	0f 11 81 08 02
	00 00		 movups	 XMMWORD PTR [ecx+520], xmm0
  0030a	66 0f d6 81 18
	02 00 00	 movq	 QWORD PTR [ecx+536], xmm0

; 927  : 		m_nSummProb			= 0;

  00312	89 81 20 02 00
	00		 mov	 DWORD PTR [ecx+544], eax

; 928  : 		m_nSummNum			= 0;

  00318	89 81 24 02 00
	00		 mov	 DWORD PTR [ecx+548], eax

; 929  : 		m_nSummID			= 0;

  0031e	89 81 28 02 00
	00		 mov	 DWORD PTR [ecx+552], eax

; 930  : 		m_nHelpRangeMul		= 0;

  00324	89 81 2c 02 00
	00		 mov	 DWORD PTR [ecx+556], eax

; 931  : 		m_tmUnitHelp		= 0;

  0032a	89 81 30 02 00
	00		 mov	 DWORD PTR [ecx+560], eax

; 932  : 		m_nBerserkHP		= 0;

  00330	89 81 34 02 00
	00		 mov	 DWORD PTR [ecx+564], eax

; 933  : 		m_fBerserkDmgMul	= 0;

  00336	89 81 38 02 00
	00		 mov	 DWORD PTR [ecx+568], eax

; 934  : 		m_nLoot				= 0;

  0033c	89 81 3c 02 00
	00		 mov	 DWORD PTR [ecx+572], eax

; 935  : 		m_nLootProb			= 0;

  00342	89 81 40 02 00
	00		 mov	 DWORD PTR [ecx+576], eax

; 936  : 		m_dwScanQuestId		= 0;

  00348	89 81 44 02 00
	00		 mov	 DWORD PTR [ecx+580], eax

; 937  : 		m_dwScanItemIdx		= 0;

  0034e	89 81 48 02 00
	00		 mov	 DWORD PTR [ecx+584], eax

; 938  : 		m_nScanChao			= 0;

  00354	89 81 4c 02 00
	00		 mov	 DWORD PTR [ecx+588], eax

; 939  : #endif // !__CORESERVER
; 940  : 
; 941  : #ifdef __S1108_BACK_END_SYSTEM
; 942  : 		m_fHitPoint_Rate	=

  0035a	89 81 64 02 00
	00		 mov	 DWORD PTR [ecx+612], eax
  00360	89 81 60 02 00
	00		 mov	 DWORD PTR [ecx+608], eax
  00366	89 81 5c 02 00
	00		 mov	 DWORD PTR [ecx+604], eax
  0036c	89 81 58 02 00
	00		 mov	 DWORD PTR [ecx+600], eax
  00372	89 81 54 02 00
	00		 mov	 DWORD PTR [ecx+596], eax
  00378	89 81 50 02 00
	00		 mov	 DWORD PTR [ecx+592], eax

; 943  : 		m_fAttackPower_Rate	= 
; 944  : 		m_fDefence_Rate	=
; 945  : 		m_fExp_Rate	= 
; 946  : 		m_fItemDrop_Rate	= 
; 947  : 		m_fPenya_Rate	= 0.0F;
; 948  : 		m_bRate	=

  0037e	89 81 84 02 00
	00		 mov	 DWORD PTR [ecx+644], eax
  00384	89 81 80 02 00
	00		 mov	 DWORD PTR [ecx+640], eax
  0038a	89 81 7a 02 00
	00		 mov	 DWORD PTR [ecx+634], eax
  00390	89 81 76 02 00
	00		 mov	 DWORD PTR [ecx+630], eax
  00396	89 81 72 02 00
	00		 mov	 DWORD PTR [ecx+626], eax
  0039c	89 81 6e 02 00
	00		 mov	 DWORD PTR [ecx+622], eax
  003a2	66 89 81 6c 02
	00 00		 mov	 WORD PTR [ecx+620], ax
  003a9	89 81 68 02 00
	00		 mov	 DWORD PTR [ecx+616], eax

; 949  : #endif // __S1108_BACK_END_SYSTEM
; 950  : 		m_nAttackItemNear	=
; 951  : 		m_nAttackItemFar	=
; 952  : 		m_nAttackItem1	=
; 953  : 		m_nAttackItem2	=
; 954  : 		m_nAttackItem3	=
; 955  : 		m_nAttackItem4	=
; 956  : 		m_nAttackItemSec	=
; 957  : 		m_nMagicReflection	=
; 958  : 		m_nImmortality	=
; 959  : 		m_bBlow	=
; 960  : 		m_nChangeTargetRand	=
; 961  : 		m_nAttackFirstRange	= 0;
; 962  : 	}

  003af	8b c1		 mov	 eax, ecx
  003b1	8b e5		 mov	 esp, ebp
  003b3	5d		 pop	 ebp
  003b4	c3		 ret	 0
??0MoverProp@@QAE@XZ ENDP				; MoverProp::MoverProp
_TEXT	ENDS
; Function compile flags: /Ogtp
;	COMDAT ??_GCDropKindGenerator@@UAEPAXI@Z
_TEXT	SEGMENT
___flags$ = 8						; size = 4
??_GCDropKindGenerator@@UAEPAXI@Z PROC			; CDropKindGenerator::`scalar deleting destructor', COMDAT
; _this$ = ecx
  00000	55		 push	 ebp
  00001	8b ec		 mov	 ebp, esp
  00003	f6 45 08 01	 test	 BYTE PTR ___flags$[ebp], 1
  00007	56		 push	 esi
  00008	8b f1		 mov	 esi, ecx
  0000a	c7 06 00 00 00
	00		 mov	 DWORD PTR [esi], OFFSET ??_7CDropKindGenerator@@6B@
  00010	74 0e		 je	 SHORT $LN5@scalar
  00012	68 88 02 00 00	 push	 648			; 00000288H
  00017	56		 push	 esi
  00018	e8 00 00 00 00	 call	 ??3@YAXPAXI@Z		; operator delete
  0001d	83 c4 08	 add	 esp, 8
$LN5@scalar:
  00020	8b c6		 mov	 eax, esi
  00022	5e		 pop	 esi
  00023	5d		 pop	 ebp
  00024	c2 04 00	 ret	 4
??_GCDropKindGenerator@@UAEPAXI@Z ENDP			; CDropKindGenerator::`scalar deleting destructor'
_TEXT	ENDS
; Function compile flags: /Ogtp
; File C:\IAGOS\server\v18\Source\Source\_Common\ProjectCmn.h
;	COMDAT ??1CDropKindGenerator@@UAE@XZ
_TEXT	SEGMENT
??1CDropKindGenerator@@UAE@XZ PROC			; CDropKindGenerator::~CDropKindGenerator, COMDAT
; _this$ = ecx

; 631  : 	virtual	~CDropKindGenerator()	{}

  00000	c7 01 00 00 00
	00		 mov	 DWORD PTR [ecx], OFFSET ??_7CDropKindGenerator@@6B@
  00006	c3		 ret	 0
??1CDropKindGenerator@@UAE@XZ ENDP			; CDropKindGenerator::~CDropKindGenerator
_TEXT	ENDS
; Function compile flags: /Ogtp
; File C:\IAGOS\server\v18\Source\Source\_Common\ProjectCmn.h
; File C:\Program Files\Microsoft Visual Studio\2022\Professional\VC\Tools\MSVC\14.44.35207\include\vector
; File C:\IAGOS\server\v18\Source\Source\_Common\ProjectCmn.h
; File C:\Program Files\Microsoft Visual Studio\2022\Professional\VC\Tools\MSVC\14.44.35207\include\vector
; File C:\IAGOS\server\v18\Source\Source\_Common\ProjectCmn.h
;	COMDAT ??_GCDropItemGenerator@@UAEPAXI@Z
_TEXT	SEGMENT
___flags$ = 8						; size = 4
??_GCDropItemGenerator@@UAEPAXI@Z PROC			; CDropItemGenerator::`scalar deleting destructor', COMDAT
; _this$ = ecx
  00000	55		 push	 ebp
  00001	8b ec		 mov	 ebp, esp

; 613  : 	virtual	~CDropItemGenerator()	{	Clear();	}

  00003	56		 push	 esi
  00004	8b f1		 mov	 esi, ecx
; File C:\Program Files\Microsoft Visual Studio\2022\Professional\VC\Tools\MSVC\14.44.35207\include\vector

; 1808 :         auto& _My_data    = _Mypair._Myval2;

  00006	8d 4e 04	 lea	 ecx, DWORD PTR [esi+4]
; File C:\IAGOS\server\v18\Source\Source\_Common\ProjectCmn.h

; 613  : 	virtual	~CDropItemGenerator()	{	Clear();	}

  00009	c7 06 00 00 00
	00		 mov	 DWORD PTR [esi], OFFSET ??_7CDropItemGenerator@@6B@
; File C:\Program Files\Microsoft Visual Studio\2022\Professional\VC\Tools\MSVC\14.44.35207\include\vector

; 1812 :         if (_Myfirst == _Mylast) { // already empty, nothing to do

  0000f	8b 01		 mov	 eax, DWORD PTR [ecx]
  00011	3b 41 04	 cmp	 eax, DWORD PTR [ecx+4]
  00014	74 03		 je	 SHORT $LN12@scalar

; 1813 :             // This is an optimization for debug mode: we can avoid taking the debug lock to invalidate iterators.
; 1814 :             // Note that when clearing an empty vector, this will preserve past-the-end iterators, which is allowed by
; 1815 :             // N4950 [sequence.reqmts]/54 "a.clear() [...] may invalidate the past-the-end iterator".
; 1816 :             return;
; 1817 :         }
; 1818 : 
; 1819 :         _My_data._Orphan_all();
; 1820 :         _Destroy_range(_Myfirst, _Mylast, _Getal());
; 1821 :         _ASAN_VECTOR_MODIFY(static_cast<difference_type>(_Myfirst - _Mylast)); // negative when destroying elements
; 1822 :         _Mylast = _Myfirst;

  00016	89 41 04	 mov	 DWORD PTR [ecx+4], eax
$LN12@scalar:
; File C:\IAGOS\server\v18\Source\Source\_Common\ProjectCmn.h

; 613  : 	virtual	~CDropItemGenerator()	{	Clear();	}

  00019	e8 00 00 00 00	 call	 ??1?$vector@UtagDROPITEM@@V?$allocator@UtagDROPITEM@@@std@@@std@@QAE@XZ ; std::vector<tagDROPITEM,std::allocator<tagDROPITEM> >::~vector<tagDROPITEM,std::allocator<tagDROPITEM> >
  0001e	f6 45 08 01	 test	 BYTE PTR ___flags$[ebp], 1
  00022	74 0b		 je	 SHORT $LN16@scalar
  00024	6a 14		 push	 20			; 00000014H
  00026	56		 push	 esi
  00027	e8 00 00 00 00	 call	 ??3@YAXPAXI@Z		; operator delete
  0002c	83 c4 08	 add	 esp, 8
$LN16@scalar:
  0002f	8b c6		 mov	 eax, esi
  00031	5e		 pop	 esi
  00032	5d		 pop	 ebp
  00033	c2 04 00	 ret	 4
??_GCDropItemGenerator@@UAEPAXI@Z ENDP			; CDropItemGenerator::`scalar deleting destructor'
_TEXT	ENDS
; Function compile flags: /Ogtp
; File C:\IAGOS\server\v18\Source\Source\_Common\ProjectCmn.h
; File C:\Program Files\Microsoft Visual Studio\2022\Professional\VC\Tools\MSVC\14.44.35207\include\vector
; File C:\IAGOS\server\v18\Source\Source\_Common\ProjectCmn.h
;	COMDAT ??1CDropItemGenerator@@UAE@XZ
_TEXT	SEGMENT
??1CDropItemGenerator@@UAE@XZ PROC			; CDropItemGenerator::~CDropItemGenerator, COMDAT
; _this$ = ecx

; 613  : 	virtual	~CDropItemGenerator()	{	Clear();	}

  00000	c7 01 00 00 00
	00		 mov	 DWORD PTR [ecx], OFFSET ??_7CDropItemGenerator@@6B@
; File C:\Program Files\Microsoft Visual Studio\2022\Professional\VC\Tools\MSVC\14.44.35207\include\vector

; 1808 :         auto& _My_data    = _Mypair._Myval2;

  00006	83 c1 04	 add	 ecx, 4

; 1809 :         pointer& _Myfirst = _My_data._Myfirst;
; 1810 :         pointer& _Mylast  = _My_data._Mylast;
; 1811 : 
; 1812 :         if (_Myfirst == _Mylast) { // already empty, nothing to do

  00009	8b 01		 mov	 eax, DWORD PTR [ecx]
  0000b	3b 41 04	 cmp	 eax, DWORD PTR [ecx+4]
  0000e	74 03		 je	 SHORT $LN6@CDropItemG

; 1813 :             // This is an optimization for debug mode: we can avoid taking the debug lock to invalidate iterators.
; 1814 :             // Note that when clearing an empty vector, this will preserve past-the-end iterators, which is allowed by
; 1815 :             // N4950 [sequence.reqmts]/54 "a.clear() [...] may invalidate the past-the-end iterator".
; 1816 :             return;
; 1817 :         }
; 1818 : 
; 1819 :         _My_data._Orphan_all();
; 1820 :         _Destroy_range(_Myfirst, _Mylast, _Getal());
; 1821 :         _ASAN_VECTOR_MODIFY(static_cast<difference_type>(_Myfirst - _Mylast)); // negative when destroying elements
; 1822 :         _Mylast = _Myfirst;

  00010	89 41 04	 mov	 DWORD PTR [ecx+4], eax
$LN6@CDropItemG:
; File C:\IAGOS\server\v18\Source\Source\_Common\ProjectCmn.h

; 613  : 	virtual	~CDropItemGenerator()	{	Clear();	}

  00013	e9 00 00 00 00	 jmp	 ??1?$vector@UtagDROPITEM@@V?$allocator@UtagDROPITEM@@@std@@@std@@QAE@XZ ; std::vector<tagDROPITEM,std::allocator<tagDROPITEM> >::~vector<tagDROPITEM,std::allocator<tagDROPITEM> >
??1CDropItemGenerator@@UAE@XZ ENDP			; CDropItemGenerator::~CDropItemGenerator
_TEXT	ENDS
; Function compile flags: /Ogtp
; File C:\Program Files\Microsoft Visual Studio\2022\Professional\VC\Tools\MSVC\14.44.35207\include\vector
; File C:\Program Files\Microsoft Visual Studio\2022\Professional\VC\Tools\MSVC\14.44.35207\include\xmemory
; File C:\Program Files\Microsoft Visual Studio\2022\Professional\VC\Tools\MSVC\14.44.35207\include\vector
; File C:\Program Files\Microsoft Visual Studio\2022\Professional\VC\Tools\MSVC\14.44.35207\include\xmemory
; File C:\Program Files\Microsoft Visual Studio\2022\Professional\VC\Tools\MSVC\14.44.35207\include\vector
; File C:\Program Files\Microsoft Visual Studio\2022\Professional\VC\Tools\MSVC\14.44.35207\include\xmemory
; File C:\Program Files\Microsoft Visual Studio\2022\Professional\VC\Tools\MSVC\14.44.35207\include\vector
;	COMDAT ??1?$vector@UtagDROPITEM@@V?$allocator@UtagDROPITEM@@@std@@@std@@QAE@XZ
_TEXT	SEGMENT
??1?$vector@UtagDROPITEM@@V?$allocator@UtagDROPITEM@@@std@@@std@@QAE@XZ PROC ; std::vector<tagDROPITEM,std::allocator<tagDROPITEM> >::~vector<tagDROPITEM,std::allocator<tagDROPITEM> >, COMDAT
; _this$ = ecx

; 829  :     _CONSTEXPR20 ~vector() noexcept {

  00000	56		 push	 esi
  00001	57		 push	 edi
  00002	8b f9		 mov	 edi, ecx

; 2090 :         if (_Myfirst) { // destroy and deallocate old array

  00004	8b 37		 mov	 esi, DWORD PTR [edi]
  00006	85 f6		 test	 esi, esi
  00008	74 54		 je	 SHORT $LN5@vector

; 2091 :             _STD _Destroy_range(_Myfirst, _Mylast, _Al);
; 2092 :             _ASAN_VECTOR_REMOVE;
; 2093 :             _Al.deallocate(_Myfirst, static_cast<size_type>(_Myend - _Myfirst));

  0000a	8b 4f 08	 mov	 ecx, DWORD PTR [edi+8]
  0000d	b8 ab aa aa 2a	 mov	 eax, 715827883		; 2aaaaaabH
  00012	2b ce		 sub	 ecx, esi
  00014	f7 e9		 imul	 ecx
  00016	c1 fa 02	 sar	 edx, 2
  00019	8b c2		 mov	 eax, edx
  0001b	c1 e8 1f	 shr	 eax, 31			; 0000001fH
  0001e	03 c2		 add	 eax, edx
; File C:\Program Files\Microsoft Visual Studio\2022\Professional\VC\Tools\MSVC\14.44.35207\include\xmemory

; 985  :         _STD _Deallocate<_New_alignof<_Ty>>(_Ptr, sizeof(_Ty) * _Count);

  00020	8d 0c 40	 lea	 ecx, DWORD PTR [eax+eax*2]
  00023	c1 e1 03	 shl	 ecx, 3

; 284  :         if (_Bytes >= _Big_allocation_threshold) {

  00026	81 f9 00 10 00
	00		 cmp	 ecx, 4096		; 00001000H
  0002c	72 12		 jb	 SHORT $LN18@vector

; 205  :     const uintptr_t _Ptr_container   = _Ptr_user[-1];

  0002e	8b 56 fc	 mov	 edx, DWORD PTR [esi-4]
  00031	83 c1 23	 add	 ecx, 35			; 00000023H

; 206  : 
; 207  :     // If the following asserts, it likely means that we are performing
; 208  :     // an aligned delete on memory coming from an unaligned allocation.
; 209  :     _STL_ASSERT(_Ptr_user[-2] == _Big_allocation_sentinel, "invalid argument");
; 210  : 
; 211  :     // Extra paranoia on aligned allocation/deallocation; ensure _Ptr_container is
; 212  :     // in range [_Min_back_shift, _Non_user_size]
; 213  : #ifdef _DEBUG
; 214  :     constexpr uintptr_t _Min_back_shift = 2 * sizeof(void*);
; 215  : #else // ^^^ defined(_DEBUG) / !defined(_DEBUG) vvv
; 216  :     constexpr uintptr_t _Min_back_shift = sizeof(void*);
; 217  : #endif // ^^^ !defined(_DEBUG) ^^^
; 218  :     const uintptr_t _Back_shift = reinterpret_cast<uintptr_t>(_Ptr) - _Ptr_container;

  00034	2b f2		 sub	 esi, edx

; 219  :     _STL_VERIFY(_Back_shift >= _Min_back_shift && _Back_shift <= _Non_user_size, "invalid argument");

  00036	8d 46 fc	 lea	 eax, DWORD PTR [esi-4]
  00039	83 f8 1f	 cmp	 eax, 31			; 0000001fH
  0003c	77 23		 ja	 SHORT $LN17@vector

; 220  :     _Ptr = reinterpret_cast<void*>(_Ptr_container);

  0003e	8b f2		 mov	 esi, edx
$LN18@vector:

; 289  :         ::operator delete(_Ptr, _Bytes);

  00040	51		 push	 ecx
  00041	56		 push	 esi
  00042	e8 00 00 00 00	 call	 ??3@YAXPAXI@Z		; operator delete
; File C:\Program Files\Microsoft Visual Studio\2022\Professional\VC\Tools\MSVC\14.44.35207\include\vector

; 2095 :             _Myfirst = nullptr;

  00047	c7 07 00 00 00
	00		 mov	 DWORD PTR [edi], 0
; File C:\Program Files\Microsoft Visual Studio\2022\Professional\VC\Tools\MSVC\14.44.35207\include\xmemory

; 289  :         ::operator delete(_Ptr, _Bytes);

  0004d	83 c4 08	 add	 esp, 8
; File C:\Program Files\Microsoft Visual Studio\2022\Professional\VC\Tools\MSVC\14.44.35207\include\vector

; 2096 :             _Mylast  = nullptr;

  00050	c7 47 04 00 00
	00 00		 mov	 DWORD PTR [edi+4], 0

; 2097 :             _Myend   = nullptr;

  00057	c7 47 08 00 00
	00 00		 mov	 DWORD PTR [edi+8], 0
$LN5@vector:
  0005e	5f		 pop	 edi

; 835  :     }

  0005f	5e		 pop	 esi
  00060	c3		 ret	 0
$LN17@vector:
; File C:\Program Files\Microsoft Visual Studio\2022\Professional\VC\Tools\MSVC\14.44.35207\include\xmemory

; 219  :     _STL_VERIFY(_Back_shift >= _Min_back_shift && _Back_shift <= _Non_user_size, "invalid argument");

  00061	6a 00		 push	 0
  00063	6a 00		 push	 0
  00065	6a 00		 push	 0
  00067	6a 00		 push	 0
  00069	6a 00		 push	 0
  0006b	e8 00 00 00 00	 call	 __invoke_watson
$LN26@vector:
  00070	cc		 int	 3
??1?$vector@UtagDROPITEM@@V?$allocator@UtagDROPITEM@@@std@@@std@@QAE@XZ ENDP ; std::vector<tagDROPITEM,std::allocator<tagDROPITEM> >::~vector<tagDROPITEM,std::allocator<tagDROPITEM> >
_TEXT	ENDS
; Function compile flags: /Ogtp
; File C:\IAGOS\server\v18\Source\Source\DX_SDK\D3DX9Math.h
;	COMDAT ??0D3DXVECTOR3@@QAE@XZ
_TEXT	SEGMENT
??0D3DXVECTOR3@@QAE@XZ PROC				; D3DXVECTOR3::D3DXVECTOR3, COMDAT
; _this$ = ecx

; 165  :     D3DXVECTOR3() {};

  00000	8b c1		 mov	 eax, ecx
  00002	c3		 ret	 0
??0D3DXVECTOR3@@QAE@XZ ENDP				; D3DXVECTOR3::D3DXVECTOR3
_TEXT	ENDS
; Function compile flags: /Ogtp
; File C:\Program Files\Microsoft Visual Studio\2022\Professional\VC\Tools\MSVC\14.44.35207\include\xtree
;	COMDAT ?_Throw_tree_length_error@std@@YAXXZ
_TEXT	SEGMENT
?_Throw_tree_length_error@std@@YAXXZ PROC		; std::_Throw_tree_length_error, COMDAT

; 417  :     _Xlength_error("map/set too long");

  00000	68 00 00 00 00	 push	 OFFSET ??_C@_0BB@GCADKGJO@map?1set?5too?5long@
  00005	e8 00 00 00 00	 call	 ?_Xlength_error@std@@YAXPBD@Z ; std::_Xlength_error
$LN3@Throw_tree:
  0000a	cc		 int	 3
?_Throw_tree_length_error@std@@YAXXZ ENDP		; std::_Throw_tree_length_error
_TEXT	ENDS
; Function compile flags: /Ogtp
; File C:\Program Files\Microsoft Visual Studio\2022\Professional\VC\Tools\MSVC\14.44.35207\include\xstring
; File C:\Program Files\Microsoft Visual Studio\2022\Professional\VC\Tools\MSVC\14.44.35207\include\xmemory
; File C:\Program Files\Microsoft Visual Studio\2022\Professional\VC\Tools\MSVC\14.44.35207\include\xstring
; File C:\Program Files\Microsoft Visual Studio\2022\Professional\VC\Tools\MSVC\14.44.35207\include\xmemory
; File C:\Program Files\Microsoft Visual Studio\2022\Professional\VC\Tools\MSVC\14.44.35207\include\xstring
; File C:\Program Files\Microsoft Visual Studio\2022\Professional\VC\Tools\MSVC\14.44.35207\include\xmemory
; File C:\Program Files\Microsoft Visual Studio\2022\Professional\VC\Tools\MSVC\14.44.35207\include\xstring
;	COMDAT ??1?$basic_string@DU?$char_traits@D@std@@V?$allocator@D@2@@std@@QAE@XZ
_TEXT	SEGMENT
??1?$basic_string@DU?$char_traits@D@std@@V?$allocator@D@2@@std@@QAE@XZ PROC ; std::basic_string<char,std::char_traits<char>,std::allocator<char> >::~basic_string<char,std::char_traits<char>,std::allocator<char> >, COMDAT
; _this$ = ecx

; 1382 :     _CONSTEXPR20 ~basic_string() noexcept {

  00000	56		 push	 esi
  00001	8b f1		 mov	 esi, ecx

; 453  :         return _Myres > _Small_string_capacity;

  00003	8b 4e 14	 mov	 ecx, DWORD PTR [esi+20]
  00006	83 f9 0f	 cmp	 ecx, 15			; 0000000fH

; 3083 :         if (_My_data._Large_mode_engaged()) {

  00009	76 27		 jbe	 SHORT $LN19@basic_stri
; File C:\Program Files\Microsoft Visual Studio\2022\Professional\VC\Tools\MSVC\14.44.35207\include\xmemory

; 985  :         _STD _Deallocate<_New_alignof<_Ty>>(_Ptr, sizeof(_Ty) * _Count);

  0000b	8b 06		 mov	 eax, DWORD PTR [esi]
; File C:\Program Files\Microsoft Visual Studio\2022\Professional\VC\Tools\MSVC\14.44.35207\include\xstring

; 852  :         _Al.deallocate(_Old_ptr, _Capacity + 1); // +1 for null terminator

  0000d	41		 inc	 ecx
; File C:\Program Files\Microsoft Visual Studio\2022\Professional\VC\Tools\MSVC\14.44.35207\include\xmemory

; 284  :         if (_Bytes >= _Big_allocation_threshold) {

  0000e	81 f9 00 10 00
	00		 cmp	 ecx, 4096		; 00001000H
  00014	72 12		 jb	 SHORT $LN24@basic_stri

; 205  :     const uintptr_t _Ptr_container   = _Ptr_user[-1];

  00016	8b 50 fc	 mov	 edx, DWORD PTR [eax-4]
  00019	83 c1 23	 add	 ecx, 35			; 00000023H

; 206  : 
; 207  :     // If the following asserts, it likely means that we are performing
; 208  :     // an aligned delete on memory coming from an unaligned allocation.
; 209  :     _STL_ASSERT(_Ptr_user[-2] == _Big_allocation_sentinel, "invalid argument");
; 210  : 
; 211  :     // Extra paranoia on aligned allocation/deallocation; ensure _Ptr_container is
; 212  :     // in range [_Min_back_shift, _Non_user_size]
; 213  : #ifdef _DEBUG
; 214  :     constexpr uintptr_t _Min_back_shift = 2 * sizeof(void*);
; 215  : #else // ^^^ defined(_DEBUG) / !defined(_DEBUG) vvv
; 216  :     constexpr uintptr_t _Min_back_shift = sizeof(void*);
; 217  : #endif // ^^^ !defined(_DEBUG) ^^^
; 218  :     const uintptr_t _Back_shift = reinterpret_cast<uintptr_t>(_Ptr) - _Ptr_container;

  0001c	2b c2		 sub	 eax, edx

; 219  :     _STL_VERIFY(_Back_shift >= _Min_back_shift && _Back_shift <= _Non_user_size, "invalid argument");

  0001e	83 c0 fc	 add	 eax, -4			; fffffffcH
  00021	83 f8 1f	 cmp	 eax, 31			; 0000001fH
  00024	77 1f		 ja	 SHORT $LN23@basic_stri

; 220  :     _Ptr = reinterpret_cast<void*>(_Ptr_container);

  00026	8b c2		 mov	 eax, edx
$LN24@basic_stri:

; 289  :         ::operator delete(_Ptr, _Bytes);

  00028	51		 push	 ecx
  00029	50		 push	 eax
  0002a	e8 00 00 00 00	 call	 ??3@YAXPAXI@Z		; operator delete
  0002f	83 c4 08	 add	 esp, 8
$LN19@basic_stri:
; File C:\Program Files\Microsoft Visual Studio\2022\Professional\VC\Tools\MSVC\14.44.35207\include\xstring

; 3090 :         _My_data._Mysize = 0;

  00032	c7 46 10 00 00
	00 00		 mov	 DWORD PTR [esi+16], 0

; 3091 :         _My_data._Myres  = _Small_string_capacity;

  00039	c7 46 14 0f 00
	00 00		 mov	 DWORD PTR [esi+20], 15	; 0000000fH

; 3092 :         // the _Traits::assign is last so the codegen doesn't think the char write can alias this
; 3093 :         _Traits::assign(_My_data._Bx._Buf[0], _Elem());

  00040	c6 06 00	 mov	 BYTE PTR [esi], 0
  00043	5e		 pop	 esi

; 1390 :     }

  00044	c3		 ret	 0
$LN23@basic_stri:
; File C:\Program Files\Microsoft Visual Studio\2022\Professional\VC\Tools\MSVC\14.44.35207\include\xmemory

; 219  :     _STL_VERIFY(_Back_shift >= _Min_back_shift && _Back_shift <= _Non_user_size, "invalid argument");

  00045	6a 00		 push	 0
  00047	6a 00		 push	 0
  00049	6a 00		 push	 0
  0004b	6a 00		 push	 0
  0004d	6a 00		 push	 0
  0004f	e8 00 00 00 00	 call	 __invoke_watson
$LN33@basic_stri:
  00054	cc		 int	 3
??1?$basic_string@DU?$char_traits@D@std@@V?$allocator@D@2@@std@@QAE@XZ ENDP ; std::basic_string<char,std::char_traits<char>,std::allocator<char> >::~basic_string<char,std::char_traits<char>,std::allocator<char> >
_TEXT	ENDS
; Function compile flags: /Ogtp
; File C:\Program Files\Microsoft Visual Studio\2022\Professional\VC\Tools\MSVC\14.44.35207\include\xstring
; File C:\Program Files\Microsoft Visual Studio\2022\Professional\VC\Tools\MSVC\14.44.35207\include\__msvc_string_view.hpp
; File C:\Program Files\Microsoft Visual Studio\2022\Professional\VC\Tools\MSVC\14.44.35207\include\xstring
; File C:\Program Files\Microsoft Visual Studio\2022\Professional\VC\Tools\MSVC\14.44.35207\include\__msvc_string_view.hpp
; File C:\Program Files\Microsoft Visual Studio\2022\Professional\VC\Tools\MSVC\14.44.35207\include\xstring
; File C:\Program Files\Microsoft Visual Studio\2022\Professional\VC\Tools\MSVC\14.44.35207\include\__msvc_string_view.hpp
; File C:\Program Files\Microsoft Visual Studio\2022\Professional\VC\Tools\MSVC\14.44.35207\include\xstring
; File C:\Program Files\Microsoft Visual Studio\2022\Professional\VC\Tools\MSVC\14.44.35207\include\__msvc_string_view.hpp
; File C:\Program Files\Microsoft Visual Studio\2022\Professional\VC\Tools\MSVC\14.44.35207\include\xstring
; File C:\Program Files\Microsoft Visual Studio\2022\Professional\VC\Tools\MSVC\14.44.35207\include\xmemory
; File C:\Program Files\Microsoft Visual Studio\2022\Professional\VC\Tools\MSVC\14.44.35207\include\xstring
; File C:\Program Files\Microsoft Visual Studio\2022\Professional\VC\Tools\MSVC\14.44.35207\include\xmemory
; File C:\Program Files\Microsoft Visual Studio\2022\Professional\VC\Tools\MSVC\14.44.35207\include\xstring
; File C:\Program Files\Microsoft Visual Studio\2022\Professional\VC\Tools\MSVC\14.44.35207\include\__msvc_string_view.hpp
; File C:\Program Files\Microsoft Visual Studio\2022\Professional\VC\Tools\MSVC\14.44.35207\include\xstring
; File C:\Program Files\Microsoft Visual Studio\2022\Professional\VC\Tools\MSVC\14.44.35207\include\__msvc_string_view.hpp
; File C:\Program Files\Microsoft Visual Studio\2022\Professional\VC\Tools\MSVC\14.44.35207\include\xstring
; File C:\Program Files\Microsoft Visual Studio\2022\Professional\VC\Tools\MSVC\14.44.35207\include\__msvc_string_view.hpp
; File C:\Program Files\Microsoft Visual Studio\2022\Professional\VC\Tools\MSVC\14.44.35207\include\xstring
;	COMDAT ??0?$basic_string@DU?$char_traits@D@std@@V?$allocator@D@2@@std@@QAE@QBD@Z
_TEXT	SEGMENT
$T1 = -4						; size = 4
__Ptr$ = 8						; size = 4
??0?$basic_string@DU?$char_traits@D@std@@V?$allocator@D@2@@std@@QAE@QBD@Z PROC ; std::basic_string<char,std::char_traits<char>,std::allocator<char> >::basic_string<char,std::char_traits<char>,std::allocator<char> >, COMDAT
; _this$ = ecx

; 768  :     _CONSTEXPR20 basic_string(_In_z_ const _Elem* const _Ptr) : _Mypair(_Zero_then_variadic_args_t{}) {

  00000	55		 push	 ebp
  00001	8b ec		 mov	 ebp, esp
  00003	51		 push	 ecx
  00004	53		 push	 ebx
  00005	56		 push	 esi
  00006	8b d9		 mov	 ebx, ecx
  00008	0f 57 c0	 xorps	 xmm0, xmm0
  0000b	57		 push	 edi
; File C:\Program Files\Microsoft Visual Studio\2022\Professional\VC\Tools\MSVC\14.44.35207\include\__msvc_string_view.hpp

; 459  :         return _CSTD strlen(reinterpret_cast<const char*>(_First));

  0000c	8b 7d 08	 mov	 edi, DWORD PTR __Ptr$[ebp]
  0000f	8b f7		 mov	 esi, edi
; File C:\Program Files\Microsoft Visual Studio\2022\Professional\VC\Tools\MSVC\14.44.35207\include\xstring

; 493  :         _CONSTEXPR20 _Bxty() noexcept : _Buf() {} // user-provided, for fancy pointers

  00011	0f 11 03	 movups	 XMMWORD PTR [ebx], xmm0

; 517  :     size_type _Mysize = 0; // current length of string (size)

  00014	c7 43 10 00 00
	00 00		 mov	 DWORD PTR [ebx+16], 0

; 518  :     size_type _Myres  = 0; // current storage reserved for string (capacity)

  0001b	c7 43 14 00 00
	00 00		 mov	 DWORD PTR [ebx+20], 0
; File C:\Program Files\Microsoft Visual Studio\2022\Professional\VC\Tools\MSVC\14.44.35207\include\__msvc_string_view.hpp

; 459  :         return _CSTD strlen(reinterpret_cast<const char*>(_First));

  00022	8d 4e 01	 lea	 ecx, DWORD PTR [esi+1]
$LL51@basic_stri:
  00025	8a 06		 mov	 al, BYTE PTR [esi]
  00027	46		 inc	 esi
  00028	84 c0		 test	 al, al
  0002a	75 f9		 jne	 SHORT $LL51@basic_stri
  0002c	2b f1		 sub	 esi, ecx
; File C:\Program Files\Microsoft Visual Studio\2022\Professional\VC\Tools\MSVC\14.44.35207\include\xstring

; 881  :         if (_Count > max_size()) {

  0002e	81 fe ff ff ff
	7f		 cmp	 esi, 2147483647		; 7fffffffH
  00034	0f 87 9b 00 00
	00		 ja	 $LN62@basic_stri

; 883  :         }
; 884  : 
; 885  :         auto& _Al       = _Getal();
; 886  :         auto&& _Alproxy = _GET_PROXY_ALLOCATOR(_Alty, _Al);
; 887  :         _Container_proxy_ptr<_Alty> _Proxy(_Alproxy, _My_data);
; 888  : 
; 889  :         if (_Count <= _Small_string_capacity) {

  0003a	83 fe 0f	 cmp	 esi, 15			; 0000000fH
  0003d	77 24		 ja	 SHORT $LN21@basic_stri
; File C:\Program Files\Microsoft Visual Studio\2022\Professional\VC\Tools\MSVC\14.44.35207\include\__msvc_string_view.hpp

; 121  :         _CSTD memcpy(_First1, _First2, _Count * sizeof(_Elem));

  0003f	56		 push	 esi
  00040	57		 push	 edi
  00041	53		 push	 ebx
; File C:\Program Files\Microsoft Visual Studio\2022\Professional\VC\Tools\MSVC\14.44.35207\include\xstring

; 890  :             _My_data._Mysize = _Count;

  00042	89 73 10	 mov	 DWORD PTR [ebx+16], esi

; 891  :             _My_data._Myres  = _Small_string_capacity;

  00045	c7 43 14 0f 00
	00 00		 mov	 DWORD PTR [ebx+20], 15	; 0000000fH
; File C:\Program Files\Microsoft Visual Studio\2022\Professional\VC\Tools\MSVC\14.44.35207\include\__msvc_string_view.hpp

; 121  :         _CSTD memcpy(_First1, _First2, _Count * sizeof(_Elem));

  0004c	e8 00 00 00 00	 call	 _memcpy
; File C:\Program Files\Microsoft Visual Studio\2022\Professional\VC\Tools\MSVC\14.44.35207\include\xstring

; 898  :                 _Traits::assign(_My_data._Bx._Buf[_Count], _Elem());

  00051	c6 04 1e 00	 mov	 BYTE PTR [esi+ebx], 0

; 769  :         _Construct<_Construct_strategy::_From_ptr>(_Ptr, _Convert_size<size_type>(_Traits::length(_Ptr)));
; 770  :     }

  00055	83 c4 0c	 add	 esp, 12			; 0000000cH
  00058	8b c3		 mov	 eax, ebx
  0005a	5f		 pop	 edi
  0005b	5e		 pop	 esi
  0005c	5b		 pop	 ebx
  0005d	8b e5		 mov	 esp, ebp
  0005f	5d		 pop	 ebp
  00060	c2 04 00	 ret	 4
$LN21@basic_stri:

; 2978 :         const size_type _Masked = _Requested | _Alloc_mask;

  00063	8b fe		 mov	 edi, esi
  00065	83 cf 0f	 or	 edi, 15			; 0000000fH
  00068	81 ff ff ff ff
	7f		 cmp	 edi, 2147483647		; 7fffffffH

; 2979 :         if (_Masked > _Max) { // the mask overflows, settle for max_size()

  0006e	76 12		 jbe	 SHORT $LN27@basic_stri

; 2980 :             return _Max;

  00070	b8 00 00 00 80	 mov	 eax, -2147483648	; 80000000H
  00075	bf ff ff ff 7f	 mov	 edi, 2147483647		; 7fffffffH
; File C:\Program Files\Microsoft Visual Studio\2022\Professional\VC\Tools\MSVC\14.44.35207\include\xmemory

; 253  :             return _Allocate_manually_vector_aligned<_Traits>(_Bytes);

  0007a	50		 push	 eax
  0007b	e8 00 00 00 00	 call	 ??$_Allocate_manually_vector_aligned@U_Default_allocate_traits@std@@@std@@YAPAXI@Z ; std::_Allocate_manually_vector_aligned<std::_Default_allocate_traits>
  00080	eb 26		 jmp	 SHORT $LN60@basic_stri
$LN27@basic_stri:
; File C:\Program Files\Microsoft Visual Studio\2022\Professional\VC\Tools\MSVC\14.44.35207\include\xstring

; 2987 :         return (_STD max)(_Masked, _Old + _Old / 2);

  00082	b8 16 00 00 00	 mov	 eax, 22			; 00000016H
  00087	3b f8		 cmp	 edi, eax
  00089	0f 42 f8	 cmovb	 edi, eax

; 825  :         ++_Capacity; // Take null terminator into consideration

  0008c	8d 47 01	 lea	 eax, DWORD PTR [edi+1]
; File C:\Program Files\Microsoft Visual Studio\2022\Professional\VC\Tools\MSVC\14.44.35207\include\xmemory

; 227  :     if (_Bytes == 0) {

  0008f	85 c0		 test	 eax, eax
  00091	74 18		 je	 SHORT $LN59@basic_stri
$LN41@basic_stri:

; 228  :         return nullptr;
; 229  :     }
; 230  : 
; 231  : #if _HAS_CXX20 // TRANSITION, GH-1532
; 232  :     if (_STD is_constant_evaluated()) {
; 233  :         return _Traits::_Allocate(_Bytes);
; 234  :     }
; 235  : #endif // _HAS_CXX20
; 236  : 
; 237  : #ifdef __cpp_aligned_new
; 238  :     if constexpr (_Align > __STDCPP_DEFAULT_NEW_ALIGNMENT__) {
; 239  :         size_t _Passed_align = _Align;
; 240  : #if defined(_M_IX86) || defined(_M_X64)
; 241  :         if (_Bytes >= _Big_allocation_threshold) {
; 242  :             // boost the alignment of big allocations to help autovectorization
; 243  :             _Passed_align = (_STD max)(_Align, _Big_allocation_alignment);
; 244  :         }
; 245  : #endif // defined(_M_IX86) || defined(_M_X64)
; 246  :         return _Traits::_Allocate_aligned(_Bytes, _Passed_align);
; 247  :     } else
; 248  : #endif // defined(__cpp_aligned_new)
; 249  :     {
; 250  : #if defined(_M_IX86) || defined(_M_X64)
; 251  :         if (_Bytes >= _Big_allocation_threshold) {

  00093	3d 00 10 00 00	 cmp	 eax, 4096		; 00001000H
  00098	72 08		 jb	 SHORT $LN42@basic_stri

; 253  :             return _Allocate_manually_vector_aligned<_Traits>(_Bytes);

  0009a	50		 push	 eax
  0009b	e8 00 00 00 00	 call	 ??$_Allocate_manually_vector_aligned@U_Default_allocate_traits@std@@@std@@YAPAXI@Z ; std::_Allocate_manually_vector_aligned<std::_Default_allocate_traits>
  000a0	eb 06		 jmp	 SHORT $LN60@basic_stri
$LN42@basic_stri:

; 136  :         return ::operator new(_Bytes);

  000a2	50		 push	 eax
  000a3	e8 00 00 00 00	 call	 ??2@YAPAXI@Z		; operator new
$LN60@basic_stri:
; File C:\Program Files\Microsoft Visual Studio\2022\Professional\VC\Tools\MSVC\14.44.35207\include\xstring

; 913  :         _Construct_in_place(_My_data._Bx._Ptr, _New_ptr);

  000a8	83 c4 04	 add	 esp, 4
$LN59@basic_stri:
; File C:\Program Files\Microsoft Visual Studio\2022\Professional\VC\Tools\MSVC\14.44.35207\include\__msvc_string_view.hpp

; 121  :         _CSTD memcpy(_First1, _First2, _Count * sizeof(_Elem));

  000ab	56		 push	 esi
  000ac	ff 75 08	 push	 DWORD PTR __Ptr$[ebp]
; File C:\Program Files\Microsoft Visual Studio\2022\Professional\VC\Tools\MSVC\14.44.35207\include\xstring

; 913  :         _Construct_in_place(_My_data._Bx._Ptr, _New_ptr);

  000af	89 45 fc	 mov	 DWORD PTR $T1[ebp], eax
; File C:\Program Files\Microsoft Visual Studio\2022\Professional\VC\Tools\MSVC\14.44.35207\include\__msvc_string_view.hpp

; 121  :         _CSTD memcpy(_First1, _First2, _Count * sizeof(_Elem));

  000b2	50		 push	 eax
; File C:\Program Files\Microsoft Visual Studio\2022\Professional\VC\Tools\MSVC\14.44.35207\include\xstring

; 913  :         _Construct_in_place(_My_data._Bx._Ptr, _New_ptr);

  000b3	89 03		 mov	 DWORD PTR [ebx], eax

; 914  : 
; 915  :         _My_data._Mysize = _Count;

  000b5	89 73 10	 mov	 DWORD PTR [ebx+16], esi

; 916  :         _My_data._Myres  = _New_capacity;

  000b8	89 7b 14	 mov	 DWORD PTR [ebx+20], edi
; File C:\Program Files\Microsoft Visual Studio\2022\Professional\VC\Tools\MSVC\14.44.35207\include\__msvc_string_view.hpp

; 121  :         _CSTD memcpy(_First1, _First2, _Count * sizeof(_Elem));

  000bb	e8 00 00 00 00	 call	 _memcpy
; File C:\Program Files\Microsoft Visual Studio\2022\Professional\VC\Tools\MSVC\14.44.35207\include\xstring

; 922  :             _Traits::assign(_Unfancy(_New_ptr)[_Count], _Elem());

  000c0	8b 45 fc	 mov	 eax, DWORD PTR $T1[ebp]

; 769  :         _Construct<_Construct_strategy::_From_ptr>(_Ptr, _Convert_size<size_type>(_Traits::length(_Ptr)));
; 770  :     }

  000c3	83 c4 0c	 add	 esp, 12			; 0000000cH
  000c6	5f		 pop	 edi

; 922  :             _Traits::assign(_Unfancy(_New_ptr)[_Count], _Elem());

  000c7	c6 04 30 00	 mov	 BYTE PTR [eax+esi], 0

; 769  :         _Construct<_Construct_strategy::_From_ptr>(_Ptr, _Convert_size<size_type>(_Traits::length(_Ptr)));
; 770  :     }

  000cb	8b c3		 mov	 eax, ebx
  000cd	5e		 pop	 esi
  000ce	5b		 pop	 ebx
  000cf	8b e5		 mov	 esp, ebp
  000d1	5d		 pop	 ebp
  000d2	c2 04 00	 ret	 4
$LN62@basic_stri:

; 882  :             _Xlen_string(); // result too long

  000d5	e8 00 00 00 00	 call	 ?_Xlen_string@std@@YAXXZ ; std::_Xlen_string
$LN57@basic_stri:
  000da	cc		 int	 3
??0?$basic_string@DU?$char_traits@D@std@@V?$allocator@D@2@@std@@QAE@QBD@Z ENDP ; std::basic_string<char,std::char_traits<char>,std::allocator<char> >::basic_string<char,std::char_traits<char>,std::allocator<char> >
_TEXT	ENDS
; Function compile flags: /Ogtp
; File C:\Program Files\Microsoft Visual Studio\2022\Professional\VC\Tools\MSVC\14.44.35207\include\xstring
;	COMDAT ?_Xlen_string@std@@YAXXZ
_TEXT	SEGMENT
?_Xlen_string@std@@YAXXZ PROC				; std::_Xlen_string, COMDAT

; 531  :     _Xlength_error("string too long");

  00000	68 00 00 00 00	 push	 OFFSET ??_C@_0BA@JFNIOLAK@string?5too?5long@
  00005	e8 00 00 00 00	 call	 ?_Xlength_error@std@@YAXPBD@Z ; std::_Xlength_error
$LN3@Xlen_strin:
  0000a	cc		 int	 3
?_Xlen_string@std@@YAXXZ ENDP				; std::_Xlen_string
_TEXT	ENDS
; Function compile flags: /Ogtp
; File C:\Program Files\Microsoft Visual Studio\2022\Professional\VC\Tools\MSVC\14.44.35207\include\xmemory
;	COMDAT ?_Throw_bad_array_new_length@std@@YAXXZ
_TEXT	SEGMENT
$T1 = -12						; size = 12
?_Throw_bad_array_new_length@std@@YAXXZ PROC		; std::_Throw_bad_array_new_length, COMDAT

; 107  : [[noreturn]] inline void _Throw_bad_array_new_length() {

  00000	55		 push	 ebp
  00001	8b ec		 mov	 ebp, esp
  00003	83 ec 0c	 sub	 esp, 12			; 0000000cH

; 108  :     _THROW(bad_array_new_length{});

  00006	8d 4d f4	 lea	 ecx, DWORD PTR $T1[ebp]
  00009	e8 00 00 00 00	 call	 ??0bad_array_new_length@std@@QAE@XZ ; std::bad_array_new_length::bad_array_new_length
  0000e	68 00 00 00 00	 push	 OFFSET __TI3?AVbad_array_new_length@std@@
  00013	8d 45 f4	 lea	 eax, DWORD PTR $T1[ebp]
  00016	50		 push	 eax
  00017	e8 00 00 00 00	 call	 __CxxThrowException@8
$LN3@Throw_bad_:
  0001c	cc		 int	 3
?_Throw_bad_array_new_length@std@@YAXXZ ENDP		; std::_Throw_bad_array_new_length
_TEXT	ENDS
; Function compile flags: /Ogtp
; File C:\Program Files\Microsoft Visual Studio\2022\Professional\VC\Tools\MSVC\14.44.35207\include\vcruntime_exception.h
;	COMDAT ??_Gbad_array_new_length@std@@UAEPAXI@Z
_TEXT	SEGMENT
___flags$ = 8						; size = 4
??_Gbad_array_new_length@std@@UAEPAXI@Z PROC		; std::bad_array_new_length::`scalar deleting destructor', COMDAT
; _this$ = ecx
  00000	55		 push	 ebp
  00001	8b ec		 mov	 ebp, esp

; 90   :     {

  00003	56		 push	 esi
  00004	8b f1		 mov	 esi, ecx

; 91   :         __std_exception_destroy(&_Data);

  00006	8d 46 04	 lea	 eax, DWORD PTR [esi+4]
  00009	c7 06 00 00 00
	00		 mov	 DWORD PTR [esi], OFFSET ??_7exception@std@@6B@
  0000f	50		 push	 eax
  00010	e8 00 00 00 00	 call	 ___std_exception_destroy
  00015	83 c4 04	 add	 esp, 4
  00018	f6 45 08 01	 test	 BYTE PTR ___flags$[ebp], 1
  0001c	74 0b		 je	 SHORT $LN18@scalar
  0001e	6a 0c		 push	 12			; 0000000cH
  00020	56		 push	 esi
  00021	e8 00 00 00 00	 call	 ??3@YAXPAXI@Z		; operator delete
  00026	83 c4 08	 add	 esp, 8
$LN18@scalar:
  00029	8b c6		 mov	 eax, esi
  0002b	5e		 pop	 esi
  0002c	5d		 pop	 ebp
  0002d	c2 04 00	 ret	 4
??_Gbad_array_new_length@std@@UAEPAXI@Z ENDP		; std::bad_array_new_length::`scalar deleting destructor'
_TEXT	ENDS
; Function compile flags: /Ogtp
; File C:\Program Files\Microsoft Visual Studio\2022\Professional\VC\Tools\MSVC\14.44.35207\include\vcruntime_exception.h
;	COMDAT ??0bad_array_new_length@std@@QAE@ABV01@@Z
_TEXT	SEGMENT
___that$ = 8						; size = 4
??0bad_array_new_length@std@@QAE@ABV01@@Z PROC		; std::bad_array_new_length::bad_array_new_length, COMDAT
; _this$ = ecx
  00000	55		 push	 ebp
  00001	8b ec		 mov	 ebp, esp

; 73   :     {

  00003	56		 push	 esi
  00004	8b f1		 mov	 esi, ecx
  00006	0f 57 c0	 xorps	 xmm0, xmm0

; 72   :         : _Data()

  00009	8d 46 04	 lea	 eax, DWORD PTR [esi+4]

; 74   :         __std_exception_copy(&_Other._Data, &_Data);

  0000c	50		 push	 eax
  0000d	c7 06 00 00 00
	00		 mov	 DWORD PTR [esi], OFFSET ??_7exception@std@@6B@
  00013	66 0f d6 00	 movq	 QWORD PTR [eax], xmm0
  00017	8b 45 08	 mov	 eax, DWORD PTR ___that$[ebp]
  0001a	83 c0 04	 add	 eax, 4
  0001d	50		 push	 eax
  0001e	e8 00 00 00 00	 call	 ___std_exception_copy
  00023	83 c4 08	 add	 esp, 8
  00026	c7 06 00 00 00
	00		 mov	 DWORD PTR [esi], OFFSET ??_7bad_array_new_length@std@@6B@
  0002c	8b c6		 mov	 eax, esi
  0002e	5e		 pop	 esi
  0002f	5d		 pop	 ebp
  00030	c2 04 00	 ret	 4
??0bad_array_new_length@std@@QAE@ABV01@@Z ENDP		; std::bad_array_new_length::bad_array_new_length
_TEXT	ENDS
; Function compile flags: /Ogtp
; File C:\Program Files\Microsoft Visual Studio\2022\Professional\VC\Tools\MSVC\14.44.35207\include\vcruntime_exception.h
;	COMDAT ??1bad_array_new_length@std@@UAE@XZ
_TEXT	SEGMENT
??1bad_array_new_length@std@@UAE@XZ PROC		; std::bad_array_new_length::~bad_array_new_length, COMDAT
; _this$ = ecx

; 91   :         __std_exception_destroy(&_Data);

  00000	8d 41 04	 lea	 eax, DWORD PTR [ecx+4]
  00003	c7 01 00 00 00
	00		 mov	 DWORD PTR [ecx], OFFSET ??_7exception@std@@6B@
  00009	50		 push	 eax
  0000a	e8 00 00 00 00	 call	 ___std_exception_destroy
  0000f	59		 pop	 ecx
  00010	c3		 ret	 0
??1bad_array_new_length@std@@UAE@XZ ENDP		; std::bad_array_new_length::~bad_array_new_length
_TEXT	ENDS
; Function compile flags: /Ogtp
; File C:\Program Files\Microsoft Visual Studio\2022\Professional\VC\Tools\MSVC\14.44.35207\include\vcruntime_exception.h
;	COMDAT ??0bad_array_new_length@std@@QAE@XZ
_TEXT	SEGMENT
??0bad_array_new_length@std@@QAE@XZ PROC		; std::bad_array_new_length::bad_array_new_length, COMDAT
; _this$ = ecx

; 144  :     {

  00000	0f 57 c0	 xorps	 xmm0, xmm0

; 145  :     }

  00003	8b c1		 mov	 eax, ecx

; 66   :         : _Data()

  00005	66 0f d6 41 04	 movq	 QWORD PTR [ecx+4], xmm0

; 67   :     {
; 68   :         _Data._What = _Message;

  0000a	c7 41 04 00 00
	00 00		 mov	 DWORD PTR [ecx+4], OFFSET ??_C@_0BF@KINCDENJ@bad?5array?5new?5length@

; 144  :     {

  00011	c7 01 00 00 00
	00		 mov	 DWORD PTR [ecx], OFFSET ??_7bad_array_new_length@std@@6B@

; 145  :     }

  00017	c3		 ret	 0
??0bad_array_new_length@std@@QAE@XZ ENDP		; std::bad_array_new_length::bad_array_new_length
_TEXT	ENDS
; Function compile flags: /Ogtp
; File C:\Program Files\Microsoft Visual Studio\2022\Professional\VC\Tools\MSVC\14.44.35207\include\vcruntime_exception.h
;	COMDAT ??_Gbad_alloc@std@@UAEPAXI@Z
_TEXT	SEGMENT
___flags$ = 8						; size = 4
??_Gbad_alloc@std@@UAEPAXI@Z PROC			; std::bad_alloc::`scalar deleting destructor', COMDAT
; _this$ = ecx
  00000	55		 push	 ebp
  00001	8b ec		 mov	 ebp, esp

; 90   :     {

  00003	56		 push	 esi
  00004	8b f1		 mov	 esi, ecx

; 91   :         __std_exception_destroy(&_Data);

  00006	8d 46 04	 lea	 eax, DWORD PTR [esi+4]
  00009	c7 06 00 00 00
	00		 mov	 DWORD PTR [esi], OFFSET ??_7exception@std@@6B@
  0000f	50		 push	 eax
  00010	e8 00 00 00 00	 call	 ___std_exception_destroy
  00015	83 c4 04	 add	 esp, 4
  00018	f6 45 08 01	 test	 BYTE PTR ___flags$[ebp], 1
  0001c	74 0b		 je	 SHORT $LN13@scalar
  0001e	6a 0c		 push	 12			; 0000000cH
  00020	56		 push	 esi
  00021	e8 00 00 00 00	 call	 ??3@YAXPAXI@Z		; operator delete
  00026	83 c4 08	 add	 esp, 8
$LN13@scalar:
  00029	8b c6		 mov	 eax, esi
  0002b	5e		 pop	 esi
  0002c	5d		 pop	 ebp
  0002d	c2 04 00	 ret	 4
??_Gbad_alloc@std@@UAEPAXI@Z ENDP			; std::bad_alloc::`scalar deleting destructor'
_TEXT	ENDS
; Function compile flags: /Ogtp
; File C:\Program Files\Microsoft Visual Studio\2022\Professional\VC\Tools\MSVC\14.44.35207\include\vcruntime_exception.h
;	COMDAT ??0bad_alloc@std@@QAE@ABV01@@Z
_TEXT	SEGMENT
___that$ = 8						; size = 4
??0bad_alloc@std@@QAE@ABV01@@Z PROC			; std::bad_alloc::bad_alloc, COMDAT
; _this$ = ecx
  00000	55		 push	 ebp
  00001	8b ec		 mov	 ebp, esp

; 73   :     {

  00003	56		 push	 esi
  00004	8b f1		 mov	 esi, ecx
  00006	0f 57 c0	 xorps	 xmm0, xmm0

; 72   :         : _Data()

  00009	8d 46 04	 lea	 eax, DWORD PTR [esi+4]

; 74   :         __std_exception_copy(&_Other._Data, &_Data);

  0000c	50		 push	 eax
  0000d	c7 06 00 00 00
	00		 mov	 DWORD PTR [esi], OFFSET ??_7exception@std@@6B@
  00013	66 0f d6 00	 movq	 QWORD PTR [eax], xmm0
  00017	8b 45 08	 mov	 eax, DWORD PTR ___that$[ebp]
  0001a	83 c0 04	 add	 eax, 4
  0001d	50		 push	 eax
  0001e	e8 00 00 00 00	 call	 ___std_exception_copy
  00023	83 c4 08	 add	 esp, 8
  00026	c7 06 00 00 00
	00		 mov	 DWORD PTR [esi], OFFSET ??_7bad_alloc@std@@6B@
  0002c	8b c6		 mov	 eax, esi
  0002e	5e		 pop	 esi
  0002f	5d		 pop	 ebp
  00030	c2 04 00	 ret	 4
??0bad_alloc@std@@QAE@ABV01@@Z ENDP			; std::bad_alloc::bad_alloc
_TEXT	ENDS
; Function compile flags: /Ogtp
; File C:\Program Files\Microsoft Visual Studio\2022\Professional\VC\Tools\MSVC\14.44.35207\include\vcruntime_exception.h
;	COMDAT ??_Gexception@std@@UAEPAXI@Z
_TEXT	SEGMENT
___flags$ = 8						; size = 4
??_Gexception@std@@UAEPAXI@Z PROC			; std::exception::`scalar deleting destructor', COMDAT
; _this$ = ecx
  00000	55		 push	 ebp
  00001	8b ec		 mov	 ebp, esp

; 90   :     {

  00003	56		 push	 esi
  00004	8b f1		 mov	 esi, ecx

; 91   :         __std_exception_destroy(&_Data);

  00006	8d 46 04	 lea	 eax, DWORD PTR [esi+4]
  00009	c7 06 00 00 00
	00		 mov	 DWORD PTR [esi], OFFSET ??_7exception@std@@6B@
  0000f	50		 push	 eax
  00010	e8 00 00 00 00	 call	 ___std_exception_destroy
  00015	83 c4 04	 add	 esp, 4
  00018	f6 45 08 01	 test	 BYTE PTR ___flags$[ebp], 1
  0001c	74 0b		 je	 SHORT $LN8@scalar
  0001e	6a 0c		 push	 12			; 0000000cH
  00020	56		 push	 esi
  00021	e8 00 00 00 00	 call	 ??3@YAXPAXI@Z		; operator delete
  00026	83 c4 08	 add	 esp, 8
$LN8@scalar:
  00029	8b c6		 mov	 eax, esi
  0002b	5e		 pop	 esi
  0002c	5d		 pop	 ebp
  0002d	c2 04 00	 ret	 4
??_Gexception@std@@UAEPAXI@Z ENDP			; std::exception::`scalar deleting destructor'
_TEXT	ENDS
; Function compile flags: /Ogtp
; File C:\Program Files\Microsoft Visual Studio\2022\Professional\VC\Tools\MSVC\14.44.35207\include\vcruntime_exception.h
;	COMDAT ?what@exception@std@@UBEPBDXZ
_TEXT	SEGMENT
?what@exception@std@@UBEPBDXZ PROC			; std::exception::what, COMDAT
; _this$ = ecx

; 96   :         return _Data._What ? _Data._What : "Unknown exception";

  00000	8b 49 04	 mov	 ecx, DWORD PTR [ecx+4]
  00003	b8 00 00 00 00	 mov	 eax, OFFSET ??_C@_0BC@EOODALEL@Unknown?5exception@
  00008	85 c9		 test	 ecx, ecx
  0000a	0f 45 c1	 cmovne	 eax, ecx

; 97   :     }

  0000d	c3		 ret	 0
?what@exception@std@@UBEPBDXZ ENDP			; std::exception::what
_TEXT	ENDS
; Function compile flags: /Ogtp
; File C:\Program Files\Microsoft Visual Studio\2022\Professional\VC\Tools\MSVC\14.44.35207\include\vcruntime_exception.h
;	COMDAT ??1exception@std@@UAE@XZ
_TEXT	SEGMENT
??1exception@std@@UAE@XZ PROC				; std::exception::~exception, COMDAT
; _this$ = ecx

; 91   :         __std_exception_destroy(&_Data);

  00000	8d 41 04	 lea	 eax, DWORD PTR [ecx+4]
  00003	c7 01 00 00 00
	00		 mov	 DWORD PTR [ecx], OFFSET ??_7exception@std@@6B@
  00009	50		 push	 eax
  0000a	e8 00 00 00 00	 call	 ___std_exception_destroy
  0000f	59		 pop	 ecx

; 92   :     }

  00010	c3		 ret	 0
??1exception@std@@UAE@XZ ENDP				; std::exception::~exception
_TEXT	ENDS
; Function compile flags: /Ogtp
; File C:\Program Files\Microsoft Visual Studio\2022\Professional\VC\Tools\MSVC\14.44.35207\include\vcruntime_exception.h
;	COMDAT ??0exception@std@@QAE@ABV01@@Z
_TEXT	SEGMENT
__Other$ = 8						; size = 4
??0exception@std@@QAE@ABV01@@Z PROC			; std::exception::exception, COMDAT
; _this$ = ecx

; 73   :     {

  00000	55		 push	 ebp
  00001	8b ec		 mov	 ebp, esp
  00003	56		 push	 esi
  00004	8b f1		 mov	 esi, ecx
  00006	0f 57 c0	 xorps	 xmm0, xmm0
  00009	8d 46 04	 lea	 eax, DWORD PTR [esi+4]

; 74   :         __std_exception_copy(&_Other._Data, &_Data);

  0000c	50		 push	 eax
  0000d	c7 06 00 00 00
	00		 mov	 DWORD PTR [esi], OFFSET ??_7exception@std@@6B@
  00013	66 0f d6 00	 movq	 QWORD PTR [eax], xmm0
  00017	8b 45 08	 mov	 eax, DWORD PTR __Other$[ebp]
  0001a	83 c0 04	 add	 eax, 4
  0001d	50		 push	 eax
  0001e	e8 00 00 00 00	 call	 ___std_exception_copy
  00023	83 c4 08	 add	 esp, 8

; 75   :     }

  00026	8b c6		 mov	 eax, esi
  00028	5e		 pop	 esi
  00029	5d		 pop	 ebp
  0002a	c2 04 00	 ret	 4
??0exception@std@@QAE@ABV01@@Z ENDP			; std::exception::exception
_TEXT	ENDS
; Function compile flags: /Ogtp
; File C:\Program Files\Microsoft Visual Studio\2022\Professional\VC\Tools\MSVC\14.44.35207\atlmfc\include\cstringt.h
; File C:\Program Files\Microsoft Visual Studio\2022\Professional\VC\Tools\MSVC\14.44.35207\atlmfc\include\atlsimpstr.h
; File C:\Program Files\Microsoft Visual Studio\2022\Professional\VC\Tools\MSVC\14.44.35207\atlmfc\include\cstringt.h
;	COMDAT ??1?$CStringT@DV?$StrTraitMFC@DV?$ChTraitsCRT@D@ATL@@@@@ATL@@QAE@XZ
_TEXT	SEGMENT
??1?$CStringT@DV?$StrTraitMFC@DV?$ChTraitsCRT@D@ATL@@@@@ATL@@QAE@XZ PROC ; ATL::CStringT<char,StrTraitMFC<char,ATL::ChTraitsCRT<char> > >::~CStringT<char,StrTraitMFC<char,ATL::ChTraitsCRT<char> > >, COMDAT
; _this$ = ecx
; File C:\Program Files\Microsoft Visual Studio\2022\Professional\VC\Tools\MSVC\14.44.35207\atlmfc\include\atlsimpstr.h

; 804  : 		return( reinterpret_cast< CStringData* >( m_pszData )-1 );

  00000	8b 11		 mov	 edx, DWORD PTR [ecx]

; 92   : 		if( _InterlockedDecrement( &nRefs ) <= 0 )

  00002	83 c8 ff	 or	 eax, -1

; 804  : 		return( reinterpret_cast< CStringData* >( m_pszData )-1 );

  00005	83 ea 10	 sub	 edx, 16			; 00000010H

; 92   : 		if( _InterlockedDecrement( &nRefs ) <= 0 )

  00008	f0 0f c1 42 0c	 lock	  xadd	 DWORD PTR [edx+12], eax
  0000d	48		 dec	 eax
  0000e	85 c0		 test	 eax, eax
  00010	7f 08		 jg	 SHORT $LN8@CStringT

; 93   : 		{
; 94   : 			pStringMgr->Free( this );

  00012	8b 0a		 mov	 ecx, DWORD PTR [edx]
  00014	52		 push	 edx
  00015	8b 01		 mov	 eax, DWORD PTR [ecx]
  00017	ff 50 04	 call	 DWORD PTR [eax+4]
$LN8@CStringT:
; File C:\Program Files\Microsoft Visual Studio\2022\Professional\VC\Tools\MSVC\14.44.35207\atlmfc\include\cstringt.h

; 1303 : 	}

  0001a	c3		 ret	 0
??1?$CStringT@DV?$StrTraitMFC@DV?$ChTraitsCRT@D@ATL@@@@@ATL@@QAE@XZ ENDP ; ATL::CStringT<char,StrTraitMFC<char,ATL::ChTraitsCRT<char> > >::~CStringT<char,StrTraitMFC<char,ATL::ChTraitsCRT<char> > >
_TEXT	ENDS
; Function compile flags: /Ogtp
; File C:\Program Files\Microsoft Visual Studio\2022\Professional\VC\Tools\MSVC\14.44.35207\atlmfc\include\atlexcept.h
;	COMDAT ?AtlThrowImpl@ATL@@YGXJ@Z
_TEXT	SEGMENT
_hr$ = 8						; size = 4
?AtlThrowImpl@ATL@@YGXJ@Z PROC				; ATL::AtlThrowImpl, COMDAT

; 69   : {

  00000	55		 push	 ebp
  00001	8b ec		 mov	 ebp, esp

; 70   : 	ATLTRACE(atlTraceException, 0, _T("AtlThrow: hr = 0x%x\n"), hr );
; 71   : #ifdef _AFX
; 72   : 	if( hr == E_OUTOFMEMORY )

  00003	8b 45 08	 mov	 eax, DWORD PTR _hr$[ebp]
  00006	3d 0e 00 07 80	 cmp	 eax, -2147024882	; 8007000eH
  0000b	75 05		 jne	 SHORT $LN2@AtlThrowIm

; 73   : 	{
; 74   : 		AfxThrowMemoryException();

  0000d	e8 00 00 00 00	 call	 ?AfxThrowMemoryException@@YGXXZ ; AfxThrowMemoryException
$LN2@AtlThrowIm:

; 75   : 	}
; 76   : 	else
; 77   : 	{
; 78   : 		AfxThrowOleException( hr );

  00012	50		 push	 eax
  00013	e8 00 00 00 00	 call	 ?AfxThrowOleException@@YGXJ@Z ; AfxThrowOleException
$LN5@AtlThrowIm:
  00018	cc		 int	 3
?AtlThrowImpl@ATL@@YGXJ@Z ENDP				; ATL::AtlThrowImpl
_TEXT	ENDS
; Function compile flags: /Ogtp
; File C:\Program Files (x86)\Windows Kits\10\Include\10.0.26100.0\ucrt\stdio.h
;	COMDAT _sprintf
_TEXT	SEGMENT
__Buffer$ = 8						; size = 4
__Format$ = 12						; size = 4
_sprintf PROC						; COMDAT

; 1771 :     {

  00000	55		 push	 ebp
  00001	8b ec		 mov	 ebp, esp

; 1392 :         int const _Result = __stdio_common_vsprintf(

  00003	8d 45 10	 lea	 eax, DWORD PTR __Format$[ebp+4]
  00006	50		 push	 eax
  00007	6a 00		 push	 0
  00009	ff 75 0c	 push	 DWORD PTR __Format$[ebp]
  0000c	6a ff		 push	 -1
  0000e	ff 75 08	 push	 DWORD PTR __Buffer$[ebp]
  00011	e8 00 00 00 00	 call	 ___local_stdio_printf_options
  00016	8b 08		 mov	 ecx, DWORD PTR [eax]
  00018	ff 70 04	 push	 DWORD PTR [eax+4]
  0001b	83 c9 01	 or	 ecx, 1
  0001e	51		 push	 ecx
  0001f	e8 00 00 00 00	 call	 ___stdio_common_vsprintf

; 1393 :             _CRT_INTERNAL_LOCAL_PRINTF_OPTIONS | _CRT_INTERNAL_PRINTF_LEGACY_VSPRINTF_NULL_TERMINATION,
; 1394 :             _Buffer, _BufferCount, _Format, _Locale, _ArgList);
; 1395 : 
; 1396 :         return _Result < 0 ? -1 : _Result;

  00024	83 c9 ff	 or	 ecx, -1
  00027	83 c4 1c	 add	 esp, 28			; 0000001cH
  0002a	85 c0		 test	 eax, eax
  0002c	0f 48 c1	 cmovs	 eax, ecx

; 1772 :         int _Result;
; 1773 :         va_list _ArgList;
; 1774 :         __crt_va_start(_ArgList, _Format);
; 1775 : 
; 1776 :         _Result = _vsprintf_l(_Buffer, _Format, NULL, _ArgList);
; 1777 : 
; 1778 :         __crt_va_end(_ArgList);
; 1779 :         return _Result;
; 1780 :     }

  0002f	5d		 pop	 ebp
  00030	c3		 ret	 0
_sprintf ENDP
_TEXT	ENDS
; Function compile flags: /Ogtp
; File C:\Program Files (x86)\Windows Kits\10\Include\10.0.26100.0\ucrt\corecrt_stdio_config.h
;	COMDAT ___local_stdio_printf_options
_TEXT	SEGMENT
___local_stdio_printf_options PROC			; COMDAT

; 91   :         static unsigned __int64 _OptionsStorage;
; 92   :         return &_OptionsStorage;

  00000	b8 00 00 00 00	 mov	 eax, OFFSET ?_OptionsStorage@?1??__local_stdio_printf_options@@9@4_KA ; `__local_stdio_printf_options'::`2'::_OptionsStorage

; 93   :     }

  00005	c3		 ret	 0
___local_stdio_printf_options ENDP
_TEXT	ENDS
; Function compile flags: /Ogtp
; File C:\IAGOS\server\v18\Source\Source\DatabaseServer\Project.cpp
;	COMDAT ?__empty_global_delete@@YAXPAXI@Z
_TEXT	SEGMENT
___formal$ = 8						; size = 4
___formal$ = 12						; size = 4
?__empty_global_delete@@YAXPAXI@Z PROC			; __empty_global_delete, COMDAT

  00000	c2 00 00	 ret	 0
?__empty_global_delete@@YAXPAXI@Z ENDP			; __empty_global_delete
_TEXT	ENDS
; Function compile flags: /Ogtp
; File C:\IAGOS\server\v18\Source\Source\DatabaseServer\Project.cpp
;	COMDAT ?__empty_global_delete@@YAXPAX@Z
_TEXT	SEGMENT
___formal$ = 8						; size = 4
?__empty_global_delete@@YAXPAX@Z PROC			; __empty_global_delete, COMDAT

  00000	c2 00 00	 ret	 0
?__empty_global_delete@@YAXPAX@Z ENDP			; __empty_global_delete
_TEXT	ENDS
; Function compile flags: /Ogtp
;	COMDAT ??_H@YGXPAXIIP6EPAX0@Z@Z
_TEXT	SEGMENT
___t$ = 8						; size = 4
___s$ = 12						; size = 4
___n$ = 16						; size = 4
___f$ = 20						; size = 4
??_H@YGXPAXIIP6EPAX0@Z@Z PROC				; `vector constructor iterator', COMDAT
  00000	55		 push	 ebp
  00001	8b ec		 mov	 ebp, esp
  00003	56		 push	 esi
  00004	8b 75 10	 mov	 esi, DWORD PTR ___n$[ebp]
  00007	85 f6		 test	 esi, esi
  00009	74 16		 je	 SHORT $LN6@vector
  0000b	53		 push	 ebx
  0000c	8b 5d 14	 mov	 ebx, DWORD PTR ___f$[ebp]
  0000f	57		 push	 edi
  00010	8b 7d 08	 mov	 edi, DWORD PTR ___t$[ebp]
$LL2@vector:
  00013	8b cf		 mov	 ecx, edi
  00015	ff d3		 call	 ebx
  00017	03 7d 0c	 add	 edi, DWORD PTR ___s$[ebp]
  0001a	83 ee 01	 sub	 esi, 1
  0001d	75 f4		 jne	 SHORT $LL2@vector
  0001f	5f		 pop	 edi
  00020	5b		 pop	 ebx
$LN6@vector:
  00021	5e		 pop	 esi
  00022	5d		 pop	 ebp
  00023	c2 10 00	 ret	 16			; 00000010H
??_H@YGXPAXIIP6EPAX0@Z@Z ENDP				; `vector constructor iterator'
_TEXT	ENDS
END
