; Listing generated by Microsoft (R) Optimizing Compiler Version 19.44.35225.0 

	TITLE	C:\IAGOS\server\v18\Source\Output\DatabaseServer\Release\ProjectCmn.obj
	.686P
	.XMM
	include listing.inc
	.model	flat

INCLUDELIB LIBCMT
INCLUDELIB OLDNAMES

PUBLIC	?__empty_global_delete@@YAXPAX@Z		; __empty_global_delete
PUBLIC	?__empty_global_delete@@YAXPAXI@Z		; __empty_global_delete
PUBLIC	?AfxCrtErrorCheck@@YAHH@Z			; AfxCrtErrorCheck
PUBLIC	?AtlThrowImpl@ATL@@YGXJ@Z			; ATL::AtlThrowImpl
PUBLIC	??1?$CSimpleStringT@D$0A@@ATL@@QAE@XZ		; ATL::CSimpleStringT<char,0>::~CSimpleStringT<char,0>
PUBLIC	?SetString@?$CSimpleStringT@D$0A@@ATL@@QAEXPBDH@Z ; ATL::CSimpleStringT<char,0>::SetString
PUBLIC	?ThrowMemoryException@?$CSimpleStringT@D$0A@@ATL@@KAXXZ ; ATL::CSimpleStringT<char,0>::ThrowMemoryException
PUBLIC	?Fork@?$CSimpleStringT@D$0A@@ATL@@AAEXH@Z	; ATL::CSimpleStringT<char,0>::Fork
PUBLIC	?PrepareWrite2@?$CSimpleStringT@D$0A@@ATL@@AAEXH@Z ; ATL::CSimpleStringT<char,0>::PrepareWrite2
PUBLIC	?Reallocate@?$CSimpleStringT@D$0A@@ATL@@AAEXH@Z	; ATL::CSimpleStringT<char,0>::Reallocate
PUBLIC	?CloneData@?$CSimpleStringT@D$0A@@ATL@@CAPAUCStringData@2@PAU32@@Z ; ATL::CSimpleStringT<char,0>::CloneData
PUBLIC	??1?$CStringT@DV?$StrTraitMFC@DV?$ChTraitsCRT@D@ATL@@@@@ATL@@QAE@XZ ; ATL::CStringT<char,StrTraitMFC<char,ATL::ChTraitsCRT<char> > >::~CStringT<char,StrTraitMFC<char,ATL::ChTraitsCRT<char> > >
PUBLIC	??4?$CStringT@DV?$StrTraitMFC@DV?$ChTraitsCRT@D@ATL@@@@@ATL@@QAEAAV01@ABV01@@Z ; ATL::CStringT<char,StrTraitMFC<char,ATL::ChTraitsCRT<char> > >::operator=
PUBLIC	?Replace@?$CStringT@DV?$StrTraitMFC@DV?$ChTraitsCRT@D@ATL@@@@@ATL@@QAEHPBD0@Z ; ATL::CStringT<char,StrTraitMFC<char,ATL::ChTraitsCRT<char> > >::Replace
PUBLIC	?LoadStringA@?$CStringT@DV?$StrTraitMFC@DV?$ChTraitsCRT@D@ATL@@@@@ATL@@QAEHI@Z ; ATL::CStringT<char,StrTraitMFC<char,ATL::ChTraitsCRT<char> > >::LoadStringA
PUBLIC	??HATL@@YA?AV?$CStringT@DV?$StrTraitMFC@DV?$ChTraitsCRT@D@ATL@@@@@0@ABV10@PBD@Z ; ATL::operator+
PUBLIC	??0exception@std@@QAE@ABV01@@Z			; std::exception::exception
PUBLIC	??1exception@std@@UAE@XZ			; std::exception::~exception
PUBLIC	?what@exception@std@@UBEPBDXZ			; std::exception::what
PUBLIC	??_Gexception@std@@UAEPAXI@Z			; std::exception::`scalar deleting destructor'
PUBLIC	??0bad_alloc@std@@QAE@ABV01@@Z			; std::bad_alloc::bad_alloc
PUBLIC	??_Gbad_alloc@std@@UAEPAXI@Z			; std::bad_alloc::`scalar deleting destructor'
PUBLIC	??0bad_array_new_length@std@@QAE@XZ		; std::bad_array_new_length::bad_array_new_length
PUBLIC	??1bad_array_new_length@std@@UAE@XZ		; std::bad_array_new_length::~bad_array_new_length
PUBLIC	??0bad_array_new_length@std@@QAE@ABV01@@Z	; std::bad_array_new_length::bad_array_new_length
PUBLIC	??_Gbad_array_new_length@std@@UAEPAXI@Z		; std::bad_array_new_length::`scalar deleting destructor'
PUBLIC	?_Throw_bad_array_new_length@std@@YAXXZ		; std::_Throw_bad_array_new_length
PUBLIC	?_Xlen_string@std@@YAXXZ			; std::_Xlen_string
PUBLIC	??0?$basic_string@DU?$char_traits@D@std@@V?$allocator@D@2@@std@@QAE@ABV01@@Z ; std::basic_string<char,std::char_traits<char>,std::allocator<char> >::basic_string<char,std::char_traits<char>,std::allocator<char> >
PUBLIC	??0?$basic_string@DU?$char_traits@D@std@@V?$allocator@D@2@@std@@QAE@QBD@Z ; std::basic_string<char,std::char_traits<char>,std::allocator<char> >::basic_string<char,std::char_traits<char>,std::allocator<char> >
PUBLIC	??1?$basic_string@DU?$char_traits@D@std@@V?$allocator@D@2@@std@@QAE@XZ ; std::basic_string<char,std::char_traits<char>,std::allocator<char> >::~basic_string<char,std::char_traits<char>,std::allocator<char> >
PUBLIC	?_Throw_tree_length_error@std@@YAXXZ		; std::_Throw_tree_length_error
PUBLIC	?_Insert_node@?$_Tree_val@U?$_Tree_simple_types@U?$pair@$$CBV?$basic_string@DU?$char_traits@D@std@@V?$allocator@D@2@@std@@K@std@@@std@@@std@@QAEPAU?$_Tree_node@U?$pair@$$CBV?$basic_string@DU?$char_traits@D@std@@V?$allocator@D@2@@std@@K@std@@PAX@2@U?$_Tree_id@PAU?$_Tree_node@U?$pair@$$CBV?$basic_string@DU?$char_traits@D@std@@V?$allocator@D@2@@std@@K@std@@PAX@std@@@2@QAU32@@Z ; std::_Tree_val<std::_Tree_simple_types<std::pair<std::basic_string<char,std::char_traits<char>,std::allocator<char> > const ,unsigned long> > >::_Insert_node
PUBLIC	?SetAtGrow@?$CFixedArray@UItemProp@@@@QAEXHPAUItemProp@@H@Z ; CFixedArray<ItemProp>::SetAtGrow
PUBLIC	?Optimize@?$CFixedArray@UItemProp@@@@QAEXXZ	; CFixedArray<ItemProp>::Optimize
PUBLIC	?SetAtGrow@?$CFixedArray@UtagColorText@@@@QAEXHPAUtagColorText@@H@Z ; CFixedArray<tagColorText>::SetAtGrow
PUBLIC	?Optimize@?$CFixedArray@UtagColorText@@@@QAEXXZ	; CFixedArray<tagColorText>::Optimize
PUBLIC	?_Insert_node@?$_Tree_val@U?$_Tree_simple_types@V?$basic_string@DU?$char_traits@D@std@@V?$allocator@D@2@@std@@@std@@@std@@QAEPAU?$_Tree_node@V?$basic_string@DU?$char_traits@D@std@@V?$allocator@D@2@@std@@PAX@2@U?$_Tree_id@PAU?$_Tree_node@V?$basic_string@DU?$char_traits@D@std@@V?$allocator@D@2@@std@@PAX@std@@@2@QAU32@@Z ; std::_Tree_val<std::_Tree_simple_types<std::basic_string<char,std::char_traits<char>,std::allocator<char> > > >::_Insert_node
PUBLIC	?LoadInvalidName@CProject@@QAEHXZ		; CProject::LoadInvalidName
PUBLIC	?IsInvalidName@CProject@@QAEHPBD@Z		; CProject::IsInvalidName
PUBLIC	?_Insert_node@?$_Tree_val@U?$_Tree_simple_types@D@std@@@std@@QAEPAU?$_Tree_node@DPAX@2@U?$_Tree_id@PAU?$_Tree_node@DPAX@std@@@2@QAU32@@Z ; std::_Tree_val<std::_Tree_simple_types<char> >::_Insert_node
PUBLIC	?LoadAllowedLetter@CProject@@QAEHH@Z		; CProject::LoadAllowedLetter
PUBLIC	?IsAllowedLetter@CProject@@QAEHPBDH@Z		; CProject::IsAllowedLetter
PUBLIC	?Formalize@CProject@@QAEXPAD@Z			; CProject::Formalize
PUBLIC	?LoadDefines@CProject@@QAEXXZ			; CProject::LoadDefines
PUBLIC	?LoadPreFiles@CProject@@QAEXXZ			; CProject::LoadPreFiles
PUBLIC	?LoadStrings@CProject@@QAEXXZ			; CProject::LoadStrings
PUBLIC	?LoadPropMover@CProject@@QAEHPBD@Z		; CProject::LoadPropMover
PUBLIC	?LoadPropItem@CProject@@QAEHPBDPAV?$CFixedArray@UItemProp@@@@@Z ; CProject::LoadPropItem
PUBLIC	?LoadPropItemEx@CProject@@QAEHPBDPAV?$CFixedArray@UItemProp@@@@@Z ; CProject::LoadPropItemEx
PUBLIC	?LoadJobItem@CProject@@QAEHPBD@Z		; CProject::LoadJobItem
PUBLIC	?LoadText@CProject@@QAEHPBD@Z			; CProject::LoadText
PUBLIC	?GetLangScript@CProject@@QAE?AV?$CStringT@DV?$StrTraitMFC@DV?$ChTraitsCRT@D@ATL@@@@@ATL@@AAVCScript@@@Z ; CProject::GetLangScript
PUBLIC	??1?$pair@$$CBV?$basic_string@DU?$char_traits@D@std@@V?$allocator@D@2@@std@@K@std@@QAE@XZ ; std::pair<std::basic_string<char,std::char_traits<char>,std::allocator<char> > const ,unsigned long>::~pair<std::basic_string<char,std::char_traits<char>,std::allocator<char> > const ,unsigned long>
PUBLIC	??$?MDU?$char_traits@D@std@@V?$allocator@D@1@@std@@YA_NABV?$basic_string@DU?$char_traits@D@std@@V?$allocator@D@2@@0@0@Z ; std::operator<<char,std::char_traits<char>,std::allocator<char> >
PUBLIC	??$_Allocate_manually_vector_aligned@U_Default_allocate_traits@std@@@std@@YAPAXI@Z ; std::_Allocate_manually_vector_aligned<std::_Default_allocate_traits>
PUBLIC	?GetLangFileName@@YA?AV?$CStringT@DV?$StrTraitMFC@DV?$ChTraitsCRT@D@ATL@@@@@ATL@@HH@Z ; GetLangFileName
PUBLIC	??1?$_Tree@V?$_Tset_traits@HU?$less@H@std@@V?$allocator@H@2@$0A@@std@@@std@@QAE@XZ ; std::_Tree<std::_Tset_traits<int,std::less<int>,std::allocator<int>,0> >::~_Tree<std::_Tset_traits<int,std::less<int>,std::allocator<int>,0> >
PUBLIC	?_Insert_node@?$_Tree_val@U?$_Tree_simple_types@H@std@@@std@@QAEPAU?$_Tree_node@HPAX@2@U?$_Tree_id@PAU?$_Tree_node@HPAX@std@@@2@QAU32@@Z ; std::_Tree_val<std::_Tree_simple_types<int> >::_Insert_node
PUBLIC	??1?$set@HU?$less@H@std@@V?$allocator@H@2@@std@@QAE@XZ ; std::set<int,std::less<int>,std::allocator<int> >::~set<int,std::less<int>,std::allocator<int> >
PUBLIC	??1?$_Alloc_construct_ptr@V?$allocator@U?$_Tree_node@HPAX@std@@@std@@@std@@QAE@XZ ; std::_Alloc_construct_ptr<std::allocator<std::_Tree_node<int,void *> > >::~_Alloc_construct_ptr<std::allocator<std::_Tree_node<int,void *> > >
PUBLIC	??1?$_Alloc_construct_ptr@V?$allocator@U?$_Tree_node@U?$pair@$$CBV?$basic_string@DU?$char_traits@D@std@@V?$allocator@D@2@@std@@K@std@@PAX@std@@@std@@@std@@QAE@XZ ; std::_Alloc_construct_ptr<std::allocator<std::_Tree_node<std::pair<std::basic_string<char,std::char_traits<char>,std::allocator<char> > const ,unsigned long>,void *> > >::~_Alloc_construct_ptr<std::allocator<std::_Tree_node<std::pair<std::basic_string<char,std::char_traits<char>,std::allocator<char> > const ,unsigned long>,void *> > >
PUBLIC	??1?$_Tree_temp_node_alloc@V?$allocator@U?$_Tree_node@U?$pair@$$CBV?$basic_string@DU?$char_traits@D@std@@V?$allocator@D@2@@std@@K@std@@PAX@std@@@std@@@std@@QAE@XZ ; std::_Tree_temp_node_alloc<std::allocator<std::_Tree_node<std::pair<std::basic_string<char,std::char_traits<char>,std::allocator<char> > const ,unsigned long>,void *> > >::~_Tree_temp_node_alloc<std::allocator<std::_Tree_node<std::pair<std::basic_string<char,std::char_traits<char>,std::allocator<char> > const ,unsigned long>,void *> > >
PUBLIC	??1?$_Alloc_construct_ptr@V?$allocator@U?$_Tree_node@V?$basic_string@DU?$char_traits@D@std@@V?$allocator@D@2@@std@@PAX@std@@@std@@@std@@QAE@XZ ; std::_Alloc_construct_ptr<std::allocator<std::_Tree_node<std::basic_string<char,std::char_traits<char>,std::allocator<char> >,void *> > >::~_Alloc_construct_ptr<std::allocator<std::_Tree_node<std::basic_string<char,std::char_traits<char>,std::allocator<char> >,void *> > >
PUBLIC	??$_Find_lower_bound@D@?$_Tree@V?$_Tset_traits@DU?$less@D@std@@V?$allocator@D@2@$0A@@std@@@std@@IBE?AU?$_Tree_find_result@PAU?$_Tree_node@DPAX@std@@@1@ABD@Z ; std::_Tree<std::_Tset_traits<char,std::less<char>,std::allocator<char>,0> >::_Find_lower_bound<char>
PUBLIC	??1?$_Alloc_construct_ptr@V?$allocator@U?$_Tree_node@DPAX@std@@@std@@@std@@QAE@XZ ; std::_Alloc_construct_ptr<std::allocator<std::_Tree_node<char,void *> > >::~_Alloc_construct_ptr<std::allocator<std::_Tree_node<char,void *> > >
PUBLIC	??$_Erase_tree@V?$allocator@U?$_Tree_node@HPAX@std@@@std@@@?$_Tree_val@U?$_Tree_simple_types@H@std@@@std@@QAEXAAV?$allocator@U?$_Tree_node@HPAX@std@@@1@PAU?$_Tree_node@HPAX@1@@Z ; std::_Tree_val<std::_Tree_simple_types<int> >::_Erase_tree<std::allocator<std::_Tree_node<int,void *> > >
PUBLIC	??_C@_00CNPNBAHC@@				; `string'
PUBLIC	??_7exception@std@@6B@				; std::exception::`vftable'
PUBLIC	??_C@_0BC@EOODALEL@Unknown?5exception@		; `string'
PUBLIC	??_7bad_alloc@std@@6B@				; std::bad_alloc::`vftable'
PUBLIC	??_7bad_array_new_length@std@@6B@		; std::bad_array_new_length::`vftable'
PUBLIC	??_C@_0BF@KINCDENJ@bad?5array?5new?5length@	; `string'
PUBLIC	??_R0?AVexception@std@@@8			; std::exception `RTTI Type Descriptor'
PUBLIC	__CT??_R0?AVexception@std@@@8??0exception@std@@QAE@ABV01@@Z12
PUBLIC	__TI3?AVbad_array_new_length@std@@
PUBLIC	__CTA3?AVbad_array_new_length@std@@
PUBLIC	??_R0?AVbad_array_new_length@std@@@8		; std::bad_array_new_length `RTTI Type Descriptor'
PUBLIC	__CT??_R0?AVbad_array_new_length@std@@@8??0bad_array_new_length@std@@QAE@ABV01@@Z12
PUBLIC	??_R0?AVbad_alloc@std@@@8			; std::bad_alloc `RTTI Type Descriptor'
PUBLIC	__CT??_R0?AVbad_alloc@std@@@8??0bad_alloc@std@@QAE@ABV01@@Z12
PUBLIC	??_C@_0BA@JFNIOLAK@string?5too?5long@		; `string'
PUBLIC	??_C@_0BB@GCADKGJO@map?1set?5too?5long@		; `string'
PUBLIC	??_R4exception@std@@6B@				; std::exception::`RTTI Complete Object Locator'
PUBLIC	??_R3exception@std@@8				; std::exception::`RTTI Class Hierarchy Descriptor'
PUBLIC	??_R2exception@std@@8				; std::exception::`RTTI Base Class Array'
PUBLIC	??_R1A@?0A@EA@exception@std@@8			; std::exception::`RTTI Base Class Descriptor at (0,-1,0,64)'
PUBLIC	??_R4bad_array_new_length@std@@6B@		; std::bad_array_new_length::`RTTI Complete Object Locator'
PUBLIC	??_R3bad_array_new_length@std@@8		; std::bad_array_new_length::`RTTI Class Hierarchy Descriptor'
PUBLIC	??_R2bad_array_new_length@std@@8		; std::bad_array_new_length::`RTTI Base Class Array'
PUBLIC	??_R1A@?0A@EA@bad_array_new_length@std@@8	; std::bad_array_new_length::`RTTI Base Class Descriptor at (0,-1,0,64)'
PUBLIC	??_R1A@?0A@EA@bad_alloc@std@@8			; std::bad_alloc::`RTTI Base Class Descriptor at (0,-1,0,64)'
PUBLIC	??_R3bad_alloc@std@@8				; std::bad_alloc::`RTTI Class Hierarchy Descriptor'
PUBLIC	??_R2bad_alloc@std@@8				; std::bad_alloc::`RTTI Base Class Array'
PUBLIC	??_R4bad_alloc@std@@6B@				; std::bad_alloc::`RTTI Complete Object Locator'
PUBLIC	??_C@_06IBDJIBGI@Filter@			; `string'
PUBLIC	??_C@_0M@KNNOCJKG@InvalidName@			; `string'
PUBLIC	??_C@_06JHGCIHDH@Notice@			; `string'
PUBLIC	??_C@_0BC@DHLCCIHN@GuildCombatTEXT_1@		; `string'
PUBLIC	??_C@_0BC@BMJPHLLO@GuildCombatTEXT_2@		; `string'
PUBLIC	??_C@_0BC@FIEEKPP@GuildCombatTEXT_3@		; `string'
PUBLIC	??_C@_0BC@EKMFNMDI@GuildCombatTEXT_4@		; `string'
PUBLIC	??_C@_0BC@FDNOONHJ@GuildCombatTEXT_5@		; `string'
PUBLIC	??_C@_0BC@HIPDLOLK@GuildCombatTEXT_6@		; `string'
PUBLIC	??_C@_06CBLMCBO@Letter@				; `string'
PUBLIC	??_C@_0BG@NONHDJNH@GuildCombat1to1_TEXT1@	; `string'
PUBLIC	??_C@_0BG@PFPKGKBE@GuildCombat1to1_TEXT2@	; `string'
PUBLIC	??_C@_0BG@OMOBFLFF@GuildCombat1to1_TEXT3@	; `string'
PUBLIC	??_C@_0BG@KDKAMNJC@GuildCombat1to1_TEXT4@	; `string'
PUBLIC	??_C@_0BG@LKLLPMND@GuildCombat1to1_TEXT5@	; `string'
PUBLIC	??_C@_07DMFACBBD@Letter1@			; `string'
PUBLIC	??_C@_03JOGALCLM@job@				; `string'
PUBLIC	??_C@_01CELHOKLL@?$HN@				; `string'
PUBLIC	??_C@_03OMLNFKE@sex@				; `string'
PUBLIC	??_C@_04NHONDGDE@item@				; `string'
PUBLIC	??_C@_0DC@PMFBALLG@too?5many?5mover?5property?5or?5inva@ ; `string'
PUBLIC	??_C@_0EL@DNFECMCM@Last?5read?3?$CFs?0?5ID?3?$CFd?5is?5duplicat@ ; `string'
PUBLIC	??_C@_0GF@PODIKLMP@LoadPropMover?5?3?5bIfParts?$LP?$KD?5?91?$MA?$LL@ ; `string'
PUBLIC	??_C@_0CC@LPPNKII@?$CFs?5ID?3?$CFd?5last_read?$CIID?3?$CFd?5name?3?$CF@ ; `string'
PUBLIC	??_C@_01BJJEKLCA@?$CC@				; `string'
PUBLIC	??_C@_01CLKCMJKC@?5@				; `string'
PUBLIC	??_C@_0BC@MJDHHDNE@character?4txt?4txt@		; `string'
PUBLIC	??_C@_0BG@ODDMMEFI@character?9etc?4txt?4txt@	; `string'
PUBLIC	??_C@_0BJ@HMJLABEE@character?9school?4txt?4txt@	; `string'
PUBLIC	??_C@_0M@OGPAIIPO@etc?4txt?4txt@		; `string'
PUBLIC	??_C@_0BB@BKCFBPCG@propCtrl?4txt?4txt@		; `string'
PUBLIC	??_C@_0BB@EIHFMDHG@propItem?4txt?4txt@		; `string'
PUBLIC	??_C@_0BE@CPNEMNP@propItemEtc?4txt?4txt@	; `string'
PUBLIC	??_C@_0BC@EGADJKPG@propKarma?4txt?4txt@		; `string'
PUBLIC	??_C@_0BD@HCIMKPMD@propMotion?4txt?4txt@	; `string'
PUBLIC	??_C@_0BC@DBHLDNCB@propMover?4txt?4txt@		; `string'
PUBLIC	??_C@_0BC@MDLPBBFP@propQuest?4txt?4txt@		; `string'
PUBLIC	??_C@_0BP@EHFDCEFH@propQuest?9DungeonandPK?4txt?4txt@ ; `string'
PUBLIC	??_C@_0BO@JKKEFHJM@propQuest?9RequestBox2?4txt?4txt@ ; `string'
PUBLIC	??_C@_0BN@BEAOFAE@propQuest?9RequestBox?4txt?4txt@ ; `string'
PUBLIC	??_C@_0BL@BIEBMGAK@propQuest?9Scenario?4txt?4txt@ ; `string'
PUBLIC	??_C@_0BC@GAENMDAI@propSkill?4txt?4txt@		; `string'
PUBLIC	??_C@_0BI@COHEJFON@propTroupeSkill?4txt?4txt@	; `string'
PUBLIC	??_C@_0BA@LECIOODH@resData?4txt?4txt@		; `string'
PUBLIC	??_C@_0BD@CBKKCFIG@textClient?4txt?4txt@	; `string'
PUBLIC	??_C@_0BE@LIGMBFHD@textEmotion?4txt?4txt@	; `string'
PUBLIC	??_C@_0O@GENGBLDM@world?4txt?4txt@		; `string'
PUBLIC	??_C@_0BI@GDEOEGGM@Client?2treeHelp?4txt?4txt@	; `string'
PUBLIC	??_C@_0BD@PCPCCCJB@Client?2tip?4txt?4txt@	; `string'
PUBLIC	??_C@_0BL@HJPLFEHN@Client?2PatchClient?4txt?4txt@ ; `string'
PUBLIC	??_C@_0BL@DHMHIAON@Client?2InstantHelp?4txt?4txt@ ; `string'
PUBLIC	??_C@_0BE@PCGFBKB@Client?2help?4txt?4txt@	; `string'
PUBLIC	??_C@_0BF@MOKFFBND@Client?2Guide?4txt?4txt@	; `string'
PUBLIC	??_C@_0BI@HPDDMKMM@Client?2tutorial?4txt?4txt@	; `string'
PUBLIC	??_C@_0BD@EHNANLIJ@Client?2faq?4txt?4txt@	; `string'
PUBLIC	??_C@_0CC@LNLMDCNI@World?2WdVolcane?2WdVolcane?4txt?4t@ ; `string'
PUBLIC	??_C@_0CE@LECANJG@World?2WdMadrigal?2wdMadrigal?4txt@ ; `string'
PUBLIC	??_C@_0CC@OFJBPJBI@World?2WdKebaras?2WdKebaras?4txt?4t@ ; `string'
PUBLIC	??_C@_0CE@BLNGOAF@World?2WdGuildWar?2WdGuildWar?4txt@ ; `string'
PUBLIC	??_C@_0CC@PDPOCILP@World?2WdEvent01?2WdEvent01?4txt?4t@ ; `string'
PUBLIC	??_C@_0CA@CEIGPAD@World?2DuMuscle?2DuMuscle?4txt?4txt@ ; `string'
PUBLIC	??_C@_0BK@PFAKEDAL@World?2DuKrr?2DuKrr?4txt?4txt@ ; `string'
PUBLIC	??_C@_0BO@OOCINCCB@World?2DuFlMas?2DuFlMas?4txt?4txt@ ; `string'
PUBLIC	??_C@_0BM@HLBNPGPD@World?2DuDaDk?2DuDaDk?4txt?4txt@ ; `string'
PUBLIC	??_C@_0BM@FGJOMPKG@World?2DuBear?2DuBear?4txt?4txt@ ; `string'
PUBLIC	??_C@_0CE@GNBHODLB@World?2DuSaTemple?2DuSaTemple?4txt@ ; `string'
PUBLIC	??_C@_0CM@MCGFEELL@World?2DuSaTempleBoss?2DuSaTemple@ ; `string'
PUBLIC	??_C@_0CI@PPFFEENJ@World?2WdVolcaneRed?2WdVolcaneRed@ ; `string'
PUBLIC	??_C@_0CO@OHDLGMEL@World?2WdVolcaneYellow?2WdVolcane@ ; `string'
PUBLIC	??_C@_0BC@LLOPCCEG@lordskill?4txt?4txt@		; `string'
PUBLIC	??_C@_0CE@MOAPONAE@World?2WdHeaven01?2wdheaven01?4txt@ ; `string'
PUBLIC	??_C@_0CE@FOCGNEOE@World?2WdHeaven02?2wdheaven02?4txt@ ; `string'
PUBLIC	??_C@_0CE@CODODMEE@World?2WdHeaven03?2wdheaven03?4txt@ ; `string'
PUBLIC	??_C@_0CE@KFAFKBGF@World?2WdHeaven04?2wdheaven04?4txt@ ; `string'
PUBLIC	??_C@_0CE@NFBNEJMF@World?2WdHeaven05?2wdheaven05?4txt@ ; `string'
PUBLIC	??_C@_0CE@EFDEHACF@World?2WdHeaven06?2wdheaven06?4txt@ ; `string'
PUBLIC	??_C@_0CI@KPKEAIHK@World?2WdHeaven06_1?2wdheaven06_1@ ; `string'
PUBLIC	??_C@_0BC@HFMDODCC@honorList?4txt?4txt@		; `string'
PUBLIC	??_C@_0CC@NFIHHMNA@World?2DuOminous?2duominous?4txt?4t@ ; `string'
PUBLIC	??_C@_0CG@LMDELLIK@World?2DuOminous_1?2duominous_1?4t@ ; `string'
PUBLIC	??_C@_0DC@EKHBJCH@World?2WdGuildhousesmall?2WdGuild@ ; `string'
PUBLIC	??_C@_0DE@MOIPIANB@World?2WdGuildhousemiddle?2WdGuil@ ; `string'
PUBLIC	??_C@_0DC@DDHCLEAB@World?2WdGuildhouselarge?2WdGuild@ ; `string'
PUBLIC	??_C@_0CM@GLCDMCDN@World?2DuDreadfulCave?2DuDreadful@ ; `string'
PUBLIC	??_C@_0CA@GOABAGCH@World?2DuRustia?2DuRustia?4txt?4txt@ ; `string'
PUBLIC	??_C@_0CE@LEEMOLAG@World?2DuRustia_1?2DuRustia_1?4txt@ ; `string'
PUBLIC	??_C@_0CE@PPMPNJMF@World?2WdRartesia?2WdRartesia?4txt@ ; `string'
PUBLIC	??_C@_0CC@CIGPIJKO@World?2DuBehamah?2DuBehamah?4txt?4t@ ; `string'
PUBLIC	??_C@_0CA@MALBOJDP@World?2DuKalgas?2DuKalgas?4txt?4txt@ ; `string'
PUBLIC	??_C@_0CG@PJICLKPM@World?2WdColosseum?2WdColosseum?4t@ ; `string'
PUBLIC	??_C@_0CC@CMCNDHBE@World?2DuUpresia?2DuUpresia?4txt?4t@ ; `string'
PUBLIC	??_C@_0CG@JHJGPNIK@World?2DuUpresia_1?2DuUpresia_1?4t@ ; `string'
PUBLIC	??_C@_0CC@EDPKODAA@World?2DuSanpres?2DuSanpres?4txt?4t@ ; `string'
PUBLIC	??_C@_0CG@GDIDDAKI@World?2DuSanpres_1?2DuSanpres_1?4t@ ; `string'
PUBLIC	??_C@_0CC@DOBLAPJN@World?2DuHerneos?2DuHerneos?4txt?4t@ ; `string'
PUBLIC	??_C@_0CG@LHOKLPNN@World?2DuHerneos_1?2DuHerneos_1?4t@ ; `string'
PUBLIC	??_C@_0BK@GFFJLDEM@World?2WdFwc?2WdFwc?4txt?4txt@ ; `string'
PUBLIC	??_C@_0P@PIAPDKAM@textClient?4inc@		; `string'
PUBLIC	??_C@_08PCOCPGDD@define?4h@			; `string'
PUBLIC	??_C@_0N@PBEDKAEK@defineNeuz?4h@		; `string'
PUBLIC	??_C@_0O@CHPIMLJG@defineQuest?4h@		; `string'
PUBLIC	??_C@_0M@FFCLKMF@defineJob?4h@			; `string'
PUBLIC	??_C@_0N@FBEALHFO@defineItem?4h@		; `string'
PUBLIC	??_C@_0O@IOEDGEHO@defineWorld?4h@		; `string'
PUBLIC	??_C@_0BB@NHAIBECF@defineItemkind?4h@		; `string'
PUBLIC	??_C@_06PCCJFGDM@lang?4h@			; `string'
PUBLIC	??_C@_0M@GILLMHCI@defineObj?4h@			; `string'
PUBLIC	??_C@_0BC@CKDPDEGH@defineAttribute?4h@		; `string'
PUBLIC	??_C@_0O@FCODJECA@defineSkill?4h@		; `string'
PUBLIC	??_C@_0N@CKKCNAEI@defineText?4h@		; `string'
PUBLIC	??_C@_0O@GNMMAJFM@defineSound?4h@		; `string'
PUBLIC	??_C@_09HGIMHIJB@resdata?4h@			; `string'
PUBLIC	??_C@_0L@CLDCCJPD@WndStyle?4h@			; `string'
PUBLIC	??_C@_0BC@NCNNNPFL@definelordskill?4h@		; `string'
PUBLIC	??_C@_0O@GNBOPHIK@defineHonor?4h@		; `string'
PUBLIC	??_C@_0BC@OEKDBOEK@defineItemGrade?4h@		; `string'
PUBLIC	??_C@_0BB@ONJJINID@defineItemType?4h@		; `string'
PUBLIC	??_C@_0N@NGOJEGCM@propLang?4txt@		; `string'
PUBLIC	??_C@_0DB@EEKBNLID@C?3?2IAGOS?2server?2v18?2Source?2Sour@ ; `string'
PUBLIC	??_C@_06OJLEAOEG@?$CFs?0?5?$CFd@		; `string'
PUBLIC	__real@358637bd
PUBLIC	__real@42c80000
PUBLIC	__real@bf800000
PUBLIC	__xmm@7fffffff7fffffff7fffffff7fffffff
EXTRN	??2@YAPAXI@Z:PROC				; operator new
EXTRN	??3@YAXPAXI@Z:PROC				; operator delete
EXTRN	??_U@YAPAXI@Z:PROC				; operator new[]
EXTRN	??_V@YAXPAX@Z:PROC				; operator delete[]
EXTRN	__invalid_parameter_noinfo:PROC
EXTRN	__invoke_watson:PROC
EXTRN	__errno:PROC
EXTRN	__strlwr:PROC
EXTRN	__strupr:PROC
EXTRN	_strdup:PROC
EXTRN	_strlwr:PROC
EXTRN	__imp__LoadResource@8:PROC
EXTRN	__imp__LockResource@4:PROC
EXTRN	__imp__SizeofResource@8:PROC
EXTRN	__imp__FindResourceW@12:PROC
EXTRN	__imp__lstrlenA@4:PROC
EXTRN	__imp__WideCharToMultiByte@32:PROC
EXTRN	__mbscmp:PROC
EXTRN	__mbsinc:PROC
EXTRN	__mbsstr:PROC
EXTRN	__ismbcspace:PROC
EXTRN	?AfxThrowMemoryException@@YGXXZ:PROC		; AfxThrowMemoryException
EXTRN	?AfxThrowInvalidArgException@@YGXXZ:PROC	; AfxThrowInvalidArgException
EXTRN	?AfxThrowOleException@@YGXJ@Z:PROC		; AfxThrowOleException
EXTRN	?AfxFindStringResourceHandle@@YGPAUHINSTANCE__@@I@Z:PROC ; AfxFindStringResourceHandle
EXTRN	?AfxGetStringManager@@YGPAUIAtlStringMgr@ATL@@XZ:PROC ; AfxGetStringManager
EXTRN	??0CDWordArray@@QAE@XZ:PROC			; CDWordArray::CDWordArray
EXTRN	?SetAtGrow@CDWordArray@@QAEXHK@Z:PROC		; CDWordArray::SetAtGrow
EXTRN	??1CDWordArray@@UAE@XZ:PROC			; CDWordArray::~CDWordArray
EXTRN	??0CStringArray@@QAE@XZ:PROC			; CStringArray::CStringArray
EXTRN	?SetAtGrow@CStringArray@@QAEXHABV?$CStringT@DV?$StrTraitMFC@DV?$ChTraitsCRT@D@ATL@@@@@ATL@@@Z:PROC ; CStringArray::SetAtGrow
EXTRN	??1CStringArray@@UAE@XZ:PROC			; CStringArray::~CStringArray
EXTRN	?_Xlength_error@std@@YAXPBD@Z:PROC		; std::_Xlength_error
EXTRN	___std_exception_copy:PROC
EXTRN	___std_exception_destroy:PROC
EXTRN	??_Eexception@std@@UAEPAXI@Z:PROC		; std::exception::`vector deleting destructor'
EXTRN	??_Ebad_alloc@std@@UAEPAXI@Z:PROC		; std::bad_alloc::`vector deleting destructor'
EXTRN	??_Ebad_array_new_length@std@@UAEPAXI@Z:PROC	; std::bad_array_new_length::`vector deleting destructor'
EXTRN	?Error@@YAPBDPBDZZ:PROC				; Error
EXTRN	?GetLanguage@@YAHXZ:PROC			; GetLanguage
EXTRN	??0CScanner@@QAE@H@Z:PROC			; CScanner::CScanner
EXTRN	??1CScanner@@UAE@XZ:PROC			; CScanner::~CScanner
EXTRN	?GetToken@CScanner@@UAEHH@Z:PROC		; CScanner::GetToken
EXTRN	?Load@CScanner@@QAEHPBDH@Z:PROC			; CScanner::Load
EXTRN	?GetNumber@CScanner@@QAEHH@Z:PROC		; CScanner::GetNumber
EXTRN	?GetInt64@CScanner@@QAE_JH@Z:PROC		; CScanner::GetInt64
EXTRN	?GetFloat@CScanner@@QAEMH@Z:PROC		; CScanner::GetFloat
EXTRN	??0CScript@@QAE@H@Z:PROC			; CScript::CScript
EXTRN	??1CScript@@UAE@XZ:PROC				; CScript::~CScript
EXTRN	?Load@CScript@@QAEHPBDHH@Z:PROC			; CScript::Load
EXTRN	?PreScan@CScript@@QAEXXZ:PROC			; CScript::PreScan
EXTRN	?GetToken@CScript@@UAEHH@Z:PROC			; CScript::GetToken
EXTRN	?LoadStringA@CScript@@QAEXXZ:PROC		; CScript::LoadStringA
EXTRN	?WriteLog@@YAXPBDZZ:PROC			; WriteLog
EXTRN	?Load@CLangMan@@QAEHPBD@Z:PROC			; CLangMan::Load
EXTRN	?GetLangData@CLangMan@@QAEPAU_LANG_DATA@@K@Z:PROC ; CLangMan::GetLangData
EXTRN	?GetInstance@CLangMan@@SAPAV1@XZ:PROC		; CLangMan::GetInstance
EXTRN	@__security_check_cookie@4:PROC
EXTRN	__CxxThrowException@8:PROC
EXTRN	___CxxFrameHandler3:PROC
EXTRN	__chkstk:PROC
EXTRN	_memcpy:PROC
EXTRN	_memmove:PROC
EXTRN	_memset:PROC
EXTRN	??_7type_info@@6B@:QWORD			; type_info::`vftable'
EXTRN	___security_cookie:DWORD
EXTRN	__fltused:DWORD
;	COMDAT __xmm@7fffffff7fffffff7fffffff7fffffff
CONST	SEGMENT
__xmm@7fffffff7fffffff7fffffff7fffffff DB 0ffH, 0ffH, 0ffH, 07fH, 0ffH, 0ffH
	DB	0ffH, 07fH, 0ffH, 0ffH, 0ffH, 07fH, 0ffH, 0ffH, 0ffH, 07fH
CONST	ENDS
;	COMDAT __real@bf800000
CONST	SEGMENT
__real@bf800000 DD 0bf800000r			; -1
CONST	ENDS
;	COMDAT __real@42c80000
CONST	SEGMENT
__real@42c80000 DD 042c80000r			; 100
CONST	ENDS
;	COMDAT __real@358637bd
CONST	SEGMENT
__real@358637bd DD 0358637bdr			; 1e-06
CONST	ENDS
;	COMDAT ??_C@_06OJLEAOEG@?$CFs?0?5?$CFd@
CONST	SEGMENT
??_C@_06OJLEAOEG@?$CFs?0?5?$CFd@ DB '%s, %d', 00H	; `string'
CONST	ENDS
;	COMDAT ??_C@_0DB@EEKBNLID@C?3?2IAGOS?2server?2v18?2Source?2Sour@
CONST	SEGMENT
??_C@_0DB@EEKBNLID@C?3?2IAGOS?2server?2v18?2Source?2Sour@ DB 'C:\IAGOS\se'
	DB	'rver\v18\Source\Source\_Common\Data.h', 00H	; `string'
CONST	ENDS
;	COMDAT ??_C@_0N@NGOJEGCM@propLang?4txt@
CONST	SEGMENT
??_C@_0N@NGOJEGCM@propLang?4txt@ DB 'propLang.txt', 00H	; `string'
CONST	ENDS
;	COMDAT ??_C@_0BB@ONJJINID@defineItemType?4h@
CONST	SEGMENT
??_C@_0BB@ONJJINID@defineItemType?4h@ DB 'defineItemType.h', 00H ; `string'
CONST	ENDS
;	COMDAT ??_C@_0BC@OEKDBOEK@defineItemGrade?4h@
CONST	SEGMENT
??_C@_0BC@OEKDBOEK@defineItemGrade?4h@ DB 'defineItemGrade.h', 00H ; `string'
CONST	ENDS
;	COMDAT ??_C@_0O@GNBOPHIK@defineHonor?4h@
CONST	SEGMENT
??_C@_0O@GNBOPHIK@defineHonor?4h@ DB 'defineHonor.h', 00H ; `string'
CONST	ENDS
;	COMDAT ??_C@_0BC@NCNNNPFL@definelordskill?4h@
CONST	SEGMENT
??_C@_0BC@NCNNNPFL@definelordskill?4h@ DB 'definelordskill.h', 00H ; `string'
CONST	ENDS
;	COMDAT ??_C@_0L@CLDCCJPD@WndStyle?4h@
CONST	SEGMENT
??_C@_0L@CLDCCJPD@WndStyle?4h@ DB 'WndStyle.h', 00H	; `string'
CONST	ENDS
;	COMDAT ??_C@_09HGIMHIJB@resdata?4h@
CONST	SEGMENT
??_C@_09HGIMHIJB@resdata?4h@ DB 'resdata.h', 00H	; `string'
CONST	ENDS
;	COMDAT ??_C@_0O@GNMMAJFM@defineSound?4h@
CONST	SEGMENT
??_C@_0O@GNMMAJFM@defineSound?4h@ DB 'defineSound.h', 00H ; `string'
CONST	ENDS
;	COMDAT ??_C@_0N@CKKCNAEI@defineText?4h@
CONST	SEGMENT
??_C@_0N@CKKCNAEI@defineText?4h@ DB 'defineText.h', 00H	; `string'
CONST	ENDS
;	COMDAT ??_C@_0O@FCODJECA@defineSkill?4h@
CONST	SEGMENT
??_C@_0O@FCODJECA@defineSkill?4h@ DB 'defineSkill.h', 00H ; `string'
CONST	ENDS
;	COMDAT ??_C@_0BC@CKDPDEGH@defineAttribute?4h@
CONST	SEGMENT
??_C@_0BC@CKDPDEGH@defineAttribute?4h@ DB 'defineAttribute.h', 00H ; `string'
CONST	ENDS
;	COMDAT ??_C@_0M@GILLMHCI@defineObj?4h@
CONST	SEGMENT
??_C@_0M@GILLMHCI@defineObj?4h@ DB 'defineObj.h', 00H	; `string'
CONST	ENDS
;	COMDAT ??_C@_06PCCJFGDM@lang?4h@
CONST	SEGMENT
??_C@_06PCCJFGDM@lang?4h@ DB 'lang.h', 00H		; `string'
CONST	ENDS
;	COMDAT ??_C@_0BB@NHAIBECF@defineItemkind?4h@
CONST	SEGMENT
??_C@_0BB@NHAIBECF@defineItemkind?4h@ DB 'defineItemkind.h', 00H ; `string'
CONST	ENDS
;	COMDAT ??_C@_0O@IOEDGEHO@defineWorld?4h@
CONST	SEGMENT
??_C@_0O@IOEDGEHO@defineWorld?4h@ DB 'defineWorld.h', 00H ; `string'
CONST	ENDS
;	COMDAT ??_C@_0N@FBEALHFO@defineItem?4h@
CONST	SEGMENT
??_C@_0N@FBEALHFO@defineItem?4h@ DB 'defineItem.h', 00H	; `string'
CONST	ENDS
;	COMDAT ??_C@_0M@FFCLKMF@defineJob?4h@
CONST	SEGMENT
??_C@_0M@FFCLKMF@defineJob?4h@ DB 'defineJob.h', 00H	; `string'
CONST	ENDS
;	COMDAT ??_C@_0O@CHPIMLJG@defineQuest?4h@
CONST	SEGMENT
??_C@_0O@CHPIMLJG@defineQuest?4h@ DB 'defineQuest.h', 00H ; `string'
CONST	ENDS
;	COMDAT ??_C@_0N@PBEDKAEK@defineNeuz?4h@
CONST	SEGMENT
??_C@_0N@PBEDKAEK@defineNeuz?4h@ DB 'defineNeuz.h', 00H	; `string'
CONST	ENDS
;	COMDAT ??_C@_08PCOCPGDD@define?4h@
CONST	SEGMENT
??_C@_08PCOCPGDD@define?4h@ DB 'define.h', 00H		; `string'
CONST	ENDS
;	COMDAT ??_C@_0P@PIAPDKAM@textClient?4inc@
CONST	SEGMENT
??_C@_0P@PIAPDKAM@textClient?4inc@ DB 'textClient.inc', 00H ; `string'
CONST	ENDS
;	COMDAT ??_C@_0BK@GFFJLDEM@World?2WdFwc?2WdFwc?4txt?4txt@
CONST	SEGMENT
??_C@_0BK@GFFJLDEM@World?2WdFwc?2WdFwc?4txt?4txt@ DB 'World\WdFwc\WdFwc.t'
	DB	'xt.txt', 00H				; `string'
CONST	ENDS
;	COMDAT ??_C@_0CG@LHOKLPNN@World?2DuHerneos_1?2DuHerneos_1?4t@
CONST	SEGMENT
??_C@_0CG@LHOKLPNN@World?2DuHerneos_1?2DuHerneos_1?4t@ DB 'World\DuHerneo'
	DB	's_1\DuHerneos_1.txt.txt', 00H		; `string'
CONST	ENDS
;	COMDAT ??_C@_0CC@DOBLAPJN@World?2DuHerneos?2DuHerneos?4txt?4t@
CONST	SEGMENT
??_C@_0CC@DOBLAPJN@World?2DuHerneos?2DuHerneos?4txt?4t@ DB 'World\DuHerne'
	DB	'os\DuHerneos.txt.txt', 00H			; `string'
CONST	ENDS
;	COMDAT ??_C@_0CG@GDIDDAKI@World?2DuSanpres_1?2DuSanpres_1?4t@
CONST	SEGMENT
??_C@_0CG@GDIDDAKI@World?2DuSanpres_1?2DuSanpres_1?4t@ DB 'World\DuSanpre'
	DB	's_1\DuSanpres_1.txt.txt', 00H		; `string'
CONST	ENDS
;	COMDAT ??_C@_0CC@EDPKODAA@World?2DuSanpres?2DuSanpres?4txt?4t@
CONST	SEGMENT
??_C@_0CC@EDPKODAA@World?2DuSanpres?2DuSanpres?4txt?4t@ DB 'World\DuSanpr'
	DB	'es\DuSanpres.txt.txt', 00H			; `string'
CONST	ENDS
;	COMDAT ??_C@_0CG@JHJGPNIK@World?2DuUpresia_1?2DuUpresia_1?4t@
CONST	SEGMENT
??_C@_0CG@JHJGPNIK@World?2DuUpresia_1?2DuUpresia_1?4t@ DB 'World\DuUpresi'
	DB	'a_1\DuUpresia_1.txt.txt', 00H		; `string'
CONST	ENDS
;	COMDAT ??_C@_0CC@CMCNDHBE@World?2DuUpresia?2DuUpresia?4txt?4t@
CONST	SEGMENT
??_C@_0CC@CMCNDHBE@World?2DuUpresia?2DuUpresia?4txt?4t@ DB 'World\DuUpres'
	DB	'ia\DuUpresia.txt.txt', 00H			; `string'
CONST	ENDS
;	COMDAT ??_C@_0CG@PJICLKPM@World?2WdColosseum?2WdColosseum?4t@
CONST	SEGMENT
??_C@_0CG@PJICLKPM@World?2WdColosseum?2WdColosseum?4t@ DB 'World\WdColoss'
	DB	'eum\WdColosseum.txt.txt', 00H		; `string'
CONST	ENDS
;	COMDAT ??_C@_0CA@MALBOJDP@World?2DuKalgas?2DuKalgas?4txt?4txt@
CONST	SEGMENT
??_C@_0CA@MALBOJDP@World?2DuKalgas?2DuKalgas?4txt?4txt@ DB 'World\DuKalga'
	DB	's\DuKalgas.txt.txt', 00H			; `string'
CONST	ENDS
;	COMDAT ??_C@_0CC@CIGPIJKO@World?2DuBehamah?2DuBehamah?4txt?4t@
CONST	SEGMENT
??_C@_0CC@CIGPIJKO@World?2DuBehamah?2DuBehamah?4txt?4t@ DB 'World\DuBeham'
	DB	'ah\DuBehamah.txt.txt', 00H			; `string'
CONST	ENDS
;	COMDAT ??_C@_0CE@PPMPNJMF@World?2WdRartesia?2WdRartesia?4txt@
CONST	SEGMENT
??_C@_0CE@PPMPNJMF@World?2WdRartesia?2WdRartesia?4txt@ DB 'World\WdRartes'
	DB	'ia\WdRartesia.txt.txt', 00H			; `string'
CONST	ENDS
;	COMDAT ??_C@_0CE@LEEMOLAG@World?2DuRustia_1?2DuRustia_1?4txt@
CONST	SEGMENT
??_C@_0CE@LEEMOLAG@World?2DuRustia_1?2DuRustia_1?4txt@ DB 'World\DuRustia'
	DB	'_1\DuRustia_1.txt.txt', 00H			; `string'
CONST	ENDS
;	COMDAT ??_C@_0CA@GOABAGCH@World?2DuRustia?2DuRustia?4txt?4txt@
CONST	SEGMENT
??_C@_0CA@GOABAGCH@World?2DuRustia?2DuRustia?4txt?4txt@ DB 'World\DuRusti'
	DB	'a\DuRustia.txt.txt', 00H			; `string'
CONST	ENDS
;	COMDAT ??_C@_0CM@GLCDMCDN@World?2DuDreadfulCave?2DuDreadful@
CONST	SEGMENT
??_C@_0CM@GLCDMCDN@World?2DuDreadfulCave?2DuDreadful@ DB 'World\DuDreadfu'
	DB	'lCave\DuDreadfulCave.txt.txt', 00H		; `string'
CONST	ENDS
;	COMDAT ??_C@_0DC@DDHCLEAB@World?2WdGuildhouselarge?2WdGuild@
CONST	SEGMENT
??_C@_0DC@DDHCLEAB@World?2WdGuildhouselarge?2WdGuild@ DB 'World\WdGuildho'
	DB	'uselarge\WdGuildhouselarge.txt.txt', 00H	; `string'
CONST	ENDS
;	COMDAT ??_C@_0DE@MOIPIANB@World?2WdGuildhousemiddle?2WdGuil@
CONST	SEGMENT
??_C@_0DE@MOIPIANB@World?2WdGuildhousemiddle?2WdGuil@ DB 'World\WdGuildho'
	DB	'usemiddle\WdGuildhousemiddle.txt.txt', 00H	; `string'
CONST	ENDS
;	COMDAT ??_C@_0DC@EKHBJCH@World?2WdGuildhousesmall?2WdGuild@
CONST	SEGMENT
??_C@_0DC@EKHBJCH@World?2WdGuildhousesmall?2WdGuild@ DB 'World\WdGuildhou'
	DB	'sesmall\WdGuildhousesmall.txt.txt', 00H	; `string'
CONST	ENDS
;	COMDAT ??_C@_0CG@LMDELLIK@World?2DuOminous_1?2duominous_1?4t@
CONST	SEGMENT
??_C@_0CG@LMDELLIK@World?2DuOminous_1?2duominous_1?4t@ DB 'World\DuOminou'
	DB	's_1\duominous_1.txt.txt', 00H		; `string'
CONST	ENDS
;	COMDAT ??_C@_0CC@NFIHHMNA@World?2DuOminous?2duominous?4txt?4t@
CONST	SEGMENT
??_C@_0CC@NFIHHMNA@World?2DuOminous?2duominous?4txt?4t@ DB 'World\DuOmino'
	DB	'us\duominous.txt.txt', 00H			; `string'
CONST	ENDS
;	COMDAT ??_C@_0BC@HFMDODCC@honorList?4txt?4txt@
CONST	SEGMENT
??_C@_0BC@HFMDODCC@honorList?4txt?4txt@ DB 'honorList.txt.txt', 00H ; `string'
CONST	ENDS
;	COMDAT ??_C@_0CI@KPKEAIHK@World?2WdHeaven06_1?2wdheaven06_1@
CONST	SEGMENT
??_C@_0CI@KPKEAIHK@World?2WdHeaven06_1?2wdheaven06_1@ DB 'World\WdHeaven0'
	DB	'6_1\wdheaven06_1.txt.txt', 00H		; `string'
CONST	ENDS
;	COMDAT ??_C@_0CE@EFDEHACF@World?2WdHeaven06?2wdheaven06?4txt@
CONST	SEGMENT
??_C@_0CE@EFDEHACF@World?2WdHeaven06?2wdheaven06?4txt@ DB 'World\WdHeaven'
	DB	'06\wdheaven06.txt.txt', 00H			; `string'
CONST	ENDS
;	COMDAT ??_C@_0CE@NFBNEJMF@World?2WdHeaven05?2wdheaven05?4txt@
CONST	SEGMENT
??_C@_0CE@NFBNEJMF@World?2WdHeaven05?2wdheaven05?4txt@ DB 'World\WdHeaven'
	DB	'05\wdheaven05.txt.txt', 00H			; `string'
CONST	ENDS
;	COMDAT ??_C@_0CE@KFAFKBGF@World?2WdHeaven04?2wdheaven04?4txt@
CONST	SEGMENT
??_C@_0CE@KFAFKBGF@World?2WdHeaven04?2wdheaven04?4txt@ DB 'World\WdHeaven'
	DB	'04\wdheaven04.txt.txt', 00H			; `string'
CONST	ENDS
;	COMDAT ??_C@_0CE@CODODMEE@World?2WdHeaven03?2wdheaven03?4txt@
CONST	SEGMENT
??_C@_0CE@CODODMEE@World?2WdHeaven03?2wdheaven03?4txt@ DB 'World\WdHeaven'
	DB	'03\wdheaven03.txt.txt', 00H			; `string'
CONST	ENDS
;	COMDAT ??_C@_0CE@FOCGNEOE@World?2WdHeaven02?2wdheaven02?4txt@
CONST	SEGMENT
??_C@_0CE@FOCGNEOE@World?2WdHeaven02?2wdheaven02?4txt@ DB 'World\WdHeaven'
	DB	'02\wdheaven02.txt.txt', 00H			; `string'
CONST	ENDS
;	COMDAT ??_C@_0CE@MOAPONAE@World?2WdHeaven01?2wdheaven01?4txt@
CONST	SEGMENT
??_C@_0CE@MOAPONAE@World?2WdHeaven01?2wdheaven01?4txt@ DB 'World\WdHeaven'
	DB	'01\wdheaven01.txt.txt', 00H			; `string'
CONST	ENDS
;	COMDAT ??_C@_0BC@LLOPCCEG@lordskill?4txt?4txt@
CONST	SEGMENT
??_C@_0BC@LLOPCCEG@lordskill?4txt?4txt@ DB 'lordskill.txt.txt', 00H ; `string'
CONST	ENDS
;	COMDAT ??_C@_0CO@OHDLGMEL@World?2WdVolcaneYellow?2WdVolcane@
CONST	SEGMENT
??_C@_0CO@OHDLGMEL@World?2WdVolcaneYellow?2WdVolcane@ DB 'World\WdVolcane'
	DB	'Yellow\WdVolcaneYellow.txt.txt', 00H	; `string'
CONST	ENDS
;	COMDAT ??_C@_0CI@PPFFEENJ@World?2WdVolcaneRed?2WdVolcaneRed@
CONST	SEGMENT
??_C@_0CI@PPFFEENJ@World?2WdVolcaneRed?2WdVolcaneRed@ DB 'World\WdVolcane'
	DB	'Red\WdVolcaneRed.txt.txt', 00H		; `string'
CONST	ENDS
;	COMDAT ??_C@_0CM@MCGFEELL@World?2DuSaTempleBoss?2DuSaTemple@
CONST	SEGMENT
??_C@_0CM@MCGFEELL@World?2DuSaTempleBoss?2DuSaTemple@ DB 'World\DuSaTempl'
	DB	'eBoss\DuSaTempleBoss.txt.txt', 00H		; `string'
CONST	ENDS
;	COMDAT ??_C@_0CE@GNBHODLB@World?2DuSaTemple?2DuSaTemple?4txt@
CONST	SEGMENT
??_C@_0CE@GNBHODLB@World?2DuSaTemple?2DuSaTemple?4txt@ DB 'World\DuSaTemp'
	DB	'le\DuSaTemple.txt.txt', 00H			; `string'
CONST	ENDS
;	COMDAT ??_C@_0BM@FGJOMPKG@World?2DuBear?2DuBear?4txt?4txt@
CONST	SEGMENT
??_C@_0BM@FGJOMPKG@World?2DuBear?2DuBear?4txt?4txt@ DB 'World\DuBear\DuBe'
	DB	'ar.txt.txt', 00H				; `string'
CONST	ENDS
;	COMDAT ??_C@_0BM@HLBNPGPD@World?2DuDaDk?2DuDaDk?4txt?4txt@
CONST	SEGMENT
??_C@_0BM@HLBNPGPD@World?2DuDaDk?2DuDaDk?4txt?4txt@ DB 'World\DuDaDk\DuDa'
	DB	'Dk.txt.txt', 00H				; `string'
CONST	ENDS
;	COMDAT ??_C@_0BO@OOCINCCB@World?2DuFlMas?2DuFlMas?4txt?4txt@
CONST	SEGMENT
??_C@_0BO@OOCINCCB@World?2DuFlMas?2DuFlMas?4txt?4txt@ DB 'World\DuFlMas\D'
	DB	'uFlMas.txt.txt', 00H			; `string'
CONST	ENDS
;	COMDAT ??_C@_0BK@PFAKEDAL@World?2DuKrr?2DuKrr?4txt?4txt@
CONST	SEGMENT
??_C@_0BK@PFAKEDAL@World?2DuKrr?2DuKrr?4txt?4txt@ DB 'World\DuKrr\DuKrr.t'
	DB	'xt.txt', 00H				; `string'
CONST	ENDS
;	COMDAT ??_C@_0CA@CEIGPAD@World?2DuMuscle?2DuMuscle?4txt?4txt@
CONST	SEGMENT
??_C@_0CA@CEIGPAD@World?2DuMuscle?2DuMuscle?4txt?4txt@ DB 'World\DuMuscle'
	DB	'\DuMuscle.txt.txt', 00H			; `string'
CONST	ENDS
;	COMDAT ??_C@_0CC@PDPOCILP@World?2WdEvent01?2WdEvent01?4txt?4t@
CONST	SEGMENT
??_C@_0CC@PDPOCILP@World?2WdEvent01?2WdEvent01?4txt?4t@ DB 'World\WdEvent'
	DB	'01\WdEvent01.txt.txt', 00H			; `string'
CONST	ENDS
;	COMDAT ??_C@_0CE@BLNGOAF@World?2WdGuildWar?2WdGuildWar?4txt@
CONST	SEGMENT
??_C@_0CE@BLNGOAF@World?2WdGuildWar?2WdGuildWar?4txt@ DB 'World\WdGuildWa'
	DB	'r\WdGuildWar.txt.txt', 00H			; `string'
CONST	ENDS
;	COMDAT ??_C@_0CC@OFJBPJBI@World?2WdKebaras?2WdKebaras?4txt?4t@
CONST	SEGMENT
??_C@_0CC@OFJBPJBI@World?2WdKebaras?2WdKebaras?4txt?4t@ DB 'World\WdKebar'
	DB	'as\WdKebaras.txt.txt', 00H			; `string'
CONST	ENDS
;	COMDAT ??_C@_0CE@LECANJG@World?2WdMadrigal?2wdMadrigal?4txt@
CONST	SEGMENT
??_C@_0CE@LECANJG@World?2WdMadrigal?2wdMadrigal?4txt@ DB 'World\WdMadriga'
	DB	'l\wdMadrigal.txt.txt', 00H			; `string'
CONST	ENDS
;	COMDAT ??_C@_0CC@LNLMDCNI@World?2WdVolcane?2WdVolcane?4txt?4t@
CONST	SEGMENT
??_C@_0CC@LNLMDCNI@World?2WdVolcane?2WdVolcane?4txt?4t@ DB 'World\WdVolca'
	DB	'ne\WdVolcane.txt.txt', 00H			; `string'
CONST	ENDS
;	COMDAT ??_C@_0BD@EHNANLIJ@Client?2faq?4txt?4txt@
CONST	SEGMENT
??_C@_0BD@EHNANLIJ@Client?2faq?4txt?4txt@ DB 'Client\faq.txt.txt', 00H ; `string'
CONST	ENDS
;	COMDAT ??_C@_0BI@HPDDMKMM@Client?2tutorial?4txt?4txt@
CONST	SEGMENT
??_C@_0BI@HPDDMKMM@Client?2tutorial?4txt?4txt@ DB 'Client\tutorial.txt.tx'
	DB	't', 00H					; `string'
CONST	ENDS
;	COMDAT ??_C@_0BF@MOKFFBND@Client?2Guide?4txt?4txt@
CONST	SEGMENT
??_C@_0BF@MOKFFBND@Client?2Guide?4txt?4txt@ DB 'Client\Guide.txt.txt', 00H ; `string'
CONST	ENDS
;	COMDAT ??_C@_0BE@PCGFBKB@Client?2help?4txt?4txt@
CONST	SEGMENT
??_C@_0BE@PCGFBKB@Client?2help?4txt?4txt@ DB 'Client\help.txt.txt', 00H ; `string'
CONST	ENDS
;	COMDAT ??_C@_0BL@DHMHIAON@Client?2InstantHelp?4txt?4txt@
CONST	SEGMENT
??_C@_0BL@DHMHIAON@Client?2InstantHelp?4txt?4txt@ DB 'Client\InstantHelp.'
	DB	'txt.txt', 00H				; `string'
CONST	ENDS
;	COMDAT ??_C@_0BL@HJPLFEHN@Client?2PatchClient?4txt?4txt@
CONST	SEGMENT
??_C@_0BL@HJPLFEHN@Client?2PatchClient?4txt?4txt@ DB 'Client\PatchClient.'
	DB	'txt.txt', 00H				; `string'
CONST	ENDS
;	COMDAT ??_C@_0BD@PCPCCCJB@Client?2tip?4txt?4txt@
CONST	SEGMENT
??_C@_0BD@PCPCCCJB@Client?2tip?4txt?4txt@ DB 'Client\tip.txt.txt', 00H ; `string'
CONST	ENDS
;	COMDAT ??_C@_0BI@GDEOEGGM@Client?2treeHelp?4txt?4txt@
CONST	SEGMENT
??_C@_0BI@GDEOEGGM@Client?2treeHelp?4txt?4txt@ DB 'Client\treeHelp.txt.tx'
	DB	't', 00H					; `string'
CONST	ENDS
;	COMDAT ??_C@_0O@GENGBLDM@world?4txt?4txt@
CONST	SEGMENT
??_C@_0O@GENGBLDM@world?4txt?4txt@ DB 'world.txt.txt', 00H ; `string'
CONST	ENDS
;	COMDAT ??_C@_0BE@LIGMBFHD@textEmotion?4txt?4txt@
CONST	SEGMENT
??_C@_0BE@LIGMBFHD@textEmotion?4txt?4txt@ DB 'textEmotion.txt.txt', 00H ; `string'
CONST	ENDS
;	COMDAT ??_C@_0BD@CBKKCFIG@textClient?4txt?4txt@
CONST	SEGMENT
??_C@_0BD@CBKKCFIG@textClient?4txt?4txt@ DB 'textClient.txt.txt', 00H ; `string'
CONST	ENDS
;	COMDAT ??_C@_0BA@LECIOODH@resData?4txt?4txt@
CONST	SEGMENT
??_C@_0BA@LECIOODH@resData?4txt?4txt@ DB 'resData.txt.txt', 00H ; `string'
CONST	ENDS
;	COMDAT ??_C@_0BI@COHEJFON@propTroupeSkill?4txt?4txt@
CONST	SEGMENT
??_C@_0BI@COHEJFON@propTroupeSkill?4txt?4txt@ DB 'propTroupeSkill.txt.txt'
	DB	00H						; `string'
CONST	ENDS
;	COMDAT ??_C@_0BC@GAENMDAI@propSkill?4txt?4txt@
CONST	SEGMENT
??_C@_0BC@GAENMDAI@propSkill?4txt?4txt@ DB 'propSkill.txt.txt', 00H ; `string'
CONST	ENDS
;	COMDAT ??_C@_0BL@BIEBMGAK@propQuest?9Scenario?4txt?4txt@
CONST	SEGMENT
??_C@_0BL@BIEBMGAK@propQuest?9Scenario?4txt?4txt@ DB 'propQuest-Scenario.'
	DB	'txt.txt', 00H				; `string'
CONST	ENDS
;	COMDAT ??_C@_0BN@BEAOFAE@propQuest?9RequestBox?4txt?4txt@
CONST	SEGMENT
??_C@_0BN@BEAOFAE@propQuest?9RequestBox?4txt?4txt@ DB 'propQuest-RequestB'
	DB	'ox.txt.txt', 00H				; `string'
CONST	ENDS
;	COMDAT ??_C@_0BO@JKKEFHJM@propQuest?9RequestBox2?4txt?4txt@
CONST	SEGMENT
??_C@_0BO@JKKEFHJM@propQuest?9RequestBox2?4txt?4txt@ DB 'propQuest-Reques'
	DB	'tBox2.txt.txt', 00H				; `string'
CONST	ENDS
;	COMDAT ??_C@_0BP@EHFDCEFH@propQuest?9DungeonandPK?4txt?4txt@
CONST	SEGMENT
??_C@_0BP@EHFDCEFH@propQuest?9DungeonandPK?4txt?4txt@ DB 'propQuest-Dunge'
	DB	'onandPK.txt.txt', 00H			; `string'
CONST	ENDS
;	COMDAT ??_C@_0BC@MDLPBBFP@propQuest?4txt?4txt@
CONST	SEGMENT
??_C@_0BC@MDLPBBFP@propQuest?4txt?4txt@ DB 'propQuest.txt.txt', 00H ; `string'
CONST	ENDS
;	COMDAT ??_C@_0BC@DBHLDNCB@propMover?4txt?4txt@
CONST	SEGMENT
??_C@_0BC@DBHLDNCB@propMover?4txt?4txt@ DB 'propMover.txt.txt', 00H ; `string'
CONST	ENDS
;	COMDAT ??_C@_0BD@HCIMKPMD@propMotion?4txt?4txt@
CONST	SEGMENT
??_C@_0BD@HCIMKPMD@propMotion?4txt?4txt@ DB 'propMotion.txt.txt', 00H ; `string'
CONST	ENDS
;	COMDAT ??_C@_0BC@EGADJKPG@propKarma?4txt?4txt@
CONST	SEGMENT
??_C@_0BC@EGADJKPG@propKarma?4txt?4txt@ DB 'propKarma.txt.txt', 00H ; `string'
CONST	ENDS
;	COMDAT ??_C@_0BE@CPNEMNP@propItemEtc?4txt?4txt@
CONST	SEGMENT
??_C@_0BE@CPNEMNP@propItemEtc?4txt?4txt@ DB 'propItemEtc.txt.txt', 00H ; `string'
CONST	ENDS
;	COMDAT ??_C@_0BB@EIHFMDHG@propItem?4txt?4txt@
CONST	SEGMENT
??_C@_0BB@EIHFMDHG@propItem?4txt?4txt@ DB 'propItem.txt.txt', 00H ; `string'
CONST	ENDS
;	COMDAT ??_C@_0BB@BKCFBPCG@propCtrl?4txt?4txt@
CONST	SEGMENT
??_C@_0BB@BKCFBPCG@propCtrl?4txt?4txt@ DB 'propCtrl.txt.txt', 00H ; `string'
CONST	ENDS
;	COMDAT ??_C@_0M@OGPAIIPO@etc?4txt?4txt@
CONST	SEGMENT
??_C@_0M@OGPAIIPO@etc?4txt?4txt@ DB 'etc.txt.txt', 00H	; `string'
CONST	ENDS
;	COMDAT ??_C@_0BJ@HMJLABEE@character?9school?4txt?4txt@
CONST	SEGMENT
??_C@_0BJ@HMJLABEE@character?9school?4txt?4txt@ DB 'character-school.txt.'
	DB	'txt', 00H					; `string'
CONST	ENDS
;	COMDAT ??_C@_0BG@ODDMMEFI@character?9etc?4txt?4txt@
CONST	SEGMENT
??_C@_0BG@ODDMMEFI@character?9etc?4txt?4txt@ DB 'character-etc.txt.txt', 00H ; `string'
CONST	ENDS
;	COMDAT ??_C@_0BC@MJDHHDNE@character?4txt?4txt@
CONST	SEGMENT
??_C@_0BC@MJDHHDNE@character?4txt?4txt@ DB 'character.txt.txt', 00H ; `string'
CONST	ENDS
;	COMDAT ??_C@_01CLKCMJKC@?5@
CONST	SEGMENT
??_C@_01CLKCMJKC@?5@ DB ' ', 00H			; `string'
CONST	ENDS
;	COMDAT ??_C@_01BJJEKLCA@?$CC@
CONST	SEGMENT
??_C@_01BJJEKLCA@?$CC@ DB '"', 00H			; `string'
CONST	ENDS
;	COMDAT ??_C@_0CC@LPPNKII@?$CFs?5ID?3?$CFd?5last_read?$CIID?3?$CFd?5name?3?$CF@
CONST	SEGMENT
??_C@_0CC@LPPNKII@?$CFs?5ID?3?$CFd?5last_read?$CIID?3?$CFd?5name?3?$CF@ DB '%'
	DB	's ID:%d last_read(ID:%d name:%s)', 00H	; `string'
CONST	ENDS
;	COMDAT ??_C@_0GF@PODIKLMP@LoadPropMover?5?3?5bIfParts?$LP?$KD?5?91?$MA?$LL@
CONST	SEGMENT
??_C@_0GF@PODIKLMP@LoadPropMover?5?3?5bIfParts?$LP?$KD?5?91?$MA?$LL@ DB 'L'
	DB	'oadPropMover : bIfParts', 0bfH, 0a3H, ' -1', 0c0H, 0bbH, ' ', 0b3H
	DB	0d6H, 0c0H, 0b8H, 0b8H, 0e9H, ' ', 0beH, 0c8H, 0b5H, 0c8H, 0b4H
	DB	0d9H, '. %s ', 0dH, 0aH, 0c4H, 0c3H, 0b7H, 0b3H, 0c0H, 0ccH, ' '
	DB	0b9H, 0d0H, 0b7H, 0c8H, 0b0H, 0c5H, 0b3H, 0aaH, ' ', 0bfH, 0f6H
	DB	0c5H, 0b7H, 0c6H, 0faH, 0b4H, 0f5H, 0b8H, 0a6H, ' ', 0c0H, 0dfH
	DB	0b8H, 0f8H, 0c1H, 0f6H, 0c1H, 0a4H, 0c7H, 0dfH, 0c0H, 0bbH, 0bcH
	DB	0f6H, 0b5H, 0b5H, 0c0H, 0d6H, 0c0H, 0bdH, ' ', 00H ; `string'
CONST	ENDS
;	COMDAT ??_C@_0EL@DNFECMCM@Last?5read?3?$CFs?0?5ID?3?$CFd?5is?5duplicat@
CONST	SEGMENT
??_C@_0EL@DNFECMCM@Last?5read?3?$CFs?0?5ID?3?$CFd?5is?5duplicat@ DB 'Last'
	DB	' read:%s, ID:%d is duplicated. ', 0c4H, 0c3H, 0b7H, 0b3H, 0c0H
	DB	0ccH, ' ', 0b9H, 0d0H, 0b7H, 0c1H, 0b5H, 0b5H, ' ', 0c0H, 0ccH
	DB	0b7H, 0b1H, 0bfH, 0a1H, 0b7H, 0afH, 0b0H, 0a1H, ' ', 0b3H, 0adH
	DB	0b4H, 0d9H, '. FILE:%s', 0aH, 00H		; `string'
CONST	ENDS
;	COMDAT ??_C@_0DC@PMFBALLG@too?5many?5mover?5property?5or?5inva@
CONST	SEGMENT
??_C@_0DC@PMFBALLG@too?5many?5mover?5property?5or?5inva@ DB 'too many mov'
	DB	'er property or invalid id:%d FILE:%s', 0aH, 00H ; `string'
CONST	ENDS
;	COMDAT ??_C@_04NHONDGDE@item@
CONST	SEGMENT
??_C@_04NHONDGDE@item@ DB 'item', 00H			; `string'
CONST	ENDS
;	COMDAT ??_C@_03OMLNFKE@sex@
CONST	SEGMENT
??_C@_03OMLNFKE@sex@ DB 'sex', 00H			; `string'
CONST	ENDS
;	COMDAT ??_C@_01CELHOKLL@?$HN@
CONST	SEGMENT
??_C@_01CELHOKLL@?$HN@ DB '}', 00H			; `string'
CONST	ENDS
;	COMDAT ??_C@_03JOGALCLM@job@
CONST	SEGMENT
??_C@_03JOGALCLM@job@ DB 'job', 00H			; `string'
CONST	ENDS
;	COMDAT ??_C@_07DMFACBBD@Letter1@
CONST	SEGMENT
??_C@_07DMFACBBD@Letter1@ DB 'Letter1', 00H		; `string'
CONST	ENDS
;	COMDAT ??_C@_0BG@LKLLPMND@GuildCombat1to1_TEXT5@
CONST	SEGMENT
??_C@_0BG@LKLLPMND@GuildCombat1to1_TEXT5@ DB 'GuildCombat1to1_TEXT5', 00H ; `string'
CONST	ENDS
;	COMDAT ??_C@_0BG@KDKAMNJC@GuildCombat1to1_TEXT4@
CONST	SEGMENT
??_C@_0BG@KDKAMNJC@GuildCombat1to1_TEXT4@ DB 'GuildCombat1to1_TEXT4', 00H ; `string'
CONST	ENDS
;	COMDAT ??_C@_0BG@OMOBFLFF@GuildCombat1to1_TEXT3@
CONST	SEGMENT
??_C@_0BG@OMOBFLFF@GuildCombat1to1_TEXT3@ DB 'GuildCombat1to1_TEXT3', 00H ; `string'
CONST	ENDS
;	COMDAT ??_C@_0BG@PFPKGKBE@GuildCombat1to1_TEXT2@
CONST	SEGMENT
??_C@_0BG@PFPKGKBE@GuildCombat1to1_TEXT2@ DB 'GuildCombat1to1_TEXT2', 00H ; `string'
CONST	ENDS
;	COMDAT ??_C@_0BG@NONHDJNH@GuildCombat1to1_TEXT1@
CONST	SEGMENT
??_C@_0BG@NONHDJNH@GuildCombat1to1_TEXT1@ DB 'GuildCombat1to1_TEXT1', 00H ; `string'
CONST	ENDS
;	COMDAT ??_C@_06CBLMCBO@Letter@
CONST	SEGMENT
??_C@_06CBLMCBO@Letter@ DB 'Letter', 00H		; `string'
CONST	ENDS
;	COMDAT ??_C@_0BC@HIPDLOLK@GuildCombatTEXT_6@
CONST	SEGMENT
??_C@_0BC@HIPDLOLK@GuildCombatTEXT_6@ DB 'GuildCombatTEXT_6', 00H ; `string'
CONST	ENDS
;	COMDAT ??_C@_0BC@FDNOONHJ@GuildCombatTEXT_5@
CONST	SEGMENT
??_C@_0BC@FDNOONHJ@GuildCombatTEXT_5@ DB 'GuildCombatTEXT_5', 00H ; `string'
CONST	ENDS
;	COMDAT ??_C@_0BC@EKMFNMDI@GuildCombatTEXT_4@
CONST	SEGMENT
??_C@_0BC@EKMFNMDI@GuildCombatTEXT_4@ DB 'GuildCombatTEXT_4', 00H ; `string'
CONST	ENDS
;	COMDAT ??_C@_0BC@FIEEKPP@GuildCombatTEXT_3@
CONST	SEGMENT
??_C@_0BC@FIEEKPP@GuildCombatTEXT_3@ DB 'GuildCombatTEXT_3', 00H ; `string'
CONST	ENDS
;	COMDAT ??_C@_0BC@BMJPHLLO@GuildCombatTEXT_2@
CONST	SEGMENT
??_C@_0BC@BMJPHLLO@GuildCombatTEXT_2@ DB 'GuildCombatTEXT_2', 00H ; `string'
CONST	ENDS
;	COMDAT ??_C@_0BC@DHLCCIHN@GuildCombatTEXT_1@
CONST	SEGMENT
??_C@_0BC@DHLCCIHN@GuildCombatTEXT_1@ DB 'GuildCombatTEXT_1', 00H ; `string'
CONST	ENDS
;	COMDAT ??_C@_06JHGCIHDH@Notice@
CONST	SEGMENT
??_C@_06JHGCIHDH@Notice@ DB 'Notice', 00H		; `string'
CONST	ENDS
;	COMDAT ??_C@_0M@KNNOCJKG@InvalidName@
CONST	SEGMENT
??_C@_0M@KNNOCJKG@InvalidName@ DB 'InvalidName', 00H	; `string'
CONST	ENDS
;	COMDAT ??_C@_06IBDJIBGI@Filter@
CONST	SEGMENT
??_C@_06IBDJIBGI@Filter@ DB 'Filter', 00H		; `string'
CONST	ENDS
;	COMDAT ??_R4bad_alloc@std@@6B@
rdata$r	SEGMENT
??_R4bad_alloc@std@@6B@ DD 00H				; std::bad_alloc::`RTTI Complete Object Locator'
	DD	00H
	DD	00H
	DD	FLAT:??_R0?AVbad_alloc@std@@@8
	DD	FLAT:??_R3bad_alloc@std@@8
rdata$r	ENDS
;	COMDAT ??_R2bad_alloc@std@@8
rdata$r	SEGMENT
??_R2bad_alloc@std@@8 DD FLAT:??_R1A@?0A@EA@bad_alloc@std@@8 ; std::bad_alloc::`RTTI Base Class Array'
	DD	FLAT:??_R1A@?0A@EA@exception@std@@8
rdata$r	ENDS
;	COMDAT ??_R3bad_alloc@std@@8
rdata$r	SEGMENT
??_R3bad_alloc@std@@8 DD 00H				; std::bad_alloc::`RTTI Class Hierarchy Descriptor'
	DD	00H
	DD	02H
	DD	FLAT:??_R2bad_alloc@std@@8
rdata$r	ENDS
;	COMDAT ??_R1A@?0A@EA@bad_alloc@std@@8
rdata$r	SEGMENT
??_R1A@?0A@EA@bad_alloc@std@@8 DD FLAT:??_R0?AVbad_alloc@std@@@8 ; std::bad_alloc::`RTTI Base Class Descriptor at (0,-1,0,64)'
	DD	01H
	DD	00H
	DD	0ffffffffH
	DD	00H
	DD	040H
	DD	FLAT:??_R3bad_alloc@std@@8
rdata$r	ENDS
;	COMDAT ??_R1A@?0A@EA@bad_array_new_length@std@@8
rdata$r	SEGMENT
??_R1A@?0A@EA@bad_array_new_length@std@@8 DD FLAT:??_R0?AVbad_array_new_length@std@@@8 ; std::bad_array_new_length::`RTTI Base Class Descriptor at (0,-1,0,64)'
	DD	02H
	DD	00H
	DD	0ffffffffH
	DD	00H
	DD	040H
	DD	FLAT:??_R3bad_array_new_length@std@@8
rdata$r	ENDS
;	COMDAT ??_R2bad_array_new_length@std@@8
rdata$r	SEGMENT
??_R2bad_array_new_length@std@@8 DD FLAT:??_R1A@?0A@EA@bad_array_new_length@std@@8 ; std::bad_array_new_length::`RTTI Base Class Array'
	DD	FLAT:??_R1A@?0A@EA@bad_alloc@std@@8
	DD	FLAT:??_R1A@?0A@EA@exception@std@@8
rdata$r	ENDS
;	COMDAT ??_R3bad_array_new_length@std@@8
rdata$r	SEGMENT
??_R3bad_array_new_length@std@@8 DD 00H			; std::bad_array_new_length::`RTTI Class Hierarchy Descriptor'
	DD	00H
	DD	03H
	DD	FLAT:??_R2bad_array_new_length@std@@8
rdata$r	ENDS
;	COMDAT ??_R4bad_array_new_length@std@@6B@
rdata$r	SEGMENT
??_R4bad_array_new_length@std@@6B@ DD 00H		; std::bad_array_new_length::`RTTI Complete Object Locator'
	DD	00H
	DD	00H
	DD	FLAT:??_R0?AVbad_array_new_length@std@@@8
	DD	FLAT:??_R3bad_array_new_length@std@@8
rdata$r	ENDS
;	COMDAT ??_R1A@?0A@EA@exception@std@@8
rdata$r	SEGMENT
??_R1A@?0A@EA@exception@std@@8 DD FLAT:??_R0?AVexception@std@@@8 ; std::exception::`RTTI Base Class Descriptor at (0,-1,0,64)'
	DD	00H
	DD	00H
	DD	0ffffffffH
	DD	00H
	DD	040H
	DD	FLAT:??_R3exception@std@@8
rdata$r	ENDS
;	COMDAT ??_R2exception@std@@8
rdata$r	SEGMENT
??_R2exception@std@@8 DD FLAT:??_R1A@?0A@EA@exception@std@@8 ; std::exception::`RTTI Base Class Array'
rdata$r	ENDS
;	COMDAT ??_R3exception@std@@8
rdata$r	SEGMENT
??_R3exception@std@@8 DD 00H				; std::exception::`RTTI Class Hierarchy Descriptor'
	DD	00H
	DD	01H
	DD	FLAT:??_R2exception@std@@8
rdata$r	ENDS
;	COMDAT ??_R4exception@std@@6B@
rdata$r	SEGMENT
??_R4exception@std@@6B@ DD 00H				; std::exception::`RTTI Complete Object Locator'
	DD	00H
	DD	00H
	DD	FLAT:??_R0?AVexception@std@@@8
	DD	FLAT:??_R3exception@std@@8
rdata$r	ENDS
;	COMDAT ??_C@_0BB@GCADKGJO@map?1set?5too?5long@
CONST	SEGMENT
??_C@_0BB@GCADKGJO@map?1set?5too?5long@ DB 'map/set too long', 00H ; `string'
CONST	ENDS
;	COMDAT ??_C@_0BA@JFNIOLAK@string?5too?5long@
CONST	SEGMENT
??_C@_0BA@JFNIOLAK@string?5too?5long@ DB 'string too long', 00H ; `string'
CONST	ENDS
;	COMDAT __CT??_R0?AVbad_alloc@std@@@8??0bad_alloc@std@@QAE@ABV01@@Z12
xdata$x	SEGMENT
__CT??_R0?AVbad_alloc@std@@@8??0bad_alloc@std@@QAE@ABV01@@Z12 DD 010H
	DD	FLAT:??_R0?AVbad_alloc@std@@@8
	DD	00H
	DD	0ffffffffH
	ORG $+4
	DD	0cH
	DD	FLAT:??0bad_alloc@std@@QAE@ABV01@@Z
xdata$x	ENDS
;	COMDAT ??_R0?AVbad_alloc@std@@@8
data$r	SEGMENT
??_R0?AVbad_alloc@std@@@8 DD FLAT:??_7type_info@@6B@	; std::bad_alloc `RTTI Type Descriptor'
	DD	00H
	DB	'.?AVbad_alloc@std@@', 00H
data$r	ENDS
;	COMDAT __CT??_R0?AVbad_array_new_length@std@@@8??0bad_array_new_length@std@@QAE@ABV01@@Z12
xdata$x	SEGMENT
__CT??_R0?AVbad_array_new_length@std@@@8??0bad_array_new_length@std@@QAE@ABV01@@Z12 DD 00H
	DD	FLAT:??_R0?AVbad_array_new_length@std@@@8
	DD	00H
	DD	0ffffffffH
	ORG $+4
	DD	0cH
	DD	FLAT:??0bad_array_new_length@std@@QAE@ABV01@@Z
xdata$x	ENDS
;	COMDAT ??_R0?AVbad_array_new_length@std@@@8
data$r	SEGMENT
??_R0?AVbad_array_new_length@std@@@8 DD FLAT:??_7type_info@@6B@ ; std::bad_array_new_length `RTTI Type Descriptor'
	DD	00H
	DB	'.?AVbad_array_new_length@std@@', 00H
data$r	ENDS
;	COMDAT __CTA3?AVbad_array_new_length@std@@
xdata$x	SEGMENT
__CTA3?AVbad_array_new_length@std@@ DD 03H
	DD	FLAT:__CT??_R0?AVbad_array_new_length@std@@@8??0bad_array_new_length@std@@QAE@ABV01@@Z12
	DD	FLAT:__CT??_R0?AVbad_alloc@std@@@8??0bad_alloc@std@@QAE@ABV01@@Z12
	DD	FLAT:__CT??_R0?AVexception@std@@@8??0exception@std@@QAE@ABV01@@Z12
xdata$x	ENDS
;	COMDAT __TI3?AVbad_array_new_length@std@@
xdata$x	SEGMENT
__TI3?AVbad_array_new_length@std@@ DD 00H
	DD	FLAT:??1bad_array_new_length@std@@UAE@XZ
	DD	00H
	DD	FLAT:__CTA3?AVbad_array_new_length@std@@
xdata$x	ENDS
;	COMDAT __CT??_R0?AVexception@std@@@8??0exception@std@@QAE@ABV01@@Z12
xdata$x	SEGMENT
__CT??_R0?AVexception@std@@@8??0exception@std@@QAE@ABV01@@Z12 DD 00H
	DD	FLAT:??_R0?AVexception@std@@@8
	DD	00H
	DD	0ffffffffH
	ORG $+4
	DD	0cH
	DD	FLAT:??0exception@std@@QAE@ABV01@@Z
xdata$x	ENDS
;	COMDAT ??_R0?AVexception@std@@@8
data$r	SEGMENT
??_R0?AVexception@std@@@8 DD FLAT:??_7type_info@@6B@	; std::exception `RTTI Type Descriptor'
	DD	00H
	DB	'.?AVexception@std@@', 00H
data$r	ENDS
;	COMDAT ??_C@_0BF@KINCDENJ@bad?5array?5new?5length@
CONST	SEGMENT
??_C@_0BF@KINCDENJ@bad?5array?5new?5length@ DB 'bad array new length', 00H ; `string'
CONST	ENDS
;	COMDAT ??_7bad_array_new_length@std@@6B@
CONST	SEGMENT
??_7bad_array_new_length@std@@6B@ DD FLAT:??_R4bad_array_new_length@std@@6B@ ; std::bad_array_new_length::`vftable'
	DD	FLAT:??_Ebad_array_new_length@std@@UAEPAXI@Z
	DD	FLAT:?what@exception@std@@UBEPBDXZ
CONST	ENDS
;	COMDAT ??_7bad_alloc@std@@6B@
CONST	SEGMENT
??_7bad_alloc@std@@6B@ DD FLAT:??_R4bad_alloc@std@@6B@	; std::bad_alloc::`vftable'
	DD	FLAT:??_Ebad_alloc@std@@UAEPAXI@Z
	DD	FLAT:?what@exception@std@@UBEPBDXZ
CONST	ENDS
;	COMDAT ??_C@_0BC@EOODALEL@Unknown?5exception@
CONST	SEGMENT
??_C@_0BC@EOODALEL@Unknown?5exception@ DB 'Unknown exception', 00H ; `string'
CONST	ENDS
;	COMDAT ??_7exception@std@@6B@
CONST	SEGMENT
??_7exception@std@@6B@ DD FLAT:??_R4exception@std@@6B@	; std::exception::`vftable'
	DD	FLAT:??_Eexception@std@@UAEPAXI@Z
	DD	FLAT:?what@exception@std@@UBEPBDXZ
CONST	ENDS
;	COMDAT ??_C@_00CNPNBAHC@@
CONST	SEGMENT
??_C@_00CNPNBAHC@@ DB 00H				; `string'
CONST	ENDS
;	COMDAT xdata$x
xdata$x	SEGMENT
__unwindtable$??$?0D@?$_Tree_temp_node@V?$allocator@U?$_Tree_node@DPAX@std@@@std@@@std@@QAE@AAV?$allocator@U?$_Tree_node@DPAX@std@@@1@PAU?$_Tree_node@DPAX@1@$$QAD@Z DD 0ffffffffH
	DD	FLAT:__unwindfunclet$??$?0D@?$_Tree_temp_node@V?$allocator@U?$_Tree_node@DPAX@std@@@std@@@std@@QAE@AAV?$allocator@U?$_Tree_node@DPAX@std@@@1@PAU?$_Tree_node@DPAX@1@$$QAD@Z$1
__ehfuncinfo$??$?0D@?$_Tree_temp_node@V?$allocator@U?$_Tree_node@DPAX@std@@@std@@@std@@QAE@AAV?$allocator@U?$_Tree_node@DPAX@std@@@1@PAU?$_Tree_node@DPAX@1@$$QAD@Z DD 019930522H
	DD	01H
	DD	FLAT:__unwindtable$??$?0D@?$_Tree_temp_node@V?$allocator@U?$_Tree_node@DPAX@std@@@std@@@std@@QAE@AAV?$allocator@U?$_Tree_node@DPAX@std@@@1@PAU?$_Tree_node@DPAX@1@$$QAD@Z
	DD	2 DUP(00H)
	DD	2 DUP(00H)
	DD	00H
	DD	01H
xdata$x	ENDS
;	COMDAT xdata$x
xdata$x	SEGMENT
__unwindtable$??0?$_Tree_temp_node_alloc@V?$allocator@U?$_Tree_node@DPAX@std@@@std@@@std@@QAE@AAV?$allocator@U?$_Tree_node@DPAX@std@@@1@@Z DD 0ffffffffH
	DD	FLAT:__unwindfunclet$??0?$_Tree_temp_node_alloc@V?$allocator@U?$_Tree_node@DPAX@std@@@std@@@std@@QAE@AAV?$allocator@U?$_Tree_node@DPAX@std@@@1@@Z$0
__ehfuncinfo$??0?$_Tree_temp_node_alloc@V?$allocator@U?$_Tree_node@DPAX@std@@@std@@@std@@QAE@AAV?$allocator@U?$_Tree_node@DPAX@std@@@1@@Z DD 019930522H
	DD	01H
	DD	FLAT:__unwindtable$??0?$_Tree_temp_node_alloc@V?$allocator@U?$_Tree_node@DPAX@std@@@std@@@std@@QAE@AAV?$allocator@U?$_Tree_node@DPAX@std@@@1@@Z
	DD	2 DUP(00H)
	DD	2 DUP(00H)
	DD	00H
	DD	01H
xdata$x	ENDS
;	COMDAT xdata$x
xdata$x	SEGMENT
__unwindtable$??$?0V?$basic_string@DU?$char_traits@D@std@@V?$allocator@D@2@@std@@@?$_Tree_temp_node@V?$allocator@U?$_Tree_node@V?$basic_string@DU?$char_traits@D@std@@V?$allocator@D@2@@std@@PAX@std@@@std@@@std@@QAE@AAV?$allocator@U?$_Tree_node@V?$basic_string@DU?$char_traits@D@std@@V?$allocator@D@2@@std@@PAX@std@@@1@PAU?$_Tree_node@V?$basic_string@DU?$char_traits@D@std@@V?$allocator@D@2@@std@@PAX@1@$$QAV?$basic_string@DU?$char_traits@D@std@@V?$allocator@D@2@@1@@Z DD 0ffffffffH
	DD	FLAT:__unwindfunclet$??$?0V?$basic_string@DU?$char_traits@D@std@@V?$allocator@D@2@@std@@@?$_Tree_temp_node@V?$allocator@U?$_Tree_node@V?$basic_string@DU?$char_traits@D@std@@V?$allocator@D@2@@std@@PAX@std@@@std@@@std@@QAE@AAV?$allocator@U?$_Tree_node@V?$basic_string@DU?$char_traits@D@std@@V?$allocator@D@2@@std@@PAX@std@@@1@PAU?$_Tree_node@V?$basic_string@DU?$char_traits@D@std@@V?$allocator@D@2@@std@@PAX@1@$$QAV?$basic_string@DU?$char_traits@D@std@@V?$allocator@D@2@@1@@Z$1
__ehfuncinfo$??$?0V?$basic_string@DU?$char_traits@D@std@@V?$allocator@D@2@@std@@@?$_Tree_temp_node@V?$allocator@U?$_Tree_node@V?$basic_string@DU?$char_traits@D@std@@V?$allocator@D@2@@std@@PAX@std@@@std@@@std@@QAE@AAV?$allocator@U?$_Tree_node@V?$basic_string@DU?$char_traits@D@std@@V?$allocator@D@2@@std@@PAX@std@@@1@PAU?$_Tree_node@V?$basic_string@DU?$char_traits@D@std@@V?$allocator@D@2@@std@@PAX@1@$$QAV?$basic_string@DU?$char_traits@D@std@@V?$allocator@D@2@@1@@Z DD 019930522H
	DD	01H
	DD	FLAT:__unwindtable$??$?0V?$basic_string@DU?$char_traits@D@std@@V?$allocator@D@2@@std@@@?$_Tree_temp_node@V?$allocator@U?$_Tree_node@V?$basic_string@DU?$char_traits@D@std@@V?$allocator@D@2@@std@@PAX@std@@@std@@@std@@QAE@AAV?$allocator@U?$_Tree_node@V?$basic_string@DU?$char_traits@D@std@@V?$allocator@D@2@@std@@PAX@std@@@1@PAU?$_Tree_node@V?$basic_string@DU?$char_traits@D@std@@V?$allocator@D@2@@std@@PAX@1@$$QAV?$basic_string@DU?$char_traits@D@std@@V?$allocator@D@2@@1@@Z
	DD	2 DUP(00H)
	DD	2 DUP(00H)
	DD	00H
	DD	01H
xdata$x	ENDS
;	COMDAT xdata$x
xdata$x	SEGMENT
__unwindtable$??0?$_Tree_temp_node_alloc@V?$allocator@U?$_Tree_node@V?$basic_string@DU?$char_traits@D@std@@V?$allocator@D@2@@std@@PAX@std@@@std@@@std@@QAE@AAV?$allocator@U?$_Tree_node@V?$basic_string@DU?$char_traits@D@std@@V?$allocator@D@2@@std@@PAX@std@@@1@@Z DD 0ffffffffH
	DD	FLAT:__unwindfunclet$??0?$_Tree_temp_node_alloc@V?$allocator@U?$_Tree_node@V?$basic_string@DU?$char_traits@D@std@@V?$allocator@D@2@@std@@PAX@std@@@std@@@std@@QAE@AAV?$allocator@U?$_Tree_node@V?$basic_string@DU?$char_traits@D@std@@V?$allocator@D@2@@std@@PAX@std@@@1@@Z$0
__ehfuncinfo$??0?$_Tree_temp_node_alloc@V?$allocator@U?$_Tree_node@V?$basic_string@DU?$char_traits@D@std@@V?$allocator@D@2@@std@@PAX@std@@@std@@@std@@QAE@AAV?$allocator@U?$_Tree_node@V?$basic_string@DU?$char_traits@D@std@@V?$allocator@D@2@@std@@PAX@std@@@1@@Z DD 019930522H
	DD	01H
	DD	FLAT:__unwindtable$??0?$_Tree_temp_node_alloc@V?$allocator@U?$_Tree_node@V?$basic_string@DU?$char_traits@D@std@@V?$allocator@D@2@@std@@PAX@std@@@std@@@std@@QAE@AAV?$allocator@U?$_Tree_node@V?$basic_string@DU?$char_traits@D@std@@V?$allocator@D@2@@std@@PAX@std@@@1@@Z
	DD	2 DUP(00H)
	DD	2 DUP(00H)
	DD	00H
	DD	01H
xdata$x	ENDS
;	COMDAT xdata$x
xdata$x	SEGMENT
__unwindtable$??$?0U?$pair@$$CBV?$basic_string@DU?$char_traits@D@std@@V?$allocator@D@2@@std@@K@std@@@?$_Tree_temp_node@V?$allocator@U?$_Tree_node@U?$pair@$$CBV?$basic_string@DU?$char_traits@D@std@@V?$allocator@D@2@@std@@K@std@@PAX@std@@@std@@@std@@QAE@AAV?$allocator@U?$_Tree_node@U?$pair@$$CBV?$basic_string@DU?$char_traits@D@std@@V?$allocator@D@2@@std@@K@std@@PAX@std@@@1@PAU?$_Tree_node@U?$pair@$$CBV?$basic_string@DU?$char_traits@D@std@@V?$allocator@D@2@@std@@K@std@@PAX@1@$$QAU?$pair@$$CBV?$basic_string@DU?$char_traits@D@std@@V?$allocator@D@2@@std@@K@1@@Z DD 0ffffffffH
	DD	FLAT:__unwindfunclet$??$?0U?$pair@$$CBV?$basic_string@DU?$char_traits@D@std@@V?$allocator@D@2@@std@@K@std@@@?$_Tree_temp_node@V?$allocator@U?$_Tree_node@U?$pair@$$CBV?$basic_string@DU?$char_traits@D@std@@V?$allocator@D@2@@std@@K@std@@PAX@std@@@std@@@std@@QAE@AAV?$allocator@U?$_Tree_node@U?$pair@$$CBV?$basic_string@DU?$char_traits@D@std@@V?$allocator@D@2@@std@@K@std@@PAX@std@@@1@PAU?$_Tree_node@U?$pair@$$CBV?$basic_string@DU?$char_traits@D@std@@V?$allocator@D@2@@std@@K@std@@PAX@1@$$QAU?$pair@$$CBV?$basic_string@DU?$char_traits@D@std@@V?$allocator@D@2@@std@@K@1@@Z$1
	DD	0ffffffffH
	DD	FLAT:__unwindfunclet$??$?0U?$pair@$$CBV?$basic_string@DU?$char_traits@D@std@@V?$allocator@D@2@@std@@K@std@@@?$_Tree_temp_node@V?$allocator@U?$_Tree_node@U?$pair@$$CBV?$basic_string@DU?$char_traits@D@std@@V?$allocator@D@2@@std@@K@std@@PAX@std@@@std@@@std@@QAE@AAV?$allocator@U?$_Tree_node@U?$pair@$$CBV?$basic_string@DU?$char_traits@D@std@@V?$allocator@D@2@@std@@K@std@@PAX@std@@@1@PAU?$_Tree_node@U?$pair@$$CBV?$basic_string@DU?$char_traits@D@std@@V?$allocator@D@2@@std@@K@std@@PAX@1@$$QAU?$pair@$$CBV?$basic_string@DU?$char_traits@D@std@@V?$allocator@D@2@@std@@K@1@@Z$0
__ehfuncinfo$??$?0U?$pair@$$CBV?$basic_string@DU?$char_traits@D@std@@V?$allocator@D@2@@std@@K@std@@@?$_Tree_temp_node@V?$allocator@U?$_Tree_node@U?$pair@$$CBV?$basic_string@DU?$char_traits@D@std@@V?$allocator@D@2@@std@@K@std@@PAX@std@@@std@@@std@@QAE@AAV?$allocator@U?$_Tree_node@U?$pair@$$CBV?$basic_string@DU?$char_traits@D@std@@V?$allocator@D@2@@std@@K@std@@PAX@std@@@1@PAU?$_Tree_node@U?$pair@$$CBV?$basic_string@DU?$char_traits@D@std@@V?$allocator@D@2@@std@@K@std@@PAX@1@$$QAU?$pair@$$CBV?$basic_string@DU?$char_traits@D@std@@V?$allocator@D@2@@std@@K@1@@Z DD 019930522H
	DD	02H
	DD	FLAT:__unwindtable$??$?0U?$pair@$$CBV?$basic_string@DU?$char_traits@D@std@@V?$allocator@D@2@@std@@K@std@@@?$_Tree_temp_node@V?$allocator@U?$_Tree_node@U?$pair@$$CBV?$basic_string@DU?$char_traits@D@std@@V?$allocator@D@2@@std@@K@std@@PAX@std@@@std@@@std@@QAE@AAV?$allocator@U?$_Tree_node@U?$pair@$$CBV?$basic_string@DU?$char_traits@D@std@@V?$allocator@D@2@@std@@K@std@@PAX@std@@@1@PAU?$_Tree_node@U?$pair@$$CBV?$basic_string@DU?$char_traits@D@std@@V?$allocator@D@2@@std@@K@std@@PAX@1@$$QAU?$pair@$$CBV?$basic_string@DU?$char_traits@D@std@@V?$allocator@D@2@@std@@K@1@@Z
	DD	2 DUP(00H)
	DD	2 DUP(00H)
	DD	00H
	DD	01H
xdata$x	ENDS
;	COMDAT xdata$x
xdata$x	SEGMENT
__unwindtable$??0?$_Tree_temp_node_alloc@V?$allocator@U?$_Tree_node@U?$pair@$$CBV?$basic_string@DU?$char_traits@D@std@@V?$allocator@D@2@@std@@K@std@@PAX@std@@@std@@@std@@QAE@AAV?$allocator@U?$_Tree_node@U?$pair@$$CBV?$basic_string@DU?$char_traits@D@std@@V?$allocator@D@2@@std@@K@std@@PAX@std@@@1@@Z DD 0ffffffffH
	DD	FLAT:__unwindfunclet$??0?$_Tree_temp_node_alloc@V?$allocator@U?$_Tree_node@U?$pair@$$CBV?$basic_string@DU?$char_traits@D@std@@V?$allocator@D@2@@std@@K@std@@PAX@std@@@std@@@std@@QAE@AAV?$allocator@U?$_Tree_node@U?$pair@$$CBV?$basic_string@DU?$char_traits@D@std@@V?$allocator@D@2@@std@@K@std@@PAX@std@@@1@@Z$0
__ehfuncinfo$??0?$_Tree_temp_node_alloc@V?$allocator@U?$_Tree_node@U?$pair@$$CBV?$basic_string@DU?$char_traits@D@std@@V?$allocator@D@2@@std@@K@std@@PAX@std@@@std@@@std@@QAE@AAV?$allocator@U?$_Tree_node@U?$pair@$$CBV?$basic_string@DU?$char_traits@D@std@@V?$allocator@D@2@@std@@K@std@@PAX@std@@@1@@Z DD 019930522H
	DD	01H
	DD	FLAT:__unwindtable$??0?$_Tree_temp_node_alloc@V?$allocator@U?$_Tree_node@U?$pair@$$CBV?$basic_string@DU?$char_traits@D@std@@V?$allocator@D@2@@std@@K@std@@PAX@std@@@std@@@std@@QAE@AAV?$allocator@U?$_Tree_node@U?$pair@$$CBV?$basic_string@DU?$char_traits@D@std@@V?$allocator@D@2@@std@@K@std@@PAX@std@@@1@@Z
	DD	2 DUP(00H)
	DD	2 DUP(00H)
	DD	00H
	DD	01H
xdata$x	ENDS
;	COMDAT xdata$x
xdata$x	SEGMENT
__unwindtable$??$?0ABH@?$_Tree_temp_node@V?$allocator@U?$_Tree_node@HPAX@std@@@std@@@std@@QAE@AAV?$allocator@U?$_Tree_node@HPAX@std@@@1@PAU?$_Tree_node@HPAX@1@ABH@Z DD 0ffffffffH
	DD	FLAT:__unwindfunclet$??$?0ABH@?$_Tree_temp_node@V?$allocator@U?$_Tree_node@HPAX@std@@@std@@@std@@QAE@AAV?$allocator@U?$_Tree_node@HPAX@std@@@1@PAU?$_Tree_node@HPAX@1@ABH@Z$1
__ehfuncinfo$??$?0ABH@?$_Tree_temp_node@V?$allocator@U?$_Tree_node@HPAX@std@@@std@@@std@@QAE@AAV?$allocator@U?$_Tree_node@HPAX@std@@@1@PAU?$_Tree_node@HPAX@1@ABH@Z DD 019930522H
	DD	01H
	DD	FLAT:__unwindtable$??$?0ABH@?$_Tree_temp_node@V?$allocator@U?$_Tree_node@HPAX@std@@@std@@@std@@QAE@AAV?$allocator@U?$_Tree_node@HPAX@std@@@1@PAU?$_Tree_node@HPAX@1@ABH@Z
	DD	2 DUP(00H)
	DD	2 DUP(00H)
	DD	00H
	DD	01H
xdata$x	ENDS
;	COMDAT xdata$x
xdata$x	SEGMENT
__unwindtable$??0?$_Tree_temp_node_alloc@V?$allocator@U?$_Tree_node@HPAX@std@@@std@@@std@@QAE@AAV?$allocator@U?$_Tree_node@HPAX@std@@@1@@Z DD 0ffffffffH
	DD	FLAT:__unwindfunclet$??0?$_Tree_temp_node_alloc@V?$allocator@U?$_Tree_node@HPAX@std@@@std@@@std@@QAE@AAV?$allocator@U?$_Tree_node@HPAX@std@@@1@@Z$0
__ehfuncinfo$??0?$_Tree_temp_node_alloc@V?$allocator@U?$_Tree_node@HPAX@std@@@std@@@std@@QAE@AAV?$allocator@U?$_Tree_node@HPAX@std@@@1@@Z DD 019930522H
	DD	01H
	DD	FLAT:__unwindtable$??0?$_Tree_temp_node_alloc@V?$allocator@U?$_Tree_node@HPAX@std@@@std@@@std@@QAE@AAV?$allocator@U?$_Tree_node@HPAX@std@@@1@@Z
	DD	2 DUP(00H)
	DD	2 DUP(00H)
	DD	00H
	DD	01H
xdata$x	ENDS
;	COMDAT xdata$x
xdata$x	SEGMENT
__unwindtable$??$_Emplace@D@?$_Tree@V?$_Tset_traits@DU?$less@D@std@@V?$allocator@D@2@$0A@@std@@@std@@IAE?AU?$pair@PAU?$_Tree_node@DPAX@std@@_N@1@$$QAD@Z DD 0ffffffffH
	DD	FLAT:__unwindfunclet$??$_Emplace@D@?$_Tree@V?$_Tset_traits@DU?$less@D@std@@V?$allocator@D@2@$0A@@std@@@std@@IAE?AU?$pair@PAU?$_Tree_node@DPAX@std@@_N@1@$$QAD@Z$2
__ehfuncinfo$??$_Emplace@D@?$_Tree@V?$_Tset_traits@DU?$less@D@std@@V?$allocator@D@2@$0A@@std@@@std@@IAE?AU?$pair@PAU?$_Tree_node@DPAX@std@@_N@1@$$QAD@Z DD 019930522H
	DD	01H
	DD	FLAT:__unwindtable$??$_Emplace@D@?$_Tree@V?$_Tset_traits@DU?$less@D@std@@V?$allocator@D@2@$0A@@std@@@std@@IAE?AU?$pair@PAU?$_Tree_node@DPAX@std@@_N@1@$$QAD@Z
	DD	2 DUP(00H)
	DD	2 DUP(00H)
	DD	00H
	DD	01H
xdata$x	ENDS
;	COMDAT xdata$x
xdata$x	SEGMENT
__unwindtable$??$_Emplace@V?$basic_string@DU?$char_traits@D@std@@V?$allocator@D@2@@std@@@?$_Tree@V?$_Tset_traits@V?$basic_string@DU?$char_traits@D@std@@V?$allocator@D@2@@std@@U?$less@V?$basic_string@DU?$char_traits@D@std@@V?$allocator@D@2@@std@@@2@V?$allocator@V?$basic_string@DU?$char_traits@D@std@@V?$allocator@D@2@@std@@@2@$0A@@std@@@std@@IAE?AU?$pair@PAU?$_Tree_node@V?$basic_string@DU?$char_traits@D@std@@V?$allocator@D@2@@std@@PAX@std@@_N@1@$$QAV?$basic_string@DU?$char_traits@D@std@@V?$allocator@D@2@@1@@Z DD 0ffffffffH
	DD	FLAT:__unwindfunclet$??$_Emplace@V?$basic_string@DU?$char_traits@D@std@@V?$allocator@D@2@@std@@@?$_Tree@V?$_Tset_traits@V?$basic_string@DU?$char_traits@D@std@@V?$allocator@D@2@@std@@U?$less@V?$basic_string@DU?$char_traits@D@std@@V?$allocator@D@2@@std@@@2@V?$allocator@V?$basic_string@DU?$char_traits@D@std@@V?$allocator@D@2@@std@@@2@$0A@@std@@@std@@IAE?AU?$pair@PAU?$_Tree_node@V?$basic_string@DU?$char_traits@D@std@@V?$allocator@D@2@@std@@PAX@std@@_N@1@$$QAV?$basic_string@DU?$char_traits@D@std@@V?$allocator@D@2@@1@@Z$2
__ehfuncinfo$??$_Emplace@V?$basic_string@DU?$char_traits@D@std@@V?$allocator@D@2@@std@@@?$_Tree@V?$_Tset_traits@V?$basic_string@DU?$char_traits@D@std@@V?$allocator@D@2@@std@@U?$less@V?$basic_string@DU?$char_traits@D@std@@V?$allocator@D@2@@std@@@2@V?$allocator@V?$basic_string@DU?$char_traits@D@std@@V?$allocator@D@2@@std@@@2@$0A@@std@@@std@@IAE?AU?$pair@PAU?$_Tree_node@V?$basic_string@DU?$char_traits@D@std@@V?$allocator@D@2@@std@@PAX@std@@_N@1@$$QAV?$basic_string@DU?$char_traits@D@std@@V?$allocator@D@2@@1@@Z DD 019930522H
	DD	01H
	DD	FLAT:__unwindtable$??$_Emplace@V?$basic_string@DU?$char_traits@D@std@@V?$allocator@D@2@@std@@@?$_Tree@V?$_Tset_traits@V?$basic_string@DU?$char_traits@D@std@@V?$allocator@D@2@@std@@U?$less@V?$basic_string@DU?$char_traits@D@std@@V?$allocator@D@2@@std@@@2@V?$allocator@V?$basic_string@DU?$char_traits@D@std@@V?$allocator@D@2@@std@@@2@$0A@@std@@@std@@IAE?AU?$pair@PAU?$_Tree_node@V?$basic_string@DU?$char_traits@D@std@@V?$allocator@D@2@@std@@PAX@std@@_N@1@$$QAV?$basic_string@DU?$char_traits@D@std@@V?$allocator@D@2@@1@@Z
	DD	2 DUP(00H)
	DD	2 DUP(00H)
	DD	00H
	DD	01H
xdata$x	ENDS
;	COMDAT xdata$x
xdata$x	SEGMENT
__unwindtable$??$_Emplace@U?$pair@$$CBV?$basic_string@DU?$char_traits@D@std@@V?$allocator@D@2@@std@@K@std@@@?$_Tree@V?$_Tmap_traits@V?$basic_string@DU?$char_traits@D@std@@V?$allocator@D@2@@std@@KU?$less@V?$basic_string@DU?$char_traits@D@std@@V?$allocator@D@2@@std@@@2@V?$allocator@U?$pair@$$CBV?$basic_string@DU?$char_traits@D@std@@V?$allocator@D@2@@std@@K@std@@@2@$0A@@std@@@std@@IAE?AU?$pair@PAU?$_Tree_node@U?$pair@$$CBV?$basic_string@DU?$char_traits@D@std@@V?$allocator@D@2@@std@@K@std@@PAX@std@@_N@1@$$QAU?$pair@$$CBV?$basic_string@DU?$char_traits@D@std@@V?$allocator@D@2@@std@@K@1@@Z DD 0ffffffffH
	DD	FLAT:__unwindfunclet$??$_Emplace@U?$pair@$$CBV?$basic_string@DU?$char_traits@D@std@@V?$allocator@D@2@@std@@K@std@@@?$_Tree@V?$_Tmap_traits@V?$basic_string@DU?$char_traits@D@std@@V?$allocator@D@2@@std@@KU?$less@V?$basic_string@DU?$char_traits@D@std@@V?$allocator@D@2@@std@@@2@V?$allocator@U?$pair@$$CBV?$basic_string@DU?$char_traits@D@std@@V?$allocator@D@2@@std@@K@std@@@2@$0A@@std@@@std@@IAE?AU?$pair@PAU?$_Tree_node@U?$pair@$$CBV?$basic_string@DU?$char_traits@D@std@@V?$allocator@D@2@@std@@K@std@@PAX@std@@_N@1@$$QAU?$pair@$$CBV?$basic_string@DU?$char_traits@D@std@@V?$allocator@D@2@@std@@K@1@@Z$2
	DD	0ffffffffH
	DD	FLAT:__unwindfunclet$??$_Emplace@U?$pair@$$CBV?$basic_string@DU?$char_traits@D@std@@V?$allocator@D@2@@std@@K@std@@@?$_Tree@V?$_Tmap_traits@V?$basic_string@DU?$char_traits@D@std@@V?$allocator@D@2@@std@@KU?$less@V?$basic_string@DU?$char_traits@D@std@@V?$allocator@D@2@@std@@@2@V?$allocator@U?$pair@$$CBV?$basic_string@DU?$char_traits@D@std@@V?$allocator@D@2@@std@@K@std@@@2@$0A@@std@@@std@@IAE?AU?$pair@PAU?$_Tree_node@U?$pair@$$CBV?$basic_string@DU?$char_traits@D@std@@V?$allocator@D@2@@std@@K@std@@PAX@std@@_N@1@$$QAU?$pair@$$CBV?$basic_string@DU?$char_traits@D@std@@V?$allocator@D@2@@std@@K@1@@Z$1
__ehfuncinfo$??$_Emplace@U?$pair@$$CBV?$basic_string@DU?$char_traits@D@std@@V?$allocator@D@2@@std@@K@std@@@?$_Tree@V?$_Tmap_traits@V?$basic_string@DU?$char_traits@D@std@@V?$allocator@D@2@@std@@KU?$less@V?$basic_string@DU?$char_traits@D@std@@V?$allocator@D@2@@std@@@2@V?$allocator@U?$pair@$$CBV?$basic_string@DU?$char_traits@D@std@@V?$allocator@D@2@@std@@K@std@@@2@$0A@@std@@@std@@IAE?AU?$pair@PAU?$_Tree_node@U?$pair@$$CBV?$basic_string@DU?$char_traits@D@std@@V?$allocator@D@2@@std@@K@std@@PAX@std@@_N@1@$$QAU?$pair@$$CBV?$basic_string@DU?$char_traits@D@std@@V?$allocator@D@2@@std@@K@1@@Z DD 019930522H
	DD	02H
	DD	FLAT:__unwindtable$??$_Emplace@U?$pair@$$CBV?$basic_string@DU?$char_traits@D@std@@V?$allocator@D@2@@std@@K@std@@@?$_Tree@V?$_Tmap_traits@V?$basic_string@DU?$char_traits@D@std@@V?$allocator@D@2@@std@@KU?$less@V?$basic_string@DU?$char_traits@D@std@@V?$allocator@D@2@@std@@@2@V?$allocator@U?$pair@$$CBV?$basic_string@DU?$char_traits@D@std@@V?$allocator@D@2@@std@@K@std@@@2@$0A@@std@@@std@@IAE?AU?$pair@PAU?$_Tree_node@U?$pair@$$CBV?$basic_string@DU?$char_traits@D@std@@V?$allocator@D@2@@std@@K@std@@PAX@std@@_N@1@$$QAU?$pair@$$CBV?$basic_string@DU?$char_traits@D@std@@V?$allocator@D@2@@std@@K@1@@Z
	DD	2 DUP(00H)
	DD	2 DUP(00H)
	DD	00H
	DD	01H
xdata$x	ENDS
;	COMDAT xdata$x
xdata$x	SEGMENT
__unwindtable$??$_Emplace@ABH@?$_Tree@V?$_Tset_traits@HU?$less@H@std@@V?$allocator@H@2@$0A@@std@@@std@@IAE?AU?$pair@PAU?$_Tree_node@HPAX@std@@_N@1@ABH@Z DD 0ffffffffH
	DD	FLAT:__unwindfunclet$??$_Emplace@ABH@?$_Tree@V?$_Tset_traits@HU?$less@H@std@@V?$allocator@H@2@$0A@@std@@@std@@IAE?AU?$pair@PAU?$_Tree_node@HPAX@std@@_N@1@ABH@Z$2
__ehfuncinfo$??$_Emplace@ABH@?$_Tree@V?$_Tset_traits@HU?$less@H@std@@V?$allocator@H@2@$0A@@std@@@std@@IAE?AU?$pair@PAU?$_Tree_node@HPAX@std@@_N@1@ABH@Z DD 019930522H
	DD	01H
	DD	FLAT:__unwindtable$??$_Emplace@ABH@?$_Tree@V?$_Tset_traits@HU?$less@H@std@@V?$allocator@H@2@$0A@@std@@@std@@IAE?AU?$pair@PAU?$_Tree_node@HPAX@std@@_N@1@ABH@Z
	DD	2 DUP(00H)
	DD	2 DUP(00H)
	DD	00H
	DD	01H
xdata$x	ENDS
;	COMDAT xdata$x
xdata$x	SEGMENT
__unwindtable$??$insert@$0A@$0A@@?$_Tree@V?$_Tset_traits@DU?$less@D@std@@V?$allocator@D@2@$0A@@std@@@std@@QAE?AU?$pair@V?$_Tree_const_iterator@V?$_Tree_val@U?$_Tree_simple_types@D@std@@@std@@@std@@_N@1@$$QAD@Z DD 0ffffffffH
	DD	FLAT:__unwindfunclet$??$insert@$0A@$0A@@?$_Tree@V?$_Tset_traits@DU?$less@D@std@@V?$allocator@D@2@$0A@@std@@@std@@QAE?AU?$pair@V?$_Tree_const_iterator@V?$_Tree_val@U?$_Tree_simple_types@D@std@@@std@@@std@@_N@1@$$QAD@Z$2
__ehfuncinfo$??$insert@$0A@$0A@@?$_Tree@V?$_Tset_traits@DU?$less@D@std@@V?$allocator@D@2@$0A@@std@@@std@@QAE?AU?$pair@V?$_Tree_const_iterator@V?$_Tree_val@U?$_Tree_simple_types@D@std@@@std@@@std@@_N@1@$$QAD@Z DD 019930522H
	DD	01H
	DD	FLAT:__unwindtable$??$insert@$0A@$0A@@?$_Tree@V?$_Tset_traits@DU?$less@D@std@@V?$allocator@D@2@$0A@@std@@@std@@QAE?AU?$pair@V?$_Tree_const_iterator@V?$_Tree_val@U?$_Tree_simple_types@D@std@@@std@@@std@@_N@1@$$QAD@Z
	DD	2 DUP(00H)
	DD	2 DUP(00H)
	DD	00H
	DD	01H
xdata$x	ENDS
;	COMDAT xdata$x
xdata$x	SEGMENT
__unwindtable$??$insert@$0A@$0A@@?$_Tree@V?$_Tset_traits@V?$basic_string@DU?$char_traits@D@std@@V?$allocator@D@2@@std@@U?$less@V?$basic_string@DU?$char_traits@D@std@@V?$allocator@D@2@@std@@@2@V?$allocator@V?$basic_string@DU?$char_traits@D@std@@V?$allocator@D@2@@std@@@2@$0A@@std@@@std@@QAE?AU?$pair@V?$_Tree_const_iterator@V?$_Tree_val@U?$_Tree_simple_types@V?$basic_string@DU?$char_traits@D@std@@V?$allocator@D@2@@std@@@std@@@std@@@std@@_N@1@$$QAV?$basic_string@DU?$char_traits@D@std@@V?$allocator@D@2@@1@@Z DD 0ffffffffH
	DD	FLAT:__unwindfunclet$??$insert@$0A@$0A@@?$_Tree@V?$_Tset_traits@V?$basic_string@DU?$char_traits@D@std@@V?$allocator@D@2@@std@@U?$less@V?$basic_string@DU?$char_traits@D@std@@V?$allocator@D@2@@std@@@2@V?$allocator@V?$basic_string@DU?$char_traits@D@std@@V?$allocator@D@2@@std@@@2@$0A@@std@@@std@@QAE?AU?$pair@V?$_Tree_const_iterator@V?$_Tree_val@U?$_Tree_simple_types@V?$basic_string@DU?$char_traits@D@std@@V?$allocator@D@2@@std@@@std@@@std@@@std@@_N@1@$$QAV?$basic_string@DU?$char_traits@D@std@@V?$allocator@D@2@@1@@Z$2
__ehfuncinfo$??$insert@$0A@$0A@@?$_Tree@V?$_Tset_traits@V?$basic_string@DU?$char_traits@D@std@@V?$allocator@D@2@@std@@U?$less@V?$basic_string@DU?$char_traits@D@std@@V?$allocator@D@2@@std@@@2@V?$allocator@V?$basic_string@DU?$char_traits@D@std@@V?$allocator@D@2@@std@@@2@$0A@@std@@@std@@QAE?AU?$pair@V?$_Tree_const_iterator@V?$_Tree_val@U?$_Tree_simple_types@V?$basic_string@DU?$char_traits@D@std@@V?$allocator@D@2@@std@@@std@@@std@@@std@@_N@1@$$QAV?$basic_string@DU?$char_traits@D@std@@V?$allocator@D@2@@1@@Z DD 019930522H
	DD	01H
	DD	FLAT:__unwindtable$??$insert@$0A@$0A@@?$_Tree@V?$_Tset_traits@V?$basic_string@DU?$char_traits@D@std@@V?$allocator@D@2@@std@@U?$less@V?$basic_string@DU?$char_traits@D@std@@V?$allocator@D@2@@std@@@2@V?$allocator@V?$basic_string@DU?$char_traits@D@std@@V?$allocator@D@2@@std@@@2@$0A@@std@@@std@@QAE?AU?$pair@V?$_Tree_const_iterator@V?$_Tree_val@U?$_Tree_simple_types@V?$basic_string@DU?$char_traits@D@std@@V?$allocator@D@2@@std@@@std@@@std@@@std@@_N@1@$$QAV?$basic_string@DU?$char_traits@D@std@@V?$allocator@D@2@@1@@Z
	DD	2 DUP(00H)
	DD	2 DUP(00H)
	DD	00H
	DD	01H
xdata$x	ENDS
;	COMDAT xdata$x
xdata$x	SEGMENT
__unwindtable$??$insert@$0A@$0A@@?$_Tree@V?$_Tmap_traits@V?$basic_string@DU?$char_traits@D@std@@V?$allocator@D@2@@std@@KU?$less@V?$basic_string@DU?$char_traits@D@std@@V?$allocator@D@2@@std@@@2@V?$allocator@U?$pair@$$CBV?$basic_string@DU?$char_traits@D@std@@V?$allocator@D@2@@std@@K@std@@@2@$0A@@std@@@std@@QAE?AU?$pair@V?$_Tree_iterator@V?$_Tree_val@U?$_Tree_simple_types@U?$pair@$$CBV?$basic_string@DU?$char_traits@D@std@@V?$allocator@D@2@@std@@K@std@@@std@@@std@@@std@@_N@1@$$QAU?$pair@$$CBV?$basic_string@DU?$char_traits@D@std@@V?$allocator@D@2@@std@@K@1@@Z DD 0ffffffffH
	DD	FLAT:__unwindfunclet$??$insert@$0A@$0A@@?$_Tree@V?$_Tmap_traits@V?$basic_string@DU?$char_traits@D@std@@V?$allocator@D@2@@std@@KU?$less@V?$basic_string@DU?$char_traits@D@std@@V?$allocator@D@2@@std@@@2@V?$allocator@U?$pair@$$CBV?$basic_string@DU?$char_traits@D@std@@V?$allocator@D@2@@std@@K@std@@@2@$0A@@std@@@std@@QAE?AU?$pair@V?$_Tree_iterator@V?$_Tree_val@U?$_Tree_simple_types@U?$pair@$$CBV?$basic_string@DU?$char_traits@D@std@@V?$allocator@D@2@@std@@K@std@@@std@@@std@@@std@@_N@1@$$QAU?$pair@$$CBV?$basic_string@DU?$char_traits@D@std@@V?$allocator@D@2@@std@@K@1@@Z$2
	DD	0ffffffffH
	DD	FLAT:__unwindfunclet$??$insert@$0A@$0A@@?$_Tree@V?$_Tmap_traits@V?$basic_string@DU?$char_traits@D@std@@V?$allocator@D@2@@std@@KU?$less@V?$basic_string@DU?$char_traits@D@std@@V?$allocator@D@2@@std@@@2@V?$allocator@U?$pair@$$CBV?$basic_string@DU?$char_traits@D@std@@V?$allocator@D@2@@std@@K@std@@@2@$0A@@std@@@std@@QAE?AU?$pair@V?$_Tree_iterator@V?$_Tree_val@U?$_Tree_simple_types@U?$pair@$$CBV?$basic_string@DU?$char_traits@D@std@@V?$allocator@D@2@@std@@K@std@@@std@@@std@@@std@@_N@1@$$QAU?$pair@$$CBV?$basic_string@DU?$char_traits@D@std@@V?$allocator@D@2@@std@@K@1@@Z$1
__ehfuncinfo$??$insert@$0A@$0A@@?$_Tree@V?$_Tmap_traits@V?$basic_string@DU?$char_traits@D@std@@V?$allocator@D@2@@std@@KU?$less@V?$basic_string@DU?$char_traits@D@std@@V?$allocator@D@2@@std@@@2@V?$allocator@U?$pair@$$CBV?$basic_string@DU?$char_traits@D@std@@V?$allocator@D@2@@std@@K@std@@@2@$0A@@std@@@std@@QAE?AU?$pair@V?$_Tree_iterator@V?$_Tree_val@U?$_Tree_simple_types@U?$pair@$$CBV?$basic_string@DU?$char_traits@D@std@@V?$allocator@D@2@@std@@K@std@@@std@@@std@@@std@@_N@1@$$QAU?$pair@$$CBV?$basic_string@DU?$char_traits@D@std@@V?$allocator@D@2@@std@@K@1@@Z DD 019930522H
	DD	02H
	DD	FLAT:__unwindtable$??$insert@$0A@$0A@@?$_Tree@V?$_Tmap_traits@V?$basic_string@DU?$char_traits@D@std@@V?$allocator@D@2@@std@@KU?$less@V?$basic_string@DU?$char_traits@D@std@@V?$allocator@D@2@@std@@@2@V?$allocator@U?$pair@$$CBV?$basic_string@DU?$char_traits@D@std@@V?$allocator@D@2@@std@@K@std@@@2@$0A@@std@@@std@@QAE?AU?$pair@V?$_Tree_iterator@V?$_Tree_val@U?$_Tree_simple_types@U?$pair@$$CBV?$basic_string@DU?$char_traits@D@std@@V?$allocator@D@2@@std@@K@std@@@std@@@std@@@std@@_N@1@$$QAU?$pair@$$CBV?$basic_string@DU?$char_traits@D@std@@V?$allocator@D@2@@std@@K@1@@Z
	DD	2 DUP(00H)
	DD	2 DUP(00H)
	DD	00H
	DD	01H
xdata$x	ENDS
;	COMDAT xdata$x
xdata$x	SEGMENT
__unwindtable$??$insert@$0A@$0A@@?$_Tree@V?$_Tset_traits@HU?$less@H@std@@V?$allocator@H@2@$0A@@std@@@std@@QAE?AU?$pair@V?$_Tree_const_iterator@V?$_Tree_val@U?$_Tree_simple_types@H@std@@@std@@@std@@_N@1@ABH@Z DD 0ffffffffH
	DD	FLAT:__unwindfunclet$??$insert@$0A@$0A@@?$_Tree@V?$_Tset_traits@HU?$less@H@std@@V?$allocator@H@2@$0A@@std@@@std@@QAE?AU?$pair@V?$_Tree_const_iterator@V?$_Tree_val@U?$_Tree_simple_types@H@std@@@std@@@std@@_N@1@ABH@Z$2
__ehfuncinfo$??$insert@$0A@$0A@@?$_Tree@V?$_Tset_traits@HU?$less@H@std@@V?$allocator@H@2@$0A@@std@@@std@@QAE?AU?$pair@V?$_Tree_const_iterator@V?$_Tree_val@U?$_Tree_simple_types@H@std@@@std@@@std@@_N@1@ABH@Z DD 019930522H
	DD	01H
	DD	FLAT:__unwindtable$??$insert@$0A@$0A@@?$_Tree@V?$_Tset_traits@HU?$less@H@std@@V?$allocator@H@2@$0A@@std@@@std@@QAE?AU?$pair@V?$_Tree_const_iterator@V?$_Tree_val@U?$_Tree_simple_types@H@std@@@std@@@std@@_N@1@ABH@Z
	DD	2 DUP(00H)
	DD	2 DUP(00H)
	DD	00H
	DD	01H
xdata$x	ENDS
;	COMDAT xdata$x
xdata$x	SEGMENT
__unwindtable$?GetLangFileName@@YA?AV?$CStringT@DV?$StrTraitMFC@DV?$ChTraitsCRT@D@ATL@@@@@ATL@@HH@Z DD 0ffffffffH
	DD	FLAT:__unwindfunclet$?GetLangFileName@@YA?AV?$CStringT@DV?$StrTraitMFC@DV?$ChTraitsCRT@D@ATL@@@@@ATL@@HH@Z$0
	DD	00H
	DD	FLAT:__unwindfunclet$?GetLangFileName@@YA?AV?$CStringT@DV?$StrTraitMFC@DV?$ChTraitsCRT@D@ATL@@@@@ATL@@HH@Z$2
	DD	00H
	DD	FLAT:__unwindfunclet$?GetLangFileName@@YA?AV?$CStringT@DV?$StrTraitMFC@DV?$ChTraitsCRT@D@ATL@@@@@ATL@@HH@Z$1
__ehfuncinfo$?GetLangFileName@@YA?AV?$CStringT@DV?$StrTraitMFC@DV?$ChTraitsCRT@D@ATL@@@@@ATL@@HH@Z DD 019930522H
	DD	03H
	DD	FLAT:__unwindtable$?GetLangFileName@@YA?AV?$CStringT@DV?$StrTraitMFC@DV?$ChTraitsCRT@D@ATL@@@@@ATL@@HH@Z
	DD	2 DUP(00H)
	DD	2 DUP(00H)
	DD	00H
	DD	01H
xdata$x	ENDS
;	COMDAT xdata$x
xdata$x	SEGMENT
__unwindtable$?GetLangScript@CProject@@QAE?AV?$CStringT@DV?$StrTraitMFC@DV?$ChTraitsCRT@D@ATL@@@@@ATL@@AAVCScript@@@Z DD 0ffffffffH
	DD	FLAT:__unwindfunclet$?GetLangScript@CProject@@QAE?AV?$CStringT@DV?$StrTraitMFC@DV?$ChTraitsCRT@D@ATL@@@@@ATL@@AAVCScript@@@Z$0
__ehfuncinfo$?GetLangScript@CProject@@QAE?AV?$CStringT@DV?$StrTraitMFC@DV?$ChTraitsCRT@D@ATL@@@@@ATL@@AAVCScript@@@Z DD 019930522H
	DD	01H
	DD	FLAT:__unwindtable$?GetLangScript@CProject@@QAE?AV?$CStringT@DV?$StrTraitMFC@DV?$ChTraitsCRT@D@ATL@@@@@ATL@@AAVCScript@@@Z
	DD	2 DUP(00H)
	DD	2 DUP(00H)
	DD	00H
	DD	01H
xdata$x	ENDS
;	COMDAT xdata$x
xdata$x	SEGMENT
__ehfuncinfo$?LoadText@CProject@@QAEHPBD@Z DD 019930522H
	DD	05H
	DD	FLAT:__unwindtable$?LoadText@CProject@@QAEHPBD@Z
	DD	2 DUP(00H)
	DD	2 DUP(00H)
	DD	00H
	DD	01H
__unwindtable$?LoadText@CProject@@QAEHPBD@Z DD 0ffffffffH
	DD	FLAT:__unwindfunclet$?LoadText@CProject@@QAEHPBD@Z$0
	DD	00H
	DD	FLAT:__unwindfunclet$?LoadText@CProject@@QAEHPBD@Z$1
	DD	01H
	DD	FLAT:__unwindfunclet$?LoadText@CProject@@QAEHPBD@Z$2
	DD	02H
	DD	FLAT:__unwindfunclet$?LoadText@CProject@@QAEHPBD@Z$4
	DD	02H
	DD	FLAT:__unwindfunclet$?LoadText@CProject@@QAEHPBD@Z$3
xdata$x	ENDS
;	COMDAT xdata$x
xdata$x	SEGMENT
__unwindtable$?LoadJobItem@CProject@@QAEHPBD@Z DD 0ffffffffH
	DD	FLAT:__unwindfunclet$?LoadJobItem@CProject@@QAEHPBD@Z$0
__ehfuncinfo$?LoadJobItem@CProject@@QAEHPBD@Z DD 019930522H
	DD	01H
	DD	FLAT:__unwindtable$?LoadJobItem@CProject@@QAEHPBD@Z
	DD	2 DUP(00H)
	DD	2 DUP(00H)
	DD	00H
	DD	01H
xdata$x	ENDS
;	COMDAT xdata$x
xdata$x	SEGMENT
__unwindtable$?LoadPropItemEx@CProject@@QAEHPBDPAV?$CFixedArray@UItemProp@@@@@Z DD 0ffffffffH
	DD	FLAT:__unwindfunclet$?LoadPropItemEx@CProject@@QAEHPBDPAV?$CFixedArray@UItemProp@@@@@Z$0
	DD	00H
	DD	FLAT:__unwindfunclet$?LoadPropItemEx@CProject@@QAEHPBDPAV?$CFixedArray@UItemProp@@@@@Z$1
	DD	01H
	DD	FLAT:__unwindfunclet$?LoadPropItemEx@CProject@@QAEHPBDPAV?$CFixedArray@UItemProp@@@@@Z$5
	DD	01H
	DD	FLAT:__unwindfunclet$?LoadPropItemEx@CProject@@QAEHPBDPAV?$CFixedArray@UItemProp@@@@@Z$4
__ehfuncinfo$?LoadPropItemEx@CProject@@QAEHPBDPAV?$CFixedArray@UItemProp@@@@@Z DD 019930522H
	DD	04H
	DD	FLAT:__unwindtable$?LoadPropItemEx@CProject@@QAEHPBDPAV?$CFixedArray@UItemProp@@@@@Z
	DD	2 DUP(00H)
	DD	2 DUP(00H)
	DD	00H
	DD	01H
xdata$x	ENDS
;	COMDAT xdata$x
xdata$x	SEGMENT
__unwindtable$?LoadPropItem@CProject@@QAEHPBDPAV?$CFixedArray@UItemProp@@@@@Z DD 0ffffffffH
	DD	FLAT:__unwindfunclet$?LoadPropItem@CProject@@QAEHPBDPAV?$CFixedArray@UItemProp@@@@@Z$0
	DD	00H
	DD	FLAT:__unwindfunclet$?LoadPropItem@CProject@@QAEHPBDPAV?$CFixedArray@UItemProp@@@@@Z$1
	DD	01H
	DD	FLAT:__unwindfunclet$?LoadPropItem@CProject@@QAEHPBDPAV?$CFixedArray@UItemProp@@@@@Z$5
	DD	01H
	DD	FLAT:__unwindfunclet$?LoadPropItem@CProject@@QAEHPBDPAV?$CFixedArray@UItemProp@@@@@Z$4
__ehfuncinfo$?LoadPropItem@CProject@@QAEHPBDPAV?$CFixedArray@UItemProp@@@@@Z DD 019930522H
	DD	04H
	DD	FLAT:__unwindtable$?LoadPropItem@CProject@@QAEHPBDPAV?$CFixedArray@UItemProp@@@@@Z
	DD	2 DUP(00H)
	DD	2 DUP(00H)
	DD	00H
	DD	01H
xdata$x	ENDS
;	COMDAT xdata$x
xdata$x	SEGMENT
__unwindtable$?LoadPropMover@CProject@@QAEHPBD@Z DD 0ffffffffH
	DD	FLAT:__unwindfunclet$?LoadPropMover@CProject@@QAEHPBD@Z$0
	DD	00H
	DD	FLAT:__unwindfunclet$?LoadPropMover@CProject@@QAEHPBD@Z$1
	DD	01H
	DD	FLAT:__unwindfunclet$?LoadPropMover@CProject@@QAEHPBD@Z$6
__ehfuncinfo$?LoadPropMover@CProject@@QAEHPBD@Z DD 019930522H
	DD	03H
	DD	FLAT:__unwindtable$?LoadPropMover@CProject@@QAEHPBD@Z
	DD	2 DUP(00H)
	DD	2 DUP(00H)
	DD	00H
	DD	01H
xdata$x	ENDS
;	COMDAT xdata$x
xdata$x	SEGMENT
__unwindtable$?LoadStrings@CProject@@QAEXXZ DD 0ffffffffH
	DD	FLAT:__unwindfunclet$?LoadStrings@CProject@@QAEXXZ$0
__ehfuncinfo$?LoadStrings@CProject@@QAEXXZ DD 019930522H
	DD	01H
	DD	FLAT:__unwindtable$?LoadStrings@CProject@@QAEXXZ
	DD	2 DUP(00H)
	DD	2 DUP(00H)
	DD	00H
	DD	01H
xdata$x	ENDS
;	COMDAT xdata$x
xdata$x	SEGMENT
__unwindtable$?LoadDefines@CProject@@QAEXXZ DD 0ffffffffH
	DD	FLAT:__unwindfunclet$?LoadDefines@CProject@@QAEXXZ$0
__ehfuncinfo$?LoadDefines@CProject@@QAEXXZ DD 019930522H
	DD	01H
	DD	FLAT:__unwindtable$?LoadDefines@CProject@@QAEXXZ
	DD	2 DUP(00H)
	DD	2 DUP(00H)
	DD	00H
	DD	01H
xdata$x	ENDS
;	COMDAT xdata$x
xdata$x	SEGMENT
__ehfuncinfo$?LoadAllowedLetter@CProject@@QAEHH@Z DD 019930522H
	DD	05H
	DD	FLAT:__unwindtable$?LoadAllowedLetter@CProject@@QAEHH@Z
	DD	2 DUP(00H)
	DD	2 DUP(00H)
	DD	00H
	DD	01H
__unwindtable$?LoadAllowedLetter@CProject@@QAEHH@Z DD 0ffffffffH
	DD	FLAT:__unwindfunclet$?LoadAllowedLetter@CProject@@QAEHH@Z$0
	DD	00H
	DD	FLAT:__unwindfunclet$?LoadAllowedLetter@CProject@@QAEHH@Z$1
	DD	01H
	DD	FLAT:__unwindfunclet$?LoadAllowedLetter@CProject@@QAEHH@Z$2
	DD	01H
	DD	FLAT:__unwindfunclet$?LoadAllowedLetter@CProject@@QAEHH@Z$3
	DD	01H
	DD	FLAT:__unwindfunclet$?LoadAllowedLetter@CProject@@QAEHH@Z$6
xdata$x	ENDS
;	COMDAT xdata$x
xdata$x	SEGMENT
__unwindtable$?IsInvalidName@CProject@@QAEHPBD@Z DD 0ffffffffH
	DD	FLAT:__unwindfunclet$?IsInvalidName@CProject@@QAEHPBD@Z$2
	DD	0ffffffffH
	DD	FLAT:__unwindfunclet$?IsInvalidName@CProject@@QAEHPBD@Z$0
__ehfuncinfo$?IsInvalidName@CProject@@QAEHPBD@Z DD 019930522H
	DD	02H
	DD	FLAT:__unwindtable$?IsInvalidName@CProject@@QAEHPBD@Z
	DD	2 DUP(00H)
	DD	2 DUP(00H)
	DD	00H
	DD	01H
xdata$x	ENDS
;	COMDAT xdata$x
xdata$x	SEGMENT
__ehfuncinfo$?LoadInvalidName@CProject@@QAEHXZ DD 019930522H
	DD	05H
	DD	FLAT:__unwindtable$?LoadInvalidName@CProject@@QAEHXZ
	DD	2 DUP(00H)
	DD	2 DUP(00H)
	DD	00H
	DD	01H
__unwindtable$?LoadInvalidName@CProject@@QAEHXZ DD 0ffffffffH
	DD	FLAT:__unwindfunclet$?LoadInvalidName@CProject@@QAEHXZ$0
	DD	00H
	DD	FLAT:__unwindfunclet$?LoadInvalidName@CProject@@QAEHXZ$1
	DD	01H
	DD	FLAT:__unwindfunclet$?LoadInvalidName@CProject@@QAEHXZ$2
	DD	01H
	DD	FLAT:__unwindfunclet$?LoadInvalidName@CProject@@QAEHXZ$3
	DD	03H
	DD	FLAT:__unwindfunclet$?LoadInvalidName@CProject@@QAEHXZ$8
xdata$x	ENDS
;	COMDAT xdata$x
xdata$x	SEGMENT
__unwindtable$??HATL@@YA?AV?$CStringT@DV?$StrTraitMFC@DV?$ChTraitsCRT@D@ATL@@@@@0@ABV10@PBD@Z DD 0ffffffffH
	DD	FLAT:__unwindfunclet$??HATL@@YA?AV?$CStringT@DV?$StrTraitMFC@DV?$ChTraitsCRT@D@ATL@@@@@0@ABV10@PBD@Z$0
__ehfuncinfo$??HATL@@YA?AV?$CStringT@DV?$StrTraitMFC@DV?$ChTraitsCRT@D@ATL@@@@@0@ABV10@PBD@Z DD 019930522H
	DD	01H
	DD	FLAT:__unwindtable$??HATL@@YA?AV?$CStringT@DV?$StrTraitMFC@DV?$ChTraitsCRT@D@ATL@@@@@0@ABV10@PBD@Z
	DD	2 DUP(00H)
	DD	2 DUP(00H)
	DD	00H
	DD	01H
xdata$x	ENDS
;	COMDAT xdata$x
xdata$x	SEGMENT
__unwindtable$??0?$CStringT@DV?$StrTraitMFC@DV?$ChTraitsCRT@D@ATL@@@@@ATL@@QAE@PBD@Z DD 0ffffffffH
	DD	FLAT:__unwindfunclet$??0?$CStringT@DV?$StrTraitMFC@DV?$ChTraitsCRT@D@ATL@@@@@ATL@@QAE@PBD@Z$0
__ehfuncinfo$??0?$CStringT@DV?$StrTraitMFC@DV?$ChTraitsCRT@D@ATL@@@@@ATL@@QAE@PBD@Z DD 019930522H
	DD	01H
	DD	FLAT:__unwindtable$??0?$CStringT@DV?$StrTraitMFC@DV?$ChTraitsCRT@D@ATL@@@@@ATL@@QAE@PBD@Z
	DD	2 DUP(00H)
	DD	2 DUP(00H)
	DD	00H
	DD	01H
xdata$x	ENDS
; Function compile flags: /Ogtp
; File C:\Program Files\Microsoft Visual Studio\2022\Professional\VC\Tools\MSVC\14.44.35207\include\xtree
; File C:\Program Files\Microsoft Visual Studio\2022\Professional\VC\Tools\MSVC\14.44.35207\include\utility
; File C:\Program Files\Microsoft Visual Studio\2022\Professional\VC\Tools\MSVC\14.44.35207\include\xmemory
; File C:\Program Files\Microsoft Visual Studio\2022\Professional\VC\Tools\MSVC\14.44.35207\include\xtree
;	COMDAT ??$_Erase_tree@V?$allocator@U?$_Tree_node@HPAX@std@@@std@@@?$_Tree_val@U?$_Tree_simple_types@H@std@@@std@@QAEXAAV?$allocator@U?$_Tree_node@HPAX@std@@@1@PAU?$_Tree_node@HPAX@1@@Z
_TEXT	SEGMENT
__Al$ = 8						; size = 4
__Rootnode$ = 12					; size = 4
??$_Erase_tree@V?$allocator@U?$_Tree_node@HPAX@std@@@std@@@?$_Tree_val@U?$_Tree_simple_types@H@std@@@std@@QAEXAAV?$allocator@U?$_Tree_node@HPAX@std@@@1@PAU?$_Tree_node@HPAX@1@@Z PROC ; std::_Tree_val<std::_Tree_simple_types<int> >::_Erase_tree<std::allocator<std::_Tree_node<int,void *> > >, COMDAT
; _this$ = ecx

; 767  :     void _Erase_tree(_Alnode& _Al, _Nodeptr _Rootnode) noexcept {

  00000	55		 push	 ebp
  00001	8b ec		 mov	 ebp, esp
  00003	53		 push	 ebx
  00004	56		 push	 esi

; 768  :         while (!_Rootnode->_Isnil) { // free subtrees, then node

  00005	8b 75 0c	 mov	 esi, DWORD PTR __Rootnode$[ebp]
  00008	8b d9		 mov	 ebx, ecx
  0000a	80 7e 0d 00	 cmp	 BYTE PTR [esi+13], 0
  0000e	75 25		 jne	 SHORT $LN34@Erase_tree
  00010	57		 push	 edi
  00011	8b 7d 08	 mov	 edi, DWORD PTR __Al$[ebp]
$LL2@Erase_tree:

; 769  :             _Erase_tree(_Al, _Rootnode->_Right);

  00014	ff 76 08	 push	 DWORD PTR [esi+8]
  00017	8b cb		 mov	 ecx, ebx
  00019	57		 push	 edi
  0001a	e8 00 00 00 00	 call	 ??$_Erase_tree@V?$allocator@U?$_Tree_node@HPAX@std@@@std@@@?$_Tree_val@U?$_Tree_simple_types@H@std@@@std@@QAEXAAV?$allocator@U?$_Tree_node@HPAX@std@@@1@PAU?$_Tree_node@HPAX@1@@Z ; std::_Tree_val<std::_Tree_simple_types<int> >::_Erase_tree<std::allocator<std::_Tree_node<int,void *> > >
; File C:\Program Files\Microsoft Visual Studio\2022\Professional\VC\Tools\MSVC\14.44.35207\include\utility

; 773  :     _Ty _Old_val = static_cast<_Ty&&>(_Val);

  0001f	8b c6		 mov	 eax, esi

; 774  :     _Val         = static_cast<_Other&&>(_New_val);

  00021	8b 36		 mov	 esi, DWORD PTR [esi]
; File C:\Program Files\Microsoft Visual Studio\2022\Professional\VC\Tools\MSVC\14.44.35207\include\xmemory

; 289  :         ::operator delete(_Ptr, _Bytes);

  00023	6a 14		 push	 20			; 00000014H
  00025	50		 push	 eax
  00026	e8 00 00 00 00	 call	 ??3@YAXPAXI@Z		; operator delete
  0002b	83 c4 08	 add	 esp, 8
; File C:\Program Files\Microsoft Visual Studio\2022\Professional\VC\Tools\MSVC\14.44.35207\include\xtree

; 768  :         while (!_Rootnode->_Isnil) { // free subtrees, then node

  0002e	80 7e 0d 00	 cmp	 BYTE PTR [esi+13], 0
  00032	74 e0		 je	 SHORT $LL2@Erase_tree
  00034	5f		 pop	 edi
$LN34@Erase_tree:
  00035	5e		 pop	 esi

; 770  :             _Alnode::value_type::_Freenode(_Al, _STD exchange(_Rootnode, _Rootnode->_Left));
; 771  :         }
; 772  :     }

  00036	5b		 pop	 ebx
  00037	5d		 pop	 ebp
  00038	c2 08 00	 ret	 8
??$_Erase_tree@V?$allocator@U?$_Tree_node@HPAX@std@@@std@@@?$_Tree_val@U?$_Tree_simple_types@H@std@@@std@@QAEXAAV?$allocator@U?$_Tree_node@HPAX@std@@@1@PAU?$_Tree_node@HPAX@1@@Z ENDP ; std::_Tree_val<std::_Tree_simple_types<int> >::_Erase_tree<std::allocator<std::_Tree_node<int,void *> > >
_TEXT	ENDS
; Function compile flags: /Ogtp
; File C:\Program Files\Microsoft Visual Studio\2022\Professional\VC\Tools\MSVC\14.44.35207\include\xmemory
;	COMDAT ??1?$_Alloc_construct_ptr@V?$allocator@U?$_Tree_node@DPAX@std@@@std@@@std@@QAE@XZ
_TEXT	SEGMENT
??1?$_Alloc_construct_ptr@V?$allocator@U?$_Tree_node@DPAX@std@@@std@@@std@@QAE@XZ PROC ; std::_Alloc_construct_ptr<std::allocator<std::_Tree_node<char,void *> > >::~_Alloc_construct_ptr<std::allocator<std::_Tree_node<char,void *> > >, COMDAT
; _this$ = ecx

; 1172 :         if (_Ptr) {

  00000	8b 41 04	 mov	 eax, DWORD PTR [ecx+4]
  00003	85 c0		 test	 eax, eax
  00005	74 0b		 je	 SHORT $LN10@Alloc_cons

; 289  :         ::operator delete(_Ptr, _Bytes);

  00007	6a 10		 push	 16			; 00000010H
  00009	50		 push	 eax
  0000a	e8 00 00 00 00	 call	 ??3@YAXPAXI@Z		; operator delete
  0000f	83 c4 08	 add	 esp, 8
$LN10@Alloc_cons:

; 1173 :             _Al.deallocate(_Ptr, 1);
; 1174 :         }
; 1175 :     }

  00012	c3		 ret	 0
??1?$_Alloc_construct_ptr@V?$allocator@U?$_Tree_node@DPAX@std@@@std@@@std@@QAE@XZ ENDP ; std::_Alloc_construct_ptr<std::allocator<std::_Tree_node<char,void *> > >::~_Alloc_construct_ptr<std::allocator<std::_Tree_node<char,void *> > >
_TEXT	ENDS
; Function compile flags: /Ogtp
; File C:\Program Files\Microsoft Visual Studio\2022\Professional\VC\Tools\MSVC\14.44.35207\include\xtree
; File C:\Program Files\Microsoft Visual Studio\2022\Professional\VC\Tools\MSVC\14.44.35207\include\type_traits
; File C:\Program Files\Microsoft Visual Studio\2022\Professional\VC\Tools\MSVC\14.44.35207\include\xtree
; File C:\Program Files\Microsoft Visual Studio\2022\Professional\VC\Tools\MSVC\14.44.35207\include\type_traits
; File C:\Program Files\Microsoft Visual Studio\2022\Professional\VC\Tools\MSVC\14.44.35207\include\xtree
;	COMDAT ??$_Find_lower_bound@D@?$_Tree@V?$_Tset_traits@DU?$less@D@std@@V?$allocator@D@2@$0A@@std@@@std@@IBE?AU?$_Tree_find_result@PAU?$_Tree_node@DPAX@std@@@1@ABD@Z
_TEXT	SEGMENT
___$ReturnUdt$ = 8					; size = 4
__Keyval$ = 12						; size = 4
??$_Find_lower_bound@D@?$_Tree@V?$_Tset_traits@DU?$less@D@std@@V?$allocator@D@2@$0A@@std@@@std@@IBE?AU?$_Tree_find_result@PAU?$_Tree_node@DPAX@std@@@1@ABD@Z PROC ; std::_Tree<std::_Tset_traits<char,std::less<char>,std::allocator<char>,0> >::_Find_lower_bound<char>, COMDAT
; _this$ = ecx

; 1628 :     _Tree_find_result<_Nodeptr> _Find_lower_bound(const _Keyty& _Keyval) const {

  00000	55		 push	 ebp
  00001	8b ec		 mov	 ebp, esp

; 1629 :         const auto _Scary = _Get_scary();
; 1630 :         _Tree_find_result<_Nodeptr> _Result{{_Scary->_Myhead->_Parent, _Tree_child::_Right}, _Scary->_Myhead};

  00003	8b 09		 mov	 ecx, DWORD PTR [ecx]
  00005	8b 55 08	 mov	 edx, DWORD PTR ___$ReturnUdt$[ebp]
  00008	8b 41 04	 mov	 eax, DWORD PTR [ecx+4]
  0000b	89 02		 mov	 DWORD PTR [edx], eax
  0000d	c7 42 04 00 00
	00 00		 mov	 DWORD PTR [edx+4], 0
  00014	89 4a 08	 mov	 DWORD PTR [edx+8], ecx

; 1631 :         _Nodeptr _Trynode = _Result._Location._Parent;
; 1632 :         while (!_Trynode->_Isnil) {

  00017	80 78 0d 00	 cmp	 BYTE PTR [eax+13], 0
  0001b	75 28		 jne	 SHORT $LN13@Find_lower
; File C:\Program Files\Microsoft Visual Studio\2022\Professional\VC\Tools\MSVC\14.44.35207\include\type_traits

; 2380 :         return _Left < _Right;

  0001d	8b 4d 0c	 mov	 ecx, DWORD PTR __Keyval$[ebp]
  00020	53		 push	 ebx
  00021	8a 19		 mov	 bl, BYTE PTR [ecx]
$LL2@Find_lower:
; File C:\Program Files\Microsoft Visual Studio\2022\Professional\VC\Tools\MSVC\14.44.35207\include\xtree

; 1633 :             _Result._Location._Parent = _Trynode;

  00023	89 02		 mov	 DWORD PTR [edx], eax
; File C:\Program Files\Microsoft Visual Studio\2022\Professional\VC\Tools\MSVC\14.44.35207\include\type_traits

; 2380 :         return _Left < _Right;

  00025	38 58 0e	 cmp	 BYTE PTR [eax+14], bl
; File C:\Program Files\Microsoft Visual Studio\2022\Professional\VC\Tools\MSVC\14.44.35207\include\xtree

; 1634 :             if (_DEBUG_LT_PRED(_Getcomp(), _Traits::_Kfn(_Trynode->_Myval), _Keyval)) {

  00028	7d 07		 jge	 SHORT $LN4@Find_lower

; 1635 :                 _Result._Location._Child = _Tree_child::_Right;
; 1636 :                 _Trynode                 = _Trynode->_Right;

  0002a	8b 40 08	 mov	 eax, DWORD PTR [eax+8]
  0002d	33 c9		 xor	 ecx, ecx

; 1637 :             } else {

  0002f	eb 0a		 jmp	 SHORT $LN5@Find_lower
$LN4@Find_lower:

; 1638 :                 _Result._Location._Child = _Tree_child::_Left;
; 1639 :                 _Result._Bound           = _Trynode;

  00031	89 42 08	 mov	 DWORD PTR [edx+8], eax

; 1640 :                 _Trynode                 = _Trynode->_Left;

  00034	b9 01 00 00 00	 mov	 ecx, 1
  00039	8b 00		 mov	 eax, DWORD PTR [eax]
$LN5@Find_lower:

; 1631 :         _Nodeptr _Trynode = _Result._Location._Parent;
; 1632 :         while (!_Trynode->_Isnil) {

  0003b	89 4a 04	 mov	 DWORD PTR [edx+4], ecx
  0003e	80 78 0d 00	 cmp	 BYTE PTR [eax+13], 0
  00042	74 df		 je	 SHORT $LL2@Find_lower
  00044	5b		 pop	 ebx
$LN13@Find_lower:

; 1641 :             }
; 1642 :         }
; 1643 : 
; 1644 :         return _Result;
; 1645 :     }

  00045	8b c2		 mov	 eax, edx
  00047	5d		 pop	 ebp
  00048	c2 08 00	 ret	 8
??$_Find_lower_bound@D@?$_Tree@V?$_Tset_traits@DU?$less@D@std@@V?$allocator@D@2@$0A@@std@@@std@@IBE?AU?$_Tree_find_result@PAU?$_Tree_node@DPAX@std@@@1@ABD@Z ENDP ; std::_Tree<std::_Tset_traits<char,std::less<char>,std::allocator<char>,0> >::_Find_lower_bound<char>
_TEXT	ENDS
; Function compile flags: /Ogtp
; File C:\Program Files\Microsoft Visual Studio\2022\Professional\VC\Tools\MSVC\14.44.35207\include\xmemory
;	COMDAT ??1?$_Alloc_construct_ptr@V?$allocator@U?$_Tree_node@V?$basic_string@DU?$char_traits@D@std@@V?$allocator@D@2@@std@@PAX@std@@@std@@@std@@QAE@XZ
_TEXT	SEGMENT
??1?$_Alloc_construct_ptr@V?$allocator@U?$_Tree_node@V?$basic_string@DU?$char_traits@D@std@@V?$allocator@D@2@@std@@PAX@std@@@std@@@std@@QAE@XZ PROC ; std::_Alloc_construct_ptr<std::allocator<std::_Tree_node<std::basic_string<char,std::char_traits<char>,std::allocator<char> >,void *> > >::~_Alloc_construct_ptr<std::allocator<std::_Tree_node<std::basic_string<char,std::char_traits<char>,std::allocator<char> >,void *> > >, COMDAT
; _this$ = ecx

; 1172 :         if (_Ptr) {

  00000	8b 41 04	 mov	 eax, DWORD PTR [ecx+4]
  00003	85 c0		 test	 eax, eax
  00005	74 0b		 je	 SHORT $LN10@Alloc_cons

; 289  :         ::operator delete(_Ptr, _Bytes);

  00007	6a 28		 push	 40			; 00000028H
  00009	50		 push	 eax
  0000a	e8 00 00 00 00	 call	 ??3@YAXPAXI@Z		; operator delete
  0000f	83 c4 08	 add	 esp, 8
$LN10@Alloc_cons:

; 1173 :             _Al.deallocate(_Ptr, 1);
; 1174 :         }
; 1175 :     }

  00012	c3		 ret	 0
??1?$_Alloc_construct_ptr@V?$allocator@U?$_Tree_node@V?$basic_string@DU?$char_traits@D@std@@V?$allocator@D@2@@std@@PAX@std@@@std@@@std@@QAE@XZ ENDP ; std::_Alloc_construct_ptr<std::allocator<std::_Tree_node<std::basic_string<char,std::char_traits<char>,std::allocator<char> >,void *> > >::~_Alloc_construct_ptr<std::allocator<std::_Tree_node<std::basic_string<char,std::char_traits<char>,std::allocator<char> >,void *> > >
_TEXT	ENDS
; Function compile flags: /Ogtp
; File C:\Program Files\Microsoft Visual Studio\2022\Professional\VC\Tools\MSVC\14.44.35207\include\xmemory
;	COMDAT ??1?$_Tree_temp_node_alloc@V?$allocator@U?$_Tree_node@U?$pair@$$CBV?$basic_string@DU?$char_traits@D@std@@V?$allocator@D@2@@std@@K@std@@PAX@std@@@std@@@std@@QAE@XZ
_TEXT	SEGMENT
??1?$_Tree_temp_node_alloc@V?$allocator@U?$_Tree_node@U?$pair@$$CBV?$basic_string@DU?$char_traits@D@std@@V?$allocator@D@2@@std@@K@std@@PAX@std@@@std@@@std@@QAE@XZ PROC ; std::_Tree_temp_node_alloc<std::allocator<std::_Tree_node<std::pair<std::basic_string<char,std::char_traits<char>,std::allocator<char> > const ,unsigned long>,void *> > >::~_Tree_temp_node_alloc<std::allocator<std::_Tree_node<std::pair<std::basic_string<char,std::char_traits<char>,std::allocator<char> > const ,unsigned long>,void *> > >, COMDAT
; _this$ = ecx

; 1172 :         if (_Ptr) {

  00000	8b 41 04	 mov	 eax, DWORD PTR [ecx+4]
  00003	85 c0		 test	 eax, eax
  00005	74 0b		 je	 SHORT $LN13@Tree_temp_

; 289  :         ::operator delete(_Ptr, _Bytes);

  00007	6a 2c		 push	 44			; 0000002cH
  00009	50		 push	 eax
  0000a	e8 00 00 00 00	 call	 ??3@YAXPAXI@Z		; operator delete
  0000f	83 c4 08	 add	 esp, 8
$LN13@Tree_temp_:
  00012	c3		 ret	 0
??1?$_Tree_temp_node_alloc@V?$allocator@U?$_Tree_node@U?$pair@$$CBV?$basic_string@DU?$char_traits@D@std@@V?$allocator@D@2@@std@@K@std@@PAX@std@@@std@@@std@@QAE@XZ ENDP ; std::_Tree_temp_node_alloc<std::allocator<std::_Tree_node<std::pair<std::basic_string<char,std::char_traits<char>,std::allocator<char> > const ,unsigned long>,void *> > >::~_Tree_temp_node_alloc<std::allocator<std::_Tree_node<std::pair<std::basic_string<char,std::char_traits<char>,std::allocator<char> > const ,unsigned long>,void *> > >
_TEXT	ENDS
; Function compile flags: /Ogtp
; File C:\Program Files\Microsoft Visual Studio\2022\Professional\VC\Tools\MSVC\14.44.35207\include\xmemory
;	COMDAT ??1?$_Alloc_construct_ptr@V?$allocator@U?$_Tree_node@U?$pair@$$CBV?$basic_string@DU?$char_traits@D@std@@V?$allocator@D@2@@std@@K@std@@PAX@std@@@std@@@std@@QAE@XZ
_TEXT	SEGMENT
??1?$_Alloc_construct_ptr@V?$allocator@U?$_Tree_node@U?$pair@$$CBV?$basic_string@DU?$char_traits@D@std@@V?$allocator@D@2@@std@@K@std@@PAX@std@@@std@@@std@@QAE@XZ PROC ; std::_Alloc_construct_ptr<std::allocator<std::_Tree_node<std::pair<std::basic_string<char,std::char_traits<char>,std::allocator<char> > const ,unsigned long>,void *> > >::~_Alloc_construct_ptr<std::allocator<std::_Tree_node<std::pair<std::basic_string<char,std::char_traits<char>,std::allocator<char> > const ,unsigned long>,void *> > >, COMDAT
; _this$ = ecx

; 1172 :         if (_Ptr) {

  00000	8b 41 04	 mov	 eax, DWORD PTR [ecx+4]
  00003	85 c0		 test	 eax, eax
  00005	74 0b		 je	 SHORT $LN10@Alloc_cons

; 289  :         ::operator delete(_Ptr, _Bytes);

  00007	6a 2c		 push	 44			; 0000002cH
  00009	50		 push	 eax
  0000a	e8 00 00 00 00	 call	 ??3@YAXPAXI@Z		; operator delete
  0000f	83 c4 08	 add	 esp, 8
$LN10@Alloc_cons:

; 1173 :             _Al.deallocate(_Ptr, 1);
; 1174 :         }
; 1175 :     }

  00012	c3		 ret	 0
??1?$_Alloc_construct_ptr@V?$allocator@U?$_Tree_node@U?$pair@$$CBV?$basic_string@DU?$char_traits@D@std@@V?$allocator@D@2@@std@@K@std@@PAX@std@@@std@@@std@@QAE@XZ ENDP ; std::_Alloc_construct_ptr<std::allocator<std::_Tree_node<std::pair<std::basic_string<char,std::char_traits<char>,std::allocator<char> > const ,unsigned long>,void *> > >::~_Alloc_construct_ptr<std::allocator<std::_Tree_node<std::pair<std::basic_string<char,std::char_traits<char>,std::allocator<char> > const ,unsigned long>,void *> > >
_TEXT	ENDS
; Function compile flags: /Ogtp
; File C:\Program Files\Microsoft Visual Studio\2022\Professional\VC\Tools\MSVC\14.44.35207\include\xmemory
;	COMDAT ??1?$_Alloc_construct_ptr@V?$allocator@U?$_Tree_node@HPAX@std@@@std@@@std@@QAE@XZ
_TEXT	SEGMENT
??1?$_Alloc_construct_ptr@V?$allocator@U?$_Tree_node@HPAX@std@@@std@@@std@@QAE@XZ PROC ; std::_Alloc_construct_ptr<std::allocator<std::_Tree_node<int,void *> > >::~_Alloc_construct_ptr<std::allocator<std::_Tree_node<int,void *> > >, COMDAT
; _this$ = ecx

; 1172 :         if (_Ptr) {

  00000	8b 41 04	 mov	 eax, DWORD PTR [ecx+4]
  00003	85 c0		 test	 eax, eax
  00005	74 0b		 je	 SHORT $LN10@Alloc_cons

; 289  :         ::operator delete(_Ptr, _Bytes);

  00007	6a 14		 push	 20			; 00000014H
  00009	50		 push	 eax
  0000a	e8 00 00 00 00	 call	 ??3@YAXPAXI@Z		; operator delete
  0000f	83 c4 08	 add	 esp, 8
$LN10@Alloc_cons:

; 1173 :             _Al.deallocate(_Ptr, 1);
; 1174 :         }
; 1175 :     }

  00012	c3		 ret	 0
??1?$_Alloc_construct_ptr@V?$allocator@U?$_Tree_node@HPAX@std@@@std@@@std@@QAE@XZ ENDP ; std::_Alloc_construct_ptr<std::allocator<std::_Tree_node<int,void *> > >::~_Alloc_construct_ptr<std::allocator<std::_Tree_node<int,void *> > >
_TEXT	ENDS
; Function compile flags: /Ogtp
;	COMDAT ??1?$set@HU?$less@H@std@@V?$allocator@H@2@@std@@QAE@XZ
_TEXT	SEGMENT
??1?$set@HU?$less@H@std@@V?$allocator@H@2@@std@@QAE@XZ PROC ; std::set<int,std::less<int>,std::allocator<int> >::~set<int,std::less<int>,std::allocator<int> >, COMDAT
; _this$ = ecx
  00000	e9 00 00 00 00	 jmp	 ??1?$_Tree@V?$_Tset_traits@HU?$less@H@std@@V?$allocator@H@2@$0A@@std@@@std@@QAE@XZ ; std::_Tree<std::_Tset_traits<int,std::less<int>,std::allocator<int>,0> >::~_Tree<std::_Tset_traits<int,std::less<int>,std::allocator<int>,0> >
??1?$set@HU?$less@H@std@@V?$allocator@H@2@@std@@QAE@XZ ENDP ; std::set<int,std::less<int>,std::allocator<int> >::~set<int,std::less<int>,std::allocator<int> >
_TEXT	ENDS
; Function compile flags: /Ogtp
; File C:\Program Files\Microsoft Visual Studio\2022\Professional\VC\Tools\MSVC\14.44.35207\include\xtree
;	COMDAT ?_Insert_node@?$_Tree_val@U?$_Tree_simple_types@H@std@@@std@@QAEPAU?$_Tree_node@HPAX@2@U?$_Tree_id@PAU?$_Tree_node@HPAX@std@@@2@QAU32@@Z
_TEXT	SEGMENT
__Head$1$ = -4						; size = 4
__Loc$ = 8						; size = 8
__Newnode$ = 16						; size = 4
?_Insert_node@?$_Tree_val@U?$_Tree_simple_types@H@std@@@std@@QAEPAU?$_Tree_node@HPAX@2@U?$_Tree_id@PAU?$_Tree_node@HPAX@std@@@2@QAU32@@Z PROC ; std::_Tree_val<std::_Tree_simple_types<int> >::_Insert_node, COMDAT
; _this$ = ecx

; 669  :     _Nodeptr _Insert_node(const _Tree_id<_Nodeptr> _Loc, const _Nodeptr _Newnode) noexcept {

  00000	55		 push	 ebp
  00001	8b ec		 mov	 ebp, esp
  00003	51		 push	 ecx

; 670  :         ++_Mysize;
; 671  :         const auto _Head  = _Myhead;
; 672  :         _Newnode->_Parent = _Loc._Parent;

  00004	8b 55 08	 mov	 edx, DWORD PTR __Loc$[ebp]
  00007	53		 push	 ebx
  00008	8b d9		 mov	 ebx, ecx
  0000a	57		 push	 edi
  0000b	8b 7d 10	 mov	 edi, DWORD PTR __Newnode$[ebp]
  0000e	8b 03		 mov	 eax, DWORD PTR [ebx]
  00010	ff 43 04	 inc	 DWORD PTR [ebx+4]
  00013	89 45 fc	 mov	 DWORD PTR __Head$1$[ebp], eax
  00016	89 57 04	 mov	 DWORD PTR [edi+4], edx

; 673  :         if (_Loc._Parent == _Head) { // first node in tree, just set head values

  00019	3b d0		 cmp	 edx, eax
  0001b	75 16		 jne	 SHORT $LN5@Insert_nod

; 674  :             _Head->_Left     = _Newnode;

  0001d	89 38		 mov	 DWORD PTR [eax], edi

; 675  :             _Head->_Parent   = _Newnode;

  0001f	89 78 04	 mov	 DWORD PTR [eax+4], edi

; 676  :             _Head->_Right    = _Newnode;

  00022	89 78 08	 mov	 DWORD PTR [eax+8], edi

; 735  :         return _Newnode;
; 736  :     }

  00025	8b c7		 mov	 eax, edi
  00027	c6 47 0c 01	 mov	 BYTE PTR [edi+12], 1
  0002b	5f		 pop	 edi
  0002c	5b		 pop	 ebx
  0002d	8b e5		 mov	 esp, ebp
  0002f	5d		 pop	 ebp
  00030	c2 0c 00	 ret	 12			; 0000000cH
$LN5@Insert_nod:

; 677  :             _Newnode->_Color = _Black; // the root is black
; 678  :             return _Newnode;
; 679  :         }
; 680  : 
; 681  :         _STL_INTERNAL_CHECK(_Loc._Child != _Tree_child::_Unused);
; 682  :         if (_Loc._Child == _Tree_child::_Right) { // add to right of _Loc._Parent

  00033	83 7d 0c 00	 cmp	 DWORD PTR __Loc$[ebp+4], 0
  00037	75 0d		 jne	 SHORT $LN6@Insert_nod

; 683  :             _STL_INTERNAL_CHECK(_Loc._Parent->_Right->_Isnil);
; 684  :             _Loc._Parent->_Right = _Newnode;

  00039	89 7a 08	 mov	 DWORD PTR [edx+8], edi

; 685  :             if (_Loc._Parent == _Head->_Right) { // remember rightmost node

  0003c	3b 50 08	 cmp	 edx, DWORD PTR [eax+8]
  0003f	75 0d		 jne	 SHORT $LN9@Insert_nod

; 686  :                 _Head->_Right = _Newnode;

  00041	89 78 08	 mov	 DWORD PTR [eax+8], edi

; 687  :             }
; 688  :         } else { // add to left of _Loc._Parent

  00044	eb 08		 jmp	 SHORT $LN9@Insert_nod
$LN6@Insert_nod:

; 689  :             _STL_INTERNAL_CHECK(_Loc._Parent->_Left->_Isnil);
; 690  :             _Loc._Parent->_Left = _Newnode;

  00046	89 3a		 mov	 DWORD PTR [edx], edi

; 691  :             if (_Loc._Parent == _Head->_Left) { // remember leftmost node

  00048	3b 10		 cmp	 edx, DWORD PTR [eax]
  0004a	75 02		 jne	 SHORT $LN9@Insert_nod

; 692  :                 _Head->_Left = _Newnode;

  0004c	89 38		 mov	 DWORD PTR [eax], edi
$LN9@Insert_nod:

; 693  :             }
; 694  :         }
; 695  : 
; 696  :         for (_Nodeptr _Pnode = _Newnode; _Pnode->_Parent->_Color == _Red;) {

  0004e	8b 4f 04	 mov	 ecx, DWORD PTR [edi+4]
  00051	8b c7		 mov	 eax, edi
  00053	80 79 0c 00	 cmp	 BYTE PTR [ecx+12], 0
  00057	0f 85 7d 01 00
	00		 jne	 $LN3@Insert_nod
  0005d	56		 push	 esi
  0005e	66 90		 npad	 2
$LL4@Insert_nod:

; 697  :             if (_Pnode->_Parent == _Pnode->_Parent->_Parent->_Left) { // fixup red-red in left subtree

  00060	8b 50 04	 mov	 edx, DWORD PTR [eax+4]
  00063	8b 72 04	 mov	 esi, DWORD PTR [edx+4]
  00066	8b 0e		 mov	 ecx, DWORD PTR [esi]
  00068	3b d1		 cmp	 edx, ecx
  0006a	0f 85 aa 00 00
	00		 jne	 $LN10@Insert_nod

; 698  :                 const auto _Parent_sibling = _Pnode->_Parent->_Parent->_Right;

  00070	8b 4e 08	 mov	 ecx, DWORD PTR [esi+8]

; 699  :                 if (_Parent_sibling->_Color == _Red) { // parent's sibling has two red children, blacken both

  00073	80 79 0c 00	 cmp	 BYTE PTR [ecx+12], 0
  00077	0f 84 a3 00 00
	00		 je	 $LN82@Insert_nod

; 700  :                     _Pnode->_Parent->_Color          = _Black;
; 701  :                     _Parent_sibling->_Color          = _Black;
; 702  :                     _Pnode->_Parent->_Parent->_Color = _Red;
; 703  :                     _Pnode                           = _Pnode->_Parent->_Parent;
; 704  :                 } else { // parent's sibling has red and black children
; 705  :                     if (_Pnode == _Pnode->_Parent->_Right) { // rotate right child to left

  0007d	8b 72 08	 mov	 esi, DWORD PTR [edx+8]
  00080	3b c6		 cmp	 eax, esi
  00082	75 37		 jne	 SHORT $LN57@Insert_nod

; 485  :         _Wherenode->_Right = _Pnode->_Left;

  00084	8b 0e		 mov	 ecx, DWORD PTR [esi]

; 706  :                         _Pnode = _Pnode->_Parent;

  00086	8b c2		 mov	 eax, edx

; 485  :         _Wherenode->_Right = _Pnode->_Left;

  00088	89 4a 08	 mov	 DWORD PTR [edx+8], ecx

; 486  : 
; 487  :         if (!_Pnode->_Left->_Isnil) {

  0008b	8b 0e		 mov	 ecx, DWORD PTR [esi]
  0008d	80 79 0d 00	 cmp	 BYTE PTR [ecx+13], 0
  00091	75 03		 jne	 SHORT $LN21@Insert_nod

; 488  :             _Pnode->_Left->_Parent = _Wherenode;

  00093	89 41 04	 mov	 DWORD PTR [ecx+4], eax
$LN21@Insert_nod:

; 489  :         }
; 490  : 
; 491  :         _Pnode->_Parent = _Wherenode->_Parent;

  00096	8b 4a 04	 mov	 ecx, DWORD PTR [edx+4]
  00099	89 4e 04	 mov	 DWORD PTR [esi+4], ecx

; 492  : 
; 493  :         if (_Wherenode == _Myhead->_Parent) {

  0009c	8b 0b		 mov	 ecx, DWORD PTR [ebx]
  0009e	3b 41 04	 cmp	 eax, DWORD PTR [ecx+4]
  000a1	75 05		 jne	 SHORT $LN22@Insert_nod

; 494  :             _Myhead->_Parent = _Pnode;

  000a3	89 71 04	 mov	 DWORD PTR [ecx+4], esi
  000a6	eb 0e		 jmp	 SHORT $LN25@Insert_nod
$LN22@Insert_nod:

; 495  :         } else if (_Wherenode == _Wherenode->_Parent->_Left) {

  000a8	8b 4a 04	 mov	 ecx, DWORD PTR [edx+4]
  000ab	3b 01		 cmp	 eax, DWORD PTR [ecx]
  000ad	75 04		 jne	 SHORT $LN24@Insert_nod

; 496  :             _Wherenode->_Parent->_Left = _Pnode;

  000af	89 31		 mov	 DWORD PTR [ecx], esi

; 497  :         } else {

  000b1	eb 03		 jmp	 SHORT $LN25@Insert_nod
$LN24@Insert_nod:

; 498  :             _Wherenode->_Parent->_Right = _Pnode;

  000b3	89 71 08	 mov	 DWORD PTR [ecx+8], esi
$LN25@Insert_nod:

; 499  :         }
; 500  : 
; 501  :         _Pnode->_Left       = _Wherenode;

  000b6	89 06		 mov	 DWORD PTR [esi], eax

; 502  :         _Wherenode->_Parent = _Pnode;

  000b8	89 70 04	 mov	 DWORD PTR [eax+4], esi
$LN57@Insert_nod:

; 707  :                         _Lrotate(_Pnode);
; 708  :                     }
; 709  : 
; 710  :                     _Pnode->_Parent->_Color          = _Black; // propagate red up

  000bb	8b 48 04	 mov	 ecx, DWORD PTR [eax+4]
  000be	c6 41 0c 01	 mov	 BYTE PTR [ecx+12], 1

; 711  :                     _Pnode->_Parent->_Parent->_Color = _Red;

  000c2	8b 48 04	 mov	 ecx, DWORD PTR [eax+4]
  000c5	8b 49 04	 mov	 ecx, DWORD PTR [ecx+4]
  000c8	c6 41 0c 00	 mov	 BYTE PTR [ecx+12], 0

; 712  :                     _Rrotate(_Pnode->_Parent->_Parent);

  000cc	8b 48 04	 mov	 ecx, DWORD PTR [eax+4]
  000cf	8b 51 04	 mov	 edx, DWORD PTR [ecx+4]

; 506  :         _Nodeptr _Pnode   = _Wherenode->_Left;

  000d2	8b 32		 mov	 esi, DWORD PTR [edx]

; 507  :         _Wherenode->_Left = _Pnode->_Right;

  000d4	8b 4e 08	 mov	 ecx, DWORD PTR [esi+8]
  000d7	89 0a		 mov	 DWORD PTR [edx], ecx

; 508  : 
; 509  :         if (!_Pnode->_Right->_Isnil) {

  000d9	8b 4e 08	 mov	 ecx, DWORD PTR [esi+8]
  000dc	80 79 0d 00	 cmp	 BYTE PTR [ecx+13], 0
  000e0	75 03		 jne	 SHORT $LN29@Insert_nod

; 510  :             _Pnode->_Right->_Parent = _Wherenode;

  000e2	89 51 04	 mov	 DWORD PTR [ecx+4], edx
$LN29@Insert_nod:

; 511  :         }
; 512  : 
; 513  :         _Pnode->_Parent = _Wherenode->_Parent;

  000e5	8b 4a 04	 mov	 ecx, DWORD PTR [edx+4]
  000e8	89 4e 04	 mov	 DWORD PTR [esi+4], ecx

; 514  : 
; 515  :         if (_Wherenode == _Myhead->_Parent) {

  000eb	8b 0b		 mov	 ecx, DWORD PTR [ebx]
  000ed	3b 51 04	 cmp	 edx, DWORD PTR [ecx+4]
  000f0	75 0b		 jne	 SHORT $LN30@Insert_nod

; 516  :             _Myhead->_Parent = _Pnode;

  000f2	89 71 04	 mov	 DWORD PTR [ecx+4], esi

; 521  :         }
; 522  : 
; 523  :         _Pnode->_Right      = _Wherenode;

  000f5	89 56 08	 mov	 DWORD PTR [esi+8], edx

; 713  :                 }
; 714  :             } else { // fixup red-red in right subtree

  000f8	e9 cc 00 00 00	 jmp	 $LN81@Insert_nod
$LN30@Insert_nod:

; 517  :         } else if (_Wherenode == _Wherenode->_Parent->_Right) {

  000fd	8b 4a 04	 mov	 ecx, DWORD PTR [edx+4]
  00100	3b 51 08	 cmp	 edx, DWORD PTR [ecx+8]
  00103	75 0b		 jne	 SHORT $LN32@Insert_nod

; 518  :             _Wherenode->_Parent->_Right = _Pnode;

  00105	89 71 08	 mov	 DWORD PTR [ecx+8], esi

; 521  :         }
; 522  : 
; 523  :         _Pnode->_Right      = _Wherenode;

  00108	89 56 08	 mov	 DWORD PTR [esi+8], edx

; 713  :                 }
; 714  :             } else { // fixup red-red in right subtree

  0010b	e9 b9 00 00 00	 jmp	 $LN81@Insert_nod
$LN32@Insert_nod:

; 520  :             _Wherenode->_Parent->_Left = _Pnode;

  00110	89 31		 mov	 DWORD PTR [ecx], esi

; 521  :         }
; 522  : 
; 523  :         _Pnode->_Right      = _Wherenode;

  00112	89 56 08	 mov	 DWORD PTR [esi+8], edx

; 713  :                 }
; 714  :             } else { // fixup red-red in right subtree

  00115	e9 af 00 00 00	 jmp	 $LN81@Insert_nod
$LN10@Insert_nod:

; 715  :                 const auto _Parent_sibling = _Pnode->_Parent->_Parent->_Left;
; 716  :                 if (_Parent_sibling->_Color == _Red) { // parent's sibling has two red children, blacken both

  0011a	80 79 0c 00	 cmp	 BYTE PTR [ecx+12], 0
  0011e	75 1d		 jne	 SHORT $LN15@Insert_nod
$LN82@Insert_nod:

; 693  :             }
; 694  :         }
; 695  : 
; 696  :         for (_Nodeptr _Pnode = _Newnode; _Pnode->_Parent->_Color == _Red;) {

  00120	c6 42 0c 01	 mov	 BYTE PTR [edx+12], 1
  00124	c6 41 0c 01	 mov	 BYTE PTR [ecx+12], 1
  00128	8b 48 04	 mov	 ecx, DWORD PTR [eax+4]
  0012b	8b 49 04	 mov	 ecx, DWORD PTR [ecx+4]
  0012e	c6 41 0c 00	 mov	 BYTE PTR [ecx+12], 0
  00132	8b 48 04	 mov	 ecx, DWORD PTR [eax+4]
  00135	8b 41 04	 mov	 eax, DWORD PTR [ecx+4]
  00138	e9 8f 00 00 00	 jmp	 $LN2@Insert_nod
$LN15@Insert_nod:

; 717  :                     _Pnode->_Parent->_Color          = _Black;
; 718  :                     _Parent_sibling->_Color          = _Black;
; 719  :                     _Pnode->_Parent->_Parent->_Color = _Red;
; 720  :                     _Pnode                           = _Pnode->_Parent->_Parent;
; 721  :                 } else { // parent's sibling has red and black children
; 722  :                     if (_Pnode == _Pnode->_Parent->_Left) { // rotate left child to right

  0013d	8b 32		 mov	 esi, DWORD PTR [edx]
  0013f	3b c6		 cmp	 eax, esi
  00141	75 3a		 jne	 SHORT $LN42@Insert_nod

; 507  :         _Wherenode->_Left = _Pnode->_Right;

  00143	8b 4e 08	 mov	 ecx, DWORD PTR [esi+8]

; 723  :                         _Pnode = _Pnode->_Parent;

  00146	8b c2		 mov	 eax, edx

; 507  :         _Wherenode->_Left = _Pnode->_Right;

  00148	89 08		 mov	 DWORD PTR [eax], ecx

; 508  : 
; 509  :         if (!_Pnode->_Right->_Isnil) {

  0014a	8b 4e 08	 mov	 ecx, DWORD PTR [esi+8]
  0014d	80 79 0d 00	 cmp	 BYTE PTR [ecx+13], 0
  00151	75 03		 jne	 SHORT $LN37@Insert_nod

; 510  :             _Pnode->_Right->_Parent = _Wherenode;

  00153	89 41 04	 mov	 DWORD PTR [ecx+4], eax
$LN37@Insert_nod:

; 511  :         }
; 512  : 
; 513  :         _Pnode->_Parent = _Wherenode->_Parent;

  00156	8b 4a 04	 mov	 ecx, DWORD PTR [edx+4]
  00159	89 4e 04	 mov	 DWORD PTR [esi+4], ecx

; 514  : 
; 515  :         if (_Wherenode == _Myhead->_Parent) {

  0015c	8b 0b		 mov	 ecx, DWORD PTR [ebx]
  0015e	3b 41 04	 cmp	 eax, DWORD PTR [ecx+4]
  00161	75 05		 jne	 SHORT $LN38@Insert_nod

; 516  :             _Myhead->_Parent = _Pnode;

  00163	89 71 04	 mov	 DWORD PTR [ecx+4], esi
  00166	eb 0f		 jmp	 SHORT $LN41@Insert_nod
$LN38@Insert_nod:

; 517  :         } else if (_Wherenode == _Wherenode->_Parent->_Right) {

  00168	8b 4a 04	 mov	 ecx, DWORD PTR [edx+4]
  0016b	3b 41 08	 cmp	 eax, DWORD PTR [ecx+8]
  0016e	75 05		 jne	 SHORT $LN40@Insert_nod

; 518  :             _Wherenode->_Parent->_Right = _Pnode;

  00170	89 71 08	 mov	 DWORD PTR [ecx+8], esi

; 519  :         } else {

  00173	eb 02		 jmp	 SHORT $LN41@Insert_nod
$LN40@Insert_nod:

; 520  :             _Wherenode->_Parent->_Left = _Pnode;

  00175	89 31		 mov	 DWORD PTR [ecx], esi
$LN41@Insert_nod:

; 521  :         }
; 522  : 
; 523  :         _Pnode->_Right      = _Wherenode;

  00177	89 46 08	 mov	 DWORD PTR [esi+8], eax

; 524  :         _Wherenode->_Parent = _Pnode;

  0017a	89 70 04	 mov	 DWORD PTR [eax+4], esi
$LN42@Insert_nod:

; 724  :                         _Rrotate(_Pnode);
; 725  :                     }
; 726  : 
; 727  :                     _Pnode->_Parent->_Color          = _Black; // propagate red up

  0017d	8b 48 04	 mov	 ecx, DWORD PTR [eax+4]
  00180	c6 41 0c 01	 mov	 BYTE PTR [ecx+12], 1

; 728  :                     _Pnode->_Parent->_Parent->_Color = _Red;

  00184	8b 48 04	 mov	 ecx, DWORD PTR [eax+4]
  00187	8b 49 04	 mov	 ecx, DWORD PTR [ecx+4]
  0018a	c6 41 0c 00	 mov	 BYTE PTR [ecx+12], 0

; 729  :                     _Lrotate(_Pnode->_Parent->_Parent);

  0018e	8b 48 04	 mov	 ecx, DWORD PTR [eax+4]
  00191	8b 51 04	 mov	 edx, DWORD PTR [ecx+4]

; 484  :         _Nodeptr _Pnode    = _Wherenode->_Right;

  00194	8b 72 08	 mov	 esi, DWORD PTR [edx+8]

; 485  :         _Wherenode->_Right = _Pnode->_Left;

  00197	8b 0e		 mov	 ecx, DWORD PTR [esi]
  00199	89 4a 08	 mov	 DWORD PTR [edx+8], ecx

; 486  : 
; 487  :         if (!_Pnode->_Left->_Isnil) {

  0019c	8b 0e		 mov	 ecx, DWORD PTR [esi]
  0019e	80 79 0d 00	 cmp	 BYTE PTR [ecx+13], 0
  001a2	75 03		 jne	 SHORT $LN45@Insert_nod

; 488  :             _Pnode->_Left->_Parent = _Wherenode;

  001a4	89 51 04	 mov	 DWORD PTR [ecx+4], edx
$LN45@Insert_nod:

; 489  :         }
; 490  : 
; 491  :         _Pnode->_Parent = _Wherenode->_Parent;

  001a7	8b 4a 04	 mov	 ecx, DWORD PTR [edx+4]
  001aa	89 4e 04	 mov	 DWORD PTR [esi+4], ecx

; 492  : 
; 493  :         if (_Wherenode == _Myhead->_Parent) {

  001ad	8b 0b		 mov	 ecx, DWORD PTR [ebx]
  001af	3b 51 04	 cmp	 edx, DWORD PTR [ecx+4]
  001b2	75 05		 jne	 SHORT $LN46@Insert_nod

; 494  :             _Myhead->_Parent = _Pnode;

  001b4	89 71 04	 mov	 DWORD PTR [ecx+4], esi
  001b7	eb 0e		 jmp	 SHORT $LN49@Insert_nod
$LN46@Insert_nod:

; 495  :         } else if (_Wherenode == _Wherenode->_Parent->_Left) {

  001b9	8b 4a 04	 mov	 ecx, DWORD PTR [edx+4]
  001bc	3b 11		 cmp	 edx, DWORD PTR [ecx]
  001be	75 04		 jne	 SHORT $LN48@Insert_nod

; 496  :             _Wherenode->_Parent->_Left = _Pnode;

  001c0	89 31		 mov	 DWORD PTR [ecx], esi

; 497  :         } else {

  001c2	eb 03		 jmp	 SHORT $LN49@Insert_nod
$LN48@Insert_nod:

; 498  :             _Wherenode->_Parent->_Right = _Pnode;

  001c4	89 71 08	 mov	 DWORD PTR [ecx+8], esi
$LN49@Insert_nod:

; 499  :         }
; 500  : 
; 501  :         _Pnode->_Left       = _Wherenode;

  001c7	89 16		 mov	 DWORD PTR [esi], edx
$LN81@Insert_nod:

; 693  :             }
; 694  :         }
; 695  : 
; 696  :         for (_Nodeptr _Pnode = _Newnode; _Pnode->_Parent->_Color == _Red;) {

  001c9	89 72 04	 mov	 DWORD PTR [edx+4], esi
$LN2@Insert_nod:
  001cc	8b 48 04	 mov	 ecx, DWORD PTR [eax+4]
  001cf	80 79 0c 00	 cmp	 BYTE PTR [ecx+12], 0
  001d3	0f 84 87 fe ff
	ff		 je	 $LL4@Insert_nod
  001d9	5e		 pop	 esi
$LN3@Insert_nod:

; 730  :                 }
; 731  :             }
; 732  :         }
; 733  : 
; 734  :         _Head->_Parent->_Color = _Black; // root is always black

  001da	8b 45 fc	 mov	 eax, DWORD PTR __Head$1$[ebp]
  001dd	8b 40 04	 mov	 eax, DWORD PTR [eax+4]
  001e0	c6 40 0c 01	 mov	 BYTE PTR [eax+12], 1

; 735  :         return _Newnode;
; 736  :     }

  001e4	8b c7		 mov	 eax, edi
  001e6	5f		 pop	 edi
  001e7	5b		 pop	 ebx
  001e8	8b e5		 mov	 esp, ebp
  001ea	5d		 pop	 ebp
  001eb	c2 0c 00	 ret	 12			; 0000000cH
?_Insert_node@?$_Tree_val@U?$_Tree_simple_types@H@std@@@std@@QAEPAU?$_Tree_node@HPAX@2@U?$_Tree_id@PAU?$_Tree_node@HPAX@std@@@2@QAU32@@Z ENDP ; std::_Tree_val<std::_Tree_simple_types<int> >::_Insert_node
_TEXT	ENDS
; Function compile flags: /Ogtp
; File C:\Program Files\Microsoft Visual Studio\2022\Professional\VC\Tools\MSVC\14.44.35207\include\xtree
; File C:\Program Files\Microsoft Visual Studio\2022\Professional\VC\Tools\MSVC\14.44.35207\include\utility
; File C:\Program Files\Microsoft Visual Studio\2022\Professional\VC\Tools\MSVC\14.44.35207\include\xmemory
; File C:\Program Files\Microsoft Visual Studio\2022\Professional\VC\Tools\MSVC\14.44.35207\include\xtree
; File C:\Program Files\Microsoft Visual Studio\2022\Professional\VC\Tools\MSVC\14.44.35207\include\xmemory
; File C:\Program Files\Microsoft Visual Studio\2022\Professional\VC\Tools\MSVC\14.44.35207\include\xtree
;	COMDAT ??1?$_Tree@V?$_Tset_traits@HU?$less@H@std@@V?$allocator@H@2@$0A@@std@@@std@@QAE@XZ
_TEXT	SEGMENT
??1?$_Tree@V?$_Tset_traits@HU?$less@H@std@@V?$allocator@H@2@$0A@@std@@@std@@QAE@XZ PROC ; std::_Tree<std::_Tset_traits<int,std::less<int>,std::allocator<int>,0> >::~_Tree<std::_Tset_traits<int,std::less<int>,std::allocator<int>,0> >, COMDAT
; _this$ = ecx

; 1095 :     ~_Tree() noexcept {

  00000	56		 push	 esi
  00001	57		 push	 edi
  00002	8b f9		 mov	 edi, ecx

; 777  :         _Erase_tree(_Al, _Myhead->_Parent);

  00004	8b 37		 mov	 esi, DWORD PTR [edi]
  00006	8b 76 04	 mov	 esi, DWORD PTR [esi+4]

; 768  :         while (!_Rootnode->_Isnil) { // free subtrees, then node

  00009	80 7e 0d 00	 cmp	 BYTE PTR [esi+13], 0
  0000d	75 21		 jne	 SHORT $LN61@Tree
  0000f	90		 npad	 1
$LL8@Tree:

; 769  :             _Erase_tree(_Al, _Rootnode->_Right);

  00010	ff 76 08	 push	 DWORD PTR [esi+8]
  00013	8b cf		 mov	 ecx, edi
  00015	57		 push	 edi
  00016	e8 00 00 00 00	 call	 ??$_Erase_tree@V?$allocator@U?$_Tree_node@HPAX@std@@@std@@@?$_Tree_val@U?$_Tree_simple_types@H@std@@@std@@QAEXAAV?$allocator@U?$_Tree_node@HPAX@std@@@1@PAU?$_Tree_node@HPAX@1@@Z ; std::_Tree_val<std::_Tree_simple_types<int> >::_Erase_tree<std::allocator<std::_Tree_node<int,void *> > >
; File C:\Program Files\Microsoft Visual Studio\2022\Professional\VC\Tools\MSVC\14.44.35207\include\utility

; 773  :     _Ty _Old_val = static_cast<_Ty&&>(_Val);

  0001b	8b c6		 mov	 eax, esi

; 774  :     _Val         = static_cast<_Other&&>(_New_val);

  0001d	8b 36		 mov	 esi, DWORD PTR [esi]
; File C:\Program Files\Microsoft Visual Studio\2022\Professional\VC\Tools\MSVC\14.44.35207\include\xmemory

; 289  :         ::operator delete(_Ptr, _Bytes);

  0001f	6a 14		 push	 20			; 00000014H
  00021	50		 push	 eax
  00022	e8 00 00 00 00	 call	 ??3@YAXPAXI@Z		; operator delete
  00027	83 c4 08	 add	 esp, 8
; File C:\Program Files\Microsoft Visual Studio\2022\Professional\VC\Tools\MSVC\14.44.35207\include\xtree

; 768  :         while (!_Rootnode->_Isnil) { // free subtrees, then node

  0002a	80 7e 0d 00	 cmp	 BYTE PTR [esi+13], 0
  0002e	74 e0		 je	 SHORT $LL8@Tree
$LN61@Tree:
; File C:\Program Files\Microsoft Visual Studio\2022\Professional\VC\Tools\MSVC\14.44.35207\include\xmemory

; 289  :         ::operator delete(_Ptr, _Bytes);

  00030	6a 14		 push	 20			; 00000014H
  00032	ff 37		 push	 DWORD PTR [edi]
  00034	e8 00 00 00 00	 call	 ??3@YAXPAXI@Z		; operator delete
  00039	83 c4 08	 add	 esp, 8
  0003c	5f		 pop	 edi
  0003d	5e		 pop	 esi
; File C:\Program Files\Microsoft Visual Studio\2022\Professional\VC\Tools\MSVC\14.44.35207\include\xtree

; 1102 :     }

  0003e	c3		 ret	 0
??1?$_Tree@V?$_Tset_traits@HU?$less@H@std@@V?$allocator@H@2@$0A@@std@@@std@@QAE@XZ ENDP ; std::_Tree<std::_Tset_traits<int,std::less<int>,std::allocator<int>,0> >::~_Tree<std::_Tset_traits<int,std::less<int>,std::allocator<int>,0> >
_TEXT	ENDS
; Function compile flags: /Ogtp
; File C:\IAGOS\server\v18\Source\Source\_Common\ProjectCmn.cpp
; File C:\Program Files\Microsoft Visual Studio\2022\Professional\VC\Tools\MSVC\14.44.35207\atlmfc\include\afxstr.h
; File C:\Program Files\Microsoft Visual Studio\2022\Professional\VC\Tools\MSVC\14.44.35207\atlmfc\include\atlsimpstr.h
; File C:\Program Files\Microsoft Visual Studio\2022\Professional\VC\Tools\MSVC\14.44.35207\atlmfc\include\cstringt.h
; File C:\Program Files\Microsoft Visual Studio\2022\Professional\VC\Tools\MSVC\14.44.35207\atlmfc\include\atlsimpstr.h
; File C:\IAGOS\server\v18\Source\Source\_Common\ProjectCmn.cpp
; File C:\Program Files\Microsoft Visual Studio\2022\Professional\VC\Tools\MSVC\14.44.35207\atlmfc\include\atlsimpstr.h
; File C:\IAGOS\server\v18\Source\Source\_Common\ProjectCmn.cpp
; File C:\Program Files\Microsoft Visual Studio\2022\Professional\VC\Tools\MSVC\14.44.35207\atlmfc\include\atlsimpstr.h
; File C:\IAGOS\server\v18\Source\Source\_Common\ProjectCmn.cpp
; File C:\Program Files\Microsoft Visual Studio\2022\Professional\VC\Tools\MSVC\14.44.35207\atlmfc\include\atlsimpstr.h
; File C:\IAGOS\server\v18\Source\Source\_Common\ProjectCmn.cpp
;	COMDAT ?GetLangFileName@@YA?AV?$CStringT@DV?$StrTraitMFC@DV?$ChTraitsCRT@D@ATL@@@@@ATL@@HH@Z
_TEXT	SEGMENT
_file$ = -80						; size = 64
$T2 = -16						; size = 4
__$EHRec$ = -12						; size = 12
___$ReturnUdt$ = 8					; size = 4
_nLang$ = 12						; size = 4
_nType$ = 16						; size = 4
$T3 = 16						; size = 4
?GetLangFileName@@YA?AV?$CStringT@DV?$StrTraitMFC@DV?$ChTraitsCRT@D@ATL@@@@@ATL@@HH@Z PROC ; GetLangFileName, COMDAT

; 12   : {

  00000	55		 push	 ebp
  00001	8b ec		 mov	 ebp, esp
  00003	6a ff		 push	 -1
  00005	68 00 00 00 00	 push	 __ehhandler$?GetLangFileName@@YA?AV?$CStringT@DV?$StrTraitMFC@DV?$ChTraitsCRT@D@ATL@@@@@ATL@@HH@Z
  0000a	64 a1 00 00 00
	00		 mov	 eax, DWORD PTR fs:0
  00010	50		 push	 eax
  00011	83 ec 44	 sub	 esp, 68			; 00000044H
  00014	56		 push	 esi
  00015	57		 push	 edi
  00016	a1 00 00 00 00	 mov	 eax, DWORD PTR ___security_cookie
  0001b	33 c5		 xor	 eax, ebp
  0001d	50		 push	 eax
  0001e	8d 45 f4	 lea	 eax, DWORD PTR __$EHRec$[ebp]
  00021	64 a3 00 00 00
	00		 mov	 DWORD PTR fs:0, eax
  00027	c7 45 f0 00 00
	00 00		 mov	 DWORD PTR $T2[ebp], 0

; 13   : 	char* file[] =
; 14   : 		{ "Filter", "InvalidName", "Notice", "GuildCombatTEXT_1", "GuildCombatTEXT_2", "GuildCombatTEXT_3", "GuildCombatTEXT_4", "GuildCombatTEXT_5", "GuildCombatTEXT_6" 
; 15   : #ifdef __RULE_0615
; 16   : 			,"Letter"
; 17   : #endif	// __RULE_0615
; 18   : #if __VER >= 11 // __GUILD_COMBAT_1TO1
; 19   : 			,"GuildCombat1to1_TEXT1", "GuildCombat1to1_TEXT2", "GuildCombat1to1_TEXT3", "GuildCombat1to1_TEXT4", "GuildCombat1to1_TEXT5"
; 20   : #endif //__GUILD_COMBAT_1TO1
; 21   : #ifdef __VENDOR_1106
; 22   : 			, "Letter1"
; 23   : #endif	// __VENDOR_1106
; 24   : 		};
; 25   : 
; 26   : 	CString fileName = file[nType];

  0002e	8b 45 10	 mov	 eax, DWORD PTR _nType$[ebp]
  00031	c7 45 b0 00 00
	00 00		 mov	 DWORD PTR _file$[ebp], OFFSET ??_C@_06IBDJIBGI@Filter@
  00038	c7 45 b4 00 00
	00 00		 mov	 DWORD PTR _file$[ebp+4], OFFSET ??_C@_0M@KNNOCJKG@InvalidName@
  0003f	c7 45 b8 00 00
	00 00		 mov	 DWORD PTR _file$[ebp+8], OFFSET ??_C@_06JHGCIHDH@Notice@
  00046	c7 45 bc 00 00
	00 00		 mov	 DWORD PTR _file$[ebp+12], OFFSET ??_C@_0BC@DHLCCIHN@GuildCombatTEXT_1@
  0004d	c7 45 c0 00 00
	00 00		 mov	 DWORD PTR _file$[ebp+16], OFFSET ??_C@_0BC@BMJPHLLO@GuildCombatTEXT_2@
  00054	c7 45 c4 00 00
	00 00		 mov	 DWORD PTR _file$[ebp+20], OFFSET ??_C@_0BC@FIEEKPP@GuildCombatTEXT_3@
  0005b	c7 45 c8 00 00
	00 00		 mov	 DWORD PTR _file$[ebp+24], OFFSET ??_C@_0BC@EKMFNMDI@GuildCombatTEXT_4@
  00062	c7 45 cc 00 00
	00 00		 mov	 DWORD PTR _file$[ebp+28], OFFSET ??_C@_0BC@FDNOONHJ@GuildCombatTEXT_5@
  00069	c7 45 d0 00 00
	00 00		 mov	 DWORD PTR _file$[ebp+32], OFFSET ??_C@_0BC@HIPDLOLK@GuildCombatTEXT_6@
  00070	c7 45 d4 00 00
	00 00		 mov	 DWORD PTR _file$[ebp+36], OFFSET ??_C@_06CBLMCBO@Letter@
  00077	c7 45 d8 00 00
	00 00		 mov	 DWORD PTR _file$[ebp+40], OFFSET ??_C@_0BG@NONHDJNH@GuildCombat1to1_TEXT1@
  0007e	c7 45 dc 00 00
	00 00		 mov	 DWORD PTR _file$[ebp+44], OFFSET ??_C@_0BG@PFPKGKBE@GuildCombat1to1_TEXT2@
  00085	c7 45 e0 00 00
	00 00		 mov	 DWORD PTR _file$[ebp+48], OFFSET ??_C@_0BG@OMOBFLFF@GuildCombat1to1_TEXT3@
  0008c	c7 45 e4 00 00
	00 00		 mov	 DWORD PTR _file$[ebp+52], OFFSET ??_C@_0BG@KDKAMNJC@GuildCombat1to1_TEXT4@
  00093	c7 45 e8 00 00
	00 00		 mov	 DWORD PTR _file$[ebp+56], OFFSET ??_C@_0BG@LKLLPMND@GuildCombat1to1_TEXT5@
  0009a	c7 45 ec 00 00
	00 00		 mov	 DWORD PTR _file$[ebp+60], OFFSET ??_C@_07DMFACBBD@Letter1@
  000a1	8b 74 85 b0	 mov	 esi, DWORD PTR _file$[ebp+eax*4]
  000a5	c7 45 fc 00 00
	00 00		 mov	 DWORD PTR __$EHRec$[ebp+8], 0
; File C:\Program Files\Microsoft Visual Studio\2022\Professional\VC\Tools\MSVC\14.44.35207\atlmfc\include\afxstr.h

; 56   : 		return( AfxGetStringManager() );

  000ac	e8 00 00 00 00	 call	 ?AfxGetStringManager@@YGPAUIAtlStringMgr@ATL@@XZ ; AfxGetStringManager
  000b1	8b c8		 mov	 ecx, eax
; File C:\Program Files\Microsoft Visual Studio\2022\Professional\VC\Tools\MSVC\14.44.35207\atlmfc\include\atlsimpstr.h

; 209  : 		ATLENSURE( pStringMgr != NULL );

  000b3	85 c9		 test	 ecx, ecx
  000b5	0f 84 bc 00 00
	00		 je	 $LN51@GetLangFil

; 210  : 		CStringData* pData = pStringMgr->GetNilString();

  000bb	8b 01		 mov	 eax, DWORD PTR [ecx]
  000bd	ff 50 0c	 call	 DWORD PTR [eax+12]

; 211  : 		Attach( pData );

  000c0	8b 7d 08	 mov	 edi, DWORD PTR ___$ReturnUdt$[ebp]
  000c3	83 c0 10	 add	 eax, 16			; 00000010H
  000c6	89 07		 mov	 DWORD PTR [edi], eax
; File C:\Program Files\Microsoft Visual Studio\2022\Professional\VC\Tools\MSVC\14.44.35207\atlmfc\include\cstringt.h

; 1052 : 		CThisSimpleString( StringTraits::GetDefaultManager() )

  000c8	c7 45 fc 01 00
	00 00		 mov	 DWORD PTR __$EHRec$[ebp+8], 1

; 2712 : 		if( (pv != NULL) && IS_INTRESOURCE( pv ) )

  000cf	85 f6		 test	 esi, esi
  000d1	74 28		 je	 SHORT $LN46@GetLangFil
  000d3	f7 c6 00 00 ff
	ff		 test	 esi, -65536		; ffff0000H
  000d9	75 0d		 jne	 SHORT $LN33@GetLangFil

; 2713 : 		{
; 2714 : 			UINT nID = LOWORD( reinterpret_cast< DWORD_PTR >( pv ) );

  000db	0f b7 c6	 movzx	 eax, si

; 2715 : 			(nID);
; 2716 : #ifdef _ATL_USE_WINAPI_FAMILY_DESKTOP_APP
; 2717 : 			if( !LoadString( nID ) )

  000de	8b cf		 mov	 ecx, edi
  000e0	50		 push	 eax
  000e1	e8 00 00 00 00	 call	 ?LoadStringA@?$CStringT@DV?$StrTraitMFC@DV?$ChTraitsCRT@D@ATL@@@@@ATL@@QAEHI@Z ; ATL::CStringT<char,StrTraitMFC<char,ATL::ChTraitsCRT<char> > >::LoadStringA

; 1054 : 		if( !CheckImplicitLoad( pszSrc ) )

  000e6	eb 1e		 jmp	 SHORT $LN7@GetLangFil
$LN33@GetLangFil:
; File C:\Program Files\Microsoft Visual Studio\2022\Professional\VC\Tools\MSVC\14.44.35207\atlmfc\include\atlsimpstr.h

; 730  : 		return( int( strlen( psz ) ) );

  000e8	8b ce		 mov	 ecx, esi
  000ea	8d 51 01	 lea	 edx, DWORD PTR [ecx+1]
  000ed	0f 1f 00	 npad	 3
$LL47@GetLangFil:
  000f0	8a 01		 mov	 al, BYTE PTR [ecx]
  000f2	41		 inc	 ecx
  000f3	84 c0		 test	 al, al
  000f5	75 f9		 jne	 SHORT $LL47@GetLangFil
  000f7	2b ca		 sub	 ecx, edx
  000f9	eb 02		 jmp	 SHORT $LN32@GetLangFil
$LN46@GetLangFil:

; 607  : 	}
; 608  : 	void SetString(
; 609  : 		_In_reads_opt_(nLength) PCXSTR pszSrc,
; 610  : 		_In_ int nLength)
; 611  : 	{
; 612  : 		if( nLength == 0 )
; 613  : 		{
; 614  : 			Empty();
; 615  : 		}
; 616  : 		else
; 617  : 		{
; 618  : 			// It is possible that pszSrc points to a location inside of our
; 619  : 			// buffer.  GetBuffer() might change m_pszData if (1) the buffer
; 620  : 			// is shared or (2) the buffer is too small to hold the new
; 621  : 			// string.  We detect this aliasing, and modify pszSrc to point
; 622  : 			// into the newly allocated buffer instead.
; 623  : 
; 624  : 			if(pszSrc == NULL)
; 625  : 				AtlThrow(E_INVALIDARG);
; 626  : 
; 627  : 			UINT nOldLength = GetLength();
; 628  : 			UINT_PTR nOffset = pszSrc-GetString();
; 629  : 			// If 0 <= nOffset <= nOldLength, then pszSrc points into our
; 630  : 			// buffer
; 631  : 
; 632  : 			PXSTR pszBuffer = GetBuffer( nLength );
; 633  : 			if( nOffset <= nOldLength )
; 634  : 			{
; 635  : 				CopyCharsOverlapped( pszBuffer, GetAllocLength(),
; 636  : 					pszBuffer+nOffset, nLength );
; 637  : 			}
; 638  : 			else
; 639  : 			{
; 640  : 				memcpy_s( pszBuffer, GetAllocLength() * sizeof( XCHAR ), pszSrc, nLength * sizeof( XCHAR ));
; 641  : 			}
; 642  : 			ReleaseBufferSetLength( nLength );
; 643  : 		}
; 644  : 	}
; 645  : 
; 646  : public:
; 647  : 	friend CSimpleStringT operator+(
; 648  : 		_In_ const CSimpleStringT& str1,
; 649  : 		_In_ const CSimpleStringT& str2)
; 650  : 	{
; 651  : 		CSimpleStringT s( str1.GetManager() );
; 652  : 
; 653  : 		Concatenate( s, str1, str1.GetLength(), str2, str2.GetLength() );
; 654  : 
; 655  : 		return( s );
; 656  : 	}
; 657  : 
; 658  : 	friend CSimpleStringT operator+(
; 659  : 		_In_ const CSimpleStringT& str1,
; 660  : 		_In_z_ PCXSTR psz2)
; 661  : 	{
; 662  : 		CSimpleStringT s( str1.GetManager() );
; 663  : 
; 664  : 		Concatenate( s, str1, str1.GetLength(), psz2, StringLength( psz2 ) );
; 665  : 
; 666  : 		return( s );
; 667  : 	}
; 668  : 
; 669  : 	friend CSimpleStringT operator+(
; 670  : 		_In_z_ PCXSTR psz1,
; 671  : 		_In_ const CSimpleStringT& str2)
; 672  : 	{
; 673  : 		CSimpleStringT s( str2.GetManager() );
; 674  : 
; 675  : 		Concatenate( s, psz1, StringLength( psz1 ), str2, str2.GetLength() );
; 676  : 
; 677  : 		return( s );
; 678  : 	}
; 679  : 
; 680  : 	_ATL_INSECURE_DEPRECATE("CSimpleStringT::CopyChars must be passed a buffer size")
; 681  : 	static void __cdecl CopyChars(
; 682  : 		_Out_writes_(nChars) XCHAR* pchDest,
; 683  : 		_In_reads_opt_(nChars) const XCHAR* pchSrc,
; 684  : 		_In_ int nChars) throw()
; 685  : 	{
; 686  : 		if (pchSrc != NULL)
; 687  : 		{
; 688  : 			#pragma warning (push)
; 689  : 			#pragma warning(disable : 4996)
; 690  : 			memcpy( pchDest, pchSrc, nChars*sizeof( XCHAR ) );
; 691  : 			#pragma warning (pop)
; 692  : 		}
; 693  : 	}
; 694  : 	static void __cdecl CopyChars(
; 695  : 		_Out_writes_to_(nDestLen,nChars) XCHAR* pchDest,
; 696  : 		_In_ size_t nDestLen,
; 697  : 		_In_reads_opt_(nChars) const XCHAR* pchSrc,
; 698  : 		_In_ int nChars) throw()
; 699  : 	{
; 700  : 		memcpy_s( pchDest, nDestLen*sizeof( XCHAR ),
; 701  : 			pchSrc, nChars*sizeof( XCHAR ) );
; 702  : 	}
; 703  : 
; 704  : 	_ATL_INSECURE_DEPRECATE("CSimpleStringT::CopyCharsOverlapped must be passed a buffer size")
; 705  : 	static void __cdecl CopyCharsOverlapped(
; 706  : 		_Out_writes_(nChars) XCHAR* pchDest,
; 707  : 		_In_reads_(nChars) const XCHAR* pchSrc,
; 708  : 		_In_ int nChars) throw()
; 709  : 	{
; 710  : 		#pragma warning (push)
; 711  : 		#pragma warning(disable : 4996)
; 712  : 		memmove( pchDest, pchSrc, nChars*sizeof( XCHAR ) );
; 713  : 		#pragma warning (pop)
; 714  : 	}
; 715  : 	static void __cdecl CopyCharsOverlapped(
; 716  : 		_Out_writes_to_(nDestLen, nDestLen) XCHAR* pchDest,
; 717  : 		_In_ size_t nDestLen,
; 718  : 		_In_reads_(nChars) const XCHAR* pchSrc,
; 719  : 		_In_ int nChars) throw()
; 720  : 	{
; 721  : 		memmove_s( pchDest, nDestLen*sizeof( XCHAR ),
; 722  : 			pchSrc, nChars*sizeof( XCHAR ) );
; 723  : 	}
; 724  : 	static int __cdecl StringLength(_In_opt_z_ const char* psz) throw()
; 725  : 	{
; 726  : 		if( psz == NULL )
; 727  : 		{
; 728  : 			return( 0 );

  000fb	33 c9		 xor	 ecx, ecx
$LN32@GetLangFil:

; 606  : 		SetString( pszSrc, StringLength( pszSrc ) );

  000fd	51		 push	 ecx
  000fe	56		 push	 esi
  000ff	8b cf		 mov	 ecx, edi
  00101	e8 00 00 00 00	 call	 ?SetString@?$CSimpleStringT@D$0A@@ATL@@QAEXPBDH@Z ; ATL::CSimpleStringT<char,0>::SetString
$LN7@GetLangFil:
; File C:\IAGOS\server\v18\Source\Source\_Common\ProjectCmn.cpp

; 64   : 	return fileName;

  00106	ff 75 0c	 push	 DWORD PTR _nLang$[ebp]
  00109	c7 45 fc 00 00
	00 00		 mov	 DWORD PTR __$EHRec$[ebp+8], 0
  00110	c7 45 f0 01 00
	00 00		 mov	 DWORD PTR $T2[ebp], 1
  00117	e8 00 00 00 00	 call	 ?GetInstance@CLangMan@@SAPAV1@XZ ; CLangMan::GetInstance
  0011c	8b c8		 mov	 ecx, eax
  0011e	e8 00 00 00 00	 call	 ?GetLangData@CLangMan@@QAEPAU_LANG_DATA@@K@Z ; CLangMan::GetLangData
  00123	05 04 01 00 00	 add	 eax, 260		; 00000104H
  00128	50		 push	 eax
  00129	8d 45 10	 lea	 eax, DWORD PTR $T3[ebp]
  0012c	57		 push	 edi
  0012d	50		 push	 eax
  0012e	e8 00 00 00 00	 call	 ??HATL@@YA?AV?$CStringT@DV?$StrTraitMFC@DV?$ChTraitsCRT@D@ATL@@@@@0@ABV10@PBD@Z ; ATL::operator+
  00133	83 c4 0c	 add	 esp, 12			; 0000000cH
  00136	50		 push	 eax
  00137	8b cf		 mov	 ecx, edi
  00139	c7 45 fc 02 00
	00 00		 mov	 DWORD PTR __$EHRec$[ebp+8], 2
  00140	e8 00 00 00 00	 call	 ??4?$CStringT@DV?$StrTraitMFC@DV?$ChTraitsCRT@D@ATL@@@@@ATL@@QAEAAV01@ABV01@@Z ; ATL::CStringT<char,StrTraitMFC<char,ATL::ChTraitsCRT<char> > >::operator=
; File C:\Program Files\Microsoft Visual Studio\2022\Professional\VC\Tools\MSVC\14.44.35207\atlmfc\include\atlsimpstr.h

; 804  : 		return( reinterpret_cast< CStringData* >( m_pszData )-1 );

  00145	8b 75 10	 mov	 esi, DWORD PTR $T3[ebp]

; 92   : 		if( _InterlockedDecrement( &nRefs ) <= 0 )

  00148	83 c8 ff	 or	 eax, -1
; File C:\IAGOS\server\v18\Source\Source\_Common\ProjectCmn.cpp

; 29   : 	fileName	= fileName + CLangMan::GetInstance()->GetLangData( nLang )->szFileName;

  0014b	c6 45 fc 00	 mov	 BYTE PTR __$EHRec$[ebp+8], 0
; File C:\Program Files\Microsoft Visual Studio\2022\Professional\VC\Tools\MSVC\14.44.35207\atlmfc\include\atlsimpstr.h

; 804  : 		return( reinterpret_cast< CStringData* >( m_pszData )-1 );

  0014f	83 c6 f0	 add	 esi, -16		; fffffff0H

; 92   : 		if( _InterlockedDecrement( &nRefs ) <= 0 )

  00152	f0 0f c1 46 0c	 lock	  xadd	 DWORD PTR [esi+12], eax
  00157	48		 dec	 eax
  00158	85 c0		 test	 eax, eax
  0015a	7f 08		 jg	 SHORT $LN43@GetLangFil

; 93   : 		{
; 94   : 			pStringMgr->Free( this );

  0015c	8b 0e		 mov	 ecx, DWORD PTR [esi]
  0015e	56		 push	 esi
  0015f	8b 11		 mov	 edx, DWORD PTR [ecx]
  00161	ff 52 04	 call	 DWORD PTR [edx+4]
$LN43@GetLangFil:
; File C:\IAGOS\server\v18\Source\Source\_Common\ProjectCmn.cpp

; 64   : 	return fileName;

  00164	8b c7		 mov	 eax, edi

; 65   : }

  00166	8b 4d f4	 mov	 ecx, DWORD PTR __$EHRec$[ebp]
  00169	64 89 0d 00 00
	00 00		 mov	 DWORD PTR fs:0, ecx
  00170	59		 pop	 ecx
  00171	5f		 pop	 edi
  00172	5e		 pop	 esi
  00173	8b e5		 mov	 esp, ebp
  00175	5d		 pop	 ebp
  00176	c3		 ret	 0
$LN51@GetLangFil:
; File C:\Program Files\Microsoft Visual Studio\2022\Professional\VC\Tools\MSVC\14.44.35207\atlmfc\include\atlsimpstr.h

; 209  : 		ATLENSURE( pStringMgr != NULL );

  00177	68 05 40 00 80	 push	 -2147467259		; 80004005H
  0017c	e8 00 00 00 00	 call	 ?AtlThrowImpl@ATL@@YGXJ@Z ; ATL::AtlThrowImpl
$LN49@GetLangFil:
  00181	cc		 int	 3
_TEXT	ENDS
;	COMDAT text$x
text$x	SEGMENT
__unwindfunclet$?GetLangFileName@@YA?AV?$CStringT@DV?$StrTraitMFC@DV?$ChTraitsCRT@D@ATL@@@@@ATL@@HH@Z$2:
  00000	8b 4d 08	 mov	 ecx, DWORD PTR ___$ReturnUdt$[ebp]
  00003	e9 00 00 00 00	 jmp	 ??1?$CSimpleStringT@D$0A@@ATL@@QAE@XZ ; ATL::CSimpleStringT<char,0>::~CSimpleStringT<char,0>
__unwindfunclet$?GetLangFileName@@YA?AV?$CStringT@DV?$StrTraitMFC@DV?$ChTraitsCRT@D@ATL@@@@@ATL@@HH@Z$0:
  00008	8b 45 f0	 mov	 eax, DWORD PTR $T2[ebp]
  0000b	83 e0 01	 and	 eax, 1
  0000e	0f 84 0c 00 00
	00		 je	 $LN4@GetLangFil
  00014	83 65 f0 fe	 and	 DWORD PTR $T2[ebp], -2	; fffffffeH
  00018	8b 4d 08	 mov	 ecx, DWORD PTR ___$ReturnUdt$[ebp]
  0001b	e9 00 00 00 00	 jmp	 ??1?$CStringT@DV?$StrTraitMFC@DV?$ChTraitsCRT@D@ATL@@@@@ATL@@QAE@XZ ; ATL::CStringT<char,StrTraitMFC<char,ATL::ChTraitsCRT<char> > >::~CStringT<char,StrTraitMFC<char,ATL::ChTraitsCRT<char> > >
$LN4@GetLangFil:
  00020	c3		 ret	 0
__unwindfunclet$?GetLangFileName@@YA?AV?$CStringT@DV?$StrTraitMFC@DV?$ChTraitsCRT@D@ATL@@@@@ATL@@HH@Z$1:
  00021	8d 4d 10	 lea	 ecx, DWORD PTR $T3[ebp]
  00024	e9 00 00 00 00	 jmp	 ??1?$CStringT@DV?$StrTraitMFC@DV?$ChTraitsCRT@D@ATL@@@@@ATL@@QAE@XZ ; ATL::CStringT<char,StrTraitMFC<char,ATL::ChTraitsCRT<char> > >::~CStringT<char,StrTraitMFC<char,ATL::ChTraitsCRT<char> > >
  00029	cc		 int	 3
  0002a	cc		 int	 3
  0002b	cc		 int	 3
  0002c	cc		 int	 3
  0002d	cc		 int	 3
__ehhandler$?GetLangFileName@@YA?AV?$CStringT@DV?$StrTraitMFC@DV?$ChTraitsCRT@D@ATL@@@@@ATL@@HH@Z:
  0002e	90		 npad	 1
  0002f	90		 npad	 1
  00030	8b 54 24 08	 mov	 edx, DWORD PTR [esp+8]
  00034	8d 42 0c	 lea	 eax, DWORD PTR [edx+12]
  00037	8b 4a b0	 mov	 ecx, DWORD PTR [edx-80]
  0003a	33 c8		 xor	 ecx, eax
  0003c	e8 00 00 00 00	 call	 @__security_check_cookie@4
  00041	b8 00 00 00 00	 mov	 eax, OFFSET __ehfuncinfo$?GetLangFileName@@YA?AV?$CStringT@DV?$StrTraitMFC@DV?$ChTraitsCRT@D@ATL@@@@@ATL@@HH@Z
  00046	e9 00 00 00 00	 jmp	 ___CxxFrameHandler3
text$x	ENDS
?GetLangFileName@@YA?AV?$CStringT@DV?$StrTraitMFC@DV?$ChTraitsCRT@D@ATL@@@@@ATL@@HH@Z ENDP ; GetLangFileName
; Function compile flags: /Ogtp
; File C:\Program Files\Microsoft Visual Studio\2022\Professional\VC\Tools\MSVC\14.44.35207\include\xmemory
;	COMDAT ??$_Allocate_manually_vector_aligned@U_Default_allocate_traits@std@@@std@@YAPAXI@Z
_TEXT	SEGMENT
__Bytes$ = 8						; size = 4
??$_Allocate_manually_vector_aligned@U_Default_allocate_traits@std@@@std@@YAPAXI@Z PROC ; std::_Allocate_manually_vector_aligned<std::_Default_allocate_traits>, COMDAT

; 182  : __declspec(allocator) void* _Allocate_manually_vector_aligned(const size_t _Bytes) {

  00000	55		 push	 ebp
  00001	8b ec		 mov	 ebp, esp

; 183  :     // allocate _Bytes manually aligned to at least _Big_allocation_alignment
; 184  :     const size_t _Block_size = _Non_user_size + _Bytes;

  00003	8b 45 08	 mov	 eax, DWORD PTR __Bytes$[ebp]
  00006	8d 48 23	 lea	 ecx, DWORD PTR [eax+35]

; 185  :     if (_Block_size <= _Bytes) {

  00009	3b c8		 cmp	 ecx, eax
  0000b	0f 86 00 00 00
	00		 jbe	 ?_Throw_bad_array_new_length@std@@YAXXZ ; std::_Throw_bad_array_new_length

; 136  :         return ::operator new(_Bytes);

  00011	51		 push	 ecx
  00012	e8 00 00 00 00	 call	 ??2@YAPAXI@Z		; operator new

; 186  :         _Throw_bad_array_new_length(); // add overflow
; 187  :     }
; 188  : 
; 189  :     const uintptr_t _Ptr_container = reinterpret_cast<uintptr_t>(_Traits::_Allocate(_Block_size));

  00017	8b c8		 mov	 ecx, eax

; 136  :         return ::operator new(_Bytes);

  00019	83 c4 04	 add	 esp, 4

; 190  :     _STL_VERIFY(_Ptr_container != 0, "invalid argument"); // validate even in release since we're doing p[-1]

  0001c	85 c9		 test	 ecx, ecx
  0001e	74 0b		 je	 SHORT $LN9@Allocate_m

; 191  :     void* const _Ptr = reinterpret_cast<void*>((_Ptr_container + _Non_user_size) & ~(_Big_allocation_alignment - 1));

  00020	8d 41 23	 lea	 eax, DWORD PTR [ecx+35]
  00023	83 e0 e0	 and	 eax, -32		; ffffffe0H

; 192  :     static_cast<uintptr_t*>(_Ptr)[-1] = _Ptr_container;

  00026	89 48 fc	 mov	 DWORD PTR [eax-4], ecx

; 193  : 
; 194  : #ifdef _DEBUG
; 195  :     static_cast<uintptr_t*>(_Ptr)[-2] = _Big_allocation_sentinel;
; 196  : #endif // defined(_DEBUG)
; 197  :     return _Ptr;
; 198  : }

  00029	5d		 pop	 ebp
  0002a	c3		 ret	 0
$LN9@Allocate_m:

; 190  :     _STL_VERIFY(_Ptr_container != 0, "invalid argument"); // validate even in release since we're doing p[-1]

  0002b	6a 00		 push	 0
  0002d	6a 00		 push	 0
  0002f	6a 00		 push	 0
  00031	6a 00		 push	 0
  00033	6a 00		 push	 0
  00035	e8 00 00 00 00	 call	 __invoke_watson
$LN7@Allocate_m:
  0003a	cc		 int	 3
??$_Allocate_manually_vector_aligned@U_Default_allocate_traits@std@@@std@@YAPAXI@Z ENDP ; std::_Allocate_manually_vector_aligned<std::_Default_allocate_traits>
_TEXT	ENDS
; Function compile flags: /Ogtp
; File C:\Program Files\Microsoft Visual Studio\2022\Professional\VC\Tools\MSVC\14.44.35207\include\xstring
; File C:\Program Files\Microsoft Visual Studio\2022\Professional\VC\Tools\MSVC\14.44.35207\include\__msvc_string_view.hpp
; File C:\Program Files\Microsoft Visual Studio\2022\Professional\VC\Tools\MSVC\14.44.35207\include\xstring
; File C:\Program Files\Microsoft Visual Studio\2022\Professional\VC\Tools\MSVC\14.44.35207\include\__msvc_string_view.hpp
; File C:\Program Files\Microsoft Visual Studio\2022\Professional\VC\Tools\MSVC\14.44.35207\include\xstring
; File C:\Program Files\Microsoft Visual Studio\2022\Professional\VC\Tools\MSVC\14.44.35207\include\__msvc_string_view.hpp
; File C:\Program Files\Microsoft Visual Studio\2022\Professional\VC\Tools\MSVC\14.44.35207\include\xstring
;	COMDAT ??$?MDU?$char_traits@D@std@@V?$allocator@D@1@@std@@YA_NABV?$basic_string@DU?$char_traits@D@std@@V?$allocator@D@2@@0@0@Z
_TEXT	SEGMENT
__Left$ = 8						; size = 4
__Right$ = 12						; size = 4
??$?MDU?$char_traits@D@std@@V?$allocator@D@1@@std@@YA_NABV?$basic_string@DU?$char_traits@D@std@@V?$allocator@D@2@@0@0@Z PROC ; std::operator<<char,std::char_traits<char>,std::allocator<char> >, COMDAT

; 3307 :     const basic_string<_Elem, _Traits, _Alloc>& _Left, const basic_string<_Elem, _Traits, _Alloc>& _Right) noexcept {

  00000	55		 push	 ebp
  00001	8b ec		 mov	 ebp, esp

; 444  :         const value_type* _Result = _Bx._Buf;

  00003	8b 45 0c	 mov	 eax, DWORD PTR __Right$[ebp]
  00006	8b c8		 mov	 ecx, eax

; 453  :         return _Myres > _Small_string_capacity;

  00008	83 78 14 0f	 cmp	 DWORD PTR [eax+20], 15	; 0000000fH

; 445  :         if (_Large_mode_engaged()) {

  0000c	76 02		 jbe	 SHORT $LN8@operator

; 446  :             _Result = _Unfancy(_Bx._Ptr);

  0000e	8b 08		 mov	 ecx, DWORD PTR [eax]
$LN8@operator:
  00010	53		 push	 ebx
  00011	56		 push	 esi

; 444  :         const value_type* _Result = _Bx._Buf;

  00012	8b 75 08	 mov	 esi, DWORD PTR __Left$[ebp]
  00015	8b d6		 mov	 edx, esi
  00017	57		 push	 edi

; 453  :         return _Myres > _Small_string_capacity;

  00018	83 7e 14 0f	 cmp	 DWORD PTR [esi+20], 15	; 0000000fH

; 445  :         if (_Large_mode_engaged()) {

  0001c	76 02		 jbe	 SHORT $LN15@operator

; 446  :             _Result = _Unfancy(_Bx._Ptr);

  0001e	8b 16		 mov	 edx, DWORD PTR [esi]
$LN15@operator:

; 2890 :         return _Traits_compare<_Traits>(_Mypair._Myval2._Myptr(), _Mypair._Myval2._Mysize,

  00020	8b 5e 10	 mov	 ebx, DWORD PTR [esi+16]
  00023	8b f3		 mov	 esi, ebx
  00025	8b 78 10	 mov	 edi, DWORD PTR [eax+16]
  00028	3b fb		 cmp	 edi, ebx
  0002a	0f 42 f7	 cmovb	 esi, edi
; File C:\Program Files\Microsoft Visual Studio\2022\Professional\VC\Tools\MSVC\14.44.35207\include\__msvc_string_view.hpp

; 439  :         return _CSTD memcmp(_First1, _First2, _Count);

  0002d	83 ee 04	 sub	 esi, 4
  00030	72 11		 jb	 SHORT $LN35@operator
$LL36@operator:
  00032	8b 02		 mov	 eax, DWORD PTR [edx]
  00034	3b 01		 cmp	 eax, DWORD PTR [ecx]
  00036	75 10		 jne	 SHORT $LN34@operator
  00038	83 c2 04	 add	 edx, 4
  0003b	83 c1 04	 add	 ecx, 4
  0003e	83 ee 04	 sub	 esi, 4
  00041	73 ef		 jae	 SHORT $LL36@operator
$LN35@operator:
  00043	83 fe fc	 cmp	 esi, -4			; fffffffcH
  00046	74 34		 je	 SHORT $LN33@operator
$LN34@operator:
  00048	8a 02		 mov	 al, BYTE PTR [edx]
  0004a	3a 01		 cmp	 al, BYTE PTR [ecx]
  0004c	75 27		 jne	 SHORT $LN37@operator
  0004e	83 fe fd	 cmp	 esi, -3			; fffffffdH
  00051	74 29		 je	 SHORT $LN33@operator
  00053	8a 42 01	 mov	 al, BYTE PTR [edx+1]
  00056	3a 41 01	 cmp	 al, BYTE PTR [ecx+1]
  00059	75 1a		 jne	 SHORT $LN37@operator
  0005b	83 fe fe	 cmp	 esi, -2			; fffffffeH
  0005e	74 1c		 je	 SHORT $LN33@operator
  00060	8a 42 02	 mov	 al, BYTE PTR [edx+2]
  00063	3a 41 02	 cmp	 al, BYTE PTR [ecx+2]
  00066	75 0d		 jne	 SHORT $LN37@operator
  00068	83 fe ff	 cmp	 esi, -1
  0006b	74 0f		 je	 SHORT $LN33@operator
  0006d	8a 42 03	 mov	 al, BYTE PTR [edx+3]
  00070	3a 41 03	 cmp	 al, BYTE PTR [ecx+3]
  00073	74 07		 je	 SHORT $LN33@operator
$LN37@operator:
  00075	1b c0		 sbb	 eax, eax
  00077	83 c8 01	 or	 eax, 1
  0007a	eb 02		 jmp	 SHORT $LN38@operator
$LN33@operator:
  0007c	33 c0		 xor	 eax, eax
$LN38@operator:

; 621  :     if (_Ans != 0) {

  0007e	85 c0		 test	 eax, eax
  00080	75 13		 jne	 SHORT $LN24@operator

; 622  :         return _Ans;
; 623  :     }
; 624  : 
; 625  :     if (_Left_size < _Right_size) {

  00082	3b fb		 cmp	 edi, ebx
  00084	76 0b		 jbe	 SHORT $LN51@operator
; File C:\Program Files\Microsoft Visual Studio\2022\Professional\VC\Tools\MSVC\14.44.35207\include\xstring

; 3308 :     return _Left.compare(_Right) < 0;

  00086	5f		 pop	 edi
; File C:\Program Files\Microsoft Visual Studio\2022\Professional\VC\Tools\MSVC\14.44.35207\include\__msvc_string_view.hpp

; 626  :         return -1;

  00087	83 c8 ff	 or	 eax, -1
; File C:\Program Files\Microsoft Visual Studio\2022\Professional\VC\Tools\MSVC\14.44.35207\include\xstring

; 3308 :     return _Left.compare(_Right) < 0;

  0008a	5e		 pop	 esi
  0008b	c1 e8 1f	 shr	 eax, 31			; 0000001fH
  0008e	5b		 pop	 ebx

; 3309 : }

  0008f	5d		 pop	 ebp
  00090	c3		 ret	 0
$LN51@operator:
; File C:\Program Files\Microsoft Visual Studio\2022\Professional\VC\Tools\MSVC\14.44.35207\include\__msvc_string_view.hpp

; 629  :     if (_Left_size > _Right_size) {

  00091	1b c0		 sbb	 eax, eax
  00093	f7 d8		 neg	 eax
$LN24@operator:
; File C:\Program Files\Microsoft Visual Studio\2022\Professional\VC\Tools\MSVC\14.44.35207\include\xstring

; 3308 :     return _Left.compare(_Right) < 0;

  00095	5f		 pop	 edi
  00096	5e		 pop	 esi
  00097	c1 e8 1f	 shr	 eax, 31			; 0000001fH
  0009a	5b		 pop	 ebx

; 3309 : }

  0009b	5d		 pop	 ebp
  0009c	c3		 ret	 0
??$?MDU?$char_traits@D@std@@V?$allocator@D@1@@std@@YA_NABV?$basic_string@DU?$char_traits@D@std@@V?$allocator@D@2@@0@0@Z ENDP ; std::operator<<char,std::char_traits<char>,std::allocator<char> >
_TEXT	ENDS
; Function compile flags: /Ogtp
;	COMDAT ??1?$pair@$$CBV?$basic_string@DU?$char_traits@D@std@@V?$allocator@D@2@@std@@K@std@@QAE@XZ
_TEXT	SEGMENT
??1?$pair@$$CBV?$basic_string@DU?$char_traits@D@std@@V?$allocator@D@2@@std@@K@std@@QAE@XZ PROC ; std::pair<std::basic_string<char,std::char_traits<char>,std::allocator<char> > const ,unsigned long>::~pair<std::basic_string<char,std::char_traits<char>,std::allocator<char> > const ,unsigned long>, COMDAT
; _this$ = ecx
  00000	e9 00 00 00 00	 jmp	 ??1?$basic_string@DU?$char_traits@D@std@@V?$allocator@D@2@@std@@QAE@XZ ; std::basic_string<char,std::char_traits<char>,std::allocator<char> >::~basic_string<char,std::char_traits<char>,std::allocator<char> >
??1?$pair@$$CBV?$basic_string@DU?$char_traits@D@std@@V?$allocator@D@2@@std@@K@std@@QAE@XZ ENDP ; std::pair<std::basic_string<char,std::char_traits<char>,std::allocator<char> > const ,unsigned long>::~pair<std::basic_string<char,std::char_traits<char>,std::allocator<char> > const ,unsigned long>
_TEXT	ENDS
; Function compile flags: /Ogtp
; File C:\IAGOS\server\v18\Source\Source\_Common\ProjectCmn.cpp
; File C:\Program Files\Microsoft Visual Studio\2022\Professional\VC\Tools\MSVC\14.44.35207\atlmfc\include\afxstr.h
; File C:\Program Files\Microsoft Visual Studio\2022\Professional\VC\Tools\MSVC\14.44.35207\atlmfc\include\atlsimpstr.h
; File C:\IAGOS\server\v18\Source\Source\_Common\ProjectCmn.cpp
; File C:\Program Files\Microsoft Visual Studio\2022\Professional\VC\Tools\MSVC\14.44.35207\atlmfc\include\atlsimpstr.h
; File C:\IAGOS\server\v18\Source\Source\_Common\ProjectCmn.cpp
; File C:\Program Files\Microsoft Visual Studio\2022\Professional\VC\Tools\MSVC\14.44.35207\atlmfc\include\atlsimpstr.h
; File C:\IAGOS\server\v18\Source\Source\_Common\ProjectCmn.cpp
; File C:\Program Files\Microsoft Visual Studio\2022\Professional\VC\Tools\MSVC\14.44.35207\atlmfc\include\atlsimpstr.h
; File C:\IAGOS\server\v18\Source\Source\_Common\ProjectCmn.cpp
;	COMDAT ?GetLangScript@CProject@@QAE?AV?$CStringT@DV?$StrTraitMFC@DV?$ChTraitsCRT@D@ATL@@@@@ATL@@AAVCScript@@@Z
_TEXT	SEGMENT
$T2 = -16						; size = 4
__$EHRec$ = -12						; size = 12
___$ReturnUdt$ = 8					; size = 4
_script$ = 12						; size = 4
?GetLangScript@CProject@@QAE?AV?$CStringT@DV?$StrTraitMFC@DV?$ChTraitsCRT@D@ATL@@@@@ATL@@AAVCScript@@@Z PROC ; CProject::GetLangScript, COMDAT
; _this$ = ecx

; 924  : {

  00000	55		 push	 ebp
  00001	8b ec		 mov	 ebp, esp
  00003	6a ff		 push	 -1
  00005	68 00 00 00 00	 push	 __ehhandler$?GetLangScript@CProject@@QAE?AV?$CStringT@DV?$StrTraitMFC@DV?$ChTraitsCRT@D@ATL@@@@@ATL@@AAVCScript@@@Z
  0000a	64 a1 00 00 00
	00		 mov	 eax, DWORD PTR fs:0
  00010	50		 push	 eax
  00011	51		 push	 ecx
  00012	56		 push	 esi
  00013	57		 push	 edi
  00014	a1 00 00 00 00	 mov	 eax, DWORD PTR ___security_cookie
  00019	33 c5		 xor	 eax, ebp
  0001b	50		 push	 eax
  0001c	8d 45 f4	 lea	 eax, DWORD PTR __$EHRec$[ebp]
  0001f	64 a3 00 00 00
	00		 mov	 DWORD PTR fs:0, eax
  00025	c7 45 fc 00 00
	00 00		 mov	 DWORD PTR __$EHRec$[ebp+8], 0
  0002c	c7 45 f0 00 00
	00 00		 mov	 DWORD PTR $T2[ebp], 0
; File C:\Program Files\Microsoft Visual Studio\2022\Professional\VC\Tools\MSVC\14.44.35207\atlmfc\include\afxstr.h

; 56   : 		return( AfxGetStringManager() );

  00033	e8 00 00 00 00	 call	 ?AfxGetStringManager@@YGPAUIAtlStringMgr@ATL@@XZ ; AfxGetStringManager
  00038	8b c8		 mov	 ecx, eax
; File C:\Program Files\Microsoft Visual Studio\2022\Professional\VC\Tools\MSVC\14.44.35207\atlmfc\include\atlsimpstr.h

; 209  : 		ATLENSURE( pStringMgr != NULL );

  0003a	85 c9		 test	 ecx, ecx
  0003c	74 6f		 je	 SHORT $LN39@GetLangScr

; 210  : 		CStringData* pData = pStringMgr->GetNilString();

  0003e	8b 01		 mov	 eax, DWORD PTR [ecx]
  00040	ff 50 0c	 call	 DWORD PTR [eax+12]

; 211  : 		Attach( pData );

  00043	8b 7d 08	 mov	 edi, DWORD PTR ___$ReturnUdt$[ebp]
  00046	83 c0 10	 add	 eax, 16			; 00000010H
  00049	89 07		 mov	 DWORD PTR [edi], eax
; File C:\IAGOS\server\v18\Source\Source\_Common\ProjectCmn.cpp

; 932  : 	return string;

  0004b	8b 75 0c	 mov	 esi, DWORD PTR _script$[ebp]
  0004e	8b ce		 mov	 ecx, esi
  00050	6a 00		 push	 0
  00052	c7 45 fc 00 00
	00 00		 mov	 DWORD PTR __$EHRec$[ebp+8], 0
  00059	c7 45 f0 01 00
	00 00		 mov	 DWORD PTR $T2[ebp], 1
  00060	8b 06		 mov	 eax, DWORD PTR [esi]
  00062	ff 50 14	 call	 DWORD PTR [eax+20]
  00065	8d 46 20	 lea	 eax, DWORD PTR [esi+32]
  00068	8b cf		 mov	 ecx, edi
  0006a	50		 push	 eax
  0006b	e8 00 00 00 00	 call	 ??4?$CStringT@DV?$StrTraitMFC@DV?$ChTraitsCRT@D@ATL@@@@@ATL@@QAEAAV01@ABV01@@Z ; ATL::CStringT<char,StrTraitMFC<char,ATL::ChTraitsCRT<char> > >::operator=
  00070	8b 06		 mov	 eax, DWORD PTR [esi]
  00072	8b ce		 mov	 ecx, esi
  00074	6a 00		 push	 0
  00076	ff 50 14	 call	 DWORD PTR [eax+20]
  00079	8b 06		 mov	 eax, DWORD PTR [esi]
  0007b	8b ce		 mov	 ecx, esi
  0007d	6a 00		 push	 0
  0007f	ff 50 14	 call	 DWORD PTR [eax+20]
; File C:\Program Files\Microsoft Visual Studio\2022\Professional\VC\Tools\MSVC\14.44.35207\atlmfc\include\atlsimpstr.h

; 537  : 		return( GetLength() == 0 );

  00082	8b 0f		 mov	 ecx, DWORD PTR [edi]
  00084	83 79 f4 00	 cmp	 DWORD PTR [ecx-12], 0
; File C:\IAGOS\server\v18\Source\Source\_Common\ProjectCmn.cpp

; 930  : 	if( string.IsEmpty() )

  00088	75 0e		 jne	 SHORT $LN2@GetLangScr
; File C:\Program Files\Microsoft Visual Studio\2022\Professional\VC\Tools\MSVC\14.44.35207\atlmfc\include\atlsimpstr.h

; 606  : 		SetString( pszSrc, StringLength( pszSrc ) );

  0008a	6a 01		 push	 1
  0008c	68 00 00 00 00	 push	 OFFSET ??_C@_01CLKCMJKC@?5@
  00091	8b cf		 mov	 ecx, edi
  00093	e8 00 00 00 00	 call	 ?SetString@?$CSimpleStringT@D$0A@@ATL@@QAEXPBDH@Z ; ATL::CSimpleStringT<char,0>::SetString
$LN2@GetLangScr:
; File C:\IAGOS\server\v18\Source\Source\_Common\ProjectCmn.cpp

; 932  : 	return string;

  00098	8b c7		 mov	 eax, edi

; 933  : }

  0009a	8b 4d f4	 mov	 ecx, DWORD PTR __$EHRec$[ebp]
  0009d	64 89 0d 00 00
	00 00		 mov	 DWORD PTR fs:0, ecx
  000a4	59		 pop	 ecx
  000a5	5f		 pop	 edi
  000a6	5e		 pop	 esi
  000a7	8b e5		 mov	 esp, ebp
  000a9	5d		 pop	 ebp
  000aa	c2 08 00	 ret	 8
$LN39@GetLangScr:
; File C:\Program Files\Microsoft Visual Studio\2022\Professional\VC\Tools\MSVC\14.44.35207\atlmfc\include\atlsimpstr.h

; 209  : 		ATLENSURE( pStringMgr != NULL );

  000ad	68 05 40 00 80	 push	 -2147467259		; 80004005H
  000b2	e8 00 00 00 00	 call	 ?AtlThrowImpl@ATL@@YGXJ@Z ; ATL::AtlThrowImpl
$LN37@GetLangScr:
  000b7	cc		 int	 3
_TEXT	ENDS
;	COMDAT text$x
text$x	SEGMENT
__unwindfunclet$?GetLangScript@CProject@@QAE?AV?$CStringT@DV?$StrTraitMFC@DV?$ChTraitsCRT@D@ATL@@@@@ATL@@AAVCScript@@@Z$0:
  00000	8b 45 f0	 mov	 eax, DWORD PTR $T2[ebp]
  00003	83 e0 01	 and	 eax, 1
  00006	0f 84 0c 00 00
	00		 je	 $LN5@GetLangScr
  0000c	83 65 f0 fe	 and	 DWORD PTR $T2[ebp], -2	; fffffffeH
  00010	8b 4d 08	 mov	 ecx, DWORD PTR ___$ReturnUdt$[ebp]
  00013	e9 00 00 00 00	 jmp	 ??1?$CStringT@DV?$StrTraitMFC@DV?$ChTraitsCRT@D@ATL@@@@@ATL@@QAE@XZ ; ATL::CStringT<char,StrTraitMFC<char,ATL::ChTraitsCRT<char> > >::~CStringT<char,StrTraitMFC<char,ATL::ChTraitsCRT<char> > >
$LN5@GetLangScr:
  00018	c3		 ret	 0
  00019	cc		 int	 3
  0001a	cc		 int	 3
  0001b	cc		 int	 3
  0001c	cc		 int	 3
  0001d	cc		 int	 3
__ehhandler$?GetLangScript@CProject@@QAE?AV?$CStringT@DV?$StrTraitMFC@DV?$ChTraitsCRT@D@ATL@@@@@ATL@@AAVCScript@@@Z:
  0001e	90		 npad	 1
  0001f	90		 npad	 1
  00020	8b 54 24 08	 mov	 edx, DWORD PTR [esp+8]
  00024	8d 42 0c	 lea	 eax, DWORD PTR [edx+12]
  00027	8b 4a f0	 mov	 ecx, DWORD PTR [edx-16]
  0002a	33 c8		 xor	 ecx, eax
  0002c	e8 00 00 00 00	 call	 @__security_check_cookie@4
  00031	b8 00 00 00 00	 mov	 eax, OFFSET __ehfuncinfo$?GetLangScript@CProject@@QAE?AV?$CStringT@DV?$StrTraitMFC@DV?$ChTraitsCRT@D@ATL@@@@@ATL@@AAVCScript@@@Z
  00036	e9 00 00 00 00	 jmp	 ___CxxFrameHandler3
text$x	ENDS
?GetLangScript@CProject@@QAE?AV?$CStringT@DV?$StrTraitMFC@DV?$ChTraitsCRT@D@ATL@@@@@ATL@@AAVCScript@@@Z ENDP ; CProject::GetLangScript
; Function compile flags: /Ogtp
; File C:\IAGOS\server\v18\Source\Source\_Common\ProjectCmn.cpp
; File C:\Program Files\Microsoft Visual Studio\2022\Professional\VC\Tools\MSVC\14.44.35207\atlmfc\include\afxstr.h
; File C:\Program Files\Microsoft Visual Studio\2022\Professional\VC\Tools\MSVC\14.44.35207\atlmfc\include\atlsimpstr.h
; File C:\Program Files\Microsoft Visual Studio\2022\Professional\VC\Tools\MSVC\14.44.35207\atlmfc\include\cstringt.h
; File C:\Program Files\Microsoft Visual Studio\2022\Professional\VC\Tools\MSVC\14.44.35207\atlmfc\include\atlsimpstr.h
; File C:\IAGOS\server\v18\Source\Source\_Common\ProjectCmn.cpp
; File C:\Program Files\Microsoft Visual Studio\2022\Professional\VC\Tools\MSVC\14.44.35207\atlmfc\include\atlsimpstr.h
; File C:\IAGOS\server\v18\Source\Source\_Common\ProjectCmn.cpp
; File C:\Program Files\Microsoft Visual Studio\2022\Professional\VC\Tools\MSVC\14.44.35207\atlmfc\include\atlsimpstr.h
; File C:\IAGOS\server\v18\Source\Source\_Common\ProjectCmn.cpp
; File C:\Program Files\Microsoft Visual Studio\2022\Professional\VC\Tools\MSVC\14.44.35207\atlmfc\include\afxcoll.inl
; File C:\Program Files\Microsoft Visual Studio\2022\Professional\VC\Tools\MSVC\14.44.35207\atlmfc\include\atlsimpstr.h
; File C:\IAGOS\server\v18\Source\Source\_Common\ProjectCmn.cpp
; File C:\IAGOS\server\v18\Source\Source\_Common\Data.h
; File C:\Program Files\Microsoft Visual Studio\2022\Professional\VC\Tools\MSVC\14.44.35207\atlmfc\include\afxcoll.inl
; File C:\IAGOS\server\v18\Source\Source\_Common\ProjectCmn.cpp
; File C:\Program Files\Microsoft Visual Studio\2022\Professional\VC\Tools\MSVC\14.44.35207\atlmfc\include\afxcoll.inl
; File C:\IAGOS\server\v18\Source\Source\_Common\ProjectCmn.cpp
; File C:\Program Files\Microsoft Visual Studio\2022\Professional\VC\Tools\MSVC\14.44.35207\atlmfc\include\afxcoll.inl
; File C:\Program Files\Microsoft Visual Studio\2022\Professional\VC\Tools\MSVC\14.44.35207\atlmfc\include\atlsimpstr.h
; File C:\IAGOS\server\v18\Source\Source\_Common\ProjectCmn.cpp
;	COMDAT ?LoadText@CProject@@QAEHPBD@Z
_TEXT	SEGMENT
_colorArray$ = -7852					; size = 20
_colorText$ = -7832					; size = 8
_dwColor$1$ = -7828					; size = 4
_strArray$ = -7824					; size = 20
_str$2 = -7804						; size = 4
_scanner$ = -7800					; size = 7784
__$ArrayPad$ = -16					; size = 4
__$EHRec$ = -12						; size = 12
_lpszFileName$ = 8					; size = 4
?LoadText@CProject@@QAEHPBD@Z PROC			; CProject::LoadText, COMDAT
; _this$ = ecx

; 874  : {

  00000	55		 push	 ebp
  00001	8b ec		 mov	 ebp, esp
  00003	6a ff		 push	 -1
  00005	68 00 00 00 00	 push	 __ehhandler$?LoadText@CProject@@QAEHPBD@Z
  0000a	64 a1 00 00 00
	00		 mov	 eax, DWORD PTR fs:0
  00010	50		 push	 eax
  00011	b8 a0 1e 00 00	 mov	 eax, 7840		; 00001ea0H
  00016	e8 00 00 00 00	 call	 __chkstk
  0001b	a1 00 00 00 00	 mov	 eax, DWORD PTR ___security_cookie
  00020	33 c5		 xor	 eax, ebp
  00022	89 45 f0	 mov	 DWORD PTR __$ArrayPad$[ebp], eax
  00025	53		 push	 ebx
  00026	56		 push	 esi
  00027	57		 push	 edi
  00028	50		 push	 eax
  00029	8d 45 f4	 lea	 eax, DWORD PTR __$EHRec$[ebp]
  0002c	64 a3 00 00 00
	00		 mov	 DWORD PTR fs:0, eax
  00032	8b d9		 mov	 ebx, ecx
  00034	8b 75 08	 mov	 esi, DWORD PTR _lpszFileName$[ebp]

; 875  : 	tagColorText colorText, *pColorText;
; 876  : 
; 877  : 	CScript scanner;

  00037	8d 8d 88 e1 ff
	ff		 lea	 ecx, DWORD PTR _scanner$[ebp]
  0003d	6a 00		 push	 0
  0003f	e8 00 00 00 00	 call	 ??0CScript@@QAE@H@Z	; CScript::CScript

; 878  : 	if( scanner.Load( lpszFileName ) == FALSE )

  00044	6a 00		 push	 0
  00046	6a 01		 push	 1
  00048	56		 push	 esi
  00049	8d 8d 88 e1 ff
	ff		 lea	 ecx, DWORD PTR _scanner$[ebp]
  0004f	c7 45 fc 00 00
	00 00		 mov	 DWORD PTR __$EHRec$[ebp+8], 0
  00056	e8 00 00 00 00	 call	 ?Load@CScript@@QAEHPBDHH@Z ; CScript::Load
  0005b	85 c0		 test	 eax, eax
  0005d	75 07		 jne	 SHORT $LN8@LoadText
  0005f	33 f6		 xor	 esi, esi
  00061	e9 fa 01 00 00	 jmp	 $LN16@LoadText
$LN8@LoadText:

; 879  : 		return FALSE;
; 880  : 
; 881  : 	CStringArray strArray;

  00066	8d 8d 70 e1 ff
	ff		 lea	 ecx, DWORD PTR _strArray$[ebp]
  0006c	e8 00 00 00 00	 call	 ??0CStringArray@@QAE@XZ	; CStringArray::CStringArray

; 882  : 	CDWordArray  colorArray;

  00071	8d 8d 54 e1 ff
	ff		 lea	 ecx, DWORD PTR _colorArray$[ebp]
  00077	c6 45 fc 01	 mov	 BYTE PTR __$EHRec$[ebp+8], 1
  0007b	e8 00 00 00 00	 call	 ??0CDWordArray@@QAE@XZ	; CDWordArray::CDWordArray

; 883  : 	DWORD dwId = scanner.GetNumber();

  00080	6a 00		 push	 0
  00082	8d 8d 88 e1 ff
	ff		 lea	 ecx, DWORD PTR _scanner$[ebp]
  00088	c6 45 fc 02	 mov	 BYTE PTR __$EHRec$[ebp+8], 2
  0008c	e8 00 00 00 00	 call	 ?GetNumber@CScanner@@QAEHH@Z ; CScanner::GetNumber
  00091	8b f8		 mov	 edi, eax
$LL4@LoadText:

; 884  : 
; 885  : 	do {
; 886  : 		DWORD dwColor = scanner.GetNumber(); // color

  00093	6a 00		 push	 0
  00095	8d 8d 88 e1 ff
	ff		 lea	 ecx, DWORD PTR _scanner$[ebp]
  0009b	e8 00 00 00 00	 call	 ?GetNumber@CScanner@@QAEHH@Z ; CScanner::GetNumber

; 887  : 		scanner.GetToken();

  000a0	6a 00		 push	 0
  000a2	8d 8d 88 e1 ff
	ff		 lea	 ecx, DWORD PTR _scanner$[ebp]
  000a8	89 85 6c e1 ff
	ff		 mov	 DWORD PTR _dwColor$1$[ebp], eax
  000ae	e8 00 00 00 00	 call	 ?GetToken@CScript@@UAEHH@Z ; CScript::GetToken

; 888  : 		if( *scanner.token  == '{' )

  000b3	8b 85 c4 e1 ff
	ff		 mov	 eax, DWORD PTR _scanner$[ebp+60]
  000b9	80 38 7b	 cmp	 BYTE PTR [eax], 123	; 0000007bH
  000bc	0f 85 dd 00 00
	00		 jne	 $LN54@LoadText

; 889  : 		{
; 890  : 
; 891  : 			scanner.GetToken();

  000c2	6a 00		 push	 0
  000c4	8d 8d 88 e1 ff
	ff		 lea	 ecx, DWORD PTR _scanner$[ebp]
  000ca	e8 00 00 00 00	 call	 ?GetToken@CScript@@UAEHH@Z ; CScript::GetToken

; 892  : 			CString str	= scanner.token;

  000cf	8b b5 c4 e1 ff
	ff		 mov	 esi, DWORD PTR _scanner$[ebp+60]
; File C:\Program Files\Microsoft Visual Studio\2022\Professional\VC\Tools\MSVC\14.44.35207\atlmfc\include\afxstr.h

; 56   : 		return( AfxGetStringManager() );

  000d5	e8 00 00 00 00	 call	 ?AfxGetStringManager@@YGPAUIAtlStringMgr@ATL@@XZ ; AfxGetStringManager
  000da	8b c8		 mov	 ecx, eax
; File C:\Program Files\Microsoft Visual Studio\2022\Professional\VC\Tools\MSVC\14.44.35207\atlmfc\include\atlsimpstr.h

; 209  : 		ATLENSURE( pStringMgr != NULL );

  000dc	85 c9		 test	 ecx, ecx
  000de	0f 84 ac 01 00
	00		 je	 $LN79@LoadText

; 210  : 		CStringData* pData = pStringMgr->GetNilString();

  000e4	8b 01		 mov	 eax, DWORD PTR [ecx]
  000e6	ff 50 0c	 call	 DWORD PTR [eax+12]

; 211  : 		Attach( pData );

  000e9	83 c0 10	 add	 eax, 16			; 00000010H
  000ec	89 85 84 e1 ff
	ff		 mov	 DWORD PTR _str$2[ebp], eax
; File C:\Program Files\Microsoft Visual Studio\2022\Professional\VC\Tools\MSVC\14.44.35207\atlmfc\include\cstringt.h

; 1052 : 		CThisSimpleString( StringTraits::GetDefaultManager() )

  000f2	c6 45 fc 03	 mov	 BYTE PTR __$EHRec$[ebp+8], 3

; 2712 : 		if( (pv != NULL) && IS_INTRESOURCE( pv ) )

  000f6	85 f6		 test	 esi, esi
  000f8	74 29		 je	 SHORT $LN92@LoadText
  000fa	f7 c6 00 00 ff
	ff		 test	 esi, -65536		; ffff0000H
  00100	75 11		 jne	 SHORT $LN44@LoadText

; 2713 : 		{
; 2714 : 			UINT nID = LOWORD( reinterpret_cast< DWORD_PTR >( pv ) );

  00102	0f b7 c6	 movzx	 eax, si

; 2715 : 			(nID);
; 2716 : #ifdef _ATL_USE_WINAPI_FAMILY_DESKTOP_APP
; 2717 : 			if( !LoadString( nID ) )

  00105	8d 8d 84 e1 ff
	ff		 lea	 ecx, DWORD PTR _str$2[ebp]
  0010b	50		 push	 eax
  0010c	e8 00 00 00 00	 call	 ?LoadStringA@?$CStringT@DV?$StrTraitMFC@DV?$ChTraitsCRT@D@ATL@@@@@ATL@@QAEHI@Z ; ATL::CStringT<char,StrTraitMFC<char,ATL::ChTraitsCRT<char> > >::LoadStringA

; 1054 : 		if( !CheckImplicitLoad( pszSrc ) )

  00111	eb 1f		 jmp	 SHORT $LN18@LoadText
$LN44@LoadText:
; File C:\Program Files\Microsoft Visual Studio\2022\Professional\VC\Tools\MSVC\14.44.35207\atlmfc\include\atlsimpstr.h

; 730  : 		return( int( strlen( psz ) ) );

  00113	8b c6		 mov	 eax, esi
  00115	8d 50 01	 lea	 edx, DWORD PTR [eax+1]
$LL94@LoadText:
  00118	8a 08		 mov	 cl, BYTE PTR [eax]
  0011a	40		 inc	 eax
  0011b	84 c9		 test	 cl, cl
  0011d	75 f9		 jne	 SHORT $LL94@LoadText
  0011f	2b c2		 sub	 eax, edx
  00121	eb 02		 jmp	 SHORT $LN43@LoadText
$LN92@LoadText:

; 607  : 	}
; 608  : 	void SetString(
; 609  : 		_In_reads_opt_(nLength) PCXSTR pszSrc,
; 610  : 		_In_ int nLength)
; 611  : 	{
; 612  : 		if( nLength == 0 )
; 613  : 		{
; 614  : 			Empty();
; 615  : 		}
; 616  : 		else
; 617  : 		{
; 618  : 			// It is possible that pszSrc points to a location inside of our
; 619  : 			// buffer.  GetBuffer() might change m_pszData if (1) the buffer
; 620  : 			// is shared or (2) the buffer is too small to hold the new
; 621  : 			// string.  We detect this aliasing, and modify pszSrc to point
; 622  : 			// into the newly allocated buffer instead.
; 623  : 
; 624  : 			if(pszSrc == NULL)
; 625  : 				AtlThrow(E_INVALIDARG);
; 626  : 
; 627  : 			UINT nOldLength = GetLength();
; 628  : 			UINT_PTR nOffset = pszSrc-GetString();
; 629  : 			// If 0 <= nOffset <= nOldLength, then pszSrc points into our
; 630  : 			// buffer
; 631  : 
; 632  : 			PXSTR pszBuffer = GetBuffer( nLength );
; 633  : 			if( nOffset <= nOldLength )
; 634  : 			{
; 635  : 				CopyCharsOverlapped( pszBuffer, GetAllocLength(),
; 636  : 					pszBuffer+nOffset, nLength );
; 637  : 			}
; 638  : 			else
; 639  : 			{
; 640  : 				memcpy_s( pszBuffer, GetAllocLength() * sizeof( XCHAR ), pszSrc, nLength * sizeof( XCHAR ));
; 641  : 			}
; 642  : 			ReleaseBufferSetLength( nLength );
; 643  : 		}
; 644  : 	}
; 645  : 
; 646  : public:
; 647  : 	friend CSimpleStringT operator+(
; 648  : 		_In_ const CSimpleStringT& str1,
; 649  : 		_In_ const CSimpleStringT& str2)
; 650  : 	{
; 651  : 		CSimpleStringT s( str1.GetManager() );
; 652  : 
; 653  : 		Concatenate( s, str1, str1.GetLength(), str2, str2.GetLength() );
; 654  : 
; 655  : 		return( s );
; 656  : 	}
; 657  : 
; 658  : 	friend CSimpleStringT operator+(
; 659  : 		_In_ const CSimpleStringT& str1,
; 660  : 		_In_z_ PCXSTR psz2)
; 661  : 	{
; 662  : 		CSimpleStringT s( str1.GetManager() );
; 663  : 
; 664  : 		Concatenate( s, str1, str1.GetLength(), psz2, StringLength( psz2 ) );
; 665  : 
; 666  : 		return( s );
; 667  : 	}
; 668  : 
; 669  : 	friend CSimpleStringT operator+(
; 670  : 		_In_z_ PCXSTR psz1,
; 671  : 		_In_ const CSimpleStringT& str2)
; 672  : 	{
; 673  : 		CSimpleStringT s( str2.GetManager() );
; 674  : 
; 675  : 		Concatenate( s, psz1, StringLength( psz1 ), str2, str2.GetLength() );
; 676  : 
; 677  : 		return( s );
; 678  : 	}
; 679  : 
; 680  : 	_ATL_INSECURE_DEPRECATE("CSimpleStringT::CopyChars must be passed a buffer size")
; 681  : 	static void __cdecl CopyChars(
; 682  : 		_Out_writes_(nChars) XCHAR* pchDest,
; 683  : 		_In_reads_opt_(nChars) const XCHAR* pchSrc,
; 684  : 		_In_ int nChars) throw()
; 685  : 	{
; 686  : 		if (pchSrc != NULL)
; 687  : 		{
; 688  : 			#pragma warning (push)
; 689  : 			#pragma warning(disable : 4996)
; 690  : 			memcpy( pchDest, pchSrc, nChars*sizeof( XCHAR ) );
; 691  : 			#pragma warning (pop)
; 692  : 		}
; 693  : 	}
; 694  : 	static void __cdecl CopyChars(
; 695  : 		_Out_writes_to_(nDestLen,nChars) XCHAR* pchDest,
; 696  : 		_In_ size_t nDestLen,
; 697  : 		_In_reads_opt_(nChars) const XCHAR* pchSrc,
; 698  : 		_In_ int nChars) throw()
; 699  : 	{
; 700  : 		memcpy_s( pchDest, nDestLen*sizeof( XCHAR ),
; 701  : 			pchSrc, nChars*sizeof( XCHAR ) );
; 702  : 	}
; 703  : 
; 704  : 	_ATL_INSECURE_DEPRECATE("CSimpleStringT::CopyCharsOverlapped must be passed a buffer size")
; 705  : 	static void __cdecl CopyCharsOverlapped(
; 706  : 		_Out_writes_(nChars) XCHAR* pchDest,
; 707  : 		_In_reads_(nChars) const XCHAR* pchSrc,
; 708  : 		_In_ int nChars) throw()
; 709  : 	{
; 710  : 		#pragma warning (push)
; 711  : 		#pragma warning(disable : 4996)
; 712  : 		memmove( pchDest, pchSrc, nChars*sizeof( XCHAR ) );
; 713  : 		#pragma warning (pop)
; 714  : 	}
; 715  : 	static void __cdecl CopyCharsOverlapped(
; 716  : 		_Out_writes_to_(nDestLen, nDestLen) XCHAR* pchDest,
; 717  : 		_In_ size_t nDestLen,
; 718  : 		_In_reads_(nChars) const XCHAR* pchSrc,
; 719  : 		_In_ int nChars) throw()
; 720  : 	{
; 721  : 		memmove_s( pchDest, nDestLen*sizeof( XCHAR ),
; 722  : 			pchSrc, nChars*sizeof( XCHAR ) );
; 723  : 	}
; 724  : 	static int __cdecl StringLength(_In_opt_z_ const char* psz) throw()
; 725  : 	{
; 726  : 		if( psz == NULL )
; 727  : 		{
; 728  : 			return( 0 );

  00123	33 c0		 xor	 eax, eax
$LN43@LoadText:

; 606  : 		SetString( pszSrc, StringLength( pszSrc ) );

  00125	50		 push	 eax
  00126	56		 push	 esi
  00127	8d 8d 84 e1 ff
	ff		 lea	 ecx, DWORD PTR _str$2[ebp]
  0012d	e8 00 00 00 00	 call	 ?SetString@?$CSimpleStringT@D$0A@@ATL@@QAEXPBDH@Z ; ATL::CSimpleStringT<char,0>::SetString
$LN18@LoadText:
; File C:\IAGOS\server\v18\Source\Source\_Common\ProjectCmn.cpp

; 893  : 			str.Replace( "\"", "" );

  00132	68 00 00 00 00	 push	 OFFSET ??_C@_00CNPNBAHC@@
  00137	68 00 00 00 00	 push	 OFFSET ??_C@_01BJJEKLCA@?$CC@
  0013c	8d 8d 84 e1 ff
	ff		 lea	 ecx, DWORD PTR _str$2[ebp]
  00142	c6 45 fc 04	 mov	 BYTE PTR __$EHRec$[ebp+8], 4
  00146	e8 00 00 00 00	 call	 ?Replace@?$CStringT@DV?$StrTraitMFC@DV?$ChTraitsCRT@D@ATL@@@@@ATL@@QAEHPBD0@Z ; ATL::CStringT<char,StrTraitMFC<char,ATL::ChTraitsCRT<char> > >::Replace

; 894  : //			if( str.IsEmpty() )
; 895  : //				str	= "Empty";
; 896  : 			#ifdef _DEBUG
; 897  : 			if( strArray.GetSize() > (int)( dwId ) )
; 898  : 				if( strArray.GetAt( dwId ).IsEmpty() == FALSE )
; 899  : 					Error( "CProject::LoadText : °°Ŕş ľĆŔĚµđ Á¸Ŕç %d - %s", dwId, str );						
; 900  : 			#endif	// _DEBUG	
; 901  : 			strArray.SetAtGrow( dwId, str );

  0014b	8d 85 84 e1 ff
	ff		 lea	 eax, DWORD PTR _str$2[ebp]
  00151	50		 push	 eax
  00152	57		 push	 edi
  00153	8d 8d 70 e1 ff
	ff		 lea	 ecx, DWORD PTR _strArray$[ebp]
  00159	e8 00 00 00 00	 call	 ?SetAtGrow@CStringArray@@QAEXHABV?$CStringT@DV?$StrTraitMFC@DV?$ChTraitsCRT@D@ATL@@@@@ATL@@@Z ; CStringArray::SetAtGrow

; 902  : 			colorArray.SetAtGrow( dwId, dwColor );

  0015e	ff b5 6c e1 ff
	ff		 push	 DWORD PTR _dwColor$1$[ebp]
  00164	8d 8d 54 e1 ff
	ff		 lea	 ecx, DWORD PTR _colorArray$[ebp]
  0016a	57		 push	 edi
  0016b	e8 00 00 00 00	 call	 ?SetAtGrow@CDWordArray@@QAEXHK@Z ; CDWordArray::SetAtGrow

; 903  : 			scanner.GetToken();	// }

  00170	6a 00		 push	 0
  00172	8d 8d 88 e1 ff
	ff		 lea	 ecx, DWORD PTR _scanner$[ebp]
  00178	e8 00 00 00 00	 call	 ?GetToken@CScript@@UAEHH@Z ; CScript::GetToken
; File C:\Program Files\Microsoft Visual Studio\2022\Professional\VC\Tools\MSVC\14.44.35207\atlmfc\include\atlsimpstr.h

; 804  : 		return( reinterpret_cast< CStringData* >( m_pszData )-1 );

  0017d	8b 95 84 e1 ff
	ff		 mov	 edx, DWORD PTR _str$2[ebp]

; 92   : 		if( _InterlockedDecrement( &nRefs ) <= 0 )

  00183	83 c8 ff	 or	 eax, -1
; File C:\IAGOS\server\v18\Source\Source\_Common\ProjectCmn.cpp

; 904  : 		}

  00186	c6 45 fc 02	 mov	 BYTE PTR __$EHRec$[ebp+8], 2
; File C:\Program Files\Microsoft Visual Studio\2022\Professional\VC\Tools\MSVC\14.44.35207\atlmfc\include\atlsimpstr.h

; 804  : 		return( reinterpret_cast< CStringData* >( m_pszData )-1 );

  0018a	83 c2 f0	 add	 edx, -16		; fffffff0H

; 92   : 		if( _InterlockedDecrement( &nRefs ) <= 0 )

  0018d	f0 0f c1 42 0c	 lock	  xadd	 DWORD PTR [edx+12], eax
  00192	48		 dec	 eax
  00193	85 c0		 test	 eax, eax
  00195	7f 08		 jg	 SHORT $LN54@LoadText

; 93   : 		{
; 94   : 			pStringMgr->Free( this );

  00197	8b 0a		 mov	 ecx, DWORD PTR [edx]
  00199	52		 push	 edx
  0019a	8b 01		 mov	 eax, DWORD PTR [ecx]
  0019c	ff 50 04	 call	 DWORD PTR [eax+4]
$LN54@LoadText:
; File C:\IAGOS\server\v18\Source\Source\_Common\ProjectCmn.cpp

; 905  : 		dwId = scanner.GetNumber();	// next

  0019f	6a 00		 push	 0
  001a1	8d 8d 88 e1 ff
	ff		 lea	 ecx, DWORD PTR _scanner$[ebp]
  001a7	e8 00 00 00 00	 call	 ?GetNumber@CScanner@@QAEHH@Z ; CScanner::GetNumber

; 906  : 	} while( scanner.tok != FINISHED );

  001ac	83 bd cc e9 ff
	ff 15		 cmp	 DWORD PTR _scanner$[ebp+2116], 21 ; 00000015H
  001b3	8b f8		 mov	 edi, eax
  001b5	0f 85 d8 fe ff
	ff		 jne	 $LL4@LoadText

; 907  : 
; 908  : 	for( int i = 0; i < strArray.GetSize(); i++ )

  001bb	8b 8d 78 e1 ff
	ff		 mov	 ecx, DWORD PTR _strArray$[ebp+8]
  001c1	33 f6		 xor	 esi, esi
  001c3	85 c9		 test	 ecx, ecx
  001c5	7e 76		 jle	 SHORT $LN6@LoadText
$LL7@LoadText:
; File C:\Program Files\Microsoft Visual Studio\2022\Professional\VC\Tools\MSVC\14.44.35207\atlmfc\include\afxcoll.inl

; 289  : 		if( nIndex < 0 || nIndex >= m_nSize )

  001c7	85 f6		 test	 esi, esi
  001c9	0f 88 bc 00 00
	00		 js	 $LN81@LoadText
; File C:\Program Files\Microsoft Visual Studio\2022\Professional\VC\Tools\MSVC\14.44.35207\atlmfc\include\atlsimpstr.h

; 537  : 		return( GetLength() == 0 );

  001cf	8b 85 74 e1 ff
	ff		 mov	 eax, DWORD PTR _strArray$[ebp+4]
  001d5	8b 04 b0	 mov	 eax, DWORD PTR [eax+esi*4]
  001d8	83 78 f4 00	 cmp	 DWORD PTR [eax-12], 0
; File C:\IAGOS\server\v18\Source\Source\_Common\ProjectCmn.cpp

; 910  : 		if( strArray.GetAt( i ).IsEmpty() == FALSE )

  001dc	74 5a		 je	 SHORT $LN5@LoadText

; 911  : 		{
; 912  : 			m_colorText.SetAtGrow( i, &colorText );

  001de	6a 00		 push	 0
  001e0	8d 85 68 e1 ff
	ff		 lea	 eax, DWORD PTR _colorText$[ebp]
  001e6	50		 push	 eax
  001e7	56		 push	 esi
  001e8	8d 4b 60	 lea	 ecx, DWORD PTR [ebx+96]
  001eb	e8 00 00 00 00	 call	 ?SetAtGrow@?$CFixedArray@UtagColorText@@@@QAEXHPAUtagColorText@@H@Z ; CFixedArray<tagColorText>::SetAtGrow
; File C:\IAGOS\server\v18\Source\Source\_Common\Data.h

; 270  : 	if( dwIndex >= (DWORD)m_nMaxIndex )

  001f0	3b 73 78	 cmp	 esi, DWORD PTR [ebx+120]
  001f3	72 04		 jb	 SHORT $LN67@LoadText

; 271  : 		return NULL;

  001f5	33 ff		 xor	 edi, edi
  001f7	eb 06		 jmp	 SHORT $LN66@LoadText
$LN67@LoadText:

; 272  : 	return (T*) m_apOffset[ dwIndex ];

  001f9	8b 43 68	 mov	 eax, DWORD PTR [ebx+104]
  001fc	8b 3c b0	 mov	 edi, DWORD PTR [eax+esi*4]
$LN66@LoadText:
; File C:\Program Files\Microsoft Visual Studio\2022\Professional\VC\Tools\MSVC\14.44.35207\atlmfc\include\afxcoll.inl

; 117  : 		if( nIndex < 0 || nIndex >= m_nSize )

  001ff	3b b5 5c e1 ff
	ff		 cmp	 esi, DWORD PTR _colorArray$[ebp+8]
  00205	0f 8d 80 00 00
	00		 jge	 $LN81@LoadText
; File C:\IAGOS\server\v18\Source\Source\_Common\ProjectCmn.cpp

; 915  : 			pColorText->dwColor = colorArray.GetAt( i );

  0020b	8b 85 58 e1 ff
	ff		 mov	 eax, DWORD PTR _colorArray$[ebp+4]
  00211	8b 04 b0	 mov	 eax, DWORD PTR [eax+esi*4]
  00214	89 07		 mov	 DWORD PTR [edi], eax
; File C:\Program Files\Microsoft Visual Studio\2022\Professional\VC\Tools\MSVC\14.44.35207\atlmfc\include\afxcoll.inl

; 289  : 		if( nIndex < 0 || nIndex >= m_nSize )

  00216	3b b5 78 e1 ff
	ff		 cmp	 esi, DWORD PTR _strArray$[ebp+8]
  0021c	7d 6d		 jge	 SHORT $LN81@LoadText
; File C:\IAGOS\server\v18\Source\Source\_Common\ProjectCmn.cpp

; 916  : 			pColorText->lpszData = strdup( strArray.GetAt( i ) ) ;

  0021e	8b 85 74 e1 ff
	ff		 mov	 eax, DWORD PTR _strArray$[ebp+4]
  00224	ff 34 b0	 push	 DWORD PTR [eax+esi*4]
  00227	e8 00 00 00 00	 call	 _strdup
  0022c	89 47 04	 mov	 DWORD PTR [edi+4], eax
  0022f	83 c4 04	 add	 esp, 4
  00232	8b 8d 78 e1 ff
	ff		 mov	 ecx, DWORD PTR _strArray$[ebp+8]
$LN5@LoadText:

; 907  : 
; 908  : 	for( int i = 0; i < strArray.GetSize(); i++ )

  00238	46		 inc	 esi
  00239	3b f1		 cmp	 esi, ecx
  0023b	7c 8a		 jl	 SHORT $LL7@LoadText
$LN6@LoadText:

; 917  : 		}
; 918  : 	}
; 919  : 	m_colorText.Optimize();

  0023d	8d 4b 60	 lea	 ecx, DWORD PTR [ebx+96]
  00240	e8 00 00 00 00	 call	 ?Optimize@?$CFixedArray@UtagColorText@@@@QAEXXZ ; CFixedArray<tagColorText>::Optimize

; 920  : 	return TRUE;

  00245	8d 8d 54 e1 ff
	ff		 lea	 ecx, DWORD PTR _colorArray$[ebp]
  0024b	be 01 00 00 00	 mov	 esi, 1
  00250	e8 00 00 00 00	 call	 ??1CDWordArray@@UAE@XZ	; CDWordArray::~CDWordArray
  00255	8d 8d 70 e1 ff
	ff		 lea	 ecx, DWORD PTR _strArray$[ebp]
  0025b	e8 00 00 00 00	 call	 ??1CStringArray@@UAE@XZ	; CStringArray::~CStringArray
$LN16@LoadText:
  00260	8d 8d 88 e1 ff
	ff		 lea	 ecx, DWORD PTR _scanner$[ebp]
  00266	e8 00 00 00 00	 call	 ??1CScript@@UAE@XZ	; CScript::~CScript
  0026b	8b c6		 mov	 eax, esi

; 921  : }

  0026d	8b 4d f4	 mov	 ecx, DWORD PTR __$EHRec$[ebp]
  00270	64 89 0d 00 00
	00 00		 mov	 DWORD PTR fs:0, ecx
  00277	59		 pop	 ecx
  00278	5f		 pop	 edi
  00279	5e		 pop	 esi
  0027a	5b		 pop	 ebx
  0027b	8b 4d f0	 mov	 ecx, DWORD PTR __$ArrayPad$[ebp]
  0027e	33 cd		 xor	 ecx, ebp
  00280	e8 00 00 00 00	 call	 @__security_check_cookie@4
  00285	8b e5		 mov	 esp, ebp
  00287	5d		 pop	 ebp
  00288	c2 04 00	 ret	 4
$LN81@LoadText:
; File C:\Program Files\Microsoft Visual Studio\2022\Professional\VC\Tools\MSVC\14.44.35207\atlmfc\include\afxcoll.inl

; 290  : 			AfxThrowInvalidArgException();

  0028b	e8 00 00 00 00	 call	 ?AfxThrowInvalidArgException@@YGXXZ ; AfxThrowInvalidArgException
$LN79@LoadText:
; File C:\Program Files\Microsoft Visual Studio\2022\Professional\VC\Tools\MSVC\14.44.35207\atlmfc\include\atlsimpstr.h

; 209  : 		ATLENSURE( pStringMgr != NULL );

  00290	68 05 40 00 80	 push	 -2147467259		; 80004005H
  00295	e8 00 00 00 00	 call	 ?AtlThrowImpl@ATL@@YGXJ@Z ; ATL::AtlThrowImpl
$LN96@LoadText:
  0029a	cc		 int	 3
_TEXT	ENDS
;	COMDAT text$x
text$x	SEGMENT
__unwindfunclet$?LoadText@CProject@@QAEHPBD@Z$0:
  00000	8d 8d 88 e1 ff
	ff		 lea	 ecx, DWORD PTR _scanner$[ebp]
  00006	e9 00 00 00 00	 jmp	 ??1CScript@@UAE@XZ	; CScript::~CScript
__unwindfunclet$?LoadText@CProject@@QAEHPBD@Z$1:
  0000b	8d 8d 70 e1 ff
	ff		 lea	 ecx, DWORD PTR _strArray$[ebp]
  00011	e9 00 00 00 00	 jmp	 ??1CStringArray@@UAE@XZ	; CStringArray::~CStringArray
__unwindfunclet$?LoadText@CProject@@QAEHPBD@Z$2:
  00016	8d 8d 54 e1 ff
	ff		 lea	 ecx, DWORD PTR _colorArray$[ebp]
  0001c	e9 00 00 00 00	 jmp	 ??1CDWordArray@@UAE@XZ	; CDWordArray::~CDWordArray
__unwindfunclet$?LoadText@CProject@@QAEHPBD@Z$4:
  00021	8d 8d 84 e1 ff
	ff		 lea	 ecx, DWORD PTR _str$2[ebp]
  00027	e9 00 00 00 00	 jmp	 ??1?$CSimpleStringT@D$0A@@ATL@@QAE@XZ ; ATL::CSimpleStringT<char,0>::~CSimpleStringT<char,0>
__unwindfunclet$?LoadText@CProject@@QAEHPBD@Z$3:
  0002c	8d 8d 84 e1 ff
	ff		 lea	 ecx, DWORD PTR _str$2[ebp]
  00032	e9 00 00 00 00	 jmp	 ??1?$CStringT@DV?$StrTraitMFC@DV?$ChTraitsCRT@D@ATL@@@@@ATL@@QAE@XZ ; ATL::CStringT<char,StrTraitMFC<char,ATL::ChTraitsCRT<char> > >::~CStringT<char,StrTraitMFC<char,ATL::ChTraitsCRT<char> > >
  00037	cc		 int	 3
  00038	cc		 int	 3
  00039	cc		 int	 3
  0003a	cc		 int	 3
  0003b	cc		 int	 3
__ehhandler$?LoadText@CProject@@QAEHPBD@Z:
  0003c	90		 npad	 1
  0003d	90		 npad	 1
  0003e	8b 54 24 08	 mov	 edx, DWORD PTR [esp+8]
  00042	8d 42 0c	 lea	 eax, DWORD PTR [edx+12]
  00045	8b 8a 50 e1 ff
	ff		 mov	 ecx, DWORD PTR [edx-7856]
  0004b	33 c8		 xor	 ecx, eax
  0004d	e8 00 00 00 00	 call	 @__security_check_cookie@4
  00052	8b 4a fc	 mov	 ecx, DWORD PTR [edx-4]
  00055	33 c8		 xor	 ecx, eax
  00057	e8 00 00 00 00	 call	 @__security_check_cookie@4
  0005c	b8 00 00 00 00	 mov	 eax, OFFSET __ehfuncinfo$?LoadText@CProject@@QAEHPBD@Z
  00061	e9 00 00 00 00	 jmp	 ___CxxFrameHandler3
text$x	ENDS
?LoadText@CProject@@QAEHPBD@Z ENDP			; CProject::LoadText
; Function compile flags: /Ogtp
; File C:\IAGOS\server\v18\Source\Source\_Common\ProjectCmn.cpp
; File C:\Program Files\Microsoft Visual Studio\2022\Professional\VC\Tools\MSVC\14.44.35207\atlmfc\include\cstringt.h
; File C:\IAGOS\server\v18\Source\Source\_Common\ProjectCmn.cpp
; File C:\Program Files\Microsoft Visual Studio\2022\Professional\VC\Tools\MSVC\14.44.35207\atlmfc\include\cstringt.h
; File C:\IAGOS\server\v18\Source\Source\_Common\ProjectCmn.cpp
; File C:\Program Files\Microsoft Visual Studio\2022\Professional\VC\Tools\MSVC\14.44.35207\atlmfc\include\cstringt.h
; File C:\IAGOS\server\v18\Source\Source\_Common\ProjectCmn.cpp
; File C:\Program Files\Microsoft Visual Studio\2022\Professional\VC\Tools\MSVC\14.44.35207\atlmfc\include\cstringt.h
; File C:\IAGOS\server\v18\Source\Source\_Common\ProjectCmn.cpp
; File C:\Program Files\Microsoft Visual Studio\2022\Professional\VC\Tools\MSVC\14.44.35207\atlmfc\include\cstringt.h
; File C:\IAGOS\server\v18\Source\Source\_Common\ProjectCmn.cpp
;	COMDAT ?LoadJobItem@CProject@@QAEHPBD@Z
_TEXT	SEGMENT
_this$GSCopy$1$ = -7812					; size = 4
_nJob$1$ = -7808					; size = 4
tv491 = -7804						; size = 4
_script$ = -7800					; size = 7784
__$ArrayPad$ = -16					; size = 4
__$EHRec$ = -12						; size = 12
_lpszFileName$ = 8					; size = 4
?LoadJobItem@CProject@@QAEHPBD@Z PROC			; CProject::LoadJobItem, COMDAT
; _this$ = ecx

; 68   : {

  00000	55		 push	 ebp
  00001	8b ec		 mov	 ebp, esp
  00003	6a ff		 push	 -1
  00005	68 00 00 00 00	 push	 __ehhandler$?LoadJobItem@CProject@@QAEHPBD@Z
  0000a	64 a1 00 00 00
	00		 mov	 eax, DWORD PTR fs:0
  00010	50		 push	 eax
  00011	b8 78 1e 00 00	 mov	 eax, 7800		; 00001e78H
  00016	e8 00 00 00 00	 call	 __chkstk
  0001b	a1 00 00 00 00	 mov	 eax, DWORD PTR ___security_cookie
  00020	33 c5		 xor	 eax, ebp
  00022	89 45 f0	 mov	 DWORD PTR __$ArrayPad$[ebp], eax
  00025	53		 push	 ebx
  00026	56		 push	 esi
  00027	57		 push	 edi
  00028	50		 push	 eax
  00029	8d 45 f4	 lea	 eax, DWORD PTR __$EHRec$[ebp]
  0002c	64 a3 00 00 00
	00		 mov	 DWORD PTR fs:0, eax
  00032	8b d9		 mov	 ebx, ecx
  00034	89 9d 7c e1 ff
	ff		 mov	 DWORD PTR _this$GSCopy$1$[ebp], ebx
  0003a	8b 75 08	 mov	 esi, DWORD PTR _lpszFileName$[ebp]

; 69   : 	CScript script;

  0003d	8d 8d 88 e1 ff
	ff		 lea	 ecx, DWORD PTR _script$[ebp]
  00043	6a 00		 push	 0
  00045	e8 00 00 00 00	 call	 ??0CScript@@QAE@H@Z	; CScript::CScript

; 70   : 	if( script.Load( lpszFileName ) == FALSE )

  0004a	6a 00		 push	 0
  0004c	6a 01		 push	 1
  0004e	56		 push	 esi
  0004f	8d 8d 88 e1 ff
	ff		 lea	 ecx, DWORD PTR _script$[ebp]
  00055	c7 45 fc 00 00
	00 00		 mov	 DWORD PTR __$EHRec$[ebp+8], 0
  0005c	e8 00 00 00 00	 call	 ?Load@CScript@@QAEHPBDHH@Z ; CScript::Load
  00061	85 c0		 test	 eax, eax
  00063	75 07		 jne	 SHORT $LN8@LoadJobIte
  00065	33 f6		 xor	 esi, esi
  00067	e9 eb 01 00 00	 jmp	 $LN14@LoadJobIte
$LN8@LoadJobIte:

; 71   : 		return FALSE;
; 72   : 	script.GetToken();

  0006c	6a 00		 push	 0
  0006e	8d 8d 88 e1 ff
	ff		 lea	 ecx, DWORD PTR _script$[ebp]
  00074	e8 00 00 00 00	 call	 ?GetToken@CScript@@UAEHH@Z ; CScript::GetToken

; 73   : 	int nJob, nSex, i, j, nItem;
; 74   : 	memset( m_jobItem, 0xff, sizeof( m_jobItem ) );

  00079	68 d0 16 00 00	 push	 5840			; 000016d0H
  0007e	8d 83 6c fe 04
	00		 lea	 eax, DWORD PTR [ebx+327276]
  00084	68 ff 00 00 00	 push	 255			; 000000ffH
  00089	50		 push	 eax
  0008a	e8 00 00 00 00	 call	 _memset
  0008f	83 c4 0c	 add	 esp, 12			; 0000000cH

; 75   : 	while( script.tok != FINISHED )

  00092	83 bd cc e9 ff
	ff 15		 cmp	 DWORD PTR _script$[ebp+2116], 21 ; 00000015H
  00099	0f 84 b3 01 00
	00		 je	 $LN105@LoadJobIte
  0009f	90		 npad	 1
$LL2@LoadJobIte:
; File C:\Program Files\Microsoft Visual Studio\2022\Professional\VC\Tools\MSVC\14.44.35207\atlmfc\include\cstringt.h

; 184  : 		return _mbscmp( reinterpret_cast< const unsigned char* >( pszA ), reinterpret_cast< const unsigned char* >( pszB ) );

  000a0	68 00 00 00 00	 push	 OFFSET ??_C@_03JOGALCLM@job@
  000a5	ff b5 a8 e1 ff
	ff		 push	 DWORD PTR _script$[ebp+32]
  000ab	e8 00 00 00 00	 call	 __mbscmp
  000b0	83 c4 08	 add	 esp, 8

; 2490 : 		return(str1.Compare(psz2) == 0);

  000b3	85 c0		 test	 eax, eax
; File C:\IAGOS\server\v18\Source\Source\_Common\ProjectCmn.cpp

; 77   : 		if( script.Token == _T( "job" ) )

  000b5	0f 85 7d 01 00
	00		 jne	 $LN5@LoadJobIte

; 78   : 		{
; 79   : 			nJob = script.GetNumber();

  000bb	50		 push	 eax
  000bc	8d 8d 88 e1 ff
	ff		 lea	 ecx, DWORD PTR _script$[ebp]
  000c2	e8 00 00 00 00	 call	 ?GetNumber@CScanner@@QAEHH@Z ; CScanner::GetNumber
  000c7	8b f0		 mov	 esi, eax

; 80   : 			script.GetToken(); // {

  000c9	8d 8d 88 e1 ff
	ff		 lea	 ecx, DWORD PTR _script$[ebp]
  000cf	6a 00		 push	 0
  000d1	89 b5 80 e1 ff
	ff		 mov	 DWORD PTR _nJob$1$[ebp], esi
  000d7	e8 00 00 00 00	 call	 ?GetToken@CScript@@UAEHH@Z ; CScript::GetToken

; 81   : 			script.GetToken(); // sex

  000dc	6a 00		 push	 0
  000de	8d 8d 88 e1 ff
	ff		 lea	 ecx, DWORD PTR _script$[ebp]
  000e4	e8 00 00 00 00	 call	 ?GetToken@CScript@@UAEHH@Z ; CScript::GetToken
  000e9	33 ff		 xor	 edi, edi
  000eb	89 bd 84 e1 ff
	ff		 mov	 DWORD PTR tv491[ebp], edi
  000f1	0f 1f 40 00 66
	66 66 0f 1f 84
	00 00 00 00 00	 npad	 15
$LL4@LoadJobIte:
; File C:\Program Files\Microsoft Visual Studio\2022\Professional\VC\Tools\MSVC\14.44.35207\atlmfc\include\cstringt.h

; 184  : 		return _mbscmp( reinterpret_cast< const unsigned char* >( pszA ), reinterpret_cast< const unsigned char* >( pszB ) );

  00100	68 00 00 00 00	 push	 OFFSET ??_C@_01CELHOKLL@?$HN@
  00105	ff b5 a8 e1 ff
	ff		 push	 DWORD PTR _script$[ebp+32]
  0010b	e8 00 00 00 00	 call	 __mbscmp
  00110	83 c4 08	 add	 esp, 8

; 2571 : 		return( str1.Compare( psz2 ) != 0 );

  00113	85 c0		 test	 eax, eax
; File C:\IAGOS\server\v18\Source\Source\_Common\ProjectCmn.cpp

; 83   : 			while( script.Token != _T( "}" ) )

  00115	0f 84 1d 01 00
	00		 je	 $LN5@LoadJobIte
; File C:\Program Files\Microsoft Visual Studio\2022\Professional\VC\Tools\MSVC\14.44.35207\atlmfc\include\cstringt.h

; 184  : 		return _mbscmp( reinterpret_cast< const unsigned char* >( pszA ), reinterpret_cast< const unsigned char* >( pszB ) );

  0011b	68 00 00 00 00	 push	 OFFSET ??_C@_03OMLNFKE@sex@
  00120	ff b5 a8 e1 ff
	ff		 push	 DWORD PTR _script$[ebp+32]
  00126	e8 00 00 00 00	 call	 __mbscmp
  0012b	83 c4 08	 add	 esp, 8

; 2490 : 		return(str1.Compare(psz2) == 0);

  0012e	85 c0		 test	 eax, eax
; File C:\IAGOS\server\v18\Source\Source\_Common\ProjectCmn.cpp

; 85   : 				if( script.Token == _T( "sex" ) )

  00130	75 7d		 jne	 SHORT $LN85@LoadJobIte

; 86   : 				{
; 87   : 					nSex = script.GetNumber();

  00132	50		 push	 eax
  00133	8d 8d 88 e1 ff
	ff		 lea	 ecx, DWORD PTR _script$[ebp]
  00139	e8 00 00 00 00	 call	 ?GetNumber@CScanner@@QAEHH@Z ; CScanner::GetNumber

; 88   : 					script.GetToken(); // {

  0013e	6a 00		 push	 0
  00140	8d 8d 88 e1 ff
	ff		 lea	 ecx, DWORD PTR _script$[ebp]
  00146	8b d8		 mov	 ebx, eax
  00148	e8 00 00 00 00	 call	 ?GetToken@CScript@@UAEHH@Z ; CScript::GetToken

; 89   : 					i = 0; nItem = script.GetNumber();

  0014d	33 f6		 xor	 esi, esi
  0014f	8d 8d 88 e1 ff
	ff		 lea	 ecx, DWORD PTR _script$[ebp]
  00155	56		 push	 esi
  00156	e8 00 00 00 00	 call	 ?GetNumber@CScanner@@QAEHH@Z ; CScanner::GetNumber
$LN115@LoadJobIte:
; File C:\Program Files\Microsoft Visual Studio\2022\Professional\VC\Tools\MSVC\14.44.35207\atlmfc\include\cstringt.h

; 184  : 		return _mbscmp( reinterpret_cast< const unsigned char* >( pszA ), reinterpret_cast< const unsigned char* >( pszB ) );

  0015b	68 00 00 00 00	 push	 OFFSET ??_C@_01CELHOKLL@?$HN@
  00160	ff b5 a8 e1 ff
	ff		 push	 DWORD PTR _script$[ebp+32]
  00166	8b f8		 mov	 edi, eax
  00168	e8 00 00 00 00	 call	 __mbscmp
  0016d	83 c4 08	 add	 esp, 8

; 2571 : 		return( str1.Compare( psz2 ) != 0 );

  00170	85 c0		 test	 eax, eax
; File C:\IAGOS\server\v18\Source\Source\_Common\ProjectCmn.cpp

; 90   : 					while( script.Token != _T( "}" ) )

  00172	74 29		 je	 SHORT $LN112@LoadJobIte

; 91   : 					{
; 92   : 						m_jobItem[ nJob ].adwMale[ i ][ nSex ] = nItem;

  00174	6b 85 80 e1 ff
	ff 49		 imul	 eax, DWORD PTR _nJob$1$[ebp], 73
  0017b	8b 8d 7c e1 ff
	ff		 mov	 ecx, DWORD PTR _this$GSCopy$1$[ebp]

; 93   : 						nItem = script.GetNumber();

  00181	6a 00		 push	 0
  00183	03 c6		 add	 eax, esi
  00185	8d 04 43	 lea	 eax, DWORD PTR [ebx+eax*2]
  00188	89 bc 81 6c fe
	04 00		 mov	 DWORD PTR [ecx+eax*4+327276], edi
  0018f	8d 8d 88 e1 ff
	ff		 lea	 ecx, DWORD PTR _script$[ebp]
  00195	e8 00 00 00 00	 call	 ?GetNumber@CScanner@@QAEHH@Z ; CScanner::GetNumber

; 94   : 						i++;

  0019a	46		 inc	 esi

; 95   : 					} 

  0019b	eb be		 jmp	 SHORT $LN115@LoadJobIte
$LN112@LoadJobIte:
  0019d	8b 9d 7c e1 ff
	ff		 mov	 ebx, DWORD PTR _this$GSCopy$1$[ebp]
  001a3	8b b5 80 e1 ff
	ff		 mov	 esi, DWORD PTR _nJob$1$[ebp]
  001a9	8b bd 84 e1 ff
	ff		 mov	 edi, DWORD PTR tv491[ebp]
$LN85@LoadJobIte:
; File C:\Program Files\Microsoft Visual Studio\2022\Professional\VC\Tools\MSVC\14.44.35207\atlmfc\include\cstringt.h

; 184  : 		return _mbscmp( reinterpret_cast< const unsigned char* >( pszA ), reinterpret_cast< const unsigned char* >( pszB ) );

  001af	68 00 00 00 00	 push	 OFFSET ??_C@_04NHONDGDE@item@
  001b4	ff b5 a8 e1 ff
	ff		 push	 DWORD PTR _script$[ebp+32]
  001ba	e8 00 00 00 00	 call	 __mbscmp
  001bf	83 c4 08	 add	 esp, 8

; 2490 : 		return(str1.Compare(psz2) == 0);

  001c2	85 c0		 test	 eax, eax
; File C:\IAGOS\server\v18\Source\Source\_Common\ProjectCmn.cpp

; 97   : 				if( script.Token == _T( "item" ) )

  001c4	75 5a		 jne	 SHORT $LN11@LoadJobIte

; 98   : 				{
; 99   : 					m_jobItem[ nJob ].beginItem[ j ].dwItemType = script.GetNumber();

  001c6	69 f6 48 02 00
	00		 imul	 esi, esi, 584
  001cc	8d 8d 88 e1 ff
	ff		 lea	 ecx, DWORD PTR _script$[ebp]
  001d2	50		 push	 eax
  001d3	03 fe		 add	 edi, esi
  001d5	e8 00 00 00 00	 call	 ?GetNumber@CScanner@@QAEHH@Z ; CScanner::GetNumber

; 100  : 					m_jobItem[ nJob ].beginItem[ j ].dwItemId   = script.GetNumber();

  001da	6a 00		 push	 0
  001dc	8d 8d 88 e1 ff
	ff		 lea	 ecx, DWORD PTR _script$[ebp]
  001e2	89 84 1f bc fe
	04 00		 mov	 DWORD PTR [edi+ebx+327356], eax
  001e9	e8 00 00 00 00	 call	 ?GetNumber@CScanner@@QAEHH@Z ; CScanner::GetNumber
  001ee	8b 8d 84 e1 ff
	ff		 mov	 ecx, DWORD PTR tv491[ebp]
  001f4	03 ce		 add	 ecx, esi

; 101  : 					m_jobItem[ nJob ].beginItem[ j ].dwNum      = script.GetNumber();

  001f6	6a 00		 push	 0
  001f8	89 84 19 c0 fe
	04 00		 mov	 DWORD PTR [ecx+ebx+327360], eax
  001ff	8d 8d 88 e1 ff
	ff		 lea	 ecx, DWORD PTR _script$[ebp]
  00205	e8 00 00 00 00	 call	 ?GetNumber@CScanner@@QAEHH@Z ; CScanner::GetNumber
  0020a	89 84 1f c4 fe
	04 00		 mov	 DWORD PTR [edi+ebx+327364], eax

; 102  : 					j++;

  00211	8b bd 84 e1 ff
	ff		 mov	 edi, DWORD PTR tv491[ebp]
  00217	83 c7 0c	 add	 edi, 12			; 0000000cH
  0021a	89 bd 84 e1 ff
	ff		 mov	 DWORD PTR tv491[ebp], edi
$LN11@LoadJobIte:

; 103  : 				}
; 104  : 				script.GetToken();

  00220	6a 00		 push	 0
  00222	8d 8d 88 e1 ff
	ff		 lea	 ecx, DWORD PTR _script$[ebp]
  00228	e8 00 00 00 00	 call	 ?GetToken@CScript@@UAEHH@Z ; CScript::GetToken

; 105  : 			}

  0022d	8b b5 80 e1 ff
	ff		 mov	 esi, DWORD PTR _nJob$1$[ebp]
  00233	e9 c8 fe ff ff	 jmp	 $LL4@LoadJobIte
$LN5@LoadJobIte:

; 106  : 		}
; 107  : 		script.GetToken();

  00238	6a 00		 push	 0
  0023a	8d 8d 88 e1 ff
	ff		 lea	 ecx, DWORD PTR _script$[ebp]
  00240	e8 00 00 00 00	 call	 ?GetToken@CScript@@UAEHH@Z ; CScript::GetToken
  00245	83 bd cc e9 ff
	ff 15		 cmp	 DWORD PTR _script$[ebp+2116], 21 ; 00000015H
  0024c	0f 85 4e fe ff
	ff		 jne	 $LL2@LoadJobIte
$LN105@LoadJobIte:

; 108  : 	}
; 109  : 	return TRUE;

  00252	be 01 00 00 00	 mov	 esi, 1
$LN14@LoadJobIte:
  00257	8d 8d 88 e1 ff
	ff		 lea	 ecx, DWORD PTR _script$[ebp]
  0025d	e8 00 00 00 00	 call	 ??1CScript@@UAE@XZ	; CScript::~CScript
  00262	8b c6		 mov	 eax, esi

; 110  : }

  00264	8b 4d f4	 mov	 ecx, DWORD PTR __$EHRec$[ebp]
  00267	64 89 0d 00 00
	00 00		 mov	 DWORD PTR fs:0, ecx
  0026e	59		 pop	 ecx
  0026f	5f		 pop	 edi
  00270	5e		 pop	 esi
  00271	5b		 pop	 ebx
  00272	8b 4d f0	 mov	 ecx, DWORD PTR __$ArrayPad$[ebp]
  00275	33 cd		 xor	 ecx, ebp
  00277	e8 00 00 00 00	 call	 @__security_check_cookie@4
  0027c	8b e5		 mov	 esp, ebp
  0027e	5d		 pop	 ebp
  0027f	c2 04 00	 ret	 4
_TEXT	ENDS
;	COMDAT text$x
text$x	SEGMENT
__unwindfunclet$?LoadJobItem@CProject@@QAEHPBD@Z$0:
  00000	8d 8d 88 e1 ff
	ff		 lea	 ecx, DWORD PTR _script$[ebp]
  00006	e9 00 00 00 00	 jmp	 ??1CScript@@UAE@XZ	; CScript::~CScript
  0000b	cc		 int	 3
  0000c	cc		 int	 3
  0000d	cc		 int	 3
  0000e	cc		 int	 3
  0000f	cc		 int	 3
__ehhandler$?LoadJobItem@CProject@@QAEHPBD@Z:
  00010	90		 npad	 1
  00011	90		 npad	 1
  00012	8b 54 24 08	 mov	 edx, DWORD PTR [esp+8]
  00016	8d 42 0c	 lea	 eax, DWORD PTR [edx+12]
  00019	8b 8a 78 e1 ff
	ff		 mov	 ecx, DWORD PTR [edx-7816]
  0001f	33 c8		 xor	 ecx, eax
  00021	e8 00 00 00 00	 call	 @__security_check_cookie@4
  00026	8b 4a fc	 mov	 ecx, DWORD PTR [edx-4]
  00029	33 c8		 xor	 ecx, eax
  0002b	e8 00 00 00 00	 call	 @__security_check_cookie@4
  00030	b8 00 00 00 00	 mov	 eax, OFFSET __ehfuncinfo$?LoadJobItem@CProject@@QAEHPBD@Z
  00035	e9 00 00 00 00	 jmp	 ___CxxFrameHandler3
text$x	ENDS
?LoadJobItem@CProject@@QAEHPBD@Z ENDP			; CProject::LoadJobItem
; Function compile flags: /Ogtp
; File C:\IAGOS\server\v18\Source\Source\_Common\ProjectCmn.cpp
; File C:\Program Files\Microsoft Visual Studio\2022\Professional\VC\Tools\MSVC\14.44.35207\atlmfc\include\cstringt.h
; File C:\Program Files\Microsoft Visual Studio\2022\Professional\VC\Tools\MSVC\14.44.35207\atlmfc\include\atlsimpstr.h
; File C:\IAGOS\server\v18\Source\Source\_Common\ProjectCmn.cpp
; File C:\Program Files\Microsoft Visual Studio\2022\Professional\VC\Tools\MSVC\14.44.35207\include\utility
; File C:\IAGOS\server\v18\Source\Source\_Common\ProjectCmn.cpp
; File C:\Program Files\Microsoft Visual Studio\2022\Professional\VC\Tools\MSVC\14.44.35207\include\xtree
; File C:\IAGOS\server\v18\Source\Source\_Common\ProjectCmn.cpp
; File C:\Program Files\Microsoft Visual Studio\2022\Professional\VC\Tools\MSVC\14.44.35207\include\xtree
; File C:\Program Files\Microsoft Visual Studio\2022\Professional\VC\Tools\MSVC\14.44.35207\include\type_traits
; File C:\Program Files\Microsoft Visual Studio\2022\Professional\VC\Tools\MSVC\14.44.35207\include\xtree
; File C:\Program Files\Microsoft Visual Studio\2022\Professional\VC\Tools\MSVC\14.44.35207\include\type_traits
; File C:\Program Files\Microsoft Visual Studio\2022\Professional\VC\Tools\MSVC\14.44.35207\include\xtree
; File C:\Program Files\Microsoft Visual Studio\2022\Professional\VC\Tools\MSVC\14.44.35207\include\type_traits
; File C:\Program Files\Microsoft Visual Studio\2022\Professional\VC\Tools\MSVC\14.44.35207\include\xtree
; File C:\Program Files\Microsoft Visual Studio\2022\Professional\VC\Tools\MSVC\14.44.35207\include\type_traits
; File C:\Program Files\Microsoft Visual Studio\2022\Professional\VC\Tools\MSVC\14.44.35207\include\xtree
; File C:\Program Files\Microsoft Visual Studio\2022\Professional\VC\Tools\MSVC\14.44.35207\include\xmemory
; File C:\Program Files\Microsoft Visual Studio\2022\Professional\VC\Tools\MSVC\14.44.35207\include\xtree
; File C:\Program Files\Microsoft Visual Studio\2022\Professional\VC\Tools\MSVC\14.44.35207\include\xmemory
; File C:\Program Files\Microsoft Visual Studio\2022\Professional\VC\Tools\MSVC\14.44.35207\include\utility
; File C:\Program Files\Microsoft Visual Studio\2022\Professional\VC\Tools\MSVC\14.44.35207\include\xtree
; File C:\Program Files\Microsoft Visual Studio\2022\Professional\VC\Tools\MSVC\14.44.35207\include\utility
; File C:\Program Files\Microsoft Visual Studio\2022\Professional\VC\Tools\MSVC\14.44.35207\include\xtree
; File C:\Program Files\Microsoft Visual Studio\2022\Professional\VC\Tools\MSVC\14.44.35207\include\utility
; File C:\Program Files\Microsoft Visual Studio\2022\Professional\VC\Tools\MSVC\14.44.35207\include\xtree
; File C:\Program Files\Microsoft Visual Studio\2022\Professional\VC\Tools\MSVC\14.44.35207\include\utility
; File C:\Program Files\Microsoft Visual Studio\2022\Professional\VC\Tools\MSVC\14.44.35207\include\xtree
; File C:\IAGOS\server\v18\Source\Source\_Common\ProjectCmn.cpp
; File C:\Program Files\Microsoft Visual Studio\2022\Professional\VC\Tools\MSVC\14.44.35207\atlmfc\include\atlsimpstr.h
; File C:\Program Files\Microsoft Visual Studio\2022\Professional\VC\Tools\MSVC\14.44.35207\include\xtree
; File C:\IAGOS\server\v18\Source\Source\_Common\ProjectCmn.cpp
;	COMDAT ?LoadPropItemEx@CProject@@QAEHPBDPAV?$CFixedArray@UItemProp@@@@@Z
_TEXT	SEGMENT
$T4 = -8656						; size = 8
_lpszFileName$GSCopy$1$ = -8648				; size = 4
__Myhead$1$ = -8644					; size = 4
_this$GSCopy$1$ = -8640					; size = 4
_apObjProp$GSCopy$1$ = -8636				; size = 4
__Loc$1$ = -8632					; size = 4
$T1$sroa$1779$1$ = -8628				; size = 4
tv2384 = -8624						; size = 4
tv2388 = -8624						; size = 4
tv2392 = -8624						; size = 4
tv2396 = -8624						; size = 4
tv2400 = -8624						; size = 4
_this$1$ = -8624					; size = 4
_scanner$ = -8620					; size = 7784
_prop$ = -836						; size = 792
$T5 = -44						; size = 28
__$ArrayPad$ = -16					; size = 4
__$EHRec$ = -12						; size = 12
_lpszFileName$ = 8					; size = 4
_apObjProp$ = 12					; size = 4
?LoadPropItemEx@CProject@@QAEHPBDPAV?$CFixedArray@UItemProp@@@@@Z PROC ; CProject::LoadPropItemEx, COMDAT
; _this$ = ecx

; 622  : {

  00000	55		 push	 ebp
  00001	8b ec		 mov	 ebp, esp
  00003	6a ff		 push	 -1
  00005	68 00 00 00 00	 push	 __ehhandler$?LoadPropItemEx@CProject@@QAEHPBDPAV?$CFixedArray@UItemProp@@@@@Z
  0000a	64 a1 00 00 00
	00		 mov	 eax, DWORD PTR fs:0
  00010	50		 push	 eax
  00011	b8 c4 21 00 00	 mov	 eax, 8644		; 000021c4H
  00016	e8 00 00 00 00	 call	 __chkstk
  0001b	a1 00 00 00 00	 mov	 eax, DWORD PTR ___security_cookie
  00020	33 c5		 xor	 eax, ebp
  00022	89 45 f0	 mov	 DWORD PTR __$ArrayPad$[ebp], eax
  00025	53		 push	 ebx
  00026	56		 push	 esi
  00027	57		 push	 edi
  00028	50		 push	 eax
  00029	8d 45 f4	 lea	 eax, DWORD PTR __$EHRec$[ebp]
  0002c	64 a3 00 00 00
	00		 mov	 DWORD PTR fs:0, eax
  00032	89 8d 40 de ff
	ff		 mov	 DWORD PTR _this$GSCopy$1$[ebp], ecx
  00038	8b 7d 08	 mov	 edi, DWORD PTR _lpszFileName$[ebp]

; 623  : 	CScript scanner;

  0003b	8d 8d 54 de ff
	ff		 lea	 ecx, DWORD PTR _scanner$[ebp]
  00041	8b 75 0c	 mov	 esi, DWORD PTR _apObjProp$[ebp]
  00044	6a 00		 push	 0
  00046	89 bd 38 de ff
	ff		 mov	 DWORD PTR _lpszFileName$GSCopy$1$[ebp], edi
  0004c	89 b5 44 de ff
	ff		 mov	 DWORD PTR _apObjProp$GSCopy$1$[ebp], esi
  00052	e8 00 00 00 00	 call	 ??0CScript@@QAE@H@Z	; CScript::CScript

; 624  : 	if( scanner.Load( lpszFileName, FALSE ) == FALSE )

  00057	6a 00		 push	 0
  00059	6a 00		 push	 0
  0005b	57		 push	 edi
  0005c	8d 8d 54 de ff
	ff		 lea	 ecx, DWORD PTR _scanner$[ebp]
  00062	c7 45 fc 00 00
	00 00		 mov	 DWORD PTR __$EHRec$[ebp+8], 0
  00069	e8 00 00 00 00	 call	 ?Load@CScript@@QAEHPBDHH@Z ; CScript::Load
  0006e	85 c0		 test	 eax, eax
  00070	0f 84 0b 0d 00
	00		 je	 $LN22@LoadPropIt

; 625  : 	{
; 626  : 	#ifdef __CLIENT
; 627  : 		MessageBox( g_Neuz.GetSafeHwnd(), "LoadPropItem", "flyff", MB_OK );
; 628  : 		ADDERRORMSG( "LoadPropItem file open error" );
; 629  : 	#endif //__CLIENT
; 630  : 		return FALSE;
; 631  : 	}
; 632  : 
; 633  : 	ItemProp prop;
; 634  : 	ZeroMemory( &prop, sizeof(prop) );

  00076	68 18 03 00 00	 push	 792			; 00000318H
  0007b	8d 85 bc fc ff
	ff		 lea	 eax, DWORD PTR _prop$[ebp]
  00081	6a 00		 push	 0
  00083	50		 push	 eax
  00084	e8 00 00 00 00	 call	 _memset
  00089	83 c4 0c	 add	 esp, 12			; 0000000cH

; 635  : 
; 636  : 	int nVer = scanner.GetNumber();	// version

  0008c	8d 8d 54 de ff
	ff		 lea	 ecx, DWORD PTR _scanner$[ebp]
  00092	6a 00		 push	 0
  00094	e8 00 00 00 00	 call	 ?GetNumber@CScanner@@QAEHH@Z ; CScanner::GetNumber

; 637  : 	while( scanner.tok != FINISHED )

  00099	83 bd 98 e6 ff
	ff 15		 cmp	 DWORD PTR _scanner$[ebp+2116], 21 ; 00000015H
  000a0	8b d8		 mov	 ebx, eax
  000a2	0f 84 aa 0c 00
	00		 je	 $LN3@LoadPropIt
  000a8	0f 1f 84 00 00
	00 00 00	 npad	 8
$LL2@LoadPropIt:

; 638  : 	{
; 639  : 		DWORD dwID = scanner.GetNumber();	// IID_

  000b0	6a 00		 push	 0
  000b2	8d 8d 54 de ff
	ff		 lea	 ecx, DWORD PTR _scanner$[ebp]
  000b8	e8 00 00 00 00	 call	 ?GetNumber@CScanner@@QAEHH@Z ; CScanner::GetNumber

; 640  : 		if( dwID <= 0 )

  000bd	85 c0		 test	 eax, eax
  000bf	0f 84 9b 0c 00
	00		 je	 $LN237@LoadPropIt

; 643  : 			return FALSE;
; 644  : 		}
; 645  : 
; 646  : //#ifdef __CLIENT
; 647  : 		prop.nVer	= nVer;
; 648  : //#endif	// __CLIENT
; 649  : 		prop.dwID = dwID;
; 650  : 		scanner.GetToken();

  000c5	6a 00		 push	 0
  000c7	8d 8d 54 de ff
	ff		 lea	 ecx, DWORD PTR _scanner$[ebp]
  000cd	89 9d 40 ff ff
	ff		 mov	 DWORD PTR _prop$[ebp+644], ebx
  000d3	89 85 bc fc ff
	ff		 mov	 DWORD PTR _prop$[ebp], eax
  000d9	e8 00 00 00 00	 call	 ?GetToken@CScript@@UAEHH@Z ; CScript::GetToken
; File C:\Program Files\Microsoft Visual Studio\2022\Professional\VC\Tools\MSVC\14.44.35207\atlmfc\include\cstringt.h

; 1868 : 		PCXSTR psz = this->GetString();

  000de	8b b5 74 de ff
	ff		 mov	 esi, DWORD PTR _scanner$[ebp+32]

; 1869 : 		PCXSTR pszLast = NULL;

  000e4	33 ff		 xor	 edi, edi

; 1870 : 
; 1871 : 		while( *psz != 0 )

  000e6	8a 06		 mov	 al, BYTE PTR [esi]
  000e8	84 c0		 test	 al, al
  000ea	0f 84 7f 00 00
	00		 je	 $LN59@LoadPropIt
$LL31@LoadPropIt:

; 177  : 		return _ismbcspace( ch );

  000f0	0f be c0	 movsx	 eax, al
  000f3	50		 push	 eax
  000f4	e8 00 00 00 00	 call	 __ismbcspace
  000f9	83 c4 04	 add	 esp, 4

; 1873 : 			if( StringTraits::IsSpace( *psz ) )

  000fc	85 c0		 test	 eax, eax
  000fe	74 0b		 je	 SHORT $LN33@LoadPropIt

; 1874 : 			{
; 1875 : 				if( pszLast == NULL )
; 1876 : 					pszLast = psz;
; 1877 : 			}

  00100	85 ff		 test	 edi, edi
  00102	8b c6		 mov	 eax, esi
  00104	0f 45 c7	 cmovne	 eax, edi
  00107	8b f8		 mov	 edi, eax
  00109	eb 02		 jmp	 SHORT $LN34@LoadPropIt
$LN33@LoadPropIt:

; 1878 : 			else
; 1879 : 			{
; 1880 : 				pszLast = NULL;

  0010b	33 ff		 xor	 edi, edi
$LN34@LoadPropIt:

; 167  : 		return reinterpret_cast< char* >( _mbsinc( reinterpret_cast< const unsigned char* >( p ) ) );

  0010d	56		 push	 esi
  0010e	e8 00 00 00 00	 call	 __mbsinc

; 1882 : 			psz = StringTraits::CharNext( psz );

  00113	8b f0		 mov	 esi, eax

; 167  : 		return reinterpret_cast< char* >( _mbsinc( reinterpret_cast< const unsigned char* >( p ) ) );

  00115	83 c4 04	 add	 esp, 4

; 1871 : 		while( *psz != 0 )

  00118	8a 06		 mov	 al, BYTE PTR [esi]
  0011a	84 c0		 test	 al, al
  0011c	75 d2		 jne	 SHORT $LL31@LoadPropIt

; 1883 : 		}
; 1884 : 
; 1885 : 		if( pszLast != NULL )

  0011e	85 ff		 test	 edi, edi
  00120	74 47		 je	 SHORT $LN261@LoadPropIt

; 1886 : 		{
; 1887 : 			// truncate at trailing space start
; 1888 : 			int iLast = int( pszLast - this->GetString() );

  00122	8b 95 74 de ff
	ff		 mov	 edx, DWORD PTR _scanner$[ebp+32]
  00128	2b fa		 sub	 edi, edx
; File C:\Program Files\Microsoft Visual Studio\2022\Professional\VC\Tools\MSVC\14.44.35207\atlmfc\include\atlsimpstr.h

; 808  : 		if (nLength < 0)

  0012a	0f 88 7e 0c 00
	00		 js	 $LN238@LoadPropIt

; 810  : 
; 811  : 		CStringData* pOldData = GetData();
; 812  : 		int nShared = 1-pOldData->nRefs;  // nShared < 0 means true, >= 0 means false
; 813  : 		int nTooShort = pOldData->nAllocLength-nLength;  // nTooShort < 0 means true, >= 0 means false

  00130	8b 42 f8	 mov	 eax, DWORD PTR [edx-8]
  00133	b9 01 00 00 00	 mov	 ecx, 1
  00138	2b 4a fc	 sub	 ecx, DWORD PTR [edx-4]
  0013b	2b c7		 sub	 eax, edi

; 814  : 		if( (nShared|nTooShort) < 0 )  // If either sign bit is set (i.e. either is less than zero), we need to copy data

  0013d	0b c1		 or	 eax, ecx
  0013f	7d 12		 jge	 SHORT $LN48@LoadPropIt

; 815  : 		{
; 816  : 			PrepareWrite2( nLength );

  00141	57		 push	 edi
  00142	8d 8d 74 de ff
	ff		 lea	 ecx, DWORD PTR _scanner$[ebp+32]
  00148	e8 00 00 00 00	 call	 ?PrepareWrite2@?$CSimpleStringT@D$0A@@ATL@@AAEXH@Z ; ATL::CSimpleStringT<char,0>::PrepareWrite2
  0014d	8b 95 74 de ff
	ff		 mov	 edx, DWORD PTR _scanner$[ebp+32]
$LN48@LoadPropIt:

; 875  : 		if( nLength < 0 || nLength > GetData()->nAllocLength)

  00153	3b 7a f8	 cmp	 edi, DWORD PTR [edx-8]
  00156	0f 8f 52 0c 00
	00		 jg	 $LN238@LoadPropIt

; 876  : 			AtlThrow(E_INVALIDARG);
; 877  : 
; 878  : 		GetData()->nDataLength = nLength;

  0015c	89 7a f4	 mov	 DWORD PTR [edx-12], edi

; 879  : 		m_pszData[nLength] = 0;

  0015f	8b 85 74 de ff
	ff		 mov	 eax, DWORD PTR _scanner$[ebp+32]
  00165	c6 04 38 00	 mov	 BYTE PTR [eax+edi], 0
$LN261@LoadPropIt:
; File C:\IAGOS\server\v18\Source\Source\_Common\ProjectCmn.cpp

; 653  : 		_tcscpy( prop.szName, (LPCSTR)scanner.Token );

  00169	8b b5 74 de ff
	ff		 mov	 esi, DWORD PTR _scanner$[ebp+32]
$LN59@LoadPropIt:
  0016f	8d 8d c0 fc ff
	ff		 lea	 ecx, DWORD PTR _prop$[ebp+4]
  00175	2b ce		 sub	 ecx, esi
$LL18@LoadPropIt:
  00177	8a 06		 mov	 al, BYTE PTR [esi]
  00179	8d 76 01	 lea	 esi, DWORD PTR [esi+1]
  0017c	88 44 31 ff	 mov	 BYTE PTR [ecx+esi-1], al
  00180	84 c0		 test	 al, al
  00182	75 f3		 jne	 SHORT $LL18@LoadPropIt

; 654  : 
; 655  :  		prop.dwNum				= scanner.GetNumber();            

  00184	6a 00		 push	 0
  00186	8d 8d 54 de ff
	ff		 lea	 ecx, DWORD PTR _scanner$[ebp]
  0018c	e8 00 00 00 00	 call	 ?GetNumber@CScanner@@QAEHH@Z ; CScanner::GetNumber

; 656  : 		prop.dwPackMax			= scanner.GetNumber();      

  00191	6a 00		 push	 0
  00193	8d 8d 54 de ff
	ff		 lea	 ecx, DWORD PTR _scanner$[ebp]
  00199	89 85 24 fd ff
	ff		 mov	 DWORD PTR _prop$[ebp+104], eax
  0019f	e8 00 00 00 00	 call	 ?GetNumber@CScanner@@QAEHH@Z ; CScanner::GetNumber

; 657  : 		prop.dwItemKind1		= scanner.GetNumber();      

  001a4	6a 00		 push	 0
  001a6	8d 8d 54 de ff
	ff		 lea	 ecx, DWORD PTR _scanner$[ebp]
  001ac	89 85 28 fd ff
	ff		 mov	 DWORD PTR _prop$[ebp+108], eax
  001b2	e8 00 00 00 00	 call	 ?GetNumber@CScanner@@QAEHH@Z ; CScanner::GetNumber

; 658  : 		prop.dwItemKind2		= scanner.GetNumber();      

  001b7	6a 00		 push	 0
  001b9	8d 8d 54 de ff
	ff		 lea	 ecx, DWORD PTR _scanner$[ebp]
  001bf	89 85 2c fd ff
	ff		 mov	 DWORD PTR _prop$[ebp+112], eax
  001c5	e8 00 00 00 00	 call	 ?GetNumber@CScanner@@QAEHH@Z ; CScanner::GetNumber

; 659  : 		prop.dwItemKind3		= scanner.GetNumber();      

  001ca	6a 00		 push	 0
  001cc	8d 8d 54 de ff
	ff		 lea	 ecx, DWORD PTR _scanner$[ebp]
  001d2	89 85 30 fd ff
	ff		 mov	 DWORD PTR _prop$[ebp+116], eax
  001d8	e8 00 00 00 00	 call	 ?GetNumber@CScanner@@QAEHH@Z ; CScanner::GetNumber

; 660  : 		prop.dwItemJob			= scanner.GetNumber();      

  001dd	6a 00		 push	 0
  001df	8d 8d 54 de ff
	ff		 lea	 ecx, DWORD PTR _scanner$[ebp]
  001e5	89 85 34 fd ff
	ff		 mov	 DWORD PTR _prop$[ebp+120], eax
  001eb	e8 00 00 00 00	 call	 ?GetNumber@CScanner@@QAEHH@Z ; CScanner::GetNumber

; 661  : 		prop.bPermanence		= scanner.GetNumber();      

  001f0	6a 00		 push	 0
  001f2	8d 8d 54 de ff
	ff		 lea	 ecx, DWORD PTR _scanner$[ebp]
  001f8	89 85 38 fd ff
	ff		 mov	 DWORD PTR _prop$[ebp+124], eax
  001fe	e8 00 00 00 00	 call	 ?GetNumber@CScanner@@QAEHH@Z ; CScanner::GetNumber

; 662  : 		prop.dwUseable			= scanner.GetNumber();      

  00203	6a 00		 push	 0
  00205	8d 8d 54 de ff
	ff		 lea	 ecx, DWORD PTR _scanner$[ebp]
  0020b	89 85 3c fd ff
	ff		 mov	 DWORD PTR _prop$[ebp+128], eax
  00211	e8 00 00 00 00	 call	 ?GetNumber@CScanner@@QAEHH@Z ; CScanner::GetNumber

; 663  : 		prop.dwItemSex			= scanner.GetNumber();      

  00216	6a 00		 push	 0
  00218	8d 8d 54 de ff
	ff		 lea	 ecx, DWORD PTR _scanner$[ebp]
  0021e	89 85 40 fd ff
	ff		 mov	 DWORD PTR _prop$[ebp+132], eax
  00224	e8 00 00 00 00	 call	 ?GetNumber@CScanner@@QAEHH@Z ; CScanner::GetNumber

; 664  : 		prop.dwCost				= scanner.GetNumber();      

  00229	6a 00		 push	 0
  0022b	8d 8d 54 de ff
	ff		 lea	 ecx, DWORD PTR _scanner$[ebp]
  00231	89 85 44 fd ff
	ff		 mov	 DWORD PTR _prop$[ebp+136], eax
  00237	e8 00 00 00 00	 call	 ?GetNumber@CScanner@@QAEHH@Z ; CScanner::GetNumber

; 665  : 		prop.dwEndurance		= scanner.GetNumber(); 

  0023c	6a 00		 push	 0
  0023e	8d 8d 54 de ff
	ff		 lea	 ecx, DWORD PTR _scanner$[ebp]
  00244	89 85 48 fd ff
	ff		 mov	 DWORD PTR _prop$[ebp+140], eax
  0024a	e8 00 00 00 00	 call	 ?GetNumber@CScanner@@QAEHH@Z ; CScanner::GetNumber

; 666  : 		prop.nAbrasion			= scanner.GetNumber();

  0024f	6a 00		 push	 0
  00251	8d 8d 54 de ff
	ff		 lea	 ecx, DWORD PTR _scanner$[ebp]
  00257	89 85 4c fd ff
	ff		 mov	 DWORD PTR _prop$[ebp+144], eax
  0025d	e8 00 00 00 00	 call	 ?GetNumber@CScanner@@QAEHH@Z ; CScanner::GetNumber

; 667  : 		prop.nMaxRepair			= scanner.GetNumber();

  00262	6a 00		 push	 0
  00264	8d 8d 54 de ff
	ff		 lea	 ecx, DWORD PTR _scanner$[ebp]
  0026a	89 85 54 fd ff
	ff		 mov	 DWORD PTR _prop$[ebp+152], eax
  00270	e8 00 00 00 00	 call	 ?GetNumber@CScanner@@QAEHH@Z ; CScanner::GetNumber

; 668  : 		prop.dwHanded			= scanner.GetNumber();      

  00275	6a 00		 push	 0
  00277	8d 8d 54 de ff
	ff		 lea	 ecx, DWORD PTR _scanner$[ebp]
  0027d	89 85 58 fd ff
	ff		 mov	 DWORD PTR _prop$[ebp+156], eax
  00283	e8 00 00 00 00	 call	 ?GetNumber@CScanner@@QAEHH@Z ; CScanner::GetNumber

; 669  : 		prop.dwFlag				= scanner.GetNumber();      

  00288	6a 00		 push	 0
  0028a	8d 8d 54 de ff
	ff		 lea	 ecx, DWORD PTR _scanner$[ebp]
  00290	89 85 5c fd ff
	ff		 mov	 DWORD PTR _prop$[ebp+160], eax
  00296	e8 00 00 00 00	 call	 ?GetNumber@CScanner@@QAEHH@Z ; CScanner::GetNumber

; 670  : 		prop.dwParts			= scanner.GetNumber();      

  0029b	6a 00		 push	 0
  0029d	8d 8d 54 de ff
	ff		 lea	 ecx, DWORD PTR _scanner$[ebp]
  002a3	89 85 60 fd ff
	ff		 mov	 DWORD PTR _prop$[ebp+164], eax
  002a9	e8 00 00 00 00	 call	 ?GetNumber@CScanner@@QAEHH@Z ; CScanner::GetNumber

; 671  : 		prop.dwPartsub			= scanner.GetNumber();      

  002ae	6a 00		 push	 0
  002b0	8d 8d 54 de ff
	ff		 lea	 ecx, DWORD PTR _scanner$[ebp]
  002b6	89 85 64 fd ff
	ff		 mov	 DWORD PTR _prop$[ebp+168], eax
  002bc	e8 00 00 00 00	 call	 ?GetNumber@CScanner@@QAEHH@Z ; CScanner::GetNumber

; 672  : 		prop.bPartsFile			= scanner.GetNumber();      

  002c1	6a 00		 push	 0
  002c3	8d 8d 54 de ff
	ff		 lea	 ecx, DWORD PTR _scanner$[ebp]
  002c9	89 85 68 fd ff
	ff		 mov	 DWORD PTR _prop$[ebp+172], eax
  002cf	e8 00 00 00 00	 call	 ?GetNumber@CScanner@@QAEHH@Z ; CScanner::GetNumber

; 673  : 		prop.dwExclusive		= scanner.GetNumber();      

  002d4	6a 00		 push	 0
  002d6	8d 8d 54 de ff
	ff		 lea	 ecx, DWORD PTR _scanner$[ebp]
  002dc	89 85 6c fd ff
	ff		 mov	 DWORD PTR _prop$[ebp+176], eax
  002e2	e8 00 00 00 00	 call	 ?GetNumber@CScanner@@QAEHH@Z ; CScanner::GetNumber

; 674  : 		prop.dwBasePartsIgnore	= scanner.GetNumber();      

  002e7	6a 00		 push	 0
  002e9	8d 8d 54 de ff
	ff		 lea	 ecx, DWORD PTR _scanner$[ebp]
  002ef	89 85 70 fd ff
	ff		 mov	 DWORD PTR _prop$[ebp+180], eax
  002f5	e8 00 00 00 00	 call	 ?GetNumber@CScanner@@QAEHH@Z ; CScanner::GetNumber
  002fa	89 85 74 fd ff
	ff		 mov	 DWORD PTR _prop$[ebp+184], eax

; 675  : 		prop.dwItemLV			= scanner.GetNumber();      

  00300	6a 00		 push	 0
  00302	8d 8d 54 de ff
	ff		 lea	 ecx, DWORD PTR _scanner$[ebp]
  00308	e8 00 00 00 00	 call	 ?GetNumber@CScanner@@QAEHH@Z ; CScanner::GetNumber

; 676  : 		prop.dwItemRare			= scanner.GetNumber();   

  0030d	6a 00		 push	 0
  0030f	8d 8d 54 de ff
	ff		 lea	 ecx, DWORD PTR _scanner$[ebp]
  00315	89 85 78 fd ff
	ff		 mov	 DWORD PTR _prop$[ebp+188], eax
  0031b	e8 00 00 00 00	 call	 ?GetNumber@CScanner@@QAEHH@Z ; CScanner::GetNumber

; 677  : 		prop.dwShopAble			= scanner.GetNumber();

  00320	6a 00		 push	 0
  00322	8d 8d 54 de ff
	ff		 lea	 ecx, DWORD PTR _scanner$[ebp]
  00328	89 85 7c fd ff
	ff		 mov	 DWORD PTR _prop$[ebp+192], eax
  0032e	e8 00 00 00 00	 call	 ?GetNumber@CScanner@@QAEHH@Z ; CScanner::GetNumber

; 678  : 		prop.nLog				= scanner.GetNumber();

  00333	6a 00		 push	 0
  00335	8d 8d 54 de ff
	ff		 lea	 ecx, DWORD PTR _scanner$[ebp]
  0033b	89 85 80 fd ff
	ff		 mov	 DWORD PTR _prop$[ebp+196], eax
  00341	e8 00 00 00 00	 call	 ?GetNumber@CScanner@@QAEHH@Z ; CScanner::GetNumber

; 679  : 		prop.bCharged			= scanner.GetNumber();

  00346	6a 00		 push	 0
  00348	8d 8d 54 de ff
	ff		 lea	 ecx, DWORD PTR _scanner$[ebp]
  0034e	89 85 50 fd ff
	ff		 mov	 DWORD PTR _prop$[ebp+148], eax
  00354	e8 00 00 00 00	 call	 ?GetNumber@CScanner@@QAEHH@Z ; CScanner::GetNumber

; 680  : 		prop.bCharged	= ( prop.bCharged != 1? 0: 1 );

  00359	48		 dec	 eax

; 681  : 		prop.dwLinkKindBullet	= scanner.GetNumber();      

  0035a	8d 8d 54 de ff
	ff		 lea	 ecx, DWORD PTR _scanner$[ebp]
  00360	f7 d8		 neg	 eax
  00362	6a 00		 push	 0
  00364	1b c0		 sbb	 eax, eax
  00366	40		 inc	 eax
  00367	89 85 a8 fd ff
	ff		 mov	 DWORD PTR _prop$[ebp+236], eax
  0036d	e8 00 00 00 00	 call	 ?GetNumber@CScanner@@QAEHH@Z ; CScanner::GetNumber

; 682  : 		prop.dwLinkKind			= scanner.GetNumber();      

  00372	6a 00		 push	 0
  00374	8d 8d 54 de ff
	ff		 lea	 ecx, DWORD PTR _scanner$[ebp]
  0037a	89 85 98 fd ff
	ff		 mov	 DWORD PTR _prop$[ebp+220], eax
  00380	e8 00 00 00 00	 call	 ?GetNumber@CScanner@@QAEHH@Z ; CScanner::GetNumber

; 683  : 		prop.dwAbilityMin		= scanner.GetNumber();      

  00385	6a 00		 push	 0
  00387	8d 8d 54 de ff
	ff		 lea	 ecx, DWORD PTR _scanner$[ebp]
  0038d	89 85 9c fd ff
	ff		 mov	 DWORD PTR _prop$[ebp+224], eax
  00393	e8 00 00 00 00	 call	 ?GetNumber@CScanner@@QAEHH@Z ; CScanner::GetNumber

; 684  : 		prop.dwAbilityMax		= scanner.GetNumber();      

  00398	6a 00		 push	 0
  0039a	8d 8d 54 de ff
	ff		 lea	 ecx, DWORD PTR _scanner$[ebp]
  003a0	89 85 a0 fd ff
	ff		 mov	 DWORD PTR _prop$[ebp+228], eax
  003a6	e8 00 00 00 00	 call	 ?GetNumber@CScanner@@QAEHH@Z ; CScanner::GetNumber

; 685  : 		prop.eItemType			= static_cast<SAI79::ePropType>(scanner.GetNumber());

  003ab	6a 00		 push	 0
  003ad	8d 8d 54 de ff
	ff		 lea	 ecx, DWORD PTR _scanner$[ebp]
  003b3	89 85 a4 fd ff
	ff		 mov	 DWORD PTR _prop$[ebp+232], eax
  003b9	e8 00 00 00 00	 call	 ?GetNumber@CScanner@@QAEHH@Z ; CScanner::GetNumber

; 686  : 		prop.wItemEatk			= static_cast<short>(scanner.GetNumber());

  003be	6a 00		 push	 0
  003c0	8d 8d 54 de ff
	ff		 lea	 ecx, DWORD PTR _scanner$[ebp]
  003c6	89 85 ac fd ff
	ff		 mov	 DWORD PTR _prop$[ebp+240], eax
  003cc	e8 00 00 00 00	 call	 ?GetNumber@CScanner@@QAEHH@Z ; CScanner::GetNumber

; 687  : 		prop.dwParry			= scanner.GetNumber();

  003d1	6a 00		 push	 0
  003d3	8d 8d 54 de ff
	ff		 lea	 ecx, DWORD PTR _scanner$[ebp]
  003d9	66 89 85 b0 fd
	ff ff		 mov	 WORD PTR _prop$[ebp+244], ax
  003e0	e8 00 00 00 00	 call	 ?GetNumber@CScanner@@QAEHH@Z ; CScanner::GetNumber

; 688  : 		prop.dwblockRating		= scanner.GetNumber();

  003e5	6a 00		 push	 0
  003e7	8d 8d 54 de ff
	ff		 lea	 ecx, DWORD PTR _scanner$[ebp]
  003ed	89 85 b4 fd ff
	ff		 mov	 DWORD PTR _prop$[ebp+248], eax
  003f3	e8 00 00 00 00	 call	 ?GetNumber@CScanner@@QAEHH@Z ; CScanner::GetNumber

; 689  : 		prop.nAddSkillMin		= scanner.GetNumber();

  003f8	6a 00		 push	 0
  003fa	8d 8d 54 de ff
	ff		 lea	 ecx, DWORD PTR _scanner$[ebp]
  00400	89 85 b8 fd ff
	ff		 mov	 DWORD PTR _prop$[ebp+252], eax
  00406	e8 00 00 00 00	 call	 ?GetNumber@CScanner@@QAEHH@Z ; CScanner::GetNumber

; 690  : 		prop.nAddSkillMax		= scanner.GetNumber();

  0040b	6a 00		 push	 0
  0040d	8d 8d 54 de ff
	ff		 lea	 ecx, DWORD PTR _scanner$[ebp]
  00413	89 85 bc fd ff
	ff		 mov	 DWORD PTR _prop$[ebp+256], eax
  00419	e8 00 00 00 00	 call	 ?GetNumber@CScanner@@QAEHH@Z ; CScanner::GetNumber

; 691  : 		prop.dwAtkStyle			= scanner.GetNumber();      

  0041e	6a 00		 push	 0
  00420	8d 8d 54 de ff
	ff		 lea	 ecx, DWORD PTR _scanner$[ebp]
  00426	89 85 c0 fd ff
	ff		 mov	 DWORD PTR _prop$[ebp+260], eax
  0042c	e8 00 00 00 00	 call	 ?GetNumber@CScanner@@QAEHH@Z ; CScanner::GetNumber

; 692  : 		prop.dwWeaponType		= scanner.GetNumber();      

  00431	6a 00		 push	 0
  00433	8d 8d 54 de ff
	ff		 lea	 ecx, DWORD PTR _scanner$[ebp]
  00439	89 85 c4 fd ff
	ff		 mov	 DWORD PTR _prop$[ebp+264], eax
  0043f	e8 00 00 00 00	 call	 ?GetNumber@CScanner@@QAEHH@Z ; CScanner::GetNumber

; 693  : 		prop.dwItemAtkOrder1	= scanner.GetNumber();      	

  00444	6a 00		 push	 0
  00446	8d 8d 54 de ff
	ff		 lea	 ecx, DWORD PTR _scanner$[ebp]
  0044c	89 85 c8 fd ff
	ff		 mov	 DWORD PTR _prop$[ebp+268], eax
  00452	e8 00 00 00 00	 call	 ?GetNumber@CScanner@@QAEHH@Z ; CScanner::GetNumber

; 694  : 		prop.dwItemAtkOrder2	= scanner.GetNumber();      	

  00457	6a 00		 push	 0
  00459	8d 8d 54 de ff
	ff		 lea	 ecx, DWORD PTR _scanner$[ebp]
  0045f	89 85 cc fd ff
	ff		 mov	 DWORD PTR _prop$[ebp+272], eax
  00465	e8 00 00 00 00	 call	 ?GetNumber@CScanner@@QAEHH@Z ; CScanner::GetNumber
  0046a	89 85 d0 fd ff
	ff		 mov	 DWORD PTR _prop$[ebp+276], eax

; 695  : 		prop.dwItemAtkOrder3	= scanner.GetNumber();      	

  00470	8d 8d 54 de ff
	ff		 lea	 ecx, DWORD PTR _scanner$[ebp]
  00476	6a 00		 push	 0
  00478	e8 00 00 00 00	 call	 ?GetNumber@CScanner@@QAEHH@Z ; CScanner::GetNumber

; 696  : 		prop.dwItemAtkOrder4	= scanner.GetNumber();      	

  0047d	6a 00		 push	 0
  0047f	8d 8d 54 de ff
	ff		 lea	 ecx, DWORD PTR _scanner$[ebp]
  00485	89 85 d4 fd ff
	ff		 mov	 DWORD PTR _prop$[ebp+280], eax
  0048b	e8 00 00 00 00	 call	 ?GetNumber@CScanner@@QAEHH@Z ; CScanner::GetNumber

; 697  : 		prop.tmContinuousPain	= scanner.GetNumber();      

  00490	6a 00		 push	 0
  00492	8d 8d 54 de ff
	ff		 lea	 ecx, DWORD PTR _scanner$[ebp]
  00498	89 85 d8 fd ff
	ff		 mov	 DWORD PTR _prop$[ebp+284], eax
  0049e	e8 00 00 00 00	 call	 ?GetNumber@CScanner@@QAEHH@Z ; CScanner::GetNumber

; 698  : 		prop.nShellQuantity		= scanner.GetNumber();      

  004a3	6a 00		 push	 0
  004a5	8d 8d 54 de ff
	ff		 lea	 ecx, DWORD PTR _scanner$[ebp]
  004ab	89 85 dc fd ff
	ff		 mov	 DWORD PTR _prop$[ebp+288], eax
  004b1	e8 00 00 00 00	 call	 ?GetNumber@CScanner@@QAEHH@Z ; CScanner::GetNumber

; 699  : 		prop.dwRecoil			= scanner.GetNumber();      

  004b6	6a 00		 push	 0
  004b8	8d 8d 54 de ff
	ff		 lea	 ecx, DWORD PTR _scanner$[ebp]
  004be	89 85 84 fd ff
	ff		 mov	 DWORD PTR _prop$[ebp+200], eax
  004c4	e8 00 00 00 00	 call	 ?GetNumber@CScanner@@QAEHH@Z ; CScanner::GetNumber

; 700  : 		prop.dwLoadingTime		= scanner.GetNumber();      

  004c9	6a 00		 push	 0
  004cb	8d 8d 54 de ff
	ff		 lea	 ecx, DWORD PTR _scanner$[ebp]
  004d1	89 85 e0 fd ff
	ff		 mov	 DWORD PTR _prop$[ebp+292], eax
  004d7	e8 00 00 00 00	 call	 ?GetNumber@CScanner@@QAEHH@Z ; CScanner::GetNumber

; 701  : 		prop.nAdjHitRate		= scanner.GetNumber();      

  004dc	6a 00		 push	 0
  004de	8d 8d 54 de ff
	ff		 lea	 ecx, DWORD PTR _scanner$[ebp]
  004e4	89 85 e4 fd ff
	ff		 mov	 DWORD PTR _prop$[ebp+296], eax
  004ea	e8 00 00 00 00	 call	 ?GetNumber@CScanner@@QAEHH@Z ; CScanner::GetNumber

; 702  : 		prop.fAttackSpeed		= scanner.GetFloat();      

  004ef	6a 00		 push	 0
  004f1	8d 8d 54 de ff
	ff		 lea	 ecx, DWORD PTR _scanner$[ebp]
  004f7	89 85 e8 fd ff
	ff		 mov	 DWORD PTR _prop$[ebp+300], eax
  004fd	e8 00 00 00 00	 call	 ?GetFloat@CScanner@@QAEMH@Z ; CScanner::GetFloat

; 703  : 		prop.dwDmgShift			= scanner.GetNumber();      

  00502	6a 00		 push	 0
  00504	8d 8d 54 de ff
	ff		 lea	 ecx, DWORD PTR _scanner$[ebp]
  0050a	d9 9d ec fd ff
	ff		 fstp	 DWORD PTR _prop$[ebp+304]
  00510	e8 00 00 00 00	 call	 ?GetNumber@CScanner@@QAEHH@Z ; CScanner::GetNumber

; 704  : 		prop.dwAttackRange		= scanner.GetNumber();      

  00515	6a 00		 push	 0
  00517	8d 8d 54 de ff
	ff		 lea	 ecx, DWORD PTR _scanner$[ebp]
  0051d	89 85 f0 fd ff
	ff		 mov	 DWORD PTR _prop$[ebp+308], eax
  00523	e8 00 00 00 00	 call	 ?GetNumber@CScanner@@QAEHH@Z ; CScanner::GetNumber

; 705  : 		prop.nProbability		= scanner.GetNumber();      

  00528	6a 00		 push	 0
  0052a	8d 8d 54 de ff
	ff		 lea	 ecx, DWORD PTR _scanner$[ebp]
  00530	89 85 f4 fd ff
	ff		 mov	 DWORD PTR _prop$[ebp+312], eax
  00536	e8 00 00 00 00	 call	 ?GetNumber@CScanner@@QAEHH@Z ; CScanner::GetNumber

; 706  : 		prop.dwDestParam[0]		= scanner.GetNumber();      

  0053b	6a 00		 push	 0
  0053d	8d 8d 54 de ff
	ff		 lea	 ecx, DWORD PTR _scanner$[ebp]
  00543	89 85 f8 fd ff
	ff		 mov	 DWORD PTR _prop$[ebp+316], eax
  00549	e8 00 00 00 00	 call	 ?GetNumber@CScanner@@QAEHH@Z ; CScanner::GetNumber

; 707  : 		prop.dwDestParam[1]		= scanner.GetNumber();      

  0054e	6a 00		 push	 0
  00550	8d 8d 54 de ff
	ff		 lea	 ecx, DWORD PTR _scanner$[ebp]
  00556	89 85 fc fd ff
	ff		 mov	 DWORD PTR _prop$[ebp+320], eax
  0055c	e8 00 00 00 00	 call	 ?GetNumber@CScanner@@QAEHH@Z ; CScanner::GetNumber

; 708  : #ifdef __PROP_0827
; 709  : 		prop.dwDestParam[2]		= scanner.GetNumber();      

  00561	6a 00		 push	 0
  00563	8d 8d 54 de ff
	ff		 lea	 ecx, DWORD PTR _scanner$[ebp]
  00569	89 85 00 fe ff
	ff		 mov	 DWORD PTR _prop$[ebp+324], eax
  0056f	e8 00 00 00 00	 call	 ?GetNumber@CScanner@@QAEHH@Z ; CScanner::GetNumber

; 710  : #endif	// __PROP_0827
; 711  : 		prop.nAdjParamVal[0]	= scanner.GetNumber();      

  00574	6a 00		 push	 0
  00576	8d 8d 54 de ff
	ff		 lea	 ecx, DWORD PTR _scanner$[ebp]
  0057c	89 85 04 fe ff
	ff		 mov	 DWORD PTR _prop$[ebp+328], eax
  00582	e8 00 00 00 00	 call	 ?GetNumber@CScanner@@QAEHH@Z ; CScanner::GetNumber

; 712  : 		prop.nAdjParamVal[1]	= scanner.GetNumber();      

  00587	6a 00		 push	 0
  00589	8d 8d 54 de ff
	ff		 lea	 ecx, DWORD PTR _scanner$[ebp]
  0058f	89 85 08 fe ff
	ff		 mov	 DWORD PTR _prop$[ebp+332], eax
  00595	e8 00 00 00 00	 call	 ?GetNumber@CScanner@@QAEHH@Z ; CScanner::GetNumber

; 713  : #ifdef __PROP_0827
; 714  : 		prop.nAdjParamVal[2]	= scanner.GetNumber();      

  0059a	6a 00		 push	 0
  0059c	8d 8d 54 de ff
	ff		 lea	 ecx, DWORD PTR _scanner$[ebp]
  005a2	89 85 0c fe ff
	ff		 mov	 DWORD PTR _prop$[ebp+336], eax
  005a8	e8 00 00 00 00	 call	 ?GetNumber@CScanner@@QAEHH@Z ; CScanner::GetNumber

; 715  : #endif	// __PROP_0827
; 716  : 		prop.dwChgParamVal[0]	= scanner.GetNumber();      

  005ad	6a 00		 push	 0
  005af	8d 8d 54 de ff
	ff		 lea	 ecx, DWORD PTR _scanner$[ebp]
  005b5	89 85 10 fe ff
	ff		 mov	 DWORD PTR _prop$[ebp+340], eax
  005bb	e8 00 00 00 00	 call	 ?GetNumber@CScanner@@QAEHH@Z ; CScanner::GetNumber

; 717  : 		prop.dwChgParamVal[1]	= scanner.GetNumber();      

  005c0	6a 00		 push	 0
  005c2	8d 8d 54 de ff
	ff		 lea	 ecx, DWORD PTR _scanner$[ebp]
  005c8	89 85 14 fe ff
	ff		 mov	 DWORD PTR _prop$[ebp+344], eax
  005ce	e8 00 00 00 00	 call	 ?GetNumber@CScanner@@QAEHH@Z ; CScanner::GetNumber

; 718  : #ifdef __PROP_0827
; 719  : 		prop.dwChgParamVal[2]	= scanner.GetNumber();      

  005d3	6a 00		 push	 0
  005d5	8d 8d 54 de ff
	ff		 lea	 ecx, DWORD PTR _scanner$[ebp]
  005db	89 85 18 fe ff
	ff		 mov	 DWORD PTR _prop$[ebp+348], eax
  005e1	e8 00 00 00 00	 call	 ?GetNumber@CScanner@@QAEHH@Z ; CScanner::GetNumber

; 720  : #endif	// __PROP_0827
; 721  : 		prop.nDestData1[0]		= scanner.GetNumber();      

  005e6	6a 00		 push	 0
  005e8	8d 8d 54 de ff
	ff		 lea	 ecx, DWORD PTR _scanner$[ebp]
  005ee	89 85 1c fe ff
	ff		 mov	 DWORD PTR _prop$[ebp+352], eax
  005f4	e8 00 00 00 00	 call	 ?GetNumber@CScanner@@QAEHH@Z ; CScanner::GetNumber

; 722  : 		prop.nDestData1[1]		= scanner.GetNumber();   

  005f9	6a 00		 push	 0
  005fb	8d 8d 54 de ff
	ff		 lea	 ecx, DWORD PTR _scanner$[ebp]
  00601	89 85 20 fe ff
	ff		 mov	 DWORD PTR _prop$[ebp+356], eax
  00607	e8 00 00 00 00	 call	 ?GetNumber@CScanner@@QAEHH@Z ; CScanner::GetNumber

; 723  : 		prop.nDestData1[2]		= scanner.GetNumber();      

  0060c	6a 00		 push	 0
  0060e	8d 8d 54 de ff
	ff		 lea	 ecx, DWORD PTR _scanner$[ebp]
  00614	89 85 24 fe ff
	ff		 mov	 DWORD PTR _prop$[ebp+360], eax
  0061a	e8 00 00 00 00	 call	 ?GetNumber@CScanner@@QAEHH@Z ; CScanner::GetNumber

; 724  : 		prop.dwActiveSkill		= scanner.GetNumber();

  0061f	6a 00		 push	 0
  00621	8d 8d 54 de ff
	ff		 lea	 ecx, DWORD PTR _scanner$[ebp]
  00627	89 85 28 fe ff
	ff		 mov	 DWORD PTR _prop$[ebp+364], eax
  0062d	e8 00 00 00 00	 call	 ?GetNumber@CScanner@@QAEHH@Z ; CScanner::GetNumber

; 725  : 		prop.dwActiveSkillLv	= scanner.GetNumber();

  00632	6a 00		 push	 0
  00634	8d 8d 54 de ff
	ff		 lea	 ecx, DWORD PTR _scanner$[ebp]
  0063a	89 85 2c fe ff
	ff		 mov	 DWORD PTR _prop$[ebp+368], eax
  00640	e8 00 00 00 00	 call	 ?GetNumber@CScanner@@QAEHH@Z ; CScanner::GetNumber

; 726  : 		prop.dwActiveSkillRate	= scanner.GetNumber();      

  00645	6a 00		 push	 0
  00647	8d 8d 54 de ff
	ff		 lea	 ecx, DWORD PTR _scanner$[ebp]
  0064d	89 85 88 fd ff
	ff		 mov	 DWORD PTR _prop$[ebp+204], eax
  00653	e8 00 00 00 00	 call	 ?GetNumber@CScanner@@QAEHH@Z ; CScanner::GetNumber

; 727  : 		prop.dwReqMp			= scanner.GetNumber();      

  00658	6a 00		 push	 0
  0065a	8d 8d 54 de ff
	ff		 lea	 ecx, DWORD PTR _scanner$[ebp]
  00660	89 85 30 fe ff
	ff		 mov	 DWORD PTR _prop$[ebp+372], eax
  00666	e8 00 00 00 00	 call	 ?GetNumber@CScanner@@QAEHH@Z ; CScanner::GetNumber

; 728  : 		prop.dwReqFp			= scanner.GetNumber();      

  0066b	6a 00		 push	 0
  0066d	8d 8d 54 de ff
	ff		 lea	 ecx, DWORD PTR _scanner$[ebp]
  00673	89 85 34 fe ff
	ff		 mov	 DWORD PTR _prop$[ebp+376], eax
  00679	e8 00 00 00 00	 call	 ?GetNumber@CScanner@@QAEHH@Z ; CScanner::GetNumber

; 729  :         prop.dwReqDisLV			= scanner.GetNumber();      

  0067e	6a 00		 push	 0
  00680	8d 8d 54 de ff
	ff		 lea	 ecx, DWORD PTR _scanner$[ebp]
  00686	89 85 38 fe ff
	ff		 mov	 DWORD PTR _prop$[ebp+380], eax
  0068c	e8 00 00 00 00	 call	 ?GetNumber@CScanner@@QAEHH@Z ; CScanner::GetNumber

; 730  : 		prop.dwReSkill1			= scanner.GetNumber();

  00691	6a 00		 push	 0
  00693	8d 8d 54 de ff
	ff		 lea	 ecx, DWORD PTR _scanner$[ebp]
  00699	89 85 3c fe ff
	ff		 mov	 DWORD PTR _prop$[ebp+384], eax
  0069f	e8 00 00 00 00	 call	 ?GetNumber@CScanner@@QAEHH@Z ; CScanner::GetNumber

; 731  : 		prop.dwReSkillLevel1	= scanner.GetNumber();

  006a4	6a 00		 push	 0
  006a6	8d 8d 54 de ff
	ff		 lea	 ecx, DWORD PTR _scanner$[ebp]
  006ac	89 85 40 fe ff
	ff		 mov	 DWORD PTR _prop$[ebp+388], eax
  006b2	e8 00 00 00 00	 call	 ?GetNumber@CScanner@@QAEHH@Z ; CScanner::GetNumber

; 732  : 		prop.dwReSkill2			= scanner.GetNumber();

  006b7	6a 00		 push	 0
  006b9	8d 8d 54 de ff
	ff		 lea	 ecx, DWORD PTR _scanner$[ebp]
  006bf	89 85 44 fe ff
	ff		 mov	 DWORD PTR _prop$[ebp+392], eax
  006c5	e8 00 00 00 00	 call	 ?GetNumber@CScanner@@QAEHH@Z ; CScanner::GetNumber

; 733  : 		prop.dwReSkillLevel2	= scanner.GetNumber();

  006ca	6a 00		 push	 0
  006cc	8d 8d 54 de ff
	ff		 lea	 ecx, DWORD PTR _scanner$[ebp]
  006d2	89 85 48 fe ff
	ff		 mov	 DWORD PTR _prop$[ebp+396], eax
  006d8	e8 00 00 00 00	 call	 ?GetNumber@CScanner@@QAEHH@Z ; CScanner::GetNumber

; 734  :         prop.dwSkillReadyType	= scanner.GetNumber();      

  006dd	6a 00		 push	 0
  006df	8d 8d 54 de ff
	ff		 lea	 ecx, DWORD PTR _scanner$[ebp]
  006e5	89 85 4c fe ff
	ff		 mov	 DWORD PTR _prop$[ebp+400], eax
  006eb	e8 00 00 00 00	 call	 ?GetNumber@CScanner@@QAEHH@Z ; CScanner::GetNumber

; 735  : 		prop.dwSkillReady		= scanner.GetNumber();      

  006f0	6a 00		 push	 0
  006f2	8d 8d 54 de ff
	ff		 lea	 ecx, DWORD PTR _scanner$[ebp]
  006f8	89 85 50 fe ff
	ff		 mov	 DWORD PTR _prop$[ebp+404], eax
  006fe	e8 00 00 00 00	 call	 ?GetNumber@CScanner@@QAEHH@Z ; CScanner::GetNumber

; 736  : 		prop._dwSkillRange		= scanner.GetNumber();      

  00703	6a 00		 push	 0
  00705	8d 8d 54 de ff
	ff		 lea	 ecx, DWORD PTR _scanner$[ebp]
  0070b	89 85 54 fe ff
	ff		 mov	 DWORD PTR _prop$[ebp+408], eax
  00711	e8 00 00 00 00	 call	 ?GetNumber@CScanner@@QAEHH@Z ; CScanner::GetNumber

; 737  : 		prop.dwSfxElemental		= scanner.GetNumber();      

  00716	6a 00		 push	 0
  00718	8d 8d 54 de ff
	ff		 lea	 ecx, DWORD PTR _scanner$[ebp]
  0071e	89 85 58 fe ff
	ff		 mov	 DWORD PTR _prop$[ebp+412], eax
  00724	e8 00 00 00 00	 call	 ?GetNumber@CScanner@@QAEHH@Z ; CScanner::GetNumber

; 738  : 		prop.dwSfxObj			= scanner.GetNumber();      

  00729	6a 00		 push	 0
  0072b	8d 8d 54 de ff
	ff		 lea	 ecx, DWORD PTR _scanner$[ebp]
  00731	89 85 5c fe ff
	ff		 mov	 DWORD PTR _prop$[ebp+416], eax
  00737	e8 00 00 00 00	 call	 ?GetNumber@CScanner@@QAEHH@Z ; CScanner::GetNumber

; 739  : 		prop.dwSfxObj2			= scanner.GetNumber();      

  0073c	6a 00		 push	 0
  0073e	8d 8d 54 de ff
	ff		 lea	 ecx, DWORD PTR _scanner$[ebp]
  00744	89 85 60 fe ff
	ff		 mov	 DWORD PTR _prop$[ebp+420], eax
  0074a	e8 00 00 00 00	 call	 ?GetNumber@CScanner@@QAEHH@Z ; CScanner::GetNumber

; 740  : 		prop.dwSfxObj3			= scanner.GetNumber();      

  0074f	6a 00		 push	 0
  00751	8d 8d 54 de ff
	ff		 lea	 ecx, DWORD PTR _scanner$[ebp]
  00757	89 85 64 fe ff
	ff		 mov	 DWORD PTR _prop$[ebp+424], eax
  0075d	e8 00 00 00 00	 call	 ?GetNumber@CScanner@@QAEHH@Z ; CScanner::GetNumber

; 741  : 		prop.dwSfxObj4			= scanner.GetNumber();      

  00762	6a 00		 push	 0
  00764	8d 8d 54 de ff
	ff		 lea	 ecx, DWORD PTR _scanner$[ebp]
  0076a	89 85 68 fe ff
	ff		 mov	 DWORD PTR _prop$[ebp+428], eax
  00770	e8 00 00 00 00	 call	 ?GetNumber@CScanner@@QAEHH@Z ; CScanner::GetNumber
  00775	89 85 6c fe ff
	ff		 mov	 DWORD PTR _prop$[ebp+432], eax

; 742  : 		prop.dwSfxObj5			= scanner.GetNumber();      

  0077b	6a 00		 push	 0
  0077d	8d 8d 54 de ff
	ff		 lea	 ecx, DWORD PTR _scanner$[ebp]
  00783	e8 00 00 00 00	 call	 ?GetNumber@CScanner@@QAEHH@Z ; CScanner::GetNumber

; 743  : 		prop.dwUseMotion		= scanner.GetNumber();      

  00788	6a 00		 push	 0
  0078a	8d 8d 54 de ff
	ff		 lea	 ecx, DWORD PTR _scanner$[ebp]
  00790	89 85 70 fe ff
	ff		 mov	 DWORD PTR _prop$[ebp+436], eax
  00796	e8 00 00 00 00	 call	 ?GetNumber@CScanner@@QAEHH@Z ; CScanner::GetNumber

; 744  : 		prop.dwCircleTime		= scanner.GetNumber();      

  0079b	6a 00		 push	 0
  0079d	8d 8d 54 de ff
	ff		 lea	 ecx, DWORD PTR _scanner$[ebp]
  007a3	89 85 74 fe ff
	ff		 mov	 DWORD PTR _prop$[ebp+440], eax
  007a9	e8 00 00 00 00	 call	 ?GetNumber@CScanner@@QAEHH@Z ; CScanner::GetNumber

; 745  : 		prop.dwSkillTime		= scanner.GetNumber();

  007ae	6a 00		 push	 0
  007b0	8d 8d 54 de ff
	ff		 lea	 ecx, DWORD PTR _scanner$[ebp]
  007b6	89 85 78 fe ff
	ff		 mov	 DWORD PTR _prop$[ebp+444], eax
  007bc	e8 00 00 00 00	 call	 ?GetNumber@CScanner@@QAEHH@Z ; CScanner::GetNumber

; 746  : 		prop.dwExeTarget		= scanner.GetNumber();      

  007c1	6a 00		 push	 0
  007c3	8d 8d 54 de ff
	ff		 lea	 ecx, DWORD PTR _scanner$[ebp]
  007c9	89 85 7c fe ff
	ff		 mov	 DWORD PTR _prop$[ebp+448], eax
  007cf	e8 00 00 00 00	 call	 ?GetNumber@CScanner@@QAEHH@Z ; CScanner::GetNumber

; 747  : 		prop.dwUseChance		= scanner.GetNumber();      

  007d4	6a 00		 push	 0
  007d6	8d 8d 54 de ff
	ff		 lea	 ecx, DWORD PTR _scanner$[ebp]
  007dc	89 85 80 fe ff
	ff		 mov	 DWORD PTR _prop$[ebp+452], eax
  007e2	e8 00 00 00 00	 call	 ?GetNumber@CScanner@@QAEHH@Z ; CScanner::GetNumber

; 748  : 		prop.dwSpellRegion		= scanner.GetNumber();   

  007e7	6a 00		 push	 0
  007e9	8d 8d 54 de ff
	ff		 lea	 ecx, DWORD PTR _scanner$[ebp]
  007ef	89 85 84 fe ff
	ff		 mov	 DWORD PTR _prop$[ebp+456], eax
  007f5	e8 00 00 00 00	 call	 ?GetNumber@CScanner@@QAEHH@Z ; CScanner::GetNumber

; 749  : 		prop.dwSpellType		= scanner.GetNumber();

  007fa	6a 00		 push	 0
  007fc	8d 8d 54 de ff
	ff		 lea	 ecx, DWORD PTR _scanner$[ebp]
  00802	89 85 88 fe ff
	ff		 mov	 DWORD PTR _prop$[ebp+460], eax
  00808	e8 00 00 00 00	 call	 ?GetNumber@CScanner@@QAEHH@Z ; CScanner::GetNumber

; 750  : 		prop.dwReferStat1		= scanner.GetNumber();      

  0080d	6a 00		 push	 0
  0080f	8d 8d 54 de ff
	ff		 lea	 ecx, DWORD PTR _scanner$[ebp]
  00815	89 85 94 fd ff
	ff		 mov	 DWORD PTR _prop$[ebp+216], eax
  0081b	e8 00 00 00 00	 call	 ?GetNumber@CScanner@@QAEHH@Z ; CScanner::GetNumber

; 751  : 		prop.dwReferStat2		= scanner.GetNumber();      

  00820	6a 00		 push	 0
  00822	8d 8d 54 de ff
	ff		 lea	 ecx, DWORD PTR _scanner$[ebp]
  00828	89 85 8c fe ff
	ff		 mov	 DWORD PTR _prop$[ebp+464], eax
  0082e	e8 00 00 00 00	 call	 ?GetNumber@CScanner@@QAEHH@Z ; CScanner::GetNumber

; 752  : 		prop.dwReferTarget1		= scanner.GetNumber();      

  00833	6a 00		 push	 0
  00835	8d 8d 54 de ff
	ff		 lea	 ecx, DWORD PTR _scanner$[ebp]
  0083b	89 85 90 fe ff
	ff		 mov	 DWORD PTR _prop$[ebp+468], eax
  00841	e8 00 00 00 00	 call	 ?GetNumber@CScanner@@QAEHH@Z ; CScanner::GetNumber

; 753  : 		prop.dwReferTarget2		= scanner.GetNumber();      

  00846	6a 00		 push	 0
  00848	8d 8d 54 de ff
	ff		 lea	 ecx, DWORD PTR _scanner$[ebp]
  0084e	89 85 94 fe ff
	ff		 mov	 DWORD PTR _prop$[ebp+472], eax
  00854	e8 00 00 00 00	 call	 ?GetNumber@CScanner@@QAEHH@Z ; CScanner::GetNumber

; 754  : 		prop.dwReferValue1		= scanner.GetNumber();      

  00859	6a 00		 push	 0
  0085b	8d 8d 54 de ff
	ff		 lea	 ecx, DWORD PTR _scanner$[ebp]
  00861	89 85 98 fe ff
	ff		 mov	 DWORD PTR _prop$[ebp+476], eax
  00867	e8 00 00 00 00	 call	 ?GetNumber@CScanner@@QAEHH@Z ; CScanner::GetNumber

; 755  : 		prop.dwReferValue2		= scanner.GetNumber();      

  0086c	6a 00		 push	 0
  0086e	8d 8d 54 de ff
	ff		 lea	 ecx, DWORD PTR _scanner$[ebp]
  00874	89 85 9c fe ff
	ff		 mov	 DWORD PTR _prop$[ebp+480], eax
  0087a	e8 00 00 00 00	 call	 ?GetNumber@CScanner@@QAEHH@Z ; CScanner::GetNumber

; 756  : 		prop.dwSkillType		= scanner.GetNumber();      

  0087f	6a 00		 push	 0
  00881	8d 8d 54 de ff
	ff		 lea	 ecx, DWORD PTR _scanner$[ebp]
  00887	89 85 a0 fe ff
	ff		 mov	 DWORD PTR _prop$[ebp+484], eax
  0088d	e8 00 00 00 00	 call	 ?GetNumber@CScanner@@QAEHH@Z ; CScanner::GetNumber

; 757  : 		prop.nItemResistElecricity	= (int)(scanner.GetFloat() * 100.0f);

  00892	6a 00		 push	 0
  00894	8d 8d 54 de ff
	ff		 lea	 ecx, DWORD PTR _scanner$[ebp]
  0089a	89 85 a4 fe ff
	ff		 mov	 DWORD PTR _prop$[ebp+488], eax
  008a0	e8 00 00 00 00	 call	 ?GetFloat@CScanner@@QAEMH@Z ; CScanner::GetFloat
  008a5	d8 0d 00 00 00
	00		 fmul	 DWORD PTR __real@42c80000

; 758  : 		prop.nItemResistFire	    = (int)(scanner.GetFloat() * 100.0f);      

  008ab	8d 8d 54 de ff
	ff		 lea	 ecx, DWORD PTR _scanner$[ebp]
  008b1	6a 00		 push	 0
  008b3	d9 9d 50 de ff
	ff		 fstp	 DWORD PTR tv2400[ebp]
  008b9	f3 0f 2c 85 50
	de ff ff	 cvttss2si eax, DWORD PTR tv2400[ebp]
  008c1	89 85 a8 fe ff
	ff		 mov	 DWORD PTR _prop$[ebp+492], eax
  008c7	e8 00 00 00 00	 call	 ?GetFloat@CScanner@@QAEMH@Z ; CScanner::GetFloat
  008cc	d8 0d 00 00 00
	00		 fmul	 DWORD PTR __real@42c80000

; 759  : 		prop.nItemResistWind	    = (int)(scanner.GetFloat() * 100.0f);      

  008d2	8d 8d 54 de ff
	ff		 lea	 ecx, DWORD PTR _scanner$[ebp]
  008d8	6a 00		 push	 0
  008da	d9 9d 50 de ff
	ff		 fstp	 DWORD PTR tv2396[ebp]
  008e0	f3 0f 2c 85 50
	de ff ff	 cvttss2si eax, DWORD PTR tv2396[ebp]
  008e8	89 85 b0 fe ff
	ff		 mov	 DWORD PTR _prop$[ebp+500], eax
  008ee	e8 00 00 00 00	 call	 ?GetFloat@CScanner@@QAEMH@Z ; CScanner::GetFloat
  008f3	d8 0d 00 00 00
	00		 fmul	 DWORD PTR __real@42c80000
  008f9	d9 9d 50 de ff
	ff		 fstp	 DWORD PTR tv2392[ebp]
  008ff	f3 0f 2c 85 50
	de ff ff	 cvttss2si eax, DWORD PTR tv2392[ebp]
  00907	89 85 b4 fe ff
	ff		 mov	 DWORD PTR _prop$[ebp+504], eax

; 760  : 		prop.nItemResistWater	    = (int)(scanner.GetFloat() * 100.0f);      

  0090d	6a 00		 push	 0
  0090f	8d 8d 54 de ff
	ff		 lea	 ecx, DWORD PTR _scanner$[ebp]
  00915	e8 00 00 00 00	 call	 ?GetFloat@CScanner@@QAEMH@Z ; CScanner::GetFloat
  0091a	d8 0d 00 00 00
	00		 fmul	 DWORD PTR __real@42c80000

; 761  : 		prop.nItemResistEarth	    = (int)(scanner.GetFloat() * 100.0f);      

  00920	8d 8d 54 de ff
	ff		 lea	 ecx, DWORD PTR _scanner$[ebp]
  00926	6a 00		 push	 0
  00928	d9 9d 50 de ff
	ff		 fstp	 DWORD PTR tv2388[ebp]
  0092e	f3 0f 2c 85 50
	de ff ff	 cvttss2si eax, DWORD PTR tv2388[ebp]
  00936	89 85 b8 fe ff
	ff		 mov	 DWORD PTR _prop$[ebp+508], eax
  0093c	e8 00 00 00 00	 call	 ?GetFloat@CScanner@@QAEMH@Z ; CScanner::GetFloat
  00941	d8 0d 00 00 00
	00		 fmul	 DWORD PTR __real@42c80000

; 762  : 		prop.nEvildoing			= scanner.GetNumber();      

  00947	8d 8d 54 de ff
	ff		 lea	 ecx, DWORD PTR _scanner$[ebp]
  0094d	6a 00		 push	 0
  0094f	d9 9d 50 de ff
	ff		 fstp	 DWORD PTR tv2384[ebp]
  00955	f3 0f 2c 85 50
	de ff ff	 cvttss2si eax, DWORD PTR tv2384[ebp]
  0095d	89 85 bc fe ff
	ff		 mov	 DWORD PTR _prop$[ebp+512], eax
  00963	e8 00 00 00 00	 call	 ?GetNumber@CScanner@@QAEHH@Z ; CScanner::GetNumber

; 763  : 		prop.dwExpertLV			= scanner.GetNumber();      

  00968	6a 00		 push	 0
  0096a	8d 8d 54 de ff
	ff		 lea	 ecx, DWORD PTR _scanner$[ebp]
  00970	89 85 c0 fe ff
	ff		 mov	 DWORD PTR _prop$[ebp+516], eax
  00976	e8 00 00 00 00	 call	 ?GetNumber@CScanner@@QAEHH@Z ; CScanner::GetNumber

; 764  : 		prop.dwExpertMax		= scanner.GetNumber();   

  0097b	6a 00		 push	 0
  0097d	8d 8d 54 de ff
	ff		 lea	 ecx, DWORD PTR _scanner$[ebp]
  00983	89 85 c4 fe ff
	ff		 mov	 DWORD PTR _prop$[ebp+520], eax
  00989	e8 00 00 00 00	 call	 ?GetNumber@CScanner@@QAEHH@Z ; CScanner::GetNumber

; 765  : 		prop.dwSubDefine		= scanner.GetNumber();

  0098e	6a 00		 push	 0
  00990	8d 8d 54 de ff
	ff		 lea	 ecx, DWORD PTR _scanner$[ebp]
  00996	89 85 c8 fe ff
	ff		 mov	 DWORD PTR _prop$[ebp+524], eax
  0099c	e8 00 00 00 00	 call	 ?GetNumber@CScanner@@QAEHH@Z ; CScanner::GetNumber

; 766  : 		prop.dwExp				= scanner.GetNumber();      

  009a1	6a 00		 push	 0
  009a3	8d 8d 54 de ff
	ff		 lea	 ecx, DWORD PTR _scanner$[ebp]
  009a9	89 85 cc fe ff
	ff		 mov	 DWORD PTR _prop$[ebp+528], eax
  009af	e8 00 00 00 00	 call	 ?GetNumber@CScanner@@QAEHH@Z ; CScanner::GetNumber

; 767  : 		prop.dwComboStyle		= scanner.GetNumber();      

  009b4	6a 00		 push	 0
  009b6	8d 8d 54 de ff
	ff		 lea	 ecx, DWORD PTR _scanner$[ebp]
  009bc	89 85 d0 fe ff
	ff		 mov	 DWORD PTR _prop$[ebp+532], eax
  009c2	e8 00 00 00 00	 call	 ?GetNumber@CScanner@@QAEHH@Z ; CScanner::GetNumber

; 768  : 		prop.fFlightSpeed		= scanner.GetFloat();      

  009c7	6a 00		 push	 0
  009c9	8d 8d 54 de ff
	ff		 lea	 ecx, DWORD PTR _scanner$[ebp]
  009cf	89 85 d4 fe ff
	ff		 mov	 DWORD PTR _prop$[ebp+536], eax
  009d5	e8 00 00 00 00	 call	 ?GetFloat@CScanner@@QAEMH@Z ; CScanner::GetFloat
  009da	d9 9d d8 fe ff
	ff		 fstp	 DWORD PTR _prop$[ebp+540]

; 769  : 		prop.fFlightLRAngle		= scanner.GetFloat();      

  009e0	6a 00		 push	 0
  009e2	8d 8d 54 de ff
	ff		 lea	 ecx, DWORD PTR _scanner$[ebp]
  009e8	e8 00 00 00 00	 call	 ?GetFloat@CScanner@@QAEMH@Z ; CScanner::GetFloat
  009ed	d9 9d dc fe ff
	ff		 fstp	 DWORD PTR _prop$[ebp+544]

; 770  : 		prop.fFlightTBAngle		= scanner.GetFloat();      

  009f3	6a 00		 push	 0
  009f5	8d 8d 54 de ff
	ff		 lea	 ecx, DWORD PTR _scanner$[ebp]
  009fb	e8 00 00 00 00	 call	 ?GetFloat@CScanner@@QAEMH@Z ; CScanner::GetFloat

; 771  : 		prop.dwFlightLimit		= scanner.GetNumber();      

  00a00	6a 00		 push	 0
  00a02	8d 8d 54 de ff
	ff		 lea	 ecx, DWORD PTR _scanner$[ebp]
  00a08	d9 9d e0 fe ff
	ff		 fstp	 DWORD PTR _prop$[ebp+548]
  00a0e	e8 00 00 00 00	 call	 ?GetNumber@CScanner@@QAEHH@Z ; CScanner::GetNumber

; 772  : 		prop.dwFFuelReMax		= scanner.GetNumber();      

  00a13	6a 00		 push	 0
  00a15	8d 8d 54 de ff
	ff		 lea	 ecx, DWORD PTR _scanner$[ebp]
  00a1b	89 85 e4 fe ff
	ff		 mov	 DWORD PTR _prop$[ebp+552], eax
  00a21	e8 00 00 00 00	 call	 ?GetNumber@CScanner@@QAEHH@Z ; CScanner::GetNumber

; 773  : 		prop.dwAFuelReMax		= scanner.GetNumber();      

  00a26	6a 00		 push	 0
  00a28	8d 8d 54 de ff
	ff		 lea	 ecx, DWORD PTR _scanner$[ebp]
  00a2e	89 85 e8 fe ff
	ff		 mov	 DWORD PTR _prop$[ebp+556], eax
  00a34	e8 00 00 00 00	 call	 ?GetNumber@CScanner@@QAEHH@Z ; CScanner::GetNumber

; 774  : 		prop.dwFuelRe			= scanner.GetNumber();      

  00a39	6a 00		 push	 0
  00a3b	8d 8d 54 de ff
	ff		 lea	 ecx, DWORD PTR _scanner$[ebp]
  00a41	89 85 90 fd ff
	ff		 mov	 DWORD PTR _prop$[ebp+212], eax
  00a47	e8 00 00 00 00	 call	 ?GetNumber@CScanner@@QAEHH@Z ; CScanner::GetNumber

; 775  : 		prop.dwLimitLevel1		= scanner.GetNumber();

  00a4c	6a 00		 push	 0
  00a4e	8d 8d 54 de ff
	ff		 lea	 ecx, DWORD PTR _scanner$[ebp]
  00a54	89 85 8c fd ff
	ff		 mov	 DWORD PTR _prop$[ebp+208], eax
  00a5a	e8 00 00 00 00	 call	 ?GetNumber@CScanner@@QAEHH@Z ; CScanner::GetNumber

; 776  : 		prop.nReflect			= scanner.GetNumber();      

  00a5f	6a 00		 push	 0
  00a61	8d 8d 54 de ff
	ff		 lea	 ecx, DWORD PTR _scanner$[ebp]
  00a67	89 85 ec fe ff
	ff		 mov	 DWORD PTR _prop$[ebp+560], eax
  00a6d	e8 00 00 00 00	 call	 ?GetNumber@CScanner@@QAEHH@Z ; CScanner::GetNumber

; 777  : 		prop.dwSndAttack1		= scanner.GetNumber();     

  00a72	6a 00		 push	 0
  00a74	8d 8d 54 de ff
	ff		 lea	 ecx, DWORD PTR _scanner$[ebp]
  00a7a	89 85 f0 fe ff
	ff		 mov	 DWORD PTR _prop$[ebp+564], eax
  00a80	e8 00 00 00 00	 call	 ?GetNumber@CScanner@@QAEHH@Z ; CScanner::GetNumber

; 778  : 		prop.dwSndAttack2		= scanner.GetNumber();     

  00a85	6a 00		 push	 0
  00a87	8d 8d 54 de ff
	ff		 lea	 ecx, DWORD PTR _scanner$[ebp]
  00a8d	89 85 f4 fe ff
	ff		 mov	 DWORD PTR _prop$[ebp+568], eax
  00a93	e8 00 00 00 00	 call	 ?GetNumber@CScanner@@QAEHH@Z ; CScanner::GetNumber

; 779  : 		
; 780  : 		// szIcon
; 781  : 		scanner.GetToken();

  00a98	6a 00		 push	 0
  00a9a	8d 8d 54 de ff
	ff		 lea	 ecx, DWORD PTR _scanner$[ebp]
  00aa0	89 85 f8 fe ff
	ff		 mov	 DWORD PTR _prop$[ebp+572], eax
  00aa6	e8 00 00 00 00	 call	 ?GetToken@CScript@@UAEHH@Z ; CScript::GetToken

; 782  : 		scanner.GetToken();	

  00aab	6a 00		 push	 0
  00aad	8d 8d 54 de ff
	ff		 lea	 ecx, DWORD PTR _scanner$[ebp]
  00ab3	e8 00 00 00 00	 call	 ?GetToken@CScript@@UAEHH@Z ; CScript::GetToken

; 783  : 	#ifdef __CLIENT		
; 784  : 		_tcsncpy( prop.szIcon, scanner.token, sizeof(prop.szIcon)-1 );
; 785  : 		prop.szCommand[sizeof(prop.szIcon)-1] = 0;
; 786  : 	#endif 
; 787  : 
; 788  : #ifdef __VERIFY_0201
; 789  : 		_tcsncpy( prop.szIcon, scanner.token, sizeof(prop.szIcon)-1 );
; 790  : 		prop.szCommand[sizeof(prop.szIcon)-1] = 0;
; 791  : #endif	// __VERIFY_0201
; 792  : 
; 793  : 		scanner.GetToken();

  00ab8	6a 00		 push	 0
  00aba	8d 8d 54 de ff
	ff		 lea	 ecx, DWORD PTR _scanner$[ebp]
  00ac0	e8 00 00 00 00	 call	 ?GetToken@CScript@@UAEHH@Z ; CScript::GetToken

; 794  : 
; 795  : 		// dwQuestId
; 796  : 		prop.dwQuestId	= scanner.GetNumber(  );

  00ac5	6a 00		 push	 0
  00ac7	8d 8d 54 de ff
	ff		 lea	 ecx, DWORD PTR _scanner$[ebp]
  00acd	e8 00 00 00 00	 call	 ?GetNumber@CScanner@@QAEHH@Z ; CScanner::GetNumber

; 797  : 
; 798  : 		// szTextFileName 
; 799  : 		scanner.GetToken();

  00ad2	6a 00		 push	 0
  00ad4	8d 8d 54 de ff
	ff		 lea	 ecx, DWORD PTR _scanner$[ebp]
  00ada	89 85 fc fe ff
	ff		 mov	 DWORD PTR _prop$[ebp+576], eax
  00ae0	e8 00 00 00 00	 call	 ?GetToken@CScript@@UAEHH@Z ; CScript::GetToken

; 800  : 		scanner.GetToken(); 

  00ae5	6a 00		 push	 0
  00ae7	8d 8d 54 de ff
	ff		 lea	 ecx, DWORD PTR _scanner$[ebp]
  00aed	e8 00 00 00 00	 call	 ?GetToken@CScript@@UAEHH@Z ; CScript::GetToken

; 801  : 		_tcscpy( prop.szTextFileName, scanner.token );

  00af2	8b 8d 90 de ff
	ff		 mov	 ecx, DWORD PTR _scanner$[ebp+60]
  00af8	8d 95 00 ff ff
	ff		 lea	 edx, DWORD PTR _prop$[ebp+580]
  00afe	2b d1		 sub	 edx, ecx
$LL19@LoadPropIt:
  00b00	8a 01		 mov	 al, BYTE PTR [ecx]
  00b02	8d 49 01	 lea	 ecx, DWORD PTR [ecx+1]
  00b05	88 44 0a ff	 mov	 BYTE PTR [edx+ecx-1], al
  00b09	84 c0		 test	 al, al
  00b0b	75 f3		 jne	 SHORT $LL19@LoadPropIt

; 802  : 		scanner.GetToken();

  00b0d	6a 00		 push	 0
  00b0f	8d 8d 54 de ff
	ff		 lea	 ecx, DWORD PTR _scanner$[ebp]
  00b15	e8 00 00 00 00	 call	 ?GetToken@CScript@@UAEHH@Z ; CScript::GetToken

; 803  : 
; 804  : 		// szCommand
; 805  : 		scanner.GetToken();		

  00b1a	6a 00		 push	 0
  00b1c	8d 8d 54 de ff
	ff		 lea	 ecx, DWORD PTR _scanner$[ebp]
  00b22	e8 00 00 00 00	 call	 ?GetToken@CScript@@UAEHH@Z ; CScript::GetToken

; 806  : 	#ifdef __CLIENT		
; 807  : 		_tcsncpy( prop.szCommand, scanner.token, sizeof(prop.szCommand)-1 );
; 808  : 		prop.szCommand[sizeof(prop.szCommand)-1] = 0;
; 809  : 	#endif // __CLIENT
; 810  : 
; 811  : #if __VER >= 16
; 812  : 		prop.dwBuffTickType		= scanner.GetNumber();

  00b27	6a 00		 push	 0
  00b29	8d 8d 54 de ff
	ff		 lea	 ecx, DWORD PTR _scanner$[ebp]
  00b2f	e8 00 00 00 00	 call	 ?GetNumber@CScanner@@QAEHH@Z ; CScanner::GetNumber

; 813  : #endif
; 814  : 
; 815  : #if __VER >= 18
; 816  : 		prop.dwMonsterGrade			= scanner.GetNumber();

  00b34	6a 00		 push	 0
  00b36	8d 8d 54 de ff
	ff		 lea	 ecx, DWORD PTR _scanner$[ebp]
  00b3c	89 45 b0	 mov	 DWORD PTR _prop$[ebp+756], eax
  00b3f	e8 00 00 00 00	 call	 ?GetNumber@CScanner@@QAEHH@Z ; CScanner::GetNumber

; 817  : 		prop.dwEquipItemKeepSkill	= scanner.GetNumber();

  00b44	6a 00		 push	 0
  00b46	8d 8d 54 de ff
	ff		 lea	 ecx, DWORD PTR _scanner$[ebp]
  00b4c	89 45 cc	 mov	 DWORD PTR _prop$[ebp+784], eax
  00b4f	e8 00 00 00 00	 call	 ?GetNumber@CScanner@@QAEHH@Z ; CScanner::GetNumber
  00b54	89 45 d0	 mov	 DWORD PTR _prop$[ebp+788], eax

; 818  : #endif
; 819  : 
; 820  : 	#ifdef __WORLDSERVER
; 821  : 		#ifdef __INTERNALSERVER
; 822  : 			prop.nLog = -1;		// °łąßĽ·żˇĽ± ŔĚ°Ĺ ą«˝Ă.
; 823  : 		#endif
; 824  : 		if( g_eLocal.GetState( EVE_SCHOOL ) )
; 825  : 		{
; 826  : 			prop.dwShopAble	= 1;
; 827  : 			if( prop.dwItemRare == (DWORD)-1 )
; 828  : 				prop.dwItemRare		= prop.dwItemLV;
; 829  : 		}
; 830  : 	#endif	// __WORLDSERVER
; 831  : 
; 832  : 		if( ::GetLanguage() == LANG_THA )

  00b57	e8 00 00 00 00	 call	 ?GetLanguage@@YAHXZ	; GetLanguage
  00b5c	83 f8 04	 cmp	 eax, 4
  00b5f	75 73		 jne	 SHORT $LN15@LoadPropIt

; 833  : 		{
; 834  : 			if( prop.dwLimitLevel1 > 0 && prop.dwLimitLevel1 <= 5 )

  00b61	8b 85 ec fe ff
	ff		 mov	 eax, DWORD PTR _prop$[ebp+560]
  00b67	85 c0		 test	 eax, eax
  00b69	74 11		 je	 SHORT $LN7@LoadPropIt
  00b6b	83 f8 05	 cmp	 eax, 5
  00b6e	77 11		 ja	 SHORT $LN259@LoadPropIt

; 835  : 				prop.dwLimitLevel1	= 1;

  00b70	c7 85 ec fe ff
	ff 01 00 00 00	 mov	 DWORD PTR _prop$[ebp+560], 1
  00b7a	eb 58		 jmp	 SHORT $LN15@LoadPropIt
$LN7@LoadPropIt:

; 836  : 			else if( prop.dwLimitLevel1 > 5 && prop.dwLimitLevel1 <= 15 )

  00b7c	83 f8 05	 cmp	 eax, 5
  00b7f	76 11		 jbe	 SHORT $LN9@LoadPropIt
$LN259@LoadPropIt:
  00b81	83 f8 0f	 cmp	 eax, 15			; 0000000fH
  00b84	77 11		 ja	 SHORT $LN258@LoadPropIt

; 837  : 				prop.dwLimitLevel1	= 5;

  00b86	c7 85 ec fe ff
	ff 05 00 00 00	 mov	 DWORD PTR _prop$[ebp+560], 5
  00b90	eb 42		 jmp	 SHORT $LN15@LoadPropIt
$LN9@LoadPropIt:

; 838  : 			else if( prop.dwLimitLevel1 > 15 && prop.dwLimitLevel1 <= 30 )

  00b92	83 f8 0f	 cmp	 eax, 15			; 0000000fH
  00b95	76 11		 jbe	 SHORT $LN11@LoadPropIt
$LN258@LoadPropIt:
  00b97	83 f8 1e	 cmp	 eax, 30			; 0000001eH
  00b9a	77 11		 ja	 SHORT $LN257@LoadPropIt

; 839  : 				prop.dwLimitLevel1	= 15;

  00b9c	c7 85 ec fe ff
	ff 0f 00 00 00	 mov	 DWORD PTR _prop$[ebp+560], 15 ; 0000000fH
  00ba6	eb 2c		 jmp	 SHORT $LN15@LoadPropIt
$LN11@LoadPropIt:

; 840  : 			else if( prop.dwLimitLevel1 > 30 && prop.dwLimitLevel1 <= 45 )

  00ba8	83 f8 1e	 cmp	 eax, 30			; 0000001eH
  00bab	76 11		 jbe	 SHORT $LN13@LoadPropIt
$LN257@LoadPropIt:
  00bad	83 f8 2d	 cmp	 eax, 45			; 0000002dH
  00bb0	77 11		 ja	 SHORT $LN256@LoadPropIt

; 841  : 				prop.dwLimitLevel1	= 30;

  00bb2	c7 85 ec fe ff
	ff 1e 00 00 00	 mov	 DWORD PTR _prop$[ebp+560], 30 ; 0000001eH
  00bbc	eb 16		 jmp	 SHORT $LN15@LoadPropIt
$LN13@LoadPropIt:

; 842  : 			else if( prop.dwLimitLevel1 > 45 && prop.dwLimitLevel1 < 60 )

  00bbe	83 f8 2d	 cmp	 eax, 45			; 0000002dH
  00bc1	76 11		 jbe	 SHORT $LN15@LoadPropIt
$LN256@LoadPropIt:
  00bc3	83 f8 3c	 cmp	 eax, 60			; 0000003cH
  00bc6	b9 2d 00 00 00	 mov	 ecx, 45			; 0000002dH
  00bcb	0f 42 c1	 cmovb	 eax, ecx
  00bce	89 85 ec fe ff
	ff		 mov	 DWORD PTR _prop$[ebp+560], eax
$LN15@LoadPropIt:

; 843  : 				prop.dwLimitLevel1	= 45;
; 844  : 		}
; 845  : 		
; 846  : 		if( nVer <= __VER )

  00bd4	83 fb 12	 cmp	 ebx, 18			; 00000012H
  00bd7	0f 8f 53 01 00
	00		 jg	 $LN262@LoadPropIt
; File C:\Program Files\Microsoft Visual Studio\2022\Professional\VC\Tools\MSVC\14.44.35207\include\utility

; 274  :         : first(_STD forward<_Other1>(_Val1)), second(_STD forward<_Other2>(_Val2)) {

  00bdd	8d 85 c0 fc ff
	ff		 lea	 eax, DWORD PTR _prop$[ebp+4]
  00be3	50		 push	 eax
  00be4	8d 4d d4	 lea	 ecx, DWORD PTR $T5[ebp]
  00be7	e8 00 00 00 00	 call	 ??0?$basic_string@DU?$char_traits@D@std@@V?$allocator@D@2@@std@@QAE@QBD@Z ; std::basic_string<char,std::char_traits<char>,std::allocator<char> >::basic_string<char,std::char_traits<char>,std::allocator<char> >
  00bec	8b 85 bc fc ff
	ff		 mov	 eax, DWORD PTR _prop$[ebp]
  00bf2	89 45 ec	 mov	 DWORD PTR $T5[ebp+24], eax
; File C:\IAGOS\server\v18\Source\Source\_Common\ProjectCmn.cpp

; 849  : 			m_mapII.insert( map<string, DWORD>::value_type( prop.szName, prop.dwID ) );

  00bf5	8b b5 40 de ff
	ff		 mov	 esi, DWORD PTR _this$GSCopy$1$[ebp]
; File C:\Program Files\Microsoft Visual Studio\2022\Professional\VC\Tools\MSVC\14.44.35207\include\xtree

; 1630 :         _Tree_find_result<_Nodeptr> _Result{{_Scary->_Myhead->_Parent, _Tree_child::_Right}, _Scary->_Myhead};

  00bfb	33 db		 xor	 ebx, ebx
; File C:\IAGOS\server\v18\Source\Source\_Common\ProjectCmn.cpp

; 849  : 			m_mapII.insert( map<string, DWORD>::value_type( prop.szName, prop.dwID ) );

  00bfd	83 c6 08	 add	 esi, 8
  00c00	c6 45 fc 01	 mov	 BYTE PTR __$EHRec$[ebp+8], 1
  00c04	89 b5 50 de ff
	ff		 mov	 DWORD PTR _this$1$[ebp], esi
; File C:\Program Files\Microsoft Visual Studio\2022\Professional\VC\Tools\MSVC\14.44.35207\include\xtree

; 1630 :         _Tree_find_result<_Nodeptr> _Result{{_Scary->_Myhead->_Parent, _Tree_child::_Right}, _Scary->_Myhead};

  00c0a	8b 06		 mov	 eax, DWORD PTR [esi]
  00c0c	89 85 3c de ff
	ff		 mov	 DWORD PTR __Myhead$1$[ebp], eax
  00c12	89 85 4c de ff
	ff		 mov	 DWORD PTR $T1$sroa$1779$1$[ebp], eax
  00c18	8b 78 04	 mov	 edi, DWORD PTR [eax+4]
  00c1b	89 bd 48 de ff
	ff		 mov	 DWORD PTR __Loc$1$[ebp], edi

; 1631 :         _Nodeptr _Trynode = _Result._Location._Parent;
; 1632 :         while (!_Trynode->_Isnil) {

  00c21	38 5f 0d	 cmp	 BYTE PTR [edi+13], bl
  00c24	75 4c		 jne	 SHORT $LN78@LoadPropIt
  00c26	8b f7		 mov	 esi, edi
  00c28	0f 1f 84 00 00
	00 00 00	 npad	 8
$LL77@LoadPropIt:
; File C:\Program Files\Microsoft Visual Studio\2022\Professional\VC\Tools\MSVC\14.44.35207\include\type_traits

; 2380 :         return _Left < _Right;

  00c30	8d 45 d4	 lea	 eax, DWORD PTR $T5[ebp]
; File C:\Program Files\Microsoft Visual Studio\2022\Professional\VC\Tools\MSVC\14.44.35207\include\xtree

; 1633 :             _Result._Location._Parent = _Trynode;

  00c33	89 b5 48 de ff
	ff		 mov	 DWORD PTR __Loc$1$[ebp], esi
; File C:\Program Files\Microsoft Visual Studio\2022\Professional\VC\Tools\MSVC\14.44.35207\include\type_traits

; 2380 :         return _Left < _Right;

  00c39	50		 push	 eax
; File C:\Program Files\Microsoft Visual Studio\2022\Professional\VC\Tools\MSVC\14.44.35207\include\xtree

; 1634 :             if (_DEBUG_LT_PRED(_Getcomp(), _Traits::_Kfn(_Trynode->_Myval), _Keyval)) {

  00c3a	8d 46 10	 lea	 eax, DWORD PTR [esi+16]
; File C:\Program Files\Microsoft Visual Studio\2022\Professional\VC\Tools\MSVC\14.44.35207\include\type_traits

; 2380 :         return _Left < _Right;

  00c3d	50		 push	 eax
  00c3e	e8 00 00 00 00	 call	 ??$?MDU?$char_traits@D@std@@V?$allocator@D@1@@std@@YA_NABV?$basic_string@DU?$char_traits@D@std@@V?$allocator@D@2@@0@0@Z ; std::operator<<char,std::char_traits<char>,std::allocator<char> >
  00c43	83 c4 08	 add	 esp, 8
; File C:\Program Files\Microsoft Visual Studio\2022\Professional\VC\Tools\MSVC\14.44.35207\include\xtree

; 1634 :             if (_DEBUG_LT_PRED(_Getcomp(), _Traits::_Kfn(_Trynode->_Myval), _Keyval)) {

  00c46	84 c0		 test	 al, al
  00c48	74 0d		 je	 SHORT $LN79@LoadPropIt

; 1635 :                 _Result._Location._Child = _Tree_child::_Right;
; 1636 :                 _Trynode                 = _Trynode->_Right;

  00c4a	8b 76 08	 mov	 esi, DWORD PTR [esi+8]
  00c4d	33 db		 xor	 ebx, ebx

; 1637 :             } else {

  00c4f	8b 85 4c de ff
	ff		 mov	 eax, DWORD PTR $T1$sroa$1779$1$[ebp]
  00c55	eb 0f		 jmp	 SHORT $LN80@LoadPropIt
$LN79@LoadPropIt:

; 1638 :                 _Result._Location._Child = _Tree_child::_Left;
; 1639 :                 _Result._Bound           = _Trynode;

  00c57	8b c6		 mov	 eax, esi
  00c59	bb 01 00 00 00	 mov	 ebx, 1

; 1640 :                 _Trynode                 = _Trynode->_Left;

  00c5e	8b 36		 mov	 esi, DWORD PTR [esi]
  00c60	89 85 4c de ff
	ff		 mov	 DWORD PTR $T1$sroa$1779$1$[ebp], eax
$LN80@LoadPropIt:

; 1631 :         _Nodeptr _Trynode = _Result._Location._Parent;
; 1632 :         while (!_Trynode->_Isnil) {

  00c66	80 7e 0d 00	 cmp	 BYTE PTR [esi+13], 0
  00c6a	74 c4		 je	 SHORT $LL77@LoadPropIt
  00c6c	8b b5 50 de ff
	ff		 mov	 esi, DWORD PTR _this$1$[ebp]
$LN78@LoadPropIt:

; 1624 :         return !_Bound->_Isnil && !_DEBUG_LT_PRED(_Getcomp(), _Keyval, _Traits::_Kfn(_Bound->_Myval));

  00c72	80 78 0d 00	 cmp	 BYTE PTR [eax+13], 0
  00c76	75 14		 jne	 SHORT $LN87@LoadPropIt
  00c78	83 c0 10	 add	 eax, 16			; 00000010H
; File C:\Program Files\Microsoft Visual Studio\2022\Professional\VC\Tools\MSVC\14.44.35207\include\type_traits

; 2380 :         return _Left < _Right;

  00c7b	50		 push	 eax
  00c7c	8d 45 d4	 lea	 eax, DWORD PTR $T5[ebp]
  00c7f	50		 push	 eax
  00c80	e8 00 00 00 00	 call	 ??$?MDU?$char_traits@D@std@@V?$allocator@D@1@@std@@YA_NABV?$basic_string@DU?$char_traits@D@std@@V?$allocator@D@2@@0@0@Z ; std::operator<<char,std::char_traits<char>,std::allocator<char> >
  00c85	83 c4 08	 add	 esp, 8
; File C:\Program Files\Microsoft Visual Studio\2022\Professional\VC\Tools\MSVC\14.44.35207\include\xtree

; 1624 :         return !_Bound->_Isnil && !_DEBUG_LT_PRED(_Getcomp(), _Keyval, _Traits::_Kfn(_Bound->_Myval));

  00c88	84 c0		 test	 al, al
  00c8a	74 7a		 je	 SHORT $LN212@LoadPropIt
$LN87@LoadPropIt:

; 1648 :         if (max_size() == _Get_scary()->_Mysize) {

  00c8c	81 7e 04 5d 74
	d1 05		 cmp	 DWORD PTR [esi+4], 97612893 ; 05d1745dH
  00c93	0f 84 1f 01 00
	00		 je	 $LN240@LoadPropIt
; File C:\Program Files\Microsoft Visual Studio\2022\Professional\VC\Tools\MSVC\14.44.35207\include\xmemory

; 1160 :     _CONSTEXPR20 explicit _Alloc_construct_ptr(_Alloc& _Al_) : _Al(_Al_), _Ptr(nullptr) {}

  00c99	89 b5 30 de ff
	ff		 mov	 DWORD PTR $T4[ebp], esi

; 136  :         return ::operator new(_Bytes);

  00c9f	6a 2c		 push	 44			; 0000002cH
; File C:\Program Files\Microsoft Visual Studio\2022\Professional\VC\Tools\MSVC\14.44.35207\include\xtree

; 808  :     explicit _Tree_temp_node_alloc(_Alnode& _Al_) : _Alloc_construct_ptr<_Alnode>(_Al_) {

  00ca1	c6 45 fc 02	 mov	 BYTE PTR __$EHRec$[ebp+8], 2
; File C:\Program Files\Microsoft Visual Studio\2022\Professional\VC\Tools\MSVC\14.44.35207\include\xmemory

; 1167 :         _Ptr = nullptr; // if allocate throws, prevents double-free

  00ca5	c7 85 34 de ff
	ff 00 00 00 00	 mov	 DWORD PTR $T4[ebp+4], 0

; 136  :         return ::operator new(_Bytes);

  00caf	e8 00 00 00 00	 call	 ??2@YAPAXI@Z		; operator new

; 256  :         return _Traits::_Allocate(_Bytes);

  00cb4	8b f8		 mov	 edi, eax

; 136  :         return ::operator new(_Bytes);

  00cb6	83 c4 04	 add	 esp, 4

; 1168 :         _Ptr = _Al.allocate(1);

  00cb9	89 bd 34 de ff
	ff		 mov	 DWORD PTR $T4[ebp+4], edi
; File C:\Program Files\Microsoft Visual Studio\2022\Professional\VC\Tools\MSVC\14.44.35207\include\utility

; 278  :     pair(pair&&)      = default;

  00cbf	8d 45 d4	 lea	 eax, DWORD PTR $T5[ebp]
; File C:\Program Files\Microsoft Visual Studio\2022\Professional\VC\Tools\MSVC\14.44.35207\include\xtree

; 829  :         : _Tree_temp_node_alloc<_Alnode>(_Al_) {

  00cc2	c6 45 fc 03	 mov	 BYTE PTR __$EHRec$[ebp+8], 3
; File C:\Program Files\Microsoft Visual Studio\2022\Professional\VC\Tools\MSVC\14.44.35207\include\utility

; 278  :     pair(pair&&)      = default;

  00cc6	50		 push	 eax
  00cc7	8d 4f 10	 lea	 ecx, DWORD PTR [edi+16]
  00cca	e8 00 00 00 00	 call	 ??0?$basic_string@DU?$char_traits@D@std@@V?$allocator@D@2@@std@@QAE@ABV01@@Z ; std::basic_string<char,std::char_traits<char>,std::allocator<char> >::basic_string<char,std::char_traits<char>,std::allocator<char> >
; File C:\Program Files\Microsoft Visual Studio\2022\Professional\VC\Tools\MSVC\14.44.35207\include\xtree

; 831  :         _Construct_in_place(this->_Ptr->_Left, _Myhead);

  00ccf	8b 85 3c de ff
	ff		 mov	 eax, DWORD PTR __Myhead$1$[ebp]
; File C:\Program Files\Microsoft Visual Studio\2022\Professional\VC\Tools\MSVC\14.44.35207\include\utility

; 278  :     pair(pair&&)      = default;

  00cd5	8b 4d ec	 mov	 ecx, DWORD PTR $T5[ebp+24]
  00cd8	89 4f 28	 mov	 DWORD PTR [edi+40], ecx
; File C:\Program Files\Microsoft Visual Studio\2022\Professional\VC\Tools\MSVC\14.44.35207\include\xtree

; 1042 :         return {_Scary->_Insert_node(_Loc._Location, _Inserted), true};

  00cdb	8b 8d 50 de ff
	ff		 mov	 ecx, DWORD PTR _this$1$[ebp]
  00ce1	57		 push	 edi

; 831  :         _Construct_in_place(this->_Ptr->_Left, _Myhead);

  00ce2	89 07		 mov	 DWORD PTR [edi], eax

; 1042 :         return {_Scary->_Insert_node(_Loc._Location, _Inserted), true};

  00ce4	53		 push	 ebx
  00ce5	ff b5 48 de ff
	ff		 push	 DWORD PTR __Loc$1$[ebp]

; 832  :         _Construct_in_place(this->_Ptr->_Parent, _Myhead);

  00ceb	89 47 04	 mov	 DWORD PTR [edi+4], eax

; 833  :         _Construct_in_place(this->_Ptr->_Right, _Myhead);

  00cee	89 47 08	 mov	 DWORD PTR [edi+8], eax

; 834  :         this->_Ptr->_Color = _Red;

  00cf1	66 c7 47 0c 00
	00		 mov	 WORD PTR [edi+12], 0
; File C:\Program Files\Microsoft Visual Studio\2022\Professional\VC\Tools\MSVC\14.44.35207\include\utility

; 774  :     _Val         = static_cast<_Other&&>(_New_val);

  00cf7	c7 85 34 de ff
	ff 00 00 00 00	 mov	 DWORD PTR $T4[ebp+4], 0
; File C:\Program Files\Microsoft Visual Studio\2022\Professional\VC\Tools\MSVC\14.44.35207\include\xtree

; 1042 :         return {_Scary->_Insert_node(_Loc._Location, _Inserted), true};

  00d01	e8 00 00 00 00	 call	 ?_Insert_node@?$_Tree_val@U?$_Tree_simple_types@U?$pair@$$CBV?$basic_string@DU?$char_traits@D@std@@V?$allocator@D@2@@std@@K@std@@@std@@@std@@QAEPAU?$_Tree_node@U?$pair@$$CBV?$basic_string@DU?$char_traits@D@std@@V?$allocator@D@2@@std@@K@std@@PAX@2@U?$_Tree_id@PAU?$_Tree_node@U?$pair@$$CBV?$basic_string@DU?$char_traits@D@std@@V?$allocator@D@2@@std@@K@std@@PAX@std@@@2@QAU32@@Z ; std::_Tree_val<std::_Tree_simple_types<std::pair<std::basic_string<char,std::char_traits<char>,std::allocator<char> > const ,unsigned long> > >::_Insert_node
$LN212@LoadPropIt:
  00d06	8d 4d d4	 lea	 ecx, DWORD PTR $T5[ebp]
; File C:\IAGOS\server\v18\Source\Source\_Common\ProjectCmn.cpp

; 849  : 			m_mapII.insert( map<string, DWORD>::value_type( prop.szName, prop.dwID ) );

  00d09	c6 45 fc 00	 mov	 BYTE PTR __$EHRec$[ebp+8], 0
  00d0d	e8 00 00 00 00	 call	 ??1?$basic_string@DU?$char_traits@D@std@@V?$allocator@D@2@@std@@QAE@XZ ; std::basic_string<char,std::char_traits<char>,std::allocator<char> >::~basic_string<char,std::char_traits<char>,std::allocator<char> >

; 850  : #if __VER >= 9	// __ULTIMATE
; 851  : #ifdef __CLIENT
; 852  : 			if( prop.IsUltimate() )
; 853  : 			{
; 854  : 				CString strName	= prop.szName;
; 855  : 				int	nFind	= strName.Find( "@", 0 );
; 856  : 				if( nFind > -1 )
; 857  : 				{
; 858  : 					strName.Delete( nFind - 1, 2 );
; 859  : 					lstrcpy( prop.szName, (LPCTSTR)strName );
; 860  : 				}
; 861  : 			}
; 862  : #endif	// __CLIENT
; 863  : #endif	// __ULTIMATE
; 864  : 			apObjProp->SetAtGrow( prop.dwID, &prop);

  00d12	8b b5 44 de ff
	ff		 mov	 esi, DWORD PTR _apObjProp$GSCopy$1$[ebp]
  00d18	8d 85 bc fc ff
	ff		 lea	 eax, DWORD PTR _prop$[ebp]
  00d1e	6a 00		 push	 0
  00d20	50		 push	 eax
  00d21	ff b5 bc fc ff
	ff		 push	 DWORD PTR _prop$[ebp]
  00d27	8b ce		 mov	 ecx, esi
  00d29	e8 00 00 00 00	 call	 ?SetAtGrow@?$CFixedArray@UItemProp@@@@QAEXHPAUItemProp@@H@Z ; CFixedArray<ItemProp>::SetAtGrow
  00d2e	eb 06		 jmp	 SHORT $LN16@LoadPropIt
$LN262@LoadPropIt:

; 843  : 				prop.dwLimitLevel1	= 45;
; 844  : 		}
; 845  : 		
; 846  : 		if( nVer <= __VER )

  00d30	8b b5 44 de ff
	ff		 mov	 esi, DWORD PTR _apObjProp$GSCopy$1$[ebp]
$LN16@LoadPropIt:

; 865  : 		}
; 866  : 
; 867  : 		nVer = scanner.GetNumber();	// version; 

  00d36	6a 00		 push	 0
  00d38	8d 8d 54 de ff
	ff		 lea	 ecx, DWORD PTR _scanner$[ebp]
  00d3e	e8 00 00 00 00	 call	 ?GetNumber@CScanner@@QAEHH@Z ; CScanner::GetNumber
  00d43	83 bd 98 e6 ff
	ff 15		 cmp	 DWORD PTR _scanner$[ebp+2116], 21 ; 00000015H
  00d4a	8b d8		 mov	 ebx, eax
  00d4c	0f 85 5e f3 ff
	ff		 jne	 $LL2@LoadPropIt
$LN3@LoadPropIt:

; 868  : 	}
; 869  : 	apObjProp->Optimize();

  00d52	8b ce		 mov	 ecx, esi
  00d54	e8 00 00 00 00	 call	 ?Optimize@?$CFixedArray@UItemProp@@@@QAEXXZ ; CFixedArray<ItemProp>::Optimize

; 870  : 	return TRUE;

  00d59	be 01 00 00 00	 mov	 esi, 1
  00d5e	eb 23		 jmp	 SHORT $LN23@LoadPropIt
$LN237@LoadPropIt:

; 641  : 		{
; 642  : 			Error( "%s ID:%d last_read(ID:%d name:%s)", lpszFileName, dwID, prop.dwID, prop.szName);

  00d60	8d 8d c0 fc ff
	ff		 lea	 ecx, DWORD PTR _prop$[ebp+4]
  00d66	51		 push	 ecx
  00d67	ff b5 bc fc ff
	ff		 push	 DWORD PTR _prop$[ebp]
  00d6d	50		 push	 eax
  00d6e	ff b5 38 de ff
	ff		 push	 DWORD PTR _lpszFileName$GSCopy$1$[ebp]
  00d74	68 00 00 00 00	 push	 OFFSET ??_C@_0CC@LPPNKII@?$CFs?5ID?3?$CFd?5last_read?$CIID?3?$CFd?5name?3?$CF@
  00d79	e8 00 00 00 00	 call	 ?Error@@YAPBDPBDZZ	; Error
  00d7e	83 c4 14	 add	 esp, 20			; 00000014H
$LN22@LoadPropIt:
  00d81	33 f6		 xor	 esi, esi
$LN23@LoadPropIt:

; 870  : 	return TRUE;

  00d83	8d 8d 54 de ff
	ff		 lea	 ecx, DWORD PTR _scanner$[ebp]
  00d89	e8 00 00 00 00	 call	 ??1CScript@@UAE@XZ	; CScript::~CScript
  00d8e	8b c6		 mov	 eax, esi

; 871  : }

  00d90	8b 4d f4	 mov	 ecx, DWORD PTR __$EHRec$[ebp]
  00d93	64 89 0d 00 00
	00 00		 mov	 DWORD PTR fs:0, ecx
  00d9a	59		 pop	 ecx
  00d9b	5f		 pop	 edi
  00d9c	5e		 pop	 esi
  00d9d	5b		 pop	 ebx
  00d9e	8b 4d f0	 mov	 ecx, DWORD PTR __$ArrayPad$[ebp]
  00da1	33 cd		 xor	 ecx, ebp
  00da3	e8 00 00 00 00	 call	 @__security_check_cookie@4
  00da8	8b e5		 mov	 esp, ebp
  00daa	5d		 pop	 ebp
  00dab	c2 08 00	 ret	 8
$LN238@LoadPropIt:
; File C:\Program Files\Microsoft Visual Studio\2022\Professional\VC\Tools\MSVC\14.44.35207\atlmfc\include\atlsimpstr.h

; 809  : 			AtlThrow(E_INVALIDARG);

  00dae	68 57 00 07 80	 push	 -2147024809		; 80070057H
  00db3	e8 00 00 00 00	 call	 ?AtlThrowImpl@ATL@@YGXJ@Z ; ATL::AtlThrowImpl
$LN240@LoadPropIt:
; File C:\Program Files\Microsoft Visual Studio\2022\Professional\VC\Tools\MSVC\14.44.35207\include\xtree

; 1649 :             _Throw_tree_length_error();

  00db8	e8 00 00 00 00	 call	 ?_Throw_tree_length_error@std@@YAXXZ ; std::_Throw_tree_length_error
$LN264@LoadPropIt:
  00dbd	cc		 int	 3
_TEXT	ENDS
;	COMDAT text$x
text$x	SEGMENT
__unwindfunclet$?LoadPropItemEx@CProject@@QAEHPBDPAV?$CFixedArray@UItemProp@@@@@Z$0:
  00000	8d 8d 54 de ff
	ff		 lea	 ecx, DWORD PTR _scanner$[ebp]
  00006	e9 00 00 00 00	 jmp	 ??1CScript@@UAE@XZ	; CScript::~CScript
__unwindfunclet$?LoadPropItemEx@CProject@@QAEHPBDPAV?$CFixedArray@UItemProp@@@@@Z$1:
  0000b	8d 4d d4	 lea	 ecx, DWORD PTR $T5[ebp]
  0000e	e9 00 00 00 00	 jmp	 ??1?$pair@$$CBV?$basic_string@DU?$char_traits@D@std@@V?$allocator@D@2@@std@@K@std@@QAE@XZ
__unwindfunclet$?LoadPropItemEx@CProject@@QAEHPBDPAV?$CFixedArray@UItemProp@@@@@Z$5:
  00013	8d 8d 30 de ff
	ff		 lea	 ecx, DWORD PTR $T4[ebp]
  00019	e9 00 00 00 00	 jmp	 ??1?$_Alloc_construct_ptr@V?$allocator@U?$_Tree_node@U?$pair@$$CBV?$basic_string@DU?$char_traits@D@std@@V?$allocator@D@2@@std@@K@std@@PAX@std@@@std@@@std@@QAE@XZ ; std::_Alloc_construct_ptr<std::allocator<std::_Tree_node<std::pair<std::basic_string<char,std::char_traits<char>,std::allocator<char> > const ,unsigned long>,void *> > >::~_Alloc_construct_ptr<std::allocator<std::_Tree_node<std::pair<std::basic_string<char,std::char_traits<char>,std::allocator<char> > const ,unsigned long>,void *> > >
__unwindfunclet$?LoadPropItemEx@CProject@@QAEHPBDPAV?$CFixedArray@UItemProp@@@@@Z$4:
  0001e	8d 8d 30 de ff
	ff		 lea	 ecx, DWORD PTR $T4[ebp]
  00024	e9 00 00 00 00	 jmp	 ??1?$_Tree_temp_node_alloc@V?$allocator@U?$_Tree_node@U?$pair@$$CBV?$basic_string@DU?$char_traits@D@std@@V?$allocator@D@2@@std@@K@std@@PAX@std@@@std@@@std@@QAE@XZ
  00029	cc		 int	 3
  0002a	cc		 int	 3
  0002b	cc		 int	 3
  0002c	cc		 int	 3
  0002d	cc		 int	 3
__ehhandler$?LoadPropItemEx@CProject@@QAEHPBDPAV?$CFixedArray@UItemProp@@@@@Z:
  0002e	90		 npad	 1
  0002f	90		 npad	 1
  00030	8b 54 24 08	 mov	 edx, DWORD PTR [esp+8]
  00034	8d 42 0c	 lea	 eax, DWORD PTR [edx+12]
  00037	8b 8a 2c de ff
	ff		 mov	 ecx, DWORD PTR [edx-8660]
  0003d	33 c8		 xor	 ecx, eax
  0003f	e8 00 00 00 00	 call	 @__security_check_cookie@4
  00044	8b 4a fc	 mov	 ecx, DWORD PTR [edx-4]
  00047	33 c8		 xor	 ecx, eax
  00049	e8 00 00 00 00	 call	 @__security_check_cookie@4
  0004e	b8 00 00 00 00	 mov	 eax, OFFSET __ehfuncinfo$?LoadPropItemEx@CProject@@QAEHPBDPAV?$CFixedArray@UItemProp@@@@@Z
  00053	e9 00 00 00 00	 jmp	 ___CxxFrameHandler3
text$x	ENDS
?LoadPropItemEx@CProject@@QAEHPBDPAV?$CFixedArray@UItemProp@@@@@Z ENDP ; CProject::LoadPropItemEx
; Function compile flags: /Ogtp
; File C:\IAGOS\server\v18\Source\Source\_Common\ProjectCmn.cpp
; File C:\Program Files\Microsoft Visual Studio\2022\Professional\VC\Tools\MSVC\14.44.35207\atlmfc\include\cstringt.h
; File C:\Program Files\Microsoft Visual Studio\2022\Professional\VC\Tools\MSVC\14.44.35207\atlmfc\include\atlsimpstr.h
; File C:\IAGOS\server\v18\Source\Source\_Common\ProjectCmn.cpp
; File C:\Program Files\Microsoft Visual Studio\2022\Professional\VC\Tools\MSVC\14.44.35207\include\utility
; File C:\IAGOS\server\v18\Source\Source\_Common\ProjectCmn.cpp
; File C:\Program Files\Microsoft Visual Studio\2022\Professional\VC\Tools\MSVC\14.44.35207\include\xtree
; File C:\IAGOS\server\v18\Source\Source\_Common\ProjectCmn.cpp
; File C:\Program Files\Microsoft Visual Studio\2022\Professional\VC\Tools\MSVC\14.44.35207\include\xtree
; File C:\Program Files\Microsoft Visual Studio\2022\Professional\VC\Tools\MSVC\14.44.35207\include\type_traits
; File C:\Program Files\Microsoft Visual Studio\2022\Professional\VC\Tools\MSVC\14.44.35207\include\xtree
; File C:\Program Files\Microsoft Visual Studio\2022\Professional\VC\Tools\MSVC\14.44.35207\include\type_traits
; File C:\Program Files\Microsoft Visual Studio\2022\Professional\VC\Tools\MSVC\14.44.35207\include\xtree
; File C:\Program Files\Microsoft Visual Studio\2022\Professional\VC\Tools\MSVC\14.44.35207\include\type_traits
; File C:\Program Files\Microsoft Visual Studio\2022\Professional\VC\Tools\MSVC\14.44.35207\include\xtree
; File C:\Program Files\Microsoft Visual Studio\2022\Professional\VC\Tools\MSVC\14.44.35207\include\type_traits
; File C:\Program Files\Microsoft Visual Studio\2022\Professional\VC\Tools\MSVC\14.44.35207\include\xtree
; File C:\Program Files\Microsoft Visual Studio\2022\Professional\VC\Tools\MSVC\14.44.35207\include\xmemory
; File C:\Program Files\Microsoft Visual Studio\2022\Professional\VC\Tools\MSVC\14.44.35207\include\xtree
; File C:\Program Files\Microsoft Visual Studio\2022\Professional\VC\Tools\MSVC\14.44.35207\include\xmemory
; File C:\Program Files\Microsoft Visual Studio\2022\Professional\VC\Tools\MSVC\14.44.35207\include\utility
; File C:\Program Files\Microsoft Visual Studio\2022\Professional\VC\Tools\MSVC\14.44.35207\include\xtree
; File C:\Program Files\Microsoft Visual Studio\2022\Professional\VC\Tools\MSVC\14.44.35207\include\utility
; File C:\Program Files\Microsoft Visual Studio\2022\Professional\VC\Tools\MSVC\14.44.35207\include\xtree
; File C:\Program Files\Microsoft Visual Studio\2022\Professional\VC\Tools\MSVC\14.44.35207\include\utility
; File C:\Program Files\Microsoft Visual Studio\2022\Professional\VC\Tools\MSVC\14.44.35207\include\xtree
; File C:\Program Files\Microsoft Visual Studio\2022\Professional\VC\Tools\MSVC\14.44.35207\include\utility
; File C:\Program Files\Microsoft Visual Studio\2022\Professional\VC\Tools\MSVC\14.44.35207\include\xtree
; File C:\IAGOS\server\v18\Source\Source\_Common\ProjectCmn.cpp
; File C:\Program Files\Microsoft Visual Studio\2022\Professional\VC\Tools\MSVC\14.44.35207\atlmfc\include\atlsimpstr.h
; File C:\Program Files\Microsoft Visual Studio\2022\Professional\VC\Tools\MSVC\14.44.35207\include\xtree
; File C:\IAGOS\server\v18\Source\Source\_Common\ProjectCmn.cpp
;	COMDAT ?LoadPropItem@CProject@@QAEHPBDPAV?$CFixedArray@UItemProp@@@@@Z
_TEXT	SEGMENT
$T4 = -8656						; size = 8
_lpszFileName$GSCopy$1$ = -8648				; size = 4
__Myhead$1$ = -8644					; size = 4
_this$GSCopy$1$ = -8640					; size = 4
_apObjProp$GSCopy$1$ = -8636				; size = 4
__Loc$1$ = -8632					; size = 4
$T1$sroa$2058$1$ = -8628				; size = 4
tv2705 = -8624						; size = 4
tv2709 = -8624						; size = 4
tv2713 = -8624						; size = 4
tv2717 = -8624						; size = 4
tv2721 = -8624						; size = 4
_this$1$ = -8624					; size = 4
_scanner$ = -8620					; size = 7784
_prop$ = -836						; size = 792
$T5 = -44						; size = 28
__$ArrayPad$ = -16					; size = 4
__$EHRec$ = -12						; size = 12
_lpszFileName$ = 8					; size = 4
_apObjProp$ = 12					; size = 4
?LoadPropItem@CProject@@QAEHPBDPAV?$CFixedArray@UItemProp@@@@@Z PROC ; CProject::LoadPropItem, COMDAT
; _this$ = ecx

; 301  : {

  00000	55		 push	 ebp
  00001	8b ec		 mov	 ebp, esp
  00003	6a ff		 push	 -1
  00005	68 00 00 00 00	 push	 __ehhandler$?LoadPropItem@CProject@@QAEHPBDPAV?$CFixedArray@UItemProp@@@@@Z
  0000a	64 a1 00 00 00
	00		 mov	 eax, DWORD PTR fs:0
  00010	50		 push	 eax
  00011	b8 c4 21 00 00	 mov	 eax, 8644		; 000021c4H
  00016	e8 00 00 00 00	 call	 __chkstk
  0001b	a1 00 00 00 00	 mov	 eax, DWORD PTR ___security_cookie
  00020	33 c5		 xor	 eax, ebp
  00022	89 45 f0	 mov	 DWORD PTR __$ArrayPad$[ebp], eax
  00025	53		 push	 ebx
  00026	56		 push	 esi
  00027	57		 push	 edi
  00028	50		 push	 eax
  00029	8d 45 f4	 lea	 eax, DWORD PTR __$EHRec$[ebp]
  0002c	64 a3 00 00 00
	00		 mov	 DWORD PTR fs:0, eax
  00032	89 8d 40 de ff
	ff		 mov	 DWORD PTR _this$GSCopy$1$[ebp], ecx
  00038	8b 7d 08	 mov	 edi, DWORD PTR _lpszFileName$[ebp]

; 302  : 	CScript scanner;

  0003b	8d 8d 54 de ff
	ff		 lea	 ecx, DWORD PTR _scanner$[ebp]
  00041	8b 75 0c	 mov	 esi, DWORD PTR _apObjProp$[ebp]
  00044	6a 00		 push	 0
  00046	89 bd 38 de ff
	ff		 mov	 DWORD PTR _lpszFileName$GSCopy$1$[ebp], edi
  0004c	89 b5 44 de ff
	ff		 mov	 DWORD PTR _apObjProp$GSCopy$1$[ebp], esi
  00052	e8 00 00 00 00	 call	 ??0CScript@@QAE@H@Z	; CScript::CScript

; 303  : 	if( scanner.Load( lpszFileName, FALSE ) == FALSE )

  00057	6a 00		 push	 0
  00059	6a 00		 push	 0
  0005b	57		 push	 edi
  0005c	8d 8d 54 de ff
	ff		 lea	 ecx, DWORD PTR _scanner$[ebp]
  00062	c7 45 fc 00 00
	00 00		 mov	 DWORD PTR __$EHRec$[ebp+8], 0
  00069	e8 00 00 00 00	 call	 ?Load@CScript@@QAEHPBDHH@Z ; CScript::Load
  0006e	85 c0		 test	 eax, eax
  00070	0f 84 2e 0f 00
	00		 je	 $LN23@LoadPropIt

; 304  : 	{
; 305  : 	#ifdef __CLIENT
; 306  : 		MessageBox( g_Neuz.GetSafeHwnd(), "LoadPropItem", "flyff", MB_OK );
; 307  : 		ADDERRORMSG( "LoadPropItem file open error" );
; 308  : 	#endif //__CLIENT
; 309  : 		return FALSE;
; 310  : 	}
; 311  : 
; 312  : 	ItemProp prop;
; 313  : 	ZeroMemory( &prop, sizeof(prop) );

  00076	68 18 03 00 00	 push	 792			; 00000318H
  0007b	8d 85 bc fc ff
	ff		 lea	 eax, DWORD PTR _prop$[ebp]
  00081	6a 00		 push	 0
  00083	50		 push	 eax
  00084	e8 00 00 00 00	 call	 _memset
  00089	83 c4 0c	 add	 esp, 12			; 0000000cH

; 314  : 
; 315  : 	int nVer = scanner.GetNumber();	// version

  0008c	8d 8d 54 de ff
	ff		 lea	 ecx, DWORD PTR _scanner$[ebp]
  00092	6a 00		 push	 0
  00094	e8 00 00 00 00	 call	 ?GetNumber@CScanner@@QAEHH@Z ; CScanner::GetNumber

; 316  : #ifdef __NEW_STACKABLE_AMPS
; 317  : 	int nAmpCopyID = 60000;
; 318  : #endif // __NEW_STACKABLE_AMPS
; 319  : 	while( scanner.tok != FINISHED )

  00099	83 bd 98 e6 ff
	ff 15		 cmp	 DWORD PTR _scanner$[ebp+2116], 21 ; 00000015H
  000a0	8b d8		 mov	 ebx, eax
  000a2	0f 84 cd 0e 00
	00		 je	 $LN3@LoadPropIt
  000a8	0f 1f 84 00 00
	00 00 00	 npad	 8
$LL2@LoadPropIt:

; 320  : 	{
; 321  : 		DWORD dwID = scanner.GetNumber();	// IID_

  000b0	6a 00		 push	 0
  000b2	8d 8d 54 de ff
	ff		 lea	 ecx, DWORD PTR _scanner$[ebp]
  000b8	e8 00 00 00 00	 call	 ?GetNumber@CScanner@@QAEHH@Z ; CScanner::GetNumber

; 322  : 		if( dwID <= 0 )

  000bd	85 c0		 test	 eax, eax
  000bf	0f 84 be 0e 00
	00		 je	 $LN238@LoadPropIt

; 325  : 			return FALSE;
; 326  : 		}
; 327  : 
; 328  : //#ifdef __CLIENT
; 329  : 		prop.nVer	= nVer;
; 330  : //#endif	// __CLIENT
; 331  : 		prop.dwID = dwID;
; 332  : 		scanner.GetToken();

  000c5	6a 00		 push	 0
  000c7	8d 8d 54 de ff
	ff		 lea	 ecx, DWORD PTR _scanner$[ebp]
  000cd	89 9d 40 ff ff
	ff		 mov	 DWORD PTR _prop$[ebp+644], ebx
  000d3	89 85 bc fc ff
	ff		 mov	 DWORD PTR _prop$[ebp], eax
  000d9	e8 00 00 00 00	 call	 ?GetToken@CScript@@UAEHH@Z ; CScript::GetToken
; File C:\Program Files\Microsoft Visual Studio\2022\Professional\VC\Tools\MSVC\14.44.35207\atlmfc\include\cstringt.h

; 1868 : 		PCXSTR psz = this->GetString();

  000de	8b b5 74 de ff
	ff		 mov	 esi, DWORD PTR _scanner$[ebp+32]

; 1869 : 		PCXSTR pszLast = NULL;

  000e4	33 ff		 xor	 edi, edi

; 1870 : 
; 1871 : 		while( *psz != 0 )

  000e6	8a 06		 mov	 al, BYTE PTR [esi]
  000e8	84 c0		 test	 al, al
  000ea	0f 84 7f 00 00
	00		 je	 $LN60@LoadPropIt
$LL32@LoadPropIt:

; 177  : 		return _ismbcspace( ch );

  000f0	0f be c0	 movsx	 eax, al
  000f3	50		 push	 eax
  000f4	e8 00 00 00 00	 call	 __ismbcspace
  000f9	83 c4 04	 add	 esp, 4

; 1873 : 			if( StringTraits::IsSpace( *psz ) )

  000fc	85 c0		 test	 eax, eax
  000fe	74 0b		 je	 SHORT $LN34@LoadPropIt

; 1874 : 			{
; 1875 : 				if( pszLast == NULL )
; 1876 : 					pszLast = psz;
; 1877 : 			}

  00100	85 ff		 test	 edi, edi
  00102	8b c6		 mov	 eax, esi
  00104	0f 45 c7	 cmovne	 eax, edi
  00107	8b f8		 mov	 edi, eax
  00109	eb 02		 jmp	 SHORT $LN35@LoadPropIt
$LN34@LoadPropIt:

; 1878 : 			else
; 1879 : 			{
; 1880 : 				pszLast = NULL;

  0010b	33 ff		 xor	 edi, edi
$LN35@LoadPropIt:

; 167  : 		return reinterpret_cast< char* >( _mbsinc( reinterpret_cast< const unsigned char* >( p ) ) );

  0010d	56		 push	 esi
  0010e	e8 00 00 00 00	 call	 __mbsinc

; 1882 : 			psz = StringTraits::CharNext( psz );

  00113	8b f0		 mov	 esi, eax

; 167  : 		return reinterpret_cast< char* >( _mbsinc( reinterpret_cast< const unsigned char* >( p ) ) );

  00115	83 c4 04	 add	 esp, 4

; 1871 : 		while( *psz != 0 )

  00118	8a 06		 mov	 al, BYTE PTR [esi]
  0011a	84 c0		 test	 al, al
  0011c	75 d2		 jne	 SHORT $LL32@LoadPropIt

; 1883 : 		}
; 1884 : 
; 1885 : 		if( pszLast != NULL )

  0011e	85 ff		 test	 edi, edi
  00120	74 47		 je	 SHORT $LN262@LoadPropIt

; 1886 : 		{
; 1887 : 			// truncate at trailing space start
; 1888 : 			int iLast = int( pszLast - this->GetString() );

  00122	8b 95 74 de ff
	ff		 mov	 edx, DWORD PTR _scanner$[ebp+32]
  00128	2b fa		 sub	 edi, edx
; File C:\Program Files\Microsoft Visual Studio\2022\Professional\VC\Tools\MSVC\14.44.35207\atlmfc\include\atlsimpstr.h

; 808  : 		if (nLength < 0)

  0012a	0f 88 a1 0e 00
	00		 js	 $LN239@LoadPropIt

; 810  : 
; 811  : 		CStringData* pOldData = GetData();
; 812  : 		int nShared = 1-pOldData->nRefs;  // nShared < 0 means true, >= 0 means false
; 813  : 		int nTooShort = pOldData->nAllocLength-nLength;  // nTooShort < 0 means true, >= 0 means false

  00130	8b 42 f8	 mov	 eax, DWORD PTR [edx-8]
  00133	b9 01 00 00 00	 mov	 ecx, 1
  00138	2b 4a fc	 sub	 ecx, DWORD PTR [edx-4]
  0013b	2b c7		 sub	 eax, edi

; 814  : 		if( (nShared|nTooShort) < 0 )  // If either sign bit is set (i.e. either is less than zero), we need to copy data

  0013d	0b c1		 or	 eax, ecx
  0013f	7d 12		 jge	 SHORT $LN49@LoadPropIt

; 815  : 		{
; 816  : 			PrepareWrite2( nLength );

  00141	57		 push	 edi
  00142	8d 8d 74 de ff
	ff		 lea	 ecx, DWORD PTR _scanner$[ebp+32]
  00148	e8 00 00 00 00	 call	 ?PrepareWrite2@?$CSimpleStringT@D$0A@@ATL@@AAEXH@Z ; ATL::CSimpleStringT<char,0>::PrepareWrite2
  0014d	8b 95 74 de ff
	ff		 mov	 edx, DWORD PTR _scanner$[ebp+32]
$LN49@LoadPropIt:

; 875  : 		if( nLength < 0 || nLength > GetData()->nAllocLength)

  00153	3b 7a f8	 cmp	 edi, DWORD PTR [edx-8]
  00156	0f 8f 75 0e 00
	00		 jg	 $LN239@LoadPropIt

; 876  : 			AtlThrow(E_INVALIDARG);
; 877  : 
; 878  : 		GetData()->nDataLength = nLength;

  0015c	89 7a f4	 mov	 DWORD PTR [edx-12], edi

; 879  : 		m_pszData[nLength] = 0;

  0015f	8b 85 74 de ff
	ff		 mov	 eax, DWORD PTR _scanner$[ebp+32]
  00165	c6 04 07 00	 mov	 BYTE PTR [edi+eax], 0
$LN262@LoadPropIt:
; File C:\IAGOS\server\v18\Source\Source\_Common\ProjectCmn.cpp

; 335  : 		_tcscpy( prop.szName, (LPCSTR)scanner.Token );

  00169	8b b5 74 de ff
	ff		 mov	 esi, DWORD PTR _scanner$[ebp+32]
$LN60@LoadPropIt:
  0016f	8d 8d c0 fc ff
	ff		 lea	 ecx, DWORD PTR _prop$[ebp+4]
  00175	2b ce		 sub	 ecx, esi
$LL19@LoadPropIt:
  00177	8a 06		 mov	 al, BYTE PTR [esi]
  00179	8d 76 01	 lea	 esi, DWORD PTR [esi+1]
  0017c	88 44 31 ff	 mov	 BYTE PTR [ecx+esi-1], al
  00180	84 c0		 test	 al, al
  00182	75 f3		 jne	 SHORT $LL19@LoadPropIt

; 336  : 
; 337  :  		prop.dwNum				= scanner.GetNumber();            

  00184	6a 00		 push	 0
  00186	8d 8d 54 de ff
	ff		 lea	 ecx, DWORD PTR _scanner$[ebp]
  0018c	e8 00 00 00 00	 call	 ?GetNumber@CScanner@@QAEHH@Z ; CScanner::GetNumber

; 338  : 		prop.dwPackMax			= scanner.GetNumber();      

  00191	6a 00		 push	 0
  00193	8d 8d 54 de ff
	ff		 lea	 ecx, DWORD PTR _scanner$[ebp]
  00199	89 85 24 fd ff
	ff		 mov	 DWORD PTR _prop$[ebp+104], eax
  0019f	e8 00 00 00 00	 call	 ?GetNumber@CScanner@@QAEHH@Z ; CScanner::GetNumber

; 339  : 		prop.dwItemKind1		= scanner.GetNumber();      

  001a4	6a 00		 push	 0
  001a6	8d 8d 54 de ff
	ff		 lea	 ecx, DWORD PTR _scanner$[ebp]
  001ac	89 85 28 fd ff
	ff		 mov	 DWORD PTR _prop$[ebp+108], eax
  001b2	e8 00 00 00 00	 call	 ?GetNumber@CScanner@@QAEHH@Z ; CScanner::GetNumber

; 340  : 		prop.dwItemKind2		= scanner.GetNumber();      

  001b7	6a 00		 push	 0
  001b9	8d 8d 54 de ff
	ff		 lea	 ecx, DWORD PTR _scanner$[ebp]
  001bf	89 85 2c fd ff
	ff		 mov	 DWORD PTR _prop$[ebp+112], eax
  001c5	e8 00 00 00 00	 call	 ?GetNumber@CScanner@@QAEHH@Z ; CScanner::GetNumber

; 341  : 		prop.dwItemKind3		= scanner.GetNumber();      

  001ca	6a 00		 push	 0
  001cc	8d 8d 54 de ff
	ff		 lea	 ecx, DWORD PTR _scanner$[ebp]
  001d2	89 85 30 fd ff
	ff		 mov	 DWORD PTR _prop$[ebp+116], eax
  001d8	e8 00 00 00 00	 call	 ?GetNumber@CScanner@@QAEHH@Z ; CScanner::GetNumber

; 342  : 		prop.dwItemJob			= scanner.GetNumber();      

  001dd	6a 00		 push	 0
  001df	8d 8d 54 de ff
	ff		 lea	 ecx, DWORD PTR _scanner$[ebp]
  001e5	89 85 34 fd ff
	ff		 mov	 DWORD PTR _prop$[ebp+120], eax
  001eb	e8 00 00 00 00	 call	 ?GetNumber@CScanner@@QAEHH@Z ; CScanner::GetNumber

; 343  : 		prop.bPermanence		= scanner.GetNumber();      

  001f0	6a 00		 push	 0
  001f2	8d 8d 54 de ff
	ff		 lea	 ecx, DWORD PTR _scanner$[ebp]
  001f8	89 85 38 fd ff
	ff		 mov	 DWORD PTR _prop$[ebp+124], eax
  001fe	e8 00 00 00 00	 call	 ?GetNumber@CScanner@@QAEHH@Z ; CScanner::GetNumber

; 344  : 		prop.dwUseable			= scanner.GetNumber();      

  00203	6a 00		 push	 0
  00205	8d 8d 54 de ff
	ff		 lea	 ecx, DWORD PTR _scanner$[ebp]
  0020b	89 85 3c fd ff
	ff		 mov	 DWORD PTR _prop$[ebp+128], eax
  00211	e8 00 00 00 00	 call	 ?GetNumber@CScanner@@QAEHH@Z ; CScanner::GetNumber

; 345  : 		prop.dwItemSex			= scanner.GetNumber();      

  00216	6a 00		 push	 0
  00218	8d 8d 54 de ff
	ff		 lea	 ecx, DWORD PTR _scanner$[ebp]
  0021e	89 85 40 fd ff
	ff		 mov	 DWORD PTR _prop$[ebp+132], eax
  00224	e8 00 00 00 00	 call	 ?GetNumber@CScanner@@QAEHH@Z ; CScanner::GetNumber

; 346  : 		prop.dwCost				= scanner.GetNumber();      

  00229	6a 00		 push	 0
  0022b	8d 8d 54 de ff
	ff		 lea	 ecx, DWORD PTR _scanner$[ebp]
  00231	89 85 44 fd ff
	ff		 mov	 DWORD PTR _prop$[ebp+136], eax
  00237	e8 00 00 00 00	 call	 ?GetNumber@CScanner@@QAEHH@Z ; CScanner::GetNumber

; 347  : 		prop.dwEndurance		= scanner.GetNumber(); 

  0023c	6a 00		 push	 0
  0023e	8d 8d 54 de ff
	ff		 lea	 ecx, DWORD PTR _scanner$[ebp]
  00244	89 85 48 fd ff
	ff		 mov	 DWORD PTR _prop$[ebp+140], eax
  0024a	e8 00 00 00 00	 call	 ?GetNumber@CScanner@@QAEHH@Z ; CScanner::GetNumber

; 348  : 		prop.nAbrasion			= scanner.GetNumber();

  0024f	6a 00		 push	 0
  00251	8d 8d 54 de ff
	ff		 lea	 ecx, DWORD PTR _scanner$[ebp]
  00257	89 85 4c fd ff
	ff		 mov	 DWORD PTR _prop$[ebp+144], eax
  0025d	e8 00 00 00 00	 call	 ?GetNumber@CScanner@@QAEHH@Z ; CScanner::GetNumber

; 349  : 		prop.nMaxRepair			= scanner.GetNumber();

  00262	6a 00		 push	 0
  00264	8d 8d 54 de ff
	ff		 lea	 ecx, DWORD PTR _scanner$[ebp]
  0026a	89 85 54 fd ff
	ff		 mov	 DWORD PTR _prop$[ebp+152], eax
  00270	e8 00 00 00 00	 call	 ?GetNumber@CScanner@@QAEHH@Z ; CScanner::GetNumber

; 350  : 		prop.dwHanded			= scanner.GetNumber(); 

  00275	6a 00		 push	 0
  00277	8d 8d 54 de ff
	ff		 lea	 ecx, DWORD PTR _scanner$[ebp]
  0027d	89 85 58 fd ff
	ff		 mov	 DWORD PTR _prop$[ebp+156], eax
  00283	e8 00 00 00 00	 call	 ?GetNumber@CScanner@@QAEHH@Z ; CScanner::GetNumber

; 351  : 		prop.dwFlag				= scanner.GetNumber();      

  00288	6a 00		 push	 0
  0028a	8d 8d 54 de ff
	ff		 lea	 ecx, DWORD PTR _scanner$[ebp]
  00290	89 85 5c fd ff
	ff		 mov	 DWORD PTR _prop$[ebp+160], eax
  00296	e8 00 00 00 00	 call	 ?GetNumber@CScanner@@QAEHH@Z ; CScanner::GetNumber

; 352  : 		prop.dwParts			= scanner.GetNumber();      

  0029b	6a 00		 push	 0
  0029d	8d 8d 54 de ff
	ff		 lea	 ecx, DWORD PTR _scanner$[ebp]
  002a3	89 85 60 fd ff
	ff		 mov	 DWORD PTR _prop$[ebp+164], eax
  002a9	e8 00 00 00 00	 call	 ?GetNumber@CScanner@@QAEHH@Z ; CScanner::GetNumber

; 353  : 		prop.dwPartsub			= scanner.GetNumber();      

  002ae	6a 00		 push	 0
  002b0	8d 8d 54 de ff
	ff		 lea	 ecx, DWORD PTR _scanner$[ebp]
  002b6	89 85 64 fd ff
	ff		 mov	 DWORD PTR _prop$[ebp+168], eax
  002bc	e8 00 00 00 00	 call	 ?GetNumber@CScanner@@QAEHH@Z ; CScanner::GetNumber

; 354  : 		prop.bPartsFile			= scanner.GetNumber();      

  002c1	6a 00		 push	 0
  002c3	8d 8d 54 de ff
	ff		 lea	 ecx, DWORD PTR _scanner$[ebp]
  002c9	89 85 68 fd ff
	ff		 mov	 DWORD PTR _prop$[ebp+172], eax
  002cf	e8 00 00 00 00	 call	 ?GetNumber@CScanner@@QAEHH@Z ; CScanner::GetNumber

; 355  : 		prop.dwExclusive		= scanner.GetNumber();      

  002d4	6a 00		 push	 0
  002d6	8d 8d 54 de ff
	ff		 lea	 ecx, DWORD PTR _scanner$[ebp]
  002dc	89 85 6c fd ff
	ff		 mov	 DWORD PTR _prop$[ebp+176], eax
  002e2	e8 00 00 00 00	 call	 ?GetNumber@CScanner@@QAEHH@Z ; CScanner::GetNumber

; 356  : 		prop.dwBasePartsIgnore	= scanner.GetNumber();      

  002e7	6a 00		 push	 0
  002e9	8d 8d 54 de ff
	ff		 lea	 ecx, DWORD PTR _scanner$[ebp]
  002ef	89 85 70 fd ff
	ff		 mov	 DWORD PTR _prop$[ebp+180], eax
  002f5	e8 00 00 00 00	 call	 ?GetNumber@CScanner@@QAEHH@Z ; CScanner::GetNumber
  002fa	89 85 74 fd ff
	ff		 mov	 DWORD PTR _prop$[ebp+184], eax

; 357  : 		prop.dwItemLV			= scanner.GetNumber();      

  00300	6a 00		 push	 0
  00302	8d 8d 54 de ff
	ff		 lea	 ecx, DWORD PTR _scanner$[ebp]
  00308	e8 00 00 00 00	 call	 ?GetNumber@CScanner@@QAEHH@Z ; CScanner::GetNumber

; 358  : 		prop.dwItemRare			= scanner.GetNumber();   

  0030d	6a 00		 push	 0
  0030f	8d 8d 54 de ff
	ff		 lea	 ecx, DWORD PTR _scanner$[ebp]
  00315	89 85 78 fd ff
	ff		 mov	 DWORD PTR _prop$[ebp+188], eax
  0031b	e8 00 00 00 00	 call	 ?GetNumber@CScanner@@QAEHH@Z ; CScanner::GetNumber

; 359  : 		prop.dwShopAble			= scanner.GetNumber();

  00320	6a 00		 push	 0
  00322	8d 8d 54 de ff
	ff		 lea	 ecx, DWORD PTR _scanner$[ebp]
  00328	89 85 7c fd ff
	ff		 mov	 DWORD PTR _prop$[ebp+192], eax
  0032e	e8 00 00 00 00	 call	 ?GetNumber@CScanner@@QAEHH@Z ; CScanner::GetNumber

; 360  : 		prop.nLog				= scanner.GetNumber();

  00333	6a 00		 push	 0
  00335	8d 8d 54 de ff
	ff		 lea	 ecx, DWORD PTR _scanner$[ebp]
  0033b	89 85 80 fd ff
	ff		 mov	 DWORD PTR _prop$[ebp+196], eax
  00341	e8 00 00 00 00	 call	 ?GetNumber@CScanner@@QAEHH@Z ; CScanner::GetNumber

; 361  : 		prop.bCharged			= scanner.GetNumber();

  00346	6a 00		 push	 0
  00348	8d 8d 54 de ff
	ff		 lea	 ecx, DWORD PTR _scanner$[ebp]
  0034e	89 85 50 fd ff
	ff		 mov	 DWORD PTR _prop$[ebp+148], eax
  00354	e8 00 00 00 00	 call	 ?GetNumber@CScanner@@QAEHH@Z ; CScanner::GetNumber

; 362  : 		prop.bCharged	= ( prop.bCharged != 1? 0: 1 );

  00359	48		 dec	 eax

; 363  : 		prop.dwLinkKindBullet	= scanner.GetNumber();      

  0035a	8d 8d 54 de ff
	ff		 lea	 ecx, DWORD PTR _scanner$[ebp]
  00360	f7 d8		 neg	 eax
  00362	6a 00		 push	 0
  00364	1b c0		 sbb	 eax, eax
  00366	40		 inc	 eax
  00367	89 85 a8 fd ff
	ff		 mov	 DWORD PTR _prop$[ebp+236], eax
  0036d	e8 00 00 00 00	 call	 ?GetNumber@CScanner@@QAEHH@Z ; CScanner::GetNumber

; 364  : 		prop.dwLinkKind			= scanner.GetNumber();      

  00372	6a 00		 push	 0
  00374	8d 8d 54 de ff
	ff		 lea	 ecx, DWORD PTR _scanner$[ebp]
  0037a	89 85 98 fd ff
	ff		 mov	 DWORD PTR _prop$[ebp+220], eax
  00380	e8 00 00 00 00	 call	 ?GetNumber@CScanner@@QAEHH@Z ; CScanner::GetNumber

; 365  : 		prop.dwAbilityMin		= scanner.GetNumber();      

  00385	6a 00		 push	 0
  00387	8d 8d 54 de ff
	ff		 lea	 ecx, DWORD PTR _scanner$[ebp]
  0038d	89 85 9c fd ff
	ff		 mov	 DWORD PTR _prop$[ebp+224], eax
  00393	e8 00 00 00 00	 call	 ?GetNumber@CScanner@@QAEHH@Z ; CScanner::GetNumber

; 366  : 		prop.dwAbilityMax		= scanner.GetNumber();      

  00398	6a 00		 push	 0
  0039a	8d 8d 54 de ff
	ff		 lea	 ecx, DWORD PTR _scanner$[ebp]
  003a0	89 85 a0 fd ff
	ff		 mov	 DWORD PTR _prop$[ebp+228], eax
  003a6	e8 00 00 00 00	 call	 ?GetNumber@CScanner@@QAEHH@Z ; CScanner::GetNumber

; 367  : 		prop.eItemType			= static_cast<SAI79::ePropType>(scanner.GetNumber());

  003ab	6a 00		 push	 0
  003ad	8d 8d 54 de ff
	ff		 lea	 ecx, DWORD PTR _scanner$[ebp]
  003b3	89 85 a4 fd ff
	ff		 mov	 DWORD PTR _prop$[ebp+232], eax
  003b9	e8 00 00 00 00	 call	 ?GetNumber@CScanner@@QAEHH@Z ; CScanner::GetNumber

; 368  : 		prop.wItemEatk			= static_cast<short>(scanner.GetNumber());

  003be	6a 00		 push	 0
  003c0	8d 8d 54 de ff
	ff		 lea	 ecx, DWORD PTR _scanner$[ebp]
  003c6	89 85 ac fd ff
	ff		 mov	 DWORD PTR _prop$[ebp+240], eax
  003cc	e8 00 00 00 00	 call	 ?GetNumber@CScanner@@QAEHH@Z ; CScanner::GetNumber

; 369  : 		prop.dwParry			= scanner.GetNumber();

  003d1	6a 00		 push	 0
  003d3	8d 8d 54 de ff
	ff		 lea	 ecx, DWORD PTR _scanner$[ebp]
  003d9	66 89 85 b0 fd
	ff ff		 mov	 WORD PTR _prop$[ebp+244], ax
  003e0	e8 00 00 00 00	 call	 ?GetNumber@CScanner@@QAEHH@Z ; CScanner::GetNumber

; 370  : 		prop.dwblockRating		= scanner.GetNumber();

  003e5	6a 00		 push	 0
  003e7	8d 8d 54 de ff
	ff		 lea	 ecx, DWORD PTR _scanner$[ebp]
  003ed	89 85 b4 fd ff
	ff		 mov	 DWORD PTR _prop$[ebp+248], eax
  003f3	e8 00 00 00 00	 call	 ?GetNumber@CScanner@@QAEHH@Z ; CScanner::GetNumber

; 371  : 		prop.nAddSkillMin		= scanner.GetNumber();

  003f8	6a 00		 push	 0
  003fa	8d 8d 54 de ff
	ff		 lea	 ecx, DWORD PTR _scanner$[ebp]
  00400	89 85 b8 fd ff
	ff		 mov	 DWORD PTR _prop$[ebp+252], eax
  00406	e8 00 00 00 00	 call	 ?GetNumber@CScanner@@QAEHH@Z ; CScanner::GetNumber

; 372  : 		prop.nAddSkillMax		= scanner.GetNumber();

  0040b	6a 00		 push	 0
  0040d	8d 8d 54 de ff
	ff		 lea	 ecx, DWORD PTR _scanner$[ebp]
  00413	89 85 bc fd ff
	ff		 mov	 DWORD PTR _prop$[ebp+256], eax
  00419	e8 00 00 00 00	 call	 ?GetNumber@CScanner@@QAEHH@Z ; CScanner::GetNumber

; 373  : 		prop.dwAtkStyle			= scanner.GetNumber();      

  0041e	6a 00		 push	 0
  00420	8d 8d 54 de ff
	ff		 lea	 ecx, DWORD PTR _scanner$[ebp]
  00426	89 85 c0 fd ff
	ff		 mov	 DWORD PTR _prop$[ebp+260], eax
  0042c	e8 00 00 00 00	 call	 ?GetNumber@CScanner@@QAEHH@Z ; CScanner::GetNumber

; 374  : 		prop.dwWeaponType		= scanner.GetNumber();      

  00431	6a 00		 push	 0
  00433	8d 8d 54 de ff
	ff		 lea	 ecx, DWORD PTR _scanner$[ebp]
  00439	89 85 c4 fd ff
	ff		 mov	 DWORD PTR _prop$[ebp+264], eax
  0043f	e8 00 00 00 00	 call	 ?GetNumber@CScanner@@QAEHH@Z ; CScanner::GetNumber

; 375  : 		prop.dwItemAtkOrder1	= scanner.GetNumber();      	

  00444	6a 00		 push	 0
  00446	8d 8d 54 de ff
	ff		 lea	 ecx, DWORD PTR _scanner$[ebp]
  0044c	89 85 c8 fd ff
	ff		 mov	 DWORD PTR _prop$[ebp+268], eax
  00452	e8 00 00 00 00	 call	 ?GetNumber@CScanner@@QAEHH@Z ; CScanner::GetNumber

; 376  : 		prop.dwItemAtkOrder2	= scanner.GetNumber();      	

  00457	6a 00		 push	 0
  00459	8d 8d 54 de ff
	ff		 lea	 ecx, DWORD PTR _scanner$[ebp]
  0045f	89 85 cc fd ff
	ff		 mov	 DWORD PTR _prop$[ebp+272], eax
  00465	e8 00 00 00 00	 call	 ?GetNumber@CScanner@@QAEHH@Z ; CScanner::GetNumber
  0046a	89 85 d0 fd ff
	ff		 mov	 DWORD PTR _prop$[ebp+276], eax

; 377  : 		prop.dwItemAtkOrder3	= scanner.GetNumber();      	

  00470	8d 8d 54 de ff
	ff		 lea	 ecx, DWORD PTR _scanner$[ebp]
  00476	6a 00		 push	 0
  00478	e8 00 00 00 00	 call	 ?GetNumber@CScanner@@QAEHH@Z ; CScanner::GetNumber

; 378  : 		prop.dwItemAtkOrder4	= scanner.GetNumber();      	

  0047d	6a 00		 push	 0
  0047f	8d 8d 54 de ff
	ff		 lea	 ecx, DWORD PTR _scanner$[ebp]
  00485	89 85 d4 fd ff
	ff		 mov	 DWORD PTR _prop$[ebp+280], eax
  0048b	e8 00 00 00 00	 call	 ?GetNumber@CScanner@@QAEHH@Z ; CScanner::GetNumber

; 379  : 		prop.tmContinuousPain	= scanner.GetNumber();      

  00490	6a 00		 push	 0
  00492	8d 8d 54 de ff
	ff		 lea	 ecx, DWORD PTR _scanner$[ebp]
  00498	89 85 d8 fd ff
	ff		 mov	 DWORD PTR _prop$[ebp+284], eax
  0049e	e8 00 00 00 00	 call	 ?GetNumber@CScanner@@QAEHH@Z ; CScanner::GetNumber

; 380  : 		prop.nShellQuantity		= scanner.GetNumber();      

  004a3	6a 00		 push	 0
  004a5	8d 8d 54 de ff
	ff		 lea	 ecx, DWORD PTR _scanner$[ebp]
  004ab	89 85 dc fd ff
	ff		 mov	 DWORD PTR _prop$[ebp+288], eax
  004b1	e8 00 00 00 00	 call	 ?GetNumber@CScanner@@QAEHH@Z ; CScanner::GetNumber

; 381  : 		prop.dwRecoil			= scanner.GetNumber();      

  004b6	6a 00		 push	 0
  004b8	8d 8d 54 de ff
	ff		 lea	 ecx, DWORD PTR _scanner$[ebp]
  004be	89 85 84 fd ff
	ff		 mov	 DWORD PTR _prop$[ebp+200], eax
  004c4	e8 00 00 00 00	 call	 ?GetNumber@CScanner@@QAEHH@Z ; CScanner::GetNumber

; 382  : 		prop.dwLoadingTime		= scanner.GetNumber();      

  004c9	6a 00		 push	 0
  004cb	8d 8d 54 de ff
	ff		 lea	 ecx, DWORD PTR _scanner$[ebp]
  004d1	89 85 e0 fd ff
	ff		 mov	 DWORD PTR _prop$[ebp+292], eax
  004d7	e8 00 00 00 00	 call	 ?GetNumber@CScanner@@QAEHH@Z ; CScanner::GetNumber

; 383  : 		prop.nAdjHitRate		= scanner.GetNumber();      

  004dc	6a 00		 push	 0
  004de	8d 8d 54 de ff
	ff		 lea	 ecx, DWORD PTR _scanner$[ebp]
  004e4	89 85 e4 fd ff
	ff		 mov	 DWORD PTR _prop$[ebp+296], eax
  004ea	e8 00 00 00 00	 call	 ?GetNumber@CScanner@@QAEHH@Z ; CScanner::GetNumber

; 384  : 		prop.fAttackSpeed		= scanner.GetFloat();      

  004ef	6a 00		 push	 0
  004f1	8d 8d 54 de ff
	ff		 lea	 ecx, DWORD PTR _scanner$[ebp]
  004f7	89 85 e8 fd ff
	ff		 mov	 DWORD PTR _prop$[ebp+300], eax
  004fd	e8 00 00 00 00	 call	 ?GetFloat@CScanner@@QAEMH@Z ; CScanner::GetFloat

; 385  : 		prop.dwDmgShift			= scanner.GetNumber();      

  00502	6a 00		 push	 0
  00504	8d 8d 54 de ff
	ff		 lea	 ecx, DWORD PTR _scanner$[ebp]
  0050a	d9 9d ec fd ff
	ff		 fstp	 DWORD PTR _prop$[ebp+304]
  00510	e8 00 00 00 00	 call	 ?GetNumber@CScanner@@QAEHH@Z ; CScanner::GetNumber

; 386  : 		prop.dwAttackRange		= scanner.GetNumber();      

  00515	6a 00		 push	 0
  00517	8d 8d 54 de ff
	ff		 lea	 ecx, DWORD PTR _scanner$[ebp]
  0051d	89 85 f0 fd ff
	ff		 mov	 DWORD PTR _prop$[ebp+308], eax
  00523	e8 00 00 00 00	 call	 ?GetNumber@CScanner@@QAEHH@Z ; CScanner::GetNumber

; 387  : 		prop.nProbability		= scanner.GetNumber();      

  00528	6a 00		 push	 0
  0052a	8d 8d 54 de ff
	ff		 lea	 ecx, DWORD PTR _scanner$[ebp]
  00530	89 85 f4 fd ff
	ff		 mov	 DWORD PTR _prop$[ebp+312], eax
  00536	e8 00 00 00 00	 call	 ?GetNumber@CScanner@@QAEHH@Z ; CScanner::GetNumber

; 388  : 		prop.dwDestParam[0]		= scanner.GetNumber();      

  0053b	6a 00		 push	 0
  0053d	8d 8d 54 de ff
	ff		 lea	 ecx, DWORD PTR _scanner$[ebp]
  00543	89 85 f8 fd ff
	ff		 mov	 DWORD PTR _prop$[ebp+316], eax
  00549	e8 00 00 00 00	 call	 ?GetNumber@CScanner@@QAEHH@Z ; CScanner::GetNumber

; 389  : 		prop.dwDestParam[1]		= scanner.GetNumber();      

  0054e	6a 00		 push	 0
  00550	8d 8d 54 de ff
	ff		 lea	 ecx, DWORD PTR _scanner$[ebp]
  00556	89 85 fc fd ff
	ff		 mov	 DWORD PTR _prop$[ebp+320], eax
  0055c	e8 00 00 00 00	 call	 ?GetNumber@CScanner@@QAEHH@Z ; CScanner::GetNumber

; 390  : #ifdef __PROP_0827
; 391  : 		prop.dwDestParam[2]		= scanner.GetNumber();      

  00561	6a 00		 push	 0
  00563	8d 8d 54 de ff
	ff		 lea	 ecx, DWORD PTR _scanner$[ebp]
  00569	89 85 00 fe ff
	ff		 mov	 DWORD PTR _prop$[ebp+324], eax
  0056f	e8 00 00 00 00	 call	 ?GetNumber@CScanner@@QAEHH@Z ; CScanner::GetNumber

; 392  : #endif	// __PROP_0827
; 393  : 		prop.nAdjParamVal[0]	= scanner.GetNumber();      

  00574	6a 00		 push	 0
  00576	8d 8d 54 de ff
	ff		 lea	 ecx, DWORD PTR _scanner$[ebp]
  0057c	89 85 04 fe ff
	ff		 mov	 DWORD PTR _prop$[ebp+328], eax
  00582	e8 00 00 00 00	 call	 ?GetNumber@CScanner@@QAEHH@Z ; CScanner::GetNumber

; 394  : 		prop.nAdjParamVal[1]	= scanner.GetNumber();      

  00587	6a 00		 push	 0
  00589	8d 8d 54 de ff
	ff		 lea	 ecx, DWORD PTR _scanner$[ebp]
  0058f	89 85 08 fe ff
	ff		 mov	 DWORD PTR _prop$[ebp+332], eax
  00595	e8 00 00 00 00	 call	 ?GetNumber@CScanner@@QAEHH@Z ; CScanner::GetNumber

; 395  : #ifdef __PROP_0827
; 396  : 		prop.nAdjParamVal[2]	= scanner.GetNumber();      

  0059a	6a 00		 push	 0
  0059c	8d 8d 54 de ff
	ff		 lea	 ecx, DWORD PTR _scanner$[ebp]
  005a2	89 85 0c fe ff
	ff		 mov	 DWORD PTR _prop$[ebp+336], eax
  005a8	e8 00 00 00 00	 call	 ?GetNumber@CScanner@@QAEHH@Z ; CScanner::GetNumber

; 397  : #endif	// __PROP_0827
; 398  : 		prop.dwChgParamVal[0]	= scanner.GetNumber();      

  005ad	6a 00		 push	 0
  005af	8d 8d 54 de ff
	ff		 lea	 ecx, DWORD PTR _scanner$[ebp]
  005b5	89 85 10 fe ff
	ff		 mov	 DWORD PTR _prop$[ebp+340], eax
  005bb	e8 00 00 00 00	 call	 ?GetNumber@CScanner@@QAEHH@Z ; CScanner::GetNumber

; 399  : 		prop.dwChgParamVal[1]	= scanner.GetNumber();      

  005c0	6a 00		 push	 0
  005c2	8d 8d 54 de ff
	ff		 lea	 ecx, DWORD PTR _scanner$[ebp]
  005c8	89 85 14 fe ff
	ff		 mov	 DWORD PTR _prop$[ebp+344], eax
  005ce	e8 00 00 00 00	 call	 ?GetNumber@CScanner@@QAEHH@Z ; CScanner::GetNumber

; 400  : #ifdef __PROP_0827
; 401  : 		prop.dwChgParamVal[2]	= scanner.GetNumber();      

  005d3	6a 00		 push	 0
  005d5	8d 8d 54 de ff
	ff		 lea	 ecx, DWORD PTR _scanner$[ebp]
  005db	89 85 18 fe ff
	ff		 mov	 DWORD PTR _prop$[ebp+348], eax
  005e1	e8 00 00 00 00	 call	 ?GetNumber@CScanner@@QAEHH@Z ; CScanner::GetNumber

; 402  : #endif	// __PROP_0827
; 403  : 		prop.nDestData1[0]		= scanner.GetNumber();      

  005e6	6a 00		 push	 0
  005e8	8d 8d 54 de ff
	ff		 lea	 ecx, DWORD PTR _scanner$[ebp]
  005ee	89 85 1c fe ff
	ff		 mov	 DWORD PTR _prop$[ebp+352], eax
  005f4	e8 00 00 00 00	 call	 ?GetNumber@CScanner@@QAEHH@Z ; CScanner::GetNumber

; 404  : 		prop.nDestData1[1]		= scanner.GetNumber();   

  005f9	6a 00		 push	 0
  005fb	8d 8d 54 de ff
	ff		 lea	 ecx, DWORD PTR _scanner$[ebp]
  00601	89 85 20 fe ff
	ff		 mov	 DWORD PTR _prop$[ebp+356], eax
  00607	e8 00 00 00 00	 call	 ?GetNumber@CScanner@@QAEHH@Z ; CScanner::GetNumber

; 405  : 		prop.nDestData1[2]		= scanner.GetNumber();      

  0060c	6a 00		 push	 0
  0060e	8d 8d 54 de ff
	ff		 lea	 ecx, DWORD PTR _scanner$[ebp]
  00614	89 85 24 fe ff
	ff		 mov	 DWORD PTR _prop$[ebp+360], eax
  0061a	e8 00 00 00 00	 call	 ?GetNumber@CScanner@@QAEHH@Z ; CScanner::GetNumber

; 406  : 		prop.dwActiveSkill		= scanner.GetNumber();

  0061f	6a 00		 push	 0
  00621	8d 8d 54 de ff
	ff		 lea	 ecx, DWORD PTR _scanner$[ebp]
  00627	89 85 28 fe ff
	ff		 mov	 DWORD PTR _prop$[ebp+364], eax
  0062d	e8 00 00 00 00	 call	 ?GetNumber@CScanner@@QAEHH@Z ; CScanner::GetNumber

; 407  : 		prop.dwActiveSkillLv	= scanner.GetNumber();

  00632	6a 00		 push	 0
  00634	8d 8d 54 de ff
	ff		 lea	 ecx, DWORD PTR _scanner$[ebp]
  0063a	89 85 2c fe ff
	ff		 mov	 DWORD PTR _prop$[ebp+368], eax
  00640	e8 00 00 00 00	 call	 ?GetNumber@CScanner@@QAEHH@Z ; CScanner::GetNumber

; 408  : 		prop.dwActiveSkillRate	= scanner.GetNumber();      

  00645	6a 00		 push	 0
  00647	8d 8d 54 de ff
	ff		 lea	 ecx, DWORD PTR _scanner$[ebp]
  0064d	89 85 88 fd ff
	ff		 mov	 DWORD PTR _prop$[ebp+204], eax
  00653	e8 00 00 00 00	 call	 ?GetNumber@CScanner@@QAEHH@Z ; CScanner::GetNumber

; 409  : 		prop.dwReqMp			= scanner.GetNumber();      

  00658	6a 00		 push	 0
  0065a	8d 8d 54 de ff
	ff		 lea	 ecx, DWORD PTR _scanner$[ebp]
  00660	89 85 30 fe ff
	ff		 mov	 DWORD PTR _prop$[ebp+372], eax
  00666	e8 00 00 00 00	 call	 ?GetNumber@CScanner@@QAEHH@Z ; CScanner::GetNumber

; 410  : 		prop.dwReqFp			= scanner.GetNumber();      

  0066b	6a 00		 push	 0
  0066d	8d 8d 54 de ff
	ff		 lea	 ecx, DWORD PTR _scanner$[ebp]
  00673	89 85 34 fe ff
	ff		 mov	 DWORD PTR _prop$[ebp+376], eax
  00679	e8 00 00 00 00	 call	 ?GetNumber@CScanner@@QAEHH@Z ; CScanner::GetNumber

; 411  :         prop.dwReqDisLV			= scanner.GetNumber();      

  0067e	6a 00		 push	 0
  00680	8d 8d 54 de ff
	ff		 lea	 ecx, DWORD PTR _scanner$[ebp]
  00686	89 85 38 fe ff
	ff		 mov	 DWORD PTR _prop$[ebp+380], eax
  0068c	e8 00 00 00 00	 call	 ?GetNumber@CScanner@@QAEHH@Z ; CScanner::GetNumber

; 412  : 		prop.dwReSkill1			= scanner.GetNumber();

  00691	6a 00		 push	 0
  00693	8d 8d 54 de ff
	ff		 lea	 ecx, DWORD PTR _scanner$[ebp]
  00699	89 85 3c fe ff
	ff		 mov	 DWORD PTR _prop$[ebp+384], eax
  0069f	e8 00 00 00 00	 call	 ?GetNumber@CScanner@@QAEHH@Z ; CScanner::GetNumber

; 413  : 		prop.dwReSkillLevel1	= scanner.GetNumber();

  006a4	6a 00		 push	 0
  006a6	8d 8d 54 de ff
	ff		 lea	 ecx, DWORD PTR _scanner$[ebp]
  006ac	89 85 40 fe ff
	ff		 mov	 DWORD PTR _prop$[ebp+388], eax
  006b2	e8 00 00 00 00	 call	 ?GetNumber@CScanner@@QAEHH@Z ; CScanner::GetNumber

; 414  : 		prop.dwReSkill2			= scanner.GetNumber();

  006b7	6a 00		 push	 0
  006b9	8d 8d 54 de ff
	ff		 lea	 ecx, DWORD PTR _scanner$[ebp]
  006bf	89 85 44 fe ff
	ff		 mov	 DWORD PTR _prop$[ebp+392], eax
  006c5	e8 00 00 00 00	 call	 ?GetNumber@CScanner@@QAEHH@Z ; CScanner::GetNumber

; 415  : 		prop.dwReSkillLevel2	= scanner.GetNumber();

  006ca	6a 00		 push	 0
  006cc	8d 8d 54 de ff
	ff		 lea	 ecx, DWORD PTR _scanner$[ebp]
  006d2	89 85 48 fe ff
	ff		 mov	 DWORD PTR _prop$[ebp+396], eax
  006d8	e8 00 00 00 00	 call	 ?GetNumber@CScanner@@QAEHH@Z ; CScanner::GetNumber

; 416  :         prop.dwSkillReadyType	= scanner.GetNumber();      

  006dd	6a 00		 push	 0
  006df	8d 8d 54 de ff
	ff		 lea	 ecx, DWORD PTR _scanner$[ebp]
  006e5	89 85 4c fe ff
	ff		 mov	 DWORD PTR _prop$[ebp+400], eax
  006eb	e8 00 00 00 00	 call	 ?GetNumber@CScanner@@QAEHH@Z ; CScanner::GetNumber

; 417  : 		prop.dwSkillReady		= scanner.GetNumber();      

  006f0	6a 00		 push	 0
  006f2	8d 8d 54 de ff
	ff		 lea	 ecx, DWORD PTR _scanner$[ebp]
  006f8	89 85 50 fe ff
	ff		 mov	 DWORD PTR _prop$[ebp+404], eax
  006fe	e8 00 00 00 00	 call	 ?GetNumber@CScanner@@QAEHH@Z ; CScanner::GetNumber

; 418  : 		prop._dwSkillRange		= scanner.GetNumber();      

  00703	6a 00		 push	 0
  00705	8d 8d 54 de ff
	ff		 lea	 ecx, DWORD PTR _scanner$[ebp]
  0070b	89 85 54 fe ff
	ff		 mov	 DWORD PTR _prop$[ebp+408], eax
  00711	e8 00 00 00 00	 call	 ?GetNumber@CScanner@@QAEHH@Z ; CScanner::GetNumber

; 419  : 		prop.dwSfxElemental		= scanner.GetNumber();      

  00716	6a 00		 push	 0
  00718	8d 8d 54 de ff
	ff		 lea	 ecx, DWORD PTR _scanner$[ebp]
  0071e	89 85 58 fe ff
	ff		 mov	 DWORD PTR _prop$[ebp+412], eax
  00724	e8 00 00 00 00	 call	 ?GetNumber@CScanner@@QAEHH@Z ; CScanner::GetNumber

; 420  : 		prop.dwSfxObj			= scanner.GetNumber();      

  00729	6a 00		 push	 0
  0072b	8d 8d 54 de ff
	ff		 lea	 ecx, DWORD PTR _scanner$[ebp]
  00731	89 85 5c fe ff
	ff		 mov	 DWORD PTR _prop$[ebp+416], eax
  00737	e8 00 00 00 00	 call	 ?GetNumber@CScanner@@QAEHH@Z ; CScanner::GetNumber

; 421  : 		prop.dwSfxObj2			= scanner.GetNumber();      

  0073c	6a 00		 push	 0
  0073e	8d 8d 54 de ff
	ff		 lea	 ecx, DWORD PTR _scanner$[ebp]
  00744	89 85 60 fe ff
	ff		 mov	 DWORD PTR _prop$[ebp+420], eax
  0074a	e8 00 00 00 00	 call	 ?GetNumber@CScanner@@QAEHH@Z ; CScanner::GetNumber

; 422  : 		prop.dwSfxObj3			= scanner.GetNumber();      

  0074f	6a 00		 push	 0
  00751	8d 8d 54 de ff
	ff		 lea	 ecx, DWORD PTR _scanner$[ebp]
  00757	89 85 64 fe ff
	ff		 mov	 DWORD PTR _prop$[ebp+424], eax
  0075d	e8 00 00 00 00	 call	 ?GetNumber@CScanner@@QAEHH@Z ; CScanner::GetNumber

; 423  : 		prop.dwSfxObj4			= scanner.GetNumber();      

  00762	6a 00		 push	 0
  00764	8d 8d 54 de ff
	ff		 lea	 ecx, DWORD PTR _scanner$[ebp]
  0076a	89 85 68 fe ff
	ff		 mov	 DWORD PTR _prop$[ebp+428], eax
  00770	e8 00 00 00 00	 call	 ?GetNumber@CScanner@@QAEHH@Z ; CScanner::GetNumber
  00775	89 85 6c fe ff
	ff		 mov	 DWORD PTR _prop$[ebp+432], eax

; 424  : 		prop.dwSfxObj5			= scanner.GetNumber();      

  0077b	6a 00		 push	 0
  0077d	8d 8d 54 de ff
	ff		 lea	 ecx, DWORD PTR _scanner$[ebp]
  00783	e8 00 00 00 00	 call	 ?GetNumber@CScanner@@QAEHH@Z ; CScanner::GetNumber

; 425  : 		prop.dwUseMotion		= scanner.GetNumber();      

  00788	6a 00		 push	 0
  0078a	8d 8d 54 de ff
	ff		 lea	 ecx, DWORD PTR _scanner$[ebp]
  00790	89 85 70 fe ff
	ff		 mov	 DWORD PTR _prop$[ebp+436], eax
  00796	e8 00 00 00 00	 call	 ?GetNumber@CScanner@@QAEHH@Z ; CScanner::GetNumber

; 426  : 		prop.dwCircleTime		= scanner.GetNumber();      

  0079b	6a 00		 push	 0
  0079d	8d 8d 54 de ff
	ff		 lea	 ecx, DWORD PTR _scanner$[ebp]
  007a3	89 85 74 fe ff
	ff		 mov	 DWORD PTR _prop$[ebp+440], eax
  007a9	e8 00 00 00 00	 call	 ?GetNumber@CScanner@@QAEHH@Z ; CScanner::GetNumber

; 427  : 		prop.dwSkillTime		= scanner.GetNumber();

  007ae	6a 00		 push	 0
  007b0	8d 8d 54 de ff
	ff		 lea	 ecx, DWORD PTR _scanner$[ebp]
  007b6	89 85 78 fe ff
	ff		 mov	 DWORD PTR _prop$[ebp+444], eax
  007bc	e8 00 00 00 00	 call	 ?GetNumber@CScanner@@QAEHH@Z ; CScanner::GetNumber

; 428  : 		prop.dwExeTarget		= scanner.GetNumber();      

  007c1	6a 00		 push	 0
  007c3	8d 8d 54 de ff
	ff		 lea	 ecx, DWORD PTR _scanner$[ebp]
  007c9	89 85 7c fe ff
	ff		 mov	 DWORD PTR _prop$[ebp+448], eax
  007cf	e8 00 00 00 00	 call	 ?GetNumber@CScanner@@QAEHH@Z ; CScanner::GetNumber

; 429  : 		prop.dwUseChance		= scanner.GetNumber();      

  007d4	6a 00		 push	 0
  007d6	8d 8d 54 de ff
	ff		 lea	 ecx, DWORD PTR _scanner$[ebp]
  007dc	89 85 80 fe ff
	ff		 mov	 DWORD PTR _prop$[ebp+452], eax
  007e2	e8 00 00 00 00	 call	 ?GetNumber@CScanner@@QAEHH@Z ; CScanner::GetNumber

; 430  : 		prop.dwSpellRegion		= scanner.GetNumber();   

  007e7	6a 00		 push	 0
  007e9	8d 8d 54 de ff
	ff		 lea	 ecx, DWORD PTR _scanner$[ebp]
  007ef	89 85 84 fe ff
	ff		 mov	 DWORD PTR _prop$[ebp+456], eax
  007f5	e8 00 00 00 00	 call	 ?GetNumber@CScanner@@QAEHH@Z ; CScanner::GetNumber

; 431  : 		prop.dwSpellType		= scanner.GetNumber();

  007fa	6a 00		 push	 0
  007fc	8d 8d 54 de ff
	ff		 lea	 ecx, DWORD PTR _scanner$[ebp]
  00802	89 85 88 fe ff
	ff		 mov	 DWORD PTR _prop$[ebp+460], eax
  00808	e8 00 00 00 00	 call	 ?GetNumber@CScanner@@QAEHH@Z ; CScanner::GetNumber

; 432  : 		prop.dwReferStat1		= scanner.GetNumber();      

  0080d	6a 00		 push	 0
  0080f	8d 8d 54 de ff
	ff		 lea	 ecx, DWORD PTR _scanner$[ebp]
  00815	89 85 94 fd ff
	ff		 mov	 DWORD PTR _prop$[ebp+216], eax
  0081b	e8 00 00 00 00	 call	 ?GetNumber@CScanner@@QAEHH@Z ; CScanner::GetNumber

; 433  : 		prop.dwReferStat2		= scanner.GetNumber();      

  00820	6a 00		 push	 0
  00822	8d 8d 54 de ff
	ff		 lea	 ecx, DWORD PTR _scanner$[ebp]
  00828	89 85 8c fe ff
	ff		 mov	 DWORD PTR _prop$[ebp+464], eax
  0082e	e8 00 00 00 00	 call	 ?GetNumber@CScanner@@QAEHH@Z ; CScanner::GetNumber

; 434  : 		prop.dwReferTarget1		= scanner.GetNumber();      

  00833	6a 00		 push	 0
  00835	8d 8d 54 de ff
	ff		 lea	 ecx, DWORD PTR _scanner$[ebp]
  0083b	89 85 90 fe ff
	ff		 mov	 DWORD PTR _prop$[ebp+468], eax
  00841	e8 00 00 00 00	 call	 ?GetNumber@CScanner@@QAEHH@Z ; CScanner::GetNumber

; 435  : 		prop.dwReferTarget2		= scanner.GetNumber();      

  00846	6a 00		 push	 0
  00848	8d 8d 54 de ff
	ff		 lea	 ecx, DWORD PTR _scanner$[ebp]
  0084e	89 85 94 fe ff
	ff		 mov	 DWORD PTR _prop$[ebp+472], eax
  00854	e8 00 00 00 00	 call	 ?GetNumber@CScanner@@QAEHH@Z ; CScanner::GetNumber

; 436  : 		prop.dwReferValue1		= scanner.GetNumber();      

  00859	6a 00		 push	 0
  0085b	8d 8d 54 de ff
	ff		 lea	 ecx, DWORD PTR _scanner$[ebp]
  00861	89 85 98 fe ff
	ff		 mov	 DWORD PTR _prop$[ebp+476], eax
  00867	e8 00 00 00 00	 call	 ?GetNumber@CScanner@@QAEHH@Z ; CScanner::GetNumber

; 437  : 		prop.dwReferValue2		= scanner.GetNumber();      

  0086c	6a 00		 push	 0
  0086e	8d 8d 54 de ff
	ff		 lea	 ecx, DWORD PTR _scanner$[ebp]
  00874	89 85 9c fe ff
	ff		 mov	 DWORD PTR _prop$[ebp+480], eax
  0087a	e8 00 00 00 00	 call	 ?GetNumber@CScanner@@QAEHH@Z ; CScanner::GetNumber

; 438  : 		prop.dwSkillType		= scanner.GetNumber();      

  0087f	6a 00		 push	 0
  00881	8d 8d 54 de ff
	ff		 lea	 ecx, DWORD PTR _scanner$[ebp]
  00887	89 85 a0 fe ff
	ff		 mov	 DWORD PTR _prop$[ebp+484], eax
  0088d	e8 00 00 00 00	 call	 ?GetNumber@CScanner@@QAEHH@Z ; CScanner::GetNumber

; 439  : 		prop.nItemResistElecricity	= (int)(scanner.GetFloat() * 100.0f);

  00892	6a 00		 push	 0
  00894	8d 8d 54 de ff
	ff		 lea	 ecx, DWORD PTR _scanner$[ebp]
  0089a	89 85 a4 fe ff
	ff		 mov	 DWORD PTR _prop$[ebp+488], eax
  008a0	e8 00 00 00 00	 call	 ?GetFloat@CScanner@@QAEMH@Z ; CScanner::GetFloat
  008a5	d8 0d 00 00 00
	00		 fmul	 DWORD PTR __real@42c80000

; 440  : 		prop.nItemResistFire	    = (int)(scanner.GetFloat() * 100.0f);      

  008ab	8d 8d 54 de ff
	ff		 lea	 ecx, DWORD PTR _scanner$[ebp]
  008b1	6a 00		 push	 0
  008b3	d9 9d 50 de ff
	ff		 fstp	 DWORD PTR tv2721[ebp]
  008b9	f3 0f 2c 85 50
	de ff ff	 cvttss2si eax, DWORD PTR tv2721[ebp]
  008c1	89 85 a8 fe ff
	ff		 mov	 DWORD PTR _prop$[ebp+492], eax
  008c7	e8 00 00 00 00	 call	 ?GetFloat@CScanner@@QAEMH@Z ; CScanner::GetFloat
  008cc	d8 0d 00 00 00
	00		 fmul	 DWORD PTR __real@42c80000

; 441  : 		prop.nItemResistWind	    = (int)(scanner.GetFloat() * 100.0f);      

  008d2	8d 8d 54 de ff
	ff		 lea	 ecx, DWORD PTR _scanner$[ebp]
  008d8	6a 00		 push	 0
  008da	d9 9d 50 de ff
	ff		 fstp	 DWORD PTR tv2717[ebp]
  008e0	f3 0f 2c 85 50
	de ff ff	 cvttss2si eax, DWORD PTR tv2717[ebp]
  008e8	89 85 b0 fe ff
	ff		 mov	 DWORD PTR _prop$[ebp+500], eax
  008ee	e8 00 00 00 00	 call	 ?GetFloat@CScanner@@QAEMH@Z ; CScanner::GetFloat
  008f3	d8 0d 00 00 00
	00		 fmul	 DWORD PTR __real@42c80000
  008f9	d9 9d 50 de ff
	ff		 fstp	 DWORD PTR tv2713[ebp]
  008ff	f3 0f 2c 85 50
	de ff ff	 cvttss2si eax, DWORD PTR tv2713[ebp]
  00907	89 85 b4 fe ff
	ff		 mov	 DWORD PTR _prop$[ebp+504], eax

; 442  : 		prop.nItemResistWater	    = (int)(scanner.GetFloat() * 100.0f);      

  0090d	6a 00		 push	 0
  0090f	8d 8d 54 de ff
	ff		 lea	 ecx, DWORD PTR _scanner$[ebp]
  00915	e8 00 00 00 00	 call	 ?GetFloat@CScanner@@QAEMH@Z ; CScanner::GetFloat
  0091a	d8 0d 00 00 00
	00		 fmul	 DWORD PTR __real@42c80000

; 443  : 		prop.nItemResistEarth	    = (int)(scanner.GetFloat() * 100.0f);      

  00920	8d 8d 54 de ff
	ff		 lea	 ecx, DWORD PTR _scanner$[ebp]
  00926	6a 00		 push	 0
  00928	d9 9d 50 de ff
	ff		 fstp	 DWORD PTR tv2709[ebp]
  0092e	f3 0f 2c 85 50
	de ff ff	 cvttss2si eax, DWORD PTR tv2709[ebp]
  00936	89 85 b8 fe ff
	ff		 mov	 DWORD PTR _prop$[ebp+508], eax
  0093c	e8 00 00 00 00	 call	 ?GetFloat@CScanner@@QAEMH@Z ; CScanner::GetFloat
  00941	d8 0d 00 00 00
	00		 fmul	 DWORD PTR __real@42c80000

; 444  : 		prop.nEvildoing			= scanner.GetNumber();      

  00947	8d 8d 54 de ff
	ff		 lea	 ecx, DWORD PTR _scanner$[ebp]
  0094d	6a 00		 push	 0
  0094f	d9 9d 50 de ff
	ff		 fstp	 DWORD PTR tv2705[ebp]
  00955	f3 0f 2c 85 50
	de ff ff	 cvttss2si eax, DWORD PTR tv2705[ebp]
  0095d	89 85 bc fe ff
	ff		 mov	 DWORD PTR _prop$[ebp+512], eax
  00963	e8 00 00 00 00	 call	 ?GetNumber@CScanner@@QAEHH@Z ; CScanner::GetNumber

; 445  : 		prop.dwExpertLV			= scanner.GetNumber();      

  00968	6a 00		 push	 0
  0096a	8d 8d 54 de ff
	ff		 lea	 ecx, DWORD PTR _scanner$[ebp]
  00970	89 85 c0 fe ff
	ff		 mov	 DWORD PTR _prop$[ebp+516], eax
  00976	e8 00 00 00 00	 call	 ?GetNumber@CScanner@@QAEHH@Z ; CScanner::GetNumber

; 446  : 		prop.dwExpertMax		= scanner.GetNumber();   

  0097b	6a 00		 push	 0
  0097d	8d 8d 54 de ff
	ff		 lea	 ecx, DWORD PTR _scanner$[ebp]
  00983	89 85 c4 fe ff
	ff		 mov	 DWORD PTR _prop$[ebp+520], eax
  00989	e8 00 00 00 00	 call	 ?GetNumber@CScanner@@QAEHH@Z ; CScanner::GetNumber

; 447  : 		prop.dwSubDefine		= scanner.GetNumber();

  0098e	6a 00		 push	 0
  00990	8d 8d 54 de ff
	ff		 lea	 ecx, DWORD PTR _scanner$[ebp]
  00996	89 85 c8 fe ff
	ff		 mov	 DWORD PTR _prop$[ebp+524], eax
  0099c	e8 00 00 00 00	 call	 ?GetNumber@CScanner@@QAEHH@Z ; CScanner::GetNumber

; 448  : 		prop.dwExp				= scanner.GetNumber();      

  009a1	6a 00		 push	 0
  009a3	8d 8d 54 de ff
	ff		 lea	 ecx, DWORD PTR _scanner$[ebp]
  009a9	89 85 cc fe ff
	ff		 mov	 DWORD PTR _prop$[ebp+528], eax
  009af	e8 00 00 00 00	 call	 ?GetNumber@CScanner@@QAEHH@Z ; CScanner::GetNumber

; 449  : 		prop.dwComboStyle		= scanner.GetNumber();      

  009b4	6a 00		 push	 0
  009b6	8d 8d 54 de ff
	ff		 lea	 ecx, DWORD PTR _scanner$[ebp]
  009bc	89 85 d0 fe ff
	ff		 mov	 DWORD PTR _prop$[ebp+532], eax
  009c2	e8 00 00 00 00	 call	 ?GetNumber@CScanner@@QAEHH@Z ; CScanner::GetNumber

; 450  : 		prop.fFlightSpeed		= scanner.GetFloat();      

  009c7	6a 00		 push	 0
  009c9	8d 8d 54 de ff
	ff		 lea	 ecx, DWORD PTR _scanner$[ebp]
  009cf	89 85 d4 fe ff
	ff		 mov	 DWORD PTR _prop$[ebp+536], eax
  009d5	e8 00 00 00 00	 call	 ?GetFloat@CScanner@@QAEMH@Z ; CScanner::GetFloat
  009da	d9 9d d8 fe ff
	ff		 fstp	 DWORD PTR _prop$[ebp+540]

; 451  : 		prop.fFlightLRAngle		= scanner.GetFloat();      

  009e0	6a 00		 push	 0
  009e2	8d 8d 54 de ff
	ff		 lea	 ecx, DWORD PTR _scanner$[ebp]
  009e8	e8 00 00 00 00	 call	 ?GetFloat@CScanner@@QAEMH@Z ; CScanner::GetFloat
  009ed	d9 9d dc fe ff
	ff		 fstp	 DWORD PTR _prop$[ebp+544]

; 452  : 		prop.fFlightTBAngle		= scanner.GetFloat();      

  009f3	6a 00		 push	 0
  009f5	8d 8d 54 de ff
	ff		 lea	 ecx, DWORD PTR _scanner$[ebp]
  009fb	e8 00 00 00 00	 call	 ?GetFloat@CScanner@@QAEMH@Z ; CScanner::GetFloat

; 453  : 		prop.dwFlightLimit		= scanner.GetNumber();      

  00a00	6a 00		 push	 0
  00a02	8d 8d 54 de ff
	ff		 lea	 ecx, DWORD PTR _scanner$[ebp]
  00a08	d9 9d e0 fe ff
	ff		 fstp	 DWORD PTR _prop$[ebp+548]
  00a0e	e8 00 00 00 00	 call	 ?GetNumber@CScanner@@QAEHH@Z ; CScanner::GetNumber

; 454  : 		prop.dwFFuelReMax		= scanner.GetNumber();      

  00a13	6a 00		 push	 0
  00a15	8d 8d 54 de ff
	ff		 lea	 ecx, DWORD PTR _scanner$[ebp]
  00a1b	89 85 e4 fe ff
	ff		 mov	 DWORD PTR _prop$[ebp+552], eax
  00a21	e8 00 00 00 00	 call	 ?GetNumber@CScanner@@QAEHH@Z ; CScanner::GetNumber

; 455  : 		prop.dwAFuelReMax		= scanner.GetNumber();      

  00a26	6a 00		 push	 0
  00a28	8d 8d 54 de ff
	ff		 lea	 ecx, DWORD PTR _scanner$[ebp]
  00a2e	89 85 e8 fe ff
	ff		 mov	 DWORD PTR _prop$[ebp+556], eax
  00a34	e8 00 00 00 00	 call	 ?GetNumber@CScanner@@QAEHH@Z ; CScanner::GetNumber

; 456  : 		prop.dwFuelRe			= scanner.GetNumber();      

  00a39	6a 00		 push	 0
  00a3b	8d 8d 54 de ff
	ff		 lea	 ecx, DWORD PTR _scanner$[ebp]
  00a41	89 85 90 fd ff
	ff		 mov	 DWORD PTR _prop$[ebp+212], eax
  00a47	e8 00 00 00 00	 call	 ?GetNumber@CScanner@@QAEHH@Z ; CScanner::GetNumber

; 457  : 		prop.dwLimitLevel1		= scanner.GetNumber();

  00a4c	6a 00		 push	 0
  00a4e	8d 8d 54 de ff
	ff		 lea	 ecx, DWORD PTR _scanner$[ebp]
  00a54	89 85 8c fd ff
	ff		 mov	 DWORD PTR _prop$[ebp+208], eax
  00a5a	e8 00 00 00 00	 call	 ?GetNumber@CScanner@@QAEHH@Z ; CScanner::GetNumber

; 458  : 		prop.nReflect			= scanner.GetNumber();      

  00a5f	6a 00		 push	 0
  00a61	8d 8d 54 de ff
	ff		 lea	 ecx, DWORD PTR _scanner$[ebp]
  00a67	89 85 ec fe ff
	ff		 mov	 DWORD PTR _prop$[ebp+560], eax
  00a6d	e8 00 00 00 00	 call	 ?GetNumber@CScanner@@QAEHH@Z ; CScanner::GetNumber

; 459  : 		prop.dwSndAttack1		= scanner.GetNumber();     

  00a72	6a 00		 push	 0
  00a74	8d 8d 54 de ff
	ff		 lea	 ecx, DWORD PTR _scanner$[ebp]
  00a7a	89 85 f0 fe ff
	ff		 mov	 DWORD PTR _prop$[ebp+564], eax
  00a80	e8 00 00 00 00	 call	 ?GetNumber@CScanner@@QAEHH@Z ; CScanner::GetNumber

; 460  : 		prop.dwSndAttack2 		= scanner.GetNumber();    

  00a85	6a 00		 push	 0
  00a87	8d 8d 54 de ff
	ff		 lea	 ecx, DWORD PTR _scanner$[ebp]
  00a8d	89 85 f4 fe ff
	ff		 mov	 DWORD PTR _prop$[ebp+568], eax
  00a93	e8 00 00 00 00	 call	 ?GetNumber@CScanner@@QAEHH@Z ; CScanner::GetNumber

; 461  : 		
; 462  : 		// szIcon
; 463  : 		scanner.GetToken();

  00a98	6a 00		 push	 0
  00a9a	8d 8d 54 de ff
	ff		 lea	 ecx, DWORD PTR _scanner$[ebp]
  00aa0	89 85 f8 fe ff
	ff		 mov	 DWORD PTR _prop$[ebp+572], eax
  00aa6	e8 00 00 00 00	 call	 ?GetToken@CScript@@UAEHH@Z ; CScript::GetToken

; 464  : 		scanner.GetToken();	

  00aab	6a 00		 push	 0
  00aad	8d 8d 54 de ff
	ff		 lea	 ecx, DWORD PTR _scanner$[ebp]
  00ab3	e8 00 00 00 00	 call	 ?GetToken@CScript@@UAEHH@Z ; CScript::GetToken

; 465  : 	#ifdef __CLIENT		
; 466  : 		_tcsncpy( prop.szIcon, scanner.token, sizeof(prop.szIcon)-1 );
; 467  : 		prop.szCommand[sizeof(prop.szIcon)-1] = 0;
; 468  : 	#endif 
; 469  : 
; 470  : #ifdef __VERIFY_0201
; 471  : 		_tcsncpy( prop.szIcon, scanner.token, sizeof(prop.szIcon)-1 );
; 472  : 		prop.szCommand[sizeof(prop.szIcon)-1] = 0;
; 473  : #endif	// __VERIFY_0201
; 474  : 
; 475  : 		scanner.GetToken();

  00ab8	6a 00		 push	 0
  00aba	8d 8d 54 de ff
	ff		 lea	 ecx, DWORD PTR _scanner$[ebp]
  00ac0	e8 00 00 00 00	 call	 ?GetToken@CScript@@UAEHH@Z ; CScript::GetToken

; 476  : 
; 477  : 		// dwQuestId
; 478  : 		prop.dwQuestId	= scanner.GetNumber(  );

  00ac5	6a 00		 push	 0
  00ac7	8d 8d 54 de ff
	ff		 lea	 ecx, DWORD PTR _scanner$[ebp]
  00acd	e8 00 00 00 00	 call	 ?GetNumber@CScanner@@QAEHH@Z ; CScanner::GetNumber

; 479  : 
; 480  : 		// szTextFileName 
; 481  : 		scanner.GetToken();

  00ad2	6a 00		 push	 0
  00ad4	8d 8d 54 de ff
	ff		 lea	 ecx, DWORD PTR _scanner$[ebp]
  00ada	89 85 fc fe ff
	ff		 mov	 DWORD PTR _prop$[ebp+576], eax
  00ae0	e8 00 00 00 00	 call	 ?GetToken@CScript@@UAEHH@Z ; CScript::GetToken

; 482  : 		scanner.GetToken(); 

  00ae5	6a 00		 push	 0
  00ae7	8d 8d 54 de ff
	ff		 lea	 ecx, DWORD PTR _scanner$[ebp]
  00aed	e8 00 00 00 00	 call	 ?GetToken@CScript@@UAEHH@Z ; CScript::GetToken

; 483  : 		_tcscpy( prop.szTextFileName, scanner.token );

  00af2	8b 8d 90 de ff
	ff		 mov	 ecx, DWORD PTR _scanner$[ebp+60]
  00af8	8d 95 00 ff ff
	ff		 lea	 edx, DWORD PTR _prop$[ebp+580]
  00afe	2b d1		 sub	 edx, ecx
$LL20@LoadPropIt:
  00b00	8a 01		 mov	 al, BYTE PTR [ecx]
  00b02	8d 49 01	 lea	 ecx, DWORD PTR [ecx+1]
  00b05	88 44 0a ff	 mov	 BYTE PTR [edx+ecx-1], al
  00b09	84 c0		 test	 al, al
  00b0b	75 f3		 jne	 SHORT $LL20@LoadPropIt

; 484  : 		scanner.GetToken();

  00b0d	6a 00		 push	 0
  00b0f	8d 8d 54 de ff
	ff		 lea	 ecx, DWORD PTR _scanner$[ebp]
  00b15	e8 00 00 00 00	 call	 ?GetToken@CScript@@UAEHH@Z ; CScript::GetToken

; 485  : 
; 486  : 		// szCommand
; 487  : 		scanner.GetToken();		

  00b1a	6a 00		 push	 0
  00b1c	8d 8d 54 de ff
	ff		 lea	 ecx, DWORD PTR _scanner$[ebp]
  00b22	e8 00 00 00 00	 call	 ?GetToken@CScript@@UAEHH@Z ; CScript::GetToken

; 488  : 	#ifdef __CLIENT		
; 489  : 		_tcsncpy( prop.szCommand, scanner.token, sizeof(prop.szCommand)-1 );
; 490  : 		prop.szCommand[sizeof(prop.szCommand)-1] = 0;
; 491  : 	#endif // __CLIENT
; 492  : 
; 493  : #if __VER >= 16
; 494  : 		prop.nMinLimitLevel 		= scanner.GetNumber();

  00b27	6a 00		 push	 0
  00b29	8d 8d 54 de ff
	ff		 lea	 ecx, DWORD PTR _scanner$[ebp]
  00b2f	e8 00 00 00 00	 call	 ?GetNumber@CScanner@@QAEHH@Z ; CScanner::GetNumber

; 495  : 		prop.nMaxLimitLevel 		= scanner.GetNumber();

  00b34	6a 00		 push	 0
  00b36	8d 8d 54 de ff
	ff		 lea	 ecx, DWORD PTR _scanner$[ebp]
  00b3c	89 85 44 ff ff
	ff		 mov	 DWORD PTR _prop$[ebp+648], eax
  00b42	e8 00 00 00 00	 call	 ?GetNumber@CScanner@@QAEHH@Z ; CScanner::GetNumber

; 496  : 		prop.nItemGroup 			= scanner.GetNumber();

  00b47	6a 00		 push	 0
  00b49	8d 8d 54 de ff
	ff		 lea	 ecx, DWORD PTR _scanner$[ebp]
  00b4f	89 85 48 ff ff
	ff		 mov	 DWORD PTR _prop$[ebp+652], eax
  00b55	e8 00 00 00 00	 call	 ?GetNumber@CScanner@@QAEHH@Z ; CScanner::GetNumber

; 497  : 		prop.nUseLimitGroup 		= scanner.GetNumber();

  00b5a	6a 00		 push	 0
  00b5c	8d 8d 54 de ff
	ff		 lea	 ecx, DWORD PTR _scanner$[ebp]
  00b62	89 85 4c ff ff
	ff		 mov	 DWORD PTR _prop$[ebp+656], eax
  00b68	e8 00 00 00 00	 call	 ?GetNumber@CScanner@@QAEHH@Z ; CScanner::GetNumber

; 498  : 		prop.nMaxDuplication 		= scanner.GetNumber();

  00b6d	6a 00		 push	 0
  00b6f	8d 8d 54 de ff
	ff		 lea	 ecx, DWORD PTR _scanner$[ebp]
  00b75	89 85 50 ff ff
	ff		 mov	 DWORD PTR _prop$[ebp+660], eax
  00b7b	e8 00 00 00 00	 call	 ?GetNumber@CScanner@@QAEHH@Z ; CScanner::GetNumber

; 499  : 		prop.nEffectValue 			= scanner.GetNumber();

  00b80	6a 00		 push	 0
  00b82	8d 8d 54 de ff
	ff		 lea	 ecx, DWORD PTR _scanner$[ebp]
  00b88	89 85 54 ff ff
	ff		 mov	 DWORD PTR _prop$[ebp+664], eax
  00b8e	e8 00 00 00 00	 call	 ?GetNumber@CScanner@@QAEHH@Z ; CScanner::GetNumber

; 500  : 		prop.nTargetMinEnchant 		= scanner.GetNumber();

  00b93	6a 00		 push	 0
  00b95	8d 8d 54 de ff
	ff		 lea	 ecx, DWORD PTR _scanner$[ebp]
  00b9b	89 85 58 ff ff
	ff		 mov	 DWORD PTR _prop$[ebp+668], eax
  00ba1	e8 00 00 00 00	 call	 ?GetNumber@CScanner@@QAEHH@Z ; CScanner::GetNumber

; 501  : 		prop.nTargetMaxEnchant 		= scanner.GetNumber();

  00ba6	6a 00		 push	 0
  00ba8	8d 8d 54 de ff
	ff		 lea	 ecx, DWORD PTR _scanner$[ebp]
  00bae	89 85 5c ff ff
	ff		 mov	 DWORD PTR _prop$[ebp+672], eax
  00bb4	e8 00 00 00 00	 call	 ?GetNumber@CScanner@@QAEHH@Z ; CScanner::GetNumber

; 502  : 		prop.bResetBind	 			= scanner.GetNumber();

  00bb9	6a 00		 push	 0
  00bbb	8d 8d 54 de ff
	ff		 lea	 ecx, DWORD PTR _scanner$[ebp]
  00bc1	89 85 60 ff ff
	ff		 mov	 DWORD PTR _prop$[ebp+676], eax
  00bc7	e8 00 00 00 00	 call	 ?GetNumber@CScanner@@QAEHH@Z ; CScanner::GetNumber

; 503  : 		prop.nBindCondition 		= scanner.GetNumber();

  00bcc	6a 00		 push	 0
  00bce	8d 8d 54 de ff
	ff		 lea	 ecx, DWORD PTR _scanner$[ebp]
  00bd4	89 85 64 ff ff
	ff		 mov	 DWORD PTR _prop$[ebp+680], eax
  00bda	e8 00 00 00 00	 call	 ?GetNumber@CScanner@@QAEHH@Z ; CScanner::GetNumber

; 504  : 		prop.nResetBindCondition 	= scanner.GetNumber();

  00bdf	6a 00		 push	 0
  00be1	8d 8d 54 de ff
	ff		 lea	 ecx, DWORD PTR _scanner$[ebp]
  00be7	89 85 68 ff ff
	ff		 mov	 DWORD PTR _prop$[ebp+684], eax
  00bed	e8 00 00 00 00	 call	 ?GetNumber@CScanner@@QAEHH@Z ; CScanner::GetNumber

; 505  : 		prop.dwHitActiveSkillId 	= scanner.GetNumber();

  00bf2	6a 00		 push	 0
  00bf4	8d 8d 54 de ff
	ff		 lea	 ecx, DWORD PTR _scanner$[ebp]
  00bfa	89 85 6c ff ff
	ff		 mov	 DWORD PTR _prop$[ebp+688], eax
  00c00	e8 00 00 00 00	 call	 ?GetNumber@CScanner@@QAEHH@Z ; CScanner::GetNumber

; 506  : 		prop.dwHitActiveSkillLv 	= scanner.GetNumber();

  00c05	6a 00		 push	 0
  00c07	8d 8d 54 de ff
	ff		 lea	 ecx, DWORD PTR _scanner$[ebp]
  00c0d	89 85 70 ff ff
	ff		 mov	 DWORD PTR _prop$[ebp+692], eax
  00c13	e8 00 00 00 00	 call	 ?GetNumber@CScanner@@QAEHH@Z ; CScanner::GetNumber

; 507  : 		prop.dwHitActiveSkillProb 	= scanner.GetNumber();

  00c18	6a 00		 push	 0
  00c1a	8d 8d 54 de ff
	ff		 lea	 ecx, DWORD PTR _scanner$[ebp]
  00c20	89 85 74 ff ff
	ff		 mov	 DWORD PTR _prop$[ebp+696], eax
  00c26	e8 00 00 00 00	 call	 ?GetNumber@CScanner@@QAEHH@Z ; CScanner::GetNumber

; 508  : 		prop.dwHitActiveSkillTarget = scanner.GetNumber();

  00c2b	6a 00		 push	 0
  00c2d	8d 8d 54 de ff
	ff		 lea	 ecx, DWORD PTR _scanner$[ebp]
  00c33	89 85 78 ff ff
	ff		 mov	 DWORD PTR _prop$[ebp+700], eax
  00c39	e8 00 00 00 00	 call	 ?GetNumber@CScanner@@QAEHH@Z ; CScanner::GetNumber

; 509  : 		prop.dwDamageActiveSkillId 	= scanner.GetNumber();

  00c3e	6a 00		 push	 0
  00c40	8d 8d 54 de ff
	ff		 lea	 ecx, DWORD PTR _scanner$[ebp]
  00c46	89 85 7c ff ff
	ff		 mov	 DWORD PTR _prop$[ebp+704], eax
  00c4c	e8 00 00 00 00	 call	 ?GetNumber@CScanner@@QAEHH@Z ; CScanner::GetNumber

; 510  : 		prop.dwDamageActiveSkillLv 	= scanner.GetNumber();

  00c51	6a 00		 push	 0
  00c53	8d 8d 54 de ff
	ff		 lea	 ecx, DWORD PTR _scanner$[ebp]
  00c59	89 45 80	 mov	 DWORD PTR _prop$[ebp+708], eax
  00c5c	e8 00 00 00 00	 call	 ?GetNumber@CScanner@@QAEHH@Z ; CScanner::GetNumber

; 511  : 		prop.dwDamageActiveSkillProb	= scanner.GetNumber();

  00c61	6a 00		 push	 0
  00c63	8d 8d 54 de ff
	ff		 lea	 ecx, DWORD PTR _scanner$[ebp]
  00c69	89 45 84	 mov	 DWORD PTR _prop$[ebp+712], eax
  00c6c	e8 00 00 00 00	 call	 ?GetNumber@CScanner@@QAEHH@Z ; CScanner::GetNumber

; 512  : 		prop.dwDamageActiveSkillTarget	= scanner.GetNumber();

  00c71	6a 00		 push	 0
  00c73	8d 8d 54 de ff
	ff		 lea	 ecx, DWORD PTR _scanner$[ebp]
  00c79	89 45 88	 mov	 DWORD PTR _prop$[ebp+716], eax
  00c7c	e8 00 00 00 00	 call	 ?GetNumber@CScanner@@QAEHH@Z ; CScanner::GetNumber

; 513  : 		prop.dwEquipActiveSkillId 	= scanner.GetNumber();

  00c81	6a 00		 push	 0
  00c83	8d 8d 54 de ff
	ff		 lea	 ecx, DWORD PTR _scanner$[ebp]
  00c89	89 45 8c	 mov	 DWORD PTR _prop$[ebp+720], eax
  00c8c	e8 00 00 00 00	 call	 ?GetNumber@CScanner@@QAEHH@Z ; CScanner::GetNumber

; 514  : 		prop.dwEquipActiveSkillLv 	= scanner.GetNumber();

  00c91	6a 00		 push	 0
  00c93	8d 8d 54 de ff
	ff		 lea	 ecx, DWORD PTR _scanner$[ebp]
  00c99	89 45 90	 mov	 DWORD PTR _prop$[ebp+724], eax
  00c9c	e8 00 00 00 00	 call	 ?GetNumber@CScanner@@QAEHH@Z ; CScanner::GetNumber

; 515  : 		prop.dwSmelting 			= scanner.GetNumber();

  00ca1	6a 00		 push	 0
  00ca3	8d 8d 54 de ff
	ff		 lea	 ecx, DWORD PTR _scanner$[ebp]
  00ca9	89 45 94	 mov	 DWORD PTR _prop$[ebp+728], eax
  00cac	e8 00 00 00 00	 call	 ?GetNumber@CScanner@@QAEHH@Z ; CScanner::GetNumber

; 516  : 		prop.dwAttsmelting 			= scanner.GetNumber();

  00cb1	6a 00		 push	 0
  00cb3	8d 8d 54 de ff
	ff		 lea	 ecx, DWORD PTR _scanner$[ebp]
  00cb9	89 45 98	 mov	 DWORD PTR _prop$[ebp+732], eax
  00cbc	e8 00 00 00 00	 call	 ?GetNumber@CScanner@@QAEHH@Z ; CScanner::GetNumber

; 517  : 		prop.dwGemsmelting 			= scanner.GetNumber();

  00cc1	6a 00		 push	 0
  00cc3	8d 8d 54 de ff
	ff		 lea	 ecx, DWORD PTR _scanner$[ebp]
  00cc9	89 45 9c	 mov	 DWORD PTR _prop$[ebp+736], eax
  00ccc	e8 00 00 00 00	 call	 ?GetNumber@CScanner@@QAEHH@Z ; CScanner::GetNumber

; 518  : 		prop.dwPierce		 		= scanner.GetNumber();

  00cd1	6a 00		 push	 0
  00cd3	8d 8d 54 de ff
	ff		 lea	 ecx, DWORD PTR _scanner$[ebp]
  00cd9	89 45 a0	 mov	 DWORD PTR _prop$[ebp+740], eax
  00cdc	e8 00 00 00 00	 call	 ?GetNumber@CScanner@@QAEHH@Z ; CScanner::GetNumber

; 519  : 		prop.dwUprouse		 		= scanner.GetNumber();

  00ce1	6a 00		 push	 0
  00ce3	8d 8d 54 de ff
	ff		 lea	 ecx, DWORD PTR _scanner$[ebp]
  00ce9	89 45 a4	 mov	 DWORD PTR _prop$[ebp+744], eax
  00cec	e8 00 00 00 00	 call	 ?GetNumber@CScanner@@QAEHH@Z ; CScanner::GetNumber

; 520  : 		prop.bAbsoluteTime		 	= scanner.GetNumber();

  00cf1	6a 00		 push	 0
  00cf3	8d 8d 54 de ff
	ff		 lea	 ecx, DWORD PTR _scanner$[ebp]
  00cf9	89 45 a8	 mov	 DWORD PTR _prop$[ebp+748], eax
  00cfc	e8 00 00 00 00	 call	 ?GetNumber@CScanner@@QAEHH@Z ; CScanner::GetNumber

; 521  : #endif
; 522  : 
; 523  : #if __VER >= 18
; 524  : 		prop.dwItemGrade			= scanner.GetNumber();

  00d01	6a 00		 push	 0
  00d03	8d 8d 54 de ff
	ff		 lea	 ecx, DWORD PTR _scanner$[ebp]
  00d09	89 45 ac	 mov	 DWORD PTR _prop$[ebp+752], eax
  00d0c	e8 00 00 00 00	 call	 ?GetNumber@CScanner@@QAEHH@Z ; CScanner::GetNumber

; 525  : 		prop.bCanTrade				= scanner.GetNumber();

  00d11	6a 00		 push	 0
  00d13	8d 8d 54 de ff
	ff		 lea	 ecx, DWORD PTR _scanner$[ebp]
  00d19	89 45 b4	 mov	 DWORD PTR _prop$[ebp+760], eax
  00d1c	e8 00 00 00 00	 call	 ?GetNumber@CScanner@@QAEHH@Z ; CScanner::GetNumber

; 526  : 		prop.dwMainCategory			= scanner.GetNumber();

  00d21	6a 00		 push	 0
  00d23	8d 8d 54 de ff
	ff		 lea	 ecx, DWORD PTR _scanner$[ebp]
  00d29	89 45 b8	 mov	 DWORD PTR _prop$[ebp+764], eax
  00d2c	e8 00 00 00 00	 call	 ?GetNumber@CScanner@@QAEHH@Z ; CScanner::GetNumber

; 527  : 		prop.dwSubCategory			= scanner.GetNumber();

  00d31	6a 00		 push	 0
  00d33	8d 8d 54 de ff
	ff		 lea	 ecx, DWORD PTR _scanner$[ebp]
  00d39	89 45 bc	 mov	 DWORD PTR _prop$[ebp+768], eax
  00d3c	e8 00 00 00 00	 call	 ?GetNumber@CScanner@@QAEHH@Z ; CScanner::GetNumber

; 528  : 		prop.bCanHaveServerTransform = scanner.GetNumber();

  00d41	6a 00		 push	 0
  00d43	8d 8d 54 de ff
	ff		 lea	 ecx, DWORD PTR _scanner$[ebp]
  00d49	89 45 c0	 mov	 DWORD PTR _prop$[ebp+772], eax
  00d4c	e8 00 00 00 00	 call	 ?GetNumber@CScanner@@QAEHH@Z ; CScanner::GetNumber

; 529  : 		prop.bCanSavePotion	 		= scanner.GetNumber();

  00d51	6a 00		 push	 0
  00d53	8d 8d 54 de ff
	ff		 lea	 ecx, DWORD PTR _scanner$[ebp]
  00d59	89 45 c4	 mov	 DWORD PTR _prop$[ebp+776], eax
  00d5c	e8 00 00 00 00	 call	 ?GetNumber@CScanner@@QAEHH@Z ; CScanner::GetNumber
  00d61	89 45 c8	 mov	 DWORD PTR _prop$[ebp+780], eax

; 530  : #endif
; 531  : 
; 532  : 	#ifdef __WORLDSERVER
; 533  : 		#ifdef __INTERNALSERVER
; 534  : 			prop.nLog = -1;		// °łąßĽ·żˇĽ± ŔĚ°Ĺ ą«˝Ă.
; 535  : 		#endif
; 536  : 		if( g_eLocal.GetState( EVE_SCHOOL ) )
; 537  : 		{
; 538  : 			prop.dwShopAble	= 1;
; 539  : 			if( prop.dwItemRare == (DWORD)-1 )
; 540  : 				prop.dwItemRare		= prop.dwItemLV;
; 541  : 		}
; 542  : 	#endif	// __WORLDSERVER
; 543  : 
; 544  : 		if( ::GetLanguage() == LANG_THA )

  00d64	e8 00 00 00 00	 call	 ?GetLanguage@@YAHXZ	; GetLanguage
  00d69	83 f8 04	 cmp	 eax, 4
  00d6c	75 73		 jne	 SHORT $LN15@LoadPropIt

; 545  : 		{
; 546  : 			if( prop.dwLimitLevel1 > 0 && prop.dwLimitLevel1 <= 5 )

  00d6e	8b 85 ec fe ff
	ff		 mov	 eax, DWORD PTR _prop$[ebp+560]
  00d74	85 c0		 test	 eax, eax
  00d76	74 11		 je	 SHORT $LN7@LoadPropIt
  00d78	83 f8 05	 cmp	 eax, 5
  00d7b	77 11		 ja	 SHORT $LN260@LoadPropIt

; 547  : 				prop.dwLimitLevel1	= 1;

  00d7d	c7 85 ec fe ff
	ff 01 00 00 00	 mov	 DWORD PTR _prop$[ebp+560], 1
  00d87	eb 58		 jmp	 SHORT $LN15@LoadPropIt
$LN7@LoadPropIt:

; 548  : 			else if( prop.dwLimitLevel1 > 5 && prop.dwLimitLevel1 <= 15 )

  00d89	83 f8 05	 cmp	 eax, 5
  00d8c	76 11		 jbe	 SHORT $LN9@LoadPropIt
$LN260@LoadPropIt:
  00d8e	83 f8 0f	 cmp	 eax, 15			; 0000000fH
  00d91	77 11		 ja	 SHORT $LN259@LoadPropIt

; 549  : 				prop.dwLimitLevel1	= 5;

  00d93	c7 85 ec fe ff
	ff 05 00 00 00	 mov	 DWORD PTR _prop$[ebp+560], 5
  00d9d	eb 42		 jmp	 SHORT $LN15@LoadPropIt
$LN9@LoadPropIt:

; 550  : 			else if( prop.dwLimitLevel1 > 15 && prop.dwLimitLevel1 <= 30 )

  00d9f	83 f8 0f	 cmp	 eax, 15			; 0000000fH
  00da2	76 11		 jbe	 SHORT $LN11@LoadPropIt
$LN259@LoadPropIt:
  00da4	83 f8 1e	 cmp	 eax, 30			; 0000001eH
  00da7	77 11		 ja	 SHORT $LN258@LoadPropIt

; 551  : 				prop.dwLimitLevel1	= 15;

  00da9	c7 85 ec fe ff
	ff 0f 00 00 00	 mov	 DWORD PTR _prop$[ebp+560], 15 ; 0000000fH
  00db3	eb 2c		 jmp	 SHORT $LN15@LoadPropIt
$LN11@LoadPropIt:

; 552  : 			else if( prop.dwLimitLevel1 > 30 && prop.dwLimitLevel1 <= 45 )

  00db5	83 f8 1e	 cmp	 eax, 30			; 0000001eH
  00db8	76 11		 jbe	 SHORT $LN13@LoadPropIt
$LN258@LoadPropIt:
  00dba	83 f8 2d	 cmp	 eax, 45			; 0000002dH
  00dbd	77 11		 ja	 SHORT $LN257@LoadPropIt

; 553  : 				prop.dwLimitLevel1	= 30;

  00dbf	c7 85 ec fe ff
	ff 1e 00 00 00	 mov	 DWORD PTR _prop$[ebp+560], 30 ; 0000001eH
  00dc9	eb 16		 jmp	 SHORT $LN15@LoadPropIt
$LN13@LoadPropIt:

; 554  : 			else if( prop.dwLimitLevel1 > 45 && prop.dwLimitLevel1 < 60 )

  00dcb	83 f8 2d	 cmp	 eax, 45			; 0000002dH
  00dce	76 11		 jbe	 SHORT $LN15@LoadPropIt
$LN257@LoadPropIt:
  00dd0	83 f8 3c	 cmp	 eax, 60			; 0000003cH
  00dd3	b9 2d 00 00 00	 mov	 ecx, 45			; 0000002dH
  00dd8	0f 42 c1	 cmovb	 eax, ecx
  00ddb	89 85 ec fe ff
	ff		 mov	 DWORD PTR _prop$[ebp+560], eax
$LN15@LoadPropIt:

; 555  : 				prop.dwLimitLevel1	= 45;
; 556  : 		}
; 557  : // temp crossbow fix
; 558  : 		if( prop.dwID == II_WEA_BOW_BEHECROSSBOW ) 

  00de1	81 bd bc fc ff
	ff 8f 4f 00 00	 cmp	 DWORD PTR _prop$[ebp], 20367 ; 00004f8fH
  00deb	b9 0e 00 00 00	 mov	 ecx, 14			; 0000000eH
  00df0	8b 85 34 fd ff
	ff		 mov	 eax, DWORD PTR _prop$[ebp+120]
  00df6	0f 44 c1	 cmove	 eax, ecx
  00df9	89 85 34 fd ff
	ff		 mov	 DWORD PTR _prop$[ebp+120], eax

; 559  : 			prop.dwItemKind3 = IK3_CROSSBOW;
; 560  : // end fix	
; 561  : 		if( nVer <= __VER )

  00dff	83 fb 12	 cmp	 ebx, 18			; 00000012H
  00e02	0f 8f 4b 01 00
	00		 jg	 $LN263@LoadPropIt
; File C:\Program Files\Microsoft Visual Studio\2022\Professional\VC\Tools\MSVC\14.44.35207\include\utility

; 274  :         : first(_STD forward<_Other1>(_Val1)), second(_STD forward<_Other2>(_Val2)) {

  00e08	8d 85 c0 fc ff
	ff		 lea	 eax, DWORD PTR _prop$[ebp+4]
  00e0e	50		 push	 eax
  00e0f	8d 4d d4	 lea	 ecx, DWORD PTR $T5[ebp]
  00e12	e8 00 00 00 00	 call	 ??0?$basic_string@DU?$char_traits@D@std@@V?$allocator@D@2@@std@@QAE@QBD@Z ; std::basic_string<char,std::char_traits<char>,std::allocator<char> >::basic_string<char,std::char_traits<char>,std::allocator<char> >
  00e17	8b 85 bc fc ff
	ff		 mov	 eax, DWORD PTR _prop$[ebp]
  00e1d	89 45 ec	 mov	 DWORD PTR $T5[ebp+24], eax
; File C:\IAGOS\server\v18\Source\Source\_Common\ProjectCmn.cpp

; 564  : 			m_mapII.insert( map<string, DWORD>::value_type( prop.szName, prop.dwID ) );

  00e20	8b b5 40 de ff
	ff		 mov	 esi, DWORD PTR _this$GSCopy$1$[ebp]
; File C:\Program Files\Microsoft Visual Studio\2022\Professional\VC\Tools\MSVC\14.44.35207\include\xtree

; 1630 :         _Tree_find_result<_Nodeptr> _Result{{_Scary->_Myhead->_Parent, _Tree_child::_Right}, _Scary->_Myhead};

  00e26	33 db		 xor	 ebx, ebx
; File C:\IAGOS\server\v18\Source\Source\_Common\ProjectCmn.cpp

; 564  : 			m_mapII.insert( map<string, DWORD>::value_type( prop.szName, prop.dwID ) );

  00e28	83 c6 08	 add	 esi, 8
  00e2b	c6 45 fc 01	 mov	 BYTE PTR __$EHRec$[ebp+8], 1
  00e2f	89 b5 50 de ff
	ff		 mov	 DWORD PTR _this$1$[ebp], esi
; File C:\Program Files\Microsoft Visual Studio\2022\Professional\VC\Tools\MSVC\14.44.35207\include\xtree

; 1630 :         _Tree_find_result<_Nodeptr> _Result{{_Scary->_Myhead->_Parent, _Tree_child::_Right}, _Scary->_Myhead};

  00e35	8b 06		 mov	 eax, DWORD PTR [esi]
  00e37	89 85 3c de ff
	ff		 mov	 DWORD PTR __Myhead$1$[ebp], eax
  00e3d	89 85 4c de ff
	ff		 mov	 DWORD PTR $T1$sroa$2058$1$[ebp], eax
  00e43	8b 78 04	 mov	 edi, DWORD PTR [eax+4]
  00e46	89 bd 48 de ff
	ff		 mov	 DWORD PTR __Loc$1$[ebp], edi

; 1631 :         _Nodeptr _Trynode = _Result._Location._Parent;
; 1632 :         while (!_Trynode->_Isnil) {

  00e4c	38 5f 0d	 cmp	 BYTE PTR [edi+13], bl
  00e4f	75 44		 jne	 SHORT $LN79@LoadPropIt
  00e51	8b f7		 mov	 esi, edi
$LL78@LoadPropIt:
; File C:\Program Files\Microsoft Visual Studio\2022\Professional\VC\Tools\MSVC\14.44.35207\include\type_traits

; 2380 :         return _Left < _Right;

  00e53	8d 45 d4	 lea	 eax, DWORD PTR $T5[ebp]
; File C:\Program Files\Microsoft Visual Studio\2022\Professional\VC\Tools\MSVC\14.44.35207\include\xtree

; 1633 :             _Result._Location._Parent = _Trynode;

  00e56	89 b5 48 de ff
	ff		 mov	 DWORD PTR __Loc$1$[ebp], esi
; File C:\Program Files\Microsoft Visual Studio\2022\Professional\VC\Tools\MSVC\14.44.35207\include\type_traits

; 2380 :         return _Left < _Right;

  00e5c	50		 push	 eax
; File C:\Program Files\Microsoft Visual Studio\2022\Professional\VC\Tools\MSVC\14.44.35207\include\xtree

; 1634 :             if (_DEBUG_LT_PRED(_Getcomp(), _Traits::_Kfn(_Trynode->_Myval), _Keyval)) {

  00e5d	8d 46 10	 lea	 eax, DWORD PTR [esi+16]
; File C:\Program Files\Microsoft Visual Studio\2022\Professional\VC\Tools\MSVC\14.44.35207\include\type_traits

; 2380 :         return _Left < _Right;

  00e60	50		 push	 eax
  00e61	e8 00 00 00 00	 call	 ??$?MDU?$char_traits@D@std@@V?$allocator@D@1@@std@@YA_NABV?$basic_string@DU?$char_traits@D@std@@V?$allocator@D@2@@0@0@Z ; std::operator<<char,std::char_traits<char>,std::allocator<char> >
  00e66	83 c4 08	 add	 esp, 8
; File C:\Program Files\Microsoft Visual Studio\2022\Professional\VC\Tools\MSVC\14.44.35207\include\xtree

; 1634 :             if (_DEBUG_LT_PRED(_Getcomp(), _Traits::_Kfn(_Trynode->_Myval), _Keyval)) {

  00e69	84 c0		 test	 al, al
  00e6b	74 0d		 je	 SHORT $LN80@LoadPropIt

; 1635 :                 _Result._Location._Child = _Tree_child::_Right;
; 1636 :                 _Trynode                 = _Trynode->_Right;

  00e6d	8b 76 08	 mov	 esi, DWORD PTR [esi+8]
  00e70	33 db		 xor	 ebx, ebx

; 1637 :             } else {

  00e72	8b 85 4c de ff
	ff		 mov	 eax, DWORD PTR $T1$sroa$2058$1$[ebp]
  00e78	eb 0f		 jmp	 SHORT $LN81@LoadPropIt
$LN80@LoadPropIt:

; 1638 :                 _Result._Location._Child = _Tree_child::_Left;
; 1639 :                 _Result._Bound           = _Trynode;

  00e7a	8b c6		 mov	 eax, esi
  00e7c	bb 01 00 00 00	 mov	 ebx, 1

; 1640 :                 _Trynode                 = _Trynode->_Left;

  00e81	8b 36		 mov	 esi, DWORD PTR [esi]
  00e83	89 85 4c de ff
	ff		 mov	 DWORD PTR $T1$sroa$2058$1$[ebp], eax
$LN81@LoadPropIt:

; 1631 :         _Nodeptr _Trynode = _Result._Location._Parent;
; 1632 :         while (!_Trynode->_Isnil) {

  00e89	80 7e 0d 00	 cmp	 BYTE PTR [esi+13], 0
  00e8d	74 c4		 je	 SHORT $LL78@LoadPropIt
  00e8f	8b b5 50 de ff
	ff		 mov	 esi, DWORD PTR _this$1$[ebp]
$LN79@LoadPropIt:

; 1624 :         return !_Bound->_Isnil && !_DEBUG_LT_PRED(_Getcomp(), _Keyval, _Traits::_Kfn(_Bound->_Myval));

  00e95	80 78 0d 00	 cmp	 BYTE PTR [eax+13], 0
  00e99	75 14		 jne	 SHORT $LN88@LoadPropIt
  00e9b	83 c0 10	 add	 eax, 16			; 00000010H
; File C:\Program Files\Microsoft Visual Studio\2022\Professional\VC\Tools\MSVC\14.44.35207\include\type_traits

; 2380 :         return _Left < _Right;

  00e9e	50		 push	 eax
  00e9f	8d 45 d4	 lea	 eax, DWORD PTR $T5[ebp]
  00ea2	50		 push	 eax
  00ea3	e8 00 00 00 00	 call	 ??$?MDU?$char_traits@D@std@@V?$allocator@D@1@@std@@YA_NABV?$basic_string@DU?$char_traits@D@std@@V?$allocator@D@2@@0@0@Z ; std::operator<<char,std::char_traits<char>,std::allocator<char> >
  00ea8	83 c4 08	 add	 esp, 8
; File C:\Program Files\Microsoft Visual Studio\2022\Professional\VC\Tools\MSVC\14.44.35207\include\xtree

; 1624 :         return !_Bound->_Isnil && !_DEBUG_LT_PRED(_Getcomp(), _Keyval, _Traits::_Kfn(_Bound->_Myval));

  00eab	84 c0		 test	 al, al
  00ead	74 7a		 je	 SHORT $LN213@LoadPropIt
$LN88@LoadPropIt:

; 1648 :         if (max_size() == _Get_scary()->_Mysize) {

  00eaf	81 7e 04 5d 74
	d1 05		 cmp	 DWORD PTR [esi+4], 97612893 ; 05d1745dH
  00eb6	0f 84 1f 01 00
	00		 je	 $LN241@LoadPropIt
; File C:\Program Files\Microsoft Visual Studio\2022\Professional\VC\Tools\MSVC\14.44.35207\include\xmemory

; 1160 :     _CONSTEXPR20 explicit _Alloc_construct_ptr(_Alloc& _Al_) : _Al(_Al_), _Ptr(nullptr) {}

  00ebc	89 b5 30 de ff
	ff		 mov	 DWORD PTR $T4[ebp], esi

; 136  :         return ::operator new(_Bytes);

  00ec2	6a 2c		 push	 44			; 0000002cH
; File C:\Program Files\Microsoft Visual Studio\2022\Professional\VC\Tools\MSVC\14.44.35207\include\xtree

; 808  :     explicit _Tree_temp_node_alloc(_Alnode& _Al_) : _Alloc_construct_ptr<_Alnode>(_Al_) {

  00ec4	c6 45 fc 02	 mov	 BYTE PTR __$EHRec$[ebp+8], 2
; File C:\Program Files\Microsoft Visual Studio\2022\Professional\VC\Tools\MSVC\14.44.35207\include\xmemory

; 1167 :         _Ptr = nullptr; // if allocate throws, prevents double-free

  00ec8	c7 85 34 de ff
	ff 00 00 00 00	 mov	 DWORD PTR $T4[ebp+4], 0

; 136  :         return ::operator new(_Bytes);

  00ed2	e8 00 00 00 00	 call	 ??2@YAPAXI@Z		; operator new

; 256  :         return _Traits::_Allocate(_Bytes);

  00ed7	8b f8		 mov	 edi, eax

; 136  :         return ::operator new(_Bytes);

  00ed9	83 c4 04	 add	 esp, 4

; 1168 :         _Ptr = _Al.allocate(1);

  00edc	89 bd 34 de ff
	ff		 mov	 DWORD PTR $T4[ebp+4], edi
; File C:\Program Files\Microsoft Visual Studio\2022\Professional\VC\Tools\MSVC\14.44.35207\include\utility

; 278  :     pair(pair&&)      = default;

  00ee2	8d 45 d4	 lea	 eax, DWORD PTR $T5[ebp]
; File C:\Program Files\Microsoft Visual Studio\2022\Professional\VC\Tools\MSVC\14.44.35207\include\xtree

; 829  :         : _Tree_temp_node_alloc<_Alnode>(_Al_) {

  00ee5	c6 45 fc 03	 mov	 BYTE PTR __$EHRec$[ebp+8], 3
; File C:\Program Files\Microsoft Visual Studio\2022\Professional\VC\Tools\MSVC\14.44.35207\include\utility

; 278  :     pair(pair&&)      = default;

  00ee9	50		 push	 eax
  00eea	8d 4f 10	 lea	 ecx, DWORD PTR [edi+16]
  00eed	e8 00 00 00 00	 call	 ??0?$basic_string@DU?$char_traits@D@std@@V?$allocator@D@2@@std@@QAE@ABV01@@Z ; std::basic_string<char,std::char_traits<char>,std::allocator<char> >::basic_string<char,std::char_traits<char>,std::allocator<char> >
; File C:\Program Files\Microsoft Visual Studio\2022\Professional\VC\Tools\MSVC\14.44.35207\include\xtree

; 831  :         _Construct_in_place(this->_Ptr->_Left, _Myhead);

  00ef2	8b 85 3c de ff
	ff		 mov	 eax, DWORD PTR __Myhead$1$[ebp]
; File C:\Program Files\Microsoft Visual Studio\2022\Professional\VC\Tools\MSVC\14.44.35207\include\utility

; 278  :     pair(pair&&)      = default;

  00ef8	8b 4d ec	 mov	 ecx, DWORD PTR $T5[ebp+24]
  00efb	89 4f 28	 mov	 DWORD PTR [edi+40], ecx
; File C:\Program Files\Microsoft Visual Studio\2022\Professional\VC\Tools\MSVC\14.44.35207\include\xtree

; 1042 :         return {_Scary->_Insert_node(_Loc._Location, _Inserted), true};

  00efe	8b 8d 50 de ff
	ff		 mov	 ecx, DWORD PTR _this$1$[ebp]
  00f04	57		 push	 edi

; 831  :         _Construct_in_place(this->_Ptr->_Left, _Myhead);

  00f05	89 07		 mov	 DWORD PTR [edi], eax

; 1042 :         return {_Scary->_Insert_node(_Loc._Location, _Inserted), true};

  00f07	53		 push	 ebx
  00f08	ff b5 48 de ff
	ff		 push	 DWORD PTR __Loc$1$[ebp]

; 832  :         _Construct_in_place(this->_Ptr->_Parent, _Myhead);

  00f0e	89 47 04	 mov	 DWORD PTR [edi+4], eax

; 833  :         _Construct_in_place(this->_Ptr->_Right, _Myhead);

  00f11	89 47 08	 mov	 DWORD PTR [edi+8], eax

; 834  :         this->_Ptr->_Color = _Red;

  00f14	66 c7 47 0c 00
	00		 mov	 WORD PTR [edi+12], 0
; File C:\Program Files\Microsoft Visual Studio\2022\Professional\VC\Tools\MSVC\14.44.35207\include\utility

; 774  :     _Val         = static_cast<_Other&&>(_New_val);

  00f1a	c7 85 34 de ff
	ff 00 00 00 00	 mov	 DWORD PTR $T4[ebp+4], 0
; File C:\Program Files\Microsoft Visual Studio\2022\Professional\VC\Tools\MSVC\14.44.35207\include\xtree

; 1042 :         return {_Scary->_Insert_node(_Loc._Location, _Inserted), true};

  00f24	e8 00 00 00 00	 call	 ?_Insert_node@?$_Tree_val@U?$_Tree_simple_types@U?$pair@$$CBV?$basic_string@DU?$char_traits@D@std@@V?$allocator@D@2@@std@@K@std@@@std@@@std@@QAEPAU?$_Tree_node@U?$pair@$$CBV?$basic_string@DU?$char_traits@D@std@@V?$allocator@D@2@@std@@K@std@@PAX@2@U?$_Tree_id@PAU?$_Tree_node@U?$pair@$$CBV?$basic_string@DU?$char_traits@D@std@@V?$allocator@D@2@@std@@K@std@@PAX@std@@@2@QAU32@@Z ; std::_Tree_val<std::_Tree_simple_types<std::pair<std::basic_string<char,std::char_traits<char>,std::allocator<char> > const ,unsigned long> > >::_Insert_node
$LN213@LoadPropIt:
  00f29	8d 4d d4	 lea	 ecx, DWORD PTR $T5[ebp]
; File C:\IAGOS\server\v18\Source\Source\_Common\ProjectCmn.cpp

; 564  : 			m_mapII.insert( map<string, DWORD>::value_type( prop.szName, prop.dwID ) );

  00f2c	c6 45 fc 00	 mov	 BYTE PTR __$EHRec$[ebp+8], 0
  00f30	e8 00 00 00 00	 call	 ??1?$basic_string@DU?$char_traits@D@std@@V?$allocator@D@2@@std@@QAE@XZ ; std::basic_string<char,std::char_traits<char>,std::allocator<char> >::~basic_string<char,std::char_traits<char>,std::allocator<char> >

; 565  : #if __VER >= 9	// __ULTIMATE
; 566  : #ifdef __CLIENT
; 567  : 			if( prop.IsUltimate() )
; 568  : 			{
; 569  : 				CString strName	= prop.szName;
; 570  : 				int	nFind	= strName.Find( "@", 0 );
; 571  : 				if( nFind > -1 )
; 572  : 				{
; 573  : 					strName.Delete( nFind - 1, 2 );
; 574  : 					lstrcpy( prop.szName, (LPCTSTR)strName );
; 575  : 				}
; 576  : 			}
; 577  : #endif	// __CLIENT
; 578  : #endif	// __ULTIMATE
; 579  : 			apObjProp->SetAtGrow( prop.dwID, &prop);

  00f35	8b b5 44 de ff
	ff		 mov	 esi, DWORD PTR _apObjProp$GSCopy$1$[ebp]
  00f3b	8d 85 bc fc ff
	ff		 lea	 eax, DWORD PTR _prop$[ebp]
  00f41	6a 00		 push	 0
  00f43	50		 push	 eax
  00f44	ff b5 bc fc ff
	ff		 push	 DWORD PTR _prop$[ebp]
  00f4a	8b ce		 mov	 ecx, esi
  00f4c	e8 00 00 00 00	 call	 ?SetAtGrow@?$CFixedArray@UItemProp@@@@QAEXHPAUItemProp@@H@Z ; CFixedArray<ItemProp>::SetAtGrow
  00f51	eb 06		 jmp	 SHORT $LN17@LoadPropIt
$LN263@LoadPropIt:

; 559  : 			prop.dwItemKind3 = IK3_CROSSBOW;
; 560  : // end fix	
; 561  : 		if( nVer <= __VER )

  00f53	8b b5 44 de ff
	ff		 mov	 esi, DWORD PTR _apObjProp$GSCopy$1$[ebp]
$LN17@LoadPropIt:

; 580  : #ifdef __NEW_STACKABLE_AMPS
; 581  : 			if( prop.IsExperienceScroll())
; 582  : 			{
; 583  : 				if( prop.nMaxDuplication > 1 )
; 584  : 				{
; 585  : 					int nOrginalID = prop.dwID;
; 586  : 					int nCopy[4];
; 587  : 					nCopy[0], nCopy[1], nCopy[2], nCopy[3] = 0;
; 588  : 					prop.dwID = nAmpCopyID;
; 589  : 
; 590  : 					for( int i = 0; i < (prop.nMaxDuplication-1); i++ )
; 591  : 					{
; 592  : 						nCopy[i] = prop.dwID;
; 593  : 						m_mapII.insert( map<string, DWORD>::value_type( prop.szName, prop.dwID ) );
; 594  : 						apObjProp->SetAtGrow( prop.dwID, &prop );
; 595  : 
; 596  : 						prop.dwID++;
; 597  : 						nAmpCopyID++;
; 598  : 					}
; 599  : 					AMP_STORE_INFO* pAmpInfo = new AMP_STORE_INFO;
; 600  : 					prj.m_mapAmpStore.insert( make_pair( nOrginalID, pAmpInfo ));
; 601  : 					pAmpInfo->dwIDSecond	= nCopy[0];
; 602  : 					pAmpInfo->dwIDThird		= nCopy[1];
; 603  : 					pAmpInfo->dwIDFourth	= nCopy[2];
; 604  : 					pAmpInfo->dwIDFifth		= nCopy[3];
; 605  : 				}
; 606  : 			}
; 607  : #endif // __NEW_STACKABLE_AMPS
; 608  : 		}
; 609  : 
; 610  : 		nVer = scanner.GetNumber();	// version; 

  00f59	6a 00		 push	 0
  00f5b	8d 8d 54 de ff
	ff		 lea	 ecx, DWORD PTR _scanner$[ebp]
  00f61	e8 00 00 00 00	 call	 ?GetNumber@CScanner@@QAEHH@Z ; CScanner::GetNumber
  00f66	83 bd 98 e6 ff
	ff 15		 cmp	 DWORD PTR _scanner$[ebp+2116], 21 ; 00000015H
  00f6d	8b d8		 mov	 ebx, eax
  00f6f	0f 85 3b f1 ff
	ff		 jne	 $LL2@LoadPropIt
$LN3@LoadPropIt:

; 611  : 	}
; 612  : 	apObjProp->Optimize();

  00f75	8b ce		 mov	 ecx, esi
  00f77	e8 00 00 00 00	 call	 ?Optimize@?$CFixedArray@UItemProp@@@@QAEXXZ ; CFixedArray<ItemProp>::Optimize

; 613  : 	return TRUE;

  00f7c	be 01 00 00 00	 mov	 esi, 1
  00f81	eb 23		 jmp	 SHORT $LN24@LoadPropIt
$LN238@LoadPropIt:

; 323  : 		{
; 324  : 			Error( "%s ID:%d last_read(ID:%d name:%s)", lpszFileName, dwID, prop.dwID, prop.szName);

  00f83	8d 8d c0 fc ff
	ff		 lea	 ecx, DWORD PTR _prop$[ebp+4]
  00f89	51		 push	 ecx
  00f8a	ff b5 bc fc ff
	ff		 push	 DWORD PTR _prop$[ebp]
  00f90	50		 push	 eax
  00f91	ff b5 38 de ff
	ff		 push	 DWORD PTR _lpszFileName$GSCopy$1$[ebp]
  00f97	68 00 00 00 00	 push	 OFFSET ??_C@_0CC@LPPNKII@?$CFs?5ID?3?$CFd?5last_read?$CIID?3?$CFd?5name?3?$CF@
  00f9c	e8 00 00 00 00	 call	 ?Error@@YAPBDPBDZZ	; Error
  00fa1	83 c4 14	 add	 esp, 20			; 00000014H
$LN23@LoadPropIt:
  00fa4	33 f6		 xor	 esi, esi
$LN24@LoadPropIt:

; 613  : 	return TRUE;

  00fa6	8d 8d 54 de ff
	ff		 lea	 ecx, DWORD PTR _scanner$[ebp]
  00fac	e8 00 00 00 00	 call	 ??1CScript@@UAE@XZ	; CScript::~CScript
  00fb1	8b c6		 mov	 eax, esi

; 614  : }

  00fb3	8b 4d f4	 mov	 ecx, DWORD PTR __$EHRec$[ebp]
  00fb6	64 89 0d 00 00
	00 00		 mov	 DWORD PTR fs:0, ecx
  00fbd	59		 pop	 ecx
  00fbe	5f		 pop	 edi
  00fbf	5e		 pop	 esi
  00fc0	5b		 pop	 ebx
  00fc1	8b 4d f0	 mov	 ecx, DWORD PTR __$ArrayPad$[ebp]
  00fc4	33 cd		 xor	 ecx, ebp
  00fc6	e8 00 00 00 00	 call	 @__security_check_cookie@4
  00fcb	8b e5		 mov	 esp, ebp
  00fcd	5d		 pop	 ebp
  00fce	c2 08 00	 ret	 8
$LN239@LoadPropIt:
; File C:\Program Files\Microsoft Visual Studio\2022\Professional\VC\Tools\MSVC\14.44.35207\atlmfc\include\atlsimpstr.h

; 809  : 			AtlThrow(E_INVALIDARG);

  00fd1	68 57 00 07 80	 push	 -2147024809		; 80070057H
  00fd6	e8 00 00 00 00	 call	 ?AtlThrowImpl@ATL@@YGXJ@Z ; ATL::AtlThrowImpl
$LN241@LoadPropIt:
; File C:\Program Files\Microsoft Visual Studio\2022\Professional\VC\Tools\MSVC\14.44.35207\include\xtree

; 1649 :             _Throw_tree_length_error();

  00fdb	e8 00 00 00 00	 call	 ?_Throw_tree_length_error@std@@YAXXZ ; std::_Throw_tree_length_error
$LN265@LoadPropIt:
  00fe0	cc		 int	 3
_TEXT	ENDS
;	COMDAT text$x
text$x	SEGMENT
__unwindfunclet$?LoadPropItem@CProject@@QAEHPBDPAV?$CFixedArray@UItemProp@@@@@Z$0:
  00000	8d 8d 54 de ff
	ff		 lea	 ecx, DWORD PTR _scanner$[ebp]
  00006	e9 00 00 00 00	 jmp	 ??1CScript@@UAE@XZ	; CScript::~CScript
__unwindfunclet$?LoadPropItem@CProject@@QAEHPBDPAV?$CFixedArray@UItemProp@@@@@Z$1:
  0000b	8d 4d d4	 lea	 ecx, DWORD PTR $T5[ebp]
  0000e	e9 00 00 00 00	 jmp	 ??1?$pair@$$CBV?$basic_string@DU?$char_traits@D@std@@V?$allocator@D@2@@std@@K@std@@QAE@XZ
__unwindfunclet$?LoadPropItem@CProject@@QAEHPBDPAV?$CFixedArray@UItemProp@@@@@Z$5:
  00013	8d 8d 30 de ff
	ff		 lea	 ecx, DWORD PTR $T4[ebp]
  00019	e9 00 00 00 00	 jmp	 ??1?$_Alloc_construct_ptr@V?$allocator@U?$_Tree_node@U?$pair@$$CBV?$basic_string@DU?$char_traits@D@std@@V?$allocator@D@2@@std@@K@std@@PAX@std@@@std@@@std@@QAE@XZ ; std::_Alloc_construct_ptr<std::allocator<std::_Tree_node<std::pair<std::basic_string<char,std::char_traits<char>,std::allocator<char> > const ,unsigned long>,void *> > >::~_Alloc_construct_ptr<std::allocator<std::_Tree_node<std::pair<std::basic_string<char,std::char_traits<char>,std::allocator<char> > const ,unsigned long>,void *> > >
__unwindfunclet$?LoadPropItem@CProject@@QAEHPBDPAV?$CFixedArray@UItemProp@@@@@Z$4:
  0001e	8d 8d 30 de ff
	ff		 lea	 ecx, DWORD PTR $T4[ebp]
  00024	e9 00 00 00 00	 jmp	 ??1?$_Tree_temp_node_alloc@V?$allocator@U?$_Tree_node@U?$pair@$$CBV?$basic_string@DU?$char_traits@D@std@@V?$allocator@D@2@@std@@K@std@@PAX@std@@@std@@@std@@QAE@XZ
  00029	cc		 int	 3
  0002a	cc		 int	 3
  0002b	cc		 int	 3
  0002c	cc		 int	 3
  0002d	cc		 int	 3
__ehhandler$?LoadPropItem@CProject@@QAEHPBDPAV?$CFixedArray@UItemProp@@@@@Z:
  0002e	90		 npad	 1
  0002f	90		 npad	 1
  00030	8b 54 24 08	 mov	 edx, DWORD PTR [esp+8]
  00034	8d 42 0c	 lea	 eax, DWORD PTR [edx+12]
  00037	8b 8a 2c de ff
	ff		 mov	 ecx, DWORD PTR [edx-8660]
  0003d	33 c8		 xor	 ecx, eax
  0003f	e8 00 00 00 00	 call	 @__security_check_cookie@4
  00044	8b 4a fc	 mov	 ecx, DWORD PTR [edx-4]
  00047	33 c8		 xor	 ecx, eax
  00049	e8 00 00 00 00	 call	 @__security_check_cookie@4
  0004e	b8 00 00 00 00	 mov	 eax, OFFSET __ehfuncinfo$?LoadPropItem@CProject@@QAEHPBDPAV?$CFixedArray@UItemProp@@@@@Z
  00053	e9 00 00 00 00	 jmp	 ___CxxFrameHandler3
text$x	ENDS
?LoadPropItem@CProject@@QAEHPBDPAV?$CFixedArray@UItemProp@@@@@Z ENDP ; CProject::LoadPropItem
; Function compile flags: /Ogtp
; File C:\IAGOS\server\v18\Source\Source\_Common\ProjectCmn.cpp
; File C:\Program Files\Microsoft Visual Studio\2022\Professional\VC\Tools\MSVC\14.44.35207\include\xmemory
; File C:\Program Files\Microsoft Visual Studio\2022\Professional\VC\Tools\MSVC\14.44.35207\include\xtree
; File C:\Program Files\Microsoft Visual Studio\2022\Professional\VC\Tools\MSVC\14.44.35207\include\xmemory
; File C:\Program Files\Microsoft Visual Studio\2022\Professional\VC\Tools\MSVC\14.44.35207\include\xtree
; File C:\IAGOS\server\v18\Source\Source\_Common\ProjectCmn.cpp
; File C:\Program Files\Microsoft Visual Studio\2022\Professional\VC\Tools\MSVC\14.44.35207\include\xtree
; File C:\Program Files\Microsoft Visual Studio\2022\Professional\VC\Tools\MSVC\14.44.35207\include\type_traits
; File C:\Program Files\Microsoft Visual Studio\2022\Professional\VC\Tools\MSVC\14.44.35207\include\xtree
; File C:\Program Files\Microsoft Visual Studio\2022\Professional\VC\Tools\MSVC\14.44.35207\include\type_traits
; File C:\Program Files\Microsoft Visual Studio\2022\Professional\VC\Tools\MSVC\14.44.35207\include\xtree
; File C:\Program Files\Microsoft Visual Studio\2022\Professional\VC\Tools\MSVC\14.44.35207\include\xmemory
; File C:\Program Files\Microsoft Visual Studio\2022\Professional\VC\Tools\MSVC\14.44.35207\include\xtree
; File C:\Program Files\Microsoft Visual Studio\2022\Professional\VC\Tools\MSVC\14.44.35207\include\xmemory
; File C:\Program Files\Microsoft Visual Studio\2022\Professional\VC\Tools\MSVC\14.44.35207\include\xtree
; File C:\Program Files\Microsoft Visual Studio\2022\Professional\VC\Tools\MSVC\14.44.35207\include\xmemory
; File C:\Program Files\Microsoft Visual Studio\2022\Professional\VC\Tools\MSVC\14.44.35207\include\xtree
; File C:\Program Files\Microsoft Visual Studio\2022\Professional\VC\Tools\MSVC\14.44.35207\include\utility
; File C:\Program Files\Microsoft Visual Studio\2022\Professional\VC\Tools\MSVC\14.44.35207\include\xtree
; File C:\IAGOS\server\v18\Source\Source\_Common\ProjectCmn.cpp
; File C:\Program Files (x86)\Windows Kits\10\Include\10.0.26100.0\ucrt\corecrt_math.h
; File C:\IAGOS\server\v18\Source\Source\_Common\ProjectCmn.cpp
; File C:\IAGOS\server\v18\Source\Source\_Common\Scanner.h
; File C:\IAGOS\server\v18\Source\Source\_Common\ProjectCmn.cpp
; File C:\IAGOS\server\v18\Source\Source\_Common\Scanner.h
; File C:\IAGOS\server\v18\Source\Source\_Common\ProjectCmn.cpp
; File C:\Program Files\Microsoft Visual Studio\2022\Professional\VC\Tools\MSVC\14.44.35207\include\xutility
; File C:\Program Files\Microsoft Visual Studio\2022\Professional\VC\Tools\MSVC\14.44.35207\include\xtree
; File C:\IAGOS\server\v18\Source\Source\_Common\ProjectCmn.cpp
; File C:\Program Files\Microsoft Visual Studio\2022\Professional\VC\Tools\MSVC\14.44.35207\include\xtree
; File C:\IAGOS\server\v18\Source\Source\_Common\ProjectCmn.cpp
;	COMDAT ?LoadPropMover@CProject@@QAEHPBD@Z
_TEXT	SEGMENT
$T5 = -8092						; size = 8
_this$GSCopy$1$ = -8084					; size = 4
_lpszFileName$GSCopy$1$ = -8080				; size = 4
_i$1$ = -8076						; size = 4
__Loc$1$ = -8072					; size = 4
_checker$ = -8068					; size = 8
tv399 = -8060						; size = 4
__Myhead$1$ = -8060					; size = 4
tv2165 = -8060						; size = 4
tv2169 = -8060						; size = 4
tv2173 = -8060						; size = 4
tv2177 = -8060						; size = 4
tv2181 = -8060						; size = 4
_scanner$ = -8056					; size = 7784
_szLastName$ = -272					; size = 256
__$ArrayPad$ = -16					; size = 4
__$EHRec$ = -12						; size = 12
_lpszFileName$ = 8					; size = 4
?LoadPropMover@CProject@@QAEHPBD@Z PROC			; CProject::LoadPropMover, COMDAT
; _this$ = ecx

; 113  : {

  00000	55		 push	 ebp
  00001	8b ec		 mov	 ebp, esp
  00003	6a ff		 push	 -1
  00005	68 00 00 00 00	 push	 __ehhandler$?LoadPropMover@CProject@@QAEHPBD@Z
  0000a	64 a1 00 00 00
	00		 mov	 eax, DWORD PTR fs:0
  00010	50		 push	 eax
  00011	b8 90 1f 00 00	 mov	 eax, 8080		; 00001f90H
  00016	e8 00 00 00 00	 call	 __chkstk
  0001b	a1 00 00 00 00	 mov	 eax, DWORD PTR ___security_cookie
  00020	33 c5		 xor	 eax, ebp
  00022	89 45 f0	 mov	 DWORD PTR __$ArrayPad$[ebp], eax
  00025	56		 push	 esi
  00026	57		 push	 edi
  00027	50		 push	 eax
  00028	8d 45 f4	 lea	 eax, DWORD PTR __$EHRec$[ebp]
  0002b	64 a3 00 00 00
	00		 mov	 DWORD PTR fs:0, eax
  00031	89 8d 6c e0 ff
	ff		 mov	 DWORD PTR _this$GSCopy$1$[ebp], ecx
  00037	8b 75 08	 mov	 esi, DWORD PTR _lpszFileName$[ebp]

; 114  : 	CScript scanner;

  0003a	8d 8d 88 e0 ff
	ff		 lea	 ecx, DWORD PTR _scanner$[ebp]
  00040	6a 00		 push	 0
  00042	89 b5 70 e0 ff
	ff		 mov	 DWORD PTR _lpszFileName$GSCopy$1$[ebp], esi
  00048	e8 00 00 00 00	 call	 ??0CScript@@QAE@H@Z	; CScript::CScript

; 115  : 	if( scanner.Load( lpszFileName, FALSE ) == FALSE )

  0004d	6a 00		 push	 0
  0004f	6a 00		 push	 0
  00051	56		 push	 esi
  00052	8d 8d 88 e0 ff
	ff		 lea	 ecx, DWORD PTR _scanner$[ebp]
  00058	c7 45 fc 00 00
	00 00		 mov	 DWORD PTR __$EHRec$[ebp+8], 0
  0005f	e8 00 00 00 00	 call	 ?Load@CScript@@QAEHPBDHH@Z ; CScript::Load
  00064	85 c0		 test	 eax, eax
  00066	75 07		 jne	 SHORT $LN4@LoadPropMo
  00068	33 f6		 xor	 esi, esi
  0006a	e9 69 09 00 00	 jmp	 $LN217@LoadPropMo
$LN4@LoadPropMo:
; File C:\Program Files\Microsoft Visual Studio\2022\Professional\VC\Tools\MSVC\14.44.35207\include\xmemory

; 136  :         return ::operator new(_Bytes);

  0006f	6a 14		 push	 20			; 00000014H
; File C:\Program Files\Microsoft Visual Studio\2022\Professional\VC\Tools\MSVC\14.44.35207\include\xtree

; 450  :     _Tree_val() noexcept : _Myhead(), _Mysize(0) {}

  00071	c7 85 7c e0 ff
	ff 00 00 00 00	 mov	 DWORD PTR _checker$[ebp], 0
  0007b	c7 85 80 e0 ff
	ff 00 00 00 00	 mov	 DWORD PTR _checker$[ebp+4], 0
; File C:\Program Files\Microsoft Visual Studio\2022\Professional\VC\Tools\MSVC\14.44.35207\include\xmemory

; 136  :         return ::operator new(_Bytes);

  00085	e8 00 00 00 00	 call	 ??2@YAPAXI@Z		; operator new
; File C:\Program Files\Microsoft Visual Studio\2022\Professional\VC\Tools\MSVC\14.44.35207\include\xtree

; 346  :         _Construct_in_place(_Pnode->_Left, _Pnode);

  0008a	89 00		 mov	 DWORD PTR [eax], eax

; 347  :         _Construct_in_place(_Pnode->_Parent, _Pnode);

  0008c	89 40 04	 mov	 DWORD PTR [eax+4], eax

; 348  :         _Construct_in_place(_Pnode->_Right, _Pnode);

  0008f	89 40 08	 mov	 DWORD PTR [eax+8], eax

; 349  :         _Pnode->_Color = _Black;

  00092	66 c7 40 0c 01
	01		 mov	 WORD PTR [eax+12], 257	; 00000101H

; 1957 :         _Scary->_Myhead = _Node::_Buyheadnode(_Getal());

  00098	89 85 7c e0 ff
	ff		 mov	 DWORD PTR _checker$[ebp], eax
; File C:\IAGOS\server\v18\Source\Source\_Common\ProjectCmn.cpp

; 128  : 	memset( szLastName, 0, sizeof(szLastName) );

  0009e	68 00 01 00 00	 push	 256			; 00000100H
  000a3	8d 85 f0 fe ff
	ff		 lea	 eax, DWORD PTR _szLastName$[ebp]
  000a9	c6 45 fc 01	 mov	 BYTE PTR __$EHRec$[ebp+8], 1
  000ad	6a 00		 push	 0
  000af	50		 push	 eax
  000b0	e8 00 00 00 00	 call	 _memset
  000b5	83 c4 10	 add	 esp, 16			; 00000010H

; 129  : 	int old;
; 130  : 	while( 1 )
; 131  : 	{
; 132  : 		old = i;
; 133  : 		i = scanner.GetNumber();		// id

  000b8	8d 8d 88 e0 ff
	ff		 lea	 ecx, DWORD PTR _scanner$[ebp]
  000be	6a 00		 push	 0
  000c0	e8 00 00 00 00	 call	 ?GetNumber@CScanner@@QAEHH@Z ; CScanner::GetNumber

; 134  : 		if( scanner.tok == FINISHED )

  000c5	83 bd cc e8 ff
	ff 15		 cmp	 DWORD PTR _scanner$[ebp+2116], 21 ; 00000015H
  000cc	8b f8		 mov	 edi, eax
  000ce	89 bd 74 e0 ff
	ff		 mov	 DWORD PTR _i$1$[ebp], edi
  000d4	0f 84 7c 08 00
	00		 je	 $LN228@LoadPropMo
  000da	8b cf		 mov	 ecx, edi
  000dc	8b f7		 mov	 esi, edi
  000de	8b d7		 mov	 edx, edi
$LL2@LoadPropMo:

; 135  : 			break;
; 136  : 
; 137  : 		if( i == 0 )

  000e0	85 c0		 test	 eax, eax
  000e2	0f 84 0b 08 00
	00		 je	 $LN233@LoadPropMo

; 138  : 			continue;
; 139  : 
; 140  : 		if( i<0 || i>=MAX_PROPMOVER )		// ąüŔ§ĂĽĹ© 

  000e8	85 c9		 test	 ecx, ecx
  000ea	0f 88 4e 08 00
	00		 js	 $LN229@LoadPropMo
  000f0	81 fe 34 3a 00
	00		 cmp	 esi, 14900		; 00003a34H
  000f6	0f 8d 42 08 00
	00		 jge	 $LN229@LoadPropMo
; File C:\Program Files\Microsoft Visual Studio\2022\Professional\VC\Tools\MSVC\14.44.35207\include\xtree

; 1630 :         _Tree_find_result<_Nodeptr> _Result{{_Scary->_Myhead->_Parent, _Tree_child::_Right}, _Scary->_Myhead};

  000fc	8b 8d 7c e0 ff
	ff		 mov	 ecx, DWORD PTR _checker$[ebp]
  00102	33 f6		 xor	 esi, esi
  00104	89 8d 84 e0 ff
	ff		 mov	 DWORD PTR __Myhead$1$[ebp], ecx
  0010a	8b 41 04	 mov	 eax, DWORD PTR [ecx+4]
  0010d	89 85 78 e0 ff
	ff		 mov	 DWORD PTR __Loc$1$[ebp], eax

; 1631 :         _Nodeptr _Trynode = _Result._Location._Parent;
; 1632 :         while (!_Trynode->_Isnil) {

  00113	80 78 0d 00	 cmp	 BYTE PTR [eax+13], 0
  00117	75 2e		 jne	 SHORT $LN69@LoadPropMo
  00119	0f 1f 80 00 00
	00 00		 npad	 7
$LL68@LoadPropMo:

; 1633 :             _Result._Location._Parent = _Trynode;

  00120	89 85 78 e0 ff
	ff		 mov	 DWORD PTR __Loc$1$[ebp], eax
; File C:\Program Files\Microsoft Visual Studio\2022\Professional\VC\Tools\MSVC\14.44.35207\include\type_traits

; 2380 :         return _Left < _Right;

  00126	39 50 10	 cmp	 DWORD PTR [eax+16], edx
; File C:\Program Files\Microsoft Visual Studio\2022\Professional\VC\Tools\MSVC\14.44.35207\include\xtree

; 1634 :             if (_DEBUG_LT_PRED(_Getcomp(), _Traits::_Kfn(_Trynode->_Myval), _Keyval)) {

  00129	7d 07		 jge	 SHORT $LN70@LoadPropMo

; 1635 :                 _Result._Location._Child = _Tree_child::_Right;
; 1636 :                 _Trynode                 = _Trynode->_Right;

  0012b	8b 40 08	 mov	 eax, DWORD PTR [eax+8]
  0012e	33 f6		 xor	 esi, esi

; 1637 :             } else {

  00130	eb 09		 jmp	 SHORT $LN71@LoadPropMo
$LN70@LoadPropMo:

; 1638 :                 _Result._Location._Child = _Tree_child::_Left;
; 1639 :                 _Result._Bound           = _Trynode;

  00132	8b c8		 mov	 ecx, eax
  00134	be 01 00 00 00	 mov	 esi, 1

; 1640 :                 _Trynode                 = _Trynode->_Left;

  00139	8b 00		 mov	 eax, DWORD PTR [eax]
$LN71@LoadPropMo:

; 1631 :         _Nodeptr _Trynode = _Result._Location._Parent;
; 1632 :         while (!_Trynode->_Isnil) {

  0013b	80 78 0d 00	 cmp	 BYTE PTR [eax+13], 0
  0013f	74 df		 je	 SHORT $LL68@LoadPropMo
  00141	8b bd 74 e0 ff
	ff		 mov	 edi, DWORD PTR _i$1$[ebp]
$LN69@LoadPropMo:

; 1624 :         return !_Bound->_Isnil && !_DEBUG_LT_PRED(_Getcomp(), _Keyval, _Traits::_Kfn(_Bound->_Myval));

  00147	80 79 0d 00	 cmp	 BYTE PTR [ecx+13], 0
  0014b	75 09		 jne	 SHORT $LN64@LoadPropMo
; File C:\Program Files\Microsoft Visual Studio\2022\Professional\VC\Tools\MSVC\14.44.35207\include\type_traits

; 2380 :         return _Left < _Right;

  0014d	3b 79 10	 cmp	 edi, DWORD PTR [ecx+16]
; File C:\Program Files\Microsoft Visual Studio\2022\Professional\VC\Tools\MSVC\14.44.35207\include\xtree

; 1624 :         return !_Bound->_Isnil && !_DEBUG_LT_PRED(_Getcomp(), _Keyval, _Traits::_Kfn(_Bound->_Myval));

  00150	0f 8d c6 07 00
	00		 jge	 $LN250@LoadPropMo
$LN64@LoadPropMo:

; 1648 :         if (max_size() == _Get_scary()->_Mysize) {

  00156	81 bd 80 e0 ff
	ff cc cc cc 0c	 cmp	 DWORD PTR _checker$[ebp+4], 214748364 ; 0cccccccH
  00160	0f 84 9c 08 00
	00		 je	 $LN230@LoadPropMo
; File C:\Program Files\Microsoft Visual Studio\2022\Professional\VC\Tools\MSVC\14.44.35207\include\xmemory

; 1160 :     _CONSTEXPR20 explicit _Alloc_construct_ptr(_Alloc& _Al_) : _Al(_Al_), _Ptr(nullptr) {}

  00166	8d 85 7c e0 ff
	ff		 lea	 eax, DWORD PTR _checker$[ebp]
  0016c	89 85 64 e0 ff
	ff		 mov	 DWORD PTR $T5[ebp], eax

; 136  :         return ::operator new(_Bytes);

  00172	6a 14		 push	 20			; 00000014H
; File C:\Program Files\Microsoft Visual Studio\2022\Professional\VC\Tools\MSVC\14.44.35207\include\xtree

; 808  :     explicit _Tree_temp_node_alloc(_Alnode& _Al_) : _Alloc_construct_ptr<_Alnode>(_Al_) {

  00174	c6 45 fc 02	 mov	 BYTE PTR __$EHRec$[ebp+8], 2
; File C:\Program Files\Microsoft Visual Studio\2022\Professional\VC\Tools\MSVC\14.44.35207\include\xmemory

; 1167 :         _Ptr = nullptr; // if allocate throws, prevents double-free

  00178	c7 85 68 e0 ff
	ff 00 00 00 00	 mov	 DWORD PTR $T5[ebp+4], 0

; 136  :         return ::operator new(_Bytes);

  00182	e8 00 00 00 00	 call	 ??2@YAPAXI@Z		; operator new
; File C:\Program Files\Microsoft Visual Studio\2022\Professional\VC\Tools\MSVC\14.44.35207\include\xtree

; 831  :         _Construct_in_place(this->_Ptr->_Left, _Myhead);

  00187	8b 8d 84 e0 ff
	ff		 mov	 ecx, DWORD PTR __Myhead$1$[ebp]
; File C:\Program Files\Microsoft Visual Studio\2022\Professional\VC\Tools\MSVC\14.44.35207\include\xmemory

; 136  :         return ::operator new(_Bytes);

  0018d	83 c4 04	 add	 esp, 4
; File C:\Program Files\Microsoft Visual Studio\2022\Professional\VC\Tools\MSVC\14.44.35207\include\xtree

; 810  :     }

  00190	c6 45 fc 01	 mov	 BYTE PTR __$EHRec$[ebp+8], 1
; File C:\Program Files\Microsoft Visual Studio\2022\Professional\VC\Tools\MSVC\14.44.35207\include\utility

; 774  :     _Val         = static_cast<_Other&&>(_New_val);

  00194	c7 85 68 e0 ff
	ff 00 00 00 00	 mov	 DWORD PTR $T5[ebp+4], 0
; File C:\Program Files\Microsoft Visual Studio\2022\Professional\VC\Tools\MSVC\14.44.35207\include\xtree

; 830  :         _Alnode_traits::construct(this->_Al, _STD addressof(this->_Ptr->_Myval), _STD forward<_Valtys>(_Vals)...);

  0019e	89 78 10	 mov	 DWORD PTR [eax+16], edi

; 831  :         _Construct_in_place(this->_Ptr->_Left, _Myhead);

  001a1	89 08		 mov	 DWORD PTR [eax], ecx

; 1042 :         return {_Scary->_Insert_node(_Loc._Location, _Inserted), true};

  001a3	50		 push	 eax

; 832  :         _Construct_in_place(this->_Ptr->_Parent, _Myhead);

  001a4	89 48 04	 mov	 DWORD PTR [eax+4], ecx

; 1042 :         return {_Scary->_Insert_node(_Loc._Location, _Inserted), true};

  001a7	56		 push	 esi
  001a8	ff b5 78 e0 ff
	ff		 push	 DWORD PTR __Loc$1$[ebp]

; 833  :         _Construct_in_place(this->_Ptr->_Right, _Myhead);

  001ae	89 48 08	 mov	 DWORD PTR [eax+8], ecx

; 1042 :         return {_Scary->_Insert_node(_Loc._Location, _Inserted), true};

  001b1	8d 8d 7c e0 ff
	ff		 lea	 ecx, DWORD PTR _checker$[ebp]

; 834  :         this->_Ptr->_Color = _Red;

  001b7	66 c7 40 0c 00
	00		 mov	 WORD PTR [eax+12], 0

; 1042 :         return {_Scary->_Insert_node(_Loc._Location, _Inserted), true};

  001bd	e8 00 00 00 00	 call	 ?_Insert_node@?$_Tree_val@U?$_Tree_simple_types@H@std@@@std@@QAEPAU?$_Tree_node@HPAX@2@U?$_Tree_id@PAU?$_Tree_node@HPAX@std@@@2@QAU32@@Z ; std::_Tree_val<std::_Tree_simple_types<int> >::_Insert_node
; File C:\IAGOS\server\v18\Source\Source\_Common\ProjectCmn.cpp

; 152  : 		MoverProp* pProperty = &m_pPropMover[i];

  001c2	8b 85 6c e0 ff
	ff		 mov	 eax, DWORD PTR _this$GSCopy$1$[ebp]

; 153  : 		pProperty->dwID	= i;
; 154  : 		
; 155  : 		scanner.GetToken();

  001c8	8d 8d 88 e0 ff
	ff		 lea	 ecx, DWORD PTR _scanner$[ebp]
  001ce	69 f7 90 06 00
	00		 imul	 esi, edi, 1680
  001d4	6a 00		 push	 0
  001d6	03 70 5c	 add	 esi, DWORD PTR [eax+92]
  001d9	89 3e		 mov	 DWORD PTR [esi], edi
  001db	e8 00 00 00 00	 call	 ?GetToken@CScript@@UAEHH@Z ; CScript::GetToken

; 156  : 		_tcscpy( szLastName, scanner.token );

  001e0	8b 95 c4 e0 ff
	ff		 mov	 edx, DWORD PTR _scanner$[ebp+60]
  001e6	8d bd f0 fe ff
	ff		 lea	 edi, DWORD PTR _szLastName$[ebp]
  001ec	8b ca		 mov	 ecx, edx
  001ee	2b f9		 sub	 edi, ecx
$LL14@LoadPropMo:
  001f0	8a 01		 mov	 al, BYTE PTR [ecx]
  001f2	8d 49 01	 lea	 ecx, DWORD PTR [ecx+1]
  001f5	88 44 0f ff	 mov	 BYTE PTR [edi+ecx-1], al
  001f9	84 c0		 test	 al, al
  001fb	75 f3		 jne	 SHORT $LL14@LoadPropMo

; 157  : 		_tcscpy( pProperty->szName, scanner.token );

  001fd	8d 7e 04	 lea	 edi, DWORD PTR [esi+4]
  00200	8b cf		 mov	 ecx, edi
$LL15@LoadPropMo:
  00202	8a 02		 mov	 al, BYTE PTR [edx]
  00204	8d 52 01	 lea	 edx, DWORD PTR [edx+1]
  00207	88 01		 mov	 BYTE PTR [ecx], al
  00209	8d 49 01	 lea	 ecx, DWORD PTR [ecx+1]
  0020c	84 c0		 test	 al, al
  0020e	75 f2		 jne	 SHORT $LL15@LoadPropMo

; 158  : 
; 159  : #if !( defined(__DBSERVER) || defined(__VPW) )
; 160  : 		m_mapMVI.insert( map<string, DWORD>::value_type( pProperty->szName, pProperty->dwID ) );
; 161  : #endif	// __DBSERVER
; 162  : 
; 163  : 		pProperty->dwAI					= scanner.GetNumber();

  00210	6a 00		 push	 0
  00212	8d 8d 88 e0 ff
	ff		 lea	 ecx, DWORD PTR _scanner$[ebp]
  00218	e8 00 00 00 00	 call	 ?GetNumber@CScanner@@QAEHH@Z ; CScanner::GetNumber

; 164  : 		pProperty->dwStr				= scanner.GetNumber();

  0021d	6a 00		 push	 0
  0021f	8d 8d 88 e0 ff
	ff		 lea	 ecx, DWORD PTR _scanner$[ebp]
  00225	89 46 48	 mov	 DWORD PTR [esi+72], eax
  00228	e8 00 00 00 00	 call	 ?GetNumber@CScanner@@QAEHH@Z ; CScanner::GetNumber

; 165  : 		pProperty->dwSta				= scanner.GetNumber();

  0022d	6a 00		 push	 0
  0022f	8d 8d 88 e0 ff
	ff		 lea	 ecx, DWORD PTR _scanner$[ebp]
  00235	89 46 64	 mov	 DWORD PTR [esi+100], eax
  00238	e8 00 00 00 00	 call	 ?GetNumber@CScanner@@QAEHH@Z ; CScanner::GetNumber

; 166  : 		pProperty->dwDex				= scanner.GetNumber();

  0023d	6a 00		 push	 0
  0023f	8d 8d 88 e0 ff
	ff		 lea	 ecx, DWORD PTR _scanner$[ebp]
  00245	89 46 68	 mov	 DWORD PTR [esi+104], eax
  00248	e8 00 00 00 00	 call	 ?GetNumber@CScanner@@QAEHH@Z ; CScanner::GetNumber

; 167  : 		pProperty->dwInt				= scanner.GetNumber();

  0024d	6a 00		 push	 0
  0024f	8d 8d 88 e0 ff
	ff		 lea	 ecx, DWORD PTR _scanner$[ebp]
  00255	89 46 6c	 mov	 DWORD PTR [esi+108], eax
  00258	e8 00 00 00 00	 call	 ?GetNumber@CScanner@@QAEHH@Z ; CScanner::GetNumber

; 168  : 		pProperty->dwHR					= scanner.GetNumber();

  0025d	6a 00		 push	 0
  0025f	8d 8d 88 e0 ff
	ff		 lea	 ecx, DWORD PTR _scanner$[ebp]
  00265	89 46 70	 mov	 DWORD PTR [esi+112], eax
  00268	e8 00 00 00 00	 call	 ?GetNumber@CScanner@@QAEHH@Z ; CScanner::GetNumber

; 169  : 		pProperty->dwER					= scanner.GetNumber();

  0026d	6a 00		 push	 0
  0026f	8d 8d 88 e0 ff
	ff		 lea	 ecx, DWORD PTR _scanner$[ebp]
  00275	89 46 74	 mov	 DWORD PTR [esi+116], eax
  00278	e8 00 00 00 00	 call	 ?GetNumber@CScanner@@QAEHH@Z ; CScanner::GetNumber

; 170  : 		pProperty->dwRace				= scanner.GetNumber();

  0027d	6a 00		 push	 0
  0027f	8d 8d 88 e0 ff
	ff		 lea	 ecx, DWORD PTR _scanner$[ebp]
  00285	89 46 78	 mov	 DWORD PTR [esi+120], eax
  00288	e8 00 00 00 00	 call	 ?GetNumber@CScanner@@QAEHH@Z ; CScanner::GetNumber

; 171  : 		pProperty->dwBelligerence		= scanner.GetNumber();

  0028d	6a 00		 push	 0
  0028f	8d 8d 88 e0 ff
	ff		 lea	 ecx, DWORD PTR _scanner$[ebp]
  00295	89 46 7c	 mov	 DWORD PTR [esi+124], eax
  00298	e8 00 00 00 00	 call	 ?GetNumber@CScanner@@QAEHH@Z ; CScanner::GetNumber

; 172  : 		pProperty->dwGender				= scanner.GetNumber();

  0029d	6a 00		 push	 0
  0029f	8d 8d 88 e0 ff
	ff		 lea	 ecx, DWORD PTR _scanner$[ebp]
  002a5	89 86 80 00 00
	00		 mov	 DWORD PTR [esi+128], eax
  002ab	e8 00 00 00 00	 call	 ?GetNumber@CScanner@@QAEHH@Z ; CScanner::GetNumber

; 173  : 		pProperty->dwLevel				= scanner.GetNumber();

  002b0	6a 00		 push	 0
  002b2	8d 8d 88 e0 ff
	ff		 lea	 ecx, DWORD PTR _scanner$[ebp]
  002b8	89 86 84 00 00
	00		 mov	 DWORD PTR [esi+132], eax
  002be	e8 00 00 00 00	 call	 ?GetNumber@CScanner@@QAEHH@Z ; CScanner::GetNumber

; 174  : 		pProperty->dwFlightLevel		= scanner.GetNumber();

  002c3	6a 00		 push	 0
  002c5	8d 8d 88 e0 ff
	ff		 lea	 ecx, DWORD PTR _scanner$[ebp]
  002cb	89 86 88 00 00
	00		 mov	 DWORD PTR [esi+136], eax
  002d1	e8 00 00 00 00	 call	 ?GetNumber@CScanner@@QAEHH@Z ; CScanner::GetNumber

; 175  : 		pProperty->dwSize				= scanner.GetNumber();

  002d6	6a 00		 push	 0
  002d8	8d 8d 88 e0 ff
	ff		 lea	 ecx, DWORD PTR _scanner$[ebp]
  002de	89 86 8c 00 00
	00		 mov	 DWORD PTR [esi+140], eax
  002e4	e8 00 00 00 00	 call	 ?GetNumber@CScanner@@QAEHH@Z ; CScanner::GetNumber

; 176  : 		pProperty->dwClass				= scanner.GetNumber();

  002e9	6a 00		 push	 0
  002eb	8d 8d 88 e0 ff
	ff		 lea	 ecx, DWORD PTR _scanner$[ebp]
  002f1	89 86 90 00 00
	00		 mov	 DWORD PTR [esi+144], eax
  002f7	e8 00 00 00 00	 call	 ?GetNumber@CScanner@@QAEHH@Z ; CScanner::GetNumber

; 177  : 		pProperty->bIfParts				= scanner.GetNumber();

  002fc	6a 00		 push	 0
  002fe	8d 8d 88 e0 ff
	ff		 lea	 ecx, DWORD PTR _scanner$[ebp]
  00304	89 86 94 00 00
	00		 mov	 DWORD PTR [esi+148], eax
  0030a	e8 00 00 00 00	 call	 ?GetNumber@CScanner@@QAEHH@Z ; CScanner::GetNumber
  0030f	89 86 98 00 00
	00		 mov	 DWORD PTR [esi+152], eax

; 178  : 
; 179  : 		if( pProperty->bIfParts == NULL_ID )

  00315	83 f8 ff	 cmp	 eax, -1
  00318	75 0e		 jne	 SHORT $LN10@LoadPropMo

; 180  : 			Error( "LoadPropMover : bIfPartsżŁ -1Ŕ» łÖŔ¸¸é ľČµČ´Ů. %s \r\nÄĂ·łŔĚ ąĐ·Č°ĹłŞ żöĹ·Ćú´ő¸¦ Ŕß¸řÁöÁ¤ÇßŔ»ĽöµµŔÖŔ˝ ", pProperty->szName );

  0031a	57		 push	 edi
  0031b	68 00 00 00 00	 push	 OFFSET ??_C@_0GF@PODIKLMP@LoadPropMover?5?3?5bIfParts?$LP?$KD?5?91?$MA?$LL@
  00320	e8 00 00 00 00	 call	 ?Error@@YAPBDPBDZZ	; Error
  00325	83 c4 08	 add	 esp, 8
$LN10@LoadPropMo:

; 181  : 
; 182  : 		pProperty->nChaotic				= scanner.GetNumber();

  00328	6a 00		 push	 0
  0032a	8d 8d 88 e0 ff
	ff		 lea	 ecx, DWORD PTR _scanner$[ebp]
  00330	e8 00 00 00 00	 call	 ?GetNumber@CScanner@@QAEHH@Z ; CScanner::GetNumber

; 183  : #ifdef __S1108_BACK_END_SYSTEM
; 184  : 		pProperty->dwUseable			= scanner.GetNumber();

  00335	6a 00		 push	 0
  00337	8d 8d 88 e0 ff
	ff		 lea	 ecx, DWORD PTR _scanner$[ebp]
  0033d	89 86 9c 00 00
	00		 mov	 DWORD PTR [esi+156], eax
  00343	e8 00 00 00 00	 call	 ?GetNumber@CScanner@@QAEHH@Z ; CScanner::GetNumber

; 185  : #else // __S1108_BACK_END_SYSTEM
; 186  : 		pProperty->dwDefExtent			= scanner.GetNumber();
; 187  : #endif // __S1108_BACK_END_SYSTEM
; 188  : 		pProperty->dwActionRadius		= scanner.GetNumber();

  00348	6a 00		 push	 0
  0034a	8d 8d 88 e0 ff
	ff		 lea	 ecx, DWORD PTR _scanner$[ebp]
  00350	89 86 a0 00 00
	00		 mov	 DWORD PTR [esi+160], eax
  00356	e8 00 00 00 00	 call	 ?GetNumber@CScanner@@QAEHH@Z ; CScanner::GetNumber

; 189  : 		pProperty->dwAtkMin				= scanner.GetNumber();

  0035b	6a 00		 push	 0
  0035d	8d 8d 88 e0 ff
	ff		 lea	 ecx, DWORD PTR _scanner$[ebp]
  00363	89 86 a4 00 00
	00		 mov	 DWORD PTR [esi+164], eax
  00369	e8 00 00 00 00	 call	 ?GetNumber@CScanner@@QAEHH@Z ; CScanner::GetNumber

; 190  : 		pProperty->dwAtkMax				= scanner.GetNumber();

  0036e	6a 00		 push	 0
  00370	8d 8d 88 e0 ff
	ff		 lea	 ecx, DWORD PTR _scanner$[ebp]
  00376	89 86 a8 00 00
	00		 mov	 DWORD PTR [esi+168], eax
  0037c	e8 00 00 00 00	 call	 ?GetNumber@CScanner@@QAEHH@Z ; CScanner::GetNumber

; 191  : 		pProperty->dwAtk1				= scanner.GetNumber();

  00381	6a 00		 push	 0
  00383	8d 8d 88 e0 ff
	ff		 lea	 ecx, DWORD PTR _scanner$[ebp]
  00389	89 86 ac 00 00
	00		 mov	 DWORD PTR [esi+172], eax
  0038f	e8 00 00 00 00	 call	 ?GetNumber@CScanner@@QAEHH@Z ; CScanner::GetNumber

; 192  : 		pProperty->dwAtk2				= scanner.GetNumber();

  00394	6a 00		 push	 0
  00396	8d 8d 88 e0 ff
	ff		 lea	 ecx, DWORD PTR _scanner$[ebp]
  0039c	89 86 b0 00 00
	00		 mov	 DWORD PTR [esi+176], eax
  003a2	e8 00 00 00 00	 call	 ?GetNumber@CScanner@@QAEHH@Z ; CScanner::GetNumber

; 193  : 		pProperty->dwAtk3				= scanner.GetNumber();

  003a7	6a 00		 push	 0
  003a9	8d 8d 88 e0 ff
	ff		 lea	 ecx, DWORD PTR _scanner$[ebp]
  003af	89 86 b4 00 00
	00		 mov	 DWORD PTR [esi+180], eax
  003b5	e8 00 00 00 00	 call	 ?GetNumber@CScanner@@QAEHH@Z ; CScanner::GetNumber

; 194  : 		pProperty->dwAtk4				= scanner.GetNumber();

  003ba	6a 00		 push	 0
  003bc	8d 8d 88 e0 ff
	ff		 lea	 ecx, DWORD PTR _scanner$[ebp]
  003c2	89 86 b8 00 00
	00		 mov	 DWORD PTR [esi+184], eax
  003c8	e8 00 00 00 00	 call	 ?GetNumber@CScanner@@QAEHH@Z ; CScanner::GetNumber

; 195  : #if __VER >= 9	//__AI_0509
; 196  : 		pProperty->fFrame	= scanner.GetFloat();	// -1ŔĚ¸é °ˇÁßÄˇ żµÇâ ľřŔ˝. 1.0 ±âş» °Ş

  003cd	6a 00		 push	 0
  003cf	8d 8d 88 e0 ff
	ff		 lea	 ecx, DWORD PTR _scanner$[ebp]
  003d5	89 86 bc 00 00
	00		 mov	 DWORD PTR [esi+188], eax
  003db	e8 00 00 00 00	 call	 ?GetFloat@CScanner@@QAEMH@Z ; CScanner::GetFloat

; 197  : 		if( abs( -1.0F  - pProperty->fFrame ) < 0.000001F )

  003e0	f3 0f 10 0d 00
	00 00 00	 movss	 xmm1, DWORD PTR __real@bf800000
  003e8	d9 9d 84 e0 ff
	ff		 fstp	 DWORD PTR tv399[ebp]
  003ee	f3 0f 10 85 84
	e0 ff ff	 movss	 xmm0, DWORD PTR tv399[ebp]
  003f6	f3 0f 5c c8	 subss	 xmm1, xmm0
  003fa	f3 0f 11 86 c0
	00 00 00	 movss	 DWORD PTR [esi+192], xmm0
  00402	f3 0f 10 05 00
	00 00 00	 movss	 xmm0, DWORD PTR __real@358637bd
; File C:\Program Files (x86)\Windows Kits\10\Include\10.0.26100.0\ucrt\corecrt_math.h

; 711  :             return (float)fabs(_X);

  0040a	0f 54 0d 00 00
	00 00		 andps	 xmm1, DWORD PTR __xmm@7fffffff7fffffff7fffffff7fffffff
; File C:\IAGOS\server\v18\Source\Source\_Common\ProjectCmn.cpp

; 197  : 		if( abs( -1.0F  - pProperty->fFrame ) < 0.000001F )

  00411	0f 2f c1	 comiss	 xmm0, xmm1
  00414	76 0a		 jbe	 SHORT $LN11@LoadPropMo

; 198  : 			pProperty->fFrame	= 1.0F;

  00416	c7 86 c0 00 00
	00 00 00 80 3f	 mov	 DWORD PTR [esi+192], 1065353216 ; 3f800000H
$LN11@LoadPropMo:

; 199  : 		pProperty->dwOrthograde	= scanner.GetNumber();

  00420	6a 00		 push	 0
  00422	8d 8d 88 e0 ff
	ff		 lea	 ecx, DWORD PTR _scanner$[ebp]
  00428	e8 00 00 00 00	 call	 ?GetNumber@CScanner@@QAEHH@Z ; CScanner::GetNumber

; 200  : #else	// __AI_0509
; 201  : 		pProperty->dwVerticalRate		= scanner.GetNumber();
; 202  : 		pProperty->dwDiagonalRate		= scanner.GetNumber();
; 203  : #endif	// __AI_0509
; 204  : 		pProperty->dwThrustRate			= scanner.GetNumber();

  0042d	6a 00		 push	 0
  0042f	8d 8d 88 e0 ff
	ff		 lea	 ecx, DWORD PTR _scanner$[ebp]
  00435	89 86 c4 00 00
	00		 mov	 DWORD PTR [esi+196], eax
  0043b	e8 00 00 00 00	 call	 ?GetNumber@CScanner@@QAEHH@Z ; CScanner::GetNumber

; 205  : 
; 206  : 		pProperty->dwChestRate			= scanner.GetNumber();

  00440	6a 00		 push	 0
  00442	8d 8d 88 e0 ff
	ff		 lea	 ecx, DWORD PTR _scanner$[ebp]
  00448	89 86 c8 00 00
	00		 mov	 DWORD PTR [esi+200], eax
  0044e	e8 00 00 00 00	 call	 ?GetNumber@CScanner@@QAEHH@Z ; CScanner::GetNumber

; 207  : 		pProperty->dwHeadRate			= scanner.GetNumber();

  00453	6a 00		 push	 0
  00455	8d 8d 88 e0 ff
	ff		 lea	 ecx, DWORD PTR _scanner$[ebp]
  0045b	89 86 cc 00 00
	00		 mov	 DWORD PTR [esi+204], eax
  00461	e8 00 00 00 00	 call	 ?GetNumber@CScanner@@QAEHH@Z ; CScanner::GetNumber

; 208  : 		pProperty->dwArmRate			= scanner.GetNumber();

  00466	6a 00		 push	 0
  00468	8d 8d 88 e0 ff
	ff		 lea	 ecx, DWORD PTR _scanner$[ebp]
  0046e	89 86 d0 00 00
	00		 mov	 DWORD PTR [esi+208], eax
  00474	e8 00 00 00 00	 call	 ?GetNumber@CScanner@@QAEHH@Z ; CScanner::GetNumber

; 209  : 		pProperty->dwLegRate			= scanner.GetNumber();

  00479	6a 00		 push	 0
  0047b	8d 8d 88 e0 ff
	ff		 lea	 ecx, DWORD PTR _scanner$[ebp]
  00481	89 86 d4 00 00
	00		 mov	 DWORD PTR [esi+212], eax
  00487	e8 00 00 00 00	 call	 ?GetNumber@CScanner@@QAEHH@Z ; CScanner::GetNumber

; 210  : 
; 211  : 		pProperty->dwAttackSpeed		= scanner.GetNumber();

  0048c	6a 00		 push	 0
  0048e	8d 8d 88 e0 ff
	ff		 lea	 ecx, DWORD PTR _scanner$[ebp]
  00494	89 86 d8 00 00
	00		 mov	 DWORD PTR [esi+216], eax
  0049a	e8 00 00 00 00	 call	 ?GetNumber@CScanner@@QAEHH@Z ; CScanner::GetNumber

; 212  : 		pProperty->dwReAttackDelay		= scanner.GetNumber();

  0049f	6a 00		 push	 0
  004a1	8d 8d 88 e0 ff
	ff		 lea	 ecx, DWORD PTR _scanner$[ebp]
  004a7	89 86 dc 00 00
	00		 mov	 DWORD PTR [esi+220], eax
  004ad	e8 00 00 00 00	 call	 ?GetNumber@CScanner@@QAEHH@Z ; CScanner::GetNumber

; 213  : 		pProperty->dwAddHp				= scanner.GetNumber();

  004b2	6a 00		 push	 0
  004b4	8d 8d 88 e0 ff
	ff		 lea	 ecx, DWORD PTR _scanner$[ebp]
  004ba	89 86 e0 00 00
	00		 mov	 DWORD PTR [esi+224], eax
  004c0	e8 00 00 00 00	 call	 ?GetNumber@CScanner@@QAEHH@Z ; CScanner::GetNumber

; 214  : 		pProperty->dwAddMp				= scanner.GetNumber();

  004c5	6a 00		 push	 0
  004c7	8d 8d 88 e0 ff
	ff		 lea	 ecx, DWORD PTR _scanner$[ebp]
  004cd	89 86 e4 00 00
	00		 mov	 DWORD PTR [esi+228], eax
  004d3	e8 00 00 00 00	 call	 ?GetNumber@CScanner@@QAEHH@Z ; CScanner::GetNumber

; 215  : 		pProperty->dwNaturalArmor		= scanner.GetNumber();

  004d8	6a 00		 push	 0
  004da	8d 8d 88 e0 ff
	ff		 lea	 ecx, DWORD PTR _scanner$[ebp]
  004e0	89 86 e8 00 00
	00		 mov	 DWORD PTR [esi+232], eax
  004e6	e8 00 00 00 00	 call	 ?GetNumber@CScanner@@QAEHH@Z ; CScanner::GetNumber

; 216  : 		pProperty->nAbrasion			= scanner.GetNumber();

  004eb	6a 00		 push	 0
  004ed	8d 8d 88 e0 ff
	ff		 lea	 ecx, DWORD PTR _scanner$[ebp]
  004f3	89 86 ec 00 00
	00		 mov	 DWORD PTR [esi+236], eax
  004f9	e8 00 00 00 00	 call	 ?GetNumber@CScanner@@QAEHH@Z ; CScanner::GetNumber

; 217  : 		pProperty->nHardness			= scanner.GetNumber();

  004fe	6a 00		 push	 0
  00500	8d 8d 88 e0 ff
	ff		 lea	 ecx, DWORD PTR _scanner$[ebp]
  00506	89 86 f0 00 00
	00		 mov	 DWORD PTR [esi+240], eax
  0050c	e8 00 00 00 00	 call	 ?GetNumber@CScanner@@QAEHH@Z ; CScanner::GetNumber

; 218  : 		pProperty->dwAdjAtkDelay		= scanner.GetNumber();

  00511	6a 00		 push	 0
  00513	8d 8d 88 e0 ff
	ff		 lea	 ecx, DWORD PTR _scanner$[ebp]
  00519	89 86 f4 00 00
	00		 mov	 DWORD PTR [esi+244], eax
  0051f	e8 00 00 00 00	 call	 ?GetNumber@CScanner@@QAEHH@Z ; CScanner::GetNumber

; 219  : 		
; 220  : 		pProperty->eElementType			= static_cast<SAI79::ePropType>(scanner.GetNumber());	// Á¤ĽöĹ¸ŔÔ°ú enum	Ĺ¸ŔÔŔĚ Ć˛·ÁĽ­ Ĺ¸ŔÔ şŻČŻŔ» ÇăżëÇÔ.

  00524	6a 00		 push	 0
  00526	8d 8d 88 e0 ff
	ff		 lea	 ecx, DWORD PTR _scanner$[ebp]
  0052c	89 86 f8 00 00
	00		 mov	 DWORD PTR [esi+248], eax
  00532	e8 00 00 00 00	 call	 ?GetNumber@CScanner@@QAEHH@Z ; CScanner::GetNumber

; 221  : 		pProperty->wElementAtk			= static_cast<short>(scanner.GetNumber());				// Á¤ĽöĹ¸ŔÔ°ú short	Ĺ¸ŔÔŔĚ Ć˛·ÁĽ­ Ĺ¸ŔÔ şŻČŻŔ» ÇăżëÇÔ.

  00537	6a 00		 push	 0
  00539	8d 8d 88 e0 ff
	ff		 lea	 ecx, DWORD PTR _scanner$[ebp]
  0053f	89 86 fc 00 00
	00		 mov	 DWORD PTR [esi+252], eax
  00545	e8 00 00 00 00	 call	 ?GetNumber@CScanner@@QAEHH@Z ; CScanner::GetNumber

; 222  : 
; 223  : 		pProperty->dwHideLevel			= scanner.GetNumber();

  0054a	6a 00		 push	 0
  0054c	8d 8d 88 e0 ff
	ff		 lea	 ecx, DWORD PTR _scanner$[ebp]
  00552	66 89 86 00 01
	00 00		 mov	 WORD PTR [esi+256], ax
  00559	e8 00 00 00 00	 call	 ?GetNumber@CScanner@@QAEHH@Z ; CScanner::GetNumber

; 224  : 		pProperty->fSpeed				= scanner.GetFloat();

  0055e	6a 00		 push	 0
  00560	8d 8d 88 e0 ff
	ff		 lea	 ecx, DWORD PTR _scanner$[ebp]
  00566	89 86 04 01 00
	00		 mov	 DWORD PTR [esi+260], eax
  0056c	e8 00 00 00 00	 call	 ?GetFloat@CScanner@@QAEMH@Z ; CScanner::GetFloat

; 225  : 		pProperty->dwShelter			= scanner.GetNumber();

  00571	6a 00		 push	 0
  00573	8d 8d 88 e0 ff
	ff		 lea	 ecx, DWORD PTR _scanner$[ebp]
  00579	d9 9e 08 01 00
	00		 fstp	 DWORD PTR [esi+264]
  0057f	e8 00 00 00 00	 call	 ?GetNumber@CScanner@@QAEHH@Z ; CScanner::GetNumber

; 226  : 		pProperty->dwFlying				= scanner.GetNumber();

  00584	6a 00		 push	 0
  00586	8d 8d 88 e0 ff
	ff		 lea	 ecx, DWORD PTR _scanner$[ebp]
  0058c	89 86 0c 01 00
	00		 mov	 DWORD PTR [esi+268], eax
  00592	e8 00 00 00 00	 call	 ?GetNumber@CScanner@@QAEHH@Z ; CScanner::GetNumber
  00597	89 86 10 01 00
	00		 mov	 DWORD PTR [esi+272], eax

; 227  : 		pProperty->dwJumpIng			= scanner.GetNumber();

  0059d	6a 00		 push	 0
  0059f	8d 8d 88 e0 ff
	ff		 lea	 ecx, DWORD PTR _scanner$[ebp]
  005a5	e8 00 00 00 00	 call	 ?GetNumber@CScanner@@QAEHH@Z ; CScanner::GetNumber

; 228  : 		pProperty->dwAirJump			= scanner.GetNumber();

  005aa	6a 00		 push	 0
  005ac	8d 8d 88 e0 ff
	ff		 lea	 ecx, DWORD PTR _scanner$[ebp]
  005b2	89 86 14 01 00
	00		 mov	 DWORD PTR [esi+276], eax
  005b8	e8 00 00 00 00	 call	 ?GetNumber@CScanner@@QAEHH@Z ; CScanner::GetNumber

; 229  : 		pProperty->bTaming				= scanner.GetNumber();

  005bd	6a 00		 push	 0
  005bf	8d 8d 88 e0 ff
	ff		 lea	 ecx, DWORD PTR _scanner$[ebp]
  005c5	89 86 18 01 00
	00		 mov	 DWORD PTR [esi+280], eax
  005cb	e8 00 00 00 00	 call	 ?GetNumber@CScanner@@QAEHH@Z ; CScanner::GetNumber

; 230  : 		pProperty->dwResisMgic			= scanner.GetNumber();

  005d0	6a 00		 push	 0
  005d2	8d 8d 88 e0 ff
	ff		 lea	 ecx, DWORD PTR _scanner$[ebp]
  005d8	89 86 1c 01 00
	00		 mov	 DWORD PTR [esi+284], eax
  005de	e8 00 00 00 00	 call	 ?GetNumber@CScanner@@QAEHH@Z ; CScanner::GetNumber

; 231  : 
; 232  : 		pProperty->nResistElecricity	= (int)(scanner.GetFloat() * 100.0f);

  005e3	6a 00		 push	 0
  005e5	8d 8d 88 e0 ff
	ff		 lea	 ecx, DWORD PTR _scanner$[ebp]
  005eb	89 86 20 01 00
	00		 mov	 DWORD PTR [esi+288], eax
  005f1	e8 00 00 00 00	 call	 ?GetFloat@CScanner@@QAEMH@Z ; CScanner::GetFloat
  005f6	d8 0d 00 00 00
	00		 fmul	 DWORD PTR __real@42c80000

; 233  : 		pProperty->nResistFire			= (int)(scanner.GetFloat() * 100.0f);

  005fc	8d 8d 88 e0 ff
	ff		 lea	 ecx, DWORD PTR _scanner$[ebp]
  00602	6a 00		 push	 0
  00604	d9 9d 84 e0 ff
	ff		 fstp	 DWORD PTR tv2181[ebp]
  0060a	f3 0f 2c 85 84
	e0 ff ff	 cvttss2si eax, DWORD PTR tv2181[ebp]
  00612	89 86 24 01 00
	00		 mov	 DWORD PTR [esi+292], eax
  00618	e8 00 00 00 00	 call	 ?GetFloat@CScanner@@QAEMH@Z ; CScanner::GetFloat
  0061d	d8 0d 00 00 00
	00		 fmul	 DWORD PTR __real@42c80000

; 234  : 		pProperty->nResistWind			= (int)(scanner.GetFloat() * 100.0f);

  00623	8d 8d 88 e0 ff
	ff		 lea	 ecx, DWORD PTR _scanner$[ebp]
  00629	6a 00		 push	 0
  0062b	d9 9d 84 e0 ff
	ff		 fstp	 DWORD PTR tv2177[ebp]
  00631	f3 0f 2c 85 84
	e0 ff ff	 cvttss2si eax, DWORD PTR tv2177[ebp]
  00639	89 86 2c 01 00
	00		 mov	 DWORD PTR [esi+300], eax
  0063f	e8 00 00 00 00	 call	 ?GetFloat@CScanner@@QAEMH@Z ; CScanner::GetFloat
  00644	d8 0d 00 00 00
	00		 fmul	 DWORD PTR __real@42c80000

; 235  : 		pProperty->nResistWater			= (int)(scanner.GetFloat() * 100.0f);

  0064a	8d 8d 88 e0 ff
	ff		 lea	 ecx, DWORD PTR _scanner$[ebp]
  00650	6a 00		 push	 0
  00652	d9 9d 84 e0 ff
	ff		 fstp	 DWORD PTR tv2173[ebp]
  00658	f3 0f 2c 85 84
	e0 ff ff	 cvttss2si eax, DWORD PTR tv2173[ebp]
  00660	89 86 30 01 00
	00		 mov	 DWORD PTR [esi+304], eax
  00666	e8 00 00 00 00	 call	 ?GetFloat@CScanner@@QAEMH@Z ; CScanner::GetFloat
  0066b	d8 0d 00 00 00
	00		 fmul	 DWORD PTR __real@42c80000

; 236  : 		pProperty->nResistEarth			= (int)(scanner.GetFloat() * 100.0f);

  00671	8d 8d 88 e0 ff
	ff		 lea	 ecx, DWORD PTR _scanner$[ebp]
  00677	6a 00		 push	 0
  00679	d9 9d 84 e0 ff
	ff		 fstp	 DWORD PTR tv2169[ebp]
  0067f	f3 0f 2c 85 84
	e0 ff ff	 cvttss2si eax, DWORD PTR tv2169[ebp]
  00687	89 86 34 01 00
	00		 mov	 DWORD PTR [esi+308], eax
  0068d	e8 00 00 00 00	 call	 ?GetFloat@CScanner@@QAEMH@Z ; CScanner::GetFloat
  00692	d8 0d 00 00 00
	00		 fmul	 DWORD PTR __real@42c80000

; 237  : 
; 238  : 		pProperty->dwCash				= scanner.GetNumber();

  00698	8d 8d 88 e0 ff
	ff		 lea	 ecx, DWORD PTR _scanner$[ebp]
  0069e	6a 00		 push	 0
  006a0	d9 9d 84 e0 ff
	ff		 fstp	 DWORD PTR tv2165[ebp]
  006a6	f3 0f 2c 85 84
	e0 ff ff	 cvttss2si eax, DWORD PTR tv2165[ebp]
  006ae	89 86 38 01 00
	00		 mov	 DWORD PTR [esi+312], eax
  006b4	e8 00 00 00 00	 call	 ?GetNumber@CScanner@@QAEHH@Z ; CScanner::GetNumber

; 239  : 		pProperty->dwSourceMaterial		= scanner.GetNumber();

  006b9	6a 00		 push	 0
  006bb	8d 8d 88 e0 ff
	ff		 lea	 ecx, DWORD PTR _scanner$[ebp]
  006c1	89 86 3c 01 00
	00		 mov	 DWORD PTR [esi+316], eax
  006c7	e8 00 00 00 00	 call	 ?GetNumber@CScanner@@QAEHH@Z ; CScanner::GetNumber

; 240  : 		pProperty->dwMaterialAmount		= scanner.GetNumber();

  006cc	6a 00		 push	 0
  006ce	8d 8d 88 e0 ff
	ff		 lea	 ecx, DWORD PTR _scanner$[ebp]
  006d4	89 86 40 01 00
	00		 mov	 DWORD PTR [esi+320], eax
  006da	e8 00 00 00 00	 call	 ?GetNumber@CScanner@@QAEHH@Z ; CScanner::GetNumber

; 241  : 		pProperty->dwCohesion			= scanner.GetNumber();

  006df	6a 00		 push	 0
  006e1	8d 8d 88 e0 ff
	ff		 lea	 ecx, DWORD PTR _scanner$[ebp]
  006e7	89 86 44 01 00
	00		 mov	 DWORD PTR [esi+324], eax
  006ed	e8 00 00 00 00	 call	 ?GetNumber@CScanner@@QAEHH@Z ; CScanner::GetNumber

; 242  : 		pProperty->dwHoldingTime		= scanner.GetNumber();

  006f2	6a 00		 push	 0
  006f4	8d 8d 88 e0 ff
	ff		 lea	 ecx, DWORD PTR _scanner$[ebp]
  006fa	89 86 48 01 00
	00		 mov	 DWORD PTR [esi+328], eax
  00700	e8 00 00 00 00	 call	 ?GetNumber@CScanner@@QAEHH@Z ; CScanner::GetNumber

; 243  : 		pProperty->dwCorrectionValue	= scanner.GetNumber();

  00705	6a 00		 push	 0
  00707	8d 8d 88 e0 ff
	ff		 lea	 ecx, DWORD PTR _scanner$[ebp]
  0070d	89 86 4c 01 00
	00		 mov	 DWORD PTR [esi+332], eax
  00713	e8 00 00 00 00	 call	 ?GetNumber@CScanner@@QAEHH@Z ; CScanner::GetNumber
; File C:\IAGOS\server\v18\Source\Source\_Common\Scanner.h

; 86   : 	EXPINTEGER		GetExpInteger(  BOOL bComma = FALSE )	{ return GetInt64( bComma ); }

  00718	6a 00		 push	 0
  0071a	8d 8d 88 e0 ff
	ff		 lea	 ecx, DWORD PTR _scanner$[ebp]
; File C:\IAGOS\server\v18\Source\Source\_Common\ProjectCmn.cpp

; 243  : 		pProperty->dwCorrectionValue	= scanner.GetNumber();

  00720	89 86 50 01 00
	00		 mov	 DWORD PTR [esi+336], eax
; File C:\IAGOS\server\v18\Source\Source\_Common\Scanner.h

; 86   : 	EXPINTEGER		GetExpInteger(  BOOL bComma = FALSE )	{ return GetInt64( bComma ); }

  00726	e8 00 00 00 00	 call	 ?GetInt64@CScanner@@QAE_JH@Z ; CScanner::GetInt64
; File C:\IAGOS\server\v18\Source\Source\_Common\ProjectCmn.cpp

; 244  : 		pProperty->nExpValue			= scanner.GetExpInteger();

  0072b	89 86 58 01 00
	00		 mov	 DWORD PTR [esi+344], eax

; 245  : 		pProperty->nFxpValue			= scanner.GetNumber();

  00731	8d 8d 88 e0 ff
	ff		 lea	 ecx, DWORD PTR _scanner$[ebp]
  00737	89 96 5c 01 00
	00		 mov	 DWORD PTR [esi+348], edx
  0073d	6a 00		 push	 0
  0073f	e8 00 00 00 00	 call	 ?GetNumber@CScanner@@QAEHH@Z ; CScanner::GetNumber

; 246  : 		pProperty->nBodyState			= scanner.GetNumber();

  00744	6a 00		 push	 0
  00746	8d 8d 88 e0 ff
	ff		 lea	 ecx, DWORD PTR _scanner$[ebp]
  0074c	89 86 60 01 00
	00		 mov	 DWORD PTR [esi+352], eax
  00752	e8 00 00 00 00	 call	 ?GetNumber@CScanner@@QAEHH@Z ; CScanner::GetNumber

; 247  : 		pProperty->dwAddAbility			= scanner.GetNumber();

  00757	6a 00		 push	 0
  00759	8d 8d 88 e0 ff
	ff		 lea	 ecx, DWORD PTR _scanner$[ebp]
  0075f	89 86 64 01 00
	00		 mov	 DWORD PTR [esi+356], eax
  00765	e8 00 00 00 00	 call	 ?GetNumber@CScanner@@QAEHH@Z ; CScanner::GetNumber

; 248  : 		pProperty->bKillable			= scanner.GetNumber();

  0076a	6a 00		 push	 0
  0076c	8d 8d 88 e0 ff
	ff		 lea	 ecx, DWORD PTR _scanner$[ebp]
  00772	89 86 68 01 00
	00		 mov	 DWORD PTR [esi+360], eax
  00778	e8 00 00 00 00	 call	 ?GetNumber@CScanner@@QAEHH@Z ; CScanner::GetNumber

; 249  : 		
; 250  : 		pProperty->dwVirtItem[0]		= scanner.GetNumber();

  0077d	6a 00		 push	 0
  0077f	8d 8d 88 e0 ff
	ff		 lea	 ecx, DWORD PTR _scanner$[ebp]
  00785	89 86 6c 01 00
	00		 mov	 DWORD PTR [esi+364], eax
  0078b	e8 00 00 00 00	 call	 ?GetNumber@CScanner@@QAEHH@Z ; CScanner::GetNumber

; 251  : 		pProperty->dwVirtItem[1]		= scanner.GetNumber();

  00790	6a 00		 push	 0
  00792	8d 8d 88 e0 ff
	ff		 lea	 ecx, DWORD PTR _scanner$[ebp]
  00798	89 86 70 01 00
	00		 mov	 DWORD PTR [esi+368], eax
  0079e	e8 00 00 00 00	 call	 ?GetNumber@CScanner@@QAEHH@Z ; CScanner::GetNumber

; 252  : 		pProperty->dwVirtItem[2]		= scanner.GetNumber();

  007a3	6a 00		 push	 0
  007a5	8d 8d 88 e0 ff
	ff		 lea	 ecx, DWORD PTR _scanner$[ebp]
  007ab	89 86 74 01 00
	00		 mov	 DWORD PTR [esi+372], eax
  007b1	e8 00 00 00 00	 call	 ?GetNumber@CScanner@@QAEHH@Z ; CScanner::GetNumber

; 253  : 		pProperty->bVirtType[0]			= scanner.GetNumber();

  007b6	6a 00		 push	 0
  007b8	8d 8d 88 e0 ff
	ff		 lea	 ecx, DWORD PTR _scanner$[ebp]
  007be	89 86 78 01 00
	00		 mov	 DWORD PTR [esi+376], eax
  007c4	e8 00 00 00 00	 call	 ?GetNumber@CScanner@@QAEHH@Z ; CScanner::GetNumber

; 254  : 		pProperty->bVirtType[1]			= scanner.GetNumber();

  007c9	6a 00		 push	 0
  007cb	8d 8d 88 e0 ff
	ff		 lea	 ecx, DWORD PTR _scanner$[ebp]
  007d1	89 86 7c 01 00
	00		 mov	 DWORD PTR [esi+380], eax
  007d7	e8 00 00 00 00	 call	 ?GetNumber@CScanner@@QAEHH@Z ; CScanner::GetNumber

; 255  : 		pProperty->bVirtType[2]			= scanner.GetNumber();

  007dc	6a 00		 push	 0
  007de	8d 8d 88 e0 ff
	ff		 lea	 ecx, DWORD PTR _scanner$[ebp]
  007e4	89 86 80 01 00
	00		 mov	 DWORD PTR [esi+384], eax
  007ea	e8 00 00 00 00	 call	 ?GetNumber@CScanner@@QAEHH@Z ; CScanner::GetNumber

; 256  : 
; 257  : 		pProperty->dwSndAtk1			= scanner.GetNumber();

  007ef	6a 00		 push	 0
  007f1	8d 8d 88 e0 ff
	ff		 lea	 ecx, DWORD PTR _scanner$[ebp]
  007f7	89 86 84 01 00
	00		 mov	 DWORD PTR [esi+388], eax
  007fd	e8 00 00 00 00	 call	 ?GetNumber@CScanner@@QAEHH@Z ; CScanner::GetNumber

; 258  : 		pProperty->dwSndAtk2 			= scanner.GetNumber();

  00802	6a 00		 push	 0
  00804	8d 8d 88 e0 ff
	ff		 lea	 ecx, DWORD PTR _scanner$[ebp]
  0080a	89 86 88 01 00
	00		 mov	 DWORD PTR [esi+392], eax
  00810	e8 00 00 00 00	 call	 ?GetNumber@CScanner@@QAEHH@Z ; CScanner::GetNumber

; 259  : 
; 260  : 		pProperty->dwSndDie1 			= scanner.GetNumber();

  00815	6a 00		 push	 0
  00817	8d 8d 88 e0 ff
	ff		 lea	 ecx, DWORD PTR _scanner$[ebp]
  0081d	89 86 8c 01 00
	00		 mov	 DWORD PTR [esi+396], eax
  00823	e8 00 00 00 00	 call	 ?GetNumber@CScanner@@QAEHH@Z ; CScanner::GetNumber

; 261  : 		pProperty->dwSndDie2 			= scanner.GetNumber();

  00828	6a 00		 push	 0
  0082a	8d 8d 88 e0 ff
	ff		 lea	 ecx, DWORD PTR _scanner$[ebp]
  00830	89 86 90 01 00
	00		 mov	 DWORD PTR [esi+400], eax
  00836	e8 00 00 00 00	 call	 ?GetNumber@CScanner@@QAEHH@Z ; CScanner::GetNumber

; 262  : 
; 263  : 		pProperty->dwSndDmg1 			= scanner.GetNumber();

  0083b	6a 00		 push	 0
  0083d	8d 8d 88 e0 ff
	ff		 lea	 ecx, DWORD PTR _scanner$[ebp]
  00843	89 86 94 01 00
	00		 mov	 DWORD PTR [esi+404], eax
  00849	e8 00 00 00 00	 call	 ?GetNumber@CScanner@@QAEHH@Z ; CScanner::GetNumber

; 264  : 		pProperty->dwSndDmg2 			= scanner.GetNumber();

  0084e	6a 00		 push	 0
  00850	8d 8d 88 e0 ff
	ff		 lea	 ecx, DWORD PTR _scanner$[ebp]
  00856	89 86 98 01 00
	00		 mov	 DWORD PTR [esi+408], eax
  0085c	e8 00 00 00 00	 call	 ?GetNumber@CScanner@@QAEHH@Z ; CScanner::GetNumber

; 265  : 		pProperty->dwSndDmg3 			= scanner.GetNumber();

  00861	6a 00		 push	 0
  00863	8d 8d 88 e0 ff
	ff		 lea	 ecx, DWORD PTR _scanner$[ebp]
  00869	89 86 9c 01 00
	00		 mov	 DWORD PTR [esi+412], eax
  0086f	e8 00 00 00 00	 call	 ?GetNumber@CScanner@@QAEHH@Z ; CScanner::GetNumber

; 266  : 
; 267  : 		pProperty->dwSndIdle1 			= scanner.GetNumber();

  00874	6a 00		 push	 0
  00876	8d 8d 88 e0 ff
	ff		 lea	 ecx, DWORD PTR _scanner$[ebp]
  0087c	89 86 a0 01 00
	00		 mov	 DWORD PTR [esi+416], eax
  00882	e8 00 00 00 00	 call	 ?GetNumber@CScanner@@QAEHH@Z ; CScanner::GetNumber

; 268  : 		pProperty->dwSndIdle2 			= scanner.GetNumber();

  00887	6a 00		 push	 0
  00889	8d 8d 88 e0 ff
	ff		 lea	 ecx, DWORD PTR _scanner$[ebp]
  0088f	89 86 a4 01 00
	00		 mov	 DWORD PTR [esi+420], eax
  00895	e8 00 00 00 00	 call	 ?GetNumber@CScanner@@QAEHH@Z ; CScanner::GetNumber

; 269  : 
; 270  : 
; 271  : 		scanner.GetToken();

  0089a	6a 00		 push	 0
  0089c	8d 8d 88 e0 ff
	ff		 lea	 ecx, DWORD PTR _scanner$[ebp]
  008a2	89 86 a8 01 00
	00		 mov	 DWORD PTR [esi+424], eax
  008a8	e8 00 00 00 00	 call	 ?GetToken@CScript@@UAEHH@Z ; CScript::GetToken

; 272  : 
; 273  : #ifdef __S1108_BACK_END_SYSTEM
; 274  : 		pProperty->m_fHitPoint_Rate = 1.0f;		

  008ad	c7 86 50 02 00
	00 00 00 80 3f	 mov	 DWORD PTR [esi+592], 1065353216 ; 3f800000H

; 275  : 		pProperty->m_fAttackPower_Rate = 1.0f;

  008b7	c7 86 54 02 00
	00 00 00 80 3f	 mov	 DWORD PTR [esi+596], 1065353216 ; 3f800000H

; 276  : 		pProperty->m_fDefence_Rate = 1.0f;		

  008c1	c7 86 58 02 00
	00 00 00 80 3f	 mov	 DWORD PTR [esi+600], 1065353216 ; 3f800000H

; 277  : 		pProperty->m_fExp_Rate = 1.0f;			

  008cb	c7 86 5c 02 00
	00 00 00 80 3f	 mov	 DWORD PTR [esi+604], 1065353216 ; 3f800000H

; 278  : 		pProperty->m_fItemDrop_Rate = 1.0f;

  008d5	c7 86 60 02 00
	00 00 00 80 3f	 mov	 DWORD PTR [esi+608], 1065353216 ; 3f800000H

; 279  : 		pProperty->m_fPenya_Rate = 1.0f;			

  008df	c7 86 64 02 00
	00 00 00 80 3f	 mov	 DWORD PTR [esi+612], 1065353216 ; 3f800000H

; 280  : 		pProperty->m_bRate = FALSE;

  008e9	c7 86 68 02 00
	00 00 00 00 00	 mov	 DWORD PTR [esi+616], 0
$LN233@LoadPropMo:

; 129  : 	int old;
; 130  : 	while( 1 )
; 131  : 	{
; 132  : 		old = i;
; 133  : 		i = scanner.GetNumber();		// id

  008f3	6a 00		 push	 0
  008f5	8d 8d 88 e0 ff
	ff		 lea	 ecx, DWORD PTR _scanner$[ebp]
  008fb	e8 00 00 00 00	 call	 ?GetNumber@CScanner@@QAEHH@Z ; CScanner::GetNumber

; 134  : 		if( scanner.tok == FINISHED )

  00900	83 bd cc e8 ff
	ff 15		 cmp	 DWORD PTR _scanner$[ebp+2116], 21 ; 00000015H
  00907	8b f8		 mov	 edi, eax
  00909	89 85 74 e0 ff
	ff		 mov	 DWORD PTR _i$1$[ebp], eax
  0090f	74 45		 je	 SHORT $LN228@LoadPropMo
  00911	8b c8		 mov	 ecx, eax
  00913	8b f0		 mov	 esi, eax
  00915	8b d0		 mov	 edx, eax
  00917	e9 c4 f7 ff ff	 jmp	 $LL2@LoadPropMo
$LN250@LoadPropMo:

; 143  : 			return FALSE;
; 144  : 		}
; 145  : 
; 146  : 		if( !checker.insert( i ).second )	// idÁßşąĂĽĹ© 
; 147  : 		{
; 148  : 			Error( "Last read:%s, ID:%d is duplicated. ÄĂ·łŔĚ ąĐ·Áµµ ŔĚ·±żˇ·Ż°ˇ ł­´Ů. FILE:%s\n", szLastName, i, lpszFileName );

  0091c	ff b5 70 e0 ff
	ff		 push	 DWORD PTR _lpszFileName$GSCopy$1$[ebp]
  00922	8d 85 f0 fe ff
	ff		 lea	 eax, DWORD PTR _szLastName$[ebp]
  00928	57		 push	 edi
  00929	50		 push	 eax
  0092a	68 00 00 00 00	 push	 OFFSET ??_C@_0EL@DNFECMCM@Last?5read?3?$CFs?0?5ID?3?$CFd?5is?5duplicat@
  0092f	e8 00 00 00 00	 call	 ?Error@@YAPBDPBDZZ	; Error
  00934	83 c4 10	 add	 esp, 16			; 00000010H
  00937	33 f6		 xor	 esi, esi
  00939	e9 8f 00 00 00	 jmp	 $LN20@LoadPropMo
$LN229@LoadPropMo:

; 141  : 		{
; 142  : 			Error( "too many mover property or invalid id:%d FILE:%s\n", i, lpszFileName );

  0093e	ff b5 70 e0 ff
	ff		 push	 DWORD PTR _lpszFileName$GSCopy$1$[ebp]
  00944	57		 push	 edi
  00945	68 00 00 00 00	 push	 OFFSET ??_C@_0DC@PMFBALLG@too?5many?5mover?5property?5or?5inva@
  0094a	e8 00 00 00 00	 call	 ?Error@@YAPBDPBDZZ	; Error
  0094f	83 c4 0c	 add	 esp, 12			; 0000000cH
  00952	33 f6		 xor	 esi, esi
  00954	eb 77		 jmp	 SHORT $LN20@LoadPropMo
$LN228@LoadPropMo:

; 281  : #endif // __S1108_BACK_END_SYSTEM
; 282  : 	}
; 283  : 
; 284  : 	if( checker.size() > 0 )

  00956	83 bd 80 e0 ff
	ff 00		 cmp	 DWORD PTR _checker$[ebp+4], 0
  0095d	76 69		 jbe	 SHORT $LN12@LoadPropMo
; File C:\Program Files\Microsoft Visual Studio\2022\Professional\VC\Tools\MSVC\14.44.35207\include\xutility

; 1764 :         _BidIt _Tmp = current;

  0095f	8b 8d 7c e0 ff
	ff		 mov	 ecx, DWORD PTR _checker$[ebp]
; File C:\Program Files\Microsoft Visual Studio\2022\Professional\VC\Tools\MSVC\14.44.35207\include\xtree

; 71   :         if (_Ptr->_Isnil) {

  00965	80 79 0d 00	 cmp	 BYTE PTR [ecx+13], 0
  00969	74 05		 je	 SHORT $LN201@LoadPropMo

; 72   :             _Ptr = _Ptr->_Right; // end() ==> rightmost

  0096b	8b 41 08	 mov	 eax, DWORD PTR [ecx+8]
  0096e	eb 4b		 jmp	 SHORT $LN210@LoadPropMo
$LN201@LoadPropMo:

; 73   :         } else if (_Ptr->_Left->_Isnil) { // climb looking for left subtree

  00970	8b 01		 mov	 eax, DWORD PTR [ecx]
  00972	80 78 0d 00	 cmp	 BYTE PTR [eax+13], 0
  00976	74 27		 je	 SHORT $LN203@LoadPropMo

; 74   :             _Nodeptr _Pnode;
; 75   :             while (!(_Pnode = _Ptr->_Parent)->_Isnil && _Ptr == _Pnode->_Left) {

  00978	8b 41 04	 mov	 eax, DWORD PTR [ecx+4]
  0097b	80 78 0d 00	 cmp	 BYTE PTR [eax+13], 0
  0097f	75 15		 jne	 SHORT $LN251@LoadPropMo
  00981	8b d1		 mov	 edx, ecx
$LL199@LoadPropMo:
  00983	8b f0		 mov	 esi, eax
  00985	3b 10		 cmp	 edx, DWORD PTR [eax]
  00987	75 0d		 jne	 SHORT $LN251@LoadPropMo

; 76   :                 _Ptr = _Pnode; // ==> parent while left subtree

  00989	8b c8		 mov	 ecx, eax
  0098b	8b d6		 mov	 edx, esi
  0098d	8b 40 04	 mov	 eax, DWORD PTR [eax+4]
  00990	80 78 0d 00	 cmp	 BYTE PTR [eax+13], 0
  00994	74 ed		 je	 SHORT $LL199@LoadPropMo
$LN251@LoadPropMo:

; 77   :             }
; 78   : 
; 79   :             if (!_Ptr->_Isnil) { // decrement non-begin()
; 80   :                 _Ptr = _Pnode; // ==> parent if not head
; 81   :             }
; 82   :         } else {

  00996	80 79 0d 00	 cmp	 BYTE PTR [ecx+13], 0
  0099a	0f 45 c1	 cmovne	 eax, ecx
  0099d	eb 1c		 jmp	 SHORT $LN210@LoadPropMo
$LN203@LoadPropMo:

; 468  :         while (!_Pnode->_Right->_Isnil) {

  0099f	8b 48 08	 mov	 ecx, DWORD PTR [eax+8]
  009a2	80 79 0d 00	 cmp	 BYTE PTR [ecx+13], 0
  009a6	75 13		 jne	 SHORT $LN210@LoadPropMo
  009a8	0f 1f 84 00 00
	00 00 00	 npad	 8
$LL209@LoadPropMo:

; 469  :             _Pnode = _Pnode->_Right;

  009b0	8b c1		 mov	 eax, ecx
  009b2	8b 48 08	 mov	 ecx, DWORD PTR [eax+8]
  009b5	80 79 0d 00	 cmp	 BYTE PTR [ecx+13], 0
  009b9	74 f5		 je	 SHORT $LL209@LoadPropMo
$LN210@LoadPropMo:
; File C:\IAGOS\server\v18\Source\Source\_Common\ProjectCmn.cpp

; 285  : 		m_nMoverPropSize = *(checker.rbegin()) + 1;

  009bb	8b 40 10	 mov	 eax, DWORD PTR [eax+16]
  009be	8b 8d 6c e0 ff
	ff		 mov	 ecx, DWORD PTR _this$GSCopy$1$[ebp]
  009c4	40		 inc	 eax
  009c5	89 41 58	 mov	 DWORD PTR [ecx+88], eax
$LN12@LoadPropMo:

; 286  : 	
; 287  : 	/*
; 288  : 	#ifdef __INTERNALSERVER
; 289  : 	{
; 290  : 		int nIndex = 20; // MI_AIBATT1 
; 291  : 		MoverProp* pProperty = &m_pPropMover[ nIndex ];
; 292  : 		pProperty->dwAI = AII_VER2_TYPE0; 
; 293  : 	}	
; 294  : 	#endif
; 295  : 	*/
; 296  : 
; 297  : 	return TRUE;

  009c8	be 01 00 00 00	 mov	 esi, 1
$LN20@LoadPropMo:
  009cd	8d 8d 7c e0 ff
	ff		 lea	 ecx, DWORD PTR _checker$[ebp]
  009d3	e8 00 00 00 00	 call	 ??1?$_Tree@V?$_Tset_traits@HU?$less@H@std@@V?$allocator@H@2@$0A@@std@@@std@@QAE@XZ ; std::_Tree<std::_Tset_traits<int,std::less<int>,std::allocator<int>,0> >::~_Tree<std::_Tset_traits<int,std::less<int>,std::allocator<int>,0> >
$LN217@LoadPropMo:
  009d8	8d 8d 88 e0 ff
	ff		 lea	 ecx, DWORD PTR _scanner$[ebp]
  009de	e8 00 00 00 00	 call	 ??1CScript@@UAE@XZ	; CScript::~CScript
  009e3	8b c6		 mov	 eax, esi

; 298  : }

  009e5	8b 4d f4	 mov	 ecx, DWORD PTR __$EHRec$[ebp]
  009e8	64 89 0d 00 00
	00 00		 mov	 DWORD PTR fs:0, ecx
  009ef	59		 pop	 ecx
  009f0	5f		 pop	 edi
  009f1	5e		 pop	 esi
  009f2	8b 4d f0	 mov	 ecx, DWORD PTR __$ArrayPad$[ebp]
  009f5	33 cd		 xor	 ecx, ebp
  009f7	e8 00 00 00 00	 call	 @__security_check_cookie@4
  009fc	8b e5		 mov	 esp, ebp
  009fe	5d		 pop	 ebp
  009ff	c2 04 00	 ret	 4
$LN230@LoadPropMo:
; File C:\Program Files\Microsoft Visual Studio\2022\Professional\VC\Tools\MSVC\14.44.35207\include\xtree

; 1649 :             _Throw_tree_length_error();

  00a02	e8 00 00 00 00	 call	 ?_Throw_tree_length_error@std@@YAXXZ ; std::_Throw_tree_length_error
$LN253@LoadPropMo:
  00a07	cc		 int	 3
_TEXT	ENDS
;	COMDAT text$x
text$x	SEGMENT
__unwindfunclet$?LoadPropMover@CProject@@QAEHPBD@Z$0:
  00000	8d 8d 88 e0 ff
	ff		 lea	 ecx, DWORD PTR _scanner$[ebp]
  00006	e9 00 00 00 00	 jmp	 ??1CScript@@UAE@XZ	; CScript::~CScript
__unwindfunclet$?LoadPropMover@CProject@@QAEHPBD@Z$1:
  0000b	8d 8d 7c e0 ff
	ff		 lea	 ecx, DWORD PTR _checker$[ebp]
  00011	e9 00 00 00 00	 jmp	 ??1?$set@HU?$less@H@std@@V?$allocator@H@2@@std@@QAE@XZ
__unwindfunclet$?LoadPropMover@CProject@@QAEHPBD@Z$6:
  00016	8d 8d 64 e0 ff
	ff		 lea	 ecx, DWORD PTR $T5[ebp]
  0001c	e9 00 00 00 00	 jmp	 ??1?$_Alloc_construct_ptr@V?$allocator@U?$_Tree_node@HPAX@std@@@std@@@std@@QAE@XZ ; std::_Alloc_construct_ptr<std::allocator<std::_Tree_node<int,void *> > >::~_Alloc_construct_ptr<std::allocator<std::_Tree_node<int,void *> > >
  00021	cc		 int	 3
  00022	cc		 int	 3
  00023	cc		 int	 3
  00024	cc		 int	 3
  00025	cc		 int	 3
__ehhandler$?LoadPropMover@CProject@@QAEHPBD@Z:
  00026	90		 npad	 1
  00027	90		 npad	 1
  00028	8b 54 24 08	 mov	 edx, DWORD PTR [esp+8]
  0002c	8d 42 0c	 lea	 eax, DWORD PTR [edx+12]
  0002f	8b 8a 64 e0 ff
	ff		 mov	 ecx, DWORD PTR [edx-8092]
  00035	33 c8		 xor	 ecx, eax
  00037	e8 00 00 00 00	 call	 @__security_check_cookie@4
  0003c	8b 4a fc	 mov	 ecx, DWORD PTR [edx-4]
  0003f	33 c8		 xor	 ecx, eax
  00041	e8 00 00 00 00	 call	 @__security_check_cookie@4
  00046	b8 00 00 00 00	 mov	 eax, OFFSET __ehfuncinfo$?LoadPropMover@CProject@@QAEHPBD@Z
  0004b	e9 00 00 00 00	 jmp	 ___CxxFrameHandler3
text$x	ENDS
?LoadPropMover@CProject@@QAEHPBD@Z ENDP			; CProject::LoadPropMover
; Function compile flags: /Ogtp
; File C:\IAGOS\server\v18\Source\Source\_Common\ProjectCmn.cpp
;	COMDAT ?LoadStrings@CProject@@QAEXXZ
_TEXT	SEGMENT
_lpszFiles$ = -8088					; size = 288
_s$2 = -7800						; size = 7784
__$ArrayPad$ = -16					; size = 4
__$EHRec$ = -12						; size = 12
?LoadStrings@CProject@@QAEXXZ PROC			; CProject::LoadStrings, COMDAT
; _this$ = ecx

; 936  : {

  00000	55		 push	 ebp
  00001	8b ec		 mov	 ebp, esp
  00003	6a ff		 push	 -1
  00005	68 00 00 00 00	 push	 __ehhandler$?LoadStrings@CProject@@QAEXXZ
  0000a	64 a1 00 00 00
	00		 mov	 eax, DWORD PTR fs:0
  00010	50		 push	 eax
  00011	b8 8c 1f 00 00	 mov	 eax, 8076		; 00001f8cH
  00016	e8 00 00 00 00	 call	 __chkstk
  0001b	a1 00 00 00 00	 mov	 eax, DWORD PTR ___security_cookie
  00020	33 c5		 xor	 eax, ebp
  00022	89 45 f0	 mov	 DWORD PTR __$ArrayPad$[ebp], eax
  00025	56		 push	 esi
  00026	57		 push	 edi
  00027	50		 push	 eax
  00028	8d 45 f4	 lea	 eax, DWORD PTR __$EHRec$[ebp]
  0002b	64 a3 00 00 00
	00		 mov	 DWORD PTR fs:0, eax
  00031	8b f9		 mov	 edi, ecx

; 937  : 	char* lpszFiles[] = {
; 938  : 		"character.txt.txt",

  00033	c7 85 68 e0 ff
	ff 00 00 00 00	 mov	 DWORD PTR _lpszFiles$[ebp], OFFSET ??_C@_0BC@MJDHHDNE@character?4txt?4txt@

; 939  : 		"character-etc.txt.txt",
; 940  : 		"character-school.txt.txt",
; 941  : 		"etc.txt.txt",
; 942  : 		"propCtrl.txt.txt",
; 943  : 		"propItem.txt.txt",
; 944  : 		"propItemEtc.txt.txt",
; 945  : 		"propKarma.txt.txt",
; 946  : 		"propMotion.txt.txt",
; 947  : 		"propMover.txt.txt",
; 948  : 		"propQuest.txt.txt",
; 949  : 		"propQuest-DungeonandPK.txt.txt",
; 950  : 		"propQuest-RequestBox2.txt.txt",
; 951  : 		"propQuest-RequestBox.txt.txt",
; 952  : 		"propQuest-Scenario.txt.txt",
; 953  : 		"propSkill.txt.txt",
; 954  : 		"propTroupeSkill.txt.txt",
; 955  : 		"resData.txt.txt",
; 956  : 		"textClient.txt.txt",
; 957  : 		"textEmotion.txt.txt",
; 958  : 		"world.txt.txt",
; 959  : 		"Client\\treeHelp.txt.txt",
; 960  : 		"Client\\tip.txt.txt",
; 961  : 		"Client\\PatchClient.txt.txt",
; 962  : 		"Client\\InstantHelp.txt.txt",
; 963  : 		"Client\\help.txt.txt",
; 964  : 		"Client\\Guide.txt.txt",
; 965  : #if __VER >= 12 // __MOD_TUTORIAL
; 966  : 		"Client\\tutorial.txt.txt",
; 967  : #endif
; 968  : //		"Client\\GameGuard.txt.txt",
; 969  : 		"Client\\faq.txt.txt",
; 970  : 		"World\\WdVolcane\\WdVolcane.txt.txt",
; 971  : 		"World\\WdMadrigal\\wdMadrigal.txt.txt",
; 972  : 		"World\\WdKebaras\\WdKebaras.txt.txt",
; 973  : 		"World\\WdGuildWar\\WdGuildWar.txt.txt",
; 974  : 		"World\\WdEvent01\\WdEvent01.txt.txt",
; 975  : 		"World\\DuMuscle\\DuMuscle.txt.txt",
; 976  : 		"World\\DuKrr\\DuKrr.txt.txt",
; 977  : 		"World\\DuFlMas\\DuFlMas.txt.txt",
; 978  : 		"World\\DuDaDk\\DuDaDk.txt.txt",
; 979  : 		"World\\DuBear\\DuBear.txt.txt",
; 980  : 		"World\\DuSaTemple\\DuSaTemple.txt.txt",
; 981  : 		"World\\DuSaTempleBoss\\DuSaTempleBoss.txt.txt"
; 982  : #if __VER >= 9	// __JEFF_9
; 983  : 		,"World\\WdVolcane\\WdVolcane.txt.txt"
; 984  : 		,"World\\WdVolcaneRed\\WdVolcaneRed.txt.txt"
; 985  : 		,"World\\WdVolcaneYellow\\WdVolcaneYellow.txt.txt"
; 986  : #endif	// __JEFF_9
; 987  : #ifdef __JEFF_11_4
; 988  : 		,"World\\WdArena\\WdArena.txt.txt"
; 989  : #endif	// __JEFF_11_4
; 990  : #if __VER >= 12 // __LORD
; 991  : 		,"lordskill.txt.txt"
; 992  : #endif	// __LORD
; 993  : #if __VER >= 12 // __SECRET_ROOM
; 994  : 		,"World\\WdHeaven01\\wdheaven01.txt.txt"
; 995  : 		,"World\\WdHeaven02\\wdheaven02.txt.txt"
; 996  : 		,"World\\WdHeaven03\\wdheaven03.txt.txt"
; 997  : 		,"World\\WdHeaven04\\wdheaven04.txt.txt"
; 998  : 		,"World\\WdHeaven05\\wdheaven05.txt.txt"
; 999  : 		,"World\\WdHeaven06\\wdheaven06.txt.txt"
; 1000 : 		,"World\\WdHeaven06_1\\wdheaven06_1.txt.txt"
; 1001 : #endif // __SECRET_ROOM
; 1002 : #if __VER >= 13 // __HONORABLE_TITLE
; 1003 : 		, "honorList.txt.txt"
; 1004 : #endif	// __HONORABLE_TITLE
; 1005 : #ifdef __AZRIA_1023
; 1006 : 		, "World\\WdCisland\\WdCisland.txt.txt"
; 1007 : #endif // __AZRIA_1023
; 1008 : #if __VER >= 14 // __INSTANCE_DUNGEON
; 1009 : 		, "World\\DuOminous\\duominous.txt.txt"
; 1010 : 		, "World\\DuOminous_1\\duominous_1.txt.txt"
; 1011 : #endif // __INSTANCE_DUNGEON
; 1012 : #if __VER >= 15 // __GUILD_HOUSE
; 1013 : 		, "World\\WdGuildhousesmall\\WdGuildhousesmall.txt.txt"		// ĽŇÇü ±ćµĺÇĎżě˝ş
; 1014 : 		, "World\\WdGuildhousemiddle\\WdGuildhousemiddle.txt.txt"	// ÁßÇü ±ćµĺÇĎżě˝ş
; 1015 : 		, "World\\WdGuildhouselarge\\WdGuildhouselarge.txt.txt"		// ´ëÇü ±ćµĺÇĎżě˝ş
; 1016 : 		, "World\\DuDreadfulCave\\DuDreadfulCave.txt.txt"			// Ăß°ˇ ŔÎ´ř(µĺ·ˇµĺÇ® ÄÉŔĚşę)
; 1017 : 		, "World\\DuRustia\\DuRustia.txt.txt"						// Ăß°ˇ ŔÎ´ř(·Ż˝şĆĽľĆ ŔĎąÝ)
; 1018 : 		, "World\\DuRustia_1\\DuRustia_1.txt.txt"					// Ăß°ˇ ŔÎ´ř(·Ż˝şĆĽľĆ ¸¶˝şĹÍ)
; 1019 : #endif // __GUILD_HOUSE
; 1020 : #ifdef __IMPROVE_MAP_SYSTEM
; 1021 : 		, "propMapComboBoxData.txt.txt"
; 1022 : #endif // __IMPROVE_MAP_SYSTEM
; 1023 : #if __VER >= 18
; 1024 : 		, "World\\WdRartesia\\WdRartesia.txt.txt"
; 1025 : 		, "World\\DuBehamah\\DuBehamah.txt.txt"
; 1026 : 		, "World\\DuKalgas\\DuKalgas.txt.txt"
; 1027 : 		, "World\\WdColosseum\\WdColosseum.txt.txt"
; 1028 : 		, "World\\DuUpresia\\DuUpresia.txt.txt"
; 1029 : 		, "World\\DuUpresia_1\\DuUpresia_1.txt.txt"
; 1030 : 		, "World\\DuSanpres\\DuSanpres.txt.txt"
; 1031 : 		, "World\\DuSanpres_1\\DuSanpres_1.txt.txt"
; 1032 : 		, "World\\DuHerneos\\DuHerneos.txt.txt"
; 1033 : 		, "World\\DuHerneos_1\\DuHerneos_1.txt.txt"
; 1034 : 		, "World\\WdFwc\\WdFwc.txt.txt"
; 1035 : #endif
; 1036 : 	};
; 1037 : 
; 1038 : 	int n = sizeof(lpszFiles) / sizeof(lpszFiles[0]);
; 1039 : 	for( int i=0; i<n; ++i )

  0003d	33 f6		 xor	 esi, esi
  0003f	c7 85 6c e0 ff
	ff 00 00 00 00	 mov	 DWORD PTR _lpszFiles$[ebp+4], OFFSET ??_C@_0BG@ODDMMEFI@character?9etc?4txt?4txt@
  00049	c7 85 70 e0 ff
	ff 00 00 00 00	 mov	 DWORD PTR _lpszFiles$[ebp+8], OFFSET ??_C@_0BJ@HMJLABEE@character?9school?4txt?4txt@
  00053	c7 85 74 e0 ff
	ff 00 00 00 00	 mov	 DWORD PTR _lpszFiles$[ebp+12], OFFSET ??_C@_0M@OGPAIIPO@etc?4txt?4txt@
  0005d	c7 85 78 e0 ff
	ff 00 00 00 00	 mov	 DWORD PTR _lpszFiles$[ebp+16], OFFSET ??_C@_0BB@BKCFBPCG@propCtrl?4txt?4txt@
  00067	c7 85 7c e0 ff
	ff 00 00 00 00	 mov	 DWORD PTR _lpszFiles$[ebp+20], OFFSET ??_C@_0BB@EIHFMDHG@propItem?4txt?4txt@
  00071	c7 85 80 e0 ff
	ff 00 00 00 00	 mov	 DWORD PTR _lpszFiles$[ebp+24], OFFSET ??_C@_0BE@CPNEMNP@propItemEtc?4txt?4txt@
  0007b	c7 85 84 e0 ff
	ff 00 00 00 00	 mov	 DWORD PTR _lpszFiles$[ebp+28], OFFSET ??_C@_0BC@EGADJKPG@propKarma?4txt?4txt@
  00085	c7 85 88 e0 ff
	ff 00 00 00 00	 mov	 DWORD PTR _lpszFiles$[ebp+32], OFFSET ??_C@_0BD@HCIMKPMD@propMotion?4txt?4txt@
  0008f	c7 85 8c e0 ff
	ff 00 00 00 00	 mov	 DWORD PTR _lpszFiles$[ebp+36], OFFSET ??_C@_0BC@DBHLDNCB@propMover?4txt?4txt@
  00099	c7 85 90 e0 ff
	ff 00 00 00 00	 mov	 DWORD PTR _lpszFiles$[ebp+40], OFFSET ??_C@_0BC@MDLPBBFP@propQuest?4txt?4txt@
  000a3	c7 85 94 e0 ff
	ff 00 00 00 00	 mov	 DWORD PTR _lpszFiles$[ebp+44], OFFSET ??_C@_0BP@EHFDCEFH@propQuest?9DungeonandPK?4txt?4txt@
  000ad	c7 85 98 e0 ff
	ff 00 00 00 00	 mov	 DWORD PTR _lpszFiles$[ebp+48], OFFSET ??_C@_0BO@JKKEFHJM@propQuest?9RequestBox2?4txt?4txt@
  000b7	c7 85 9c e0 ff
	ff 00 00 00 00	 mov	 DWORD PTR _lpszFiles$[ebp+52], OFFSET ??_C@_0BN@BEAOFAE@propQuest?9RequestBox?4txt?4txt@
  000c1	c7 85 a0 e0 ff
	ff 00 00 00 00	 mov	 DWORD PTR _lpszFiles$[ebp+56], OFFSET ??_C@_0BL@BIEBMGAK@propQuest?9Scenario?4txt?4txt@
  000cb	c7 85 a4 e0 ff
	ff 00 00 00 00	 mov	 DWORD PTR _lpszFiles$[ebp+60], OFFSET ??_C@_0BC@GAENMDAI@propSkill?4txt?4txt@
  000d5	c7 85 a8 e0 ff
	ff 00 00 00 00	 mov	 DWORD PTR _lpszFiles$[ebp+64], OFFSET ??_C@_0BI@COHEJFON@propTroupeSkill?4txt?4txt@
  000df	c7 85 ac e0 ff
	ff 00 00 00 00	 mov	 DWORD PTR _lpszFiles$[ebp+68], OFFSET ??_C@_0BA@LECIOODH@resData?4txt?4txt@
  000e9	c7 85 b0 e0 ff
	ff 00 00 00 00	 mov	 DWORD PTR _lpszFiles$[ebp+72], OFFSET ??_C@_0BD@CBKKCFIG@textClient?4txt?4txt@
  000f3	c7 85 b4 e0 ff
	ff 00 00 00 00	 mov	 DWORD PTR _lpszFiles$[ebp+76], OFFSET ??_C@_0BE@LIGMBFHD@textEmotion?4txt?4txt@
  000fd	c7 85 b8 e0 ff
	ff 00 00 00 00	 mov	 DWORD PTR _lpszFiles$[ebp+80], OFFSET ??_C@_0O@GENGBLDM@world?4txt?4txt@
  00107	c7 85 bc e0 ff
	ff 00 00 00 00	 mov	 DWORD PTR _lpszFiles$[ebp+84], OFFSET ??_C@_0BI@GDEOEGGM@Client?2treeHelp?4txt?4txt@
  00111	c7 85 c0 e0 ff
	ff 00 00 00 00	 mov	 DWORD PTR _lpszFiles$[ebp+88], OFFSET ??_C@_0BD@PCPCCCJB@Client?2tip?4txt?4txt@
  0011b	c7 85 c4 e0 ff
	ff 00 00 00 00	 mov	 DWORD PTR _lpszFiles$[ebp+92], OFFSET ??_C@_0BL@HJPLFEHN@Client?2PatchClient?4txt?4txt@
  00125	c7 85 c8 e0 ff
	ff 00 00 00 00	 mov	 DWORD PTR _lpszFiles$[ebp+96], OFFSET ??_C@_0BL@DHMHIAON@Client?2InstantHelp?4txt?4txt@
  0012f	c7 85 cc e0 ff
	ff 00 00 00 00	 mov	 DWORD PTR _lpszFiles$[ebp+100], OFFSET ??_C@_0BE@PCGFBKB@Client?2help?4txt?4txt@
  00139	c7 85 d0 e0 ff
	ff 00 00 00 00	 mov	 DWORD PTR _lpszFiles$[ebp+104], OFFSET ??_C@_0BF@MOKFFBND@Client?2Guide?4txt?4txt@
  00143	c7 85 d4 e0 ff
	ff 00 00 00 00	 mov	 DWORD PTR _lpszFiles$[ebp+108], OFFSET ??_C@_0BI@HPDDMKMM@Client?2tutorial?4txt?4txt@
  0014d	c7 85 d8 e0 ff
	ff 00 00 00 00	 mov	 DWORD PTR _lpszFiles$[ebp+112], OFFSET ??_C@_0BD@EHNANLIJ@Client?2faq?4txt?4txt@
  00157	c7 85 dc e0 ff
	ff 00 00 00 00	 mov	 DWORD PTR _lpszFiles$[ebp+116], OFFSET ??_C@_0CC@LNLMDCNI@World?2WdVolcane?2WdVolcane?4txt?4t@
  00161	c7 85 e0 e0 ff
	ff 00 00 00 00	 mov	 DWORD PTR _lpszFiles$[ebp+120], OFFSET ??_C@_0CE@LECANJG@World?2WdMadrigal?2wdMadrigal?4txt@
  0016b	c7 85 e4 e0 ff
	ff 00 00 00 00	 mov	 DWORD PTR _lpszFiles$[ebp+124], OFFSET ??_C@_0CC@OFJBPJBI@World?2WdKebaras?2WdKebaras?4txt?4t@
  00175	c7 85 e8 e0 ff
	ff 00 00 00 00	 mov	 DWORD PTR _lpszFiles$[ebp+128], OFFSET ??_C@_0CE@BLNGOAF@World?2WdGuildWar?2WdGuildWar?4txt@
  0017f	c7 85 ec e0 ff
	ff 00 00 00 00	 mov	 DWORD PTR _lpszFiles$[ebp+132], OFFSET ??_C@_0CC@PDPOCILP@World?2WdEvent01?2WdEvent01?4txt?4t@
  00189	c7 85 f0 e0 ff
	ff 00 00 00 00	 mov	 DWORD PTR _lpszFiles$[ebp+136], OFFSET ??_C@_0CA@CEIGPAD@World?2DuMuscle?2DuMuscle?4txt?4txt@
  00193	c7 85 f4 e0 ff
	ff 00 00 00 00	 mov	 DWORD PTR _lpszFiles$[ebp+140], OFFSET ??_C@_0BK@PFAKEDAL@World?2DuKrr?2DuKrr?4txt?4txt@
  0019d	c7 85 f8 e0 ff
	ff 00 00 00 00	 mov	 DWORD PTR _lpszFiles$[ebp+144], OFFSET ??_C@_0BO@OOCINCCB@World?2DuFlMas?2DuFlMas?4txt?4txt@
  001a7	c7 85 fc e0 ff
	ff 00 00 00 00	 mov	 DWORD PTR _lpszFiles$[ebp+148], OFFSET ??_C@_0BM@HLBNPGPD@World?2DuDaDk?2DuDaDk?4txt?4txt@
  001b1	c7 85 00 e1 ff
	ff 00 00 00 00	 mov	 DWORD PTR _lpszFiles$[ebp+152], OFFSET ??_C@_0BM@FGJOMPKG@World?2DuBear?2DuBear?4txt?4txt@
  001bb	c7 85 04 e1 ff
	ff 00 00 00 00	 mov	 DWORD PTR _lpszFiles$[ebp+156], OFFSET ??_C@_0CE@GNBHODLB@World?2DuSaTemple?2DuSaTemple?4txt@
  001c5	c7 85 08 e1 ff
	ff 00 00 00 00	 mov	 DWORD PTR _lpszFiles$[ebp+160], OFFSET ??_C@_0CM@MCGFEELL@World?2DuSaTempleBoss?2DuSaTemple@
  001cf	c7 85 0c e1 ff
	ff 00 00 00 00	 mov	 DWORD PTR _lpszFiles$[ebp+164], OFFSET ??_C@_0CC@LNLMDCNI@World?2WdVolcane?2WdVolcane?4txt?4t@
  001d9	c7 85 10 e1 ff
	ff 00 00 00 00	 mov	 DWORD PTR _lpszFiles$[ebp+168], OFFSET ??_C@_0CI@PPFFEENJ@World?2WdVolcaneRed?2WdVolcaneRed@
  001e3	c7 85 14 e1 ff
	ff 00 00 00 00	 mov	 DWORD PTR _lpszFiles$[ebp+172], OFFSET ??_C@_0CO@OHDLGMEL@World?2WdVolcaneYellow?2WdVolcane@
  001ed	c7 85 18 e1 ff
	ff 00 00 00 00	 mov	 DWORD PTR _lpszFiles$[ebp+176], OFFSET ??_C@_0BC@LLOPCCEG@lordskill?4txt?4txt@
  001f7	c7 85 1c e1 ff
	ff 00 00 00 00	 mov	 DWORD PTR _lpszFiles$[ebp+180], OFFSET ??_C@_0CE@MOAPONAE@World?2WdHeaven01?2wdheaven01?4txt@
  00201	c7 85 20 e1 ff
	ff 00 00 00 00	 mov	 DWORD PTR _lpszFiles$[ebp+184], OFFSET ??_C@_0CE@FOCGNEOE@World?2WdHeaven02?2wdheaven02?4txt@
  0020b	c7 85 24 e1 ff
	ff 00 00 00 00	 mov	 DWORD PTR _lpszFiles$[ebp+188], OFFSET ??_C@_0CE@CODODMEE@World?2WdHeaven03?2wdheaven03?4txt@
  00215	c7 85 28 e1 ff
	ff 00 00 00 00	 mov	 DWORD PTR _lpszFiles$[ebp+192], OFFSET ??_C@_0CE@KFAFKBGF@World?2WdHeaven04?2wdheaven04?4txt@
  0021f	c7 85 2c e1 ff
	ff 00 00 00 00	 mov	 DWORD PTR _lpszFiles$[ebp+196], OFFSET ??_C@_0CE@NFBNEJMF@World?2WdHeaven05?2wdheaven05?4txt@
  00229	c7 85 30 e1 ff
	ff 00 00 00 00	 mov	 DWORD PTR _lpszFiles$[ebp+200], OFFSET ??_C@_0CE@EFDEHACF@World?2WdHeaven06?2wdheaven06?4txt@
  00233	c7 85 34 e1 ff
	ff 00 00 00 00	 mov	 DWORD PTR _lpszFiles$[ebp+204], OFFSET ??_C@_0CI@KPKEAIHK@World?2WdHeaven06_1?2wdheaven06_1@
  0023d	c7 85 38 e1 ff
	ff 00 00 00 00	 mov	 DWORD PTR _lpszFiles$[ebp+208], OFFSET ??_C@_0BC@HFMDODCC@honorList?4txt?4txt@
  00247	c7 85 3c e1 ff
	ff 00 00 00 00	 mov	 DWORD PTR _lpszFiles$[ebp+212], OFFSET ??_C@_0CC@NFIHHMNA@World?2DuOminous?2duominous?4txt?4t@
  00251	c7 85 40 e1 ff
	ff 00 00 00 00	 mov	 DWORD PTR _lpszFiles$[ebp+216], OFFSET ??_C@_0CG@LMDELLIK@World?2DuOminous_1?2duominous_1?4t@
  0025b	c7 85 44 e1 ff
	ff 00 00 00 00	 mov	 DWORD PTR _lpszFiles$[ebp+220], OFFSET ??_C@_0DC@EKHBJCH@World?2WdGuildhousesmall?2WdGuild@
  00265	c7 85 48 e1 ff
	ff 00 00 00 00	 mov	 DWORD PTR _lpszFiles$[ebp+224], OFFSET ??_C@_0DE@MOIPIANB@World?2WdGuildhousemiddle?2WdGuil@
  0026f	c7 85 4c e1 ff
	ff 00 00 00 00	 mov	 DWORD PTR _lpszFiles$[ebp+228], OFFSET ??_C@_0DC@DDHCLEAB@World?2WdGuildhouselarge?2WdGuild@
  00279	c7 85 50 e1 ff
	ff 00 00 00 00	 mov	 DWORD PTR _lpszFiles$[ebp+232], OFFSET ??_C@_0CM@GLCDMCDN@World?2DuDreadfulCave?2DuDreadful@
  00283	c7 85 54 e1 ff
	ff 00 00 00 00	 mov	 DWORD PTR _lpszFiles$[ebp+236], OFFSET ??_C@_0CA@GOABAGCH@World?2DuRustia?2DuRustia?4txt?4txt@
  0028d	c7 85 58 e1 ff
	ff 00 00 00 00	 mov	 DWORD PTR _lpszFiles$[ebp+240], OFFSET ??_C@_0CE@LEEMOLAG@World?2DuRustia_1?2DuRustia_1?4txt@
  00297	c7 85 5c e1 ff
	ff 00 00 00 00	 mov	 DWORD PTR _lpszFiles$[ebp+244], OFFSET ??_C@_0CE@PPMPNJMF@World?2WdRartesia?2WdRartesia?4txt@
  002a1	c7 85 60 e1 ff
	ff 00 00 00 00	 mov	 DWORD PTR _lpszFiles$[ebp+248], OFFSET ??_C@_0CC@CIGPIJKO@World?2DuBehamah?2DuBehamah?4txt?4t@
  002ab	c7 85 64 e1 ff
	ff 00 00 00 00	 mov	 DWORD PTR _lpszFiles$[ebp+252], OFFSET ??_C@_0CA@MALBOJDP@World?2DuKalgas?2DuKalgas?4txt?4txt@
  002b5	c7 85 68 e1 ff
	ff 00 00 00 00	 mov	 DWORD PTR _lpszFiles$[ebp+256], OFFSET ??_C@_0CG@PJICLKPM@World?2WdColosseum?2WdColosseum?4t@
  002bf	c7 85 6c e1 ff
	ff 00 00 00 00	 mov	 DWORD PTR _lpszFiles$[ebp+260], OFFSET ??_C@_0CC@CMCNDHBE@World?2DuUpresia?2DuUpresia?4txt?4t@
  002c9	c7 85 70 e1 ff
	ff 00 00 00 00	 mov	 DWORD PTR _lpszFiles$[ebp+264], OFFSET ??_C@_0CG@JHJGPNIK@World?2DuUpresia_1?2DuUpresia_1?4t@
  002d3	c7 85 74 e1 ff
	ff 00 00 00 00	 mov	 DWORD PTR _lpszFiles$[ebp+268], OFFSET ??_C@_0CC@EDPKODAA@World?2DuSanpres?2DuSanpres?4txt?4t@
  002dd	c7 85 78 e1 ff
	ff 00 00 00 00	 mov	 DWORD PTR _lpszFiles$[ebp+272], OFFSET ??_C@_0CG@GDIDDAKI@World?2DuSanpres_1?2DuSanpres_1?4t@
  002e7	c7 85 7c e1 ff
	ff 00 00 00 00	 mov	 DWORD PTR _lpszFiles$[ebp+276], OFFSET ??_C@_0CC@DOBLAPJN@World?2DuHerneos?2DuHerneos?4txt?4t@
  002f1	c7 85 80 e1 ff
	ff 00 00 00 00	 mov	 DWORD PTR _lpszFiles$[ebp+280], OFFSET ??_C@_0CG@LHOKLPNN@World?2DuHerneos_1?2DuHerneos_1?4t@
  002fb	c7 85 84 e1 ff
	ff 00 00 00 00	 mov	 DWORD PTR _lpszFiles$[ebp+284], OFFSET ??_C@_0BK@GFFJLDEM@World?2WdFwc?2WdFwc?4txt?4txt@
  00305	66 66 66 0f 1f
	84 00 00 00 00
	00		 npad	 11
$LL4@LoadString:

; 1040 : 	{
; 1041 : 		CScript s;

  00310	6a 00		 push	 0
  00312	8d 8d 88 e1 ff
	ff		 lea	 ecx, DWORD PTR _s$2[ebp]
  00318	e8 00 00 00 00	 call	 ??0CScript@@QAE@H@Z	; CScript::CScript

; 1042 : 		if( s.Load( lpszFiles[i] ) == TRUE )

  0031d	6a 00		 push	 0
  0031f	6a 01		 push	 1
  00321	ff b4 b5 68 e0
	ff ff		 push	 DWORD PTR _lpszFiles$[ebp+esi*4]
  00328	8d 8d 88 e1 ff
	ff		 lea	 ecx, DWORD PTR _s$2[ebp]
  0032e	c7 45 fc 00 00
	00 00		 mov	 DWORD PTR __$EHRec$[ebp+8], 0
  00335	e8 00 00 00 00	 call	 ?Load@CScript@@QAEHPBDHH@Z ; CScript::Load
  0033a	83 f8 01	 cmp	 eax, 1
  0033d	75 0b		 jne	 SHORT $LN5@LoadString

; 1043 : 			s.LoadString();

  0033f	8d 8d 88 e1 ff
	ff		 lea	 ecx, DWORD PTR _s$2[ebp]
  00345	e8 00 00 00 00	 call	 ?LoadStringA@CScript@@QAEXXZ ; CScript::LoadStringA
$LN5@LoadString:

; 1044 : 	}		

  0034a	8d 8d 88 e1 ff
	ff		 lea	 ecx, DWORD PTR _s$2[ebp]
  00350	c7 45 fc ff ff
	ff ff		 mov	 DWORD PTR __$EHRec$[ebp+8], -1
  00357	e8 00 00 00 00	 call	 ??1CScript@@UAE@XZ	; CScript::~CScript
  0035c	46		 inc	 esi
  0035d	83 fe 48	 cmp	 esi, 72			; 00000048H
  00360	7c ae		 jl	 SHORT $LL4@LoadString

; 1045 : 
; 1046 : 	LoadText( "textClient.inc" );

  00362	68 00 00 00 00	 push	 OFFSET ??_C@_0P@PIAPDKAM@textClient?4inc@
  00367	8b cf		 mov	 ecx, edi
  00369	e8 00 00 00 00	 call	 ?LoadText@CProject@@QAEHPBD@Z ; CProject::LoadText

; 1047 : }

  0036e	8b 4d f4	 mov	 ecx, DWORD PTR __$EHRec$[ebp]
  00371	64 89 0d 00 00
	00 00		 mov	 DWORD PTR fs:0, ecx
  00378	59		 pop	 ecx
  00379	5f		 pop	 edi
  0037a	5e		 pop	 esi
  0037b	8b 4d f0	 mov	 ecx, DWORD PTR __$ArrayPad$[ebp]
  0037e	33 cd		 xor	 ecx, ebp
  00380	e8 00 00 00 00	 call	 @__security_check_cookie@4
  00385	8b e5		 mov	 esp, ebp
  00387	5d		 pop	 ebp
  00388	c3		 ret	 0
_TEXT	ENDS
;	COMDAT text$x
text$x	SEGMENT
__unwindfunclet$?LoadStrings@CProject@@QAEXXZ$0:
  00000	8d 8d 88 e1 ff
	ff		 lea	 ecx, DWORD PTR _s$2[ebp]
  00006	e9 00 00 00 00	 jmp	 ??1CScript@@UAE@XZ	; CScript::~CScript
  0000b	cc		 int	 3
  0000c	cc		 int	 3
  0000d	cc		 int	 3
  0000e	cc		 int	 3
  0000f	cc		 int	 3
__ehhandler$?LoadStrings@CProject@@QAEXXZ:
  00010	90		 npad	 1
  00011	90		 npad	 1
  00012	8b 54 24 08	 mov	 edx, DWORD PTR [esp+8]
  00016	8d 42 0c	 lea	 eax, DWORD PTR [edx+12]
  00019	8b 8a 68 e0 ff
	ff		 mov	 ecx, DWORD PTR [edx-8088]
  0001f	33 c8		 xor	 ecx, eax
  00021	e8 00 00 00 00	 call	 @__security_check_cookie@4
  00026	8b 4a fc	 mov	 ecx, DWORD PTR [edx-4]
  00029	33 c8		 xor	 ecx, eax
  0002b	e8 00 00 00 00	 call	 @__security_check_cookie@4
  00030	b8 00 00 00 00	 mov	 eax, OFFSET __ehfuncinfo$?LoadStrings@CProject@@QAEXXZ
  00035	e9 00 00 00 00	 jmp	 ___CxxFrameHandler3
text$x	ENDS
?LoadStrings@CProject@@QAEXXZ ENDP			; CProject::LoadStrings
; Function compile flags: /Ogtp
; File C:\IAGOS\server\v18\Source\Source\_Common\ProjectCmn.cpp
;	COMDAT ?LoadPreFiles@CProject@@QAEXXZ
_TEXT	SEGMENT
?LoadPreFiles@CProject@@QAEXXZ PROC			; CProject::LoadPreFiles, COMDAT
; _this$ = ecx

; 1094 : {

  00000	56		 push	 esi
  00001	8b f1		 mov	 esi, ecx

; 1095 : #ifdef __SECURITY_0628
; 1096 : #ifdef __CLIENT
; 1097 : 	CResFile::LoadAuthFile();
; 1098 : #endif	// __CLIENT
; 1099 : #endif	// __SECURITY_0628
; 1100 : 
; 1101 : 	LoadDefines();

  00003	e8 00 00 00 00	 call	 ?LoadDefines@CProject@@QAEXXZ ; CProject::LoadDefines

; 1102 : 	LoadStrings();

  00008	8b ce		 mov	 ecx, esi
  0000a	e8 00 00 00 00	 call	 ?LoadStrings@CProject@@QAEXXZ ; CProject::LoadStrings

; 1103 : 	
; 1104 : #ifdef __LANG_1013
; 1105 : 	CLangMan::GetInstance()->Load( "propLang.txt" );

  0000f	68 00 00 00 00	 push	 OFFSET ??_C@_0N@NGOJEGCM@propLang?4txt@
  00014	e8 00 00 00 00	 call	 ?GetInstance@CLangMan@@SAPAV1@XZ ; CLangMan::GetInstance
  00019	8b c8		 mov	 ecx, eax
  0001b	e8 00 00 00 00	 call	 ?Load@CLangMan@@QAEHPBD@Z ; CLangMan::Load
  00020	5e		 pop	 esi

; 1106 : #endif	// __LANG_1013
; 1107 : }

  00021	c3		 ret	 0
?LoadPreFiles@CProject@@QAEXXZ ENDP			; CProject::LoadPreFiles
_TEXT	ENDS
; Function compile flags: /Ogtp
; File C:\IAGOS\server\v18\Source\Source\_Common\ProjectCmn.cpp
;	COMDAT ?LoadDefines@CProject@@QAEXXZ
_TEXT	SEGMENT
_lpszDefines$ = -7876					; size = 76
_script$2 = -7800					; size = 7784
__$ArrayPad$ = -16					; size = 4
__$EHRec$ = -12						; size = 12
?LoadDefines@CProject@@QAEXXZ PROC			; CProject::LoadDefines, COMDAT
; _this$ = ecx

; 1050 : {

  00000	55		 push	 ebp
  00001	8b ec		 mov	 ebp, esp
  00003	6a ff		 push	 -1
  00005	68 00 00 00 00	 push	 __ehhandler$?LoadDefines@CProject@@QAEXXZ
  0000a	64 a1 00 00 00
	00		 mov	 eax, DWORD PTR fs:0
  00010	50		 push	 eax
  00011	b8 b8 1e 00 00	 mov	 eax, 7864		; 00001eb8H
  00016	e8 00 00 00 00	 call	 __chkstk
  0001b	a1 00 00 00 00	 mov	 eax, DWORD PTR ___security_cookie
  00020	33 c5		 xor	 eax, ebp
  00022	89 45 f0	 mov	 DWORD PTR __$ArrayPad$[ebp], eax
  00025	56		 push	 esi
  00026	50		 push	 eax
  00027	8d 45 f4	 lea	 eax, DWORD PTR __$EHRec$[ebp]
  0002a	64 a3 00 00 00
	00		 mov	 DWORD PTR fs:0, eax

; 1051 : 	char* lpszDefines[] = {
; 1052 : 		"define.h",

  00030	c7 85 3c e1 ff
	ff 00 00 00 00	 mov	 DWORD PTR _lpszDefines$[ebp], OFFSET ??_C@_08PCOCPGDD@define?4h@

; 1053 : 		"defineNeuz.h",
; 1054 : 		"defineQuest.h",
; 1055 : 		"defineJob.h",
; 1056 : 		"defineItem.h",
; 1057 : 		"defineWorld.h",
; 1058 : 		"defineItemkind.h",
; 1059 : 		"lang.h",
; 1060 : 		"defineObj.h",
; 1061 : 		"defineAttribute.h",
; 1062 : 		"defineSkill.h",
; 1063 : 		"defineText.h",
; 1064 : 		"defineSound.h",
; 1065 : 		"resdata.h",
; 1066 : 		"WndStyle.h"
; 1067 : #if __VER >= 12 // __LORD
; 1068 : 		, "definelordskill.h"
; 1069 : #endif	// __LORD
; 1070 : #if __VER >= 13 // __HONORABLE_TITLE
; 1071 : 		, "defineHonor.h"
; 1072 : #endif	// __HONORABLE_TITLE
; 1073 : #ifdef __IMPROVE_MAP_SYSTEM
; 1074 : 		, "ContinentDef.h"
; 1075 : 		, "defineMapComboBoxData.h"
; 1076 : #endif // __IMPROVE_MAP_SYSTEM
; 1077 : #if __VER >= 18
; 1078 : 		, "defineItemGrade.h"
; 1079 : 		, "defineItemType.h"
; 1080 : #endif
; 1081 : 	};
; 1082 : 	int n, i;
; 1083 : 
; 1084 : 	n = sizeof(lpszDefines) / sizeof(lpszDefines[0]);
; 1085 : 	for( i=0; i<n; ++i )

  0003a	33 f6		 xor	 esi, esi
  0003c	c7 85 40 e1 ff
	ff 00 00 00 00	 mov	 DWORD PTR _lpszDefines$[ebp+4], OFFSET ??_C@_0N@PBEDKAEK@defineNeuz?4h@
  00046	c7 85 44 e1 ff
	ff 00 00 00 00	 mov	 DWORD PTR _lpszDefines$[ebp+8], OFFSET ??_C@_0O@CHPIMLJG@defineQuest?4h@
  00050	c7 85 48 e1 ff
	ff 00 00 00 00	 mov	 DWORD PTR _lpszDefines$[ebp+12], OFFSET ??_C@_0M@FFCLKMF@defineJob?4h@
  0005a	c7 85 4c e1 ff
	ff 00 00 00 00	 mov	 DWORD PTR _lpszDefines$[ebp+16], OFFSET ??_C@_0N@FBEALHFO@defineItem?4h@
  00064	c7 85 50 e1 ff
	ff 00 00 00 00	 mov	 DWORD PTR _lpszDefines$[ebp+20], OFFSET ??_C@_0O@IOEDGEHO@defineWorld?4h@
  0006e	c7 85 54 e1 ff
	ff 00 00 00 00	 mov	 DWORD PTR _lpszDefines$[ebp+24], OFFSET ??_C@_0BB@NHAIBECF@defineItemkind?4h@
  00078	c7 85 58 e1 ff
	ff 00 00 00 00	 mov	 DWORD PTR _lpszDefines$[ebp+28], OFFSET ??_C@_06PCCJFGDM@lang?4h@
  00082	c7 85 5c e1 ff
	ff 00 00 00 00	 mov	 DWORD PTR _lpszDefines$[ebp+32], OFFSET ??_C@_0M@GILLMHCI@defineObj?4h@
  0008c	c7 85 60 e1 ff
	ff 00 00 00 00	 mov	 DWORD PTR _lpszDefines$[ebp+36], OFFSET ??_C@_0BC@CKDPDEGH@defineAttribute?4h@
  00096	c7 85 64 e1 ff
	ff 00 00 00 00	 mov	 DWORD PTR _lpszDefines$[ebp+40], OFFSET ??_C@_0O@FCODJECA@defineSkill?4h@
  000a0	c7 85 68 e1 ff
	ff 00 00 00 00	 mov	 DWORD PTR _lpszDefines$[ebp+44], OFFSET ??_C@_0N@CKKCNAEI@defineText?4h@
  000aa	c7 85 6c e1 ff
	ff 00 00 00 00	 mov	 DWORD PTR _lpszDefines$[ebp+48], OFFSET ??_C@_0O@GNMMAJFM@defineSound?4h@
  000b4	c7 85 70 e1 ff
	ff 00 00 00 00	 mov	 DWORD PTR _lpszDefines$[ebp+52], OFFSET ??_C@_09HGIMHIJB@resdata?4h@
  000be	c7 85 74 e1 ff
	ff 00 00 00 00	 mov	 DWORD PTR _lpszDefines$[ebp+56], OFFSET ??_C@_0L@CLDCCJPD@WndStyle?4h@
  000c8	c7 85 78 e1 ff
	ff 00 00 00 00	 mov	 DWORD PTR _lpszDefines$[ebp+60], OFFSET ??_C@_0BC@NCNNNPFL@definelordskill?4h@
  000d2	c7 85 7c e1 ff
	ff 00 00 00 00	 mov	 DWORD PTR _lpszDefines$[ebp+64], OFFSET ??_C@_0O@GNBOPHIK@defineHonor?4h@
  000dc	c7 85 80 e1 ff
	ff 00 00 00 00	 mov	 DWORD PTR _lpszDefines$[ebp+68], OFFSET ??_C@_0BC@OEKDBOEK@defineItemGrade?4h@
  000e6	c7 85 84 e1 ff
	ff 00 00 00 00	 mov	 DWORD PTR _lpszDefines$[ebp+72], OFFSET ??_C@_0BB@ONJJINID@defineItemType?4h@
$LL4@LoadDefine:

; 1086 : 	{
; 1087 : 		CScript script;

  000f0	6a 00		 push	 0
  000f2	8d 8d 88 e1 ff
	ff		 lea	 ecx, DWORD PTR _script$2[ebp]
  000f8	e8 00 00 00 00	 call	 ??0CScript@@QAE@H@Z	; CScript::CScript

; 1088 : 		if( script.Load( lpszDefines[i] ) == TRUE )

  000fd	6a 00		 push	 0
  000ff	6a 01		 push	 1
  00101	ff b4 b5 3c e1
	ff ff		 push	 DWORD PTR _lpszDefines$[ebp+esi*4]
  00108	8d 8d 88 e1 ff
	ff		 lea	 ecx, DWORD PTR _script$2[ebp]
  0010e	c7 45 fc 00 00
	00 00		 mov	 DWORD PTR __$EHRec$[ebp+8], 0
  00115	e8 00 00 00 00	 call	 ?Load@CScript@@QAEHPBDHH@Z ; CScript::Load
  0011a	83 f8 01	 cmp	 eax, 1
  0011d	75 0b		 jne	 SHORT $LN5@LoadDefine

; 1089 : 			script.PreScan();

  0011f	8d 8d 88 e1 ff
	ff		 lea	 ecx, DWORD PTR _script$2[ebp]
  00125	e8 00 00 00 00	 call	 ?PreScan@CScript@@QAEXXZ ; CScript::PreScan
$LN5@LoadDefine:

; 1090 : 	}	

  0012a	8d 8d 88 e1 ff
	ff		 lea	 ecx, DWORD PTR _script$2[ebp]
  00130	c7 45 fc ff ff
	ff ff		 mov	 DWORD PTR __$EHRec$[ebp+8], -1
  00137	e8 00 00 00 00	 call	 ??1CScript@@UAE@XZ	; CScript::~CScript
  0013c	46		 inc	 esi
  0013d	83 fe 13	 cmp	 esi, 19			; 00000013H
  00140	7c ae		 jl	 SHORT $LL4@LoadDefine

; 1091 : }

  00142	8b 4d f4	 mov	 ecx, DWORD PTR __$EHRec$[ebp]
  00145	64 89 0d 00 00
	00 00		 mov	 DWORD PTR fs:0, ecx
  0014c	59		 pop	 ecx
  0014d	5e		 pop	 esi
  0014e	8b 4d f0	 mov	 ecx, DWORD PTR __$ArrayPad$[ebp]
  00151	33 cd		 xor	 ecx, ebp
  00153	e8 00 00 00 00	 call	 @__security_check_cookie@4
  00158	8b e5		 mov	 esp, ebp
  0015a	5d		 pop	 ebp
  0015b	c3		 ret	 0
_TEXT	ENDS
;	COMDAT text$x
text$x	SEGMENT
__unwindfunclet$?LoadDefines@CProject@@QAEXXZ$0:
  00000	8d 8d 88 e1 ff
	ff		 lea	 ecx, DWORD PTR _script$2[ebp]
  00006	e9 00 00 00 00	 jmp	 ??1CScript@@UAE@XZ	; CScript::~CScript
  0000b	cc		 int	 3
  0000c	cc		 int	 3
  0000d	cc		 int	 3
  0000e	cc		 int	 3
  0000f	cc		 int	 3
__ehhandler$?LoadDefines@CProject@@QAEXXZ:
  00010	90		 npad	 1
  00011	90		 npad	 1
  00012	8b 54 24 08	 mov	 edx, DWORD PTR [esp+8]
  00016	8d 42 0c	 lea	 eax, DWORD PTR [edx+12]
  00019	8b 8a 40 e1 ff
	ff		 mov	 ecx, DWORD PTR [edx-7872]
  0001f	33 c8		 xor	 ecx, eax
  00021	e8 00 00 00 00	 call	 @__security_check_cookie@4
  00026	8b 4a fc	 mov	 ecx, DWORD PTR [edx-4]
  00029	33 c8		 xor	 ecx, eax
  0002b	e8 00 00 00 00	 call	 @__security_check_cookie@4
  00030	b8 00 00 00 00	 mov	 eax, OFFSET __ehfuncinfo$?LoadDefines@CProject@@QAEXXZ
  00035	e9 00 00 00 00	 jmp	 ___CxxFrameHandler3
text$x	ENDS
?LoadDefines@CProject@@QAEXXZ ENDP			; CProject::LoadDefines
; Function compile flags: /Ogtp
; File C:\IAGOS\server\v18\Source\Source\_Common\ProjectCmn.cpp
;	COMDAT ?Formalize@CProject@@QAEXPAD@Z
_TEXT	SEGMENT
_szName$ = 8						; size = 4
_szBuffer$1 = 8						; size = 2
?Formalize@CProject@@QAEXPAD@Z PROC			; CProject::Formalize, COMDAT
; _this$ = ecx

; 1225 : {

  00000	55		 push	 ebp
  00001	8b ec		 mov	 ebp, esp
  00003	56		 push	 esi

; 1226 : 	int nLen	= lstrlen( szName );

  00004	8b 75 08	 mov	 esi, DWORD PTR _szName$[ebp]
  00007	56		 push	 esi
  00008	ff 15 00 00 00
	00		 call	 DWORD PTR __imp__lstrlenA@4

; 1227 : 	if( nLen == 0 )

  0000e	85 c0		 test	 eax, eax
  00010	74 31		 je	 SHORT $LN7@Formalize

; 1228 : 		return;
; 1229 : 
; 1230 : 	DWORD dwLanguage	= ::GetLanguage();

  00012	e8 00 00 00 00	 call	 ?GetLanguage@@YAHXZ	; GetLanguage

; 1231 : 	switch( dwLanguage )

  00017	83 e8 06	 sub	 eax, 6
  0001a	74 05		 je	 SHORT $LN5@Formalize
  0001c	83 e8 02	 sub	 eax, 2
  0001f	75 22		 jne	 SHORT $LN7@Formalize
$LN5@Formalize:

; 1232 : 	{
; 1233 : //		case LANG_ENG:
; 1234 : 		case LANG_GER:
; 1235 : 		case LANG_FRE:
; 1236 : 			{
; 1237 : //				if( ::GetLanguage() == LANG_ENG && ::GetSubLanguage() == LANG_SUB_PHP )
; 1238 : //					break;
; 1239 : 				_strlwr( szName );	// ĽŇą®ŔÚ·Î şŻ°ć

  00021	56		 push	 esi
  00022	e8 00 00 00 00	 call	 __strlwr

; 1240 : 				char szBuffer[2];
; 1241 : 				szBuffer[0]	= szName[0];

  00027	0f b6 06	 movzx	 eax, BYTE PTR [esi]
  0002a	88 45 08	 mov	 BYTE PTR _szBuffer$1[ebp], al

; 1242 : 				szBuffer[1]	= '\0';
; 1243 : 				_strupr( szBuffer );

  0002d	8d 45 08	 lea	 eax, DWORD PTR _szBuffer$1[ebp]
  00030	50		 push	 eax
  00031	c6 45 09 00	 mov	 BYTE PTR _szBuffer$1[ebp+1], 0
  00035	e8 00 00 00 00	 call	 __strupr

; 1244 : 				szName[0]	= szBuffer[0];

  0003a	0f b6 45 08	 movzx	 eax, BYTE PTR _szBuffer$1[ebp]
  0003e	83 c4 08	 add	 esp, 8
  00041	88 06		 mov	 BYTE PTR [esi], al
$LN7@Formalize:
  00043	5e		 pop	 esi

; 1245 : 				break;
; 1246 : 			}
; 1247 : 		default:
; 1248 : 			{
; 1249 : 				break;
; 1250 : 			}
; 1251 : 	}
; 1252 : }

  00044	5d		 pop	 ebp
  00045	c2 04 00	 ret	 4
?Formalize@CProject@@QAEXPAD@Z ENDP			; CProject::Formalize
_TEXT	ENDS
; Function compile flags: /Ogtp
; File C:\IAGOS\server\v18\Source\Source\_Common\ProjectCmn.cpp
; File C:\Program Files\Microsoft Visual Studio\2022\Professional\VC\Tools\MSVC\14.44.35207\include\xtree
; File C:\IAGOS\server\v18\Source\Source\_Common\ProjectCmn.cpp
; File C:\Program Files\Microsoft Visual Studio\2022\Professional\VC\Tools\MSVC\14.44.35207\include\xtree
; File C:\IAGOS\server\v18\Source\Source\_Common\ProjectCmn.cpp
; File C:\Program Files\Microsoft Visual Studio\2022\Professional\VC\Tools\MSVC\14.44.35207\include\xtree
; File C:\Program Files\Microsoft Visual Studio\2022\Professional\VC\Tools\MSVC\14.44.35207\include\type_traits
; File C:\Program Files\Microsoft Visual Studio\2022\Professional\VC\Tools\MSVC\14.44.35207\include\xtree
; File C:\IAGOS\server\v18\Source\Source\_Common\ProjectCmn.cpp
;	COMDAT ?IsAllowedLetter@CProject@@QAEHPBDH@Z
_TEXT	SEGMENT
__Loc$1 = -20						; size = 12
tv292 = -8						; size = 4
tv294 = -4						; size = 4
_szName$ = 8						; size = 4
_bVendor$ = 12						; size = 4
_chLetter$2 = 15					; size = 1
?IsAllowedLetter@CProject@@QAEHPBDH@Z PROC		; CProject::IsAllowedLetter, COMDAT
; _this$ = ecx

; 1193 : {

  00000	55		 push	 ebp
  00001	8b ec		 mov	 ebp, esp
  00003	83 ec 14	 sub	 esp, 20			; 00000014H

; 1194 : #ifdef __VENDOR_1106
; 1195 : 	set<char>* ptr		= NULL;
; 1196 : 	if( bVendor )
; 1197 : 		ptr		= &m_sAllowedLetter2;
; 1198 : 	else
; 1199 : 		ptr		= &m_sAllowedLetter;
; 1200 : #else	// __VENDOR_1106
; 1201 : 	set<char>* ptr		= &m_sAllowedLetter;
; 1202 : #endif	// __VENDOR_1106
; 1203 : 
; 1204 : 	if( !ptr->size() )	// ±ÔÄ˘ŔĚ ľřŔ¸¸é ą«˝Ă

  00006	33 c0		 xor	 eax, eax
  00008	39 45 0c	 cmp	 DWORD PTR _bVendor$[ebp], eax
  0000b	53		 push	 ebx
  0000c	0f 95 c0	 setne	 al
  0000f	56		 push	 esi
  00010	57		 push	 edi
  00011	8d 04 c5 44 15
	05 00		 lea	 eax, DWORD PTR [eax*8+333124]
  00018	83 7c 08 04 00	 cmp	 DWORD PTR [eax+ecx+4], 0
  0001d	8d 14 08	 lea	 edx, DWORD PTR [eax+ecx]
  00020	89 55 fc	 mov	 DWORD PTR tv294[ebp], edx
  00023	74 4e		 je	 SHORT $LN3@IsAllowedL

; 1205 : 		return TRUE;
; 1206 : 
; 1207 : 	int nLen	= lstrlen( szName );

  00025	8b 5d 08	 mov	 ebx, DWORD PTR _szName$[ebp]
  00028	53		 push	 ebx
  00029	ff 15 00 00 00
	00		 call	 DWORD PTR __imp__lstrlenA@4
  0002f	8b f8		 mov	 edi, eax

; 1208 : 	for( int i = 0; i < nLen; i++ )

  00031	33 f6		 xor	 esi, esi
  00033	85 ff		 test	 edi, edi
  00035	7e 3c		 jle	 SHORT $LN3@IsAllowedL
; File C:\Program Files\Microsoft Visual Studio\2022\Professional\VC\Tools\MSVC\14.44.35207\include\xtree

; 1152 :         return iterator(_Scary->_Myhead, _Scary);

  00037	8b 45 fc	 mov	 eax, DWORD PTR tv294[ebp]
  0003a	8b 08		 mov	 ecx, DWORD PTR [eax]
  0003c	89 4d f8	 mov	 DWORD PTR tv292[ebp], ecx
  0003f	90		 npad	 1
$LL4@IsAllowedL:
; File C:\IAGOS\server\v18\Source\Source\_Common\ProjectCmn.cpp

; 1210 : 		char chLetter	= szName[i];

  00040	8a 1c 33	 mov	 bl, BYTE PTR [ebx+esi]
; File C:\Program Files\Microsoft Visual Studio\2022\Professional\VC\Tools\MSVC\14.44.35207\include\xtree

; 1384 :         const _Tree_find_result<_Nodeptr> _Loc = _Find_lower_bound(_Keyval);

  00043	8d 4d 0f	 lea	 ecx, DWORD PTR _chLetter$2[ebp]
  00046	51		 push	 ecx
  00047	8d 4d ec	 lea	 ecx, DWORD PTR __Loc$1[ebp]
; File C:\IAGOS\server\v18\Source\Source\_Common\ProjectCmn.cpp

; 1210 : 		char chLetter	= szName[i];

  0004a	88 5d 0f	 mov	 BYTE PTR _chLetter$2[ebp], bl
; File C:\Program Files\Microsoft Visual Studio\2022\Professional\VC\Tools\MSVC\14.44.35207\include\xtree

; 1384 :         const _Tree_find_result<_Nodeptr> _Loc = _Find_lower_bound(_Keyval);

  0004d	51		 push	 ecx
  0004e	8b c8		 mov	 ecx, eax
  00050	e8 00 00 00 00	 call	 ??$_Find_lower_bound@D@?$_Tree@V?$_Tset_traits@DU?$less@D@std@@V?$allocator@D@2@$0A@@std@@@std@@IBE?AU?$_Tree_find_result@PAU?$_Tree_node@DPAX@std@@@1@ABD@Z ; std::_Tree<std::_Tset_traits<char,std::less<char>,std::allocator<char>,0> >::_Find_lower_bound<char>

; 1624 :         return !_Bound->_Isnil && !_DEBUG_LT_PRED(_Getcomp(), _Keyval, _Traits::_Kfn(_Bound->_Myval));

  00055	8b 45 f4	 mov	 eax, DWORD PTR __Loc$1[ebp+8]
  00058	80 78 0d 00	 cmp	 BYTE PTR [eax+13], 0
  0005c	75 23		 jne	 SHORT $LN41@IsAllowedL
; File C:\Program Files\Microsoft Visual Studio\2022\Professional\VC\Tools\MSVC\14.44.35207\include\type_traits

; 2380 :         return _Left < _Right;

  0005e	3a 58 0e	 cmp	 bl, BYTE PTR [eax+14]
; File C:\Program Files\Microsoft Visual Studio\2022\Professional\VC\Tools\MSVC\14.44.35207\include\xtree

; 1624 :         return !_Bound->_Isnil && !_DEBUG_LT_PRED(_Getcomp(), _Keyval, _Traits::_Kfn(_Bound->_Myval));

  00061	7c 1e		 jl	 SHORT $LN41@IsAllowedL

; 37   :     _Tree_unchecked_const_iterator(_Nodeptr _Pnode, const _Mytree* _Plist) noexcept : _Ptr(_Pnode) {

  00063	3b 45 f8	 cmp	 eax, DWORD PTR tv292[ebp]
; File C:\IAGOS\server\v18\Source\Source\_Common\ProjectCmn.cpp

; 1212 : 		if( it == ptr->end() )

  00066	74 19		 je	 SHORT $LN41@IsAllowedL

; 1208 : 	for( int i = 0; i < nLen; i++ )

  00068	8b 45 fc	 mov	 eax, DWORD PTR tv294[ebp]
  0006b	46		 inc	 esi
  0006c	8b 5d 08	 mov	 ebx, DWORD PTR _szName$[ebp]
  0006f	3b f7		 cmp	 esi, edi
  00071	7c cd		 jl	 SHORT $LL4@IsAllowedL
$LN3@IsAllowedL:
  00073	5f		 pop	 edi

; 1213 : 		{
; 1214 : #ifndef __VENDOR_1106
; 1215 : 			if( bVendor && ( chLetter == ' ' || chLetter == '+' ) )
; 1216 : 				continue;
; 1217 : #endif	// __VENDOR_1106
; 1218 : 			return FALSE;
; 1219 : 		}
; 1220 : 	}
; 1221 : 	return TRUE;
; 1222 : }

  00074	5e		 pop	 esi
  00075	b8 01 00 00 00	 mov	 eax, 1
  0007a	5b		 pop	 ebx
  0007b	8b e5		 mov	 esp, ebp
  0007d	5d		 pop	 ebp
  0007e	c2 08 00	 ret	 8
$LN41@IsAllowedL:
  00081	5f		 pop	 edi
  00082	5e		 pop	 esi
  00083	33 c0		 xor	 eax, eax
  00085	5b		 pop	 ebx
  00086	8b e5		 mov	 esp, ebp
  00088	5d		 pop	 ebp
  00089	c2 08 00	 ret	 8
?IsAllowedLetter@CProject@@QAEHPBDH@Z ENDP		; CProject::IsAllowedLetter
_TEXT	ENDS
; Function compile flags: /Ogtp
; File C:\IAGOS\server\v18\Source\Source\_Common\ProjectCmn.cpp
; File C:\Program Files\Microsoft Visual Studio\2022\Professional\VC\Tools\MSVC\14.44.35207\atlmfc\include\afxstr.h
; File C:\Program Files\Microsoft Visual Studio\2022\Professional\VC\Tools\MSVC\14.44.35207\atlmfc\include\atlsimpstr.h
; File C:\IAGOS\server\v18\Source\Source\_Common\ProjectCmn.cpp
; File C:\Program Files\Microsoft Visual Studio\2022\Professional\VC\Tools\MSVC\14.44.35207\atlmfc\include\atlsimpstr.h
; File C:\IAGOS\server\v18\Source\Source\_Common\ProjectCmn.cpp
; File C:\Program Files\Microsoft Visual Studio\2022\Professional\VC\Tools\MSVC\14.44.35207\include\xtree
; File C:\IAGOS\server\v18\Source\Source\_Common\ProjectCmn.cpp
; File C:\Program Files\Microsoft Visual Studio\2022\Professional\VC\Tools\MSVC\14.44.35207\include\xtree
; File C:\Program Files\Microsoft Visual Studio\2022\Professional\VC\Tools\MSVC\14.44.35207\include\type_traits
; File C:\Program Files\Microsoft Visual Studio\2022\Professional\VC\Tools\MSVC\14.44.35207\include\xtree
; File C:\Program Files\Microsoft Visual Studio\2022\Professional\VC\Tools\MSVC\14.44.35207\include\xmemory
; File C:\Program Files\Microsoft Visual Studio\2022\Professional\VC\Tools\MSVC\14.44.35207\include\xtree
; File C:\Program Files\Microsoft Visual Studio\2022\Professional\VC\Tools\MSVC\14.44.35207\include\xmemory
; File C:\Program Files\Microsoft Visual Studio\2022\Professional\VC\Tools\MSVC\14.44.35207\include\xtree
; File C:\Program Files\Microsoft Visual Studio\2022\Professional\VC\Tools\MSVC\14.44.35207\include\xmemory
; File C:\Program Files\Microsoft Visual Studio\2022\Professional\VC\Tools\MSVC\14.44.35207\include\xtree
; File C:\Program Files\Microsoft Visual Studio\2022\Professional\VC\Tools\MSVC\14.44.35207\include\utility
; File C:\Program Files\Microsoft Visual Studio\2022\Professional\VC\Tools\MSVC\14.44.35207\include\xtree
; File C:\IAGOS\server\v18\Source\Source\_Common\ProjectCmn.cpp
; File C:\Program Files\Microsoft Visual Studio\2022\Professional\VC\Tools\MSVC\14.44.35207\atlmfc\include\atlsimpstr.h
; File C:\IAGOS\server\v18\Source\Source\_Common\ProjectCmn.cpp
; File C:\Program Files\Microsoft Visual Studio\2022\Professional\VC\Tools\MSVC\14.44.35207\atlmfc\include\atlsimpstr.h
; File C:\Program Files\Microsoft Visual Studio\2022\Professional\VC\Tools\MSVC\14.44.35207\include\xtree
; File C:\Program Files\Microsoft Visual Studio\2022\Professional\VC\Tools\MSVC\14.44.35207\atlmfc\include\atlsimpstr.h
; File C:\IAGOS\server\v18\Source\Source\_Common\ProjectCmn.cpp
;	COMDAT ?LoadAllowedLetter@CProject@@QAEHH@Z
_TEXT	SEGMENT
$T2 = -2192						; size = 12
__Loc$3 = -2180						; size = 12
$T4 = -2168						; size = 8
$T5 = -2164						; size = 4
$T6 = -2164						; size = 4
_strFile$ = -2160					; size = 4
$T7 = -2154						; size = 1
$T8 = -2153						; size = 1
_s$ = -2152						; size = 2136
__$ArrayPad$ = -16					; size = 4
__$EHRec$ = -12						; size = 12
_bVendor$ = 8						; size = 4
?LoadAllowedLetter@CProject@@QAEHH@Z PROC		; CProject::LoadAllowedLetter, COMDAT
; _this$ = ecx

; 1158 : {

  00000	55		 push	 ebp
  00001	8b ec		 mov	 ebp, esp
  00003	6a ff		 push	 -1
  00005	68 00 00 00 00	 push	 __ehhandler$?LoadAllowedLetter@CProject@@QAEHH@Z
  0000a	64 a1 00 00 00
	00		 mov	 eax, DWORD PTR fs:0
  00010	50		 push	 eax
  00011	81 ec 84 08 00
	00		 sub	 esp, 2180		; 00000884H
  00017	a1 00 00 00 00	 mov	 eax, DWORD PTR ___security_cookie
  0001c	33 c5		 xor	 eax, ebp
  0001e	89 45 f0	 mov	 DWORD PTR __$ArrayPad$[ebp], eax
  00021	53		 push	 ebx
  00022	56		 push	 esi
  00023	57		 push	 edi
  00024	50		 push	 eax
  00025	8d 45 f4	 lea	 eax, DWORD PTR __$EHRec$[ebp]
  00028	64 a3 00 00 00
	00		 mov	 DWORD PTR fs:0, eax
  0002e	8b d9		 mov	 ebx, ecx

; 1159 : 	CScanner s;

  00030	6a 00		 push	 0
  00032	8d 8d 98 f7 ff
	ff		 lea	 ecx, DWORD PTR _s$[ebp]
  00038	e8 00 00 00 00	 call	 ??0CScanner@@QAE@H@Z	; CScanner::CScanner
  0003d	c7 45 fc 00 00
	00 00		 mov	 DWORD PTR __$EHRec$[ebp+8], 0
; File C:\Program Files\Microsoft Visual Studio\2022\Professional\VC\Tools\MSVC\14.44.35207\atlmfc\include\afxstr.h

; 56   : 		return( AfxGetStringManager() );

  00044	e8 00 00 00 00	 call	 ?AfxGetStringManager@@YGPAUIAtlStringMgr@ATL@@XZ ; AfxGetStringManager
  00049	8b c8		 mov	 ecx, eax
; File C:\Program Files\Microsoft Visual Studio\2022\Professional\VC\Tools\MSVC\14.44.35207\atlmfc\include\atlsimpstr.h

; 209  : 		ATLENSURE( pStringMgr != NULL );

  0004b	85 c9		 test	 ecx, ecx
  0004d	0f 84 e4 01 00
	00		 je	 $LN177@LoadAllowe

; 210  : 		CStringData* pData = pStringMgr->GetNilString();

  00053	8b 01		 mov	 eax, DWORD PTR [ecx]
  00055	ff 50 0c	 call	 DWORD PTR [eax+12]

; 211  : 		Attach( pData );

  00058	83 c0 10	 add	 eax, 16			; 00000010H
  0005b	89 85 90 f7 ff
	ff		 mov	 DWORD PTR _strFile$[ebp], eax
; File C:\IAGOS\server\v18\Source\Source\_Common\ProjectCmn.cpp

; 1164 : 	if( bVendor )

  00061	83 7d 08 00	 cmp	 DWORD PTR _bVendor$[ebp], 0
  00065	c6 45 fc 01	 mov	 BYTE PTR __$EHRec$[ebp+8], 1
  00069	74 23		 je	 SHORT $LN4@LoadAllowe

; 1165 : 	{
; 1166 : 		ptr		= &m_sAllowedLetter2;
; 1167 : 		strFile		= GetLangFileName( ::GetLanguage(), FILE_ALLOWED_LETTER2 );

  0006b	6a 0f		 push	 15			; 0000000fH
  0006d	81 c3 4c 15 05
	00		 add	 ebx, 333132		; 0005154cH
  00073	e8 00 00 00 00	 call	 ?GetLanguage@@YAHXZ	; GetLanguage
  00078	50		 push	 eax
  00079	8d 85 8c f7 ff
	ff		 lea	 eax, DWORD PTR $T5[ebp]
  0007f	50		 push	 eax
  00080	e8 00 00 00 00	 call	 ?GetLangFileName@@YA?AV?$CStringT@DV?$StrTraitMFC@DV?$ChTraitsCRT@D@ATL@@@@@ATL@@HH@Z ; GetLangFileName
  00085	83 c4 0c	 add	 esp, 12			; 0000000cH
  00088	c6 45 fc 02	 mov	 BYTE PTR __$EHRec$[ebp+8], 2

; 1168 : 	}

  0008c	eb 21		 jmp	 SHORT $LN175@LoadAllowe
$LN4@LoadAllowe:

; 1169 : 	else
; 1170 : 	{
; 1171 : 		ptr		= &m_sAllowedLetter;
; 1172 : 		strFile		= GetLangFileName( ::GetLanguage(), FILE_ALLOWED_LETTER );

  0008e	6a 09		 push	 9
  00090	81 c3 44 15 05
	00		 add	 ebx, 333124		; 00051544H
  00096	e8 00 00 00 00	 call	 ?GetLanguage@@YAHXZ	; GetLanguage
  0009b	50		 push	 eax
  0009c	8d 85 8c f7 ff
	ff		 lea	 eax, DWORD PTR $T6[ebp]
  000a2	50		 push	 eax
  000a3	e8 00 00 00 00	 call	 ?GetLangFileName@@YA?AV?$CStringT@DV?$StrTraitMFC@DV?$ChTraitsCRT@D@ATL@@@@@ATL@@HH@Z ; GetLangFileName
  000a8	83 c4 0c	 add	 esp, 12			; 0000000cH
  000ab	c6 45 fc 03	 mov	 BYTE PTR __$EHRec$[ebp+8], 3
$LN175@LoadAllowe:

; 1173 : 	}
; 1174 : #else	// __VENDOR_1106
; 1175 : 	strFile		= GetLangFileName( ::GetLanguage(), FILE_ALLOWED_LETTER );
; 1176 : 	set<char>*	ptr		= &m_sAllowedLetter;
; 1177 : #endif	// __VENDOR_1106
; 1178 : 	if( s.Load( strFile ) ) 

  000af	50		 push	 eax
  000b0	8d 8d 90 f7 ff
	ff		 lea	 ecx, DWORD PTR _strFile$[ebp]
  000b6	e8 00 00 00 00	 call	 ??4?$CStringT@DV?$StrTraitMFC@DV?$ChTraitsCRT@D@ATL@@@@@ATL@@QAEAAV01@ABV01@@Z ; ATL::CStringT<char,StrTraitMFC<char,ATL::ChTraitsCRT<char> > >::operator=
  000bb	8b 95 8c f7 ff
	ff		 mov	 edx, DWORD PTR $T6[ebp]
  000c1	83 c8 ff	 or	 eax, -1
  000c4	83 c2 f0	 add	 edx, -16		; fffffff0H
  000c7	c6 45 fc 01	 mov	 BYTE PTR __$EHRec$[ebp+8], 1
  000cb	f0 0f c1 42 0c	 lock	  xadd	 DWORD PTR [edx+12], eax
  000d0	48		 dec	 eax
  000d1	85 c0		 test	 eax, eax
  000d3	7f 08		 jg	 SHORT $LN45@LoadAllowe
  000d5	8b 0a		 mov	 ecx, DWORD PTR [edx]
  000d7	52		 push	 edx
  000d8	8b 01		 mov	 eax, DWORD PTR [ecx]
  000da	ff 50 04	 call	 DWORD PTR [eax+4]
$LN45@LoadAllowe:
  000dd	8b b5 90 f7 ff
	ff		 mov	 esi, DWORD PTR _strFile$[ebp]
  000e3	8d 8d 98 f7 ff
	ff		 lea	 ecx, DWORD PTR _s$[ebp]
  000e9	6a 01		 push	 1
  000eb	56		 push	 esi
  000ec	e8 00 00 00 00	 call	 ?Load@CScanner@@QAEHPBDH@Z ; CScanner::Load
  000f1	85 c0		 test	 eax, eax
  000f3	0f 84 f5 00 00
	00		 je	 $LN6@LoadAllowe

; 1179 : 	{
; 1180 : 		s.GetToken();

  000f9	6a 00		 push	 0
  000fb	8d 8d 98 f7 ff
	ff		 lea	 ecx, DWORD PTR _s$[ebp]
  00101	e8 00 00 00 00	 call	 ?GetToken@CScanner@@UAEHH@Z ; CScanner::GetToken

; 1181 : 		while( s.tok != FINISHED )

  00106	83 7d dc 15	 cmp	 DWORD PTR _s$[ebp+2116], 21 ; 00000015H
  0010a	0f 84 d7 00 00
	00		 je	 $LN168@LoadAllowe
$LL2@LoadAllowe:

; 1182 : 		{
; 1183 : 			if( s.Token.GetLength() )

  00110	8b 8d b8 f7 ff
	ff		 mov	 ecx, DWORD PTR _s$[ebp+32]
  00116	8b 41 f4	 mov	 eax, DWORD PTR [ecx-12]
  00119	85 c0		 test	 eax, eax
  0011b	0f 84 af 00 00
	00		 je	 $LN142@LoadAllowe
; File C:\Program Files\Microsoft Visual Studio\2022\Professional\VC\Tools\MSVC\14.44.35207\atlmfc\include\atlsimpstr.h

; 495  : 		if( (iChar < 0) || (iChar > GetLength()) )

  00121	0f 88 1f 01 00
	00		 js	 $LN164@LoadAllowe
; File C:\IAGOS\server\v18\Source\Source\_Common\ProjectCmn.cpp

; 1184 : 				ptr->insert( s.Token.GetAt( 0 ) );

  00127	8a 01		 mov	 al, BYTE PTR [ecx]
; File C:\Program Files\Microsoft Visual Studio\2022\Professional\VC\Tools\MSVC\14.44.35207\include\xtree

; 1017 :             _Loc                = _Find_lower_bound(_Keyval);

  00129	8b cb		 mov	 ecx, ebx
; File C:\IAGOS\server\v18\Source\Source\_Common\ProjectCmn.cpp

; 1184 : 				ptr->insert( s.Token.GetAt( 0 ) );

  0012b	88 85 97 f7 ff
	ff		 mov	 BYTE PTR $T8[ebp], al
  00131	88 85 96 f7 ff
	ff		 mov	 BYTE PTR $T7[ebp], al
; File C:\Program Files\Microsoft Visual Studio\2022\Professional\VC\Tools\MSVC\14.44.35207\include\xtree

; 1017 :             _Loc                = _Find_lower_bound(_Keyval);

  00137	8d 85 96 f7 ff
	ff		 lea	 eax, DWORD PTR $T7[ebp]
  0013d	50		 push	 eax
  0013e	8d 85 70 f7 ff
	ff		 lea	 eax, DWORD PTR $T2[ebp]
  00144	50		 push	 eax
  00145	e8 00 00 00 00	 call	 ??$_Find_lower_bound@D@?$_Tree@V?$_Tset_traits@DU?$less@D@std@@V?$allocator@D@2@$0A@@std@@@std@@IBE?AU?$_Tree_find_result@PAU?$_Tree_node@DPAX@std@@@1@ABD@Z ; std::_Tree<std::_Tset_traits<char,std::less<char>,std::allocator<char>,0> >::_Find_lower_bound<char>
  0014a	8b 48 08	 mov	 ecx, DWORD PTR [eax+8]
  0014d	f3 0f 7e 00	 movq	 xmm0, QWORD PTR [eax]
  00151	66 0f d6 85 7c
	f7 ff ff	 movq	 QWORD PTR __Loc$3[ebp], xmm0

; 1624 :         return !_Bound->_Isnil && !_DEBUG_LT_PRED(_Getcomp(), _Keyval, _Traits::_Kfn(_Bound->_Myval));

  00159	80 79 0d 00	 cmp	 BYTE PTR [ecx+13], 0
  0015d	75 0b		 jne	 SHORT $LN67@LoadAllowe
; File C:\Program Files\Microsoft Visual Studio\2022\Professional\VC\Tools\MSVC\14.44.35207\include\type_traits

; 2380 :         return _Left < _Right;

  0015f	8a 85 97 f7 ff
	ff		 mov	 al, BYTE PTR $T8[ebp]
  00165	3a 41 0e	 cmp	 al, BYTE PTR [ecx+14]
; File C:\Program Files\Microsoft Visual Studio\2022\Professional\VC\Tools\MSVC\14.44.35207\include\xtree

; 1624 :         return !_Bound->_Isnil && !_DEBUG_LT_PRED(_Getcomp(), _Keyval, _Traits::_Kfn(_Bound->_Myval));

  00168	7d 66		 jge	 SHORT $LN142@LoadAllowe
$LN67@LoadAllowe:

; 1648 :         if (max_size() == _Get_scary()->_Mysize) {

  0016a	81 7b 04 ff ff
	ff 0f		 cmp	 DWORD PTR [ebx+4], 268435455 ; 0fffffffH
  00171	0f 84 ca 00 00
	00		 je	 $LN165@LoadAllowe

; 1023 :             _Inserted = _Tree_temp_node<_Alnode>(_Getal(), _Scary->_Myhead, _STD forward<_Valtys>(_Vals)...)._Release();

  00177	8b 3b		 mov	 edi, DWORD PTR [ebx]
; File C:\Program Files\Microsoft Visual Studio\2022\Professional\VC\Tools\MSVC\14.44.35207\include\xmemory

; 1160 :     _CONSTEXPR20 explicit _Alloc_construct_ptr(_Alloc& _Al_) : _Al(_Al_), _Ptr(nullptr) {}

  00179	89 9d 88 f7 ff
	ff		 mov	 DWORD PTR $T4[ebp], ebx

; 136  :         return ::operator new(_Bytes);

  0017f	6a 10		 push	 16			; 00000010H
; File C:\Program Files\Microsoft Visual Studio\2022\Professional\VC\Tools\MSVC\14.44.35207\include\xtree

; 808  :     explicit _Tree_temp_node_alloc(_Alnode& _Al_) : _Alloc_construct_ptr<_Alnode>(_Al_) {

  00181	c6 45 fc 04	 mov	 BYTE PTR __$EHRec$[ebp+8], 4
; File C:\Program Files\Microsoft Visual Studio\2022\Professional\VC\Tools\MSVC\14.44.35207\include\xmemory

; 1167 :         _Ptr = nullptr; // if allocate throws, prevents double-free

  00185	c7 85 8c f7 ff
	ff 00 00 00 00	 mov	 DWORD PTR $T4[ebp+4], 0

; 136  :         return ::operator new(_Bytes);

  0018f	e8 00 00 00 00	 call	 ??2@YAPAXI@Z		; operator new
; File C:\Program Files\Microsoft Visual Studio\2022\Professional\VC\Tools\MSVC\14.44.35207\include\xtree

; 830  :         _Alnode_traits::construct(this->_Al, _STD addressof(this->_Ptr->_Myval), _STD forward<_Valtys>(_Vals)...);

  00194	8a 8d 97 f7 ff
	ff		 mov	 cl, BYTE PTR $T8[ebp]
; File C:\Program Files\Microsoft Visual Studio\2022\Professional\VC\Tools\MSVC\14.44.35207\include\xmemory

; 136  :         return ::operator new(_Bytes);

  0019a	83 c4 04	 add	 esp, 4
; File C:\Program Files\Microsoft Visual Studio\2022\Professional\VC\Tools\MSVC\14.44.35207\include\xtree

; 810  :     }

  0019d	c6 45 fc 01	 mov	 BYTE PTR __$EHRec$[ebp+8], 1
; File C:\Program Files\Microsoft Visual Studio\2022\Professional\VC\Tools\MSVC\14.44.35207\include\utility

; 774  :     _Val         = static_cast<_Other&&>(_New_val);

  001a1	c7 85 8c f7 ff
	ff 00 00 00 00	 mov	 DWORD PTR $T4[ebp+4], 0
; File C:\Program Files\Microsoft Visual Studio\2022\Professional\VC\Tools\MSVC\14.44.35207\include\xtree

; 830  :         _Alnode_traits::construct(this->_Al, _STD addressof(this->_Ptr->_Myval), _STD forward<_Valtys>(_Vals)...);

  001ab	88 48 0e	 mov	 BYTE PTR [eax+14], cl

; 1042 :         return {_Scary->_Insert_node(_Loc._Location, _Inserted), true};

  001ae	8b cb		 mov	 ecx, ebx
  001b0	50		 push	 eax
  001b1	ff b5 80 f7 ff
	ff		 push	 DWORD PTR __Loc$3[ebp+4]

; 831  :         _Construct_in_place(this->_Ptr->_Left, _Myhead);

  001b7	89 38		 mov	 DWORD PTR [eax], edi

; 1042 :         return {_Scary->_Insert_node(_Loc._Location, _Inserted), true};

  001b9	ff b5 7c f7 ff
	ff		 push	 DWORD PTR __Loc$3[ebp]

; 832  :         _Construct_in_place(this->_Ptr->_Parent, _Myhead);

  001bf	89 78 04	 mov	 DWORD PTR [eax+4], edi

; 833  :         _Construct_in_place(this->_Ptr->_Right, _Myhead);

  001c2	89 78 08	 mov	 DWORD PTR [eax+8], edi

; 834  :         this->_Ptr->_Color = _Red;

  001c5	66 c7 40 0c 00
	00		 mov	 WORD PTR [eax+12], 0

; 1042 :         return {_Scary->_Insert_node(_Loc._Location, _Inserted), true};

  001cb	e8 00 00 00 00	 call	 ?_Insert_node@?$_Tree_val@U?$_Tree_simple_types@D@std@@@std@@QAEPAU?$_Tree_node@DPAX@2@U?$_Tree_id@PAU?$_Tree_node@DPAX@std@@@2@QAU32@@Z ; std::_Tree_val<std::_Tree_simple_types<char> >::_Insert_node
$LN142@LoadAllowe:
; File C:\IAGOS\server\v18\Source\Source\_Common\ProjectCmn.cpp

; 1185 : 			s.GetToken();

  001d0	6a 00		 push	 0
  001d2	8d 8d 98 f7 ff
	ff		 lea	 ecx, DWORD PTR _s$[ebp]
  001d8	e8 00 00 00 00	 call	 ?GetToken@CScanner@@UAEHH@Z ; CScanner::GetToken
  001dd	83 7d dc 15	 cmp	 DWORD PTR _s$[ebp+2116], 21 ; 00000015H
  001e1	0f 85 29 ff ff
	ff		 jne	 $LL2@LoadAllowe
$LN168@LoadAllowe:
  001e7	bf 01 00 00 00	 mov	 edi, 1
  001ec	eb 02		 jmp	 SHORT $LN13@LoadAllowe
$LN6@LoadAllowe:

; 1189 : 	return FALSE;

  001ee	33 ff		 xor	 edi, edi
$LN13@LoadAllowe:
  001f0	c6 45 fc 00	 mov	 BYTE PTR __$EHRec$[ebp+8], 0
; File C:\Program Files\Microsoft Visual Studio\2022\Professional\VC\Tools\MSVC\14.44.35207\atlmfc\include\atlsimpstr.h

; 804  : 		return( reinterpret_cast< CStringData* >( m_pszData )-1 );

  001f4	83 c6 f0	 add	 esi, -16		; fffffff0H

; 92   : 		if( _InterlockedDecrement( &nRefs ) <= 0 )

  001f7	83 c8 ff	 or	 eax, -1
  001fa	f0 0f c1 46 0c	 lock	  xadd	 DWORD PTR [esi+12], eax
  001ff	48		 dec	 eax
  00200	85 c0		 test	 eax, eax
  00202	7f 08		 jg	 SHORT $LN161@LoadAllowe

; 93   : 		{
; 94   : 			pStringMgr->Free( this );

  00204	8b 0e		 mov	 ecx, DWORD PTR [esi]
  00206	56		 push	 esi
  00207	8b 11		 mov	 edx, DWORD PTR [ecx]
  00209	ff 52 04	 call	 DWORD PTR [edx+4]
$LN161@LoadAllowe:
; File C:\IAGOS\server\v18\Source\Source\_Common\ProjectCmn.cpp

; 1189 : 	return FALSE;

  0020c	8d 8d 98 f7 ff
	ff		 lea	 ecx, DWORD PTR _s$[ebp]
  00212	e8 00 00 00 00	 call	 ??1CScanner@@UAE@XZ	; CScanner::~CScanner
  00217	8b c7		 mov	 eax, edi

; 1190 : }

  00219	8b 4d f4	 mov	 ecx, DWORD PTR __$EHRec$[ebp]
  0021c	64 89 0d 00 00
	00 00		 mov	 DWORD PTR fs:0, ecx
  00223	59		 pop	 ecx
  00224	5f		 pop	 edi
  00225	5e		 pop	 esi
  00226	5b		 pop	 ebx
  00227	8b 4d f0	 mov	 ecx, DWORD PTR __$ArrayPad$[ebp]
  0022a	33 cd		 xor	 ecx, ebp
  0022c	e8 00 00 00 00	 call	 @__security_check_cookie@4
  00231	8b e5		 mov	 esp, ebp
  00233	5d		 pop	 ebp
  00234	c2 04 00	 ret	 4
$LN177@LoadAllowe:
; File C:\Program Files\Microsoft Visual Studio\2022\Professional\VC\Tools\MSVC\14.44.35207\atlmfc\include\atlsimpstr.h

; 209  : 		ATLENSURE( pStringMgr != NULL );

  00237	68 05 40 00 80	 push	 -2147467259		; 80004005H
  0023c	e8 00 00 00 00	 call	 ?AtlThrowImpl@ATL@@YGXJ@Z ; ATL::AtlThrowImpl
$LN165@LoadAllowe:
; File C:\Program Files\Microsoft Visual Studio\2022\Professional\VC\Tools\MSVC\14.44.35207\include\xtree

; 1649 :             _Throw_tree_length_error();

  00241	e8 00 00 00 00	 call	 ?_Throw_tree_length_error@std@@YAXXZ ; std::_Throw_tree_length_error
$LN164@LoadAllowe:
; File C:\Program Files\Microsoft Visual Studio\2022\Professional\VC\Tools\MSVC\14.44.35207\atlmfc\include\atlsimpstr.h

; 496  : 			AtlThrow(E_INVALIDARG);

  00246	68 57 00 07 80	 push	 -2147024809		; 80070057H
  0024b	e8 00 00 00 00	 call	 ?AtlThrowImpl@ATL@@YGXJ@Z ; ATL::AtlThrowImpl
$LN173@LoadAllowe:
  00250	cc		 int	 3
_TEXT	ENDS
;	COMDAT text$x
text$x	SEGMENT
__unwindfunclet$?LoadAllowedLetter@CProject@@QAEHH@Z$0:
  00000	8d 8d 98 f7 ff
	ff		 lea	 ecx, DWORD PTR _s$[ebp]
  00006	e9 00 00 00 00	 jmp	 ??1CScanner@@UAE@XZ	; CScanner::~CScanner
__unwindfunclet$?LoadAllowedLetter@CProject@@QAEHH@Z$1:
  0000b	8d 8d 90 f7 ff
	ff		 lea	 ecx, DWORD PTR _strFile$[ebp]
  00011	e9 00 00 00 00	 jmp	 ??1?$CStringT@DV?$StrTraitMFC@DV?$ChTraitsCRT@D@ATL@@@@@ATL@@QAE@XZ ; ATL::CStringT<char,StrTraitMFC<char,ATL::ChTraitsCRT<char> > >::~CStringT<char,StrTraitMFC<char,ATL::ChTraitsCRT<char> > >
__unwindfunclet$?LoadAllowedLetter@CProject@@QAEHH@Z$2:
  00016	8d 8d 8c f7 ff
	ff		 lea	 ecx, DWORD PTR $T5[ebp]
  0001c	e9 00 00 00 00	 jmp	 ??1?$CStringT@DV?$StrTraitMFC@DV?$ChTraitsCRT@D@ATL@@@@@ATL@@QAE@XZ ; ATL::CStringT<char,StrTraitMFC<char,ATL::ChTraitsCRT<char> > >::~CStringT<char,StrTraitMFC<char,ATL::ChTraitsCRT<char> > >
__unwindfunclet$?LoadAllowedLetter@CProject@@QAEHH@Z$3:
  00021	8d 8d 8c f7 ff
	ff		 lea	 ecx, DWORD PTR $T6[ebp]
  00027	e9 00 00 00 00	 jmp	 ??1?$CStringT@DV?$StrTraitMFC@DV?$ChTraitsCRT@D@ATL@@@@@ATL@@QAE@XZ ; ATL::CStringT<char,StrTraitMFC<char,ATL::ChTraitsCRT<char> > >::~CStringT<char,StrTraitMFC<char,ATL::ChTraitsCRT<char> > >
__unwindfunclet$?LoadAllowedLetter@CProject@@QAEHH@Z$6:
  0002c	8d 8d 88 f7 ff
	ff		 lea	 ecx, DWORD PTR $T4[ebp]
  00032	e9 00 00 00 00	 jmp	 ??1?$_Alloc_construct_ptr@V?$allocator@U?$_Tree_node@DPAX@std@@@std@@@std@@QAE@XZ ; std::_Alloc_construct_ptr<std::allocator<std::_Tree_node<char,void *> > >::~_Alloc_construct_ptr<std::allocator<std::_Tree_node<char,void *> > >
  00037	cc		 int	 3
  00038	cc		 int	 3
  00039	cc		 int	 3
  0003a	cc		 int	 3
  0003b	cc		 int	 3
__ehhandler$?LoadAllowedLetter@CProject@@QAEHH@Z:
  0003c	90		 npad	 1
  0003d	90		 npad	 1
  0003e	8b 54 24 08	 mov	 edx, DWORD PTR [esp+8]
  00042	8d 42 0c	 lea	 eax, DWORD PTR [edx+12]
  00045	8b 8a 6c f7 ff
	ff		 mov	 ecx, DWORD PTR [edx-2196]
  0004b	33 c8		 xor	 ecx, eax
  0004d	e8 00 00 00 00	 call	 @__security_check_cookie@4
  00052	8b 4a fc	 mov	 ecx, DWORD PTR [edx-4]
  00055	33 c8		 xor	 ecx, eax
  00057	e8 00 00 00 00	 call	 @__security_check_cookie@4
  0005c	b8 00 00 00 00	 mov	 eax, OFFSET __ehfuncinfo$?LoadAllowedLetter@CProject@@QAEHH@Z
  00061	e9 00 00 00 00	 jmp	 ___CxxFrameHandler3
text$x	ENDS
?LoadAllowedLetter@CProject@@QAEHH@Z ENDP		; CProject::LoadAllowedLetter
; Function compile flags: /Ogtp
; File C:\Program Files\Microsoft Visual Studio\2022\Professional\VC\Tools\MSVC\14.44.35207\include\xtree
;	COMDAT ?_Insert_node@?$_Tree_val@U?$_Tree_simple_types@D@std@@@std@@QAEPAU?$_Tree_node@DPAX@2@U?$_Tree_id@PAU?$_Tree_node@DPAX@std@@@2@QAU32@@Z
_TEXT	SEGMENT
__Head$1$ = -4						; size = 4
__Loc$ = 8						; size = 8
__Newnode$ = 16						; size = 4
?_Insert_node@?$_Tree_val@U?$_Tree_simple_types@D@std@@@std@@QAEPAU?$_Tree_node@DPAX@2@U?$_Tree_id@PAU?$_Tree_node@DPAX@std@@@2@QAU32@@Z PROC ; std::_Tree_val<std::_Tree_simple_types<char> >::_Insert_node, COMDAT
; _this$ = ecx

; 669  :     _Nodeptr _Insert_node(const _Tree_id<_Nodeptr> _Loc, const _Nodeptr _Newnode) noexcept {

  00000	55		 push	 ebp
  00001	8b ec		 mov	 ebp, esp
  00003	51		 push	 ecx

; 670  :         ++_Mysize;
; 671  :         const auto _Head  = _Myhead;
; 672  :         _Newnode->_Parent = _Loc._Parent;

  00004	8b 55 08	 mov	 edx, DWORD PTR __Loc$[ebp]
  00007	53		 push	 ebx
  00008	8b d9		 mov	 ebx, ecx
  0000a	57		 push	 edi
  0000b	8b 7d 10	 mov	 edi, DWORD PTR __Newnode$[ebp]
  0000e	8b 03		 mov	 eax, DWORD PTR [ebx]
  00010	ff 43 04	 inc	 DWORD PTR [ebx+4]
  00013	89 45 fc	 mov	 DWORD PTR __Head$1$[ebp], eax
  00016	89 57 04	 mov	 DWORD PTR [edi+4], edx

; 673  :         if (_Loc._Parent == _Head) { // first node in tree, just set head values

  00019	3b d0		 cmp	 edx, eax
  0001b	75 16		 jne	 SHORT $LN5@Insert_nod

; 674  :             _Head->_Left     = _Newnode;

  0001d	89 38		 mov	 DWORD PTR [eax], edi

; 675  :             _Head->_Parent   = _Newnode;

  0001f	89 78 04	 mov	 DWORD PTR [eax+4], edi

; 676  :             _Head->_Right    = _Newnode;

  00022	89 78 08	 mov	 DWORD PTR [eax+8], edi

; 735  :         return _Newnode;
; 736  :     }

  00025	8b c7		 mov	 eax, edi
  00027	c6 47 0c 01	 mov	 BYTE PTR [edi+12], 1
  0002b	5f		 pop	 edi
  0002c	5b		 pop	 ebx
  0002d	8b e5		 mov	 esp, ebp
  0002f	5d		 pop	 ebp
  00030	c2 0c 00	 ret	 12			; 0000000cH
$LN5@Insert_nod:

; 677  :             _Newnode->_Color = _Black; // the root is black
; 678  :             return _Newnode;
; 679  :         }
; 680  : 
; 681  :         _STL_INTERNAL_CHECK(_Loc._Child != _Tree_child::_Unused);
; 682  :         if (_Loc._Child == _Tree_child::_Right) { // add to right of _Loc._Parent

  00033	83 7d 0c 00	 cmp	 DWORD PTR __Loc$[ebp+4], 0
  00037	75 0d		 jne	 SHORT $LN6@Insert_nod

; 683  :             _STL_INTERNAL_CHECK(_Loc._Parent->_Right->_Isnil);
; 684  :             _Loc._Parent->_Right = _Newnode;

  00039	89 7a 08	 mov	 DWORD PTR [edx+8], edi

; 685  :             if (_Loc._Parent == _Head->_Right) { // remember rightmost node

  0003c	3b 50 08	 cmp	 edx, DWORD PTR [eax+8]
  0003f	75 0d		 jne	 SHORT $LN9@Insert_nod

; 686  :                 _Head->_Right = _Newnode;

  00041	89 78 08	 mov	 DWORD PTR [eax+8], edi

; 687  :             }
; 688  :         } else { // add to left of _Loc._Parent

  00044	eb 08		 jmp	 SHORT $LN9@Insert_nod
$LN6@Insert_nod:

; 689  :             _STL_INTERNAL_CHECK(_Loc._Parent->_Left->_Isnil);
; 690  :             _Loc._Parent->_Left = _Newnode;

  00046	89 3a		 mov	 DWORD PTR [edx], edi

; 691  :             if (_Loc._Parent == _Head->_Left) { // remember leftmost node

  00048	3b 10		 cmp	 edx, DWORD PTR [eax]
  0004a	75 02		 jne	 SHORT $LN9@Insert_nod

; 692  :                 _Head->_Left = _Newnode;

  0004c	89 38		 mov	 DWORD PTR [eax], edi
$LN9@Insert_nod:

; 693  :             }
; 694  :         }
; 695  : 
; 696  :         for (_Nodeptr _Pnode = _Newnode; _Pnode->_Parent->_Color == _Red;) {

  0004e	8b 4f 04	 mov	 ecx, DWORD PTR [edi+4]
  00051	8b c7		 mov	 eax, edi
  00053	80 79 0c 00	 cmp	 BYTE PTR [ecx+12], 0
  00057	0f 85 7d 01 00
	00		 jne	 $LN3@Insert_nod
  0005d	56		 push	 esi
  0005e	66 90		 npad	 2
$LL4@Insert_nod:

; 697  :             if (_Pnode->_Parent == _Pnode->_Parent->_Parent->_Left) { // fixup red-red in left subtree

  00060	8b 50 04	 mov	 edx, DWORD PTR [eax+4]
  00063	8b 72 04	 mov	 esi, DWORD PTR [edx+4]
  00066	8b 0e		 mov	 ecx, DWORD PTR [esi]
  00068	3b d1		 cmp	 edx, ecx
  0006a	0f 85 aa 00 00
	00		 jne	 $LN10@Insert_nod

; 698  :                 const auto _Parent_sibling = _Pnode->_Parent->_Parent->_Right;

  00070	8b 4e 08	 mov	 ecx, DWORD PTR [esi+8]

; 699  :                 if (_Parent_sibling->_Color == _Red) { // parent's sibling has two red children, blacken both

  00073	80 79 0c 00	 cmp	 BYTE PTR [ecx+12], 0
  00077	0f 84 a3 00 00
	00		 je	 $LN82@Insert_nod

; 700  :                     _Pnode->_Parent->_Color          = _Black;
; 701  :                     _Parent_sibling->_Color          = _Black;
; 702  :                     _Pnode->_Parent->_Parent->_Color = _Red;
; 703  :                     _Pnode                           = _Pnode->_Parent->_Parent;
; 704  :                 } else { // parent's sibling has red and black children
; 705  :                     if (_Pnode == _Pnode->_Parent->_Right) { // rotate right child to left

  0007d	8b 72 08	 mov	 esi, DWORD PTR [edx+8]
  00080	3b c6		 cmp	 eax, esi
  00082	75 37		 jne	 SHORT $LN57@Insert_nod

; 485  :         _Wherenode->_Right = _Pnode->_Left;

  00084	8b 0e		 mov	 ecx, DWORD PTR [esi]

; 706  :                         _Pnode = _Pnode->_Parent;

  00086	8b c2		 mov	 eax, edx

; 485  :         _Wherenode->_Right = _Pnode->_Left;

  00088	89 4a 08	 mov	 DWORD PTR [edx+8], ecx

; 486  : 
; 487  :         if (!_Pnode->_Left->_Isnil) {

  0008b	8b 0e		 mov	 ecx, DWORD PTR [esi]
  0008d	80 79 0d 00	 cmp	 BYTE PTR [ecx+13], 0
  00091	75 03		 jne	 SHORT $LN21@Insert_nod

; 488  :             _Pnode->_Left->_Parent = _Wherenode;

  00093	89 41 04	 mov	 DWORD PTR [ecx+4], eax
$LN21@Insert_nod:

; 489  :         }
; 490  : 
; 491  :         _Pnode->_Parent = _Wherenode->_Parent;

  00096	8b 4a 04	 mov	 ecx, DWORD PTR [edx+4]
  00099	89 4e 04	 mov	 DWORD PTR [esi+4], ecx

; 492  : 
; 493  :         if (_Wherenode == _Myhead->_Parent) {

  0009c	8b 0b		 mov	 ecx, DWORD PTR [ebx]
  0009e	3b 41 04	 cmp	 eax, DWORD PTR [ecx+4]
  000a1	75 05		 jne	 SHORT $LN22@Insert_nod

; 494  :             _Myhead->_Parent = _Pnode;

  000a3	89 71 04	 mov	 DWORD PTR [ecx+4], esi
  000a6	eb 0e		 jmp	 SHORT $LN25@Insert_nod
$LN22@Insert_nod:

; 495  :         } else if (_Wherenode == _Wherenode->_Parent->_Left) {

  000a8	8b 4a 04	 mov	 ecx, DWORD PTR [edx+4]
  000ab	3b 01		 cmp	 eax, DWORD PTR [ecx]
  000ad	75 04		 jne	 SHORT $LN24@Insert_nod

; 496  :             _Wherenode->_Parent->_Left = _Pnode;

  000af	89 31		 mov	 DWORD PTR [ecx], esi

; 497  :         } else {

  000b1	eb 03		 jmp	 SHORT $LN25@Insert_nod
$LN24@Insert_nod:

; 498  :             _Wherenode->_Parent->_Right = _Pnode;

  000b3	89 71 08	 mov	 DWORD PTR [ecx+8], esi
$LN25@Insert_nod:

; 499  :         }
; 500  : 
; 501  :         _Pnode->_Left       = _Wherenode;

  000b6	89 06		 mov	 DWORD PTR [esi], eax

; 502  :         _Wherenode->_Parent = _Pnode;

  000b8	89 70 04	 mov	 DWORD PTR [eax+4], esi
$LN57@Insert_nod:

; 707  :                         _Lrotate(_Pnode);
; 708  :                     }
; 709  : 
; 710  :                     _Pnode->_Parent->_Color          = _Black; // propagate red up

  000bb	8b 48 04	 mov	 ecx, DWORD PTR [eax+4]
  000be	c6 41 0c 01	 mov	 BYTE PTR [ecx+12], 1

; 711  :                     _Pnode->_Parent->_Parent->_Color = _Red;

  000c2	8b 48 04	 mov	 ecx, DWORD PTR [eax+4]
  000c5	8b 49 04	 mov	 ecx, DWORD PTR [ecx+4]
  000c8	c6 41 0c 00	 mov	 BYTE PTR [ecx+12], 0

; 712  :                     _Rrotate(_Pnode->_Parent->_Parent);

  000cc	8b 48 04	 mov	 ecx, DWORD PTR [eax+4]
  000cf	8b 51 04	 mov	 edx, DWORD PTR [ecx+4]

; 506  :         _Nodeptr _Pnode   = _Wherenode->_Left;

  000d2	8b 32		 mov	 esi, DWORD PTR [edx]

; 507  :         _Wherenode->_Left = _Pnode->_Right;

  000d4	8b 4e 08	 mov	 ecx, DWORD PTR [esi+8]
  000d7	89 0a		 mov	 DWORD PTR [edx], ecx

; 508  : 
; 509  :         if (!_Pnode->_Right->_Isnil) {

  000d9	8b 4e 08	 mov	 ecx, DWORD PTR [esi+8]
  000dc	80 79 0d 00	 cmp	 BYTE PTR [ecx+13], 0
  000e0	75 03		 jne	 SHORT $LN29@Insert_nod

; 510  :             _Pnode->_Right->_Parent = _Wherenode;

  000e2	89 51 04	 mov	 DWORD PTR [ecx+4], edx
$LN29@Insert_nod:

; 511  :         }
; 512  : 
; 513  :         _Pnode->_Parent = _Wherenode->_Parent;

  000e5	8b 4a 04	 mov	 ecx, DWORD PTR [edx+4]
  000e8	89 4e 04	 mov	 DWORD PTR [esi+4], ecx

; 514  : 
; 515  :         if (_Wherenode == _Myhead->_Parent) {

  000eb	8b 0b		 mov	 ecx, DWORD PTR [ebx]
  000ed	3b 51 04	 cmp	 edx, DWORD PTR [ecx+4]
  000f0	75 0b		 jne	 SHORT $LN30@Insert_nod

; 516  :             _Myhead->_Parent = _Pnode;

  000f2	89 71 04	 mov	 DWORD PTR [ecx+4], esi

; 521  :         }
; 522  : 
; 523  :         _Pnode->_Right      = _Wherenode;

  000f5	89 56 08	 mov	 DWORD PTR [esi+8], edx

; 713  :                 }
; 714  :             } else { // fixup red-red in right subtree

  000f8	e9 cc 00 00 00	 jmp	 $LN81@Insert_nod
$LN30@Insert_nod:

; 517  :         } else if (_Wherenode == _Wherenode->_Parent->_Right) {

  000fd	8b 4a 04	 mov	 ecx, DWORD PTR [edx+4]
  00100	3b 51 08	 cmp	 edx, DWORD PTR [ecx+8]
  00103	75 0b		 jne	 SHORT $LN32@Insert_nod

; 518  :             _Wherenode->_Parent->_Right = _Pnode;

  00105	89 71 08	 mov	 DWORD PTR [ecx+8], esi

; 521  :         }
; 522  : 
; 523  :         _Pnode->_Right      = _Wherenode;

  00108	89 56 08	 mov	 DWORD PTR [esi+8], edx

; 713  :                 }
; 714  :             } else { // fixup red-red in right subtree

  0010b	e9 b9 00 00 00	 jmp	 $LN81@Insert_nod
$LN32@Insert_nod:

; 520  :             _Wherenode->_Parent->_Left = _Pnode;

  00110	89 31		 mov	 DWORD PTR [ecx], esi

; 521  :         }
; 522  : 
; 523  :         _Pnode->_Right      = _Wherenode;

  00112	89 56 08	 mov	 DWORD PTR [esi+8], edx

; 713  :                 }
; 714  :             } else { // fixup red-red in right subtree

  00115	e9 af 00 00 00	 jmp	 $LN81@Insert_nod
$LN10@Insert_nod:

; 715  :                 const auto _Parent_sibling = _Pnode->_Parent->_Parent->_Left;
; 716  :                 if (_Parent_sibling->_Color == _Red) { // parent's sibling has two red children, blacken both

  0011a	80 79 0c 00	 cmp	 BYTE PTR [ecx+12], 0
  0011e	75 1d		 jne	 SHORT $LN15@Insert_nod
$LN82@Insert_nod:

; 693  :             }
; 694  :         }
; 695  : 
; 696  :         for (_Nodeptr _Pnode = _Newnode; _Pnode->_Parent->_Color == _Red;) {

  00120	c6 42 0c 01	 mov	 BYTE PTR [edx+12], 1
  00124	c6 41 0c 01	 mov	 BYTE PTR [ecx+12], 1
  00128	8b 48 04	 mov	 ecx, DWORD PTR [eax+4]
  0012b	8b 49 04	 mov	 ecx, DWORD PTR [ecx+4]
  0012e	c6 41 0c 00	 mov	 BYTE PTR [ecx+12], 0
  00132	8b 48 04	 mov	 ecx, DWORD PTR [eax+4]
  00135	8b 41 04	 mov	 eax, DWORD PTR [ecx+4]
  00138	e9 8f 00 00 00	 jmp	 $LN2@Insert_nod
$LN15@Insert_nod:

; 717  :                     _Pnode->_Parent->_Color          = _Black;
; 718  :                     _Parent_sibling->_Color          = _Black;
; 719  :                     _Pnode->_Parent->_Parent->_Color = _Red;
; 720  :                     _Pnode                           = _Pnode->_Parent->_Parent;
; 721  :                 } else { // parent's sibling has red and black children
; 722  :                     if (_Pnode == _Pnode->_Parent->_Left) { // rotate left child to right

  0013d	8b 32		 mov	 esi, DWORD PTR [edx]
  0013f	3b c6		 cmp	 eax, esi
  00141	75 3a		 jne	 SHORT $LN42@Insert_nod

; 507  :         _Wherenode->_Left = _Pnode->_Right;

  00143	8b 4e 08	 mov	 ecx, DWORD PTR [esi+8]

; 723  :                         _Pnode = _Pnode->_Parent;

  00146	8b c2		 mov	 eax, edx

; 507  :         _Wherenode->_Left = _Pnode->_Right;

  00148	89 08		 mov	 DWORD PTR [eax], ecx

; 508  : 
; 509  :         if (!_Pnode->_Right->_Isnil) {

  0014a	8b 4e 08	 mov	 ecx, DWORD PTR [esi+8]
  0014d	80 79 0d 00	 cmp	 BYTE PTR [ecx+13], 0
  00151	75 03		 jne	 SHORT $LN37@Insert_nod

; 510  :             _Pnode->_Right->_Parent = _Wherenode;

  00153	89 41 04	 mov	 DWORD PTR [ecx+4], eax
$LN37@Insert_nod:

; 511  :         }
; 512  : 
; 513  :         _Pnode->_Parent = _Wherenode->_Parent;

  00156	8b 4a 04	 mov	 ecx, DWORD PTR [edx+4]
  00159	89 4e 04	 mov	 DWORD PTR [esi+4], ecx

; 514  : 
; 515  :         if (_Wherenode == _Myhead->_Parent) {

  0015c	8b 0b		 mov	 ecx, DWORD PTR [ebx]
  0015e	3b 41 04	 cmp	 eax, DWORD PTR [ecx+4]
  00161	75 05		 jne	 SHORT $LN38@Insert_nod

; 516  :             _Myhead->_Parent = _Pnode;

  00163	89 71 04	 mov	 DWORD PTR [ecx+4], esi
  00166	eb 0f		 jmp	 SHORT $LN41@Insert_nod
$LN38@Insert_nod:

; 517  :         } else if (_Wherenode == _Wherenode->_Parent->_Right) {

  00168	8b 4a 04	 mov	 ecx, DWORD PTR [edx+4]
  0016b	3b 41 08	 cmp	 eax, DWORD PTR [ecx+8]
  0016e	75 05		 jne	 SHORT $LN40@Insert_nod

; 518  :             _Wherenode->_Parent->_Right = _Pnode;

  00170	89 71 08	 mov	 DWORD PTR [ecx+8], esi

; 519  :         } else {

  00173	eb 02		 jmp	 SHORT $LN41@Insert_nod
$LN40@Insert_nod:

; 520  :             _Wherenode->_Parent->_Left = _Pnode;

  00175	89 31		 mov	 DWORD PTR [ecx], esi
$LN41@Insert_nod:

; 521  :         }
; 522  : 
; 523  :         _Pnode->_Right      = _Wherenode;

  00177	89 46 08	 mov	 DWORD PTR [esi+8], eax

; 524  :         _Wherenode->_Parent = _Pnode;

  0017a	89 70 04	 mov	 DWORD PTR [eax+4], esi
$LN42@Insert_nod:

; 724  :                         _Rrotate(_Pnode);
; 725  :                     }
; 726  : 
; 727  :                     _Pnode->_Parent->_Color          = _Black; // propagate red up

  0017d	8b 48 04	 mov	 ecx, DWORD PTR [eax+4]
  00180	c6 41 0c 01	 mov	 BYTE PTR [ecx+12], 1

; 728  :                     _Pnode->_Parent->_Parent->_Color = _Red;

  00184	8b 48 04	 mov	 ecx, DWORD PTR [eax+4]
  00187	8b 49 04	 mov	 ecx, DWORD PTR [ecx+4]
  0018a	c6 41 0c 00	 mov	 BYTE PTR [ecx+12], 0

; 729  :                     _Lrotate(_Pnode->_Parent->_Parent);

  0018e	8b 48 04	 mov	 ecx, DWORD PTR [eax+4]
  00191	8b 51 04	 mov	 edx, DWORD PTR [ecx+4]

; 484  :         _Nodeptr _Pnode    = _Wherenode->_Right;

  00194	8b 72 08	 mov	 esi, DWORD PTR [edx+8]

; 485  :         _Wherenode->_Right = _Pnode->_Left;

  00197	8b 0e		 mov	 ecx, DWORD PTR [esi]
  00199	89 4a 08	 mov	 DWORD PTR [edx+8], ecx

; 486  : 
; 487  :         if (!_Pnode->_Left->_Isnil) {

  0019c	8b 0e		 mov	 ecx, DWORD PTR [esi]
  0019e	80 79 0d 00	 cmp	 BYTE PTR [ecx+13], 0
  001a2	75 03		 jne	 SHORT $LN45@Insert_nod

; 488  :             _Pnode->_Left->_Parent = _Wherenode;

  001a4	89 51 04	 mov	 DWORD PTR [ecx+4], edx
$LN45@Insert_nod:

; 489  :         }
; 490  : 
; 491  :         _Pnode->_Parent = _Wherenode->_Parent;

  001a7	8b 4a 04	 mov	 ecx, DWORD PTR [edx+4]
  001aa	89 4e 04	 mov	 DWORD PTR [esi+4], ecx

; 492  : 
; 493  :         if (_Wherenode == _Myhead->_Parent) {

  001ad	8b 0b		 mov	 ecx, DWORD PTR [ebx]
  001af	3b 51 04	 cmp	 edx, DWORD PTR [ecx+4]
  001b2	75 05		 jne	 SHORT $LN46@Insert_nod

; 494  :             _Myhead->_Parent = _Pnode;

  001b4	89 71 04	 mov	 DWORD PTR [ecx+4], esi
  001b7	eb 0e		 jmp	 SHORT $LN49@Insert_nod
$LN46@Insert_nod:

; 495  :         } else if (_Wherenode == _Wherenode->_Parent->_Left) {

  001b9	8b 4a 04	 mov	 ecx, DWORD PTR [edx+4]
  001bc	3b 11		 cmp	 edx, DWORD PTR [ecx]
  001be	75 04		 jne	 SHORT $LN48@Insert_nod

; 496  :             _Wherenode->_Parent->_Left = _Pnode;

  001c0	89 31		 mov	 DWORD PTR [ecx], esi

; 497  :         } else {

  001c2	eb 03		 jmp	 SHORT $LN49@Insert_nod
$LN48@Insert_nod:

; 498  :             _Wherenode->_Parent->_Right = _Pnode;

  001c4	89 71 08	 mov	 DWORD PTR [ecx+8], esi
$LN49@Insert_nod:

; 499  :         }
; 500  : 
; 501  :         _Pnode->_Left       = _Wherenode;

  001c7	89 16		 mov	 DWORD PTR [esi], edx
$LN81@Insert_nod:

; 693  :             }
; 694  :         }
; 695  : 
; 696  :         for (_Nodeptr _Pnode = _Newnode; _Pnode->_Parent->_Color == _Red;) {

  001c9	89 72 04	 mov	 DWORD PTR [edx+4], esi
$LN2@Insert_nod:
  001cc	8b 48 04	 mov	 ecx, DWORD PTR [eax+4]
  001cf	80 79 0c 00	 cmp	 BYTE PTR [ecx+12], 0
  001d3	0f 84 87 fe ff
	ff		 je	 $LL4@Insert_nod
  001d9	5e		 pop	 esi
$LN3@Insert_nod:

; 730  :                 }
; 731  :             }
; 732  :         }
; 733  : 
; 734  :         _Head->_Parent->_Color = _Black; // root is always black

  001da	8b 45 fc	 mov	 eax, DWORD PTR __Head$1$[ebp]
  001dd	8b 40 04	 mov	 eax, DWORD PTR [eax+4]
  001e0	c6 40 0c 01	 mov	 BYTE PTR [eax+12], 1

; 735  :         return _Newnode;
; 736  :     }

  001e4	8b c7		 mov	 eax, edi
  001e6	5f		 pop	 edi
  001e7	5b		 pop	 ebx
  001e8	8b e5		 mov	 esp, ebp
  001ea	5d		 pop	 ebp
  001eb	c2 0c 00	 ret	 12			; 0000000cH
?_Insert_node@?$_Tree_val@U?$_Tree_simple_types@D@std@@@std@@QAEPAU?$_Tree_node@DPAX@2@U?$_Tree_id@PAU?$_Tree_node@DPAX@std@@@2@QAU32@@Z ENDP ; std::_Tree_val<std::_Tree_simple_types<char> >::_Insert_node
_TEXT	ENDS
; Function compile flags: /Ogtp
; File C:\IAGOS\server\v18\Source\Source\_Common\ProjectCmn.cpp
; File C:\Program Files\Microsoft Visual Studio\2022\Professional\VC\Tools\MSVC\14.44.35207\atlmfc\include\afxstr.h
; File C:\Program Files\Microsoft Visual Studio\2022\Professional\VC\Tools\MSVC\14.44.35207\atlmfc\include\atlsimpstr.h
; File C:\Program Files\Microsoft Visual Studio\2022\Professional\VC\Tools\MSVC\14.44.35207\atlmfc\include\cstringt.h
; File C:\Program Files\Microsoft Visual Studio\2022\Professional\VC\Tools\MSVC\14.44.35207\atlmfc\include\atlsimpstr.h
; File C:\Program Files\Microsoft Visual Studio\2022\Professional\VC\Tools\MSVC\14.44.35207\include\xtree
; File C:\IAGOS\server\v18\Source\Source\_Common\ProjectCmn.cpp
; File C:\Program Files\Microsoft Visual Studio\2022\Professional\VC\Tools\MSVC\14.44.35207\include\xtree
; File C:\IAGOS\server\v18\Source\Source\_Common\ProjectCmn.cpp
; File C:\Program Files\Microsoft Visual Studio\2022\Professional\VC\Tools\MSVC\14.44.35207\include\xstring
; File C:\Program Files\Microsoft Visual Studio\2022\Professional\VC\Tools\MSVC\14.44.35207\include\xtree
; File C:\Program Files\Microsoft Visual Studio\2022\Professional\VC\Tools\MSVC\14.44.35207\include\xstring
; File C:\Program Files\Microsoft Visual Studio\2022\Professional\VC\Tools\MSVC\14.44.35207\include\__msvc_string_view.hpp
; File C:\Program Files\Microsoft Visual Studio\2022\Professional\VC\Tools\MSVC\14.44.35207\include\xstring
; File C:\Program Files\Microsoft Visual Studio\2022\Professional\VC\Tools\MSVC\14.44.35207\include\__msvc_string_view.hpp
; File C:\Program Files\Microsoft Visual Studio\2022\Professional\VC\Tools\MSVC\14.44.35207\include\xstring
; File C:\Program Files\Microsoft Visual Studio\2022\Professional\VC\Tools\MSVC\14.44.35207\include\xmemory
; File C:\Program Files\Microsoft Visual Studio\2022\Professional\VC\Tools\MSVC\14.44.35207\include\xstring
; File C:\Program Files\Microsoft Visual Studio\2022\Professional\VC\Tools\MSVC\14.44.35207\include\xmemory
; File C:\Program Files\Microsoft Visual Studio\2022\Professional\VC\Tools\MSVC\14.44.35207\include\xstring
; File C:\Program Files\Microsoft Visual Studio\2022\Professional\VC\Tools\MSVC\14.44.35207\include\__msvc_string_view.hpp
; File C:\Program Files\Microsoft Visual Studio\2022\Professional\VC\Tools\MSVC\14.44.35207\include\xstring
; File C:\Program Files\Microsoft Visual Studio\2022\Professional\VC\Tools\MSVC\14.44.35207\atlmfc\include\cstringt.h
; File C:\IAGOS\server\v18\Source\Source\_Common\ProjectCmn.cpp
; File C:\Program Files\Microsoft Visual Studio\2022\Professional\VC\Tools\MSVC\14.44.35207\include\xstring
; File C:\Program Files\Microsoft Visual Studio\2022\Professional\VC\Tools\MSVC\14.44.35207\include\xmemory
; File C:\Program Files\Microsoft Visual Studio\2022\Professional\VC\Tools\MSVC\14.44.35207\include\xstring
; File C:\Program Files\Microsoft Visual Studio\2022\Professional\VC\Tools\MSVC\14.44.35207\include\xmemory
; File C:\Program Files\Microsoft Visual Studio\2022\Professional\VC\Tools\MSVC\14.44.35207\include\xtree
; File C:\IAGOS\server\v18\Source\Source\_Common\ProjectCmn.cpp
; File C:\Program Files\Microsoft Visual Studio\2022\Professional\VC\Tools\MSVC\14.44.35207\atlmfc\include\atlsimpstr.h
; File C:\IAGOS\server\v18\Source\Source\_Common\ProjectCmn.cpp
; File C:\Program Files\Microsoft Visual Studio\2022\Professional\VC\Tools\MSVC\14.44.35207\include\xstring
; File C:\Program Files\Microsoft Visual Studio\2022\Professional\VC\Tools\MSVC\14.44.35207\include\xmemory
; File C:\Program Files\Microsoft Visual Studio\2022\Professional\VC\Tools\MSVC\14.44.35207\include\xstring
; File C:\Program Files\Microsoft Visual Studio\2022\Professional\VC\Tools\MSVC\14.44.35207\include\xmemory
; File C:\Program Files\Microsoft Visual Studio\2022\Professional\VC\Tools\MSVC\14.44.35207\include\xstring
; File C:\Program Files\Microsoft Visual Studio\2022\Professional\VC\Tools\MSVC\14.44.35207\atlmfc\include\atlsimpstr.h
; File C:\Program Files\Microsoft Visual Studio\2022\Professional\VC\Tools\MSVC\14.44.35207\include\xmemory
; File C:\IAGOS\server\v18\Source\Source\_Common\ProjectCmn.cpp
;	COMDAT ?IsInvalidName@CProject@@QAEHPBD@Z
_TEXT	SEGMENT
_strstr$1 = -132					; size = 24
_this$1$ = -108						; size = 4
__Count$1$ = -104					; size = 4
__Result$1$ = -100					; size = 4
__Result$1$ = -96					; size = 4
__Back_shift$1$ = -96					; size = 4
_str$ = -92						; size = 4
_strstr$1$sroa$397$1$ = -88				; size = 4
__Ptr$1$ = -84						; size = 4
_pszName$ = -80						; size = 64
__$ArrayPad$ = -16					; size = 4
__$EHRec$ = -12						; size = 12
_szName$ = 8						; size = 4
?IsInvalidName@CProject@@QAEHPBD@Z PROC			; CProject::IsInvalidName, COMDAT
; _this$ = ecx

; 1136 : {

  00000	55		 push	 ebp
  00001	8b ec		 mov	 ebp, esp
  00003	6a ff		 push	 -1
  00005	68 00 00 00 00	 push	 __ehhandler$?IsInvalidName@CProject@@QAEHPBD@Z
  0000a	64 a1 00 00 00
	00		 mov	 eax, DWORD PTR fs:0
  00010	50		 push	 eax
  00011	83 ec 78	 sub	 esp, 120		; 00000078H
  00014	a1 00 00 00 00	 mov	 eax, DWORD PTR ___security_cookie
  00019	33 c5		 xor	 eax, ebp
  0001b	89 45 f0	 mov	 DWORD PTR __$ArrayPad$[ebp], eax
  0001e	56		 push	 esi
  0001f	57		 push	 edi
  00020	50		 push	 eax
  00021	8d 45 f4	 lea	 eax, DWORD PTR __$EHRec$[ebp]
  00024	64 a3 00 00 00
	00		 mov	 DWORD PTR fs:0, eax
  0002a	8b f9		 mov	 edi, ecx
  0002c	89 7d 94	 mov	 DWORD PTR _this$1$[ebp], edi

; 1137 : 	TCHAR pszName[ 64 ];
; 1138 : 	strcpy( pszName, szName );

  0002f	8b 55 08	 mov	 edx, DWORD PTR _szName$[ebp]
  00032	8d 75 b0	 lea	 esi, DWORD PTR _pszName$[ebp]
  00035	2b f2		 sub	 esi, edx
$LL7@IsInvalidN:
  00037	8a 02		 mov	 al, BYTE PTR [edx]
  00039	8d 52 01	 lea	 edx, DWORD PTR [edx+1]
  0003c	88 44 16 ff	 mov	 BYTE PTR [esi+edx-1], al
  00040	84 c0		 test	 al, al
  00042	75 f3		 jne	 SHORT $LL7@IsInvalidN

; 1139 : 	strlwr( pszName );

  00044	8d 45 b0	 lea	 eax, DWORD PTR _pszName$[ebp]
  00047	50		 push	 eax
  00048	e8 00 00 00 00	 call	 _strlwr
  0004d	83 c4 04	 add	 esp, 4
; File C:\Program Files\Microsoft Visual Studio\2022\Professional\VC\Tools\MSVC\14.44.35207\atlmfc\include\afxstr.h

; 56   : 		return( AfxGetStringManager() );

  00050	e8 00 00 00 00	 call	 ?AfxGetStringManager@@YGPAUIAtlStringMgr@ATL@@XZ ; AfxGetStringManager
  00055	8b c8		 mov	 ecx, eax
; File C:\Program Files\Microsoft Visual Studio\2022\Professional\VC\Tools\MSVC\14.44.35207\atlmfc\include\atlsimpstr.h

; 209  : 		ATLENSURE( pStringMgr != NULL );

  00057	85 c9		 test	 ecx, ecx
  00059	0f 84 5a 02 00
	00		 je	 $LN263@IsInvalidN

; 210  : 		CStringData* pData = pStringMgr->GetNilString();

  0005f	8b 01		 mov	 eax, DWORD PTR [ecx]
  00061	8b 40 0c	 mov	 eax, DWORD PTR [eax+12]
  00064	ff d0		 call	 eax

; 211  : 		Attach( pData );

  00066	83 c0 10	 add	 eax, 16			; 00000010H
  00069	89 45 a4	 mov	 DWORD PTR _str$[ebp], eax
; File C:\Program Files\Microsoft Visual Studio\2022\Professional\VC\Tools\MSVC\14.44.35207\atlmfc\include\cstringt.h

; 2712 : 		if( (pv != NULL) && IS_INTRESOURCE( pv ) )

  0006c	8d 45 b0	 lea	 eax, DWORD PTR _pszName$[ebp]

; 1052 : 		CThisSimpleString( StringTraits::GetDefaultManager() )

  0006f	c7 45 fc 00 00
	00 00		 mov	 DWORD PTR __$EHRec$[ebp+8], 0

; 2712 : 		if( (pv != NULL) && IS_INTRESOURCE( pv ) )

  00076	a9 00 00 ff ff	 test	 eax, -65536		; ffff0000H
  0007b	75 0e		 jne	 SHORT $LN253@IsInvalidN

; 2713 : 		{
; 2714 : 			UINT nID = LOWORD( reinterpret_cast< DWORD_PTR >( pv ) );

  0007d	0f b7 c0	 movzx	 eax, ax

; 2715 : 			(nID);
; 2716 : #ifdef _ATL_USE_WINAPI_FAMILY_DESKTOP_APP
; 2717 : 			if( !LoadString( nID ) )

  00080	8d 4d a4	 lea	 ecx, DWORD PTR _str$[ebp]
  00083	50		 push	 eax
  00084	e8 00 00 00 00	 call	 ?LoadStringA@?$CStringT@DV?$StrTraitMFC@DV?$ChTraitsCRT@D@ATL@@@@@ATL@@QAEHI@Z ; ATL::CStringT<char,StrTraitMFC<char,ATL::ChTraitsCRT<char> > >::LoadStringA

; 1054 : 		if( !CheckImplicitLoad( pszSrc ) )

  00089	eb 1c		 jmp	 SHORT $LN12@IsInvalidN
$LN253@IsInvalidN:
; File C:\Program Files\Microsoft Visual Studio\2022\Professional\VC\Tools\MSVC\14.44.35207\atlmfc\include\atlsimpstr.h

; 730  : 		return( int( strlen( psz ) ) );

  0008b	8d 4d b0	 lea	 ecx, DWORD PTR _pszName$[ebp]
  0008e	8d 51 01	 lea	 edx, DWORD PTR [ecx+1]
$LL257@IsInvalidN:
  00091	8a 01		 mov	 al, BYTE PTR [ecx]
  00093	41		 inc	 ecx
  00094	84 c0		 test	 al, al
  00096	75 f9		 jne	 SHORT $LL257@IsInvalidN
  00098	2b ca		 sub	 ecx, edx

; 606  : 		SetString( pszSrc, StringLength( pszSrc ) );

  0009a	8d 45 b0	 lea	 eax, DWORD PTR _pszName$[ebp]
  0009d	51		 push	 ecx
  0009e	50		 push	 eax
  0009f	8d 4d a4	 lea	 ecx, DWORD PTR _str$[ebp]
  000a2	e8 00 00 00 00	 call	 ?SetString@?$CSimpleStringT@D$0A@@ATL@@QAEXPBDH@Z ; ATL::CSimpleStringT<char,0>::SetString
$LN12@IsInvalidN:
; File C:\Program Files\Microsoft Visual Studio\2022\Professional\VC\Tools\MSVC\14.44.35207\include\xtree

; 1142 :         return iterator(_Scary->_Myhead->_Left, _Scary);

  000a7	8b 87 3c 15 05
	00		 mov	 eax, DWORD PTR [edi+333116]
; File C:\IAGOS\server\v18\Source\Source\_Common\ProjectCmn.cpp

; 1142 : 	for( set<string>::iterator i = m_sInvalidNames.begin(); i != m_sInvalidNames.end(); ++i )

  000ad	8b 7d a4	 mov	 edi, DWORD PTR _str$[ebp]
  000b0	c7 45 fc 01 00
	00 00		 mov	 DWORD PTR __$EHRec$[ebp+8], 1
; File C:\Program Files\Microsoft Visual Studio\2022\Professional\VC\Tools\MSVC\14.44.35207\include\xtree

; 37   :     _Tree_unchecked_const_iterator(_Nodeptr _Pnode, const _Mytree* _Plist) noexcept : _Ptr(_Pnode) {

  000b7	8b 30		 mov	 esi, DWORD PTR [eax]

; 237  :         return !(*this == _Right);

  000b9	3b f0		 cmp	 esi, eax
; File C:\IAGOS\server\v18\Source\Source\_Common\ProjectCmn.cpp

; 1142 : 	for( set<string>::iterator i = m_sInvalidNames.begin(); i != m_sInvalidNames.end(); ++i )

  000bb	0f 84 7a 01 00
	00		 je	 $LN3@IsInvalidN
$LL4@IsInvalidN:
; File C:\Program Files\Microsoft Visual Studio\2022\Professional\VC\Tools\MSVC\14.44.35207\include\xstring

; 453  :         return _Myres > _Small_string_capacity;

  000c1	83 7e 24 0f	 cmp	 DWORD PTR [esi+36], 15	; 0000000fH
; File C:\Program Files\Microsoft Visual Studio\2022\Professional\VC\Tools\MSVC\14.44.35207\include\xtree

; 185  :         return this->_Ptr->_Myval;

  000c5	8d 46 10	 lea	 eax, DWORD PTR [esi+16]
  000c8	89 45 a0	 mov	 DWORD PTR __Result$1$[ebp], eax
; File C:\Program Files\Microsoft Visual Studio\2022\Professional\VC\Tools\MSVC\14.44.35207\include\xstring

; 444  :         const value_type* _Result = _Bx._Buf;

  000cb	8b d0		 mov	 edx, eax
  000cd	89 45 9c	 mov	 DWORD PTR __Result$1$[ebp], eax

; 445  :         if (_Large_mode_engaged()) {

  000d0	76 05		 jbe	 SHORT $LN255@IsInvalidN

; 446  :             _Result = _Unfancy(_Bx._Ptr);

  000d2	8b 10		 mov	 edx, DWORD PTR [eax]
  000d4	89 55 9c	 mov	 DWORD PTR __Result$1$[ebp], edx
$LN255@IsInvalidN:

; 718  :         _Construct<_Construct_strategy::_From_string>(_Right._Mypair._Myval2._Myptr(), _Right._Mypair._Myval2._Mysize);

  000d7	8b 48 10	 mov	 ecx, DWORD PTR [eax+16]
  000da	89 4d 98	 mov	 DWORD PTR __Count$1$[ebp], ecx

; 881  :         if (_Count > max_size()) {

  000dd	81 f9 ff ff ff
	7f		 cmp	 ecx, 2147483647		; 7fffffffH
  000e3	0f 87 cb 01 00
	00		 ja	 $LN237@IsInvalidN

; 883  :         }
; 884  : 
; 885  :         auto& _Al       = _Getal();
; 886  :         auto&& _Alproxy = _GET_PROXY_ALLOCATOR(_Alty, _Al);
; 887  :         _Container_proxy_ptr<_Alty> _Proxy(_Alproxy, _My_data);
; 888  : 
; 889  :         if (_Count <= _Small_string_capacity) {

  000e9	83 f9 0f	 cmp	 ecx, 15			; 0000000fH
  000ec	77 1f		 ja	 SHORT $LN107@IsInvalidN
; File C:\Program Files\Microsoft Visual Studio\2022\Professional\VC\Tools\MSVC\14.44.35207\include\__msvc_string_view.hpp

; 121  :         _CSTD memcpy(_First1, _First2, _Count * sizeof(_Elem));

  000ee	0f 10 02	 movups	 xmm0, XMMWORD PTR [edx]
; File C:\Program Files\Microsoft Visual Studio\2022\Professional\VC\Tools\MSVC\14.44.35207\include\xstring

; 891  :             _My_data._Myres  = _Small_string_capacity;

  000f1	c7 45 a8 0f 00
	00 00		 mov	 DWORD PTR _strstr$1$sroa$397$1$[ebp], 15 ; 0000000fH
; File C:\Program Files\Microsoft Visual Studio\2022\Professional\VC\Tools\MSVC\14.44.35207\include\__msvc_string_view.hpp

; 121  :         _CSTD memcpy(_First1, _First2, _Count * sizeof(_Elem));

  000f8	0f 11 85 7c ff
	ff ff		 movups	 XMMWORD PTR _strstr$1[ebp], xmm0
; File C:\Program Files\Microsoft Visual Studio\2022\Professional\VC\Tools\MSVC\14.44.35207\include\xstring

; 908  :             return;

  000ff	8b 8d 7c ff ff
	ff		 mov	 ecx, DWORD PTR _strstr$1[ebp]
  00105	89 4d ac	 mov	 DWORD PTR __Ptr$1$[ebp], ecx
  00108	e9 79 00 00 00	 jmp	 $LN133@IsInvalidN
$LN107@IsInvalidN:

; 2978 :         const size_type _Masked = _Requested | _Alloc_mask;

  0010d	8b c1		 mov	 eax, ecx
  0010f	83 c8 0f	 or	 eax, 15			; 0000000fH
  00112	3d ff ff ff 7f	 cmp	 eax, 2147483647		; 7fffffffH

; 2979 :         if (_Masked > _Max) { // the mask overflows, settle for max_size()

  00117	76 19		 jbe	 SHORT $LN113@IsInvalidN

; 2980 :             return _Max;

  00119	b9 00 00 00 80	 mov	 ecx, -2147483648	; 80000000H
  0011e	c7 45 a8 ff ff
	ff 7f		 mov	 DWORD PTR _strstr$1$sroa$397$1$[ebp], 2147483647 ; 7fffffffH
; File C:\Program Files\Microsoft Visual Studio\2022\Professional\VC\Tools\MSVC\14.44.35207\include\xmemory

; 253  :             return _Allocate_manually_vector_aligned<_Traits>(_Bytes);

  00125	51		 push	 ecx
  00126	e8 00 00 00 00	 call	 ??$_Allocate_manually_vector_aligned@U_Default_allocate_traits@std@@@std@@YAPAXI@Z ; std::_Allocate_manually_vector_aligned<std::_Default_allocate_traits>
  0012b	8b c8		 mov	 ecx, eax
  0012d	89 4d ac	 mov	 DWORD PTR __Ptr$1$[ebp], ecx
  00130	eb 3d		 jmp	 SHORT $LN261@IsInvalidN
$LN113@IsInvalidN:
; File C:\Program Files\Microsoft Visual Studio\2022\Professional\VC\Tools\MSVC\14.44.35207\include\xstring

; 2987 :         return (_STD max)(_Masked, _Old + _Old / 2);

  00132	83 f8 16	 cmp	 eax, 22			; 00000016H
  00135	b9 16 00 00 00	 mov	 ecx, 22			; 00000016H
  0013a	0f 42 c1	 cmovb	 eax, ecx
  0013d	89 45 a8	 mov	 DWORD PTR _strstr$1$sroa$397$1$[ebp], eax

; 825  :         ++_Capacity; // Take null terminator into consideration

  00140	8d 48 01	 lea	 ecx, DWORD PTR [eax+1]
; File C:\Program Files\Microsoft Visual Studio\2022\Professional\VC\Tools\MSVC\14.44.35207\include\xmemory

; 227  :     if (_Bytes == 0) {

  00143	85 c9		 test	 ecx, ecx
  00145	75 08		 jne	 SHORT $LN127@IsInvalidN

; 228  :         return nullptr;

  00147	89 4d ac	 mov	 DWORD PTR __Ptr$1$[ebp], ecx
  0014a	89 45 a8	 mov	 DWORD PTR _strstr$1$sroa$397$1$[ebp], eax
  0014d	eb 23		 jmp	 SHORT $LN126@IsInvalidN
$LN127@IsInvalidN:

; 229  :     }
; 230  : 
; 231  : #if _HAS_CXX20 // TRANSITION, GH-1532
; 232  :     if (_STD is_constant_evaluated()) {
; 233  :         return _Traits::_Allocate(_Bytes);
; 234  :     }
; 235  : #endif // _HAS_CXX20
; 236  : 
; 237  : #ifdef __cpp_aligned_new
; 238  :     if constexpr (_Align > __STDCPP_DEFAULT_NEW_ALIGNMENT__) {
; 239  :         size_t _Passed_align = _Align;
; 240  : #if defined(_M_IX86) || defined(_M_X64)
; 241  :         if (_Bytes >= _Big_allocation_threshold) {
; 242  :             // boost the alignment of big allocations to help autovectorization
; 243  :             _Passed_align = (_STD max)(_Align, _Big_allocation_alignment);
; 244  :         }
; 245  : #endif // defined(_M_IX86) || defined(_M_X64)
; 246  :         return _Traits::_Allocate_aligned(_Bytes, _Passed_align);
; 247  :     } else
; 248  : #endif // defined(__cpp_aligned_new)
; 249  :     {
; 250  : #if defined(_M_IX86) || defined(_M_X64)
; 251  :         if (_Bytes >= _Big_allocation_threshold) {

  0014f	81 f9 00 10 00
	00		 cmp	 ecx, 4096		; 00001000H
  00155	72 0d		 jb	 SHORT $LN128@IsInvalidN

; 253  :             return _Allocate_manually_vector_aligned<_Traits>(_Bytes);

  00157	51		 push	 ecx
  00158	e8 00 00 00 00	 call	 ??$_Allocate_manually_vector_aligned@U_Default_allocate_traits@std@@@std@@YAPAXI@Z ; std::_Allocate_manually_vector_aligned<std::_Default_allocate_traits>
  0015d	8b c8		 mov	 ecx, eax
  0015f	89 4d ac	 mov	 DWORD PTR __Ptr$1$[ebp], ecx
  00162	eb 0b		 jmp	 SHORT $LN261@IsInvalidN
$LN128@IsInvalidN:

; 136  :         return ::operator new(_Bytes);

  00164	51		 push	 ecx
  00165	e8 00 00 00 00	 call	 ??2@YAPAXI@Z		; operator new

; 256  :         return _Traits::_Allocate(_Bytes);

  0016a	8b c8		 mov	 ecx, eax
  0016c	89 45 ac	 mov	 DWORD PTR __Ptr$1$[ebp], eax
$LN261@IsInvalidN:
; File C:\Program Files\Microsoft Visual Studio\2022\Professional\VC\Tools\MSVC\14.44.35207\include\xstring

; 924  :             _Traits::copy(_Unfancy(_New_ptr), _Arg, _Count + 1);

  0016f	83 c4 04	 add	 esp, 4
$LN126@IsInvalidN:
  00172	8b 45 98	 mov	 eax, DWORD PTR __Count$1$[ebp]
  00175	40		 inc	 eax
; File C:\Program Files\Microsoft Visual Studio\2022\Professional\VC\Tools\MSVC\14.44.35207\include\__msvc_string_view.hpp

; 121  :         _CSTD memcpy(_First1, _First2, _Count * sizeof(_Elem));

  00176	50		 push	 eax
  00177	ff 75 9c	 push	 DWORD PTR __Result$1$[ebp]
  0017a	51		 push	 ecx
  0017b	e8 00 00 00 00	 call	 _memcpy
  00180	8b 45 a0	 mov	 eax, DWORD PTR __Result$1$[ebp]
  00183	83 c4 0c	 add	 esp, 12			; 0000000cH
$LN133@IsInvalidN:
; File C:\Program Files\Microsoft Visual Studio\2022\Professional\VC\Tools\MSVC\14.44.35207\include\xstring

; 453  :         return _Myres > _Small_string_capacity;

  00186	83 78 14 0f	 cmp	 DWORD PTR [eax+20], 15	; 0000000fH

; 445  :         if (_Large_mode_engaged()) {

  0018a	76 02		 jbe	 SHORT $LN143@IsInvalidN

; 446  :             _Result = _Unfancy(_Bx._Ptr);

  0018c	8b 00		 mov	 eax, DWORD PTR [eax]
$LN143@IsInvalidN:
; File C:\Program Files\Microsoft Visual Studio\2022\Professional\VC\Tools\MSVC\14.44.35207\atlmfc\include\cstringt.h

; 1789 : 		if(pszSub == NULL)

  0018e	85 c0		 test	 eax, eax
  00190	74 1f		 je	 SHORT $LN254@IsInvalidN

; 1790 : 		{
; 1791 : 			return( -1 );
; 1792 : 		}
; 1793 : 		// nLength is in XCHARs
; 1794 : 		int nLength = this->GetLength();
; 1795 : 		if( iStart < 0 || iStart > nLength )

  00192	83 7f f4 00	 cmp	 DWORD PTR [edi-12], 0
  00196	7c 19		 jl	 SHORT $LN254@IsInvalidN

; 212  : 		return reinterpret_cast< LPCSTR >( _mbsstr( reinterpret_cast< const unsigned char* >( pszBlock ),

  00198	50		 push	 eax
  00199	57		 push	 edi
  0019a	e8 00 00 00 00	 call	 __mbsstr
  0019f	83 c4 08	 add	 esp, 8

; 1804 : 		return( (psz == NULL) ? -1 : int( psz - this->GetString() ) );

  001a2	85 c0		 test	 eax, eax
  001a4	74 0b		 je	 SHORT $LN254@IsInvalidN
  001a6	2b c7		 sub	 eax, edi
; File C:\IAGOS\server\v18\Source\Source\_Common\ProjectCmn.cpp

; 1147 : 		if( str.Find( (*i).c_str(), 0 ) != -1 )

  001a8	83 f8 ff	 cmp	 eax, -1
  001ab	0f 85 ca 00 00
	00		 jne	 $LN238@IsInvalidN
$LN254@IsInvalidN:
; File C:\Program Files\Microsoft Visual Studio\2022\Professional\VC\Tools\MSVC\14.44.35207\include\xstring

; 453  :         return _Myres > _Small_string_capacity;

  001b1	8b 45 a8	 mov	 eax, DWORD PTR _strstr$1$sroa$397$1$[ebp]
  001b4	83 f8 0f	 cmp	 eax, 15			; 0000000fH

; 3083 :         if (_My_data._Large_mode_engaged()) {

  001b7	76 35		 jbe	 SHORT $LN213@IsInvalidN
; File C:\Program Files\Microsoft Visual Studio\2022\Professional\VC\Tools\MSVC\14.44.35207\include\xmemory

; 985  :         _STD _Deallocate<_New_alignof<_Ty>>(_Ptr, sizeof(_Ty) * _Count);

  001b9	8b 4d ac	 mov	 ecx, DWORD PTR __Ptr$1$[ebp]
; File C:\Program Files\Microsoft Visual Studio\2022\Professional\VC\Tools\MSVC\14.44.35207\include\xstring

; 852  :         _Al.deallocate(_Old_ptr, _Capacity + 1); // +1 for null terminator

  001bc	8d 50 01	 lea	 edx, DWORD PTR [eax+1]
; File C:\Program Files\Microsoft Visual Studio\2022\Professional\VC\Tools\MSVC\14.44.35207\include\xmemory

; 985  :         _STD _Deallocate<_New_alignof<_Ty>>(_Ptr, sizeof(_Ty) * _Count);

  001bf	89 4d a0	 mov	 DWORD PTR __Back_shift$1$[ebp], ecx

; 284  :         if (_Bytes >= _Big_allocation_threshold) {

  001c2	81 fa 00 10 00
	00		 cmp	 edx, 4096		; 00001000H
  001c8	72 1a		 jb	 SHORT $LN218@IsInvalidN

; 205  :     const uintptr_t _Ptr_container   = _Ptr_user[-1];

  001ca	8b 41 fc	 mov	 eax, DWORD PTR [ecx-4]
  001cd	83 c2 23	 add	 edx, 35			; 00000023H
  001d0	2b c8		 sub	 ecx, eax
  001d2	89 45 ac	 mov	 DWORD PTR __Ptr$1$[ebp], eax

; 219  :     _STL_VERIFY(_Back_shift >= _Min_back_shift && _Back_shift <= _Non_user_size, "invalid argument");

  001d5	8d 41 fc	 lea	 eax, DWORD PTR [ecx-4]
  001d8	83 f8 1f	 cmp	 eax, 31			; 0000001fH
  001db	0f 87 e2 00 00
	00		 ja	 $LN186@IsInvalidN
  001e1	8b 4d ac	 mov	 ecx, DWORD PTR __Ptr$1$[ebp]
$LN218@IsInvalidN:

; 289  :         ::operator delete(_Ptr, _Bytes);

  001e4	52		 push	 edx
  001e5	51		 push	 ecx
  001e6	e8 00 00 00 00	 call	 ??3@YAXPAXI@Z		; operator delete
  001eb	83 c4 08	 add	 esp, 8
$LN213@IsInvalidN:
; File C:\Program Files\Microsoft Visual Studio\2022\Professional\VC\Tools\MSVC\14.44.35207\include\xtree

; 50   :         if (_Ptr->_Right->_Isnil) { // climb looking for right subtree

  001ee	8b 46 08	 mov	 eax, DWORD PTR [esi+8]
  001f1	80 78 0d 00	 cmp	 BYTE PTR [eax+13], 0
  001f5	74 1d		 je	 SHORT $LN56@IsInvalidN

; 51   :             _Nodeptr _Pnode;
; 52   :             while (!(_Pnode = _Ptr->_Parent)->_Isnil && _Ptr == _Pnode->_Right) {

  001f7	8b 46 04	 mov	 eax, DWORD PTR [esi+4]
  001fa	80 78 0d 00	 cmp	 BYTE PTR [eax+13], 0
  001fe	75 10		 jne	 SHORT $LN55@IsInvalidN
$LL54@IsInvalidN:
  00200	3b 70 08	 cmp	 esi, DWORD PTR [eax+8]
  00203	75 0b		 jne	 SHORT $LN55@IsInvalidN

; 53   :                 _Ptr = _Pnode; // ==> parent while right subtree

  00205	8b f0		 mov	 esi, eax
  00207	8b 40 04	 mov	 eax, DWORD PTR [eax+4]
  0020a	80 78 0d 00	 cmp	 BYTE PTR [eax+13], 0
  0020e	74 f0		 je	 SHORT $LL54@IsInvalidN
$LN55@IsInvalidN:

; 54   :             }
; 55   : 
; 56   :             _Ptr = _Pnode; // ==> parent (head if end())

  00210	8b f0		 mov	 esi, eax

; 57   :         } else {

  00212	eb 18		 jmp	 SHORT $LN242@IsInvalidN
$LN56@IsInvalidN:

; 58   :             _Ptr = _Mytree::_Min(_Ptr->_Right); // ==> smallest of right subtree

  00214	8b f0		 mov	 esi, eax

; 476  :         while (!_Pnode->_Left->_Isnil) {

  00216	8b 0e		 mov	 ecx, DWORD PTR [esi]
  00218	80 79 0d 00	 cmp	 BYTE PTR [ecx+13], 0
  0021c	75 0e		 jne	 SHORT $LN242@IsInvalidN
  0021e	66 90		 npad	 2
$LL61@IsInvalidN:
  00220	8b 01		 mov	 eax, DWORD PTR [ecx]

; 477  :             _Pnode = _Pnode->_Left;

  00222	8b f1		 mov	 esi, ecx
  00224	8b c8		 mov	 ecx, eax
  00226	80 78 0d 00	 cmp	 BYTE PTR [eax+13], 0
  0022a	74 f4		 je	 SHORT $LL61@IsInvalidN
$LN242@IsInvalidN:

; 237  :         return !(*this == _Right);

  0022c	8b 45 94	 mov	 eax, DWORD PTR _this$1$[ebp]
  0022f	3b b0 3c 15 05
	00		 cmp	 esi, DWORD PTR [eax+333116]
; File C:\IAGOS\server\v18\Source\Source\_Common\ProjectCmn.cpp

; 1142 : 	for( set<string>::iterator i = m_sInvalidNames.begin(); i != m_sInvalidNames.end(); ++i )

  00235	0f 85 86 fe ff
	ff		 jne	 $LL4@IsInvalidN
$LN3@IsInvalidN:

; 1150 : 	return FALSE;

  0023b	33 f6		 xor	 esi, esi
$LN10@IsInvalidN:
  0023d	c7 45 fc ff ff
	ff ff		 mov	 DWORD PTR __$EHRec$[ebp+8], -1
; File C:\Program Files\Microsoft Visual Studio\2022\Professional\VC\Tools\MSVC\14.44.35207\atlmfc\include\atlsimpstr.h

; 804  : 		return( reinterpret_cast< CStringData* >( m_pszData )-1 );

  00244	83 c7 f0	 add	 edi, -16		; fffffff0H

; 92   : 		if( _InterlockedDecrement( &nRefs ) <= 0 )

  00247	83 c8 ff	 or	 eax, -1
  0024a	f0 0f c1 47 0c	 lock	  xadd	 DWORD PTR [edi+12], eax
  0024f	48		 dec	 eax
  00250	85 c0		 test	 eax, eax
  00252	7f 08		 jg	 SHORT $LN231@IsInvalidN

; 93   : 		{
; 94   : 			pStringMgr->Free( this );

  00254	8b 0f		 mov	 ecx, DWORD PTR [edi]
  00256	57		 push	 edi
  00257	8b 11		 mov	 edx, DWORD PTR [ecx]
  00259	ff 52 04	 call	 DWORD PTR [edx+4]
$LN231@IsInvalidN:
; File C:\IAGOS\server\v18\Source\Source\_Common\ProjectCmn.cpp

; 1150 : 	return FALSE;

  0025c	8b c6		 mov	 eax, esi

; 1151 : }

  0025e	8b 4d f4	 mov	 ecx, DWORD PTR __$EHRec$[ebp]
  00261	64 89 0d 00 00
	00 00		 mov	 DWORD PTR fs:0, ecx
  00268	59		 pop	 ecx
  00269	5f		 pop	 edi
  0026a	5e		 pop	 esi
  0026b	8b 4d f0	 mov	 ecx, DWORD PTR __$ArrayPad$[ebp]
  0026e	33 cd		 xor	 ecx, ebp
  00270	e8 00 00 00 00	 call	 @__security_check_cookie@4
  00275	8b e5		 mov	 esp, ebp
  00277	5d		 pop	 ebp
  00278	c2 04 00	 ret	 4
$LN238@IsInvalidN:
; File C:\Program Files\Microsoft Visual Studio\2022\Professional\VC\Tools\MSVC\14.44.35207\include\xstring

; 453  :         return _Myres > _Small_string_capacity;

  0027b	8b 45 a8	 mov	 eax, DWORD PTR _strstr$1$sroa$397$1$[ebp]
  0027e	83 f8 0f	 cmp	 eax, 15			; 0000000fH

; 3083 :         if (_My_data._Large_mode_engaged()) {

  00281	76 2a		 jbe	 SHORT $LN182@IsInvalidN
; File C:\Program Files\Microsoft Visual Studio\2022\Professional\VC\Tools\MSVC\14.44.35207\include\xmemory

; 985  :         _STD _Deallocate<_New_alignof<_Ty>>(_Ptr, sizeof(_Ty) * _Count);

  00283	8b 4d ac	 mov	 ecx, DWORD PTR __Ptr$1$[ebp]
; File C:\Program Files\Microsoft Visual Studio\2022\Professional\VC\Tools\MSVC\14.44.35207\include\xstring

; 852  :         _Al.deallocate(_Old_ptr, _Capacity + 1); // +1 for null terminator

  00286	8d 50 01	 lea	 edx, DWORD PTR [eax+1]
; File C:\Program Files\Microsoft Visual Studio\2022\Professional\VC\Tools\MSVC\14.44.35207\include\xmemory

; 985  :         _STD _Deallocate<_New_alignof<_Ty>>(_Ptr, sizeof(_Ty) * _Count);

  00289	8b c1		 mov	 eax, ecx

; 284  :         if (_Bytes >= _Big_allocation_threshold) {

  0028b	81 fa 00 10 00
	00		 cmp	 edx, 4096		; 00001000H
  00291	72 10		 jb	 SHORT $LN187@IsInvalidN

; 205  :     const uintptr_t _Ptr_container   = _Ptr_user[-1];

  00293	8b 48 fc	 mov	 ecx, DWORD PTR [eax-4]
  00296	83 c2 23	 add	 edx, 35			; 00000023H
  00299	2b c1		 sub	 eax, ecx

; 219  :     _STL_VERIFY(_Back_shift >= _Min_back_shift && _Back_shift <= _Non_user_size, "invalid argument");

  0029b	83 c0 fc	 add	 eax, -4			; fffffffcH
  0029e	83 f8 1f	 cmp	 eax, 31			; 0000001fH
  002a1	77 20		 ja	 SHORT $LN186@IsInvalidN
$LN187@IsInvalidN:

; 289  :         ::operator delete(_Ptr, _Bytes);

  002a3	52		 push	 edx
  002a4	51		 push	 ecx
  002a5	e8 00 00 00 00	 call	 ??3@YAXPAXI@Z		; operator delete
  002aa	83 c4 08	 add	 esp, 8
$LN182@IsInvalidN:
  002ad	be 01 00 00 00	 mov	 esi, 1
  002b2	eb 89		 jmp	 SHORT $LN10@IsInvalidN
$LN237@IsInvalidN:
; File C:\Program Files\Microsoft Visual Studio\2022\Professional\VC\Tools\MSVC\14.44.35207\include\xstring

; 882  :             _Xlen_string(); // result too long

  002b4	e8 00 00 00 00	 call	 ?_Xlen_string@std@@YAXXZ ; std::_Xlen_string
$LN263@IsInvalidN:
; File C:\Program Files\Microsoft Visual Studio\2022\Professional\VC\Tools\MSVC\14.44.35207\atlmfc\include\atlsimpstr.h

; 209  : 		ATLENSURE( pStringMgr != NULL );

  002b9	68 05 40 00 80	 push	 -2147467259		; 80004005H
  002be	e8 00 00 00 00	 call	 ?AtlThrowImpl@ATL@@YGXJ@Z ; ATL::AtlThrowImpl
$LN186@IsInvalidN:
; File C:\Program Files\Microsoft Visual Studio\2022\Professional\VC\Tools\MSVC\14.44.35207\include\xmemory

; 219  :     _STL_VERIFY(_Back_shift >= _Min_back_shift && _Back_shift <= _Non_user_size, "invalid argument");

  002c3	6a 00		 push	 0
  002c5	6a 00		 push	 0
  002c7	6a 00		 push	 0
  002c9	6a 00		 push	 0
  002cb	6a 00		 push	 0
  002cd	e8 00 00 00 00	 call	 __invoke_watson
$LN260@IsInvalidN:
  002d2	cc		 int	 3
_TEXT	ENDS
;	COMDAT text$x
text$x	SEGMENT
__unwindfunclet$?IsInvalidName@CProject@@QAEHPBD@Z$2:
  00000	8d 4d a4	 lea	 ecx, DWORD PTR _str$[ebp]
  00003	e9 00 00 00 00	 jmp	 ??1?$CSimpleStringT@D$0A@@ATL@@QAE@XZ ; ATL::CSimpleStringT<char,0>::~CSimpleStringT<char,0>
__unwindfunclet$?IsInvalidName@CProject@@QAEHPBD@Z$0:
  00008	8d 4d a4	 lea	 ecx, DWORD PTR _str$[ebp]
  0000b	e9 00 00 00 00	 jmp	 ??1?$CStringT@DV?$StrTraitMFC@DV?$ChTraitsCRT@D@ATL@@@@@ATL@@QAE@XZ ; ATL::CStringT<char,StrTraitMFC<char,ATL::ChTraitsCRT<char> > >::~CStringT<char,StrTraitMFC<char,ATL::ChTraitsCRT<char> > >
  00010	cc		 int	 3
  00011	cc		 int	 3
  00012	cc		 int	 3
  00013	cc		 int	 3
  00014	cc		 int	 3
__ehhandler$?IsInvalidName@CProject@@QAEHPBD@Z:
  00015	90		 npad	 1
  00016	90		 npad	 1
  00017	8b 54 24 08	 mov	 edx, DWORD PTR [esp+8]
  0001b	8d 42 0c	 lea	 eax, DWORD PTR [edx+12]
  0001e	8b 8a 7c ff ff
	ff		 mov	 ecx, DWORD PTR [edx-132]
  00024	33 c8		 xor	 ecx, eax
  00026	e8 00 00 00 00	 call	 @__security_check_cookie@4
  0002b	8b 4a fc	 mov	 ecx, DWORD PTR [edx-4]
  0002e	33 c8		 xor	 ecx, eax
  00030	e8 00 00 00 00	 call	 @__security_check_cookie@4
  00035	b8 00 00 00 00	 mov	 eax, OFFSET __ehfuncinfo$?IsInvalidName@CProject@@QAEHPBD@Z
  0003a	e9 00 00 00 00	 jmp	 ___CxxFrameHandler3
text$x	ENDS
?IsInvalidName@CProject@@QAEHPBD@Z ENDP			; CProject::IsInvalidName
; Function compile flags: /Ogtp
; File C:\IAGOS\server\v18\Source\Source\_Common\ProjectCmn.cpp
; File C:\Program Files\Microsoft Visual Studio\2022\Professional\VC\Tools\MSVC\14.44.35207\atlmfc\include\afxstr.h
; File C:\Program Files\Microsoft Visual Studio\2022\Professional\VC\Tools\MSVC\14.44.35207\atlmfc\include\atlsimpstr.h
; File C:\IAGOS\server\v18\Source\Source\_Common\ProjectCmn.cpp
; File C:\Program Files\Microsoft Visual Studio\2022\Professional\VC\Tools\MSVC\14.44.35207\atlmfc\include\atlsimpstr.h
; File C:\IAGOS\server\v18\Source\Source\_Common\ProjectCmn.cpp
; File C:\Program Files\Microsoft Visual Studio\2022\Professional\VC\Tools\MSVC\14.44.35207\atlmfc\include\atlsimpstr.h
; File C:\IAGOS\server\v18\Source\Source\_Common\ProjectCmn.cpp
; File C:\Program Files\Microsoft Visual Studio\2022\Professional\VC\Tools\MSVC\14.44.35207\include\xstring
; File C:\Program Files\Microsoft Visual Studio\2022\Professional\VC\Tools\MSVC\14.44.35207\include\__msvc_string_view.hpp
; File C:\Program Files\Microsoft Visual Studio\2022\Professional\VC\Tools\MSVC\14.44.35207\include\xstring
; File C:\IAGOS\server\v18\Source\Source\_Common\ProjectCmn.cpp
; File C:\Program Files\Microsoft Visual Studio\2022\Professional\VC\Tools\MSVC\14.44.35207\include\__msvc_string_view.hpp
; File C:\Program Files\Microsoft Visual Studio\2022\Professional\VC\Tools\MSVC\14.44.35207\include\xstring
; File C:\Program Files\Microsoft Visual Studio\2022\Professional\VC\Tools\MSVC\14.44.35207\include\__msvc_string_view.hpp
; File C:\Program Files\Microsoft Visual Studio\2022\Professional\VC\Tools\MSVC\14.44.35207\include\xstring
; File C:\Program Files\Microsoft Visual Studio\2022\Professional\VC\Tools\MSVC\14.44.35207\include\__msvc_string_view.hpp
; File C:\Program Files\Microsoft Visual Studio\2022\Professional\VC\Tools\MSVC\14.44.35207\include\xstring
; File C:\Program Files\Microsoft Visual Studio\2022\Professional\VC\Tools\MSVC\14.44.35207\include\__msvc_string_view.hpp
; File C:\Program Files\Microsoft Visual Studio\2022\Professional\VC\Tools\MSVC\14.44.35207\include\xstring
; File C:\Program Files\Microsoft Visual Studio\2022\Professional\VC\Tools\MSVC\14.44.35207\include\__msvc_string_view.hpp
; File C:\Program Files\Microsoft Visual Studio\2022\Professional\VC\Tools\MSVC\14.44.35207\include\xstring
; File C:\Program Files\Microsoft Visual Studio\2022\Professional\VC\Tools\MSVC\14.44.35207\include\xmemory
; File C:\Program Files\Microsoft Visual Studio\2022\Professional\VC\Tools\MSVC\14.44.35207\include\xstring
; File C:\Program Files\Microsoft Visual Studio\2022\Professional\VC\Tools\MSVC\14.44.35207\include\xmemory
; File C:\Program Files\Microsoft Visual Studio\2022\Professional\VC\Tools\MSVC\14.44.35207\include\xstring
; File C:\Program Files\Microsoft Visual Studio\2022\Professional\VC\Tools\MSVC\14.44.35207\include\xmemory
; File C:\Program Files\Microsoft Visual Studio\2022\Professional\VC\Tools\MSVC\14.44.35207\include\xstring
; File C:\Program Files\Microsoft Visual Studio\2022\Professional\VC\Tools\MSVC\14.44.35207\include\__msvc_string_view.hpp
; File C:\Program Files\Microsoft Visual Studio\2022\Professional\VC\Tools\MSVC\14.44.35207\include\xstring
; File C:\Program Files\Microsoft Visual Studio\2022\Professional\VC\Tools\MSVC\14.44.35207\include\__msvc_string_view.hpp
; File C:\Program Files\Microsoft Visual Studio\2022\Professional\VC\Tools\MSVC\14.44.35207\include\xstring
; File C:\IAGOS\server\v18\Source\Source\_Common\ProjectCmn.cpp
; File C:\Program Files\Microsoft Visual Studio\2022\Professional\VC\Tools\MSVC\14.44.35207\include\xtree
; File C:\Program Files\Microsoft Visual Studio\2022\Professional\VC\Tools\MSVC\14.44.35207\include\type_traits
; File C:\Program Files\Microsoft Visual Studio\2022\Professional\VC\Tools\MSVC\14.44.35207\include\xtree
; File C:\Program Files\Microsoft Visual Studio\2022\Professional\VC\Tools\MSVC\14.44.35207\include\type_traits
; File C:\Program Files\Microsoft Visual Studio\2022\Professional\VC\Tools\MSVC\14.44.35207\include\xtree
; File C:\Program Files\Microsoft Visual Studio\2022\Professional\VC\Tools\MSVC\14.44.35207\include\type_traits
; File C:\Program Files\Microsoft Visual Studio\2022\Professional\VC\Tools\MSVC\14.44.35207\include\xtree
; File C:\Program Files\Microsoft Visual Studio\2022\Professional\VC\Tools\MSVC\14.44.35207\include\type_traits
; File C:\Program Files\Microsoft Visual Studio\2022\Professional\VC\Tools\MSVC\14.44.35207\include\xtree
; File C:\Program Files\Microsoft Visual Studio\2022\Professional\VC\Tools\MSVC\14.44.35207\include\xmemory
; File C:\Program Files\Microsoft Visual Studio\2022\Professional\VC\Tools\MSVC\14.44.35207\include\xtree
; File C:\Program Files\Microsoft Visual Studio\2022\Professional\VC\Tools\MSVC\14.44.35207\include\xmemory
; File C:\Program Files\Microsoft Visual Studio\2022\Professional\VC\Tools\MSVC\14.44.35207\include\xstring
; File C:\Program Files\Microsoft Visual Studio\2022\Professional\VC\Tools\MSVC\14.44.35207\include\xtree
; File C:\Program Files\Microsoft Visual Studio\2022\Professional\VC\Tools\MSVC\14.44.35207\include\xmemory
; File C:\Program Files\Microsoft Visual Studio\2022\Professional\VC\Tools\MSVC\14.44.35207\include\xstring
; File C:\Program Files\Microsoft Visual Studio\2022\Professional\VC\Tools\MSVC\14.44.35207\include\utility
; File C:\Program Files\Microsoft Visual Studio\2022\Professional\VC\Tools\MSVC\14.44.35207\include\xstring
; File C:\Program Files\Microsoft Visual Studio\2022\Professional\VC\Tools\MSVC\14.44.35207\include\xtree
; File C:\IAGOS\server\v18\Source\Source\_Common\ProjectCmn.cpp
; File C:\Program Files\Microsoft Visual Studio\2022\Professional\VC\Tools\MSVC\14.44.35207\include\xstring
; File C:\Program Files\Microsoft Visual Studio\2022\Professional\VC\Tools\MSVC\14.44.35207\include\xmemory
; File C:\Program Files\Microsoft Visual Studio\2022\Professional\VC\Tools\MSVC\14.44.35207\include\xstring
; File C:\Program Files\Microsoft Visual Studio\2022\Professional\VC\Tools\MSVC\14.44.35207\include\xmemory
; File C:\IAGOS\server\v18\Source\Source\_Common\ProjectCmn.cpp
; File C:\Program Files\Microsoft Visual Studio\2022\Professional\VC\Tools\MSVC\14.44.35207\atlmfc\include\atlsimpstr.h
; File C:\IAGOS\server\v18\Source\Source\_Common\ProjectCmn.cpp
; File C:\Program Files\Microsoft Visual Studio\2022\Professional\VC\Tools\MSVC\14.44.35207\atlmfc\include\atlsimpstr.h
; File C:\Program Files\Microsoft Visual Studio\2022\Professional\VC\Tools\MSVC\14.44.35207\include\xmemory
; File C:\Program Files\Microsoft Visual Studio\2022\Professional\VC\Tools\MSVC\14.44.35207\include\xtree
; File C:\Program Files\Microsoft Visual Studio\2022\Professional\VC\Tools\MSVC\14.44.35207\include\xstring
; File C:\IAGOS\server\v18\Source\Source\_Common\ProjectCmn.cpp
;	COMDAT ?LoadInvalidName@CProject@@QAEHXZ
_TEXT	SEGMENT
$T4 = -2280						; size = 8
__Myhead$1$ = -2272					; size = 4
_this$GSCopy$1$ = -2268					; size = 4
__Loc$1$ = -2264					; size = 4
$T1$sroa$793$1$ = -2260					; size = 4
_strFilter$ = -2256					; size = 4
$T5 = -2252						; size = 4
_this$1$ = -2252					; size = 4
$T6 = -2248						; size = 4
$T7 = -2244						; size = 4
__Loc$2$ = -2244					; size = 4
_s$ = -2240						; size = 2136
$T8 = -104						; size = 24
_szName$ = -80						; size = 64
__$ArrayPad$ = -16					; size = 4
__$EHRec$ = -12						; size = 12
?LoadInvalidName@CProject@@QAEHXZ PROC			; CProject::LoadInvalidName, COMDAT
; _this$ = ecx

; 1112 : {

  00000	55		 push	 ebp
  00001	8b ec		 mov	 ebp, esp
  00003	6a ff		 push	 -1
  00005	68 00 00 00 00	 push	 __ehhandler$?LoadInvalidName@CProject@@QAEHXZ
  0000a	64 a1 00 00 00
	00		 mov	 eax, DWORD PTR fs:0
  00010	50		 push	 eax
  00011	81 ec dc 08 00
	00		 sub	 esp, 2268		; 000008dcH
  00017	a1 00 00 00 00	 mov	 eax, DWORD PTR ___security_cookie
  0001c	33 c5		 xor	 eax, ebp
  0001e	89 45 f0	 mov	 DWORD PTR __$ArrayPad$[ebp], eax
  00021	56		 push	 esi
  00022	57		 push	 edi
  00023	50		 push	 eax
  00024	8d 45 f4	 lea	 eax, DWORD PTR __$EHRec$[ebp]
  00027	64 a3 00 00 00
	00		 mov	 DWORD PTR fs:0, eax
  0002d	89 8d 24 f7 ff
	ff		 mov	 DWORD PTR _this$GSCopy$1$[ebp], ecx

; 1113 : 	CScanner s;

  00033	6a 00		 push	 0
  00035	8d 8d 40 f7 ff
	ff		 lea	 ecx, DWORD PTR _s$[ebp]
  0003b	e8 00 00 00 00	 call	 ??0CScanner@@QAE@H@Z	; CScanner::CScanner
  00040	c7 45 fc 00 00
	00 00		 mov	 DWORD PTR __$EHRec$[ebp+8], 0
; File C:\Program Files\Microsoft Visual Studio\2022\Professional\VC\Tools\MSVC\14.44.35207\atlmfc\include\afxstr.h

; 56   : 		return( AfxGetStringManager() );

  00047	e8 00 00 00 00	 call	 ?AfxGetStringManager@@YGPAUIAtlStringMgr@ATL@@XZ ; AfxGetStringManager
  0004c	8b c8		 mov	 ecx, eax
; File C:\Program Files\Microsoft Visual Studio\2022\Professional\VC\Tools\MSVC\14.44.35207\atlmfc\include\atlsimpstr.h

; 209  : 		ATLENSURE( pStringMgr != NULL );

  0004e	85 c9		 test	 ecx, ecx
  00050	0f 84 92 03 00
	00		 je	 $LN324@LoadInvali

; 210  : 		CStringData* pData = pStringMgr->GetNilString();

  00056	8b 01		 mov	 eax, DWORD PTR [ecx]
  00058	8b 40 0c	 mov	 eax, DWORD PTR [eax+12]
  0005b	ff d0		 call	 eax

; 211  : 		Attach( pData );

  0005d	83 c0 10	 add	 eax, 16			; 00000010H
  00060	89 85 30 f7 ff
	ff		 mov	 DWORD PTR _strFilter$[ebp], eax
; File C:\IAGOS\server\v18\Source\Source\_Common\ProjectCmn.cpp

; 1117 : 	strFilter	= GetLangFileName( ::GetLanguage(), FILE_INVALID );

  00066	6a 01		 push	 1
  00068	c6 45 fc 01	 mov	 BYTE PTR __$EHRec$[ebp+8], 1
  0006c	e8 00 00 00 00	 call	 ?GetLanguage@@YAHXZ	; GetLanguage
  00071	50		 push	 eax
  00072	8d 85 34 f7 ff
	ff		 lea	 eax, DWORD PTR $T5[ebp]
  00078	50		 push	 eax
  00079	e8 00 00 00 00	 call	 ?GetLangFileName@@YA?AV?$CStringT@DV?$StrTraitMFC@DV?$ChTraitsCRT@D@ATL@@@@@ATL@@HH@Z ; GetLangFileName
  0007e	83 c4 0c	 add	 esp, 12			; 0000000cH
  00081	50		 push	 eax
  00082	8d 8d 30 f7 ff
	ff		 lea	 ecx, DWORD PTR _strFilter$[ebp]
  00088	c6 45 fc 02	 mov	 BYTE PTR __$EHRec$[ebp+8], 2
  0008c	e8 00 00 00 00	 call	 ??4?$CStringT@DV?$StrTraitMFC@DV?$ChTraitsCRT@D@ATL@@@@@ATL@@QAEAAV01@ABV01@@Z ; ATL::CStringT<char,StrTraitMFC<char,ATL::ChTraitsCRT<char> > >::operator=
; File C:\Program Files\Microsoft Visual Studio\2022\Professional\VC\Tools\MSVC\14.44.35207\atlmfc\include\atlsimpstr.h

; 804  : 		return( reinterpret_cast< CStringData* >( m_pszData )-1 );

  00091	8b 95 34 f7 ff
	ff		 mov	 edx, DWORD PTR $T5[ebp]

; 92   : 		if( _InterlockedDecrement( &nRefs ) <= 0 )

  00097	83 c8 ff	 or	 eax, -1
; File C:\IAGOS\server\v18\Source\Source\_Common\ProjectCmn.cpp

; 1117 : 	strFilter	= GetLangFileName( ::GetLanguage(), FILE_INVALID );

  0009a	c6 45 fc 01	 mov	 BYTE PTR __$EHRec$[ebp+8], 1
; File C:\Program Files\Microsoft Visual Studio\2022\Professional\VC\Tools\MSVC\14.44.35207\atlmfc\include\atlsimpstr.h

; 804  : 		return( reinterpret_cast< CStringData* >( m_pszData )-1 );

  0009e	83 c2 f0	 add	 edx, -16		; fffffff0H

; 92   : 		if( _InterlockedDecrement( &nRefs ) <= 0 )

  000a1	f0 0f c1 42 0c	 lock	  xadd	 DWORD PTR [edx+12], eax
  000a6	48		 dec	 eax
  000a7	85 c0		 test	 eax, eax
  000a9	7f 08		 jg	 SHORT $LN34@LoadInvali

; 93   : 		{
; 94   : 			pStringMgr->Free( this );

  000ab	8b 0a		 mov	 ecx, DWORD PTR [edx]
  000ad	52		 push	 edx
  000ae	8b 01		 mov	 eax, DWORD PTR [ecx]
  000b0	ff 50 04	 call	 DWORD PTR [eax+4]
$LN34@LoadInvali:
; File C:\IAGOS\server\v18\Source\Source\_Common\ProjectCmn.cpp

; 1119 : 	if( s.Load( strFilter ) ) 

  000b3	8b b5 30 f7 ff
	ff		 mov	 esi, DWORD PTR _strFilter$[ebp]
  000b9	8d 8d 40 f7 ff
	ff		 lea	 ecx, DWORD PTR _s$[ebp]
  000bf	6a 01		 push	 1
  000c1	56		 push	 esi
  000c2	e8 00 00 00 00	 call	 ?Load@CScanner@@QAEHPBDH@Z ; CScanner::Load
  000c7	85 c0		 test	 eax, eax
  000c9	0f 84 d3 02 00
	00		 je	 $LN4@LoadInvali

; 1120 : 	{
; 1121 : 		s.GetToken();

  000cf	6a 00		 push	 0
  000d1	8d 8d 40 f7 ff
	ff		 lea	 ecx, DWORD PTR _s$[ebp]
  000d7	e8 00 00 00 00	 call	 ?GetToken@CScanner@@UAEHH@Z ; CScanner::GetToken

; 1122 : 		while( s.tok != FINISHED )

  000dc	83 7d 84 15	 cmp	 DWORD PTR _s$[ebp+2116], 21 ; 00000015H
  000e0	0f 84 b5 02 00
	00		 je	 $LN3@LoadInvali
  000e6	66 66 0f 1f 84
	00 00 00 00 00	 npad	 10
$LL2@LoadInvali:

; 1123 : 		{
; 1124 : 			strcpy( szName, s.Token );

  000f0	8b 8d 60 f7 ff
	ff		 mov	 ecx, DWORD PTR _s$[ebp+32]
  000f6	8d 55 b0	 lea	 edx, DWORD PTR _szName$[ebp]
  000f9	2b d1		 sub	 edx, ecx
  000fb	0f 1f 44 00 00	 npad	 5
$LL6@LoadInvali:
  00100	8a 01		 mov	 al, BYTE PTR [ecx]
  00102	8d 49 01	 lea	 ecx, DWORD PTR [ecx+1]
  00105	88 44 0a ff	 mov	 BYTE PTR [edx+ecx-1], al
  00109	84 c0		 test	 al, al
  0010b	75 f3		 jne	 SHORT $LL6@LoadInvali

; 1125 : 			strlwr( szName );

  0010d	8d 45 b0	 lea	 eax, DWORD PTR _szName$[ebp]
  00110	50		 push	 eax
  00111	e8 00 00 00 00	 call	 _strlwr
  00116	0f 57 c0	 xorps	 xmm0, xmm0
; File C:\Program Files\Microsoft Visual Studio\2022\Professional\VC\Tools\MSVC\14.44.35207\include\xstring

; 517  :     size_type _Mysize = 0; // current length of string (size)

  00119	c7 45 a8 00 00
	00 00		 mov	 DWORD PTR $T8[ebp+16], 0
; File C:\Program Files\Microsoft Visual Studio\2022\Professional\VC\Tools\MSVC\14.44.35207\include\__msvc_string_view.hpp

; 459  :         return _CSTD strlen(reinterpret_cast<const char*>(_First));

  00120	8d 7d b0	 lea	 edi, DWORD PTR _szName$[ebp]
; File C:\Program Files\Microsoft Visual Studio\2022\Professional\VC\Tools\MSVC\14.44.35207\include\xstring

; 518  :     size_type _Myres  = 0; // current storage reserved for string (capacity)

  00123	c7 45 ac 00 00
	00 00		 mov	 DWORD PTR $T8[ebp+20], 0
; File C:\IAGOS\server\v18\Source\Source\_Common\ProjectCmn.cpp

; 1125 : 			strlwr( szName );

  0012a	83 c4 04	 add	 esp, 4
; File C:\Program Files\Microsoft Visual Studio\2022\Professional\VC\Tools\MSVC\14.44.35207\include\__msvc_string_view.hpp

; 459  :         return _CSTD strlen(reinterpret_cast<const char*>(_First));

  0012d	8d 4f 01	 lea	 ecx, DWORD PTR [edi+1]
; File C:\Program Files\Microsoft Visual Studio\2022\Professional\VC\Tools\MSVC\14.44.35207\include\xstring

; 493  :         _CONSTEXPR20 _Bxty() noexcept : _Buf() {} // user-provided, for fancy pointers

  00130	0f 11 45 98	 movups	 XMMWORD PTR $T8[ebp], xmm0
$LL317@LoadInvali:
; File C:\Program Files\Microsoft Visual Studio\2022\Professional\VC\Tools\MSVC\14.44.35207\include\__msvc_string_view.hpp

; 459  :         return _CSTD strlen(reinterpret_cast<const char*>(_First));

  00134	8a 07		 mov	 al, BYTE PTR [edi]
  00136	47		 inc	 edi
  00137	84 c0		 test	 al, al
  00139	75 f9		 jne	 SHORT $LL317@LoadInvali
  0013b	2b f9		 sub	 edi, ecx
; File C:\Program Files\Microsoft Visual Studio\2022\Professional\VC\Tools\MSVC\14.44.35207\include\xstring

; 881  :         if (_Count > max_size()) {

  0013d	81 ff ff ff ff
	7f		 cmp	 edi, 2147483647		; 7fffffffH
  00143	0f 87 bd 02 00
	00		 ja	 $LN302@LoadInvali

; 883  :         }
; 884  : 
; 885  :         auto& _Al       = _Getal();
; 886  :         auto&& _Alproxy = _GET_PROXY_ALLOCATOR(_Alty, _Al);
; 887  :         _Container_proxy_ptr<_Alty> _Proxy(_Alproxy, _My_data);
; 888  : 
; 889  :         if (_Count <= _Small_string_capacity) {

  00149	83 ff 0f	 cmp	 edi, 15			; 0000000fH
  0014c	77 2b		 ja	 SHORT $LN56@LoadInvali
; File C:\Program Files\Microsoft Visual Studio\2022\Professional\VC\Tools\MSVC\14.44.35207\include\__msvc_string_view.hpp

; 121  :         _CSTD memcpy(_First1, _First2, _Count * sizeof(_Elem));

  0014e	57		 push	 edi
  0014f	8d 45 b0	 lea	 eax, DWORD PTR _szName$[ebp]
; File C:\Program Files\Microsoft Visual Studio\2022\Professional\VC\Tools\MSVC\14.44.35207\include\xstring

; 890  :             _My_data._Mysize = _Count;

  00152	89 7d a8	 mov	 DWORD PTR $T8[ebp+16], edi
; File C:\Program Files\Microsoft Visual Studio\2022\Professional\VC\Tools\MSVC\14.44.35207\include\__msvc_string_view.hpp

; 121  :         _CSTD memcpy(_First1, _First2, _Count * sizeof(_Elem));

  00155	50		 push	 eax
  00156	8d 45 98	 lea	 eax, DWORD PTR $T8[ebp]
; File C:\Program Files\Microsoft Visual Studio\2022\Professional\VC\Tools\MSVC\14.44.35207\include\xstring

; 891  :             _My_data._Myres  = _Small_string_capacity;

  00159	c7 45 ac 0f 00
	00 00		 mov	 DWORD PTR $T8[ebp+20], 15 ; 0000000fH
; File C:\Program Files\Microsoft Visual Studio\2022\Professional\VC\Tools\MSVC\14.44.35207\include\__msvc_string_view.hpp

; 121  :         _CSTD memcpy(_First1, _First2, _Count * sizeof(_Elem));

  00160	50		 push	 eax
  00161	e8 00 00 00 00	 call	 _memcpy
; File C:\Program Files\Microsoft Visual Studio\2022\Professional\VC\Tools\MSVC\14.44.35207\include\xstring

; 898  :                 _Traits::assign(_My_data._Bx._Buf[_Count], _Elem());

  00166	c6 44 3d 98 00	 mov	 BYTE PTR $T8[ebp+edi], 0

; 899  :             } else { // _Strat == _Construct_strategy::_From_string
; 900  : #ifdef _INSERT_STRING_ANNOTATION
; 901  :                 _Traits::copy(_My_data._Bx._Buf, _Arg, _Count + 1);
; 902  : #else // ^^^ _INSERT_STRING_ANNOTATION / !_INSERT_STRING_ANNOTATION vvv
; 903  :                 _Traits::copy(_My_data._Bx._Buf, _Arg, _BUF_SIZE);
; 904  : #endif // ^^^ !_INSERT_STRING_ANNOTATION ^^^
; 905  :             }
; 906  : 
; 907  :             _Proxy._Release();
; 908  :             return;

  0016b	8b 45 ac	 mov	 eax, DWORD PTR $T8[ebp+20]
  0016e	89 85 38 f7 ff
	ff		 mov	 DWORD PTR $T6[ebp], eax
  00174	e9 9f 00 00 00	 jmp	 $LN321@LoadInvali
$LN56@LoadInvali:

; 2978 :         const size_type _Masked = _Requested | _Alloc_mask;

  00179	8b c7		 mov	 eax, edi
  0017b	83 c8 0f	 or	 eax, 15			; 0000000fH
  0017e	3d ff ff ff 7f	 cmp	 eax, 2147483647		; 7fffffffH

; 2979 :         if (_Masked > _Max) { // the mask overflows, settle for max_size()

  00183	76 20		 jbe	 SHORT $LN62@LoadInvali

; 2980 :             return _Max;

  00185	b9 00 00 00 80	 mov	 ecx, -2147483648	; 80000000H
  0018a	b8 ff ff ff 7f	 mov	 eax, 2147483647		; 7fffffffH
; File C:\Program Files\Microsoft Visual Studio\2022\Professional\VC\Tools\MSVC\14.44.35207\include\xmemory

; 253  :             return _Allocate_manually_vector_aligned<_Traits>(_Bytes);

  0018f	51		 push	 ecx
; File C:\Program Files\Microsoft Visual Studio\2022\Professional\VC\Tools\MSVC\14.44.35207\include\xstring

; 2980 :             return _Max;

  00190	89 85 38 f7 ff
	ff		 mov	 DWORD PTR $T6[ebp], eax
; File C:\Program Files\Microsoft Visual Studio\2022\Professional\VC\Tools\MSVC\14.44.35207\include\xmemory

; 253  :             return _Allocate_manually_vector_aligned<_Traits>(_Bytes);

  00196	e8 00 00 00 00	 call	 ??$_Allocate_manually_vector_aligned@U_Default_allocate_traits@std@@@std@@YAPAXI@Z ; std::_Allocate_manually_vector_aligned<std::_Default_allocate_traits>
  0019b	8b c8		 mov	 ecx, eax
  0019d	89 8d 3c f7 ff
	ff		 mov	 DWORD PTR $T7[ebp], ecx
  001a3	eb 4c		 jmp	 SHORT $LN322@LoadInvali
$LN62@LoadInvali:
; File C:\Program Files\Microsoft Visual Studio\2022\Professional\VC\Tools\MSVC\14.44.35207\include\xstring

; 2987 :         return (_STD max)(_Masked, _Old + _Old / 2);

  001a5	83 f8 16	 cmp	 eax, 22			; 00000016H
  001a8	b9 16 00 00 00	 mov	 ecx, 22			; 00000016H
  001ad	0f 42 c1	 cmovb	 eax, ecx
  001b0	89 85 38 f7 ff
	ff		 mov	 DWORD PTR $T6[ebp], eax

; 825  :         ++_Capacity; // Take null terminator into consideration

  001b6	8d 48 01	 lea	 ecx, DWORD PTR [eax+1]
; File C:\Program Files\Microsoft Visual Studio\2022\Professional\VC\Tools\MSVC\14.44.35207\include\xmemory

; 227  :     if (_Bytes == 0) {

  001b9	85 c9		 test	 ecx, ecx
  001bb	75 0e		 jne	 SHORT $LN76@LoadInvali

; 228  :         return nullptr;

  001bd	89 8d 3c f7 ff
	ff		 mov	 DWORD PTR $T7[ebp], ecx
  001c3	89 85 38 f7 ff
	ff		 mov	 DWORD PTR $T6[ebp], eax
  001c9	eb 2f		 jmp	 SHORT $LN75@LoadInvali
$LN76@LoadInvali:

; 229  :     }
; 230  : 
; 231  : #if _HAS_CXX20 // TRANSITION, GH-1532
; 232  :     if (_STD is_constant_evaluated()) {
; 233  :         return _Traits::_Allocate(_Bytes);
; 234  :     }
; 235  : #endif // _HAS_CXX20
; 236  : 
; 237  : #ifdef __cpp_aligned_new
; 238  :     if constexpr (_Align > __STDCPP_DEFAULT_NEW_ALIGNMENT__) {
; 239  :         size_t _Passed_align = _Align;
; 240  : #if defined(_M_IX86) || defined(_M_X64)
; 241  :         if (_Bytes >= _Big_allocation_threshold) {
; 242  :             // boost the alignment of big allocations to help autovectorization
; 243  :             _Passed_align = (_STD max)(_Align, _Big_allocation_alignment);
; 244  :         }
; 245  : #endif // defined(_M_IX86) || defined(_M_X64)
; 246  :         return _Traits::_Allocate_aligned(_Bytes, _Passed_align);
; 247  :     } else
; 248  : #endif // defined(__cpp_aligned_new)
; 249  :     {
; 250  : #if defined(_M_IX86) || defined(_M_X64)
; 251  :         if (_Bytes >= _Big_allocation_threshold) {

  001cb	81 f9 00 10 00
	00		 cmp	 ecx, 4096		; 00001000H
  001d1	72 10		 jb	 SHORT $LN77@LoadInvali

; 253  :             return _Allocate_manually_vector_aligned<_Traits>(_Bytes);

  001d3	51		 push	 ecx
  001d4	e8 00 00 00 00	 call	 ??$_Allocate_manually_vector_aligned@U_Default_allocate_traits@std@@@std@@YAPAXI@Z ; std::_Allocate_manually_vector_aligned<std::_Default_allocate_traits>
  001d9	8b c8		 mov	 ecx, eax
  001db	89 8d 3c f7 ff
	ff		 mov	 DWORD PTR $T7[ebp], ecx
  001e1	eb 0e		 jmp	 SHORT $LN322@LoadInvali
$LN77@LoadInvali:

; 136  :         return ::operator new(_Bytes);

  001e3	51		 push	 ecx
  001e4	e8 00 00 00 00	 call	 ??2@YAPAXI@Z		; operator new

; 256  :         return _Traits::_Allocate(_Bytes);

  001e9	8b c8		 mov	 ecx, eax
  001eb	89 85 3c f7 ff
	ff		 mov	 DWORD PTR $T7[ebp], eax
$LN322@LoadInvali:
; File C:\Program Files\Microsoft Visual Studio\2022\Professional\VC\Tools\MSVC\14.44.35207\include\xstring

; 913  :         _Construct_in_place(_My_data._Bx._Ptr, _New_ptr);

  001f1	8b 85 38 f7 ff
	ff		 mov	 eax, DWORD PTR $T6[ebp]
  001f7	83 c4 04	 add	 esp, 4
$LN75@LoadInvali:

; 916  :         _My_data._Myres  = _New_capacity;

  001fa	89 45 ac	 mov	 DWORD PTR $T8[ebp+20], eax
; File C:\Program Files\Microsoft Visual Studio\2022\Professional\VC\Tools\MSVC\14.44.35207\include\__msvc_string_view.hpp

; 121  :         _CSTD memcpy(_First1, _First2, _Count * sizeof(_Elem));

  001fd	8d 45 b0	 lea	 eax, DWORD PTR _szName$[ebp]
  00200	57		 push	 edi
  00201	50		 push	 eax
  00202	51		 push	 ecx
; File C:\Program Files\Microsoft Visual Studio\2022\Professional\VC\Tools\MSVC\14.44.35207\include\xstring

; 913  :         _Construct_in_place(_My_data._Bx._Ptr, _New_ptr);

  00203	89 4d 98	 mov	 DWORD PTR $T8[ebp], ecx

; 914  : 
; 915  :         _My_data._Mysize = _Count;

  00206	89 7d a8	 mov	 DWORD PTR $T8[ebp+16], edi
; File C:\Program Files\Microsoft Visual Studio\2022\Professional\VC\Tools\MSVC\14.44.35207\include\__msvc_string_view.hpp

; 121  :         _CSTD memcpy(_First1, _First2, _Count * sizeof(_Elem));

  00209	e8 00 00 00 00	 call	 _memcpy
; File C:\Program Files\Microsoft Visual Studio\2022\Professional\VC\Tools\MSVC\14.44.35207\include\xstring

; 922  :             _Traits::assign(_Unfancy(_New_ptr)[_Count], _Elem());

  0020e	8b 85 3c f7 ff
	ff		 mov	 eax, DWORD PTR $T7[ebp]
  00214	c6 04 38 00	 mov	 BYTE PTR [eax+edi], 0
$LN321@LoadInvali:
; File C:\IAGOS\server\v18\Source\Source\_Common\ProjectCmn.cpp

; 1127 : 			m_sInvalidNames.insert( (LPCSTR)szName );

  00218	83 c4 0c	 add	 esp, 12			; 0000000cH
  0021b	8b bd 24 f7 ff
	ff		 mov	 edi, DWORD PTR _this$GSCopy$1$[ebp]
  00221	81 c7 3c 15 05
	00		 add	 edi, 333116		; 0005153cH
  00227	c6 45 fc 03	 mov	 BYTE PTR __$EHRec$[ebp+8], 3
  0022b	89 bd 34 f7 ff
	ff		 mov	 DWORD PTR _this$1$[ebp], edi
; File C:\Program Files\Microsoft Visual Studio\2022\Professional\VC\Tools\MSVC\14.44.35207\include\xtree

; 1630 :         _Tree_find_result<_Nodeptr> _Result{{_Scary->_Myhead->_Parent, _Tree_child::_Right}, _Scary->_Myhead};

  00231	c7 85 3c f7 ff
	ff 00 00 00 00	 mov	 DWORD PTR __Loc$2$[ebp], 0
  0023b	8b 07		 mov	 eax, DWORD PTR [edi]
  0023d	89 85 20 f7 ff
	ff		 mov	 DWORD PTR __Myhead$1$[ebp], eax
  00243	89 85 2c f7 ff
	ff		 mov	 DWORD PTR $T1$sroa$793$1$[ebp], eax
  00249	8b 48 04	 mov	 ecx, DWORD PTR [eax+4]
  0024c	89 8d 28 f7 ff
	ff		 mov	 DWORD PTR __Loc$1$[ebp], ecx

; 1631 :         _Nodeptr _Trynode = _Result._Location._Parent;
; 1632 :         while (!_Trynode->_Isnil) {

  00252	80 79 0d 00	 cmp	 BYTE PTR [ecx+13], 0
  00256	75 5d		 jne	 SHORT $LN93@LoadInvali
  00258	8b f9		 mov	 edi, ecx
  0025a	66 0f 1f 44 00
	00		 npad	 6
$LL92@LoadInvali:
; File C:\Program Files\Microsoft Visual Studio\2022\Professional\VC\Tools\MSVC\14.44.35207\include\type_traits

; 2380 :         return _Left < _Right;

  00260	8d 45 98	 lea	 eax, DWORD PTR $T8[ebp]
; File C:\Program Files\Microsoft Visual Studio\2022\Professional\VC\Tools\MSVC\14.44.35207\include\xtree

; 1633 :             _Result._Location._Parent = _Trynode;

  00263	89 bd 28 f7 ff
	ff		 mov	 DWORD PTR __Loc$1$[ebp], edi
; File C:\Program Files\Microsoft Visual Studio\2022\Professional\VC\Tools\MSVC\14.44.35207\include\type_traits

; 2380 :         return _Left < _Right;

  00269	50		 push	 eax
; File C:\Program Files\Microsoft Visual Studio\2022\Professional\VC\Tools\MSVC\14.44.35207\include\xtree

; 1634 :             if (_DEBUG_LT_PRED(_Getcomp(), _Traits::_Kfn(_Trynode->_Myval), _Keyval)) {

  0026a	8d 47 10	 lea	 eax, DWORD PTR [edi+16]
; File C:\Program Files\Microsoft Visual Studio\2022\Professional\VC\Tools\MSVC\14.44.35207\include\type_traits

; 2380 :         return _Left < _Right;

  0026d	50		 push	 eax
  0026e	e8 00 00 00 00	 call	 ??$?MDU?$char_traits@D@std@@V?$allocator@D@1@@std@@YA_NABV?$basic_string@DU?$char_traits@D@std@@V?$allocator@D@2@@0@0@Z ; std::operator<<char,std::char_traits<char>,std::allocator<char> >
  00273	83 c4 08	 add	 esp, 8
; File C:\Program Files\Microsoft Visual Studio\2022\Professional\VC\Tools\MSVC\14.44.35207\include\xtree

; 1634 :             if (_DEBUG_LT_PRED(_Getcomp(), _Traits::_Kfn(_Trynode->_Myval), _Keyval)) {

  00276	84 c0		 test	 al, al
  00278	74 15		 je	 SHORT $LN94@LoadInvali

; 1635 :                 _Result._Location._Child = _Tree_child::_Right;
; 1636 :                 _Trynode                 = _Trynode->_Right;

  0027a	8b 7f 08	 mov	 edi, DWORD PTR [edi+8]

; 1637 :             } else {

  0027d	8b 85 2c f7 ff
	ff		 mov	 eax, DWORD PTR $T1$sroa$793$1$[ebp]
  00283	c7 85 3c f7 ff
	ff 00 00 00 00	 mov	 DWORD PTR __Loc$2$[ebp], 0
  0028d	eb 14		 jmp	 SHORT $LN95@LoadInvali
$LN94@LoadInvali:

; 1638 :                 _Result._Location._Child = _Tree_child::_Left;
; 1639 :                 _Result._Bound           = _Trynode;

  0028f	8b c7		 mov	 eax, edi
  00291	c7 85 3c f7 ff
	ff 01 00 00 00	 mov	 DWORD PTR __Loc$2$[ebp], 1

; 1640 :                 _Trynode                 = _Trynode->_Left;

  0029b	8b 3f		 mov	 edi, DWORD PTR [edi]
  0029d	89 85 2c f7 ff
	ff		 mov	 DWORD PTR $T1$sroa$793$1$[ebp], eax
$LN95@LoadInvali:

; 1631 :         _Nodeptr _Trynode = _Result._Location._Parent;
; 1632 :         while (!_Trynode->_Isnil) {

  002a3	80 7f 0d 00	 cmp	 BYTE PTR [edi+13], 0
  002a7	74 b7		 je	 SHORT $LL92@LoadInvali
  002a9	8b b5 30 f7 ff
	ff		 mov	 esi, DWORD PTR _strFilter$[ebp]
  002af	8b bd 34 f7 ff
	ff		 mov	 edi, DWORD PTR _this$1$[ebp]
$LN93@LoadInvali:

; 1624 :         return !_Bound->_Isnil && !_DEBUG_LT_PRED(_Getcomp(), _Keyval, _Traits::_Kfn(_Bound->_Myval));

  002b5	80 78 0d 00	 cmp	 BYTE PTR [eax+13], 0
  002b9	75 14		 jne	 SHORT $LN102@LoadInvali
  002bb	83 c0 10	 add	 eax, 16			; 00000010H
; File C:\Program Files\Microsoft Visual Studio\2022\Professional\VC\Tools\MSVC\14.44.35207\include\type_traits

; 2380 :         return _Left < _Right;

  002be	50		 push	 eax
  002bf	8d 45 98	 lea	 eax, DWORD PTR $T8[ebp]
  002c2	50		 push	 eax
  002c3	e8 00 00 00 00	 call	 ??$?MDU?$char_traits@D@std@@V?$allocator@D@1@@std@@YA_NABV?$basic_string@DU?$char_traits@D@std@@V?$allocator@D@2@@0@0@Z ; std::operator<<char,std::char_traits<char>,std::allocator<char> >
  002c8	83 c4 08	 add	 esp, 8
; File C:\Program Files\Microsoft Visual Studio\2022\Professional\VC\Tools\MSVC\14.44.35207\include\xtree

; 1624 :         return !_Bound->_Isnil && !_DEBUG_LT_PRED(_Getcomp(), _Keyval, _Traits::_Kfn(_Bound->_Myval));

  002cb	84 c0		 test	 al, al
  002cd	74 7e		 je	 SHORT $LN318@LoadInvali
$LN102@LoadInvali:

; 1648 :         if (max_size() == _Get_scary()->_Mysize) {

  002cf	81 7f 04 66 66
	66 06		 cmp	 DWORD PTR [edi+4], 107374182 ; 06666666H
  002d6	0f 84 25 01 00
	00		 je	 $LN303@LoadInvali
; File C:\Program Files\Microsoft Visual Studio\2022\Professional\VC\Tools\MSVC\14.44.35207\include\xmemory

; 1160 :     _CONSTEXPR20 explicit _Alloc_construct_ptr(_Alloc& _Al_) : _Al(_Al_), _Ptr(nullptr) {}

  002dc	89 bd 18 f7 ff
	ff		 mov	 DWORD PTR $T4[ebp], edi

; 136  :         return ::operator new(_Bytes);

  002e2	6a 28		 push	 40			; 00000028H
; File C:\Program Files\Microsoft Visual Studio\2022\Professional\VC\Tools\MSVC\14.44.35207\include\xtree

; 808  :     explicit _Tree_temp_node_alloc(_Alnode& _Al_) : _Alloc_construct_ptr<_Alnode>(_Al_) {

  002e4	c6 45 fc 04	 mov	 BYTE PTR __$EHRec$[ebp+8], 4
; File C:\Program Files\Microsoft Visual Studio\2022\Professional\VC\Tools\MSVC\14.44.35207\include\xmemory

; 1167 :         _Ptr = nullptr; // if allocate throws, prevents double-free

  002e8	c7 85 1c f7 ff
	ff 00 00 00 00	 mov	 DWORD PTR $T4[ebp+4], 0

; 136  :         return ::operator new(_Bytes);

  002f2	e8 00 00 00 00	 call	 ??2@YAPAXI@Z		; operator new
; File C:\Program Files\Microsoft Visual Studio\2022\Professional\VC\Tools\MSVC\14.44.35207\include\xstring

; 1286 :                 _CSTD memcpy(_My_data_mem, _Right_data_mem, _Memcpy_val_size);

  002f7	0f 10 45 98	 movups	 xmm0, XMMWORD PTR $T8[ebp]
; File C:\Program Files\Microsoft Visual Studio\2022\Professional\VC\Tools\MSVC\14.44.35207\include\xtree

; 831  :         _Construct_in_place(this->_Ptr->_Left, _Myhead);

  002fb	8b 8d 20 f7 ff
	ff		 mov	 ecx, DWORD PTR __Myhead$1$[ebp]
; File C:\Program Files\Microsoft Visual Studio\2022\Professional\VC\Tools\MSVC\14.44.35207\include\xmemory

; 136  :         return ::operator new(_Bytes);

  00301	83 c4 04	 add	 esp, 4
; File C:\Program Files\Microsoft Visual Studio\2022\Professional\VC\Tools\MSVC\14.44.35207\include\xstring

; 1289 :                 _Right_data._Myres  = _Small_string_capacity;

  00304	bf 0f 00 00 00	 mov	 edi, 15			; 0000000fH

; 1290 :                 _Right_data._Activate_SSO_buffer();
; 1291 :                 _Traits::assign(_Right_data._Bx._Buf[0], _Elem());

  00309	c6 45 98 00	 mov	 BYTE PTR $T8[ebp], 0
  0030d	0f 11 40 10	 movups	 XMMWORD PTR [eax+16], xmm0
; File C:\Program Files\Microsoft Visual Studio\2022\Professional\VC\Tools\MSVC\14.44.35207\include\utility

; 774  :     _Val         = static_cast<_Other&&>(_New_val);

  00311	c7 85 1c f7 ff
	ff 00 00 00 00	 mov	 DWORD PTR $T4[ebp+4], 0
; File C:\Program Files\Microsoft Visual Studio\2022\Professional\VC\Tools\MSVC\14.44.35207\include\xstring

; 1286 :                 _CSTD memcpy(_My_data_mem, _Right_data_mem, _Memcpy_val_size);

  0031b	f3 0f 7e 45 a8	 movq	 xmm0, QWORD PTR $T8[ebp+16]
  00320	66 0f d6 40 20	 movq	 QWORD PTR [eax+32], xmm0
; File C:\Program Files\Microsoft Visual Studio\2022\Professional\VC\Tools\MSVC\14.44.35207\include\xtree

; 1042 :         return {_Scary->_Insert_node(_Loc._Location, _Inserted), true};

  00325	50		 push	 eax
  00326	ff b5 3c f7 ff
	ff		 push	 DWORD PTR __Loc$2$[ebp]

; 831  :         _Construct_in_place(this->_Ptr->_Left, _Myhead);

  0032c	89 08		 mov	 DWORD PTR [eax], ecx

; 1042 :         return {_Scary->_Insert_node(_Loc._Location, _Inserted), true};

  0032e	ff b5 28 f7 ff
	ff		 push	 DWORD PTR __Loc$1$[ebp]

; 832  :         _Construct_in_place(this->_Ptr->_Parent, _Myhead);

  00334	89 48 04	 mov	 DWORD PTR [eax+4], ecx

; 833  :         _Construct_in_place(this->_Ptr->_Right, _Myhead);

  00337	89 48 08	 mov	 DWORD PTR [eax+8], ecx

; 1042 :         return {_Scary->_Insert_node(_Loc._Location, _Inserted), true};

  0033a	8b 8d 34 f7 ff
	ff		 mov	 ecx, DWORD PTR _this$1$[ebp]

; 834  :         this->_Ptr->_Color = _Red;

  00340	66 c7 40 0c 00
	00		 mov	 WORD PTR [eax+12], 0

; 1042 :         return {_Scary->_Insert_node(_Loc._Location, _Inserted), true};

  00346	e8 00 00 00 00	 call	 ?_Insert_node@?$_Tree_val@U?$_Tree_simple_types@V?$basic_string@DU?$char_traits@D@std@@V?$allocator@D@2@@std@@@std@@@std@@QAEPAU?$_Tree_node@V?$basic_string@DU?$char_traits@D@std@@V?$allocator@D@2@@std@@PAX@2@U?$_Tree_id@PAU?$_Tree_node@V?$basic_string@DU?$char_traits@D@std@@V?$allocator@D@2@@std@@PAX@std@@@2@QAU32@@Z ; std::_Tree_val<std::_Tree_simple_types<std::basic_string<char,std::char_traits<char>,std::allocator<char> > > >::_Insert_node

; 1624 :         return !_Bound->_Isnil && !_DEBUG_LT_PRED(_Getcomp(), _Keyval, _Traits::_Kfn(_Bound->_Myval));

  0034b	eb 06		 jmp	 SHORT $LN247@LoadInvali
$LN318@LoadInvali:
  0034d	8b bd 38 f7 ff
	ff		 mov	 edi, DWORD PTR $T6[ebp]
$LN247@LoadInvali:
; File C:\IAGOS\server\v18\Source\Source\_Common\ProjectCmn.cpp

; 1127 : 			m_sInvalidNames.insert( (LPCSTR)szName );

  00353	c6 45 fc 01	 mov	 BYTE PTR __$EHRec$[ebp+8], 1
; File C:\Program Files\Microsoft Visual Studio\2022\Professional\VC\Tools\MSVC\14.44.35207\include\xstring

; 453  :         return _Myres > _Small_string_capacity;

  00357	83 ff 0f	 cmp	 edi, 15			; 0000000fH

; 3083 :         if (_My_data._Large_mode_engaged()) {

  0035a	76 28		 jbe	 SHORT $LN279@LoadInvali
; File C:\Program Files\Microsoft Visual Studio\2022\Professional\VC\Tools\MSVC\14.44.35207\include\xmemory

; 985  :         _STD _Deallocate<_New_alignof<_Ty>>(_Ptr, sizeof(_Ty) * _Count);

  0035c	8b 4d 98	 mov	 ecx, DWORD PTR $T8[ebp]
; File C:\Program Files\Microsoft Visual Studio\2022\Professional\VC\Tools\MSVC\14.44.35207\include\xstring

; 852  :         _Al.deallocate(_Old_ptr, _Capacity + 1); // +1 for null terminator

  0035f	47		 inc	 edi
; File C:\Program Files\Microsoft Visual Studio\2022\Professional\VC\Tools\MSVC\14.44.35207\include\xmemory

; 985  :         _STD _Deallocate<_New_alignof<_Ty>>(_Ptr, sizeof(_Ty) * _Count);

  00360	8b c1		 mov	 eax, ecx

; 284  :         if (_Bytes >= _Big_allocation_threshold) {

  00362	81 ff 00 10 00
	00		 cmp	 edi, 4096		; 00001000H
  00368	72 10		 jb	 SHORT $LN284@LoadInvali

; 205  :     const uintptr_t _Ptr_container   = _Ptr_user[-1];

  0036a	8b 48 fc	 mov	 ecx, DWORD PTR [eax-4]
  0036d	83 c7 23	 add	 edi, 35			; 00000023H
  00370	2b c1		 sub	 eax, ecx

; 219  :     _STL_VERIFY(_Back_shift >= _Min_back_shift && _Back_shift <= _Non_user_size, "invalid argument");

  00372	83 c0 fc	 add	 eax, -4			; fffffffcH
  00375	83 f8 1f	 cmp	 eax, 31			; 0000001fH
  00378	77 78		 ja	 SHORT $LN306@LoadInvali
$LN284@LoadInvali:

; 289  :         ::operator delete(_Ptr, _Bytes);

  0037a	57		 push	 edi
  0037b	51		 push	 ecx
  0037c	e8 00 00 00 00	 call	 ??3@YAXPAXI@Z		; operator delete
  00381	83 c4 08	 add	 esp, 8
$LN279@LoadInvali:
; File C:\IAGOS\server\v18\Source\Source\_Common\ProjectCmn.cpp

; 1128 : 			s.GetToken();

  00384	6a 00		 push	 0
  00386	8d 8d 40 f7 ff
	ff		 lea	 ecx, DWORD PTR _s$[ebp]
  0038c	e8 00 00 00 00	 call	 ?GetToken@CScanner@@UAEHH@Z ; CScanner::GetToken
  00391	83 7d 84 15	 cmp	 DWORD PTR _s$[ebp+2116], 21 ; 00000015H
  00395	0f 85 55 fd ff
	ff		 jne	 $LL2@LoadInvali
$LN3@LoadInvali:
  0039b	bf 01 00 00 00	 mov	 edi, 1
  003a0	eb 02		 jmp	 SHORT $LN11@LoadInvali
$LN4@LoadInvali:

; 1132 : 	return FALSE;

  003a2	33 ff		 xor	 edi, edi
$LN11@LoadInvali:
  003a4	c6 45 fc 00	 mov	 BYTE PTR __$EHRec$[ebp+8], 0
; File C:\Program Files\Microsoft Visual Studio\2022\Professional\VC\Tools\MSVC\14.44.35207\atlmfc\include\atlsimpstr.h

; 804  : 		return( reinterpret_cast< CStringData* >( m_pszData )-1 );

  003a8	83 c6 f0	 add	 esi, -16		; fffffff0H

; 92   : 		if( _InterlockedDecrement( &nRefs ) <= 0 )

  003ab	83 c8 ff	 or	 eax, -1
  003ae	f0 0f c1 46 0c	 lock	  xadd	 DWORD PTR [esi+12], eax
  003b3	48		 dec	 eax
  003b4	85 c0		 test	 eax, eax
  003b6	7f 08		 jg	 SHORT $LN297@LoadInvali

; 93   : 		{
; 94   : 			pStringMgr->Free( this );

  003b8	8b 0e		 mov	 ecx, DWORD PTR [esi]
  003ba	56		 push	 esi
  003bb	8b 11		 mov	 edx, DWORD PTR [ecx]
  003bd	ff 52 04	 call	 DWORD PTR [edx+4]
$LN297@LoadInvali:
; File C:\IAGOS\server\v18\Source\Source\_Common\ProjectCmn.cpp

; 1132 : 	return FALSE;

  003c0	8d 8d 40 f7 ff
	ff		 lea	 ecx, DWORD PTR _s$[ebp]
  003c6	e8 00 00 00 00	 call	 ??1CScanner@@UAE@XZ	; CScanner::~CScanner
  003cb	8b c7		 mov	 eax, edi

; 1133 : }

  003cd	8b 4d f4	 mov	 ecx, DWORD PTR __$EHRec$[ebp]
  003d0	64 89 0d 00 00
	00 00		 mov	 DWORD PTR fs:0, ecx
  003d7	59		 pop	 ecx
  003d8	5f		 pop	 edi
  003d9	5e		 pop	 esi
  003da	8b 4d f0	 mov	 ecx, DWORD PTR __$ArrayPad$[ebp]
  003dd	33 cd		 xor	 ecx, ebp
  003df	e8 00 00 00 00	 call	 @__security_check_cookie@4
  003e4	8b e5		 mov	 esp, ebp
  003e6	5d		 pop	 ebp
  003e7	c3		 ret	 0
$LN324@LoadInvali:
; File C:\Program Files\Microsoft Visual Studio\2022\Professional\VC\Tools\MSVC\14.44.35207\atlmfc\include\atlsimpstr.h

; 209  : 		ATLENSURE( pStringMgr != NULL );

  003e8	68 05 40 00 80	 push	 -2147467259		; 80004005H
  003ed	e8 00 00 00 00	 call	 ?AtlThrowImpl@ATL@@YGXJ@Z ; ATL::AtlThrowImpl
$LN306@LoadInvali:
; File C:\Program Files\Microsoft Visual Studio\2022\Professional\VC\Tools\MSVC\14.44.35207\include\xmemory

; 219  :     _STL_VERIFY(_Back_shift >= _Min_back_shift && _Back_shift <= _Non_user_size, "invalid argument");

  003f2	6a 00		 push	 0
  003f4	6a 00		 push	 0
  003f6	6a 00		 push	 0
  003f8	6a 00		 push	 0
  003fa	6a 00		 push	 0
  003fc	e8 00 00 00 00	 call	 __invoke_watson
$LN303@LoadInvali:
; File C:\Program Files\Microsoft Visual Studio\2022\Professional\VC\Tools\MSVC\14.44.35207\include\xtree

; 1649 :             _Throw_tree_length_error();

  00401	e8 00 00 00 00	 call	 ?_Throw_tree_length_error@std@@YAXXZ ; std::_Throw_tree_length_error
$LN302@LoadInvali:
; File C:\Program Files\Microsoft Visual Studio\2022\Professional\VC\Tools\MSVC\14.44.35207\include\xstring

; 882  :             _Xlen_string(); // result too long

  00406	e8 00 00 00 00	 call	 ?_Xlen_string@std@@YAXXZ ; std::_Xlen_string
$LN320@LoadInvali:
  0040b	cc		 int	 3
_TEXT	ENDS
;	COMDAT text$x
text$x	SEGMENT
__unwindfunclet$?LoadInvalidName@CProject@@QAEHXZ$0:
  00000	8d 8d 40 f7 ff
	ff		 lea	 ecx, DWORD PTR _s$[ebp]
  00006	e9 00 00 00 00	 jmp	 ??1CScanner@@UAE@XZ	; CScanner::~CScanner
__unwindfunclet$?LoadInvalidName@CProject@@QAEHXZ$1:
  0000b	8d 8d 30 f7 ff
	ff		 lea	 ecx, DWORD PTR _strFilter$[ebp]
  00011	e9 00 00 00 00	 jmp	 ??1?$CStringT@DV?$StrTraitMFC@DV?$ChTraitsCRT@D@ATL@@@@@ATL@@QAE@XZ ; ATL::CStringT<char,StrTraitMFC<char,ATL::ChTraitsCRT<char> > >::~CStringT<char,StrTraitMFC<char,ATL::ChTraitsCRT<char> > >
__unwindfunclet$?LoadInvalidName@CProject@@QAEHXZ$2:
  00016	8d 8d 34 f7 ff
	ff		 lea	 ecx, DWORD PTR $T5[ebp]
  0001c	e9 00 00 00 00	 jmp	 ??1?$CStringT@DV?$StrTraitMFC@DV?$ChTraitsCRT@D@ATL@@@@@ATL@@QAE@XZ ; ATL::CStringT<char,StrTraitMFC<char,ATL::ChTraitsCRT<char> > >::~CStringT<char,StrTraitMFC<char,ATL::ChTraitsCRT<char> > >
__unwindfunclet$?LoadInvalidName@CProject@@QAEHXZ$3:
  00021	8d 4d 98	 lea	 ecx, DWORD PTR $T8[ebp]
  00024	e9 00 00 00 00	 jmp	 ??1?$basic_string@DU?$char_traits@D@std@@V?$allocator@D@2@@std@@QAE@XZ ; std::basic_string<char,std::char_traits<char>,std::allocator<char> >::~basic_string<char,std::char_traits<char>,std::allocator<char> >
__unwindfunclet$?LoadInvalidName@CProject@@QAEHXZ$8:
  00029	8d 8d 18 f7 ff
	ff		 lea	 ecx, DWORD PTR $T4[ebp]
  0002f	e9 00 00 00 00	 jmp	 ??1?$_Alloc_construct_ptr@V?$allocator@U?$_Tree_node@V?$basic_string@DU?$char_traits@D@std@@V?$allocator@D@2@@std@@PAX@std@@@std@@@std@@QAE@XZ ; std::_Alloc_construct_ptr<std::allocator<std::_Tree_node<std::basic_string<char,std::char_traits<char>,std::allocator<char> >,void *> > >::~_Alloc_construct_ptr<std::allocator<std::_Tree_node<std::basic_string<char,std::char_traits<char>,std::allocator<char> >,void *> > >
  00034	cc		 int	 3
  00035	cc		 int	 3
  00036	cc		 int	 3
  00037	cc		 int	 3
  00038	cc		 int	 3
__ehhandler$?LoadInvalidName@CProject@@QAEHXZ:
  00039	90		 npad	 1
  0003a	90		 npad	 1
  0003b	8b 54 24 08	 mov	 edx, DWORD PTR [esp+8]
  0003f	8d 42 0c	 lea	 eax, DWORD PTR [edx+12]
  00042	8b 8a 18 f7 ff
	ff		 mov	 ecx, DWORD PTR [edx-2280]
  00048	33 c8		 xor	 ecx, eax
  0004a	e8 00 00 00 00	 call	 @__security_check_cookie@4
  0004f	8b 4a fc	 mov	 ecx, DWORD PTR [edx-4]
  00052	33 c8		 xor	 ecx, eax
  00054	e8 00 00 00 00	 call	 @__security_check_cookie@4
  00059	b8 00 00 00 00	 mov	 eax, OFFSET __ehfuncinfo$?LoadInvalidName@CProject@@QAEHXZ
  0005e	e9 00 00 00 00	 jmp	 ___CxxFrameHandler3
text$x	ENDS
?LoadInvalidName@CProject@@QAEHXZ ENDP			; CProject::LoadInvalidName
; Function compile flags: /Ogtp
; File C:\Program Files\Microsoft Visual Studio\2022\Professional\VC\Tools\MSVC\14.44.35207\include\xtree
;	COMDAT ?_Insert_node@?$_Tree_val@U?$_Tree_simple_types@V?$basic_string@DU?$char_traits@D@std@@V?$allocator@D@2@@std@@@std@@@std@@QAEPAU?$_Tree_node@V?$basic_string@DU?$char_traits@D@std@@V?$allocator@D@2@@std@@PAX@2@U?$_Tree_id@PAU?$_Tree_node@V?$basic_string@DU?$char_traits@D@std@@V?$allocator@D@2@@std@@PAX@std@@@2@QAU32@@Z
_TEXT	SEGMENT
__Head$1$ = -4						; size = 4
__Loc$ = 8						; size = 8
__Newnode$ = 16						; size = 4
?_Insert_node@?$_Tree_val@U?$_Tree_simple_types@V?$basic_string@DU?$char_traits@D@std@@V?$allocator@D@2@@std@@@std@@@std@@QAEPAU?$_Tree_node@V?$basic_string@DU?$char_traits@D@std@@V?$allocator@D@2@@std@@PAX@2@U?$_Tree_id@PAU?$_Tree_node@V?$basic_string@DU?$char_traits@D@std@@V?$allocator@D@2@@std@@PAX@std@@@2@QAU32@@Z PROC ; std::_Tree_val<std::_Tree_simple_types<std::basic_string<char,std::char_traits<char>,std::allocator<char> > > >::_Insert_node, COMDAT
; _this$ = ecx

; 669  :     _Nodeptr _Insert_node(const _Tree_id<_Nodeptr> _Loc, const _Nodeptr _Newnode) noexcept {

  00000	55		 push	 ebp
  00001	8b ec		 mov	 ebp, esp
  00003	51		 push	 ecx

; 670  :         ++_Mysize;
; 671  :         const auto _Head  = _Myhead;
; 672  :         _Newnode->_Parent = _Loc._Parent;

  00004	8b 55 08	 mov	 edx, DWORD PTR __Loc$[ebp]
  00007	53		 push	 ebx
  00008	8b d9		 mov	 ebx, ecx
  0000a	57		 push	 edi
  0000b	8b 7d 10	 mov	 edi, DWORD PTR __Newnode$[ebp]
  0000e	8b 03		 mov	 eax, DWORD PTR [ebx]
  00010	ff 43 04	 inc	 DWORD PTR [ebx+4]
  00013	89 45 fc	 mov	 DWORD PTR __Head$1$[ebp], eax
  00016	89 57 04	 mov	 DWORD PTR [edi+4], edx

; 673  :         if (_Loc._Parent == _Head) { // first node in tree, just set head values

  00019	3b d0		 cmp	 edx, eax
  0001b	75 16		 jne	 SHORT $LN5@Insert_nod

; 674  :             _Head->_Left     = _Newnode;

  0001d	89 38		 mov	 DWORD PTR [eax], edi

; 675  :             _Head->_Parent   = _Newnode;

  0001f	89 78 04	 mov	 DWORD PTR [eax+4], edi

; 676  :             _Head->_Right    = _Newnode;

  00022	89 78 08	 mov	 DWORD PTR [eax+8], edi

; 735  :         return _Newnode;
; 736  :     }

  00025	8b c7		 mov	 eax, edi
  00027	c6 47 0c 01	 mov	 BYTE PTR [edi+12], 1
  0002b	5f		 pop	 edi
  0002c	5b		 pop	 ebx
  0002d	8b e5		 mov	 esp, ebp
  0002f	5d		 pop	 ebp
  00030	c2 0c 00	 ret	 12			; 0000000cH
$LN5@Insert_nod:

; 677  :             _Newnode->_Color = _Black; // the root is black
; 678  :             return _Newnode;
; 679  :         }
; 680  : 
; 681  :         _STL_INTERNAL_CHECK(_Loc._Child != _Tree_child::_Unused);
; 682  :         if (_Loc._Child == _Tree_child::_Right) { // add to right of _Loc._Parent

  00033	83 7d 0c 00	 cmp	 DWORD PTR __Loc$[ebp+4], 0
  00037	75 0d		 jne	 SHORT $LN6@Insert_nod

; 683  :             _STL_INTERNAL_CHECK(_Loc._Parent->_Right->_Isnil);
; 684  :             _Loc._Parent->_Right = _Newnode;

  00039	89 7a 08	 mov	 DWORD PTR [edx+8], edi

; 685  :             if (_Loc._Parent == _Head->_Right) { // remember rightmost node

  0003c	3b 50 08	 cmp	 edx, DWORD PTR [eax+8]
  0003f	75 0d		 jne	 SHORT $LN9@Insert_nod

; 686  :                 _Head->_Right = _Newnode;

  00041	89 78 08	 mov	 DWORD PTR [eax+8], edi

; 687  :             }
; 688  :         } else { // add to left of _Loc._Parent

  00044	eb 08		 jmp	 SHORT $LN9@Insert_nod
$LN6@Insert_nod:

; 689  :             _STL_INTERNAL_CHECK(_Loc._Parent->_Left->_Isnil);
; 690  :             _Loc._Parent->_Left = _Newnode;

  00046	89 3a		 mov	 DWORD PTR [edx], edi

; 691  :             if (_Loc._Parent == _Head->_Left) { // remember leftmost node

  00048	3b 10		 cmp	 edx, DWORD PTR [eax]
  0004a	75 02		 jne	 SHORT $LN9@Insert_nod

; 692  :                 _Head->_Left = _Newnode;

  0004c	89 38		 mov	 DWORD PTR [eax], edi
$LN9@Insert_nod:

; 693  :             }
; 694  :         }
; 695  : 
; 696  :         for (_Nodeptr _Pnode = _Newnode; _Pnode->_Parent->_Color == _Red;) {

  0004e	8b 4f 04	 mov	 ecx, DWORD PTR [edi+4]
  00051	8b c7		 mov	 eax, edi
  00053	80 79 0c 00	 cmp	 BYTE PTR [ecx+12], 0
  00057	0f 85 7d 01 00
	00		 jne	 $LN3@Insert_nod
  0005d	56		 push	 esi
  0005e	66 90		 npad	 2
$LL4@Insert_nod:

; 697  :             if (_Pnode->_Parent == _Pnode->_Parent->_Parent->_Left) { // fixup red-red in left subtree

  00060	8b 50 04	 mov	 edx, DWORD PTR [eax+4]
  00063	8b 72 04	 mov	 esi, DWORD PTR [edx+4]
  00066	8b 0e		 mov	 ecx, DWORD PTR [esi]
  00068	3b d1		 cmp	 edx, ecx
  0006a	0f 85 aa 00 00
	00		 jne	 $LN10@Insert_nod

; 698  :                 const auto _Parent_sibling = _Pnode->_Parent->_Parent->_Right;

  00070	8b 4e 08	 mov	 ecx, DWORD PTR [esi+8]

; 699  :                 if (_Parent_sibling->_Color == _Red) { // parent's sibling has two red children, blacken both

  00073	80 79 0c 00	 cmp	 BYTE PTR [ecx+12], 0
  00077	0f 84 a3 00 00
	00		 je	 $LN82@Insert_nod

; 700  :                     _Pnode->_Parent->_Color          = _Black;
; 701  :                     _Parent_sibling->_Color          = _Black;
; 702  :                     _Pnode->_Parent->_Parent->_Color = _Red;
; 703  :                     _Pnode                           = _Pnode->_Parent->_Parent;
; 704  :                 } else { // parent's sibling has red and black children
; 705  :                     if (_Pnode == _Pnode->_Parent->_Right) { // rotate right child to left

  0007d	8b 72 08	 mov	 esi, DWORD PTR [edx+8]
  00080	3b c6		 cmp	 eax, esi
  00082	75 37		 jne	 SHORT $LN57@Insert_nod

; 485  :         _Wherenode->_Right = _Pnode->_Left;

  00084	8b 0e		 mov	 ecx, DWORD PTR [esi]

; 706  :                         _Pnode = _Pnode->_Parent;

  00086	8b c2		 mov	 eax, edx

; 485  :         _Wherenode->_Right = _Pnode->_Left;

  00088	89 4a 08	 mov	 DWORD PTR [edx+8], ecx

; 486  : 
; 487  :         if (!_Pnode->_Left->_Isnil) {

  0008b	8b 0e		 mov	 ecx, DWORD PTR [esi]
  0008d	80 79 0d 00	 cmp	 BYTE PTR [ecx+13], 0
  00091	75 03		 jne	 SHORT $LN21@Insert_nod

; 488  :             _Pnode->_Left->_Parent = _Wherenode;

  00093	89 41 04	 mov	 DWORD PTR [ecx+4], eax
$LN21@Insert_nod:

; 489  :         }
; 490  : 
; 491  :         _Pnode->_Parent = _Wherenode->_Parent;

  00096	8b 4a 04	 mov	 ecx, DWORD PTR [edx+4]
  00099	89 4e 04	 mov	 DWORD PTR [esi+4], ecx

; 492  : 
; 493  :         if (_Wherenode == _Myhead->_Parent) {

  0009c	8b 0b		 mov	 ecx, DWORD PTR [ebx]
  0009e	3b 41 04	 cmp	 eax, DWORD PTR [ecx+4]
  000a1	75 05		 jne	 SHORT $LN22@Insert_nod

; 494  :             _Myhead->_Parent = _Pnode;

  000a3	89 71 04	 mov	 DWORD PTR [ecx+4], esi
  000a6	eb 0e		 jmp	 SHORT $LN25@Insert_nod
$LN22@Insert_nod:

; 495  :         } else if (_Wherenode == _Wherenode->_Parent->_Left) {

  000a8	8b 4a 04	 mov	 ecx, DWORD PTR [edx+4]
  000ab	3b 01		 cmp	 eax, DWORD PTR [ecx]
  000ad	75 04		 jne	 SHORT $LN24@Insert_nod

; 496  :             _Wherenode->_Parent->_Left = _Pnode;

  000af	89 31		 mov	 DWORD PTR [ecx], esi

; 497  :         } else {

  000b1	eb 03		 jmp	 SHORT $LN25@Insert_nod
$LN24@Insert_nod:

; 498  :             _Wherenode->_Parent->_Right = _Pnode;

  000b3	89 71 08	 mov	 DWORD PTR [ecx+8], esi
$LN25@Insert_nod:

; 499  :         }
; 500  : 
; 501  :         _Pnode->_Left       = _Wherenode;

  000b6	89 06		 mov	 DWORD PTR [esi], eax

; 502  :         _Wherenode->_Parent = _Pnode;

  000b8	89 70 04	 mov	 DWORD PTR [eax+4], esi
$LN57@Insert_nod:

; 707  :                         _Lrotate(_Pnode);
; 708  :                     }
; 709  : 
; 710  :                     _Pnode->_Parent->_Color          = _Black; // propagate red up

  000bb	8b 48 04	 mov	 ecx, DWORD PTR [eax+4]
  000be	c6 41 0c 01	 mov	 BYTE PTR [ecx+12], 1

; 711  :                     _Pnode->_Parent->_Parent->_Color = _Red;

  000c2	8b 48 04	 mov	 ecx, DWORD PTR [eax+4]
  000c5	8b 49 04	 mov	 ecx, DWORD PTR [ecx+4]
  000c8	c6 41 0c 00	 mov	 BYTE PTR [ecx+12], 0

; 712  :                     _Rrotate(_Pnode->_Parent->_Parent);

  000cc	8b 48 04	 mov	 ecx, DWORD PTR [eax+4]
  000cf	8b 51 04	 mov	 edx, DWORD PTR [ecx+4]

; 506  :         _Nodeptr _Pnode   = _Wherenode->_Left;

  000d2	8b 32		 mov	 esi, DWORD PTR [edx]

; 507  :         _Wherenode->_Left = _Pnode->_Right;

  000d4	8b 4e 08	 mov	 ecx, DWORD PTR [esi+8]
  000d7	89 0a		 mov	 DWORD PTR [edx], ecx

; 508  : 
; 509  :         if (!_Pnode->_Right->_Isnil) {

  000d9	8b 4e 08	 mov	 ecx, DWORD PTR [esi+8]
  000dc	80 79 0d 00	 cmp	 BYTE PTR [ecx+13], 0
  000e0	75 03		 jne	 SHORT $LN29@Insert_nod

; 510  :             _Pnode->_Right->_Parent = _Wherenode;

  000e2	89 51 04	 mov	 DWORD PTR [ecx+4], edx
$LN29@Insert_nod:

; 511  :         }
; 512  : 
; 513  :         _Pnode->_Parent = _Wherenode->_Parent;

  000e5	8b 4a 04	 mov	 ecx, DWORD PTR [edx+4]
  000e8	89 4e 04	 mov	 DWORD PTR [esi+4], ecx

; 514  : 
; 515  :         if (_Wherenode == _Myhead->_Parent) {

  000eb	8b 0b		 mov	 ecx, DWORD PTR [ebx]
  000ed	3b 51 04	 cmp	 edx, DWORD PTR [ecx+4]
  000f0	75 0b		 jne	 SHORT $LN30@Insert_nod

; 516  :             _Myhead->_Parent = _Pnode;

  000f2	89 71 04	 mov	 DWORD PTR [ecx+4], esi

; 521  :         }
; 522  : 
; 523  :         _Pnode->_Right      = _Wherenode;

  000f5	89 56 08	 mov	 DWORD PTR [esi+8], edx

; 713  :                 }
; 714  :             } else { // fixup red-red in right subtree

  000f8	e9 cc 00 00 00	 jmp	 $LN81@Insert_nod
$LN30@Insert_nod:

; 517  :         } else if (_Wherenode == _Wherenode->_Parent->_Right) {

  000fd	8b 4a 04	 mov	 ecx, DWORD PTR [edx+4]
  00100	3b 51 08	 cmp	 edx, DWORD PTR [ecx+8]
  00103	75 0b		 jne	 SHORT $LN32@Insert_nod

; 518  :             _Wherenode->_Parent->_Right = _Pnode;

  00105	89 71 08	 mov	 DWORD PTR [ecx+8], esi

; 521  :         }
; 522  : 
; 523  :         _Pnode->_Right      = _Wherenode;

  00108	89 56 08	 mov	 DWORD PTR [esi+8], edx

; 713  :                 }
; 714  :             } else { // fixup red-red in right subtree

  0010b	e9 b9 00 00 00	 jmp	 $LN81@Insert_nod
$LN32@Insert_nod:

; 520  :             _Wherenode->_Parent->_Left = _Pnode;

  00110	89 31		 mov	 DWORD PTR [ecx], esi

; 521  :         }
; 522  : 
; 523  :         _Pnode->_Right      = _Wherenode;

  00112	89 56 08	 mov	 DWORD PTR [esi+8], edx

; 713  :                 }
; 714  :             } else { // fixup red-red in right subtree

  00115	e9 af 00 00 00	 jmp	 $LN81@Insert_nod
$LN10@Insert_nod:

; 715  :                 const auto _Parent_sibling = _Pnode->_Parent->_Parent->_Left;
; 716  :                 if (_Parent_sibling->_Color == _Red) { // parent's sibling has two red children, blacken both

  0011a	80 79 0c 00	 cmp	 BYTE PTR [ecx+12], 0
  0011e	75 1d		 jne	 SHORT $LN15@Insert_nod
$LN82@Insert_nod:

; 693  :             }
; 694  :         }
; 695  : 
; 696  :         for (_Nodeptr _Pnode = _Newnode; _Pnode->_Parent->_Color == _Red;) {

  00120	c6 42 0c 01	 mov	 BYTE PTR [edx+12], 1
  00124	c6 41 0c 01	 mov	 BYTE PTR [ecx+12], 1
  00128	8b 48 04	 mov	 ecx, DWORD PTR [eax+4]
  0012b	8b 49 04	 mov	 ecx, DWORD PTR [ecx+4]
  0012e	c6 41 0c 00	 mov	 BYTE PTR [ecx+12], 0
  00132	8b 48 04	 mov	 ecx, DWORD PTR [eax+4]
  00135	8b 41 04	 mov	 eax, DWORD PTR [ecx+4]
  00138	e9 8f 00 00 00	 jmp	 $LN2@Insert_nod
$LN15@Insert_nod:

; 717  :                     _Pnode->_Parent->_Color          = _Black;
; 718  :                     _Parent_sibling->_Color          = _Black;
; 719  :                     _Pnode->_Parent->_Parent->_Color = _Red;
; 720  :                     _Pnode                           = _Pnode->_Parent->_Parent;
; 721  :                 } else { // parent's sibling has red and black children
; 722  :                     if (_Pnode == _Pnode->_Parent->_Left) { // rotate left child to right

  0013d	8b 32		 mov	 esi, DWORD PTR [edx]
  0013f	3b c6		 cmp	 eax, esi
  00141	75 3a		 jne	 SHORT $LN42@Insert_nod

; 507  :         _Wherenode->_Left = _Pnode->_Right;

  00143	8b 4e 08	 mov	 ecx, DWORD PTR [esi+8]

; 723  :                         _Pnode = _Pnode->_Parent;

  00146	8b c2		 mov	 eax, edx

; 507  :         _Wherenode->_Left = _Pnode->_Right;

  00148	89 08		 mov	 DWORD PTR [eax], ecx

; 508  : 
; 509  :         if (!_Pnode->_Right->_Isnil) {

  0014a	8b 4e 08	 mov	 ecx, DWORD PTR [esi+8]
  0014d	80 79 0d 00	 cmp	 BYTE PTR [ecx+13], 0
  00151	75 03		 jne	 SHORT $LN37@Insert_nod

; 510  :             _Pnode->_Right->_Parent = _Wherenode;

  00153	89 41 04	 mov	 DWORD PTR [ecx+4], eax
$LN37@Insert_nod:

; 511  :         }
; 512  : 
; 513  :         _Pnode->_Parent = _Wherenode->_Parent;

  00156	8b 4a 04	 mov	 ecx, DWORD PTR [edx+4]
  00159	89 4e 04	 mov	 DWORD PTR [esi+4], ecx

; 514  : 
; 515  :         if (_Wherenode == _Myhead->_Parent) {

  0015c	8b 0b		 mov	 ecx, DWORD PTR [ebx]
  0015e	3b 41 04	 cmp	 eax, DWORD PTR [ecx+4]
  00161	75 05		 jne	 SHORT $LN38@Insert_nod

; 516  :             _Myhead->_Parent = _Pnode;

  00163	89 71 04	 mov	 DWORD PTR [ecx+4], esi
  00166	eb 0f		 jmp	 SHORT $LN41@Insert_nod
$LN38@Insert_nod:

; 517  :         } else if (_Wherenode == _Wherenode->_Parent->_Right) {

  00168	8b 4a 04	 mov	 ecx, DWORD PTR [edx+4]
  0016b	3b 41 08	 cmp	 eax, DWORD PTR [ecx+8]
  0016e	75 05		 jne	 SHORT $LN40@Insert_nod

; 518  :             _Wherenode->_Parent->_Right = _Pnode;

  00170	89 71 08	 mov	 DWORD PTR [ecx+8], esi

; 519  :         } else {

  00173	eb 02		 jmp	 SHORT $LN41@Insert_nod
$LN40@Insert_nod:

; 520  :             _Wherenode->_Parent->_Left = _Pnode;

  00175	89 31		 mov	 DWORD PTR [ecx], esi
$LN41@Insert_nod:

; 521  :         }
; 522  : 
; 523  :         _Pnode->_Right      = _Wherenode;

  00177	89 46 08	 mov	 DWORD PTR [esi+8], eax

; 524  :         _Wherenode->_Parent = _Pnode;

  0017a	89 70 04	 mov	 DWORD PTR [eax+4], esi
$LN42@Insert_nod:

; 724  :                         _Rrotate(_Pnode);
; 725  :                     }
; 726  : 
; 727  :                     _Pnode->_Parent->_Color          = _Black; // propagate red up

  0017d	8b 48 04	 mov	 ecx, DWORD PTR [eax+4]
  00180	c6 41 0c 01	 mov	 BYTE PTR [ecx+12], 1

; 728  :                     _Pnode->_Parent->_Parent->_Color = _Red;

  00184	8b 48 04	 mov	 ecx, DWORD PTR [eax+4]
  00187	8b 49 04	 mov	 ecx, DWORD PTR [ecx+4]
  0018a	c6 41 0c 00	 mov	 BYTE PTR [ecx+12], 0

; 729  :                     _Lrotate(_Pnode->_Parent->_Parent);

  0018e	8b 48 04	 mov	 ecx, DWORD PTR [eax+4]
  00191	8b 51 04	 mov	 edx, DWORD PTR [ecx+4]

; 484  :         _Nodeptr _Pnode    = _Wherenode->_Right;

  00194	8b 72 08	 mov	 esi, DWORD PTR [edx+8]

; 485  :         _Wherenode->_Right = _Pnode->_Left;

  00197	8b 0e		 mov	 ecx, DWORD PTR [esi]
  00199	89 4a 08	 mov	 DWORD PTR [edx+8], ecx

; 486  : 
; 487  :         if (!_Pnode->_Left->_Isnil) {

  0019c	8b 0e		 mov	 ecx, DWORD PTR [esi]
  0019e	80 79 0d 00	 cmp	 BYTE PTR [ecx+13], 0
  001a2	75 03		 jne	 SHORT $LN45@Insert_nod

; 488  :             _Pnode->_Left->_Parent = _Wherenode;

  001a4	89 51 04	 mov	 DWORD PTR [ecx+4], edx
$LN45@Insert_nod:

; 489  :         }
; 490  : 
; 491  :         _Pnode->_Parent = _Wherenode->_Parent;

  001a7	8b 4a 04	 mov	 ecx, DWORD PTR [edx+4]
  001aa	89 4e 04	 mov	 DWORD PTR [esi+4], ecx

; 492  : 
; 493  :         if (_Wherenode == _Myhead->_Parent) {

  001ad	8b 0b		 mov	 ecx, DWORD PTR [ebx]
  001af	3b 51 04	 cmp	 edx, DWORD PTR [ecx+4]
  001b2	75 05		 jne	 SHORT $LN46@Insert_nod

; 494  :             _Myhead->_Parent = _Pnode;

  001b4	89 71 04	 mov	 DWORD PTR [ecx+4], esi
  001b7	eb 0e		 jmp	 SHORT $LN49@Insert_nod
$LN46@Insert_nod:

; 495  :         } else if (_Wherenode == _Wherenode->_Parent->_Left) {

  001b9	8b 4a 04	 mov	 ecx, DWORD PTR [edx+4]
  001bc	3b 11		 cmp	 edx, DWORD PTR [ecx]
  001be	75 04		 jne	 SHORT $LN48@Insert_nod

; 496  :             _Wherenode->_Parent->_Left = _Pnode;

  001c0	89 31		 mov	 DWORD PTR [ecx], esi

; 497  :         } else {

  001c2	eb 03		 jmp	 SHORT $LN49@Insert_nod
$LN48@Insert_nod:

; 498  :             _Wherenode->_Parent->_Right = _Pnode;

  001c4	89 71 08	 mov	 DWORD PTR [ecx+8], esi
$LN49@Insert_nod:

; 499  :         }
; 500  : 
; 501  :         _Pnode->_Left       = _Wherenode;

  001c7	89 16		 mov	 DWORD PTR [esi], edx
$LN81@Insert_nod:

; 693  :             }
; 694  :         }
; 695  : 
; 696  :         for (_Nodeptr _Pnode = _Newnode; _Pnode->_Parent->_Color == _Red;) {

  001c9	89 72 04	 mov	 DWORD PTR [edx+4], esi
$LN2@Insert_nod:
  001cc	8b 48 04	 mov	 ecx, DWORD PTR [eax+4]
  001cf	80 79 0c 00	 cmp	 BYTE PTR [ecx+12], 0
  001d3	0f 84 87 fe ff
	ff		 je	 $LL4@Insert_nod
  001d9	5e		 pop	 esi
$LN3@Insert_nod:

; 730  :                 }
; 731  :             }
; 732  :         }
; 733  : 
; 734  :         _Head->_Parent->_Color = _Black; // root is always black

  001da	8b 45 fc	 mov	 eax, DWORD PTR __Head$1$[ebp]
  001dd	8b 40 04	 mov	 eax, DWORD PTR [eax+4]
  001e0	c6 40 0c 01	 mov	 BYTE PTR [eax+12], 1

; 735  :         return _Newnode;
; 736  :     }

  001e4	8b c7		 mov	 eax, edi
  001e6	5f		 pop	 edi
  001e7	5b		 pop	 ebx
  001e8	8b e5		 mov	 esp, ebp
  001ea	5d		 pop	 ebp
  001eb	c2 0c 00	 ret	 12			; 0000000cH
?_Insert_node@?$_Tree_val@U?$_Tree_simple_types@V?$basic_string@DU?$char_traits@D@std@@V?$allocator@D@2@@std@@@std@@@std@@QAEPAU?$_Tree_node@V?$basic_string@DU?$char_traits@D@std@@V?$allocator@D@2@@std@@PAX@2@U?$_Tree_id@PAU?$_Tree_node@V?$basic_string@DU?$char_traits@D@std@@V?$allocator@D@2@@std@@PAX@std@@@2@QAU32@@Z ENDP ; std::_Tree_val<std::_Tree_simple_types<std::basic_string<char,std::char_traits<char>,std::allocator<char> > > >::_Insert_node
_TEXT	ENDS
; Function compile flags: /Ogtp
; File C:\IAGOS\server\v18\Source\Source\_Common\Data.h
;	COMDAT ?Optimize@?$CFixedArray@UtagColorText@@@@QAEXXZ
_TEXT	SEGMENT
_apOffset$1$ = -4					; size = 4
_pData$1$ = -4						; size = 4
?Optimize@?$CFixedArray@UtagColorText@@@@QAEXXZ PROC	; CFixedArray<tagColorText>::Optimize, COMDAT
; _this$ = ecx

; 280  : {

  00000	55		 push	 ebp
  00001	8b ec		 mov	 ebp, esp
  00003	51		 push	 ecx
  00004	53		 push	 ebx
  00005	56		 push	 esi
  00006	8b f1		 mov	 esi, ecx

; 281  : 	if( m_nMaxIndex >= m_nEndIndex )

  00008	8b 46 20	 mov	 eax, DWORD PTR [esi+32]
  0000b	8d 5e 20	 lea	 ebx, DWORD PTR [esi+32]
  0000e	57		 push	 edi
  0000f	39 46 18	 cmp	 DWORD PTR [esi+24], eax
  00012	7c 48		 jl	 SHORT $LN16@Optimize

; 282  : 	{
; 283  : 		m_nMaxIndex = m_nEndIndex + 1;

  00014	40		 inc	 eax

; 284  : 		LPBYTE* apOffset = new LPBYTE [ m_nMaxIndex ]; 

  00015	b9 04 00 00 00	 mov	 ecx, 4
  0001a	89 46 18	 mov	 DWORD PTR [esi+24], eax
  0001d	f7 e1		 mul	 ecx
  0001f	b9 ff ff ff ff	 mov	 ecx, -1
  00024	0f 42 c1	 cmovb	 eax, ecx
  00027	50		 push	 eax
  00028	e8 00 00 00 00	 call	 ??_U@YAPAXI@Z		; operator new[]

; 285  : 		memcpy( apOffset, m_apOffset, sizeof( LPBYTE ) * m_nMaxIndex ); 

  0002d	8b 4e 18	 mov	 ecx, DWORD PTR [esi+24]
  00030	c1 e1 02	 shl	 ecx, 2
  00033	51		 push	 ecx
  00034	ff 76 08	 push	 DWORD PTR [esi+8]
  00037	89 45 fc	 mov	 DWORD PTR _apOffset$1$[ebp], eax
  0003a	50		 push	 eax
  0003b	e8 00 00 00 00	 call	 _memcpy

; 286  : 		SAFE_DELETE_ARRAY( m_apOffset );

  00040	8b 46 08	 mov	 eax, DWORD PTR [esi+8]
  00043	83 c4 10	 add	 esp, 16			; 00000010H
  00046	85 c0		 test	 eax, eax
  00048	74 0c		 je	 SHORT $LN6@Optimize
  0004a	50		 push	 eax
  0004b	e8 00 00 00 00	 call	 ??_V@YAXPAX@Z		; operator delete[]
  00050	83 c4 04	 add	 esp, 4
  00053	8d 5e 20	 lea	 ebx, DWORD PTR [esi+32]
$LN6@Optimize:

; 287  : 		m_apOffset = apOffset;

  00056	8b 45 fc	 mov	 eax, DWORD PTR _apOffset$1$[ebp]
  00059	89 46 08	 mov	 DWORD PTR [esi+8], eax
$LN16@Optimize:

; 288  : 	}
; 289  : 	if( m_nMaxByte > m_nCurOffset )

  0005c	8b 46 0c	 mov	 eax, DWORD PTR [esi+12]
  0005f	39 46 14	 cmp	 DWORD PTR [esi+20], eax
  00062	7e 5b		 jle	 SHORT $LN7@Optimize

; 290  : 	{
; 291  : 		LPBYTE pData = new BYTE[ m_nCurOffset ]; 

  00064	50		 push	 eax
  00065	e8 00 00 00 00	 call	 ??_U@YAPAXI@Z		; operator new[]

; 292  : 		memcpy( pData, m_pData, m_nCurOffset ); 

  0006a	ff 76 0c	 push	 DWORD PTR [esi+12]
  0006d	89 45 fc	 mov	 DWORD PTR _pData$1$[ebp], eax
  00070	ff 76 04	 push	 DWORD PTR [esi+4]
  00073	50		 push	 eax
  00074	e8 00 00 00 00	 call	 _memcpy

; 293  : 		for( int i = 0; i <= m_nEndIndex; i++ )

  00079	33 c9		 xor	 ecx, ecx
  0007b	83 c4 10	 add	 esp, 16			; 00000010H
  0007e	39 4e 20	 cmp	 DWORD PTR [esi+32], ecx
  00081	7c 19		 jl	 SHORT $LN3@Optimize
$LL4@Optimize:

; 294  : 			if( m_apOffset[ i ] )

  00083	8b 46 08	 mov	 eax, DWORD PTR [esi+8]
  00086	8d 14 88	 lea	 edx, DWORD PTR [eax+ecx*4]
  00089	8b 02		 mov	 eax, DWORD PTR [edx]
  0008b	85 c0		 test	 eax, eax
  0008d	74 08		 je	 SHORT $LN2@Optimize

; 295  : 				m_apOffset[ i ] = ( m_apOffset[ i ] - m_pData ) + pData; 

  0008f	2b 46 04	 sub	 eax, DWORD PTR [esi+4]
  00092	03 45 fc	 add	 eax, DWORD PTR _pData$1$[ebp]
  00095	89 02		 mov	 DWORD PTR [edx], eax
$LN2@Optimize:

; 293  : 		for( int i = 0; i <= m_nEndIndex; i++ )

  00097	41		 inc	 ecx
  00098	3b 0b		 cmp	 ecx, DWORD PTR [ebx]
  0009a	7e e7		 jle	 SHORT $LL4@Optimize
$LN3@Optimize:

; 296  : 		SAFE_DELETE_ARRAY( m_pData );

  0009c	8b 46 04	 mov	 eax, DWORD PTR [esi+4]
  0009f	85 c0		 test	 eax, eax
  000a1	74 10		 je	 SHORT $LN9@Optimize
  000a3	50		 push	 eax
  000a4	e8 00 00 00 00	 call	 ??_V@YAXPAX@Z		; operator delete[]
  000a9	83 c4 04	 add	 esp, 4
  000ac	c7 46 04 00 00
	00 00		 mov	 DWORD PTR [esi+4], 0
$LN9@Optimize:

; 297  : 		m_pData = pData;

  000b3	8b 45 fc	 mov	 eax, DWORD PTR _pData$1$[ebp]
  000b6	89 46 04	 mov	 DWORD PTR [esi+4], eax

; 298  : 		m_nMaxByte = m_nCurOffset ;

  000b9	8b 46 0c	 mov	 eax, DWORD PTR [esi+12]
  000bc	89 46 14	 mov	 DWORD PTR [esi+20], eax
$LN7@Optimize:

; 299  : 	}
; 300  : }

  000bf	5f		 pop	 edi
  000c0	5e		 pop	 esi
  000c1	5b		 pop	 ebx
  000c2	8b e5		 mov	 esp, ebp
  000c4	5d		 pop	 ebp
  000c5	c3		 ret	 0
?Optimize@?$CFixedArray@UtagColorText@@@@QAEXXZ ENDP	; CFixedArray<tagColorText>::Optimize
_TEXT	ENDS
; Function compile flags: /Ogtp
; File C:\IAGOS\server\v18\Source\Source\_Common\Data.h
;	COMDAT ?SetAtGrow@?$CFixedArray@UtagColorText@@@@QAEXHPAUtagColorText@@H@Z
_TEXT	SEGMENT
tv436 = -12						; size = 4
tv439 = -12						; size = 4
tv473 = -12						; size = 4
_pData2$1$ = -8						; size = 4
$T1 = -8						; size = 4
_apOffset$1$ = -4					; size = 4
$T2 = -4						; size = 4
_nIndex$ = 8						; size = 4
_pData$ = 12						; size = 4
_nSize$ = 16						; size = 4
?SetAtGrow@?$CFixedArray@UtagColorText@@@@QAEXHPAUtagColorText@@H@Z PROC ; CFixedArray<tagColorText>::SetAtGrow, COMDAT
; _this$ = ecx

; 310  : {

  00000	55		 push	 ebp
  00001	8b ec		 mov	 ebp, esp
  00003	83 ec 0c	 sub	 esp, 12			; 0000000cH

; 311  : 	if( nIndex >= m_nMaxIndex )

  00006	8b 45 08	 mov	 eax, DWORD PTR _nIndex$[ebp]
  00009	53		 push	 ebx
  0000a	56		 push	 esi
  0000b	57		 push	 edi
  0000c	8b f9		 mov	 edi, ecx
  0000e	8d 77 20	 lea	 esi, DWORD PTR [edi+32]
  00011	8d 5f 08	 lea	 ebx, DWORD PTR [edi+8]
  00014	89 75 f8	 mov	 DWORD PTR $T1[ebp], esi
  00017	3b 47 18	 cmp	 eax, DWORD PTR [edi+24]
  0001a	7c 5f		 jl	 SHORT $LN25@SetAtGrow

; 312  : 	{
; 313  : 		LPBYTE* apOffset = new LPBYTE [ nIndex * 2 ]; // µÎąč Č®Ŕĺ 

  0001c	03 c0		 add	 eax, eax
  0001e	b9 04 00 00 00	 mov	 ecx, 4
  00023	89 45 f4	 mov	 DWORD PTR tv439[ebp], eax
  00026	f7 e1		 mul	 ecx
  00028	b9 ff ff ff ff	 mov	 ecx, -1
  0002d	0f 42 c1	 cmovb	 eax, ecx
  00030	50		 push	 eax
  00031	e8 00 00 00 00	 call	 ??_U@YAPAXI@Z		; operator new[]

; 314  : 		ZeroMemory( apOffset, sizeof( LPBYTE ) * nIndex * 2 ); // ĂĘ±âČ­ 

  00036	8b 4d 08	 mov	 ecx, DWORD PTR _nIndex$[ebp]
  00039	c1 e1 03	 shl	 ecx, 3
  0003c	51		 push	 ecx
  0003d	6a 00		 push	 0
  0003f	50		 push	 eax
  00040	89 45 fc	 mov	 DWORD PTR _apOffset$1$[ebp], eax
  00043	e8 00 00 00 00	 call	 _memset

; 315  : 		memcpy( apOffset, m_apOffset, sizeof( LPBYTE ) * ( m_nEndIndex + 1 ) ); // şą»ç 

  00048	8b 0e		 mov	 ecx, DWORD PTR [esi]
  0004a	8d 0c 8d 04 00
	00 00		 lea	 ecx, DWORD PTR [ecx*4+4]
  00051	51		 push	 ecx
  00052	ff 33		 push	 DWORD PTR [ebx]
  00054	ff 75 fc	 push	 DWORD PTR _apOffset$1$[ebp]
  00057	e8 00 00 00 00	 call	 _memcpy

; 316  : 		SAFE_DELETE_ARRAY( m_apOffset );

  0005c	8b 03		 mov	 eax, DWORD PTR [ebx]
  0005e	83 c4 1c	 add	 esp, 28			; 0000001cH
  00061	85 c0		 test	 eax, eax
  00063	74 09		 je	 SHORT $LN6@SetAtGrow
  00065	50		 push	 eax
  00066	e8 00 00 00 00	 call	 ??_V@YAXPAX@Z		; operator delete[]
  0006b	83 c4 04	 add	 esp, 4
$LN6@SetAtGrow:

; 317  : 		m_apOffset = apOffset;

  0006e	8b 45 fc	 mov	 eax, DWORD PTR _apOffset$1$[ebp]
  00071	89 03		 mov	 DWORD PTR [ebx], eax

; 318  : 		m_nMaxIndex = nIndex * 2;

  00073	8b 45 f4	 mov	 eax, DWORD PTR tv439[ebp]
  00076	89 47 18	 mov	 DWORD PTR [edi+24], eax
  00079	eb 03		 jmp	 SHORT $LN21@SetAtGrow
$LN25@SetAtGrow:
  0007b	89 75 f8	 mov	 DWORD PTR $T1[ebp], esi
$LN21@SetAtGrow:

; 319  : 	}
; 320  : 	int nSizeTemp 
; 321  : 		= nSize ? nSize : sizeof( T );

  0007e	8b 45 10	 mov	 eax, DWORD PTR _nSize$[ebp]

; 322  : 	if( m_nCurOffset + nSizeTemp > m_nMaxByte )

  00081	8d 4f 0c	 lea	 ecx, DWORD PTR [edi+12]
  00084	85 c0		 test	 eax, eax
  00086	89 4d fc	 mov	 DWORD PTR $T2[ebp], ecx
  00089	ba 08 00 00 00	 mov	 edx, 8
  0008e	0f 45 d0	 cmovne	 edx, eax
  00091	8b 01		 mov	 eax, DWORD PTR [ecx]
  00093	03 c2		 add	 eax, edx
  00095	3b 47 14	 cmp	 eax, DWORD PTR [edi+20]
  00098	7e 75		 jle	 SHORT $LN26@SetAtGrow

; 323  : 	{
; 324  : 		m_nMaxByte = m_nCurOffset * 2 + nSizeTemp;

  0009a	8b 01		 mov	 eax, DWORD PTR [ecx]
  0009c	8d 04 42	 lea	 eax, DWORD PTR [edx+eax*2]

; 325  : 		LPBYTE pData2 = new BYTE[ m_nMaxByte ]; // µÎąč Č®Ŕĺ 

  0009f	50		 push	 eax
  000a0	89 47 14	 mov	 DWORD PTR [edi+20], eax
  000a3	e8 00 00 00 00	 call	 ??_U@YAPAXI@Z		; operator new[]

; 326  : 		memcpy( pData2, m_pData, m_nCurOffset ); // şą»ç 

  000a8	ff 77 0c	 push	 DWORD PTR [edi+12]
  000ab	8b c8		 mov	 ecx, eax
  000ad	ff 77 04	 push	 DWORD PTR [edi+4]
  000b0	89 4d f8	 mov	 DWORD PTR _pData2$1$[ebp], ecx
  000b3	51		 push	 ecx
  000b4	e8 00 00 00 00	 call	 _memcpy

; 327  : 		for( int i = 0; i <= m_nEndIndex; i++ )

  000b9	33 c9		 xor	 ecx, ecx
  000bb	8d 47 0c	 lea	 eax, DWORD PTR [edi+12]
  000be	83 c4 10	 add	 esp, 16			; 00000010H
  000c1	89 45 fc	 mov	 DWORD PTR $T2[ebp], eax
  000c4	39 0e		 cmp	 DWORD PTR [esi], ecx
  000c6	7c 21		 jl	 SHORT $LN22@SetAtGrow
$LL4@SetAtGrow:

; 328  : 			if( m_apOffset[ i ] )

  000c8	8b 03		 mov	 eax, DWORD PTR [ebx]
  000ca	8d 14 88	 lea	 edx, DWORD PTR [eax+ecx*4]
  000cd	8b 02		 mov	 eax, DWORD PTR [edx]
  000cf	85 c0		 test	 eax, eax
  000d1	74 08		 je	 SHORT $LN2@SetAtGrow

; 329  : 				m_apOffset[ i ] = ( m_apOffset[ i ] - m_pData ) + pData2; 

  000d3	2b 47 04	 sub	 eax, DWORD PTR [edi+4]
  000d6	03 45 f8	 add	 eax, DWORD PTR _pData2$1$[ebp]
  000d9	89 02		 mov	 DWORD PTR [edx], eax
$LN2@SetAtGrow:

; 327  : 		for( int i = 0; i <= m_nEndIndex; i++ )

  000db	41		 inc	 ecx
  000dc	3b 0e		 cmp	 ecx, DWORD PTR [esi]
  000de	7e e8		 jle	 SHORT $LL4@SetAtGrow

; 318  : 		m_nMaxIndex = nIndex * 2;

  000e0	8d 47 0c	 lea	 eax, DWORD PTR [edi+12]
  000e3	8d 5f 08	 lea	 ebx, DWORD PTR [edi+8]
  000e6	89 45 fc	 mov	 DWORD PTR $T2[ebp], eax
$LN22@SetAtGrow:

; 330  : 		SAFE_DELETE_ARRAY( m_pData );

  000e9	8b 47 04	 mov	 eax, DWORD PTR [edi+4]
  000ec	85 c0		 test	 eax, eax
  000ee	74 10		 je	 SHORT $LN9@SetAtGrow
  000f0	50		 push	 eax
  000f1	e8 00 00 00 00	 call	 ??_V@YAXPAX@Z		; operator delete[]
  000f6	83 c4 04	 add	 esp, 4
  000f9	c7 47 04 00 00
	00 00		 mov	 DWORD PTR [edi+4], 0
$LN9@SetAtGrow:

; 331  : 		m_pData = pData2;

  00100	8b 45 f8	 mov	 eax, DWORD PTR _pData2$1$[ebp]
  00103	8b 4d fc	 mov	 ecx, DWORD PTR $T2[ebp]
  00106	89 47 04	 mov	 DWORD PTR [edi+4], eax
  00109	8d 47 20	 lea	 eax, DWORD PTR [edi+32]
  0010c	89 45 f8	 mov	 DWORD PTR $T1[ebp], eax
$LN26@SetAtGrow:

; 332  : 	}
; 333  : 	// »çŔĚÁî ŔÚĂĽżˇ şŻµżŔĚ ľř´Â °ćżěŔÓ( T »çŔĚÁî°ˇ ŔŻÁöµÇ´Â °ćżě )
; 334  : 	if( nSize == 0 )

  0010f	8b 45 08	 mov	 eax, DWORD PTR _nIndex$[ebp]
  00112	8d 34 85 00 00
	00 00		 lea	 esi, DWORD PTR [eax*4]
  00119	8b 03		 mov	 eax, DWORD PTR [ebx]
  0011b	89 75 f4	 mov	 DWORD PTR tv473[ebp], esi
  0011e	8b 14 06	 mov	 edx, DWORD PTR [esi+eax]
  00121	8b 45 10	 mov	 eax, DWORD PTR _nSize$[ebp]
  00124	85 c0		 test	 eax, eax
  00126	75 3c		 jne	 SHORT $LN10@SetAtGrow

; 335  : 	{
; 336  : 		if( m_apOffset[ nIndex ] == NULL )

  00128	8b 45 0c	 mov	 eax, DWORD PTR _pData$[ebp]
  0012b	85 d2		 test	 edx, edx
  0012d	75 29		 jne	 SHORT $LN12@SetAtGrow

; 337  : 		{
; 338  : 			memcpy( &m_pData[ m_nCurOffset ], pData, sizeof( T ) );

  0012f	8b 10		 mov	 edx, DWORD PTR [eax]
  00131	8b 70 04	 mov	 esi, DWORD PTR [eax+4]
  00134	8b 45 fc	 mov	 eax, DWORD PTR $T2[ebp]
  00137	8b 4f 04	 mov	 ecx, DWORD PTR [edi+4]
  0013a	8b 00		 mov	 eax, DWORD PTR [eax]
  0013c	89 14 01	 mov	 DWORD PTR [ecx+eax], edx

; 339  : 			m_apOffset[ nIndex ] = (LPBYTE) m_pData + m_nCurOffset;

  0013f	8b 55 fc	 mov	 edx, DWORD PTR $T2[ebp]
  00142	89 74 01 04	 mov	 DWORD PTR [ecx+eax+4], esi
  00146	8b 03		 mov	 eax, DWORD PTR [ebx]
  00148	8b 75 f4	 mov	 esi, DWORD PTR tv473[ebp]
  0014b	8b 0a		 mov	 ecx, DWORD PTR [edx]
  0014d	03 4f 04	 add	 ecx, DWORD PTR [edi+4]
  00150	89 0c 06	 mov	 DWORD PTR [esi+eax], ecx

; 340  : 			m_nCurOffset += sizeof( T );

  00153	83 02 08	 add	 DWORD PTR [edx], 8

; 341  : 		}

  00156	eb 4d		 jmp	 SHORT $LN15@SetAtGrow
$LN12@SetAtGrow:

; 342  : 		else
; 343  : 		{
; 344  : 			memcpy( m_apOffset[ nIndex ], pData, sizeof( T ) );

  00158	8b 08		 mov	 ecx, DWORD PTR [eax]
  0015a	8b 40 04	 mov	 eax, DWORD PTR [eax+4]
  0015d	89 0a		 mov	 DWORD PTR [edx], ecx
  0015f	89 42 04	 mov	 DWORD PTR [edx+4], eax

; 345  : 		}
; 346  : 	}

  00162	eb 41		 jmp	 SHORT $LN15@SetAtGrow
$LN10@SetAtGrow:

; 347  : 	// °˘ ±¸Á¶ĂĽŔÇ »çŔĚÁî°ˇ şŻ°ćµĘ. ex) ˝şĆ®¸µŔÇ ±ćŔĚżˇ µű¶óĽ­.
; 348  : 	else
; 349  : 	{
; 350  : 		if( m_apOffset[ nIndex ] == NULL )

  00164	85 d2		 test	 edx, edx
  00166	75 26		 jne	 SHORT $LN14@SetAtGrow

; 351  : 		{
; 352  : 			memcpy( &m_pData[ m_nCurOffset ], pData, nSize );

  00168	50		 push	 eax
  00169	8b 47 04	 mov	 eax, DWORD PTR [edi+4]
  0016c	ff 75 0c	 push	 DWORD PTR _pData$[ebp]
  0016f	03 01		 add	 eax, DWORD PTR [ecx]
  00171	50		 push	 eax
  00172	e8 00 00 00 00	 call	 _memcpy

; 353  : 			m_apOffset[ nIndex ] = (LPBYTE) m_pData + m_nCurOffset;

  00177	8b 55 fc	 mov	 edx, DWORD PTR $T2[ebp]
  0017a	83 c4 0c	 add	 esp, 12			; 0000000cH
  0017d	8b 03		 mov	 eax, DWORD PTR [ebx]
  0017f	8b 4f 04	 mov	 ecx, DWORD PTR [edi+4]
  00182	03 0a		 add	 ecx, DWORD PTR [edx]
  00184	89 0c 06	 mov	 DWORD PTR [esi+eax], ecx

; 354  : 			m_nCurOffset += nSize;

  00187	8b 45 10	 mov	 eax, DWORD PTR _nSize$[ebp]
  0018a	01 02		 add	 DWORD PTR [edx], eax

; 355  : 		}

  0018c	eb 17		 jmp	 SHORT $LN15@SetAtGrow
$LN14@SetAtGrow:

; 356  : 		else
; 357  : 		{
; 358  : 			// »çŔĚÁî°ˇ şŻ°ćµÇ´Â ±¸Á¶żˇĽ­´Â ŔÎµ¦˝ş ł»żëŔ» ąŮ˛Ů¸é ľČµĘ.
; 359  : 			WriteLog( "%s, %d", __FILE__, __LINE__ );

  0018e	68 67 01 00 00	 push	 359			; 00000167H
  00193	68 00 00 00 00	 push	 OFFSET ??_C@_0DB@EEKBNLID@C?3?2IAGOS?2server?2v18?2Source?2Sour@
  00198	68 00 00 00 00	 push	 OFFSET ??_C@_06OJLEAOEG@?$CFs?0?5?$CFd@
  0019d	e8 00 00 00 00	 call	 ?WriteLog@@YAXPBDZZ	; WriteLog
  001a2	83 c4 0c	 add	 esp, 12			; 0000000cH
$LN15@SetAtGrow:

; 360  : 		}
; 361  : 	}
; 362  : 	if( nIndex > m_nEndIndex )

  001a5	8b 45 f8	 mov	 eax, DWORD PTR $T1[ebp]
  001a8	8b 4d 08	 mov	 ecx, DWORD PTR _nIndex$[ebp]
  001ab	5f		 pop	 edi
  001ac	5e		 pop	 esi
  001ad	5b		 pop	 ebx
  001ae	3b 08		 cmp	 ecx, DWORD PTR [eax]
  001b0	7e 02		 jle	 SHORT $LN16@SetAtGrow

; 363  : 		m_nEndIndex = nIndex;

  001b2	89 08		 mov	 DWORD PTR [eax], ecx
$LN16@SetAtGrow:

; 364  : }

  001b4	8b e5		 mov	 esp, ebp
  001b6	5d		 pop	 ebp
  001b7	c2 0c 00	 ret	 12			; 0000000cH
?SetAtGrow@?$CFixedArray@UtagColorText@@@@QAEXHPAUtagColorText@@H@Z ENDP ; CFixedArray<tagColorText>::SetAtGrow
_TEXT	ENDS
; Function compile flags: /Ogtp
; File C:\IAGOS\server\v18\Source\Source\_Common\Data.h
;	COMDAT ?Optimize@?$CFixedArray@UItemProp@@@@QAEXXZ
_TEXT	SEGMENT
_apOffset$1$ = -4					; size = 4
_pData$1$ = -4						; size = 4
?Optimize@?$CFixedArray@UItemProp@@@@QAEXXZ PROC	; CFixedArray<ItemProp>::Optimize, COMDAT
; _this$ = ecx

; 280  : {

  00000	55		 push	 ebp
  00001	8b ec		 mov	 ebp, esp
  00003	51		 push	 ecx
  00004	53		 push	 ebx
  00005	56		 push	 esi
  00006	8b f1		 mov	 esi, ecx

; 281  : 	if( m_nMaxIndex >= m_nEndIndex )

  00008	8b 46 20	 mov	 eax, DWORD PTR [esi+32]
  0000b	8d 5e 20	 lea	 ebx, DWORD PTR [esi+32]
  0000e	57		 push	 edi
  0000f	39 46 18	 cmp	 DWORD PTR [esi+24], eax
  00012	7c 48		 jl	 SHORT $LN16@Optimize

; 282  : 	{
; 283  : 		m_nMaxIndex = m_nEndIndex + 1;

  00014	40		 inc	 eax

; 284  : 		LPBYTE* apOffset = new LPBYTE [ m_nMaxIndex ]; 

  00015	b9 04 00 00 00	 mov	 ecx, 4
  0001a	89 46 18	 mov	 DWORD PTR [esi+24], eax
  0001d	f7 e1		 mul	 ecx
  0001f	b9 ff ff ff ff	 mov	 ecx, -1
  00024	0f 42 c1	 cmovb	 eax, ecx
  00027	50		 push	 eax
  00028	e8 00 00 00 00	 call	 ??_U@YAPAXI@Z		; operator new[]

; 285  : 		memcpy( apOffset, m_apOffset, sizeof( LPBYTE ) * m_nMaxIndex ); 

  0002d	8b 4e 18	 mov	 ecx, DWORD PTR [esi+24]
  00030	c1 e1 02	 shl	 ecx, 2
  00033	51		 push	 ecx
  00034	ff 76 08	 push	 DWORD PTR [esi+8]
  00037	89 45 fc	 mov	 DWORD PTR _apOffset$1$[ebp], eax
  0003a	50		 push	 eax
  0003b	e8 00 00 00 00	 call	 _memcpy

; 286  : 		SAFE_DELETE_ARRAY( m_apOffset );

  00040	8b 46 08	 mov	 eax, DWORD PTR [esi+8]
  00043	83 c4 10	 add	 esp, 16			; 00000010H
  00046	85 c0		 test	 eax, eax
  00048	74 0c		 je	 SHORT $LN6@Optimize
  0004a	50		 push	 eax
  0004b	e8 00 00 00 00	 call	 ??_V@YAXPAX@Z		; operator delete[]
  00050	83 c4 04	 add	 esp, 4
  00053	8d 5e 20	 lea	 ebx, DWORD PTR [esi+32]
$LN6@Optimize:

; 287  : 		m_apOffset = apOffset;

  00056	8b 45 fc	 mov	 eax, DWORD PTR _apOffset$1$[ebp]
  00059	89 46 08	 mov	 DWORD PTR [esi+8], eax
$LN16@Optimize:

; 288  : 	}
; 289  : 	if( m_nMaxByte > m_nCurOffset )

  0005c	8b 46 0c	 mov	 eax, DWORD PTR [esi+12]
  0005f	39 46 14	 cmp	 DWORD PTR [esi+20], eax
  00062	7e 5b		 jle	 SHORT $LN7@Optimize

; 290  : 	{
; 291  : 		LPBYTE pData = new BYTE[ m_nCurOffset ]; 

  00064	50		 push	 eax
  00065	e8 00 00 00 00	 call	 ??_U@YAPAXI@Z		; operator new[]

; 292  : 		memcpy( pData, m_pData, m_nCurOffset ); 

  0006a	ff 76 0c	 push	 DWORD PTR [esi+12]
  0006d	89 45 fc	 mov	 DWORD PTR _pData$1$[ebp], eax
  00070	ff 76 04	 push	 DWORD PTR [esi+4]
  00073	50		 push	 eax
  00074	e8 00 00 00 00	 call	 _memcpy

; 293  : 		for( int i = 0; i <= m_nEndIndex; i++ )

  00079	33 c9		 xor	 ecx, ecx
  0007b	83 c4 10	 add	 esp, 16			; 00000010H
  0007e	39 4e 20	 cmp	 DWORD PTR [esi+32], ecx
  00081	7c 19		 jl	 SHORT $LN3@Optimize
$LL4@Optimize:

; 294  : 			if( m_apOffset[ i ] )

  00083	8b 46 08	 mov	 eax, DWORD PTR [esi+8]
  00086	8d 14 88	 lea	 edx, DWORD PTR [eax+ecx*4]
  00089	8b 02		 mov	 eax, DWORD PTR [edx]
  0008b	85 c0		 test	 eax, eax
  0008d	74 08		 je	 SHORT $LN2@Optimize

; 295  : 				m_apOffset[ i ] = ( m_apOffset[ i ] - m_pData ) + pData; 

  0008f	2b 46 04	 sub	 eax, DWORD PTR [esi+4]
  00092	03 45 fc	 add	 eax, DWORD PTR _pData$1$[ebp]
  00095	89 02		 mov	 DWORD PTR [edx], eax
$LN2@Optimize:

; 293  : 		for( int i = 0; i <= m_nEndIndex; i++ )

  00097	41		 inc	 ecx
  00098	3b 0b		 cmp	 ecx, DWORD PTR [ebx]
  0009a	7e e7		 jle	 SHORT $LL4@Optimize
$LN3@Optimize:

; 296  : 		SAFE_DELETE_ARRAY( m_pData );

  0009c	8b 46 04	 mov	 eax, DWORD PTR [esi+4]
  0009f	85 c0		 test	 eax, eax
  000a1	74 10		 je	 SHORT $LN9@Optimize
  000a3	50		 push	 eax
  000a4	e8 00 00 00 00	 call	 ??_V@YAXPAX@Z		; operator delete[]
  000a9	83 c4 04	 add	 esp, 4
  000ac	c7 46 04 00 00
	00 00		 mov	 DWORD PTR [esi+4], 0
$LN9@Optimize:

; 297  : 		m_pData = pData;

  000b3	8b 45 fc	 mov	 eax, DWORD PTR _pData$1$[ebp]
  000b6	89 46 04	 mov	 DWORD PTR [esi+4], eax

; 298  : 		m_nMaxByte = m_nCurOffset ;

  000b9	8b 46 0c	 mov	 eax, DWORD PTR [esi+12]
  000bc	89 46 14	 mov	 DWORD PTR [esi+20], eax
$LN7@Optimize:

; 299  : 	}
; 300  : }

  000bf	5f		 pop	 edi
  000c0	5e		 pop	 esi
  000c1	5b		 pop	 ebx
  000c2	8b e5		 mov	 esp, ebp
  000c4	5d		 pop	 ebp
  000c5	c3		 ret	 0
?Optimize@?$CFixedArray@UItemProp@@@@QAEXXZ ENDP	; CFixedArray<ItemProp>::Optimize
_TEXT	ENDS
; Function compile flags: /Ogtp
; File C:\IAGOS\server\v18\Source\Source\_Common\Data.h
;	COMDAT ?SetAtGrow@?$CFixedArray@UItemProp@@@@QAEXHPAUItemProp@@H@Z
_TEXT	SEGMENT
tv437 = -16						; size = 4
tv440 = -16						; size = 4
tv469 = -16						; size = 4
_pData2$1$ = -12					; size = 4
$T1 = -12						; size = 4
$T2 = -8						; size = 4
_apOffset$1$ = -4					; size = 4
$T3 = -4						; size = 4
_nIndex$ = 8						; size = 4
_pData$ = 12						; size = 4
_nSize$ = 16						; size = 4
?SetAtGrow@?$CFixedArray@UItemProp@@@@QAEXHPAUItemProp@@H@Z PROC ; CFixedArray<ItemProp>::SetAtGrow, COMDAT
; _this$ = ecx

; 310  : {

  00000	55		 push	 ebp
  00001	8b ec		 mov	 ebp, esp
  00003	83 ec 10	 sub	 esp, 16			; 00000010H

; 311  : 	if( nIndex >= m_nMaxIndex )

  00006	8b 45 08	 mov	 eax, DWORD PTR _nIndex$[ebp]
  00009	53		 push	 ebx
  0000a	8b d9		 mov	 ebx, ecx
  0000c	56		 push	 esi
  0000d	57		 push	 edi
  0000e	8d 7b 20	 lea	 edi, DWORD PTR [ebx+32]
  00011	8d 73 08	 lea	 esi, DWORD PTR [ebx+8]
  00014	89 7d f4	 mov	 DWORD PTR $T1[ebp], edi
  00017	89 75 f8	 mov	 DWORD PTR $T2[ebp], esi
  0001a	3b 43 18	 cmp	 eax, DWORD PTR [ebx+24]
  0001d	7c 5f		 jl	 SHORT $LN25@SetAtGrow

; 312  : 	{
; 313  : 		LPBYTE* apOffset = new LPBYTE [ nIndex * 2 ]; // µÎąč Č®Ŕĺ 

  0001f	03 c0		 add	 eax, eax
  00021	b9 04 00 00 00	 mov	 ecx, 4
  00026	89 45 f0	 mov	 DWORD PTR tv440[ebp], eax
  00029	f7 e1		 mul	 ecx
  0002b	b9 ff ff ff ff	 mov	 ecx, -1
  00030	0f 42 c1	 cmovb	 eax, ecx
  00033	50		 push	 eax
  00034	e8 00 00 00 00	 call	 ??_U@YAPAXI@Z		; operator new[]

; 314  : 		ZeroMemory( apOffset, sizeof( LPBYTE ) * nIndex * 2 ); // ĂĘ±âČ­ 

  00039	8b 4d 08	 mov	 ecx, DWORD PTR _nIndex$[ebp]
  0003c	c1 e1 03	 shl	 ecx, 3
  0003f	51		 push	 ecx
  00040	6a 00		 push	 0
  00042	50		 push	 eax
  00043	89 45 fc	 mov	 DWORD PTR _apOffset$1$[ebp], eax
  00046	e8 00 00 00 00	 call	 _memset

; 315  : 		memcpy( apOffset, m_apOffset, sizeof( LPBYTE ) * ( m_nEndIndex + 1 ) ); // şą»ç 

  0004b	8b 0f		 mov	 ecx, DWORD PTR [edi]
  0004d	8d 0c 8d 04 00
	00 00		 lea	 ecx, DWORD PTR [ecx*4+4]
  00054	51		 push	 ecx
  00055	ff 36		 push	 DWORD PTR [esi]
  00057	ff 75 fc	 push	 DWORD PTR _apOffset$1$[ebp]
  0005a	e8 00 00 00 00	 call	 _memcpy

; 316  : 		SAFE_DELETE_ARRAY( m_apOffset );

  0005f	8b 06		 mov	 eax, DWORD PTR [esi]
  00061	83 c4 1c	 add	 esp, 28			; 0000001cH
  00064	85 c0		 test	 eax, eax
  00066	74 09		 je	 SHORT $LN6@SetAtGrow
  00068	50		 push	 eax
  00069	e8 00 00 00 00	 call	 ??_V@YAXPAX@Z		; operator delete[]
  0006e	83 c4 04	 add	 esp, 4
$LN6@SetAtGrow:

; 317  : 		m_apOffset = apOffset;

  00071	8b 45 fc	 mov	 eax, DWORD PTR _apOffset$1$[ebp]
  00074	89 06		 mov	 DWORD PTR [esi], eax

; 318  : 		m_nMaxIndex = nIndex * 2;

  00076	8b 45 f0	 mov	 eax, DWORD PTR tv440[ebp]
  00079	89 43 18	 mov	 DWORD PTR [ebx+24], eax
  0007c	eb 06		 jmp	 SHORT $LN21@SetAtGrow
$LN25@SetAtGrow:
  0007e	89 7d f4	 mov	 DWORD PTR $T1[ebp], edi
  00081	89 75 f8	 mov	 DWORD PTR $T2[ebp], esi
$LN21@SetAtGrow:

; 319  : 	}
; 320  : 	int nSizeTemp 
; 321  : 		= nSize ? nSize : sizeof( T );

  00084	8b 45 10	 mov	 eax, DWORD PTR _nSize$[ebp]

; 322  : 	if( m_nCurOffset + nSizeTemp > m_nMaxByte )

  00087	8d 53 0c	 lea	 edx, DWORD PTR [ebx+12]
  0008a	85 c0		 test	 eax, eax
  0008c	89 55 fc	 mov	 DWORD PTR $T3[ebp], edx
  0008f	b9 18 03 00 00	 mov	 ecx, 792		; 00000318H
  00094	0f 45 c8	 cmovne	 ecx, eax
  00097	8b 02		 mov	 eax, DWORD PTR [edx]
  00099	03 c1		 add	 eax, ecx
  0009b	3b 43 14	 cmp	 eax, DWORD PTR [ebx+20]
  0009e	7e 7a		 jle	 SHORT $LN26@SetAtGrow

; 323  : 	{
; 324  : 		m_nMaxByte = m_nCurOffset * 2 + nSizeTemp;

  000a0	8b 02		 mov	 eax, DWORD PTR [edx]
  000a2	8d 04 41	 lea	 eax, DWORD PTR [ecx+eax*2]

; 325  : 		LPBYTE pData2 = new BYTE[ m_nMaxByte ]; // µÎąč Č®Ŕĺ 

  000a5	50		 push	 eax
  000a6	89 43 14	 mov	 DWORD PTR [ebx+20], eax
  000a9	e8 00 00 00 00	 call	 ??_U@YAPAXI@Z		; operator new[]

; 326  : 		memcpy( pData2, m_pData, m_nCurOffset ); // şą»ç 

  000ae	ff 73 0c	 push	 DWORD PTR [ebx+12]
  000b1	89 45 f4	 mov	 DWORD PTR _pData2$1$[ebp], eax
  000b4	ff 73 04	 push	 DWORD PTR [ebx+4]
  000b7	50		 push	 eax
  000b8	e8 00 00 00 00	 call	 _memcpy

; 327  : 		for( int i = 0; i <= m_nEndIndex; i++ )

  000bd	33 c9		 xor	 ecx, ecx
  000bf	8d 43 0c	 lea	 eax, DWORD PTR [ebx+12]
  000c2	83 c4 10	 add	 esp, 16			; 00000010H
  000c5	89 45 fc	 mov	 DWORD PTR $T3[ebp], eax
  000c8	39 0f		 cmp	 DWORD PTR [edi], ecx
  000ca	7c 25		 jl	 SHORT $LN22@SetAtGrow
  000cc	0f 1f 40 00	 npad	 4
$LL4@SetAtGrow:

; 328  : 			if( m_apOffset[ i ] )

  000d0	8b 06		 mov	 eax, DWORD PTR [esi]
  000d2	8d 14 88	 lea	 edx, DWORD PTR [eax+ecx*4]
  000d5	8b 02		 mov	 eax, DWORD PTR [edx]
  000d7	85 c0		 test	 eax, eax
  000d9	74 08		 je	 SHORT $LN2@SetAtGrow

; 329  : 				m_apOffset[ i ] = ( m_apOffset[ i ] - m_pData ) + pData2; 

  000db	2b 43 04	 sub	 eax, DWORD PTR [ebx+4]
  000de	03 45 f4	 add	 eax, DWORD PTR _pData2$1$[ebp]
  000e1	89 02		 mov	 DWORD PTR [edx], eax
$LN2@SetAtGrow:

; 327  : 		for( int i = 0; i <= m_nEndIndex; i++ )

  000e3	41		 inc	 ecx
  000e4	3b 0f		 cmp	 ecx, DWORD PTR [edi]
  000e6	7e e8		 jle	 SHORT $LL4@SetAtGrow

; 318  : 		m_nMaxIndex = nIndex * 2;

  000e8	8d 43 0c	 lea	 eax, DWORD PTR [ebx+12]
  000eb	8d 73 08	 lea	 esi, DWORD PTR [ebx+8]
  000ee	89 45 fc	 mov	 DWORD PTR $T3[ebp], eax
$LN22@SetAtGrow:

; 330  : 		SAFE_DELETE_ARRAY( m_pData );

  000f1	8b 43 04	 mov	 eax, DWORD PTR [ebx+4]
  000f4	89 75 f8	 mov	 DWORD PTR $T2[ebp], esi
  000f7	85 c0		 test	 eax, eax
  000f9	74 10		 je	 SHORT $LN9@SetAtGrow
  000fb	50		 push	 eax
  000fc	e8 00 00 00 00	 call	 ??_V@YAXPAX@Z		; operator delete[]
  00101	83 c4 04	 add	 esp, 4
  00104	c7 43 04 00 00
	00 00		 mov	 DWORD PTR [ebx+4], 0
$LN9@SetAtGrow:

; 331  : 		m_pData = pData2;

  0010b	8b 45 f4	 mov	 eax, DWORD PTR _pData2$1$[ebp]
  0010e	8b 55 fc	 mov	 edx, DWORD PTR $T3[ebp]
  00111	89 43 04	 mov	 DWORD PTR [ebx+4], eax
  00114	8d 43 20	 lea	 eax, DWORD PTR [ebx+32]
  00117	89 45 f4	 mov	 DWORD PTR $T1[ebp], eax
$LN26@SetAtGrow:

; 332  : 	}
; 333  : 	// »çŔĚÁî ŔÚĂĽżˇ şŻµżŔĚ ľř´Â °ćżěŔÓ( T »çŔĚÁî°ˇ ŔŻÁöµÇ´Â °ćżě )
; 334  : 	if( nSize == 0 )

  0011a	8b 45 08	 mov	 eax, DWORD PTR _nIndex$[ebp]
  0011d	8b 4d 10	 mov	 ecx, DWORD PTR _nSize$[ebp]
  00120	8d 3c 85 00 00
	00 00		 lea	 edi, DWORD PTR [eax*4]
  00127	8b 06		 mov	 eax, DWORD PTR [esi]
  00129	89 7d f0	 mov	 DWORD PTR tv469[ebp], edi
  0012c	8b 04 07	 mov	 eax, DWORD PTR [edi+eax]
  0012f	85 c9		 test	 ecx, ecx
  00131	75 31		 jne	 SHORT $LN10@SetAtGrow

; 335  : 	{
; 336  : 		if( m_apOffset[ nIndex ] == NULL )

  00133	8b 75 0c	 mov	 esi, DWORD PTR _pData$[ebp]
  00136	b9 c6 00 00 00	 mov	 ecx, 198		; 000000c6H
  0013b	85 c0		 test	 eax, eax
  0013d	75 1f		 jne	 SHORT $LN12@SetAtGrow

; 337  : 		{
; 338  : 			memcpy( &m_pData[ m_nCurOffset ], pData, sizeof( T ) );

  0013f	8b 7b 04	 mov	 edi, DWORD PTR [ebx+4]
  00142	03 3a		 add	 edi, DWORD PTR [edx]

; 339  : 			m_apOffset[ nIndex ] = (LPBYTE) m_pData + m_nCurOffset;

  00144	8b 45 f8	 mov	 eax, DWORD PTR $T2[ebp]
  00147	f3 a5		 rep movsd
  00149	8b 4b 04	 mov	 ecx, DWORD PTR [ebx+4]
  0014c	8b 00		 mov	 eax, DWORD PTR [eax]
  0014e	8b 75 f0	 mov	 esi, DWORD PTR tv469[ebp]
  00151	03 0a		 add	 ecx, DWORD PTR [edx]
  00153	89 0c 06	 mov	 DWORD PTR [esi+eax], ecx

; 340  : 			m_nCurOffset += sizeof( T );

  00156	81 02 18 03 00
	00		 add	 DWORD PTR [edx], 792	; 00000318H

; 341  : 		}

  0015c	eb 47		 jmp	 SHORT $LN15@SetAtGrow
$LN12@SetAtGrow:

; 342  : 		else
; 343  : 		{
; 344  : 			memcpy( m_apOffset[ nIndex ], pData, sizeof( T ) );

  0015e	8b f8		 mov	 edi, eax
  00160	f3 a5		 rep movsd

; 345  : 		}
; 346  : 	}

  00162	eb 41		 jmp	 SHORT $LN15@SetAtGrow
$LN10@SetAtGrow:

; 347  : 	// °˘ ±¸Á¶ĂĽŔÇ »çŔĚÁî°ˇ şŻ°ćµĘ. ex) ˝şĆ®¸µŔÇ ±ćŔĚżˇ µű¶óĽ­.
; 348  : 	else
; 349  : 	{
; 350  : 		if( m_apOffset[ nIndex ] == NULL )

  00164	85 c0		 test	 eax, eax
  00166	75 26		 jne	 SHORT $LN14@SetAtGrow

; 351  : 		{
; 352  : 			memcpy( &m_pData[ m_nCurOffset ], pData, nSize );

  00168	8b 02		 mov	 eax, DWORD PTR [edx]
  0016a	03 43 04	 add	 eax, DWORD PTR [ebx+4]
  0016d	51		 push	 ecx
  0016e	ff 75 0c	 push	 DWORD PTR _pData$[ebp]
  00171	50		 push	 eax
  00172	e8 00 00 00 00	 call	 _memcpy

; 353  : 			m_apOffset[ nIndex ] = (LPBYTE) m_pData + m_nCurOffset;

  00177	8b 55 fc	 mov	 edx, DWORD PTR $T3[ebp]
  0017a	83 c4 0c	 add	 esp, 12			; 0000000cH
  0017d	8b 06		 mov	 eax, DWORD PTR [esi]
  0017f	8b 0a		 mov	 ecx, DWORD PTR [edx]
  00181	03 4b 04	 add	 ecx, DWORD PTR [ebx+4]
  00184	89 0c 07	 mov	 DWORD PTR [edi+eax], ecx

; 354  : 			m_nCurOffset += nSize;

  00187	8b 45 10	 mov	 eax, DWORD PTR _nSize$[ebp]
  0018a	01 02		 add	 DWORD PTR [edx], eax

; 355  : 		}

  0018c	eb 17		 jmp	 SHORT $LN15@SetAtGrow
$LN14@SetAtGrow:

; 356  : 		else
; 357  : 		{
; 358  : 			// »çŔĚÁî°ˇ şŻ°ćµÇ´Â ±¸Á¶żˇĽ­´Â ŔÎµ¦˝ş ł»żëŔ» ąŮ˛Ů¸é ľČµĘ.
; 359  : 			WriteLog( "%s, %d", __FILE__, __LINE__ );

  0018e	68 67 01 00 00	 push	 359			; 00000167H
  00193	68 00 00 00 00	 push	 OFFSET ??_C@_0DB@EEKBNLID@C?3?2IAGOS?2server?2v18?2Source?2Sour@
  00198	68 00 00 00 00	 push	 OFFSET ??_C@_06OJLEAOEG@?$CFs?0?5?$CFd@
  0019d	e8 00 00 00 00	 call	 ?WriteLog@@YAXPBDZZ	; WriteLog
  001a2	83 c4 0c	 add	 esp, 12			; 0000000cH
$LN15@SetAtGrow:

; 360  : 		}
; 361  : 	}
; 362  : 	if( nIndex > m_nEndIndex )

  001a5	8b 45 f4	 mov	 eax, DWORD PTR $T1[ebp]
  001a8	8b 4d 08	 mov	 ecx, DWORD PTR _nIndex$[ebp]
  001ab	5f		 pop	 edi
  001ac	5e		 pop	 esi
  001ad	5b		 pop	 ebx
  001ae	3b 08		 cmp	 ecx, DWORD PTR [eax]
  001b0	7e 02		 jle	 SHORT $LN16@SetAtGrow

; 363  : 		m_nEndIndex = nIndex;

  001b2	89 08		 mov	 DWORD PTR [eax], ecx
$LN16@SetAtGrow:

; 364  : }

  001b4	8b e5		 mov	 esp, ebp
  001b6	5d		 pop	 ebp
  001b7	c2 0c 00	 ret	 12			; 0000000cH
?SetAtGrow@?$CFixedArray@UItemProp@@@@QAEXHPAUItemProp@@H@Z ENDP ; CFixedArray<ItemProp>::SetAtGrow
_TEXT	ENDS
; Function compile flags: /Ogtp
; File C:\Program Files\Microsoft Visual Studio\2022\Professional\VC\Tools\MSVC\14.44.35207\include\xtree
;	COMDAT ?_Insert_node@?$_Tree_val@U?$_Tree_simple_types@U?$pair@$$CBV?$basic_string@DU?$char_traits@D@std@@V?$allocator@D@2@@std@@K@std@@@std@@@std@@QAEPAU?$_Tree_node@U?$pair@$$CBV?$basic_string@DU?$char_traits@D@std@@V?$allocator@D@2@@std@@K@std@@PAX@2@U?$_Tree_id@PAU?$_Tree_node@U?$pair@$$CBV?$basic_string@DU?$char_traits@D@std@@V?$allocator@D@2@@std@@K@std@@PAX@std@@@2@QAU32@@Z
_TEXT	SEGMENT
__Head$1$ = -4						; size = 4
__Loc$ = 8						; size = 8
__Newnode$ = 16						; size = 4
?_Insert_node@?$_Tree_val@U?$_Tree_simple_types@U?$pair@$$CBV?$basic_string@DU?$char_traits@D@std@@V?$allocator@D@2@@std@@K@std@@@std@@@std@@QAEPAU?$_Tree_node@U?$pair@$$CBV?$basic_string@DU?$char_traits@D@std@@V?$allocator@D@2@@std@@K@std@@PAX@2@U?$_Tree_id@PAU?$_Tree_node@U?$pair@$$CBV?$basic_string@DU?$char_traits@D@std@@V?$allocator@D@2@@std@@K@std@@PAX@std@@@2@QAU32@@Z PROC ; std::_Tree_val<std::_Tree_simple_types<std::pair<std::basic_string<char,std::char_traits<char>,std::allocator<char> > const ,unsigned long> > >::_Insert_node, COMDAT
; _this$ = ecx

; 669  :     _Nodeptr _Insert_node(const _Tree_id<_Nodeptr> _Loc, const _Nodeptr _Newnode) noexcept {

  00000	55		 push	 ebp
  00001	8b ec		 mov	 ebp, esp
  00003	51		 push	 ecx

; 670  :         ++_Mysize;
; 671  :         const auto _Head  = _Myhead;
; 672  :         _Newnode->_Parent = _Loc._Parent;

  00004	8b 55 08	 mov	 edx, DWORD PTR __Loc$[ebp]
  00007	53		 push	 ebx
  00008	8b d9		 mov	 ebx, ecx
  0000a	57		 push	 edi
  0000b	8b 7d 10	 mov	 edi, DWORD PTR __Newnode$[ebp]
  0000e	8b 03		 mov	 eax, DWORD PTR [ebx]
  00010	ff 43 04	 inc	 DWORD PTR [ebx+4]
  00013	89 45 fc	 mov	 DWORD PTR __Head$1$[ebp], eax
  00016	89 57 04	 mov	 DWORD PTR [edi+4], edx

; 673  :         if (_Loc._Parent == _Head) { // first node in tree, just set head values

  00019	3b d0		 cmp	 edx, eax
  0001b	75 16		 jne	 SHORT $LN5@Insert_nod

; 674  :             _Head->_Left     = _Newnode;

  0001d	89 38		 mov	 DWORD PTR [eax], edi

; 675  :             _Head->_Parent   = _Newnode;

  0001f	89 78 04	 mov	 DWORD PTR [eax+4], edi

; 676  :             _Head->_Right    = _Newnode;

  00022	89 78 08	 mov	 DWORD PTR [eax+8], edi

; 735  :         return _Newnode;
; 736  :     }

  00025	8b c7		 mov	 eax, edi
  00027	c6 47 0c 01	 mov	 BYTE PTR [edi+12], 1
  0002b	5f		 pop	 edi
  0002c	5b		 pop	 ebx
  0002d	8b e5		 mov	 esp, ebp
  0002f	5d		 pop	 ebp
  00030	c2 0c 00	 ret	 12			; 0000000cH
$LN5@Insert_nod:

; 677  :             _Newnode->_Color = _Black; // the root is black
; 678  :             return _Newnode;
; 679  :         }
; 680  : 
; 681  :         _STL_INTERNAL_CHECK(_Loc._Child != _Tree_child::_Unused);
; 682  :         if (_Loc._Child == _Tree_child::_Right) { // add to right of _Loc._Parent

  00033	83 7d 0c 00	 cmp	 DWORD PTR __Loc$[ebp+4], 0
  00037	75 0d		 jne	 SHORT $LN6@Insert_nod

; 683  :             _STL_INTERNAL_CHECK(_Loc._Parent->_Right->_Isnil);
; 684  :             _Loc._Parent->_Right = _Newnode;

  00039	89 7a 08	 mov	 DWORD PTR [edx+8], edi

; 685  :             if (_Loc._Parent == _Head->_Right) { // remember rightmost node

  0003c	3b 50 08	 cmp	 edx, DWORD PTR [eax+8]
  0003f	75 0d		 jne	 SHORT $LN9@Insert_nod

; 686  :                 _Head->_Right = _Newnode;

  00041	89 78 08	 mov	 DWORD PTR [eax+8], edi

; 687  :             }
; 688  :         } else { // add to left of _Loc._Parent

  00044	eb 08		 jmp	 SHORT $LN9@Insert_nod
$LN6@Insert_nod:

; 689  :             _STL_INTERNAL_CHECK(_Loc._Parent->_Left->_Isnil);
; 690  :             _Loc._Parent->_Left = _Newnode;

  00046	89 3a		 mov	 DWORD PTR [edx], edi

; 691  :             if (_Loc._Parent == _Head->_Left) { // remember leftmost node

  00048	3b 10		 cmp	 edx, DWORD PTR [eax]
  0004a	75 02		 jne	 SHORT $LN9@Insert_nod

; 692  :                 _Head->_Left = _Newnode;

  0004c	89 38		 mov	 DWORD PTR [eax], edi
$LN9@Insert_nod:

; 693  :             }
; 694  :         }
; 695  : 
; 696  :         for (_Nodeptr _Pnode = _Newnode; _Pnode->_Parent->_Color == _Red;) {

  0004e	8b 4f 04	 mov	 ecx, DWORD PTR [edi+4]
  00051	8b c7		 mov	 eax, edi
  00053	80 79 0c 00	 cmp	 BYTE PTR [ecx+12], 0
  00057	0f 85 7d 01 00
	00		 jne	 $LN3@Insert_nod
  0005d	56		 push	 esi
  0005e	66 90		 npad	 2
$LL4@Insert_nod:

; 697  :             if (_Pnode->_Parent == _Pnode->_Parent->_Parent->_Left) { // fixup red-red in left subtree

  00060	8b 50 04	 mov	 edx, DWORD PTR [eax+4]
  00063	8b 72 04	 mov	 esi, DWORD PTR [edx+4]
  00066	8b 0e		 mov	 ecx, DWORD PTR [esi]
  00068	3b d1		 cmp	 edx, ecx
  0006a	0f 85 aa 00 00
	00		 jne	 $LN10@Insert_nod

; 698  :                 const auto _Parent_sibling = _Pnode->_Parent->_Parent->_Right;

  00070	8b 4e 08	 mov	 ecx, DWORD PTR [esi+8]

; 699  :                 if (_Parent_sibling->_Color == _Red) { // parent's sibling has two red children, blacken both

  00073	80 79 0c 00	 cmp	 BYTE PTR [ecx+12], 0
  00077	0f 84 a3 00 00
	00		 je	 $LN82@Insert_nod

; 700  :                     _Pnode->_Parent->_Color          = _Black;
; 701  :                     _Parent_sibling->_Color          = _Black;
; 702  :                     _Pnode->_Parent->_Parent->_Color = _Red;
; 703  :                     _Pnode                           = _Pnode->_Parent->_Parent;
; 704  :                 } else { // parent's sibling has red and black children
; 705  :                     if (_Pnode == _Pnode->_Parent->_Right) { // rotate right child to left

  0007d	8b 72 08	 mov	 esi, DWORD PTR [edx+8]
  00080	3b c6		 cmp	 eax, esi
  00082	75 37		 jne	 SHORT $LN57@Insert_nod

; 485  :         _Wherenode->_Right = _Pnode->_Left;

  00084	8b 0e		 mov	 ecx, DWORD PTR [esi]

; 706  :                         _Pnode = _Pnode->_Parent;

  00086	8b c2		 mov	 eax, edx

; 485  :         _Wherenode->_Right = _Pnode->_Left;

  00088	89 4a 08	 mov	 DWORD PTR [edx+8], ecx

; 486  : 
; 487  :         if (!_Pnode->_Left->_Isnil) {

  0008b	8b 0e		 mov	 ecx, DWORD PTR [esi]
  0008d	80 79 0d 00	 cmp	 BYTE PTR [ecx+13], 0
  00091	75 03		 jne	 SHORT $LN21@Insert_nod

; 488  :             _Pnode->_Left->_Parent = _Wherenode;

  00093	89 41 04	 mov	 DWORD PTR [ecx+4], eax
$LN21@Insert_nod:

; 489  :         }
; 490  : 
; 491  :         _Pnode->_Parent = _Wherenode->_Parent;

  00096	8b 4a 04	 mov	 ecx, DWORD PTR [edx+4]
  00099	89 4e 04	 mov	 DWORD PTR [esi+4], ecx

; 492  : 
; 493  :         if (_Wherenode == _Myhead->_Parent) {

  0009c	8b 0b		 mov	 ecx, DWORD PTR [ebx]
  0009e	3b 41 04	 cmp	 eax, DWORD PTR [ecx+4]
  000a1	75 05		 jne	 SHORT $LN22@Insert_nod

; 494  :             _Myhead->_Parent = _Pnode;

  000a3	89 71 04	 mov	 DWORD PTR [ecx+4], esi
  000a6	eb 0e		 jmp	 SHORT $LN25@Insert_nod
$LN22@Insert_nod:

; 495  :         } else if (_Wherenode == _Wherenode->_Parent->_Left) {

  000a8	8b 4a 04	 mov	 ecx, DWORD PTR [edx+4]
  000ab	3b 01		 cmp	 eax, DWORD PTR [ecx]
  000ad	75 04		 jne	 SHORT $LN24@Insert_nod

; 496  :             _Wherenode->_Parent->_Left = _Pnode;

  000af	89 31		 mov	 DWORD PTR [ecx], esi

; 497  :         } else {

  000b1	eb 03		 jmp	 SHORT $LN25@Insert_nod
$LN24@Insert_nod:

; 498  :             _Wherenode->_Parent->_Right = _Pnode;

  000b3	89 71 08	 mov	 DWORD PTR [ecx+8], esi
$LN25@Insert_nod:

; 499  :         }
; 500  : 
; 501  :         _Pnode->_Left       = _Wherenode;

  000b6	89 06		 mov	 DWORD PTR [esi], eax

; 502  :         _Wherenode->_Parent = _Pnode;

  000b8	89 70 04	 mov	 DWORD PTR [eax+4], esi
$LN57@Insert_nod:

; 707  :                         _Lrotate(_Pnode);
; 708  :                     }
; 709  : 
; 710  :                     _Pnode->_Parent->_Color          = _Black; // propagate red up

  000bb	8b 48 04	 mov	 ecx, DWORD PTR [eax+4]
  000be	c6 41 0c 01	 mov	 BYTE PTR [ecx+12], 1

; 711  :                     _Pnode->_Parent->_Parent->_Color = _Red;

  000c2	8b 48 04	 mov	 ecx, DWORD PTR [eax+4]
  000c5	8b 49 04	 mov	 ecx, DWORD PTR [ecx+4]
  000c8	c6 41 0c 00	 mov	 BYTE PTR [ecx+12], 0

; 712  :                     _Rrotate(_Pnode->_Parent->_Parent);

  000cc	8b 48 04	 mov	 ecx, DWORD PTR [eax+4]
  000cf	8b 51 04	 mov	 edx, DWORD PTR [ecx+4]

; 506  :         _Nodeptr _Pnode   = _Wherenode->_Left;

  000d2	8b 32		 mov	 esi, DWORD PTR [edx]

; 507  :         _Wherenode->_Left = _Pnode->_Right;

  000d4	8b 4e 08	 mov	 ecx, DWORD PTR [esi+8]
  000d7	89 0a		 mov	 DWORD PTR [edx], ecx

; 508  : 
; 509  :         if (!_Pnode->_Right->_Isnil) {

  000d9	8b 4e 08	 mov	 ecx, DWORD PTR [esi+8]
  000dc	80 79 0d 00	 cmp	 BYTE PTR [ecx+13], 0
  000e0	75 03		 jne	 SHORT $LN29@Insert_nod

; 510  :             _Pnode->_Right->_Parent = _Wherenode;

  000e2	89 51 04	 mov	 DWORD PTR [ecx+4], edx
$LN29@Insert_nod:

; 511  :         }
; 512  : 
; 513  :         _Pnode->_Parent = _Wherenode->_Parent;

  000e5	8b 4a 04	 mov	 ecx, DWORD PTR [edx+4]
  000e8	89 4e 04	 mov	 DWORD PTR [esi+4], ecx

; 514  : 
; 515  :         if (_Wherenode == _Myhead->_Parent) {

  000eb	8b 0b		 mov	 ecx, DWORD PTR [ebx]
  000ed	3b 51 04	 cmp	 edx, DWORD PTR [ecx+4]
  000f0	75 0b		 jne	 SHORT $LN30@Insert_nod

; 516  :             _Myhead->_Parent = _Pnode;

  000f2	89 71 04	 mov	 DWORD PTR [ecx+4], esi

; 521  :         }
; 522  : 
; 523  :         _Pnode->_Right      = _Wherenode;

  000f5	89 56 08	 mov	 DWORD PTR [esi+8], edx

; 713  :                 }
; 714  :             } else { // fixup red-red in right subtree

  000f8	e9 cc 00 00 00	 jmp	 $LN81@Insert_nod
$LN30@Insert_nod:

; 517  :         } else if (_Wherenode == _Wherenode->_Parent->_Right) {

  000fd	8b 4a 04	 mov	 ecx, DWORD PTR [edx+4]
  00100	3b 51 08	 cmp	 edx, DWORD PTR [ecx+8]
  00103	75 0b		 jne	 SHORT $LN32@Insert_nod

; 518  :             _Wherenode->_Parent->_Right = _Pnode;

  00105	89 71 08	 mov	 DWORD PTR [ecx+8], esi

; 521  :         }
; 522  : 
; 523  :         _Pnode->_Right      = _Wherenode;

  00108	89 56 08	 mov	 DWORD PTR [esi+8], edx

; 713  :                 }
; 714  :             } else { // fixup red-red in right subtree

  0010b	e9 b9 00 00 00	 jmp	 $LN81@Insert_nod
$LN32@Insert_nod:

; 520  :             _Wherenode->_Parent->_Left = _Pnode;

  00110	89 31		 mov	 DWORD PTR [ecx], esi

; 521  :         }
; 522  : 
; 523  :         _Pnode->_Right      = _Wherenode;

  00112	89 56 08	 mov	 DWORD PTR [esi+8], edx

; 713  :                 }
; 714  :             } else { // fixup red-red in right subtree

  00115	e9 af 00 00 00	 jmp	 $LN81@Insert_nod
$LN10@Insert_nod:

; 715  :                 const auto _Parent_sibling = _Pnode->_Parent->_Parent->_Left;
; 716  :                 if (_Parent_sibling->_Color == _Red) { // parent's sibling has two red children, blacken both

  0011a	80 79 0c 00	 cmp	 BYTE PTR [ecx+12], 0
  0011e	75 1d		 jne	 SHORT $LN15@Insert_nod
$LN82@Insert_nod:

; 693  :             }
; 694  :         }
; 695  : 
; 696  :         for (_Nodeptr _Pnode = _Newnode; _Pnode->_Parent->_Color == _Red;) {

  00120	c6 42 0c 01	 mov	 BYTE PTR [edx+12], 1
  00124	c6 41 0c 01	 mov	 BYTE PTR [ecx+12], 1
  00128	8b 48 04	 mov	 ecx, DWORD PTR [eax+4]
  0012b	8b 49 04	 mov	 ecx, DWORD PTR [ecx+4]
  0012e	c6 41 0c 00	 mov	 BYTE PTR [ecx+12], 0
  00132	8b 48 04	 mov	 ecx, DWORD PTR [eax+4]
  00135	8b 41 04	 mov	 eax, DWORD PTR [ecx+4]
  00138	e9 8f 00 00 00	 jmp	 $LN2@Insert_nod
$LN15@Insert_nod:

; 717  :                     _Pnode->_Parent->_Color          = _Black;
; 718  :                     _Parent_sibling->_Color          = _Black;
; 719  :                     _Pnode->_Parent->_Parent->_Color = _Red;
; 720  :                     _Pnode                           = _Pnode->_Parent->_Parent;
; 721  :                 } else { // parent's sibling has red and black children
; 722  :                     if (_Pnode == _Pnode->_Parent->_Left) { // rotate left child to right

  0013d	8b 32		 mov	 esi, DWORD PTR [edx]
  0013f	3b c6		 cmp	 eax, esi
  00141	75 3a		 jne	 SHORT $LN42@Insert_nod

; 507  :         _Wherenode->_Left = _Pnode->_Right;

  00143	8b 4e 08	 mov	 ecx, DWORD PTR [esi+8]

; 723  :                         _Pnode = _Pnode->_Parent;

  00146	8b c2		 mov	 eax, edx

; 507  :         _Wherenode->_Left = _Pnode->_Right;

  00148	89 08		 mov	 DWORD PTR [eax], ecx

; 508  : 
; 509  :         if (!_Pnode->_Right->_Isnil) {

  0014a	8b 4e 08	 mov	 ecx, DWORD PTR [esi+8]
  0014d	80 79 0d 00	 cmp	 BYTE PTR [ecx+13], 0
  00151	75 03		 jne	 SHORT $LN37@Insert_nod

; 510  :             _Pnode->_Right->_Parent = _Wherenode;

  00153	89 41 04	 mov	 DWORD PTR [ecx+4], eax
$LN37@Insert_nod:

; 511  :         }
; 512  : 
; 513  :         _Pnode->_Parent = _Wherenode->_Parent;

  00156	8b 4a 04	 mov	 ecx, DWORD PTR [edx+4]
  00159	89 4e 04	 mov	 DWORD PTR [esi+4], ecx

; 514  : 
; 515  :         if (_Wherenode == _Myhead->_Parent) {

  0015c	8b 0b		 mov	 ecx, DWORD PTR [ebx]
  0015e	3b 41 04	 cmp	 eax, DWORD PTR [ecx+4]
  00161	75 05		 jne	 SHORT $LN38@Insert_nod

; 516  :             _Myhead->_Parent = _Pnode;

  00163	89 71 04	 mov	 DWORD PTR [ecx+4], esi
  00166	eb 0f		 jmp	 SHORT $LN41@Insert_nod
$LN38@Insert_nod:

; 517  :         } else if (_Wherenode == _Wherenode->_Parent->_Right) {

  00168	8b 4a 04	 mov	 ecx, DWORD PTR [edx+4]
  0016b	3b 41 08	 cmp	 eax, DWORD PTR [ecx+8]
  0016e	75 05		 jne	 SHORT $LN40@Insert_nod

; 518  :             _Wherenode->_Parent->_Right = _Pnode;

  00170	89 71 08	 mov	 DWORD PTR [ecx+8], esi

; 519  :         } else {

  00173	eb 02		 jmp	 SHORT $LN41@Insert_nod
$LN40@Insert_nod:

; 520  :             _Wherenode->_Parent->_Left = _Pnode;

  00175	89 31		 mov	 DWORD PTR [ecx], esi
$LN41@Insert_nod:

; 521  :         }
; 522  : 
; 523  :         _Pnode->_Right      = _Wherenode;

  00177	89 46 08	 mov	 DWORD PTR [esi+8], eax

; 524  :         _Wherenode->_Parent = _Pnode;

  0017a	89 70 04	 mov	 DWORD PTR [eax+4], esi
$LN42@Insert_nod:

; 724  :                         _Rrotate(_Pnode);
; 725  :                     }
; 726  : 
; 727  :                     _Pnode->_Parent->_Color          = _Black; // propagate red up

  0017d	8b 48 04	 mov	 ecx, DWORD PTR [eax+4]
  00180	c6 41 0c 01	 mov	 BYTE PTR [ecx+12], 1

; 728  :                     _Pnode->_Parent->_Parent->_Color = _Red;

  00184	8b 48 04	 mov	 ecx, DWORD PTR [eax+4]
  00187	8b 49 04	 mov	 ecx, DWORD PTR [ecx+4]
  0018a	c6 41 0c 00	 mov	 BYTE PTR [ecx+12], 0

; 729  :                     _Lrotate(_Pnode->_Parent->_Parent);

  0018e	8b 48 04	 mov	 ecx, DWORD PTR [eax+4]
  00191	8b 51 04	 mov	 edx, DWORD PTR [ecx+4]

; 484  :         _Nodeptr _Pnode    = _Wherenode->_Right;

  00194	8b 72 08	 mov	 esi, DWORD PTR [edx+8]

; 485  :         _Wherenode->_Right = _Pnode->_Left;

  00197	8b 0e		 mov	 ecx, DWORD PTR [esi]
  00199	89 4a 08	 mov	 DWORD PTR [edx+8], ecx

; 486  : 
; 487  :         if (!_Pnode->_Left->_Isnil) {

  0019c	8b 0e		 mov	 ecx, DWORD PTR [esi]
  0019e	80 79 0d 00	 cmp	 BYTE PTR [ecx+13], 0
  001a2	75 03		 jne	 SHORT $LN45@Insert_nod

; 488  :             _Pnode->_Left->_Parent = _Wherenode;

  001a4	89 51 04	 mov	 DWORD PTR [ecx+4], edx
$LN45@Insert_nod:

; 489  :         }
; 490  : 
; 491  :         _Pnode->_Parent = _Wherenode->_Parent;

  001a7	8b 4a 04	 mov	 ecx, DWORD PTR [edx+4]
  001aa	89 4e 04	 mov	 DWORD PTR [esi+4], ecx

; 492  : 
; 493  :         if (_Wherenode == _Myhead->_Parent) {

  001ad	8b 0b		 mov	 ecx, DWORD PTR [ebx]
  001af	3b 51 04	 cmp	 edx, DWORD PTR [ecx+4]
  001b2	75 05		 jne	 SHORT $LN46@Insert_nod

; 494  :             _Myhead->_Parent = _Pnode;

  001b4	89 71 04	 mov	 DWORD PTR [ecx+4], esi
  001b7	eb 0e		 jmp	 SHORT $LN49@Insert_nod
$LN46@Insert_nod:

; 495  :         } else if (_Wherenode == _Wherenode->_Parent->_Left) {

  001b9	8b 4a 04	 mov	 ecx, DWORD PTR [edx+4]
  001bc	3b 11		 cmp	 edx, DWORD PTR [ecx]
  001be	75 04		 jne	 SHORT $LN48@Insert_nod

; 496  :             _Wherenode->_Parent->_Left = _Pnode;

  001c0	89 31		 mov	 DWORD PTR [ecx], esi

; 497  :         } else {

  001c2	eb 03		 jmp	 SHORT $LN49@Insert_nod
$LN48@Insert_nod:

; 498  :             _Wherenode->_Parent->_Right = _Pnode;

  001c4	89 71 08	 mov	 DWORD PTR [ecx+8], esi
$LN49@Insert_nod:

; 499  :         }
; 500  : 
; 501  :         _Pnode->_Left       = _Wherenode;

  001c7	89 16		 mov	 DWORD PTR [esi], edx
$LN81@Insert_nod:

; 693  :             }
; 694  :         }
; 695  : 
; 696  :         for (_Nodeptr _Pnode = _Newnode; _Pnode->_Parent->_Color == _Red;) {

  001c9	89 72 04	 mov	 DWORD PTR [edx+4], esi
$LN2@Insert_nod:
  001cc	8b 48 04	 mov	 ecx, DWORD PTR [eax+4]
  001cf	80 79 0c 00	 cmp	 BYTE PTR [ecx+12], 0
  001d3	0f 84 87 fe ff
	ff		 je	 $LL4@Insert_nod
  001d9	5e		 pop	 esi
$LN3@Insert_nod:

; 730  :                 }
; 731  :             }
; 732  :         }
; 733  : 
; 734  :         _Head->_Parent->_Color = _Black; // root is always black

  001da	8b 45 fc	 mov	 eax, DWORD PTR __Head$1$[ebp]
  001dd	8b 40 04	 mov	 eax, DWORD PTR [eax+4]
  001e0	c6 40 0c 01	 mov	 BYTE PTR [eax+12], 1

; 735  :         return _Newnode;
; 736  :     }

  001e4	8b c7		 mov	 eax, edi
  001e6	5f		 pop	 edi
  001e7	5b		 pop	 ebx
  001e8	8b e5		 mov	 esp, ebp
  001ea	5d		 pop	 ebp
  001eb	c2 0c 00	 ret	 12			; 0000000cH
?_Insert_node@?$_Tree_val@U?$_Tree_simple_types@U?$pair@$$CBV?$basic_string@DU?$char_traits@D@std@@V?$allocator@D@2@@std@@K@std@@@std@@@std@@QAEPAU?$_Tree_node@U?$pair@$$CBV?$basic_string@DU?$char_traits@D@std@@V?$allocator@D@2@@std@@K@std@@PAX@2@U?$_Tree_id@PAU?$_Tree_node@U?$pair@$$CBV?$basic_string@DU?$char_traits@D@std@@V?$allocator@D@2@@std@@K@std@@PAX@std@@@2@QAU32@@Z ENDP ; std::_Tree_val<std::_Tree_simple_types<std::pair<std::basic_string<char,std::char_traits<char>,std::allocator<char> > const ,unsigned long> > >::_Insert_node
_TEXT	ENDS
; Function compile flags: /Ogtp
; File C:\Program Files\Microsoft Visual Studio\2022\Professional\VC\Tools\MSVC\14.44.35207\include\xtree
;	COMDAT ?_Throw_tree_length_error@std@@YAXXZ
_TEXT	SEGMENT
?_Throw_tree_length_error@std@@YAXXZ PROC		; std::_Throw_tree_length_error, COMDAT

; 417  :     _Xlength_error("map/set too long");

  00000	68 00 00 00 00	 push	 OFFSET ??_C@_0BB@GCADKGJO@map?1set?5too?5long@
  00005	e8 00 00 00 00	 call	 ?_Xlength_error@std@@YAXPBD@Z ; std::_Xlength_error
$LN3@Throw_tree:
  0000a	cc		 int	 3
?_Throw_tree_length_error@std@@YAXXZ ENDP		; std::_Throw_tree_length_error
_TEXT	ENDS
; Function compile flags: /Ogtp
; File C:\Program Files\Microsoft Visual Studio\2022\Professional\VC\Tools\MSVC\14.44.35207\include\xstring
; File C:\Program Files\Microsoft Visual Studio\2022\Professional\VC\Tools\MSVC\14.44.35207\include\xmemory
; File C:\Program Files\Microsoft Visual Studio\2022\Professional\VC\Tools\MSVC\14.44.35207\include\xstring
; File C:\Program Files\Microsoft Visual Studio\2022\Professional\VC\Tools\MSVC\14.44.35207\include\xmemory
; File C:\Program Files\Microsoft Visual Studio\2022\Professional\VC\Tools\MSVC\14.44.35207\include\xstring
; File C:\Program Files\Microsoft Visual Studio\2022\Professional\VC\Tools\MSVC\14.44.35207\include\xmemory
; File C:\Program Files\Microsoft Visual Studio\2022\Professional\VC\Tools\MSVC\14.44.35207\include\xstring
;	COMDAT ??1?$basic_string@DU?$char_traits@D@std@@V?$allocator@D@2@@std@@QAE@XZ
_TEXT	SEGMENT
??1?$basic_string@DU?$char_traits@D@std@@V?$allocator@D@2@@std@@QAE@XZ PROC ; std::basic_string<char,std::char_traits<char>,std::allocator<char> >::~basic_string<char,std::char_traits<char>,std::allocator<char> >, COMDAT
; _this$ = ecx

; 1382 :     _CONSTEXPR20 ~basic_string() noexcept {

  00000	56		 push	 esi
  00001	8b f1		 mov	 esi, ecx

; 453  :         return _Myres > _Small_string_capacity;

  00003	8b 4e 14	 mov	 ecx, DWORD PTR [esi+20]
  00006	83 f9 0f	 cmp	 ecx, 15			; 0000000fH

; 3083 :         if (_My_data._Large_mode_engaged()) {

  00009	76 27		 jbe	 SHORT $LN19@basic_stri
; File C:\Program Files\Microsoft Visual Studio\2022\Professional\VC\Tools\MSVC\14.44.35207\include\xmemory

; 985  :         _STD _Deallocate<_New_alignof<_Ty>>(_Ptr, sizeof(_Ty) * _Count);

  0000b	8b 06		 mov	 eax, DWORD PTR [esi]
; File C:\Program Files\Microsoft Visual Studio\2022\Professional\VC\Tools\MSVC\14.44.35207\include\xstring

; 852  :         _Al.deallocate(_Old_ptr, _Capacity + 1); // +1 for null terminator

  0000d	41		 inc	 ecx
; File C:\Program Files\Microsoft Visual Studio\2022\Professional\VC\Tools\MSVC\14.44.35207\include\xmemory

; 284  :         if (_Bytes >= _Big_allocation_threshold) {

  0000e	81 f9 00 10 00
	00		 cmp	 ecx, 4096		; 00001000H
  00014	72 12		 jb	 SHORT $LN24@basic_stri

; 205  :     const uintptr_t _Ptr_container   = _Ptr_user[-1];

  00016	8b 50 fc	 mov	 edx, DWORD PTR [eax-4]
  00019	83 c1 23	 add	 ecx, 35			; 00000023H

; 206  : 
; 207  :     // If the following asserts, it likely means that we are performing
; 208  :     // an aligned delete on memory coming from an unaligned allocation.
; 209  :     _STL_ASSERT(_Ptr_user[-2] == _Big_allocation_sentinel, "invalid argument");
; 210  : 
; 211  :     // Extra paranoia on aligned allocation/deallocation; ensure _Ptr_container is
; 212  :     // in range [_Min_back_shift, _Non_user_size]
; 213  : #ifdef _DEBUG
; 214  :     constexpr uintptr_t _Min_back_shift = 2 * sizeof(void*);
; 215  : #else // ^^^ defined(_DEBUG) / !defined(_DEBUG) vvv
; 216  :     constexpr uintptr_t _Min_back_shift = sizeof(void*);
; 217  : #endif // ^^^ !defined(_DEBUG) ^^^
; 218  :     const uintptr_t _Back_shift = reinterpret_cast<uintptr_t>(_Ptr) - _Ptr_container;

  0001c	2b c2		 sub	 eax, edx

; 219  :     _STL_VERIFY(_Back_shift >= _Min_back_shift && _Back_shift <= _Non_user_size, "invalid argument");

  0001e	83 c0 fc	 add	 eax, -4			; fffffffcH
  00021	83 f8 1f	 cmp	 eax, 31			; 0000001fH
  00024	77 1f		 ja	 SHORT $LN23@basic_stri

; 220  :     _Ptr = reinterpret_cast<void*>(_Ptr_container);

  00026	8b c2		 mov	 eax, edx
$LN24@basic_stri:

; 289  :         ::operator delete(_Ptr, _Bytes);

  00028	51		 push	 ecx
  00029	50		 push	 eax
  0002a	e8 00 00 00 00	 call	 ??3@YAXPAXI@Z		; operator delete
  0002f	83 c4 08	 add	 esp, 8
$LN19@basic_stri:
; File C:\Program Files\Microsoft Visual Studio\2022\Professional\VC\Tools\MSVC\14.44.35207\include\xstring

; 3090 :         _My_data._Mysize = 0;

  00032	c7 46 10 00 00
	00 00		 mov	 DWORD PTR [esi+16], 0

; 3091 :         _My_data._Myres  = _Small_string_capacity;

  00039	c7 46 14 0f 00
	00 00		 mov	 DWORD PTR [esi+20], 15	; 0000000fH

; 3092 :         // the _Traits::assign is last so the codegen doesn't think the char write can alias this
; 3093 :         _Traits::assign(_My_data._Bx._Buf[0], _Elem());

  00040	c6 06 00	 mov	 BYTE PTR [esi], 0
  00043	5e		 pop	 esi

; 1390 :     }

  00044	c3		 ret	 0
$LN23@basic_stri:
; File C:\Program Files\Microsoft Visual Studio\2022\Professional\VC\Tools\MSVC\14.44.35207\include\xmemory

; 219  :     _STL_VERIFY(_Back_shift >= _Min_back_shift && _Back_shift <= _Non_user_size, "invalid argument");

  00045	6a 00		 push	 0
  00047	6a 00		 push	 0
  00049	6a 00		 push	 0
  0004b	6a 00		 push	 0
  0004d	6a 00		 push	 0
  0004f	e8 00 00 00 00	 call	 __invoke_watson
$LN33@basic_stri:
  00054	cc		 int	 3
??1?$basic_string@DU?$char_traits@D@std@@V?$allocator@D@2@@std@@QAE@XZ ENDP ; std::basic_string<char,std::char_traits<char>,std::allocator<char> >::~basic_string<char,std::char_traits<char>,std::allocator<char> >
_TEXT	ENDS
; Function compile flags: /Ogtp
; File C:\Program Files\Microsoft Visual Studio\2022\Professional\VC\Tools\MSVC\14.44.35207\include\xstring
; File C:\Program Files\Microsoft Visual Studio\2022\Professional\VC\Tools\MSVC\14.44.35207\include\__msvc_string_view.hpp
; File C:\Program Files\Microsoft Visual Studio\2022\Professional\VC\Tools\MSVC\14.44.35207\include\xstring
; File C:\Program Files\Microsoft Visual Studio\2022\Professional\VC\Tools\MSVC\14.44.35207\include\__msvc_string_view.hpp
; File C:\Program Files\Microsoft Visual Studio\2022\Professional\VC\Tools\MSVC\14.44.35207\include\xstring
; File C:\Program Files\Microsoft Visual Studio\2022\Professional\VC\Tools\MSVC\14.44.35207\include\__msvc_string_view.hpp
; File C:\Program Files\Microsoft Visual Studio\2022\Professional\VC\Tools\MSVC\14.44.35207\include\xstring
; File C:\Program Files\Microsoft Visual Studio\2022\Professional\VC\Tools\MSVC\14.44.35207\include\__msvc_string_view.hpp
; File C:\Program Files\Microsoft Visual Studio\2022\Professional\VC\Tools\MSVC\14.44.35207\include\xstring
; File C:\Program Files\Microsoft Visual Studio\2022\Professional\VC\Tools\MSVC\14.44.35207\include\xmemory
; File C:\Program Files\Microsoft Visual Studio\2022\Professional\VC\Tools\MSVC\14.44.35207\include\xstring
; File C:\Program Files\Microsoft Visual Studio\2022\Professional\VC\Tools\MSVC\14.44.35207\include\xmemory
; File C:\Program Files\Microsoft Visual Studio\2022\Professional\VC\Tools\MSVC\14.44.35207\include\xstring
; File C:\Program Files\Microsoft Visual Studio\2022\Professional\VC\Tools\MSVC\14.44.35207\include\__msvc_string_view.hpp
; File C:\Program Files\Microsoft Visual Studio\2022\Professional\VC\Tools\MSVC\14.44.35207\include\xstring
; File C:\Program Files\Microsoft Visual Studio\2022\Professional\VC\Tools\MSVC\14.44.35207\include\__msvc_string_view.hpp
; File C:\Program Files\Microsoft Visual Studio\2022\Professional\VC\Tools\MSVC\14.44.35207\include\xstring
; File C:\Program Files\Microsoft Visual Studio\2022\Professional\VC\Tools\MSVC\14.44.35207\include\__msvc_string_view.hpp
; File C:\Program Files\Microsoft Visual Studio\2022\Professional\VC\Tools\MSVC\14.44.35207\include\xstring
;	COMDAT ??0?$basic_string@DU?$char_traits@D@std@@V?$allocator@D@2@@std@@QAE@QBD@Z
_TEXT	SEGMENT
$T1 = -4						; size = 4
__Ptr$ = 8						; size = 4
??0?$basic_string@DU?$char_traits@D@std@@V?$allocator@D@2@@std@@QAE@QBD@Z PROC ; std::basic_string<char,std::char_traits<char>,std::allocator<char> >::basic_string<char,std::char_traits<char>,std::allocator<char> >, COMDAT
; _this$ = ecx

; 768  :     _CONSTEXPR20 basic_string(_In_z_ const _Elem* const _Ptr) : _Mypair(_Zero_then_variadic_args_t{}) {

  00000	55		 push	 ebp
  00001	8b ec		 mov	 ebp, esp
  00003	51		 push	 ecx
  00004	53		 push	 ebx
  00005	56		 push	 esi
  00006	8b d9		 mov	 ebx, ecx
  00008	0f 57 c0	 xorps	 xmm0, xmm0
  0000b	57		 push	 edi
; File C:\Program Files\Microsoft Visual Studio\2022\Professional\VC\Tools\MSVC\14.44.35207\include\__msvc_string_view.hpp

; 459  :         return _CSTD strlen(reinterpret_cast<const char*>(_First));

  0000c	8b 7d 08	 mov	 edi, DWORD PTR __Ptr$[ebp]
  0000f	8b f7		 mov	 esi, edi
; File C:\Program Files\Microsoft Visual Studio\2022\Professional\VC\Tools\MSVC\14.44.35207\include\xstring

; 493  :         _CONSTEXPR20 _Bxty() noexcept : _Buf() {} // user-provided, for fancy pointers

  00011	0f 11 03	 movups	 XMMWORD PTR [ebx], xmm0

; 517  :     size_type _Mysize = 0; // current length of string (size)

  00014	c7 43 10 00 00
	00 00		 mov	 DWORD PTR [ebx+16], 0

; 518  :     size_type _Myres  = 0; // current storage reserved for string (capacity)

  0001b	c7 43 14 00 00
	00 00		 mov	 DWORD PTR [ebx+20], 0
; File C:\Program Files\Microsoft Visual Studio\2022\Professional\VC\Tools\MSVC\14.44.35207\include\__msvc_string_view.hpp

; 459  :         return _CSTD strlen(reinterpret_cast<const char*>(_First));

  00022	8d 4e 01	 lea	 ecx, DWORD PTR [esi+1]
$LL51@basic_stri:
  00025	8a 06		 mov	 al, BYTE PTR [esi]
  00027	46		 inc	 esi
  00028	84 c0		 test	 al, al
  0002a	75 f9		 jne	 SHORT $LL51@basic_stri
  0002c	2b f1		 sub	 esi, ecx
; File C:\Program Files\Microsoft Visual Studio\2022\Professional\VC\Tools\MSVC\14.44.35207\include\xstring

; 881  :         if (_Count > max_size()) {

  0002e	81 fe ff ff ff
	7f		 cmp	 esi, 2147483647		; 7fffffffH
  00034	0f 87 9b 00 00
	00		 ja	 $LN62@basic_stri

; 883  :         }
; 884  : 
; 885  :         auto& _Al       = _Getal();
; 886  :         auto&& _Alproxy = _GET_PROXY_ALLOCATOR(_Alty, _Al);
; 887  :         _Container_proxy_ptr<_Alty> _Proxy(_Alproxy, _My_data);
; 888  : 
; 889  :         if (_Count <= _Small_string_capacity) {

  0003a	83 fe 0f	 cmp	 esi, 15			; 0000000fH
  0003d	77 24		 ja	 SHORT $LN21@basic_stri
; File C:\Program Files\Microsoft Visual Studio\2022\Professional\VC\Tools\MSVC\14.44.35207\include\__msvc_string_view.hpp

; 121  :         _CSTD memcpy(_First1, _First2, _Count * sizeof(_Elem));

  0003f	56		 push	 esi
  00040	57		 push	 edi
  00041	53		 push	 ebx
; File C:\Program Files\Microsoft Visual Studio\2022\Professional\VC\Tools\MSVC\14.44.35207\include\xstring

; 890  :             _My_data._Mysize = _Count;

  00042	89 73 10	 mov	 DWORD PTR [ebx+16], esi

; 891  :             _My_data._Myres  = _Small_string_capacity;

  00045	c7 43 14 0f 00
	00 00		 mov	 DWORD PTR [ebx+20], 15	; 0000000fH
; File C:\Program Files\Microsoft Visual Studio\2022\Professional\VC\Tools\MSVC\14.44.35207\include\__msvc_string_view.hpp

; 121  :         _CSTD memcpy(_First1, _First2, _Count * sizeof(_Elem));

  0004c	e8 00 00 00 00	 call	 _memcpy
; File C:\Program Files\Microsoft Visual Studio\2022\Professional\VC\Tools\MSVC\14.44.35207\include\xstring

; 898  :                 _Traits::assign(_My_data._Bx._Buf[_Count], _Elem());

  00051	c6 04 1e 00	 mov	 BYTE PTR [esi+ebx], 0

; 769  :         _Construct<_Construct_strategy::_From_ptr>(_Ptr, _Convert_size<size_type>(_Traits::length(_Ptr)));
; 770  :     }

  00055	83 c4 0c	 add	 esp, 12			; 0000000cH
  00058	8b c3		 mov	 eax, ebx
  0005a	5f		 pop	 edi
  0005b	5e		 pop	 esi
  0005c	5b		 pop	 ebx
  0005d	8b e5		 mov	 esp, ebp
  0005f	5d		 pop	 ebp
  00060	c2 04 00	 ret	 4
$LN21@basic_stri:

; 2978 :         const size_type _Masked = _Requested | _Alloc_mask;

  00063	8b fe		 mov	 edi, esi
  00065	83 cf 0f	 or	 edi, 15			; 0000000fH
  00068	81 ff ff ff ff
	7f		 cmp	 edi, 2147483647		; 7fffffffH

; 2979 :         if (_Masked > _Max) { // the mask overflows, settle for max_size()

  0006e	76 12		 jbe	 SHORT $LN27@basic_stri

; 2980 :             return _Max;

  00070	b8 00 00 00 80	 mov	 eax, -2147483648	; 80000000H
  00075	bf ff ff ff 7f	 mov	 edi, 2147483647		; 7fffffffH
; File C:\Program Files\Microsoft Visual Studio\2022\Professional\VC\Tools\MSVC\14.44.35207\include\xmemory

; 253  :             return _Allocate_manually_vector_aligned<_Traits>(_Bytes);

  0007a	50		 push	 eax
  0007b	e8 00 00 00 00	 call	 ??$_Allocate_manually_vector_aligned@U_Default_allocate_traits@std@@@std@@YAPAXI@Z ; std::_Allocate_manually_vector_aligned<std::_Default_allocate_traits>
  00080	eb 26		 jmp	 SHORT $LN60@basic_stri
$LN27@basic_stri:
; File C:\Program Files\Microsoft Visual Studio\2022\Professional\VC\Tools\MSVC\14.44.35207\include\xstring

; 2987 :         return (_STD max)(_Masked, _Old + _Old / 2);

  00082	b8 16 00 00 00	 mov	 eax, 22			; 00000016H
  00087	3b f8		 cmp	 edi, eax
  00089	0f 42 f8	 cmovb	 edi, eax

; 825  :         ++_Capacity; // Take null terminator into consideration

  0008c	8d 47 01	 lea	 eax, DWORD PTR [edi+1]
; File C:\Program Files\Microsoft Visual Studio\2022\Professional\VC\Tools\MSVC\14.44.35207\include\xmemory

; 227  :     if (_Bytes == 0) {

  0008f	85 c0		 test	 eax, eax
  00091	74 18		 je	 SHORT $LN59@basic_stri
$LN41@basic_stri:

; 228  :         return nullptr;
; 229  :     }
; 230  : 
; 231  : #if _HAS_CXX20 // TRANSITION, GH-1532
; 232  :     if (_STD is_constant_evaluated()) {
; 233  :         return _Traits::_Allocate(_Bytes);
; 234  :     }
; 235  : #endif // _HAS_CXX20
; 236  : 
; 237  : #ifdef __cpp_aligned_new
; 238  :     if constexpr (_Align > __STDCPP_DEFAULT_NEW_ALIGNMENT__) {
; 239  :         size_t _Passed_align = _Align;
; 240  : #if defined(_M_IX86) || defined(_M_X64)
; 241  :         if (_Bytes >= _Big_allocation_threshold) {
; 242  :             // boost the alignment of big allocations to help autovectorization
; 243  :             _Passed_align = (_STD max)(_Align, _Big_allocation_alignment);
; 244  :         }
; 245  : #endif // defined(_M_IX86) || defined(_M_X64)
; 246  :         return _Traits::_Allocate_aligned(_Bytes, _Passed_align);
; 247  :     } else
; 248  : #endif // defined(__cpp_aligned_new)
; 249  :     {
; 250  : #if defined(_M_IX86) || defined(_M_X64)
; 251  :         if (_Bytes >= _Big_allocation_threshold) {

  00093	3d 00 10 00 00	 cmp	 eax, 4096		; 00001000H
  00098	72 08		 jb	 SHORT $LN42@basic_stri

; 253  :             return _Allocate_manually_vector_aligned<_Traits>(_Bytes);

  0009a	50		 push	 eax
  0009b	e8 00 00 00 00	 call	 ??$_Allocate_manually_vector_aligned@U_Default_allocate_traits@std@@@std@@YAPAXI@Z ; std::_Allocate_manually_vector_aligned<std::_Default_allocate_traits>
  000a0	eb 06		 jmp	 SHORT $LN60@basic_stri
$LN42@basic_stri:

; 136  :         return ::operator new(_Bytes);

  000a2	50		 push	 eax
  000a3	e8 00 00 00 00	 call	 ??2@YAPAXI@Z		; operator new
$LN60@basic_stri:
; File C:\Program Files\Microsoft Visual Studio\2022\Professional\VC\Tools\MSVC\14.44.35207\include\xstring

; 913  :         _Construct_in_place(_My_data._Bx._Ptr, _New_ptr);

  000a8	83 c4 04	 add	 esp, 4
$LN59@basic_stri:
; File C:\Program Files\Microsoft Visual Studio\2022\Professional\VC\Tools\MSVC\14.44.35207\include\__msvc_string_view.hpp

; 121  :         _CSTD memcpy(_First1, _First2, _Count * sizeof(_Elem));

  000ab	56		 push	 esi
  000ac	ff 75 08	 push	 DWORD PTR __Ptr$[ebp]
; File C:\Program Files\Microsoft Visual Studio\2022\Professional\VC\Tools\MSVC\14.44.35207\include\xstring

; 913  :         _Construct_in_place(_My_data._Bx._Ptr, _New_ptr);

  000af	89 45 fc	 mov	 DWORD PTR $T1[ebp], eax
; File C:\Program Files\Microsoft Visual Studio\2022\Professional\VC\Tools\MSVC\14.44.35207\include\__msvc_string_view.hpp

; 121  :         _CSTD memcpy(_First1, _First2, _Count * sizeof(_Elem));

  000b2	50		 push	 eax
; File C:\Program Files\Microsoft Visual Studio\2022\Professional\VC\Tools\MSVC\14.44.35207\include\xstring

; 913  :         _Construct_in_place(_My_data._Bx._Ptr, _New_ptr);

  000b3	89 03		 mov	 DWORD PTR [ebx], eax

; 914  : 
; 915  :         _My_data._Mysize = _Count;

  000b5	89 73 10	 mov	 DWORD PTR [ebx+16], esi

; 916  :         _My_data._Myres  = _New_capacity;

  000b8	89 7b 14	 mov	 DWORD PTR [ebx+20], edi
; File C:\Program Files\Microsoft Visual Studio\2022\Professional\VC\Tools\MSVC\14.44.35207\include\__msvc_string_view.hpp

; 121  :         _CSTD memcpy(_First1, _First2, _Count * sizeof(_Elem));

  000bb	e8 00 00 00 00	 call	 _memcpy
; File C:\Program Files\Microsoft Visual Studio\2022\Professional\VC\Tools\MSVC\14.44.35207\include\xstring

; 922  :             _Traits::assign(_Unfancy(_New_ptr)[_Count], _Elem());

  000c0	8b 45 fc	 mov	 eax, DWORD PTR $T1[ebp]

; 769  :         _Construct<_Construct_strategy::_From_ptr>(_Ptr, _Convert_size<size_type>(_Traits::length(_Ptr)));
; 770  :     }

  000c3	83 c4 0c	 add	 esp, 12			; 0000000cH
  000c6	5f		 pop	 edi

; 922  :             _Traits::assign(_Unfancy(_New_ptr)[_Count], _Elem());

  000c7	c6 04 30 00	 mov	 BYTE PTR [eax+esi], 0

; 769  :         _Construct<_Construct_strategy::_From_ptr>(_Ptr, _Convert_size<size_type>(_Traits::length(_Ptr)));
; 770  :     }

  000cb	8b c3		 mov	 eax, ebx
  000cd	5e		 pop	 esi
  000ce	5b		 pop	 ebx
  000cf	8b e5		 mov	 esp, ebp
  000d1	5d		 pop	 ebp
  000d2	c2 04 00	 ret	 4
$LN62@basic_stri:

; 882  :             _Xlen_string(); // result too long

  000d5	e8 00 00 00 00	 call	 ?_Xlen_string@std@@YAXXZ ; std::_Xlen_string
$LN57@basic_stri:
  000da	cc		 int	 3
??0?$basic_string@DU?$char_traits@D@std@@V?$allocator@D@2@@std@@QAE@QBD@Z ENDP ; std::basic_string<char,std::char_traits<char>,std::allocator<char> >::basic_string<char,std::char_traits<char>,std::allocator<char> >
_TEXT	ENDS
; Function compile flags: /Ogtp
; File C:\Program Files\Microsoft Visual Studio\2022\Professional\VC\Tools\MSVC\14.44.35207\include\xstring
; File C:\Program Files\Microsoft Visual Studio\2022\Professional\VC\Tools\MSVC\14.44.35207\include\__msvc_string_view.hpp
; File C:\Program Files\Microsoft Visual Studio\2022\Professional\VC\Tools\MSVC\14.44.35207\include\xstring
; File C:\Program Files\Microsoft Visual Studio\2022\Professional\VC\Tools\MSVC\14.44.35207\include\__msvc_string_view.hpp
; File C:\Program Files\Microsoft Visual Studio\2022\Professional\VC\Tools\MSVC\14.44.35207\include\xstring
; File C:\Program Files\Microsoft Visual Studio\2022\Professional\VC\Tools\MSVC\14.44.35207\include\xmemory
; File C:\Program Files\Microsoft Visual Studio\2022\Professional\VC\Tools\MSVC\14.44.35207\include\xstring
; File C:\Program Files\Microsoft Visual Studio\2022\Professional\VC\Tools\MSVC\14.44.35207\include\xmemory
; File C:\Program Files\Microsoft Visual Studio\2022\Professional\VC\Tools\MSVC\14.44.35207\include\xstring
; File C:\Program Files\Microsoft Visual Studio\2022\Professional\VC\Tools\MSVC\14.44.35207\include\__msvc_string_view.hpp
; File C:\Program Files\Microsoft Visual Studio\2022\Professional\VC\Tools\MSVC\14.44.35207\include\xstring
; File C:\Program Files\Microsoft Visual Studio\2022\Professional\VC\Tools\MSVC\14.44.35207\include\__msvc_string_view.hpp
; File C:\Program Files\Microsoft Visual Studio\2022\Professional\VC\Tools\MSVC\14.44.35207\include\xstring
; File C:\Program Files\Microsoft Visual Studio\2022\Professional\VC\Tools\MSVC\14.44.35207\include\__msvc_string_view.hpp
; File C:\Program Files\Microsoft Visual Studio\2022\Professional\VC\Tools\MSVC\14.44.35207\include\xstring
; File C:\Program Files\Microsoft Visual Studio\2022\Professional\VC\Tools\MSVC\14.44.35207\include\__msvc_string_view.hpp
; File C:\Program Files\Microsoft Visual Studio\2022\Professional\VC\Tools\MSVC\14.44.35207\include\xstring
;	COMDAT ??0?$basic_string@DU?$char_traits@D@std@@V?$allocator@D@2@@std@@QAE@ABV01@@Z
_TEXT	SEGMENT
__Right$ = 8						; size = 4
__Result$1$ = 8						; size = 4
??0?$basic_string@DU?$char_traits@D@std@@V?$allocator@D@2@@std@@QAE@ABV01@@Z PROC ; std::basic_string<char,std::char_traits<char>,std::allocator<char> >::basic_string<char,std::char_traits<char>,std::allocator<char> >, COMDAT
; _this$ = ecx

; 717  :         : _Mypair(_One_then_variadic_args_t{}, _Alty_traits::select_on_container_copy_construction(_Right._Getal())) {

  00000	55		 push	 ebp
  00001	8b ec		 mov	 ebp, esp
  00003	53		 push	 ebx

; 444  :         const value_type* _Result = _Bx._Buf;

  00004	8b 5d 08	 mov	 ebx, DWORD PTR __Right$[ebp]
  00007	0f 57 c0	 xorps	 xmm0, xmm0

; 717  :         : _Mypair(_One_then_variadic_args_t{}, _Alty_traits::select_on_container_copy_construction(_Right._Getal())) {

  0000a	57		 push	 edi
  0000b	8b f9		 mov	 edi, ecx

; 444  :         const value_type* _Result = _Bx._Buf;

  0000d	89 5d 08	 mov	 DWORD PTR __Result$1$[ebp], ebx
  00010	8b c3		 mov	 eax, ebx

; 493  :         _CONSTEXPR20 _Bxty() noexcept : _Buf() {} // user-provided, for fancy pointers

  00012	0f 11 07	 movups	 XMMWORD PTR [edi], xmm0

; 517  :     size_type _Mysize = 0; // current length of string (size)

  00015	c7 47 10 00 00
	00 00		 mov	 DWORD PTR [edi+16], 0

; 518  :     size_type _Myres  = 0; // current storage reserved for string (capacity)

  0001c	c7 47 14 00 00
	00 00		 mov	 DWORD PTR [edi+20], 0

; 453  :         return _Myres > _Small_string_capacity;

  00023	83 7b 14 0f	 cmp	 DWORD PTR [ebx+20], 15	; 0000000fH

; 445  :         if (_Large_mode_engaged()) {

  00027	76 05		 jbe	 SHORT $LN17@basic_stri

; 446  :             _Result = _Unfancy(_Bx._Ptr);

  00029	8b 03		 mov	 eax, DWORD PTR [ebx]
  0002b	89 45 08	 mov	 DWORD PTR __Result$1$[ebp], eax
$LN17@basic_stri:

; 718  :         _Construct<_Construct_strategy::_From_string>(_Right._Mypair._Myval2._Myptr(), _Right._Mypair._Myval2._Mysize);

  0002e	8b 5b 10	 mov	 ebx, DWORD PTR [ebx+16]

; 881  :         if (_Count > max_size()) {

  00031	81 fb ff ff ff
	7f		 cmp	 ebx, 2147483647		; 7fffffffH
  00037	0f 87 8d 00 00
	00		 ja	 $LN63@basic_stri

; 883  :         }
; 884  : 
; 885  :         auto& _Al       = _Getal();
; 886  :         auto&& _Alproxy = _GET_PROXY_ALLOCATOR(_Alty, _Al);
; 887  :         _Container_proxy_ptr<_Alty> _Proxy(_Alproxy, _My_data);
; 888  : 
; 889  :         if (_Count <= _Small_string_capacity) {

  0003d	83 fb 0f	 cmp	 ebx, 15			; 0000000fH
  00040	77 18		 ja	 SHORT $LN25@basic_stri

; 890  :             _My_data._Mysize = _Count;

  00042	89 5f 10	 mov	 DWORD PTR [edi+16], ebx

; 891  :             _My_data._Myres  = _Small_string_capacity;

  00045	c7 47 14 0f 00
	00 00		 mov	 DWORD PTR [edi+20], 15	; 0000000fH
; File C:\Program Files\Microsoft Visual Studio\2022\Professional\VC\Tools\MSVC\14.44.35207\include\__msvc_string_view.hpp

; 121  :         _CSTD memcpy(_First1, _First2, _Count * sizeof(_Elem));

  0004c	0f 10 00	 movups	 xmm0, XMMWORD PTR [eax]
; File C:\Program Files\Microsoft Visual Studio\2022\Professional\VC\Tools\MSVC\14.44.35207\include\xstring

; 719  :     }

  0004f	8b c7		 mov	 eax, edi
; File C:\Program Files\Microsoft Visual Studio\2022\Professional\VC\Tools\MSVC\14.44.35207\include\__msvc_string_view.hpp

; 121  :         _CSTD memcpy(_First1, _First2, _Count * sizeof(_Elem));

  00051	0f 11 07	 movups	 XMMWORD PTR [edi], xmm0
; File C:\Program Files\Microsoft Visual Studio\2022\Professional\VC\Tools\MSVC\14.44.35207\include\xstring

; 719  :     }

  00054	5f		 pop	 edi
  00055	5b		 pop	 ebx
  00056	5d		 pop	 ebp
  00057	c2 04 00	 ret	 4
$LN25@basic_stri:
  0005a	56		 push	 esi

; 2978 :         const size_type _Masked = _Requested | _Alloc_mask;

  0005b	8b f3		 mov	 esi, ebx
  0005d	83 ce 0f	 or	 esi, 15			; 0000000fH
  00060	81 fe ff ff ff
	7f		 cmp	 esi, 2147483647		; 7fffffffH

; 2979 :         if (_Masked > _Max) { // the mask overflows, settle for max_size()

  00066	76 12		 jbe	 SHORT $LN31@basic_stri

; 2980 :             return _Max;

  00068	b8 00 00 00 80	 mov	 eax, -2147483648	; 80000000H
  0006d	be ff ff ff 7f	 mov	 esi, 2147483647		; 7fffffffH
; File C:\Program Files\Microsoft Visual Studio\2022\Professional\VC\Tools\MSVC\14.44.35207\include\xmemory

; 253  :             return _Allocate_manually_vector_aligned<_Traits>(_Bytes);

  00072	50		 push	 eax
  00073	e8 00 00 00 00	 call	 ??$_Allocate_manually_vector_aligned@U_Default_allocate_traits@std@@@std@@YAPAXI@Z ; std::_Allocate_manually_vector_aligned<std::_Default_allocate_traits>
  00078	eb 2a		 jmp	 SHORT $LN61@basic_stri
$LN31@basic_stri:
; File C:\Program Files\Microsoft Visual Studio\2022\Professional\VC\Tools\MSVC\14.44.35207\include\xstring

; 2987 :         return (_STD max)(_Masked, _Old + _Old / 2);

  0007a	b8 16 00 00 00	 mov	 eax, 22			; 00000016H
  0007f	3b f0		 cmp	 esi, eax
  00081	0f 42 f0	 cmovb	 esi, eax

; 825  :         ++_Capacity; // Take null terminator into consideration

  00084	8d 46 01	 lea	 eax, DWORD PTR [esi+1]
; File C:\Program Files\Microsoft Visual Studio\2022\Professional\VC\Tools\MSVC\14.44.35207\include\xmemory

; 227  :     if (_Bytes == 0) {

  00087	85 c0		 test	 eax, eax
  00089	75 04		 jne	 SHORT $LN45@basic_stri

; 228  :         return nullptr;

  0008b	33 c9		 xor	 ecx, ecx
  0008d	eb 1a		 jmp	 SHORT $LN44@basic_stri
$LN45@basic_stri:

; 229  :     }
; 230  : 
; 231  : #if _HAS_CXX20 // TRANSITION, GH-1532
; 232  :     if (_STD is_constant_evaluated()) {
; 233  :         return _Traits::_Allocate(_Bytes);
; 234  :     }
; 235  : #endif // _HAS_CXX20
; 236  : 
; 237  : #ifdef __cpp_aligned_new
; 238  :     if constexpr (_Align > __STDCPP_DEFAULT_NEW_ALIGNMENT__) {
; 239  :         size_t _Passed_align = _Align;
; 240  : #if defined(_M_IX86) || defined(_M_X64)
; 241  :         if (_Bytes >= _Big_allocation_threshold) {
; 242  :             // boost the alignment of big allocations to help autovectorization
; 243  :             _Passed_align = (_STD max)(_Align, _Big_allocation_alignment);
; 244  :         }
; 245  : #endif // defined(_M_IX86) || defined(_M_X64)
; 246  :         return _Traits::_Allocate_aligned(_Bytes, _Passed_align);
; 247  :     } else
; 248  : #endif // defined(__cpp_aligned_new)
; 249  :     {
; 250  : #if defined(_M_IX86) || defined(_M_X64)
; 251  :         if (_Bytes >= _Big_allocation_threshold) {

  0008f	3d 00 10 00 00	 cmp	 eax, 4096		; 00001000H
  00094	72 08		 jb	 SHORT $LN46@basic_stri

; 253  :             return _Allocate_manually_vector_aligned<_Traits>(_Bytes);

  00096	50		 push	 eax
  00097	e8 00 00 00 00	 call	 ??$_Allocate_manually_vector_aligned@U_Default_allocate_traits@std@@@std@@YAPAXI@Z ; std::_Allocate_manually_vector_aligned<std::_Default_allocate_traits>
  0009c	eb 06		 jmp	 SHORT $LN61@basic_stri
$LN46@basic_stri:

; 136  :         return ::operator new(_Bytes);

  0009e	50		 push	 eax
  0009f	e8 00 00 00 00	 call	 ??2@YAPAXI@Z		; operator new
$LN61@basic_stri:
; File C:\Program Files\Microsoft Visual Studio\2022\Professional\VC\Tools\MSVC\14.44.35207\include\xstring

; 913  :         _Construct_in_place(_My_data._Bx._Ptr, _New_ptr);

  000a4	8b c8		 mov	 ecx, eax
  000a6	83 c4 04	 add	 esp, 4
$LN44@basic_stri:

; 917  :         if constexpr (_Strat == _Construct_strategy::_From_char) {
; 918  :             _Traits::assign(_Unfancy(_New_ptr), _Count, _Arg);
; 919  :             _Traits::assign(_Unfancy(_New_ptr)[_Count], _Elem());
; 920  :         } else if constexpr (_Strat == _Construct_strategy::_From_ptr) {
; 921  :             _Traits::copy(_Unfancy(_New_ptr), _Arg, _Count);
; 922  :             _Traits::assign(_Unfancy(_New_ptr)[_Count], _Elem());
; 923  :         } else { // _Strat == _Construct_strategy::_From_string
; 924  :             _Traits::copy(_Unfancy(_New_ptr), _Arg, _Count + 1);

  000a9	8d 43 01	 lea	 eax, DWORD PTR [ebx+1]
  000ac	89 0f		 mov	 DWORD PTR [edi], ecx
; File C:\Program Files\Microsoft Visual Studio\2022\Professional\VC\Tools\MSVC\14.44.35207\include\__msvc_string_view.hpp

; 121  :         _CSTD memcpy(_First1, _First2, _Count * sizeof(_Elem));

  000ae	50		 push	 eax
  000af	ff 75 08	 push	 DWORD PTR __Result$1$[ebp]
; File C:\Program Files\Microsoft Visual Studio\2022\Professional\VC\Tools\MSVC\14.44.35207\include\xstring

; 915  :         _My_data._Mysize = _Count;

  000b2	89 5f 10	 mov	 DWORD PTR [edi+16], ebx
; File C:\Program Files\Microsoft Visual Studio\2022\Professional\VC\Tools\MSVC\14.44.35207\include\__msvc_string_view.hpp

; 121  :         _CSTD memcpy(_First1, _First2, _Count * sizeof(_Elem));

  000b5	51		 push	 ecx
; File C:\Program Files\Microsoft Visual Studio\2022\Professional\VC\Tools\MSVC\14.44.35207\include\xstring

; 916  :         _My_data._Myres  = _New_capacity;

  000b6	89 77 14	 mov	 DWORD PTR [edi+20], esi
; File C:\Program Files\Microsoft Visual Studio\2022\Professional\VC\Tools\MSVC\14.44.35207\include\__msvc_string_view.hpp

; 121  :         _CSTD memcpy(_First1, _First2, _Count * sizeof(_Elem));

  000b9	e8 00 00 00 00	 call	 _memcpy
  000be	83 c4 0c	 add	 esp, 12			; 0000000cH
; File C:\Program Files\Microsoft Visual Studio\2022\Professional\VC\Tools\MSVC\14.44.35207\include\xstring

; 719  :     }

  000c1	8b c7		 mov	 eax, edi
; File C:\Program Files\Microsoft Visual Studio\2022\Professional\VC\Tools\MSVC\14.44.35207\include\__msvc_string_view.hpp

; 121  :         _CSTD memcpy(_First1, _First2, _Count * sizeof(_Elem));

  000c3	5e		 pop	 esi
; File C:\Program Files\Microsoft Visual Studio\2022\Professional\VC\Tools\MSVC\14.44.35207\include\xstring

; 719  :     }

  000c4	5f		 pop	 edi
  000c5	5b		 pop	 ebx
  000c6	5d		 pop	 ebp
  000c7	c2 04 00	 ret	 4
$LN63@basic_stri:

; 882  :             _Xlen_string(); // result too long

  000ca	e8 00 00 00 00	 call	 ?_Xlen_string@std@@YAXXZ ; std::_Xlen_string
$LN60@basic_stri:
  000cf	cc		 int	 3
??0?$basic_string@DU?$char_traits@D@std@@V?$allocator@D@2@@std@@QAE@ABV01@@Z ENDP ; std::basic_string<char,std::char_traits<char>,std::allocator<char> >::basic_string<char,std::char_traits<char>,std::allocator<char> >
_TEXT	ENDS
; Function compile flags: /Ogtp
; File C:\Program Files\Microsoft Visual Studio\2022\Professional\VC\Tools\MSVC\14.44.35207\include\xstring
;	COMDAT ?_Xlen_string@std@@YAXXZ
_TEXT	SEGMENT
?_Xlen_string@std@@YAXXZ PROC				; std::_Xlen_string, COMDAT

; 531  :     _Xlength_error("string too long");

  00000	68 00 00 00 00	 push	 OFFSET ??_C@_0BA@JFNIOLAK@string?5too?5long@
  00005	e8 00 00 00 00	 call	 ?_Xlength_error@std@@YAXPBD@Z ; std::_Xlength_error
$LN3@Xlen_strin:
  0000a	cc		 int	 3
?_Xlen_string@std@@YAXXZ ENDP				; std::_Xlen_string
_TEXT	ENDS
; Function compile flags: /Ogtp
; File C:\Program Files\Microsoft Visual Studio\2022\Professional\VC\Tools\MSVC\14.44.35207\include\xmemory
;	COMDAT ?_Throw_bad_array_new_length@std@@YAXXZ
_TEXT	SEGMENT
$T1 = -12						; size = 12
?_Throw_bad_array_new_length@std@@YAXXZ PROC		; std::_Throw_bad_array_new_length, COMDAT

; 107  : [[noreturn]] inline void _Throw_bad_array_new_length() {

  00000	55		 push	 ebp
  00001	8b ec		 mov	 ebp, esp
  00003	83 ec 0c	 sub	 esp, 12			; 0000000cH

; 108  :     _THROW(bad_array_new_length{});

  00006	8d 4d f4	 lea	 ecx, DWORD PTR $T1[ebp]
  00009	e8 00 00 00 00	 call	 ??0bad_array_new_length@std@@QAE@XZ ; std::bad_array_new_length::bad_array_new_length
  0000e	68 00 00 00 00	 push	 OFFSET __TI3?AVbad_array_new_length@std@@
  00013	8d 45 f4	 lea	 eax, DWORD PTR $T1[ebp]
  00016	50		 push	 eax
  00017	e8 00 00 00 00	 call	 __CxxThrowException@8
$LN3@Throw_bad_:
  0001c	cc		 int	 3
?_Throw_bad_array_new_length@std@@YAXXZ ENDP		; std::_Throw_bad_array_new_length
_TEXT	ENDS
; Function compile flags: /Ogtp
; File C:\Program Files\Microsoft Visual Studio\2022\Professional\VC\Tools\MSVC\14.44.35207\include\vcruntime_exception.h
;	COMDAT ??_Gbad_array_new_length@std@@UAEPAXI@Z
_TEXT	SEGMENT
___flags$ = 8						; size = 4
??_Gbad_array_new_length@std@@UAEPAXI@Z PROC		; std::bad_array_new_length::`scalar deleting destructor', COMDAT
; _this$ = ecx
  00000	55		 push	 ebp
  00001	8b ec		 mov	 ebp, esp

; 90   :     {

  00003	56		 push	 esi
  00004	8b f1		 mov	 esi, ecx

; 91   :         __std_exception_destroy(&_Data);

  00006	8d 46 04	 lea	 eax, DWORD PTR [esi+4]
  00009	c7 06 00 00 00
	00		 mov	 DWORD PTR [esi], OFFSET ??_7exception@std@@6B@
  0000f	50		 push	 eax
  00010	e8 00 00 00 00	 call	 ___std_exception_destroy
  00015	83 c4 04	 add	 esp, 4
  00018	f6 45 08 01	 test	 BYTE PTR ___flags$[ebp], 1
  0001c	74 0b		 je	 SHORT $LN18@scalar
  0001e	6a 0c		 push	 12			; 0000000cH
  00020	56		 push	 esi
  00021	e8 00 00 00 00	 call	 ??3@YAXPAXI@Z		; operator delete
  00026	83 c4 08	 add	 esp, 8
$LN18@scalar:
  00029	8b c6		 mov	 eax, esi
  0002b	5e		 pop	 esi
  0002c	5d		 pop	 ebp
  0002d	c2 04 00	 ret	 4
??_Gbad_array_new_length@std@@UAEPAXI@Z ENDP		; std::bad_array_new_length::`scalar deleting destructor'
_TEXT	ENDS
; Function compile flags: /Ogtp
; File C:\Program Files\Microsoft Visual Studio\2022\Professional\VC\Tools\MSVC\14.44.35207\include\vcruntime_exception.h
;	COMDAT ??0bad_array_new_length@std@@QAE@ABV01@@Z
_TEXT	SEGMENT
___that$ = 8						; size = 4
??0bad_array_new_length@std@@QAE@ABV01@@Z PROC		; std::bad_array_new_length::bad_array_new_length, COMDAT
; _this$ = ecx
  00000	55		 push	 ebp
  00001	8b ec		 mov	 ebp, esp

; 73   :     {

  00003	56		 push	 esi
  00004	8b f1		 mov	 esi, ecx
  00006	0f 57 c0	 xorps	 xmm0, xmm0

; 72   :         : _Data()

  00009	8d 46 04	 lea	 eax, DWORD PTR [esi+4]

; 74   :         __std_exception_copy(&_Other._Data, &_Data);

  0000c	50		 push	 eax
  0000d	c7 06 00 00 00
	00		 mov	 DWORD PTR [esi], OFFSET ??_7exception@std@@6B@
  00013	66 0f d6 00	 movq	 QWORD PTR [eax], xmm0
  00017	8b 45 08	 mov	 eax, DWORD PTR ___that$[ebp]
  0001a	83 c0 04	 add	 eax, 4
  0001d	50		 push	 eax
  0001e	e8 00 00 00 00	 call	 ___std_exception_copy
  00023	83 c4 08	 add	 esp, 8
  00026	c7 06 00 00 00
	00		 mov	 DWORD PTR [esi], OFFSET ??_7bad_array_new_length@std@@6B@
  0002c	8b c6		 mov	 eax, esi
  0002e	5e		 pop	 esi
  0002f	5d		 pop	 ebp
  00030	c2 04 00	 ret	 4
??0bad_array_new_length@std@@QAE@ABV01@@Z ENDP		; std::bad_array_new_length::bad_array_new_length
_TEXT	ENDS
; Function compile flags: /Ogtp
; File C:\Program Files\Microsoft Visual Studio\2022\Professional\VC\Tools\MSVC\14.44.35207\include\vcruntime_exception.h
;	COMDAT ??1bad_array_new_length@std@@UAE@XZ
_TEXT	SEGMENT
??1bad_array_new_length@std@@UAE@XZ PROC		; std::bad_array_new_length::~bad_array_new_length, COMDAT
; _this$ = ecx

; 91   :         __std_exception_destroy(&_Data);

  00000	8d 41 04	 lea	 eax, DWORD PTR [ecx+4]
  00003	c7 01 00 00 00
	00		 mov	 DWORD PTR [ecx], OFFSET ??_7exception@std@@6B@
  00009	50		 push	 eax
  0000a	e8 00 00 00 00	 call	 ___std_exception_destroy
  0000f	59		 pop	 ecx
  00010	c3		 ret	 0
??1bad_array_new_length@std@@UAE@XZ ENDP		; std::bad_array_new_length::~bad_array_new_length
_TEXT	ENDS
; Function compile flags: /Ogtp
; File C:\Program Files\Microsoft Visual Studio\2022\Professional\VC\Tools\MSVC\14.44.35207\include\vcruntime_exception.h
;	COMDAT ??0bad_array_new_length@std@@QAE@XZ
_TEXT	SEGMENT
??0bad_array_new_length@std@@QAE@XZ PROC		; std::bad_array_new_length::bad_array_new_length, COMDAT
; _this$ = ecx

; 144  :     {

  00000	0f 57 c0	 xorps	 xmm0, xmm0

; 145  :     }

  00003	8b c1		 mov	 eax, ecx

; 66   :         : _Data()

  00005	66 0f d6 41 04	 movq	 QWORD PTR [ecx+4], xmm0

; 67   :     {
; 68   :         _Data._What = _Message;

  0000a	c7 41 04 00 00
	00 00		 mov	 DWORD PTR [ecx+4], OFFSET ??_C@_0BF@KINCDENJ@bad?5array?5new?5length@

; 144  :     {

  00011	c7 01 00 00 00
	00		 mov	 DWORD PTR [ecx], OFFSET ??_7bad_array_new_length@std@@6B@

; 145  :     }

  00017	c3		 ret	 0
??0bad_array_new_length@std@@QAE@XZ ENDP		; std::bad_array_new_length::bad_array_new_length
_TEXT	ENDS
; Function compile flags: /Ogtp
; File C:\Program Files\Microsoft Visual Studio\2022\Professional\VC\Tools\MSVC\14.44.35207\include\vcruntime_exception.h
;	COMDAT ??_Gbad_alloc@std@@UAEPAXI@Z
_TEXT	SEGMENT
___flags$ = 8						; size = 4
??_Gbad_alloc@std@@UAEPAXI@Z PROC			; std::bad_alloc::`scalar deleting destructor', COMDAT
; _this$ = ecx
  00000	55		 push	 ebp
  00001	8b ec		 mov	 ebp, esp

; 90   :     {

  00003	56		 push	 esi
  00004	8b f1		 mov	 esi, ecx

; 91   :         __std_exception_destroy(&_Data);

  00006	8d 46 04	 lea	 eax, DWORD PTR [esi+4]
  00009	c7 06 00 00 00
	00		 mov	 DWORD PTR [esi], OFFSET ??_7exception@std@@6B@
  0000f	50		 push	 eax
  00010	e8 00 00 00 00	 call	 ___std_exception_destroy
  00015	83 c4 04	 add	 esp, 4
  00018	f6 45 08 01	 test	 BYTE PTR ___flags$[ebp], 1
  0001c	74 0b		 je	 SHORT $LN13@scalar
  0001e	6a 0c		 push	 12			; 0000000cH
  00020	56		 push	 esi
  00021	e8 00 00 00 00	 call	 ??3@YAXPAXI@Z		; operator delete
  00026	83 c4 08	 add	 esp, 8
$LN13@scalar:
  00029	8b c6		 mov	 eax, esi
  0002b	5e		 pop	 esi
  0002c	5d		 pop	 ebp
  0002d	c2 04 00	 ret	 4
??_Gbad_alloc@std@@UAEPAXI@Z ENDP			; std::bad_alloc::`scalar deleting destructor'
_TEXT	ENDS
; Function compile flags: /Ogtp
; File C:\Program Files\Microsoft Visual Studio\2022\Professional\VC\Tools\MSVC\14.44.35207\include\vcruntime_exception.h
;	COMDAT ??0bad_alloc@std@@QAE@ABV01@@Z
_TEXT	SEGMENT
___that$ = 8						; size = 4
??0bad_alloc@std@@QAE@ABV01@@Z PROC			; std::bad_alloc::bad_alloc, COMDAT
; _this$ = ecx
  00000	55		 push	 ebp
  00001	8b ec		 mov	 ebp, esp

; 73   :     {

  00003	56		 push	 esi
  00004	8b f1		 mov	 esi, ecx
  00006	0f 57 c0	 xorps	 xmm0, xmm0

; 72   :         : _Data()

  00009	8d 46 04	 lea	 eax, DWORD PTR [esi+4]

; 74   :         __std_exception_copy(&_Other._Data, &_Data);

  0000c	50		 push	 eax
  0000d	c7 06 00 00 00
	00		 mov	 DWORD PTR [esi], OFFSET ??_7exception@std@@6B@
  00013	66 0f d6 00	 movq	 QWORD PTR [eax], xmm0
  00017	8b 45 08	 mov	 eax, DWORD PTR ___that$[ebp]
  0001a	83 c0 04	 add	 eax, 4
  0001d	50		 push	 eax
  0001e	e8 00 00 00 00	 call	 ___std_exception_copy
  00023	83 c4 08	 add	 esp, 8
  00026	c7 06 00 00 00
	00		 mov	 DWORD PTR [esi], OFFSET ??_7bad_alloc@std@@6B@
  0002c	8b c6		 mov	 eax, esi
  0002e	5e		 pop	 esi
  0002f	5d		 pop	 ebp
  00030	c2 04 00	 ret	 4
??0bad_alloc@std@@QAE@ABV01@@Z ENDP			; std::bad_alloc::bad_alloc
_TEXT	ENDS
; Function compile flags: /Ogtp
; File C:\Program Files\Microsoft Visual Studio\2022\Professional\VC\Tools\MSVC\14.44.35207\include\vcruntime_exception.h
;	COMDAT ??_Gexception@std@@UAEPAXI@Z
_TEXT	SEGMENT
___flags$ = 8						; size = 4
??_Gexception@std@@UAEPAXI@Z PROC			; std::exception::`scalar deleting destructor', COMDAT
; _this$ = ecx
  00000	55		 push	 ebp
  00001	8b ec		 mov	 ebp, esp

; 90   :     {

  00003	56		 push	 esi
  00004	8b f1		 mov	 esi, ecx

; 91   :         __std_exception_destroy(&_Data);

  00006	8d 46 04	 lea	 eax, DWORD PTR [esi+4]
  00009	c7 06 00 00 00
	00		 mov	 DWORD PTR [esi], OFFSET ??_7exception@std@@6B@
  0000f	50		 push	 eax
  00010	e8 00 00 00 00	 call	 ___std_exception_destroy
  00015	83 c4 04	 add	 esp, 4
  00018	f6 45 08 01	 test	 BYTE PTR ___flags$[ebp], 1
  0001c	74 0b		 je	 SHORT $LN8@scalar
  0001e	6a 0c		 push	 12			; 0000000cH
  00020	56		 push	 esi
  00021	e8 00 00 00 00	 call	 ??3@YAXPAXI@Z		; operator delete
  00026	83 c4 08	 add	 esp, 8
$LN8@scalar:
  00029	8b c6		 mov	 eax, esi
  0002b	5e		 pop	 esi
  0002c	5d		 pop	 ebp
  0002d	c2 04 00	 ret	 4
??_Gexception@std@@UAEPAXI@Z ENDP			; std::exception::`scalar deleting destructor'
_TEXT	ENDS
; Function compile flags: /Ogtp
; File C:\Program Files\Microsoft Visual Studio\2022\Professional\VC\Tools\MSVC\14.44.35207\include\vcruntime_exception.h
;	COMDAT ?what@exception@std@@UBEPBDXZ
_TEXT	SEGMENT
?what@exception@std@@UBEPBDXZ PROC			; std::exception::what, COMDAT
; _this$ = ecx

; 96   :         return _Data._What ? _Data._What : "Unknown exception";

  00000	8b 49 04	 mov	 ecx, DWORD PTR [ecx+4]
  00003	b8 00 00 00 00	 mov	 eax, OFFSET ??_C@_0BC@EOODALEL@Unknown?5exception@
  00008	85 c9		 test	 ecx, ecx
  0000a	0f 45 c1	 cmovne	 eax, ecx

; 97   :     }

  0000d	c3		 ret	 0
?what@exception@std@@UBEPBDXZ ENDP			; std::exception::what
_TEXT	ENDS
; Function compile flags: /Ogtp
; File C:\Program Files\Microsoft Visual Studio\2022\Professional\VC\Tools\MSVC\14.44.35207\include\vcruntime_exception.h
;	COMDAT ??1exception@std@@UAE@XZ
_TEXT	SEGMENT
??1exception@std@@UAE@XZ PROC				; std::exception::~exception, COMDAT
; _this$ = ecx

; 91   :         __std_exception_destroy(&_Data);

  00000	8d 41 04	 lea	 eax, DWORD PTR [ecx+4]
  00003	c7 01 00 00 00
	00		 mov	 DWORD PTR [ecx], OFFSET ??_7exception@std@@6B@
  00009	50		 push	 eax
  0000a	e8 00 00 00 00	 call	 ___std_exception_destroy
  0000f	59		 pop	 ecx

; 92   :     }

  00010	c3		 ret	 0
??1exception@std@@UAE@XZ ENDP				; std::exception::~exception
_TEXT	ENDS
; Function compile flags: /Ogtp
; File C:\Program Files\Microsoft Visual Studio\2022\Professional\VC\Tools\MSVC\14.44.35207\include\vcruntime_exception.h
;	COMDAT ??0exception@std@@QAE@ABV01@@Z
_TEXT	SEGMENT
__Other$ = 8						; size = 4
??0exception@std@@QAE@ABV01@@Z PROC			; std::exception::exception, COMDAT
; _this$ = ecx

; 73   :     {

  00000	55		 push	 ebp
  00001	8b ec		 mov	 ebp, esp
  00003	56		 push	 esi
  00004	8b f1		 mov	 esi, ecx
  00006	0f 57 c0	 xorps	 xmm0, xmm0
  00009	8d 46 04	 lea	 eax, DWORD PTR [esi+4]

; 74   :         __std_exception_copy(&_Other._Data, &_Data);

  0000c	50		 push	 eax
  0000d	c7 06 00 00 00
	00		 mov	 DWORD PTR [esi], OFFSET ??_7exception@std@@6B@
  00013	66 0f d6 00	 movq	 QWORD PTR [eax], xmm0
  00017	8b 45 08	 mov	 eax, DWORD PTR __Other$[ebp]
  0001a	83 c0 04	 add	 eax, 4
  0001d	50		 push	 eax
  0001e	e8 00 00 00 00	 call	 ___std_exception_copy
  00023	83 c4 08	 add	 esp, 8

; 75   :     }

  00026	8b c6		 mov	 eax, esi
  00028	5e		 pop	 esi
  00029	5d		 pop	 ebp
  0002a	c2 04 00	 ret	 4
??0exception@std@@QAE@ABV01@@Z ENDP			; std::exception::exception
_TEXT	ENDS
; Function compile flags: /Ogtp
; File C:\Program Files\Microsoft Visual Studio\2022\Professional\VC\Tools\MSVC\14.44.35207\atlmfc\include\cstringt.h
; File C:\Program Files\Microsoft Visual Studio\2022\Professional\VC\Tools\MSVC\14.44.35207\atlmfc\include\atlsimpstr.h
; File C:\Program Files\Microsoft Visual Studio\2022\Professional\VC\Tools\MSVC\14.44.35207\atlmfc\include\cstringt.h
; File C:\Program Files\Microsoft Visual Studio\2022\Professional\VC\Tools\MSVC\14.44.35207\atlmfc\include\atlsimpstr.h
; File C:\Program Files\Microsoft Visual Studio\2022\Professional\VC\Tools\MSVC\14.44.35207\atlmfc\include\cstringt.h
; File C:\Program Files\Microsoft Visual Studio\2022\Professional\VC\Tools\MSVC\14.44.35207\atlmfc\include\afxstr.h
; File C:\Program Files\Microsoft Visual Studio\2022\Professional\VC\Tools\MSVC\14.44.35207\atlmfc\include\cstringt.h
; File C:\Program Files\Microsoft Visual Studio\2022\Professional\VC\Tools\MSVC\14.44.35207\atlmfc\include\atlsimpstr.h
; File C:\Program Files\Microsoft Visual Studio\2022\Professional\VC\Tools\MSVC\14.44.35207\atlmfc\include\cstringt.h
; File C:\Program Files\Microsoft Visual Studio\2022\Professional\VC\Tools\MSVC\14.44.35207\atlmfc\include\atlsimpstr.h
; File C:\Program Files\Microsoft Visual Studio\2022\Professional\VC\Tools\MSVC\14.44.35207\atlmfc\include\cstringt.h
; File C:\Program Files\Microsoft Visual Studio\2022\Professional\VC\Tools\MSVC\14.44.35207\atlmfc\include\atlsimpstr.h
; File C:\Program Files (x86)\Windows Kits\10\Include\10.0.26100.0\ucrt\corecrt_memcpy_s.h
; File C:\Program Files\Microsoft Visual Studio\2022\Professional\VC\Tools\MSVC\14.44.35207\atlmfc\include\atlsimpstr.h
; File C:\Program Files (x86)\Windows Kits\10\Include\10.0.26100.0\ucrt\corecrt_memcpy_s.h
; File C:\Program Files\Microsoft Visual Studio\2022\Professional\VC\Tools\MSVC\14.44.35207\atlmfc\include\atlsimpstr.h
; File C:\Program Files (x86)\Windows Kits\10\Include\10.0.26100.0\ucrt\corecrt_memcpy_s.h
; File C:\Program Files\Microsoft Visual Studio\2022\Professional\VC\Tools\MSVC\14.44.35207\atlmfc\include\atlsimpstr.h
; File C:\Program Files\Microsoft Visual Studio\2022\Professional\VC\Tools\MSVC\14.44.35207\atlmfc\include\cstringt.h
; File C:\Program Files\Microsoft Visual Studio\2022\Professional\VC\Tools\MSVC\14.44.35207\atlmfc\include\atlsimpstr.h
; File C:\Program Files\Microsoft Visual Studio\2022\Professional\VC\Tools\MSVC\14.44.35207\atlmfc\include\cstringt.h
; File C:\Program Files\Microsoft Visual Studio\2022\Professional\VC\Tools\MSVC\14.44.35207\atlmfc\include\atlsimpstr.h
; File C:\Program Files\Microsoft Visual Studio\2022\Professional\VC\Tools\MSVC\14.44.35207\atlmfc\include\cstringt.h
;	COMDAT ??HATL@@YA?AV?$CStringT@DV?$StrTraitMFC@DV?$ChTraitsCRT@D@ATL@@@@@0@ABV10@PBD@Z
_TEXT	SEGMENT
_psz1$1$ = -24						; size = 4
$T2 = -20						; size = 4
_pszBuffer$1$ = -16					; size = 4
tv469 = -16						; size = 4
__$EHRec$ = -12						; size = 12
___$ReturnUdt$ = 8					; size = 4
_str1$ = 12						; size = 4
_nLength1$1$ = 12					; size = 4
_psz2$ = 16						; size = 4
??HATL@@YA?AV?$CStringT@DV?$StrTraitMFC@DV?$ChTraitsCRT@D@ATL@@@@@0@ABV10@PBD@Z PROC ; ATL::operator+, COMDAT

; 2404 : 	{

  00000	55		 push	 ebp
  00001	8b ec		 mov	 ebp, esp
  00003	6a ff		 push	 -1
  00005	68 00 00 00 00	 push	 __ehhandler$??HATL@@YA?AV?$CStringT@DV?$StrTraitMFC@DV?$ChTraitsCRT@D@ATL@@@@@0@ABV10@PBD@Z
  0000a	64 a1 00 00 00
	00		 mov	 eax, DWORD PTR fs:0
  00010	50		 push	 eax
  00011	83 ec 0c	 sub	 esp, 12			; 0000000cH
  00014	53		 push	 ebx
  00015	56		 push	 esi
  00016	57		 push	 edi
  00017	a1 00 00 00 00	 mov	 eax, DWORD PTR ___security_cookie
  0001c	33 c5		 xor	 eax, ebp
  0001e	50		 push	 eax
  0001f	8d 45 f4	 lea	 eax, DWORD PTR __$EHRec$[ebp]
  00022	64 a3 00 00 00
	00		 mov	 DWORD PTR fs:0, eax
; File C:\Program Files\Microsoft Visual Studio\2022\Professional\VC\Tools\MSVC\14.44.35207\atlmfc\include\atlsimpstr.h

; 527  : 		IAtlStringMgr* pStringMgr = GetData()->pStringMgr;

  00028	8b 7d 0c	 mov	 edi, DWORD PTR _str1$[ebp]
; File C:\Program Files\Microsoft Visual Studio\2022\Professional\VC\Tools\MSVC\14.44.35207\atlmfc\include\cstringt.h

; 2404 : 	{

  0002b	c7 45 ec 00 00
	00 00		 mov	 DWORD PTR $T2[ebp], 0
  00032	c7 45 fc 00 00
	00 00		 mov	 DWORD PTR __$EHRec$[ebp+8], 0
; File C:\Program Files\Microsoft Visual Studio\2022\Professional\VC\Tools\MSVC\14.44.35207\atlmfc\include\atlsimpstr.h

; 527  : 		IAtlStringMgr* pStringMgr = GetData()->pStringMgr;

  00039	8b 07		 mov	 eax, DWORD PTR [edi]
  0003b	8b 48 f0	 mov	 ecx, DWORD PTR [eax-16]

; 528  : 		return pStringMgr ? pStringMgr->Clone() : NULL;

  0003e	85 c9		 test	 ecx, ecx
  00040	74 0b		 je	 SHORT $LN6@operator
  00042	8b 01		 mov	 eax, DWORD PTR [ecx]
  00044	ff 50 10	 call	 DWORD PTR [eax+16]
  00047	8b c8		 mov	 ecx, eax
; File C:\Program Files\Microsoft Visual Studio\2022\Professional\VC\Tools\MSVC\14.44.35207\atlmfc\include\cstringt.h

; 1442 : 		if(pStringMgr) { return pStringMgr; }

  00049	85 c9		 test	 ecx, ecx
  0004b	75 16		 jne	 SHORT $LN19@operator
$LN6@operator:
; File C:\Program Files\Microsoft Visual Studio\2022\Professional\VC\Tools\MSVC\14.44.35207\atlmfc\include\afxstr.h

; 56   : 		return( AfxGetStringManager() );

  0004d	e8 00 00 00 00	 call	 ?AfxGetStringManager@@YGPAUIAtlStringMgr@ATL@@XZ ; AfxGetStringManager
; File C:\Program Files\Microsoft Visual Studio\2022\Professional\VC\Tools\MSVC\14.44.35207\atlmfc\include\cstringt.h

; 1445 : 		return pStringMgr->Clone();

  00052	8b c8		 mov	 ecx, eax
  00054	8b 10		 mov	 edx, DWORD PTR [eax]
  00056	ff 52 10	 call	 DWORD PTR [edx+16]
  00059	8b c8		 mov	 ecx, eax
; File C:\Program Files\Microsoft Visual Studio\2022\Professional\VC\Tools\MSVC\14.44.35207\atlmfc\include\atlsimpstr.h

; 209  : 		ATLENSURE( pStringMgr != NULL );

  0005b	85 c9		 test	 ecx, ecx
  0005d	0f 84 15 01 00
	00		 je	 $LN83@operator
$LN19@operator:

; 210  : 		CStringData* pData = pStringMgr->GetNilString();

  00063	8b 01		 mov	 eax, DWORD PTR [ecx]
  00065	ff 50 0c	 call	 DWORD PTR [eax+12]

; 211  : 		Attach( pData );

  00068	8b 5d 08	 mov	 ebx, DWORD PTR ___$ReturnUdt$[ebp]
  0006b	83 c0 10	 add	 eax, 16			; 00000010H
  0006e	89 45 f0	 mov	 DWORD PTR tv469[ebp], eax
  00071	89 03		 mov	 DWORD PTR [ebx], eax

; 726  : 		if( psz == NULL )

  00073	8b 45 10	 mov	 eax, DWORD PTR _psz2$[ebp]
; File C:\Program Files\Microsoft Visual Studio\2022\Professional\VC\Tools\MSVC\14.44.35207\atlmfc\include\cstringt.h

; 2409 : 		return( strResult );

  00076	c7 45 fc 00 00
	00 00		 mov	 DWORD PTR __$EHRec$[ebp+8], 0
  0007d	c7 45 ec 01 00
	00 00		 mov	 DWORD PTR $T2[ebp], 1
; File C:\Program Files\Microsoft Visual Studio\2022\Professional\VC\Tools\MSVC\14.44.35207\atlmfc\include\atlsimpstr.h

; 726  : 		if( psz == NULL )

  00084	85 c0		 test	 eax, eax
  00086	75 04		 jne	 SHORT $LN30@operator

; 727  : 		{
; 728  : 			return( 0 );

  00088	33 f6		 xor	 esi, esi
  0008a	eb 0e		 jmp	 SHORT $LN29@operator
$LN30@operator:

; 729  : 		}
; 730  : 		return( int( strlen( psz ) ) );

  0008c	8b f0		 mov	 esi, eax
  0008e	8d 4e 01	 lea	 ecx, DWORD PTR [esi+1]
$LL76@operator:
  00091	8a 06		 mov	 al, BYTE PTR [esi]
  00093	46		 inc	 esi
  00094	84 c0		 test	 al, al
  00096	75 f9		 jne	 SHORT $LL76@operator
  00098	2b f1		 sub	 esi, ecx
$LN29@operator:

; 523  : 		return( GetData()->nDataLength );

  0009a	8b 17		 mov	 edx, DWORD PTR [edi]
  0009c	89 55 e8	 mov	 DWORD PTR _psz1$1$[ebp], edx
; File C:\Program Files\Microsoft Visual Studio\2022\Professional\VC\Tools\MSVC\14.44.35207\atlmfc\include\cstringt.h

; 2407 : 		CThisSimpleString::Concatenate( strResult, str1, str1.GetLength(), psz2, CThisSimpleString::StringLength( psz2 ) );

  0009f	8b 42 f4	 mov	 eax, DWORD PTR [edx-12]
  000a2	89 45 0c	 mov	 DWORD PTR _nLength1$1$[ebp], eax
; File C:\Program Files\Microsoft Visual Studio\2022\Professional\VC\Tools\MSVC\14.44.35207\atlmfc\include\atlsimpstr.h

; 769  : 		int nNewLength = nLength1+nLength2;

  000a5	8d 3c 30	 lea	 edi, DWORD PTR [eax+esi]

; 808  : 		if (nLength < 0)

  000a8	85 ff		 test	 edi, edi
  000aa	0f 88 be 00 00
	00		 js	 $LN68@operator

; 809  : 			AtlThrow(E_INVALIDARG);
; 810  : 
; 811  : 		CStringData* pOldData = GetData();
; 812  : 		int nShared = 1-pOldData->nRefs;  // nShared < 0 means true, >= 0 means false

  000b0	8b 45 f0	 mov	 eax, DWORD PTR tv469[ebp]
  000b3	b9 01 00 00 00	 mov	 ecx, 1
  000b8	2b 48 fc	 sub	 ecx, DWORD PTR [eax-4]

; 813  : 		int nTooShort = pOldData->nAllocLength-nLength;  // nTooShort < 0 means true, >= 0 means false

  000bb	8b 40 f8	 mov	 eax, DWORD PTR [eax-8]
  000be	2b c7		 sub	 eax, edi

; 814  : 		if( (nShared|nTooShort) < 0 )  // If either sign bit is set (i.e. either is less than zero), we need to copy data

  000c0	0b c8		 or	 ecx, eax
  000c2	7d 0b		 jge	 SHORT $LN42@operator

; 815  : 		{
; 816  : 			PrepareWrite2( nLength );

  000c4	57		 push	 edi
  000c5	8b cb		 mov	 ecx, ebx
  000c7	e8 00 00 00 00	 call	 ?PrepareWrite2@?$CSimpleStringT@D$0A@@ATL@@AAEXH@Z ; ATL::CSimpleStringT<char,0>::PrepareWrite2
  000cc	8b 55 e8	 mov	 edx, DWORD PTR _psz1$1$[ebp]
$LN42@operator:
; File C:\Program Files (x86)\Windows Kits\10\Include\10.0.26100.0\ucrt\corecrt_memcpy_s.h

; 47   :         if (_SourceSize == 0)

  000cf	8b 4d 0c	 mov	 ecx, DWORD PTR _nLength1$1$[ebp]
; File C:\Program Files\Microsoft Visual Studio\2022\Professional\VC\Tools\MSVC\14.44.35207\atlmfc\include\atlsimpstr.h

; 770  : 		PXSTR pszBuffer = strResult.GetBuffer( nNewLength );

  000d2	8b 03		 mov	 eax, DWORD PTR [ebx]
  000d4	89 45 f0	 mov	 DWORD PTR _pszBuffer$1$[ebp], eax
; File C:\Program Files (x86)\Windows Kits\10\Include\10.0.26100.0\ucrt\corecrt_memcpy_s.h

; 47   :         if (_SourceSize == 0)

  000d7	85 c9		 test	 ecx, ecx
  000d9	74 36		 je	 SHORT $LN53@operator

; 48   :         {
; 49   :             return 0;
; 50   :         }
; 51   : 
; 52   :         _CRT_MEMCPY_S_VALIDATE_RETURN_ERRCODE(_Destination != NULL, EINVAL);

  000db	85 c0		 test	 eax, eax
  000dd	74 1c		 je	 SHORT $LN79@operator

; 53   :         if (_Source == NULL || _DestinationSize < _SourceSize)

  000df	51		 push	 ecx
  000e0	85 d2		 test	 edx, edx
  000e2	74 0c		 je	 SHORT $LN52@operator

; 56   : 
; 57   :             _CRT_MEMCPY_S_VALIDATE_RETURN_ERRCODE(_Source != NULL,                 EINVAL);
; 58   :             _CRT_MEMCPY_S_VALIDATE_RETURN_ERRCODE(_DestinationSize >= _SourceSize, ERANGE);
; 59   : 
; 60   :             // Unreachable, but required to suppress /analyze warnings:
; 61   :             return EINVAL;
; 62   :         }
; 63   :         memcpy(_Destination, _Source, _SourceSize);

  000e4	52		 push	 edx
  000e5	50		 push	 eax
  000e6	e8 00 00 00 00	 call	 _memcpy
  000eb	83 c4 0c	 add	 esp, 12			; 0000000cH
  000ee	eb 1b		 jmp	 SHORT $LN80@operator
$LN52@operator:

; 54   :         {
; 55   :             memset(_Destination, 0, _DestinationSize);

  000f0	6a 00		 push	 0
  000f2	50		 push	 eax
  000f3	e8 00 00 00 00	 call	 _memset
  000f8	83 c4 0c	 add	 esp, 12			; 0000000cH
$LN79@operator:
; File C:\Program Files\Microsoft Visual Studio\2022\Professional\VC\Tools\MSVC\14.44.35207\atlmfc\include\atlsimpstr.h

; 772  : 		memcpy_s( pszBuffer+nLength1, nLength2 * sizeof( XCHAR ), psz2, nLength2 * sizeof( XCHAR ));

  000fb	e8 00 00 00 00	 call	 __errno
  00100	c7 00 16 00 00
	00		 mov	 DWORD PTR [eax], 22	; 00000016H
  00106	e8 00 00 00 00	 call	 __invalid_parameter_noinfo
$LN80@operator:
  0010b	8b 45 f0	 mov	 eax, DWORD PTR _pszBuffer$1$[ebp]
  0010e	8b 4d 0c	 mov	 ecx, DWORD PTR _nLength1$1$[ebp]
$LN53@operator:
  00111	03 c1		 add	 eax, ecx
; File C:\Program Files (x86)\Windows Kits\10\Include\10.0.26100.0\ucrt\corecrt_memcpy_s.h

; 47   :         if (_SourceSize == 0)

  00113	85 f6		 test	 esi, esi
  00115	74 33		 je	 SHORT $LN61@operator

; 48   :         {
; 49   :             return 0;
; 50   :         }
; 51   : 
; 52   :         _CRT_MEMCPY_S_VALIDATE_RETURN_ERRCODE(_Destination != NULL, EINVAL);

  00117	85 c0		 test	 eax, eax
  00119	74 1f		 je	 SHORT $LN81@operator

; 53   :         if (_Source == NULL || _DestinationSize < _SourceSize)

  0011b	8b 4d 10	 mov	 ecx, DWORD PTR _psz2$[ebp]
  0011e	56		 push	 esi
  0011f	85 c9		 test	 ecx, ecx
  00121	74 0c		 je	 SHORT $LN60@operator

; 56   : 
; 57   :             _CRT_MEMCPY_S_VALIDATE_RETURN_ERRCODE(_Source != NULL,                 EINVAL);
; 58   :             _CRT_MEMCPY_S_VALIDATE_RETURN_ERRCODE(_DestinationSize >= _SourceSize, ERANGE);
; 59   : 
; 60   :             // Unreachable, but required to suppress /analyze warnings:
; 61   :             return EINVAL;
; 62   :         }
; 63   :         memcpy(_Destination, _Source, _SourceSize);

  00123	51		 push	 ecx
  00124	50		 push	 eax
  00125	e8 00 00 00 00	 call	 _memcpy
  0012a	83 c4 0c	 add	 esp, 12			; 0000000cH
  0012d	eb 1b		 jmp	 SHORT $LN61@operator
$LN60@operator:

; 54   :         {
; 55   :             memset(_Destination, 0, _DestinationSize);

  0012f	6a 00		 push	 0
  00131	50		 push	 eax
  00132	e8 00 00 00 00	 call	 _memset
  00137	83 c4 0c	 add	 esp, 12			; 0000000cH
$LN81@operator:
; File C:\Program Files\Microsoft Visual Studio\2022\Professional\VC\Tools\MSVC\14.44.35207\atlmfc\include\atlsimpstr.h

; 875  : 		if( nLength < 0 || nLength > GetData()->nAllocLength)

  0013a	e8 00 00 00 00	 call	 __errno
  0013f	c7 00 16 00 00
	00		 mov	 DWORD PTR [eax], 22	; 00000016H
  00145	e8 00 00 00 00	 call	 __invalid_parameter_noinfo
$LN61@operator:
  0014a	8b 03		 mov	 eax, DWORD PTR [ebx]
  0014c	3b 78 f8	 cmp	 edi, DWORD PTR [eax-8]
  0014f	7f 1d		 jg	 SHORT $LN68@operator

; 877  : 
; 878  : 		GetData()->nDataLength = nLength;

  00151	89 78 f4	 mov	 DWORD PTR [eax-12], edi
; File C:\Program Files\Microsoft Visual Studio\2022\Professional\VC\Tools\MSVC\14.44.35207\atlmfc\include\cstringt.h

; 2409 : 		return( strResult );

  00154	8b c3		 mov	 eax, ebx
; File C:\Program Files\Microsoft Visual Studio\2022\Professional\VC\Tools\MSVC\14.44.35207\atlmfc\include\atlsimpstr.h

; 879  : 		m_pszData[nLength] = 0;

  00156	8b 0b		 mov	 ecx, DWORD PTR [ebx]
  00158	c6 04 0f 00	 mov	 BYTE PTR [edi+ecx], 0
; File C:\Program Files\Microsoft Visual Studio\2022\Professional\VC\Tools\MSVC\14.44.35207\atlmfc\include\cstringt.h

; 2410 : 	}

  0015c	8b 4d f4	 mov	 ecx, DWORD PTR __$EHRec$[ebp]
  0015f	64 89 0d 00 00
	00 00		 mov	 DWORD PTR fs:0, ecx
  00166	59		 pop	 ecx
  00167	5f		 pop	 edi
  00168	5e		 pop	 esi
  00169	5b		 pop	 ebx
  0016a	8b e5		 mov	 esp, ebp
  0016c	5d		 pop	 ebp
  0016d	c3		 ret	 0
$LN68@operator:
; File C:\Program Files\Microsoft Visual Studio\2022\Professional\VC\Tools\MSVC\14.44.35207\atlmfc\include\atlsimpstr.h

; 876  : 			AtlThrow(E_INVALIDARG);

  0016e	68 57 00 07 80	 push	 -2147024809		; 80070057H
  00173	e8 00 00 00 00	 call	 ?AtlThrowImpl@ATL@@YGXJ@Z ; ATL::AtlThrowImpl
$LN83@operator:

; 209  : 		ATLENSURE( pStringMgr != NULL );

  00178	68 05 40 00 80	 push	 -2147467259		; 80004005H
  0017d	e8 00 00 00 00	 call	 ?AtlThrowImpl@ATL@@YGXJ@Z ; ATL::AtlThrowImpl
$LN78@operator:
  00182	cc		 int	 3
_TEXT	ENDS
;	COMDAT text$x
text$x	SEGMENT
__unwindfunclet$??HATL@@YA?AV?$CStringT@DV?$StrTraitMFC@DV?$ChTraitsCRT@D@ATL@@@@@0@ABV10@PBD@Z$0:
  00000	8b 45 ec	 mov	 eax, DWORD PTR $T2[ebp]
  00003	83 e0 01	 and	 eax, 1
  00006	0f 84 0c 00 00
	00		 je	 $LN4@operator
  0000c	83 65 ec fe	 and	 DWORD PTR $T2[ebp], -2	; fffffffeH
  00010	8b 4d 08	 mov	 ecx, DWORD PTR ___$ReturnUdt$[ebp]
  00013	e9 00 00 00 00	 jmp	 ??1?$CStringT@DV?$StrTraitMFC@DV?$ChTraitsCRT@D@ATL@@@@@ATL@@QAE@XZ ; ATL::CStringT<char,StrTraitMFC<char,ATL::ChTraitsCRT<char> > >::~CStringT<char,StrTraitMFC<char,ATL::ChTraitsCRT<char> > >
$LN4@operator:
  00018	c3		 ret	 0
  00019	cc		 int	 3
  0001a	cc		 int	 3
  0001b	cc		 int	 3
  0001c	cc		 int	 3
  0001d	cc		 int	 3
__ehhandler$??HATL@@YA?AV?$CStringT@DV?$StrTraitMFC@DV?$ChTraitsCRT@D@ATL@@@@@0@ABV10@PBD@Z:
  0001e	90		 npad	 1
  0001f	90		 npad	 1
  00020	8b 54 24 08	 mov	 edx, DWORD PTR [esp+8]
  00024	8d 42 0c	 lea	 eax, DWORD PTR [edx+12]
  00027	8b 4a e4	 mov	 ecx, DWORD PTR [edx-28]
  0002a	33 c8		 xor	 ecx, eax
  0002c	e8 00 00 00 00	 call	 @__security_check_cookie@4
  00031	b8 00 00 00 00	 mov	 eax, OFFSET __ehfuncinfo$??HATL@@YA?AV?$CStringT@DV?$StrTraitMFC@DV?$ChTraitsCRT@D@ATL@@@@@0@ABV10@PBD@Z
  00036	e9 00 00 00 00	 jmp	 ___CxxFrameHandler3
text$x	ENDS
??HATL@@YA?AV?$CStringT@DV?$StrTraitMFC@DV?$ChTraitsCRT@D@ATL@@@@@0@ABV10@PBD@Z ENDP ; ATL::operator+
; Function compile flags: /Ogtp
; File C:\Program Files\Microsoft Visual Studio\2022\Professional\VC\Tools\MSVC\14.44.35207\atlmfc\include\cstringt.h
; File C:\Program Files\Microsoft Visual Studio\2022\Professional\VC\Tools\MSVC\14.44.35207\atlmfc\include\afxstr.h
; File C:\Program Files\Microsoft Visual Studio\2022\Professional\VC\Tools\MSVC\14.44.35207\atlmfc\include\cstringt.h
; File C:\Program Files\Microsoft Visual Studio\2022\Professional\VC\Tools\MSVC\14.44.35207\atlmfc\include\afxstr.h
; File C:\Program Files\Microsoft Visual Studio\2022\Professional\VC\Tools\MSVC\14.44.35207\atlmfc\include\cstringt.h
; File C:\Program Files\Microsoft Visual Studio\2022\Professional\VC\Tools\MSVC\14.44.35207\atlmfc\include\atlcore.h
; File C:\Program Files\Microsoft Visual Studio\2022\Professional\VC\Tools\MSVC\14.44.35207\atlmfc\include\cstringt.h
; File C:\Program Files\Microsoft Visual Studio\2022\Professional\VC\Tools\MSVC\14.44.35207\atlmfc\include\atlsimpstr.h
; File C:\Program Files\Microsoft Visual Studio\2022\Professional\VC\Tools\MSVC\14.44.35207\atlmfc\include\cstringt.h
; File C:\Program Files\Microsoft Visual Studio\2022\Professional\VC\Tools\MSVC\14.44.35207\atlmfc\include\atlsimpstr.h
; File C:\Program Files\Microsoft Visual Studio\2022\Professional\VC\Tools\MSVC\14.44.35207\atlmfc\include\cstringt.h
; File C:\Program Files\Microsoft Visual Studio\2022\Professional\VC\Tools\MSVC\14.44.35207\atlmfc\include\atlsimpstr.h
; File C:\Program Files\Microsoft Visual Studio\2022\Professional\VC\Tools\MSVC\14.44.35207\atlmfc\include\cstringt.h
; File C:\Program Files\Microsoft Visual Studio\2022\Professional\VC\Tools\MSVC\14.44.35207\atlmfc\include\atlsimpstr.h
; File C:\Program Files\Microsoft Visual Studio\2022\Professional\VC\Tools\MSVC\14.44.35207\atlmfc\include\cstringt.h
;	COMDAT ?LoadStringA@?$CStringT@DV?$StrTraitMFC@DV?$ChTraitsCRT@D@ATL@@@@@ATL@@QAEHI@Z
_TEXT	SEGMENT
_this$1$ = -4						; size = 4
_nID$ = 8						; size = 4
_hResource$1$ = 8					; size = 4
?LoadStringA@?$CStringT@DV?$StrTraitMFC@DV?$ChTraitsCRT@D@ATL@@@@@ATL@@QAEHI@Z PROC ; ATL::CStringT<char,StrTraitMFC<char,ATL::ChTraitsCRT<char> > >::LoadStringA, COMDAT
; _this$ = ecx

; 2340 : 	{

  00000	55		 push	 ebp
  00001	8b ec		 mov	 ebp, esp
  00003	51		 push	 ecx
  00004	53		 push	 ebx
  00005	57		 push	 edi
; File C:\Program Files\Microsoft Visual Studio\2022\Professional\VC\Tools\MSVC\14.44.35207\atlmfc\include\afxstr.h

; 51   : 		return( AfxFindStringResourceHandle( nID ) );

  00006	8b 7d 08	 mov	 edi, DWORD PTR _nID$[ebp]
  00009	57		 push	 edi
; File C:\Program Files\Microsoft Visual Studio\2022\Professional\VC\Tools\MSVC\14.44.35207\atlmfc\include\cstringt.h

; 2340 : 	{

  0000a	89 4d fc	 mov	 DWORD PTR _this$1$[ebp], ecx
; File C:\Program Files\Microsoft Visual Studio\2022\Professional\VC\Tools\MSVC\14.44.35207\atlmfc\include\afxstr.h

; 51   : 		return( AfxFindStringResourceHandle( nID ) );

  0000d	e8 00 00 00 00	 call	 ?AfxFindStringResourceHandle@@YGPAUHINSTANCE__@@I@Z ; AfxFindStringResourceHandle
; File C:\Program Files\Microsoft Visual Studio\2022\Professional\VC\Tools\MSVC\14.44.35207\atlmfc\include\cstringt.h

; 2341 : 		HINSTANCE hInstance = StringTraits::FindStringResourceInstance( nID );

  00012	8b d8		 mov	 ebx, eax

; 2342 : 		if( hInstance == NULL )

  00014	85 db		 test	 ebx, ebx
  00016	75 08		 jne	 SHORT $LN2@LoadString

; 2348 : 	}

  00018	5f		 pop	 edi
  00019	5b		 pop	 ebx
  0001a	8b e5		 mov	 esp, ebp
  0001c	5d		 pop	 ebp
  0001d	c2 04 00	 ret	 4
$LN2@LoadString:
; File C:\Program Files\Microsoft Visual Studio\2022\Professional\VC\Tools\MSVC\14.44.35207\atlmfc\include\atlcore.h

; 380  : 	hResource = ::FindResourceW(hInstance, MAKEINTRESOURCEW( (((id>>4)+1) & static_cast<WORD>(~0)) ), (LPWSTR) RT_STRING);

  00020	8b c7		 mov	 eax, edi
  00022	c1 e8 04	 shr	 eax, 4
  00025	56		 push	 esi
  00026	40		 inc	 eax
  00027	6a 06		 push	 6
  00029	0f b7 c0	 movzx	 eax, ax
  0002c	50		 push	 eax
  0002d	53		 push	 ebx
  0002e	ff 15 00 00 00
	00		 call	 DWORD PTR __imp__FindResourceW@12
  00034	89 45 08	 mov	 DWORD PTR _hResource$1$[ebp], eax

; 381  : 	if( hResource == NULL )

  00037	85 c0		 test	 eax, eax
  00039	0f 84 cc 00 00
	00		 je	 $LN51@LoadString

; 338  : 	hGlobal = ::LoadResource( hInstance, hResource );

  0003f	50		 push	 eax
  00040	53		 push	 ebx
  00041	ff 15 00 00 00
	00		 call	 DWORD PTR __imp__LoadResource@8

; 339  : 	if( hGlobal == NULL )

  00047	85 c0		 test	 eax, eax
  00049	75 04		 jne	 SHORT $LN15@LoadString

; 340  : 	{
; 341  : 		return( NULL );

  0004b	33 f6		 xor	 esi, esi
  0004d	eb 43		 jmp	 SHORT $LN18@LoadString
$LN15@LoadString:

; 342  : 	}
; 343  : 
; 344  : 	pImage = (const ATLSTRINGRESOURCEIMAGE*)::LockResource( hGlobal );

  0004f	50		 push	 eax
  00050	ff 15 00 00 00
	00		 call	 DWORD PTR __imp__LockResource@4
  00056	8b f0		 mov	 esi, eax

; 345  : 	if( pImage == NULL )

  00058	85 f6		 test	 esi, esi
  0005a	74 36		 je	 SHORT $LN18@LoadString
$LN16@LoadString:

; 346  : 	{
; 347  : 		return( NULL );
; 348  : 	}
; 349  : 
; 350  : 	nResourceSize = ::SizeofResource( hInstance, hResource );

  0005c	ff 75 08	 push	 DWORD PTR _hResource$1$[ebp]
  0005f	53		 push	 ebx
  00060	ff 15 00 00 00
	00		 call	 DWORD PTR __imp__SizeofResource@8

; 351  : 	pImageEnd = (const ATLSTRINGRESOURCEIMAGE*)(LPBYTE( pImage )+nResourceSize);

  00066	8d 0c 06	 lea	 ecx, DWORD PTR [esi+eax]

; 352  : 	iIndex = id&0x000f;

  00069	83 e7 0f	 and	 edi, 15			; 0000000fH

; 353  : 
; 354  : 	while( (iIndex > 0) && (pImage < pImageEnd) )

  0006c	76 14		 jbe	 SHORT $LN14@LoadString
  0006e	66 90		 npad	 2
$LL13@LoadString:
  00070	3b f1		 cmp	 esi, ecx
  00072	73 12		 jae	 SHORT $LN50@LoadString

; 355  : 	{
; 356  : 		pImage = (const ATLSTRINGRESOURCEIMAGE*)(LPBYTE( pImage )+(sizeof( ATLSTRINGRESOURCEIMAGE )+(pImage->nLength*sizeof( WCHAR ))));

  00074	0f b7 06	 movzx	 eax, WORD PTR [esi]
  00077	8d 34 46	 lea	 esi, DWORD PTR [esi+eax*2]
  0007a	83 c6 02	 add	 esi, 2

; 357  : 		iIndex--;

  0007d	83 ef 01	 sub	 edi, 1
  00080	75 ee		 jne	 SHORT $LL13@LoadString
$LN14@LoadString:

; 358  : 	}
; 359  : 	if( pImage >= pImageEnd )

  00082	3b f1		 cmp	 esi, ecx
  00084	72 04		 jb	 SHORT $LN17@LoadString
$LN50@LoadString:

; 360  : 	{
; 361  : 		return( NULL );

  00086	33 f6		 xor	 esi, esi
  00088	eb 08		 jmp	 SHORT $LN18@LoadString
$LN17@LoadString:

; 362  : 	}
; 363  : 	if( pImage->nLength == 0 )

  0008a	33 c0		 xor	 eax, eax
  0008c	66 39 06	 cmp	 WORD PTR [esi], ax
  0008f	0f 44 f0	 cmove	 esi, eax
$LN18@LoadString:
; File C:\Program Files\Microsoft Visual Studio\2022\Professional\VC\Tools\MSVC\14.44.35207\atlmfc\include\cstringt.h

; 2356 : 		if( pImage == NULL )

  00092	85 f6		 test	 esi, esi
  00094	74 75		 je	 SHORT $LN51@LoadString

; 2359 : 		}
; 2360 : 
; 2361 : 		int nLength = StringTraits::GetBaseTypeLength( pImage->achString, pImage->nLength );

  00096	0f b7 06	 movzx	 eax, WORD PTR [esi]
  00099	8d 4e 02	 lea	 ecx, DWORD PTR [esi+2]

; 350  : 		return ::WideCharToMultiByte( _AtlGetConversionACP(), 0, pszSource, nLength, NULL, 0, NULL, NULL );

  0009c	6a 00		 push	 0
  0009e	6a 00		 push	 0
  000a0	6a 00		 push	 0
  000a2	6a 00		 push	 0
  000a4	50		 push	 eax
  000a5	51		 push	 ecx
  000a6	6a 00		 push	 0
  000a8	6a 03		 push	 3
  000aa	ff 15 00 00 00
	00		 call	 DWORD PTR __imp__WideCharToMultiByte@32

; 2361 : 		int nLength = StringTraits::GetBaseTypeLength( pImage->achString, pImage->nLength );

  000b0	8b f8		 mov	 edi, eax
; File C:\Program Files\Microsoft Visual Studio\2022\Professional\VC\Tools\MSVC\14.44.35207\atlmfc\include\atlsimpstr.h

; 808  : 		if (nLength < 0)

  000b2	85 ff		 test	 edi, edi
  000b4	78 60		 js	 SHORT $LN38@LoadString

; 804  : 		return( reinterpret_cast< CStringData* >( m_pszData )-1 );

  000b6	8b 5d fc	 mov	 ebx, DWORD PTR _this$1$[ebp]

; 812  : 		int nShared = 1-pOldData->nRefs;  // nShared < 0 means true, >= 0 means false

  000b9	ba 01 00 00 00	 mov	 edx, 1

; 804  : 		return( reinterpret_cast< CStringData* >( m_pszData )-1 );

  000be	8b 0b		 mov	 ecx, DWORD PTR [ebx]

; 812  : 		int nShared = 1-pOldData->nRefs;  // nShared < 0 means true, >= 0 means false

  000c0	2b 51 fc	 sub	 edx, DWORD PTR [ecx-4]

; 813  : 		int nTooShort = pOldData->nAllocLength-nLength;  // nTooShort < 0 means true, >= 0 means false

  000c3	8b 49 f8	 mov	 ecx, DWORD PTR [ecx-8]
  000c6	2b cf		 sub	 ecx, edi

; 814  : 		if( (nShared|nTooShort) < 0 )  // If either sign bit is set (i.e. either is less than zero), we need to copy data

  000c8	0b d1		 or	 edx, ecx
  000ca	7d 08		 jge	 SHORT $LN26@LoadString

; 815  : 		{
; 816  : 			PrepareWrite2( nLength );

  000cc	57		 push	 edi
  000cd	8b cb		 mov	 ecx, ebx
  000cf	e8 00 00 00 00	 call	 ?PrepareWrite2@?$CSimpleStringT@D$0A@@ATL@@AAEXH@Z ; ATL::CSimpleStringT<char,0>::PrepareWrite2
$LN26@LoadString:
; File C:\Program Files\Microsoft Visual Studio\2022\Professional\VC\Tools\MSVC\14.44.35207\atlmfc\include\cstringt.h

; 2363 : 		StringTraits::ConvertToBaseType( pszBuffer, nLength, pImage->achString, pImage->nLength );

  000d4	0f b7 06	 movzx	 eax, WORD PTR [esi]

; 372  : 		::WideCharToMultiByte( _AtlGetConversionACP(), 0, pszSrc, nSrcLength, pszDest, nDestLength, NULL, NULL );

  000d7	6a 00		 push	 0
  000d9	6a 00		 push	 0
  000db	57		 push	 edi
  000dc	ff 33		 push	 DWORD PTR [ebx]
  000de	50		 push	 eax
  000df	8d 46 02	 lea	 eax, DWORD PTR [esi+2]
  000e2	50		 push	 eax
  000e3	6a 00		 push	 0
  000e5	6a 03		 push	 3
  000e7	ff 15 00 00 00
	00		 call	 DWORD PTR __imp__WideCharToMultiByte@32
; File C:\Program Files\Microsoft Visual Studio\2022\Professional\VC\Tools\MSVC\14.44.35207\atlmfc\include\atlsimpstr.h

; 875  : 		if( nLength < 0 || nLength > GetData()->nAllocLength)

  000ed	8b 03		 mov	 eax, DWORD PTR [ebx]
  000ef	3b 78 f8	 cmp	 edi, DWORD PTR [eax-8]
  000f2	7f 22		 jg	 SHORT $LN38@LoadString

; 877  : 
; 878  : 		GetData()->nDataLength = nLength;

  000f4	89 78 f4	 mov	 DWORD PTR [eax-12], edi

; 879  : 		m_pszData[nLength] = 0;

  000f7	8b 03		 mov	 eax, DWORD PTR [ebx]
; File C:\Program Files\Microsoft Visual Studio\2022\Professional\VC\Tools\MSVC\14.44.35207\atlmfc\include\cstringt.h

; 2347 : 		return( LoadString( hInstance, nID ) );

  000f9	5e		 pop	 esi
; File C:\Program Files\Microsoft Visual Studio\2022\Professional\VC\Tools\MSVC\14.44.35207\atlmfc\include\atlsimpstr.h

; 879  : 		m_pszData[nLength] = 0;

  000fa	c6 04 07 00	 mov	 BYTE PTR [edi+eax], 0
; File C:\Program Files\Microsoft Visual Studio\2022\Professional\VC\Tools\MSVC\14.44.35207\atlmfc\include\cstringt.h

; 2366 : 		return( TRUE );

  000fe	b8 01 00 00 00	 mov	 eax, 1
  00103	5f		 pop	 edi

; 2348 : 	}

  00104	5b		 pop	 ebx
  00105	8b e5		 mov	 esp, ebp
  00107	5d		 pop	 ebp
  00108	c2 04 00	 ret	 4
$LN51@LoadString:

; 2347 : 		return( LoadString( hInstance, nID ) );

  0010b	5e		 pop	 esi
  0010c	5f		 pop	 edi

; 2358 : 			return( FALSE );

  0010d	33 c0		 xor	 eax, eax

; 2348 : 	}

  0010f	5b		 pop	 ebx
  00110	8b e5		 mov	 esp, ebp
  00112	5d		 pop	 ebp
  00113	c2 04 00	 ret	 4
$LN38@LoadString:
; File C:\Program Files\Microsoft Visual Studio\2022\Professional\VC\Tools\MSVC\14.44.35207\atlmfc\include\atlsimpstr.h

; 876  : 			AtlThrow(E_INVALIDARG);

  00116	68 57 00 07 80	 push	 -2147024809		; 80070057H
  0011b	e8 00 00 00 00	 call	 ?AtlThrowImpl@ATL@@YGXJ@Z ; ATL::AtlThrowImpl
$LN63@LoadString:
  00120	cc		 int	 3
?LoadStringA@?$CStringT@DV?$StrTraitMFC@DV?$ChTraitsCRT@D@ATL@@@@@ATL@@QAEHI@Z ENDP ; ATL::CStringT<char,StrTraitMFC<char,ATL::ChTraitsCRT<char> > >::LoadStringA
_TEXT	ENDS
; Function compile flags: /Ogtp
; File C:\Program Files\Microsoft Visual Studio\2022\Professional\VC\Tools\MSVC\14.44.35207\atlmfc\include\cstringt.h
; File C:\Program Files\Microsoft Visual Studio\2022\Professional\VC\Tools\MSVC\14.44.35207\atlmfc\include\atlsimpstr.h
; File C:\Program Files\Microsoft Visual Studio\2022\Professional\VC\Tools\MSVC\14.44.35207\atlmfc\include\cstringt.h
; File C:\Program Files\Microsoft Visual Studio\2022\Professional\VC\Tools\MSVC\14.44.35207\atlmfc\include\atlsimpstr.h
; File C:\Program Files\Microsoft Visual Studio\2022\Professional\VC\Tools\MSVC\14.44.35207\atlmfc\include\cstringt.h
; File C:\Program Files\Microsoft Visual Studio\2022\Professional\VC\Tools\MSVC\14.44.35207\atlmfc\include\atlsimpstr.h
; File C:\Program Files\Microsoft Visual Studio\2022\Professional\VC\Tools\MSVC\14.44.35207\atlmfc\include\cstringt.h
; File C:\Program Files (x86)\Windows Kits\10\Include\10.0.26100.0\ucrt\corecrt_memcpy_s.h
; File C:\Program Files\Microsoft Visual Studio\2022\Professional\VC\Tools\MSVC\14.44.35207\atlmfc\include\atlchecked.h
; File C:\Program Files (x86)\Windows Kits\10\Include\10.0.26100.0\ucrt\corecrt_memcpy_s.h
; File C:\Program Files\Microsoft Visual Studio\2022\Professional\VC\Tools\MSVC\14.44.35207\atlmfc\include\atlchecked.h
; File C:\Program Files (x86)\Windows Kits\10\Include\10.0.26100.0\ucrt\corecrt_memcpy_s.h
; File C:\Program Files\Microsoft Visual Studio\2022\Professional\VC\Tools\MSVC\14.44.35207\atlmfc\include\atlchecked.h
; File C:\Program Files\Microsoft Visual Studio\2022\Professional\VC\Tools\MSVC\14.44.35207\atlmfc\include\cstringt.h
; File C:\Program Files\Microsoft Visual Studio\2022\Professional\VC\Tools\MSVC\14.44.35207\atlmfc\include\atlsimpstr.h
; File C:\Program Files\Microsoft Visual Studio\2022\Professional\VC\Tools\MSVC\14.44.35207\atlmfc\include\cstringt.h
; File C:\Program Files\Microsoft Visual Studio\2022\Professional\VC\Tools\MSVC\14.44.35207\atlmfc\include\atlsimpstr.h
; File C:\Program Files\Microsoft Visual Studio\2022\Professional\VC\Tools\MSVC\14.44.35207\atlmfc\include\cstringt.h
; File C:\Program Files\Microsoft Visual Studio\2022\Professional\VC\Tools\MSVC\14.44.35207\atlmfc\include\atlsimpstr.h
; File C:\Program Files\Microsoft Visual Studio\2022\Professional\VC\Tools\MSVC\14.44.35207\atlmfc\include\cstringt.h
;	COMDAT ?Replace@?$CStringT@DV?$StrTraitMFC@DV?$ChTraitsCRT@D@ATL@@@@@ATL@@QAEHPBD0@Z
_TEXT	SEGMENT
_pszEnd$1$ = -32					; size = 4
__S1$1$ = -28						; size = 4
_pszBuffer$1$ = -24					; size = 4
$T1 = -20						; size = 4
_nNewLength$1$ = -16					; size = 4
$T2 = -16						; size = 4
_pszEnd$1$ = -12					; size = 4
_nOldLength$1$ = -12					; size = 4
_nCount$1$ = -8						; size = 4
_this$1$ = -4						; size = 4
_pszOld$ = 8						; size = 4
_pszNew$ = 12						; size = 4
?Replace@?$CStringT@DV?$StrTraitMFC@DV?$ChTraitsCRT@D@ATL@@@@@ATL@@QAEHPBD0@Z PROC ; ATL::CStringT<char,StrTraitMFC<char,ATL::ChTraitsCRT<char> > >::Replace, COMDAT
; _this$ = ecx

; 1609 : 	{

  00000	55		 push	 ebp
  00001	8b ec		 mov	 ebp, esp
  00003	83 ec 20	 sub	 esp, 32			; 00000020H
  00006	56		 push	 esi
  00007	8b f1		 mov	 esi, ecx

; 495  : 		return (psz != NULL) ? int( strlen( psz ) ) : 0;

  00009	8b 4d 08	 mov	 ecx, DWORD PTR _pszOld$[ebp]

; 1609 : 	{

  0000c	89 75 fc	 mov	 DWORD PTR _this$1$[ebp], esi
  0000f	57		 push	 edi

; 495  : 		return (psz != NULL) ? int( strlen( psz ) ) : 0;

  00010	85 c9		 test	 ecx, ecx
  00012	0f 84 3c 02 00
	00		 je	 $LN98@Replace
  00018	8b f9		 mov	 edi, ecx
  0001a	8d 57 01	 lea	 edx, DWORD PTR [edi+1]
  0001d	0f 1f 00	 npad	 3
$LL100@Replace:
  00020	8a 07		 mov	 al, BYTE PTR [edi]
  00022	47		 inc	 edi
  00023	84 c0		 test	 al, al
  00025	75 f9		 jne	 SHORT $LL100@Replace
  00027	2b fa		 sub	 edi, edx
  00029	89 7d ec	 mov	 DWORD PTR $T1[ebp], edi

; 1610 : 		// can't have empty or NULL lpszOld
; 1611 : 
; 1612 : 		// nSourceLen is in XCHARs
; 1613 : 		int nSourceLen = StringTraits::SafeStringLen( pszOld );
; 1614 : 		if( nSourceLen == 0 )

  0002c	0f 84 22 02 00
	00		 je	 $LN98@Replace
  00032	53		 push	 ebx

; 495  : 		return (psz != NULL) ? int( strlen( psz ) ) : 0;

  00033	8b 5d 0c	 mov	 ebx, DWORD PTR _pszNew$[ebp]
  00036	85 db		 test	 ebx, ebx
  00038	74 14		 je	 SHORT $LN19@Replace
  0003a	8d 4b 01	 lea	 ecx, DWORD PTR [ebx+1]
  0003d	0f 1f 00	 npad	 3
$LL101@Replace:
  00040	8a 03		 mov	 al, BYTE PTR [ebx]
  00042	43		 inc	 ebx
  00043	84 c0		 test	 al, al
  00045	75 f9		 jne	 SHORT $LL101@Replace
  00047	2b d9		 sub	 ebx, ecx
  00049	8b 4d 08	 mov	 ecx, DWORD PTR _pszOld$[ebp]
  0004c	eb 02		 jmp	 SHORT $LN135@Replace
$LN19@Replace:
  0004e	33 db		 xor	 ebx, ebx
$LN135@Replace:

; 1616 : 		// nReplacementLen is in XCHARs
; 1617 : 		int nReplacementLen = StringTraits::SafeStringLen( pszNew );
; 1618 : 
; 1619 : 		// loop once to figure out the size of the result string
; 1620 : 		int nCount = 0;
; 1621 : 		{
; 1622 : 			PCXSTR pszStart = this->GetString();

  00050	8b 36		 mov	 esi, DWORD PTR [esi]
  00052	89 5d f0	 mov	 DWORD PTR $T2[ebp], ebx
  00055	c7 45 f8 00 00
	00 00		 mov	 DWORD PTR _nCount$1$[ebp], 0

; 1623 : 			PCXSTR pszEnd = pszStart + this->GetLength();

  0005c	8b 46 f4	 mov	 eax, DWORD PTR [esi-12]
  0005f	03 c6		 add	 eax, esi
  00061	89 45 f4	 mov	 DWORD PTR _pszEnd$1$[ebp], eax

; 1624 : 			while( pszStart < pszEnd )

  00064	3b f0		 cmp	 esi, eax
  00066	0f 83 db 01 00
	00		 jae	 $LN105@Replace
  0006c	8b d8		 mov	 ebx, eax
  0006e	eb 03		 jmp	 SHORT $LN2@Replace
$LL104@Replace:
  00070	8b 4d 08	 mov	 ecx, DWORD PTR _pszOld$[ebp]
$LN2@Replace:

; 212  : 		return reinterpret_cast< LPCSTR >( _mbsstr( reinterpret_cast< const unsigned char* >( pszBlock ),

  00073	51		 push	 ecx
  00074	56		 push	 esi
  00075	e8 00 00 00 00	 call	 __mbsstr
  0007a	83 c4 08	 add	 esp, 8

; 1625 : 			{
; 1626 : 				PCXSTR pszTarget;
; 1627 : 				while( (pszTarget = StringTraits::StringFindString( pszStart, pszOld ) ) != NULL)

  0007d	85 c0		 test	 eax, eax
  0007f	74 1d		 je	 SHORT $LN5@Replace
  00081	8b 5d f8	 mov	 ebx, DWORD PTR _nCount$1$[ebp]
$LL4@Replace:

; 212  : 		return reinterpret_cast< LPCSTR >( _mbsstr( reinterpret_cast< const unsigned char* >( pszBlock ),

  00084	ff 75 08	 push	 DWORD PTR _pszOld$[ebp]

; 1628 : 				{
; 1629 : 					nCount++;
; 1630 : 					pszStart = pszTarget+nSourceLen;

  00087	8d 34 07	 lea	 esi, DWORD PTR [edi+eax]
  0008a	43		 inc	 ebx

; 212  : 		return reinterpret_cast< LPCSTR >( _mbsstr( reinterpret_cast< const unsigned char* >( pszBlock ),

  0008b	56		 push	 esi
  0008c	e8 00 00 00 00	 call	 __mbsstr
  00091	83 c4 08	 add	 esp, 8

; 1625 : 			{
; 1626 : 				PCXSTR pszTarget;
; 1627 : 				while( (pszTarget = StringTraits::StringFindString( pszStart, pszOld ) ) != NULL)

  00094	85 c0		 test	 eax, eax
  00096	75 ec		 jne	 SHORT $LL4@Replace
  00098	89 5d f8	 mov	 DWORD PTR _nCount$1$[ebp], ebx
  0009b	8b 5d f4	 mov	 ebx, DWORD PTR _pszEnd$1$[ebp]
$LN5@Replace:

; 495  : 		return (psz != NULL) ? int( strlen( psz ) ) : 0;

  0009e	85 f6		 test	 esi, esi
  000a0	74 10		 je	 SHORT $LN29@Replace
  000a2	8b c6		 mov	 eax, esi
  000a4	8d 50 01	 lea	 edx, DWORD PTR [eax+1]
$LL102@Replace:
  000a7	8a 08		 mov	 cl, BYTE PTR [eax]
  000a9	40		 inc	 eax
  000aa	84 c9		 test	 cl, cl
  000ac	75 f9		 jne	 SHORT $LL102@Replace
  000ae	2b c2		 sub	 eax, edx
  000b0	eb 02		 jmp	 SHORT $LN30@Replace
$LN29@Replace:
  000b2	33 c0		 xor	 eax, eax
$LN30@Replace:

; 1631 : 				}
; 1632 : 				pszStart += StringTraits::SafeStringLen( pszStart )+1;

  000b4	46		 inc	 esi
  000b5	03 f0		 add	 esi, eax
  000b7	3b f3		 cmp	 esi, ebx
  000b9	72 b5		 jb	 SHORT $LL104@Replace

; 1633 : 			}
; 1634 : 		}
; 1635 : 
; 1636 : 		// if any changes were made, make them
; 1637 : 		if( nCount > 0 )

  000bb	8b 4d f8	 mov	 ecx, DWORD PTR _nCount$1$[ebp]
  000be	8b 5d f0	 mov	 ebx, DWORD PTR $T2[ebp]
  000c1	85 c9		 test	 ecx, ecx
  000c3	0f 8e 80 01 00
	00		 jle	 $LN76@Replace
; File C:\Program Files\Microsoft Visual Studio\2022\Professional\VC\Tools\MSVC\14.44.35207\atlmfc\include\atlsimpstr.h

; 523  : 		return( GetData()->nDataLength );

  000c9	8b 45 fc	 mov	 eax, DWORD PTR _this$1$[ebp]
; File C:\Program Files\Microsoft Visual Studio\2022\Professional\VC\Tools\MSVC\14.44.35207\atlmfc\include\cstringt.h

; 1642 : 			int nNewLength = nOldLength+(nReplacementLen-nSourceLen)*nCount;

  000cc	8b d3		 mov	 edx, ebx
  000ce	2b d7		 sub	 edx, edi
  000d0	0f af d1	 imul	 edx, ecx
; File C:\Program Files\Microsoft Visual Studio\2022\Professional\VC\Tools\MSVC\14.44.35207\atlmfc\include\atlsimpstr.h

; 523  : 		return( GetData()->nDataLength );

  000d3	8b 00		 mov	 eax, DWORD PTR [eax]
; File C:\Program Files\Microsoft Visual Studio\2022\Professional\VC\Tools\MSVC\14.44.35207\atlmfc\include\cstringt.h

; 1641 : 			int nOldLength = this->GetLength();

  000d5	8b 70 f4	 mov	 esi, DWORD PTR [eax-12]

; 1642 : 			int nNewLength = nOldLength+(nReplacementLen-nSourceLen)*nCount;

  000d8	03 d6		 add	 edx, esi
  000da	89 55 f0	 mov	 DWORD PTR _nNewLength$1$[ebp], edx

; 1644 : 			PXSTR pszBuffer = this->GetBuffer( __max( nNewLength, nOldLength ) );

  000dd	8b d6		 mov	 edx, esi
  000df	39 75 f0	 cmp	 DWORD PTR _nNewLength$1$[ebp], esi
  000e2	89 75 f4	 mov	 DWORD PTR _nOldLength$1$[ebp], esi
  000e5	0f 4f 55 f0	 cmovg	 edx, DWORD PTR _nNewLength$1$[ebp]
; File C:\Program Files\Microsoft Visual Studio\2022\Professional\VC\Tools\MSVC\14.44.35207\atlmfc\include\atlsimpstr.h

; 808  : 		if (nLength < 0)

  000e9	85 d2		 test	 edx, edx
  000eb	0f 88 6d 01 00
	00		 js	 $LN75@Replace

; 809  : 			AtlThrow(E_INVALIDARG);
; 810  : 
; 811  : 		CStringData* pOldData = GetData();
; 812  : 		int nShared = 1-pOldData->nRefs;  // nShared < 0 means true, >= 0 means false

  000f1	b9 01 00 00 00	 mov	 ecx, 1
  000f6	2b 48 fc	 sub	 ecx, DWORD PTR [eax-4]

; 813  : 		int nTooShort = pOldData->nAllocLength-nLength;  // nTooShort < 0 means true, >= 0 means false

  000f9	8b 40 f8	 mov	 eax, DWORD PTR [eax-8]
  000fc	2b c2		 sub	 eax, edx

; 814  : 		if( (nShared|nTooShort) < 0 )  // If either sign bit is set (i.e. either is less than zero), we need to copy data

  000fe	0b c8		 or	 ecx, eax
  00100	7d 09		 jge	 SHORT $LN39@Replace

; 815  : 		{
; 816  : 			PrepareWrite2( nLength );

  00102	8b 4d fc	 mov	 ecx, DWORD PTR _this$1$[ebp]
  00105	52		 push	 edx
  00106	e8 00 00 00 00	 call	 ?PrepareWrite2@?$CSimpleStringT@D$0A@@ATL@@AAEXH@Z ; ATL::CSimpleStringT<char,0>::PrepareWrite2
$LN39@Replace:
; File C:\Program Files\Microsoft Visual Studio\2022\Professional\VC\Tools\MSVC\14.44.35207\atlmfc\include\cstringt.h

; 1644 : 			PXSTR pszBuffer = this->GetBuffer( __max( nNewLength, nOldLength ) );

  0010b	8b 55 fc	 mov	 edx, DWORD PTR _this$1$[ebp]
  0010e	8b 02		 mov	 eax, DWORD PTR [edx]

; 1645 : 
; 1646 : 			PXSTR pszStart = pszBuffer;

  00110	8b f8		 mov	 edi, eax
  00112	89 45 e8	 mov	 DWORD PTR _pszBuffer$1$[ebp], eax

; 1647 : 			PXSTR pszEnd = pszStart+nOldLength;

  00115	8d 0c 30	 lea	 ecx, DWORD PTR [eax+esi]
  00118	89 4d e0	 mov	 DWORD PTR _pszEnd$1$[ebp], ecx

; 1648 : 
; 1649 : 			// loop again to actually do the work
; 1650 : 			while( pszStart < pszEnd )

  0011b	3b c1		 cmp	 eax, ecx
  0011d	0f 83 ff 00 00
	00		 jae	 $LN7@Replace
$LL6@Replace:

; 212  : 		return reinterpret_cast< LPCSTR >( _mbsstr( reinterpret_cast< const unsigned char* >( pszBlock ),

  00123	ff 75 08	 push	 DWORD PTR _pszOld$[ebp]
  00126	57		 push	 edi
  00127	e8 00 00 00 00	 call	 __mbsstr

; 1651 : 			{
; 1652 : 				PXSTR pszTarget;
; 1653 : 				while( (pszTarget = StringTraits::StringFindString( pszStart, pszOld ) ) != NULL )

  0012c	8b f0		 mov	 esi, eax

; 212  : 		return reinterpret_cast< LPCSTR >( _mbsstr( reinterpret_cast< const unsigned char* >( pszBlock ),

  0012e	83 c4 08	 add	 esp, 8

; 1651 : 			{
; 1652 : 				PXSTR pszTarget;
; 1653 : 				while( (pszTarget = StringTraits::StringFindString( pszStart, pszOld ) ) != NULL )

  00131	85 f6		 test	 esi, esi
  00133	0f 84 c4 00 00
	00		 je	 $LN9@Replace
  00139	0f 1f 80 00 00
	00 00		 npad	 7
$LL8@Replace:

; 1654 : 				{
; 1655 : 					int nBalance = nOldLength-int(pszTarget-pszBuffer+nSourceLen);

  00140	8b 7d e8	 mov	 edi, DWORD PTR _pszBuffer$1$[ebp]

; 1656 : 					Checked::memmove_s( pszTarget+nReplacementLen, nBalance*sizeof( XCHAR ),

  00143	8d 0c 33	 lea	 ecx, DWORD PTR [ebx+esi]
  00146	8b 45 ec	 mov	 eax, DWORD PTR $T1[ebp]
  00149	2b f8		 sub	 edi, eax
  0014b	2b fe		 sub	 edi, esi
  0014d	89 4d e4	 mov	 DWORD PTR __S1$1$[ebp], ecx
  00150	8d 04 30	 lea	 eax, DWORD PTR [eax+esi]
  00153	03 7d f4	 add	 edi, DWORD PTR _nOldLength$1$[ebp]
; File C:\Program Files (x86)\Windows Kits\10\Include\10.0.26100.0\ucrt\corecrt_memcpy_s.h

; 76   :         if (_SourceSize == 0)

  00156	74 2a		 je	 SHORT $LN136@Replace

; 77   :         {
; 78   :             return 0;
; 79   :         }
; 80   : 
; 81   :         _CRT_MEMCPY_S_VALIDATE_RETURN_ERRCODE(_Destination != NULL,            EINVAL);

  00158	85 c9		 test	 ecx, ecx
  0015a	75 17		 jne	 SHORT $LN53@Replace
$LN137@Replace:
; File C:\Program Files\Microsoft Visual Studio\2022\Professional\VC\Tools\MSVC\14.44.35207\atlmfc\include\atlchecked.h

; 91   : 	ATLMFC_CRT_ERRORCHECK(::memmove_s(_S1, _S1max, _S2, _N));

  0015c	e8 00 00 00 00	 call	 __errno
  00161	c7 00 16 00 00
	00		 mov	 DWORD PTR [eax], 22	; 00000016H
  00167	e8 00 00 00 00	 call	 __invalid_parameter_noinfo
  0016c	b8 16 00 00 00	 mov	 eax, 22			; 00000016H
  00171	eb 11		 jmp	 SHORT $LN51@Replace
$LN53@Replace:
; File C:\Program Files (x86)\Windows Kits\10\Include\10.0.26100.0\ucrt\corecrt_memcpy_s.h

; 82   :         _CRT_MEMCPY_S_VALIDATE_RETURN_ERRCODE(_Source != NULL,                 EINVAL);

  00173	85 c0		 test	 eax, eax
  00175	74 e5		 je	 SHORT $LN137@Replace

; 83   :         _CRT_MEMCPY_S_VALIDATE_RETURN_ERRCODE(_DestinationSize >= _SourceSize, ERANGE);
; 84   : 
; 85   :         memmove(_Destination, _Source, _SourceSize);

  00177	57		 push	 edi
  00178	50		 push	 eax
  00179	51		 push	 ecx
  0017a	e8 00 00 00 00	 call	 _memmove
  0017f	83 c4 0c	 add	 esp, 12			; 0000000cH
$LN136@Replace:
; File C:\Program Files\Microsoft Visual Studio\2022\Professional\VC\Tools\MSVC\14.44.35207\atlmfc\include\atlchecked.h

; 91   : 	ATLMFC_CRT_ERRORCHECK(::memmove_s(_S1, _S1max, _S2, _N));

  00182	33 c0		 xor	 eax, eax
$LN51@Replace:
  00184	50		 push	 eax
  00185	e8 00 00 00 00	 call	 ?AfxCrtErrorCheck@@YAHH@Z ; AfxCrtErrorCheck
  0018a	83 c4 04	 add	 esp, 4
; File C:\Program Files (x86)\Windows Kits\10\Include\10.0.26100.0\ucrt\corecrt_memcpy_s.h

; 47   :         if (_SourceSize == 0)

  0018d	85 db		 test	 ebx, ebx
  0018f	75 04		 jne	 SHORT $LN60@Replace

; 48   :         {
; 49   :             return 0;

  00191	33 c0		 xor	 eax, eax
  00193	eb 3a		 jmp	 SHORT $LN59@Replace
$LN60@Replace:

; 50   :         }
; 51   : 
; 52   :         _CRT_MEMCPY_S_VALIDATE_RETURN_ERRCODE(_Destination != NULL, EINVAL);

  00195	85 f6		 test	 esi, esi
  00197	74 21		 je	 SHORT $LN138@Replace

; 53   :         if (_Source == NULL || _DestinationSize < _SourceSize)

  00199	8b 45 0c	 mov	 eax, DWORD PTR _pszNew$[ebp]
  0019c	53		 push	 ebx
  0019d	85 c0		 test	 eax, eax
  0019f	74 0e		 je	 SHORT $LN63@Replace

; 56   : 
; 57   :             _CRT_MEMCPY_S_VALIDATE_RETURN_ERRCODE(_Source != NULL,                 EINVAL);
; 58   :             _CRT_MEMCPY_S_VALIDATE_RETURN_ERRCODE(_DestinationSize >= _SourceSize, ERANGE);
; 59   : 
; 60   :             // Unreachable, but required to suppress /analyze warnings:
; 61   :             return EINVAL;
; 62   :         }
; 63   :         memcpy(_Destination, _Source, _SourceSize);

  001a1	50		 push	 eax
  001a2	56		 push	 esi
  001a3	e8 00 00 00 00	 call	 _memcpy
  001a8	83 c4 0c	 add	 esp, 12			; 0000000cH

; 64   :         return 0;

  001ab	33 c0		 xor	 eax, eax
  001ad	eb 20		 jmp	 SHORT $LN59@Replace
$LN63@Replace:

; 54   :         {
; 55   :             memset(_Destination, 0, _DestinationSize);

  001af	6a 00		 push	 0
  001b1	56		 push	 esi
  001b2	e8 00 00 00 00	 call	 _memset
  001b7	83 c4 0c	 add	 esp, 12			; 0000000cH
$LN138@Replace:
; File C:\Program Files\Microsoft Visual Studio\2022\Professional\VC\Tools\MSVC\14.44.35207\atlmfc\include\atlchecked.h

; 73   : 	ATLMFC_CRT_ERRORCHECK(::memcpy_s(_S1, _S1max, _S2, _N));

  001ba	e8 00 00 00 00	 call	 __errno
  001bf	c7 00 16 00 00
	00		 mov	 DWORD PTR [eax], 22	; 00000016H
  001c5	e8 00 00 00 00	 call	 __invalid_parameter_noinfo
  001ca	b8 16 00 00 00	 mov	 eax, 22			; 00000016H
$LN59@Replace:
  001cf	50		 push	 eax
  001d0	e8 00 00 00 00	 call	 ?AfxCrtErrorCheck@@YAHH@Z ; AfxCrtErrorCheck
; File C:\Program Files\Microsoft Visual Studio\2022\Professional\VC\Tools\MSVC\14.44.35207\atlmfc\include\cstringt.h

; 212  : 		return reinterpret_cast< LPCSTR >( _mbsstr( reinterpret_cast< const unsigned char* >( pszBlock ),

  001d5	ff 75 08	 push	 DWORD PTR _pszOld$[ebp]

; 1657 : 						pszTarget+nSourceLen, nBalance*sizeof( XCHAR ) );
; 1658 : 					Checked::memcpy_s( pszTarget, nReplacementLen*sizeof( XCHAR ),
; 1659 : 						pszNew, nReplacementLen*sizeof( XCHAR ) );
; 1660 : 					pszStart = pszTarget+nReplacementLen;
; 1661 : 					pszTarget[nReplacementLen+nBalance] = 0;

  001d8	8d 04 3b	 lea	 eax, DWORD PTR [ebx+edi]

; 212  : 		return reinterpret_cast< LPCSTR >( _mbsstr( reinterpret_cast< const unsigned char* >( pszBlock ),

  001db	8b 7d e4	 mov	 edi, DWORD PTR __S1$1$[ebp]

; 1657 : 						pszTarget+nSourceLen, nBalance*sizeof( XCHAR ) );
; 1658 : 					Checked::memcpy_s( pszTarget, nReplacementLen*sizeof( XCHAR ),
; 1659 : 						pszNew, nReplacementLen*sizeof( XCHAR ) );
; 1660 : 					pszStart = pszTarget+nReplacementLen;
; 1661 : 					pszTarget[nReplacementLen+nBalance] = 0;

  001de	c6 04 30 00	 mov	 BYTE PTR [eax+esi], 0

; 1662 : 					nOldLength += (nReplacementLen-nSourceLen);

  001e2	8b c3		 mov	 eax, ebx
  001e4	2b 45 ec	 sub	 eax, DWORD PTR $T1[ebp]
  001e7	01 45 f4	 add	 DWORD PTR _nOldLength$1$[ebp], eax

; 212  : 		return reinterpret_cast< LPCSTR >( _mbsstr( reinterpret_cast< const unsigned char* >( pszBlock ),

  001ea	57		 push	 edi
  001eb	e8 00 00 00 00	 call	 __mbsstr

; 1651 : 			{
; 1652 : 				PXSTR pszTarget;
; 1653 : 				while( (pszTarget = StringTraits::StringFindString( pszStart, pszOld ) ) != NULL )

  001f0	8b f0		 mov	 esi, eax

; 212  : 		return reinterpret_cast< LPCSTR >( _mbsstr( reinterpret_cast< const unsigned char* >( pszBlock ),

  001f2	83 c4 0c	 add	 esp, 12			; 0000000cH

; 1651 : 			{
; 1652 : 				PXSTR pszTarget;
; 1653 : 				while( (pszTarget = StringTraits::StringFindString( pszStart, pszOld ) ) != NULL )

  001f5	85 f6		 test	 esi, esi
  001f7	0f 85 43 ff ff
	ff		 jne	 $LL8@Replace
$LN9@Replace:

; 495  : 		return (psz != NULL) ? int( strlen( psz ) ) : 0;

  001fd	85 ff		 test	 edi, edi
  001ff	74 10		 je	 SHORT $LN69@Replace
  00201	8b cf		 mov	 ecx, edi
  00203	8d 51 01	 lea	 edx, DWORD PTR [ecx+1]
$LL103@Replace:
  00206	8a 01		 mov	 al, BYTE PTR [ecx]
  00208	41		 inc	 ecx
  00209	84 c0		 test	 al, al
  0020b	75 f9		 jne	 SHORT $LL103@Replace
  0020d	2b ca		 sub	 ecx, edx
  0020f	eb 02		 jmp	 SHORT $LN70@Replace
$LN69@Replace:
  00211	33 c9		 xor	 ecx, ecx
$LN70@Replace:

; 1663 : 				}
; 1664 : 				pszStart += StringTraits::SafeStringLen( pszStart )+1;

  00213	47		 inc	 edi
  00214	03 f9		 add	 edi, ecx
  00216	3b 7d e0	 cmp	 edi, DWORD PTR _pszEnd$1$[ebp]
  00219	0f 82 04 ff ff
	ff		 jb	 $LL6@Replace
  0021f	8b 55 fc	 mov	 edx, DWORD PTR _this$1$[ebp]
$LN7@Replace:
; File C:\Program Files\Microsoft Visual Studio\2022\Professional\VC\Tools\MSVC\14.44.35207\atlmfc\include\atlsimpstr.h

; 875  : 		if( nLength < 0 || nLength > GetData()->nAllocLength)

  00222	8b 4d f0	 mov	 ecx, DWORD PTR _nNewLength$1$[ebp]
  00225	85 c9		 test	 ecx, ecx
  00227	78 35		 js	 SHORT $LN75@Replace
  00229	8b 02		 mov	 eax, DWORD PTR [edx]
  0022b	3b 48 f8	 cmp	 ecx, DWORD PTR [eax-8]
  0022e	7f 2e		 jg	 SHORT $LN75@Replace

; 877  : 
; 878  : 		GetData()->nDataLength = nLength;

  00230	89 48 f4	 mov	 DWORD PTR [eax-12], ecx

; 879  : 		m_pszData[nLength] = 0;

  00233	8b 02		 mov	 eax, DWORD PTR [edx]
; File C:\Program Files\Microsoft Visual Studio\2022\Professional\VC\Tools\MSVC\14.44.35207\atlmfc\include\cstringt.h

; 1670 : 		return( nCount );

  00235	5b		 pop	 ebx
  00236	5f		 pop	 edi

; 1671 : 	}

  00237	5e		 pop	 esi
; File C:\Program Files\Microsoft Visual Studio\2022\Professional\VC\Tools\MSVC\14.44.35207\atlmfc\include\atlsimpstr.h

; 879  : 		m_pszData[nLength] = 0;

  00238	c6 04 01 00	 mov	 BYTE PTR [ecx+eax], 0
  0023c	8b 4d f8	 mov	 ecx, DWORD PTR _nCount$1$[ebp]
; File C:\Program Files\Microsoft Visual Studio\2022\Professional\VC\Tools\MSVC\14.44.35207\atlmfc\include\cstringt.h

; 1670 : 		return( nCount );

  0023f	8b c1		 mov	 eax, ecx

; 1671 : 	}

  00241	8b e5		 mov	 esp, ebp
  00243	5d		 pop	 ebp
  00244	c2 08 00	 ret	 8
$LN105@Replace:

; 1624 : 			while( pszStart < pszEnd )

  00247	33 c9		 xor	 ecx, ecx
$LN76@Replace:

; 1670 : 		return( nCount );

  00249	5b		 pop	 ebx
  0024a	5f		 pop	 edi
  0024b	8b c1		 mov	 eax, ecx

; 1671 : 	}

  0024d	5e		 pop	 esi
  0024e	8b e5		 mov	 esp, ebp
  00250	5d		 pop	 ebp
  00251	c2 08 00	 ret	 8
$LN98@Replace:
  00254	5f		 pop	 edi

; 1615 : 			return( 0 );

  00255	33 c0		 xor	 eax, eax

; 1671 : 	}

  00257	5e		 pop	 esi
  00258	8b e5		 mov	 esp, ebp
  0025a	5d		 pop	 ebp
  0025b	c2 08 00	 ret	 8
$LN75@Replace:
; File C:\Program Files\Microsoft Visual Studio\2022\Professional\VC\Tools\MSVC\14.44.35207\atlmfc\include\atlsimpstr.h

; 876  : 			AtlThrow(E_INVALIDARG);

  0025e	68 57 00 07 80	 push	 -2147024809		; 80070057H
  00263	e8 00 00 00 00	 call	 ?AtlThrowImpl@ATL@@YGXJ@Z ; ATL::AtlThrowImpl
$LN134@Replace:
  00268	cc		 int	 3
?Replace@?$CStringT@DV?$StrTraitMFC@DV?$ChTraitsCRT@D@ATL@@@@@ATL@@QAEHPBD0@Z ENDP ; ATL::CStringT<char,StrTraitMFC<char,ATL::ChTraitsCRT<char> > >::Replace
_TEXT	ENDS
; Function compile flags: /Ogtp
; File C:\Program Files\Microsoft Visual Studio\2022\Professional\VC\Tools\MSVC\14.44.35207\atlmfc\include\cstringt.h
; File C:\Program Files\Microsoft Visual Studio\2022\Professional\VC\Tools\MSVC\14.44.35207\atlmfc\include\atlsimpstr.h
; File C:\Program Files\Microsoft Visual Studio\2022\Professional\VC\Tools\MSVC\14.44.35207\atlmfc\include\cstringt.h
; File C:\Program Files\Microsoft Visual Studio\2022\Professional\VC\Tools\MSVC\14.44.35207\atlmfc\include\atlsimpstr.h
; File C:\Program Files\Microsoft Visual Studio\2022\Professional\VC\Tools\MSVC\14.44.35207\atlmfc\include\cstringt.h
; File C:\Program Files\Microsoft Visual Studio\2022\Professional\VC\Tools\MSVC\14.44.35207\atlmfc\include\atlsimpstr.h
; File C:\Program Files\Microsoft Visual Studio\2022\Professional\VC\Tools\MSVC\14.44.35207\atlmfc\include\cstringt.h
;	COMDAT ??4?$CStringT@DV?$StrTraitMFC@DV?$ChTraitsCRT@D@ATL@@@@@ATL@@QAEAAV01@ABV01@@Z
_TEXT	SEGMENT
_strSrc$ = 8						; size = 4
_pNewData$1$ = 8					; size = 4
??4?$CStringT@DV?$StrTraitMFC@DV?$ChTraitsCRT@D@ATL@@@@@ATL@@QAEAAV01@ABV01@@Z PROC ; ATL::CStringT<char,StrTraitMFC<char,ATL::ChTraitsCRT<char> > >::operator=, COMDAT
; _this$ = ecx

; 1307 : 	{

  00000	55		 push	 ebp
  00001	8b ec		 mov	 ebp, esp
; File C:\Program Files\Microsoft Visual Studio\2022\Professional\VC\Tools\MSVC\14.44.35207\atlmfc\include\atlsimpstr.h

; 804  : 		return( reinterpret_cast< CStringData* >( m_pszData )-1 );

  00003	8b 45 08	 mov	 eax, DWORD PTR _strSrc$[ebp]
; File C:\Program Files\Microsoft Visual Studio\2022\Professional\VC\Tools\MSVC\14.44.35207\atlmfc\include\cstringt.h

; 1307 : 	{

  00006	56		 push	 esi
  00007	8b f1		 mov	 esi, ecx
  00009	57		 push	 edi
; File C:\Program Files\Microsoft Visual Studio\2022\Professional\VC\Tools\MSVC\14.44.35207\atlmfc\include\atlsimpstr.h

; 804  : 		return( reinterpret_cast< CStringData* >( m_pszData )-1 );

  0000a	8b 08		 mov	 ecx, DWORD PTR [eax]
  0000c	8b 3e		 mov	 edi, DWORD PTR [esi]
  0000e	83 ef 10	 sub	 edi, 16			; 00000010H
  00011	8d 51 f0	 lea	 edx, DWORD PTR [ecx-16]

; 278  : 		if( pSrcData != pOldData)

  00014	3b d7		 cmp	 edx, edi
  00016	74 4d		 je	 SHORT $LN22@operator

; 73   : 		return nRefs < 0;

  00018	83 7f 0c 00	 cmp	 DWORD PTR [edi+12], 0
  0001c	53		 push	 ebx
  0001d	8d 5f 0c	 lea	 ebx, DWORD PTR [edi+12]

; 280  : 			if( pOldData->IsLocked() || pSrcData->pStringMgr != pOldData->pStringMgr )

  00020	7c 37		 jl	 SHORT $LN7@operator
  00022	8b 02		 mov	 eax, DWORD PTR [edx]
  00024	3b 07		 cmp	 eax, DWORD PTR [edi]
  00026	75 31		 jne	 SHORT $LN7@operator

; 283  : 			}
; 284  : 			else
; 285  : 			{
; 286  : 				CStringData* pNewData = CloneData( pSrcData );

  00028	52		 push	 edx
  00029	e8 00 00 00 00	 call	 ?CloneData@?$CSimpleStringT@D$0A@@ATL@@CAPAUCStringData@2@PAU32@@Z ; ATL::CSimpleStringT<char,0>::CloneData
  0002e	83 c4 04	 add	 esp, 4
  00031	89 45 08	 mov	 DWORD PTR _pNewData$1$[ebp], eax

; 92   : 		if( _InterlockedDecrement( &nRefs ) <= 0 )

  00034	83 c9 ff	 or	 ecx, -1
  00037	f0 0f c1 0b	 lock	  xadd	 DWORD PTR [ebx], ecx
  0003b	49		 dec	 ecx
  0003c	85 c9		 test	 ecx, ecx
  0003e	7f 0b		 jg	 SHORT $LN20@operator

; 93   : 		{
; 94   : 			pStringMgr->Free( this );

  00040	8b 0f		 mov	 ecx, DWORD PTR [edi]
  00042	57		 push	 edi
  00043	8b 11		 mov	 edx, DWORD PTR [ecx]
  00045	ff 52 04	 call	 DWORD PTR [edx+4]
  00048	8b 45 08	 mov	 eax, DWORD PTR _pNewData$1$[ebp]
$LN20@operator:

; 288  : 				Attach( pNewData );

  0004b	83 c0 10	 add	 eax, 16			; 00000010H
  0004e	5b		 pop	 ebx
  0004f	89 06		 mov	 DWORD PTR [esi], eax
; File C:\Program Files\Microsoft Visual Studio\2022\Professional\VC\Tools\MSVC\14.44.35207\atlmfc\include\cstringt.h

; 1311 : 	}

  00051	8b c6		 mov	 eax, esi
  00053	5f		 pop	 edi
  00054	5e		 pop	 esi
  00055	5d		 pop	 ebp
  00056	c2 04 00	 ret	 4
$LN7@operator:
; File C:\Program Files\Microsoft Visual Studio\2022\Professional\VC\Tools\MSVC\14.44.35207\atlmfc\include\atlsimpstr.h

; 282  : 				SetString( strSrc.GetString(), strSrc.GetLength() );

  00059	ff 71 f4	 push	 DWORD PTR [ecx-12]
  0005c	51		 push	 ecx
  0005d	8b ce		 mov	 ecx, esi
  0005f	e8 00 00 00 00	 call	 ?SetString@?$CSimpleStringT@D$0A@@ATL@@QAEXPBDH@Z ; ATL::CSimpleStringT<char,0>::SetString
  00064	5b		 pop	 ebx
$LN22@operator:
  00065	5f		 pop	 edi
; File C:\Program Files\Microsoft Visual Studio\2022\Professional\VC\Tools\MSVC\14.44.35207\atlmfc\include\cstringt.h

; 1311 : 	}

  00066	8b c6		 mov	 eax, esi
  00068	5e		 pop	 esi
  00069	5d		 pop	 ebp
  0006a	c2 04 00	 ret	 4
??4?$CStringT@DV?$StrTraitMFC@DV?$ChTraitsCRT@D@ATL@@@@@ATL@@QAEAAV01@ABV01@@Z ENDP ; ATL::CStringT<char,StrTraitMFC<char,ATL::ChTraitsCRT<char> > >::operator=
_TEXT	ENDS
; Function compile flags: /Ogtp
; File C:\Program Files\Microsoft Visual Studio\2022\Professional\VC\Tools\MSVC\14.44.35207\atlmfc\include\cstringt.h
; File C:\Program Files\Microsoft Visual Studio\2022\Professional\VC\Tools\MSVC\14.44.35207\atlmfc\include\atlsimpstr.h
; File C:\Program Files\Microsoft Visual Studio\2022\Professional\VC\Tools\MSVC\14.44.35207\atlmfc\include\cstringt.h
;	COMDAT ??1?$CStringT@DV?$StrTraitMFC@DV?$ChTraitsCRT@D@ATL@@@@@ATL@@QAE@XZ
_TEXT	SEGMENT
??1?$CStringT@DV?$StrTraitMFC@DV?$ChTraitsCRT@D@ATL@@@@@ATL@@QAE@XZ PROC ; ATL::CStringT<char,StrTraitMFC<char,ATL::ChTraitsCRT<char> > >::~CStringT<char,StrTraitMFC<char,ATL::ChTraitsCRT<char> > >, COMDAT
; _this$ = ecx
; File C:\Program Files\Microsoft Visual Studio\2022\Professional\VC\Tools\MSVC\14.44.35207\atlmfc\include\atlsimpstr.h

; 804  : 		return( reinterpret_cast< CStringData* >( m_pszData )-1 );

  00000	8b 11		 mov	 edx, DWORD PTR [ecx]

; 92   : 		if( _InterlockedDecrement( &nRefs ) <= 0 )

  00002	83 c8 ff	 or	 eax, -1

; 804  : 		return( reinterpret_cast< CStringData* >( m_pszData )-1 );

  00005	83 ea 10	 sub	 edx, 16			; 00000010H

; 92   : 		if( _InterlockedDecrement( &nRefs ) <= 0 )

  00008	f0 0f c1 42 0c	 lock	  xadd	 DWORD PTR [edx+12], eax
  0000d	48		 dec	 eax
  0000e	85 c0		 test	 eax, eax
  00010	7f 08		 jg	 SHORT $LN8@CStringT

; 93   : 		{
; 94   : 			pStringMgr->Free( this );

  00012	8b 0a		 mov	 ecx, DWORD PTR [edx]
  00014	52		 push	 edx
  00015	8b 01		 mov	 eax, DWORD PTR [ecx]
  00017	ff 50 04	 call	 DWORD PTR [eax+4]
$LN8@CStringT:
; File C:\Program Files\Microsoft Visual Studio\2022\Professional\VC\Tools\MSVC\14.44.35207\atlmfc\include\cstringt.h

; 1303 : 	}

  0001a	c3		 ret	 0
??1?$CStringT@DV?$StrTraitMFC@DV?$ChTraitsCRT@D@ATL@@@@@ATL@@QAE@XZ ENDP ; ATL::CStringT<char,StrTraitMFC<char,ATL::ChTraitsCRT<char> > >::~CStringT<char,StrTraitMFC<char,ATL::ChTraitsCRT<char> > >
_TEXT	ENDS
; Function compile flags: /Ogtp
; File C:\Program Files\Microsoft Visual Studio\2022\Professional\VC\Tools\MSVC\14.44.35207\atlmfc\include\atlsimpstr.h
; File C:\Program Files (x86)\Windows Kits\10\Include\10.0.26100.0\ucrt\corecrt_memcpy_s.h
; File C:\Program Files\Microsoft Visual Studio\2022\Professional\VC\Tools\MSVC\14.44.35207\atlmfc\include\atlsimpstr.h
; File C:\Program Files (x86)\Windows Kits\10\Include\10.0.26100.0\ucrt\corecrt_memcpy_s.h
; File C:\Program Files\Microsoft Visual Studio\2022\Professional\VC\Tools\MSVC\14.44.35207\atlmfc\include\atlsimpstr.h
; File C:\Program Files (x86)\Windows Kits\10\Include\10.0.26100.0\ucrt\corecrt_memcpy_s.h
; File C:\Program Files\Microsoft Visual Studio\2022\Professional\VC\Tools\MSVC\14.44.35207\atlmfc\include\atlsimpstr.h
;	COMDAT ?CloneData@?$CSimpleStringT@D$0A@@ATL@@CAPAUCStringData@2@PAU32@@Z
_TEXT	SEGMENT
_pData$ = 8						; size = 4
__Source$1$ = 8						; size = 4
?CloneData@?$CSimpleStringT@D$0A@@ATL@@CAPAUCStringData@2@PAU32@@Z PROC ; ATL::CSimpleStringT<char,0>::CloneData, COMDAT

; 883  : 	{

  00000	55		 push	 ebp
  00001	8b ec		 mov	 ebp, esp
  00003	53		 push	 ebx
  00004	56		 push	 esi

; 884  : 		CStringData* pNewData = NULL;
; 885  : 
; 886  : 		IAtlStringMgr* pNewStringMgr = pData->pStringMgr->Clone();

  00005	8b 75 08	 mov	 esi, DWORD PTR _pData$[ebp]
  00008	8b 0e		 mov	 ecx, DWORD PTR [esi]
  0000a	8b 01		 mov	 eax, DWORD PTR [ecx]
  0000c	ff 50 10	 call	 DWORD PTR [eax+16]

; 73   : 		return nRefs < 0;

  0000f	83 7e 0c 00	 cmp	 DWORD PTR [esi+12], 0

; 884  : 		CStringData* pNewData = NULL;
; 885  : 
; 886  : 		IAtlStringMgr* pNewStringMgr = pData->pStringMgr->Clone();

  00013	8b c8		 mov	 ecx, eax

; 73   : 		return nRefs < 0;

  00015	8d 46 0c	 lea	 eax, DWORD PTR [esi+12]

; 887  : 		if( !pData->IsLocked() && (pNewStringMgr == pData->pStringMgr) )

  00018	7c 0f		 jl	 SHORT $LN2@CloneData
  0001a	3b 0e		 cmp	 ecx, DWORD PTR [esi]
  0001c	75 0b		 jne	 SHORT $LN2@CloneData

; 888  : 		{
; 889  : 			pNewData = pData;

  0001e	8b de		 mov	 ebx, esi

; 69   : 		_InterlockedIncrement(&nRefs);

  00020	f0 ff 00	 lock	  inc	 DWORD PTR [eax]

; 904  : 		return( pNewData );

  00023	8b c3		 mov	 eax, ebx

; 905  : 	}

  00025	5e		 pop	 esi
  00026	5b		 pop	 ebx
  00027	5d		 pop	 ebp
  00028	c3		 ret	 0
$LN2@CloneData:

; 890  : 			pNewData->AddRef();
; 891  : 		}
; 892  : 		else
; 893  : 		{
; 894  : 			pNewData = pNewStringMgr->Allocate( pData->nDataLength, sizeof( XCHAR ) );

  00029	8b 01		 mov	 eax, DWORD PTR [ecx]
  0002b	6a 01		 push	 1
  0002d	ff 76 04	 push	 DWORD PTR [esi+4]
  00030	ff 10		 call	 DWORD PTR [eax]
  00032	8b d8		 mov	 ebx, eax

; 895  : 			if( pNewData == NULL )

  00034	85 db		 test	 ebx, ebx
  00036	74 7d		 je	 SHORT $LN32@CloneData

; 898  : 			}
; 899  : 			pNewData->nDataLength = pData->nDataLength;

  00038	8b 46 04	 mov	 eax, DWORD PTR [esi+4]

; 900  : 			memcpy_s( PXSTR( pNewData->data() ), (pNewData->nDataLength+1) * sizeof( XCHAR ),

  0003b	8d 4e 10	 lea	 ecx, DWORD PTR [esi+16]
  0003e	57		 push	 edi
  0003f	89 43 04	 mov	 DWORD PTR [ebx+4], eax
  00042	8b 7e 04	 mov	 edi, DWORD PTR [esi+4]
  00045	89 4d 08	 mov	 DWORD PTR __Source$1$[ebp], ecx
  00048	8d 70 01	 lea	 esi, DWORD PTR [eax+1]
  0004b	8d 43 10	 lea	 eax, DWORD PTR [ebx+16]
  0004e	83 c7 01	 add	 edi, 1
; File C:\Program Files (x86)\Windows Kits\10\Include\10.0.26100.0\ucrt\corecrt_memcpy_s.h

; 47   :         if (_SourceSize == 0)

  00051	74 5b		 je	 SHORT $LN27@CloneData

; 48   :         {
; 49   :             return 0;
; 50   :         }
; 51   : 
; 52   :         _CRT_MEMCPY_S_VALIDATE_RETURN_ERRCODE(_Destination != NULL, EINVAL);

  00053	85 c0		 test	 eax, eax
  00055	75 17		 jne	 SHORT $LN12@CloneData
$LN30@CloneData:

; 58   :             _CRT_MEMCPY_S_VALIDATE_RETURN_ERRCODE(_DestinationSize >= _SourceSize, ERANGE);

  00057	e8 00 00 00 00	 call	 __errno
  0005c	c7 00 16 00 00
	00		 mov	 DWORD PTR [eax], 22	; 00000016H
  00062	e8 00 00 00 00	 call	 __invalid_parameter_noinfo
  00067	5f		 pop	 edi
; File C:\Program Files\Microsoft Visual Studio\2022\Professional\VC\Tools\MSVC\14.44.35207\atlmfc\include\atlsimpstr.h

; 904  : 		return( pNewData );

  00068	8b c3		 mov	 eax, ebx

; 905  : 	}

  0006a	5e		 pop	 esi
  0006b	5b		 pop	 ebx
  0006c	5d		 pop	 ebp
  0006d	c3		 ret	 0
$LN12@CloneData:
; File C:\Program Files (x86)\Windows Kits\10\Include\10.0.26100.0\ucrt\corecrt_memcpy_s.h

; 53   :         if (_Source == NULL || _DestinationSize < _SourceSize)

  0006e	85 c9		 test	 ecx, ecx
  00070	74 16		 je	 SHORT $LN14@CloneData
  00072	3b f7		 cmp	 esi, edi
  00074	72 12		 jb	 SHORT $LN14@CloneData

; 59   : 
; 60   :             // Unreachable, but required to suppress /analyze warnings:
; 61   :             return EINVAL;
; 62   :         }
; 63   :         memcpy(_Destination, _Source, _SourceSize);

  00076	57		 push	 edi
  00077	51		 push	 ecx
  00078	50		 push	 eax
  00079	e8 00 00 00 00	 call	 _memcpy
  0007e	83 c4 0c	 add	 esp, 12			; 0000000cH
; File C:\Program Files\Microsoft Visual Studio\2022\Professional\VC\Tools\MSVC\14.44.35207\atlmfc\include\atlsimpstr.h

; 904  : 		return( pNewData );

  00081	8b c3		 mov	 eax, ebx
  00083	5f		 pop	 edi

; 905  : 	}

  00084	5e		 pop	 esi
  00085	5b		 pop	 ebx
  00086	5d		 pop	 ebp
  00087	c3		 ret	 0
$LN14@CloneData:
; File C:\Program Files (x86)\Windows Kits\10\Include\10.0.26100.0\ucrt\corecrt_memcpy_s.h

; 55   :             memset(_Destination, 0, _DestinationSize);

  00088	56		 push	 esi
  00089	6a 00		 push	 0
  0008b	50		 push	 eax
  0008c	e8 00 00 00 00	 call	 _memset
  00091	83 c4 0c	 add	 esp, 12			; 0000000cH

; 56   : 
; 57   :             _CRT_MEMCPY_S_VALIDATE_RETURN_ERRCODE(_Source != NULL,                 EINVAL);

  00094	83 7d 08 00	 cmp	 DWORD PTR __Source$1$[ebp], 0
  00098	74 bd		 je	 SHORT $LN30@CloneData

; 58   :             _CRT_MEMCPY_S_VALIDATE_RETURN_ERRCODE(_DestinationSize >= _SourceSize, ERANGE);

  0009a	3b f7		 cmp	 esi, edi
  0009c	73 10		 jae	 SHORT $LN27@CloneData
  0009e	e8 00 00 00 00	 call	 __errno
  000a3	c7 00 22 00 00
	00		 mov	 DWORD PTR [eax], 34	; 00000022H
  000a9	e8 00 00 00 00	 call	 __invalid_parameter_noinfo
$LN27@CloneData:
  000ae	5f		 pop	 edi
; File C:\Program Files\Microsoft Visual Studio\2022\Professional\VC\Tools\MSVC\14.44.35207\atlmfc\include\atlsimpstr.h

; 905  : 	}

  000af	5e		 pop	 esi
  000b0	8b c3		 mov	 eax, ebx
  000b2	5b		 pop	 ebx
  000b3	5d		 pop	 ebp
  000b4	c3		 ret	 0
$LN32@CloneData:

; 896  : 			{
; 897  : 				ThrowMemoryException();

  000b5	e8 00 00 00 00	 call	 ?ThrowMemoryException@?$CSimpleStringT@D$0A@@ATL@@KAXXZ ; ATL::CSimpleStringT<char,0>::ThrowMemoryException
$LN28@CloneData:
  000ba	cc		 int	 3
?CloneData@?$CSimpleStringT@D$0A@@ATL@@CAPAUCStringData@2@PAU32@@Z ENDP ; ATL::CSimpleStringT<char,0>::CloneData
_TEXT	ENDS
; Function compile flags: /Ogtp
; File C:\Program Files\Microsoft Visual Studio\2022\Professional\VC\Tools\MSVC\14.44.35207\atlmfc\include\atlsimpstr.h
;	COMDAT ?Reallocate@?$CSimpleStringT@D$0A@@ATL@@AAEXH@Z
_TEXT	SEGMENT
_nLength$ = 8						; size = 4
?Reallocate@?$CSimpleStringT@D$0A@@ATL@@AAEXH@Z PROC	; ATL::CSimpleStringT<char,0>::Reallocate, COMDAT
; _this$ = ecx

; 853  : 	{

  00000	55		 push	 ebp
  00001	8b ec		 mov	 ebp, esp
  00003	56		 push	 esi

; 854  : 		CStringData* pOldData = GetData();
; 855  : 		ATLASSERT( pOldData->nAllocLength < nLength );
; 856  : 		IAtlStringMgr* pStringMgr = pOldData->pStringMgr;
; 857  : 		if ( pOldData->nAllocLength >= nLength || nLength <= 0)

  00004	8b 75 08	 mov	 esi, DWORD PTR _nLength$[ebp]
  00007	57		 push	 edi
  00008	8b f9		 mov	 edi, ecx

; 804  : 		return( reinterpret_cast< CStringData* >( m_pszData )-1 );

  0000a	8b 17		 mov	 edx, DWORD PTR [edi]
  0000c	83 ea 10	 sub	 edx, 16			; 00000010H

; 854  : 		CStringData* pOldData = GetData();
; 855  : 		ATLASSERT( pOldData->nAllocLength < nLength );
; 856  : 		IAtlStringMgr* pStringMgr = pOldData->pStringMgr;
; 857  : 		if ( pOldData->nAllocLength >= nLength || nLength <= 0)

  0000f	39 72 08	 cmp	 DWORD PTR [edx+8], esi
  00012	7d 1e		 jge	 SHORT $LN3@Reallocate
  00014	85 f6		 test	 esi, esi
  00016	7e 1a		 jle	 SHORT $LN3@Reallocate

; 860  : 			return;
; 861  : 		}
; 862  : 		CStringData* pNewData = pStringMgr->Reallocate( pOldData, nLength, sizeof( XCHAR ) );

  00018	8b 0a		 mov	 ecx, DWORD PTR [edx]
  0001a	6a 01		 push	 1
  0001c	56		 push	 esi
  0001d	52		 push	 edx
  0001e	8b 01		 mov	 eax, DWORD PTR [ecx]
  00020	ff 50 08	 call	 DWORD PTR [eax+8]

; 863  : 		if( pNewData == NULL )

  00023	85 c0		 test	 eax, eax
  00025	74 0b		 je	 SHORT $LN3@Reallocate

; 864  : 		{
; 865  : 			ThrowMemoryException();
; 866  : 		}
; 867  : 		Attach( pNewData );

  00027	83 c0 10	 add	 eax, 16			; 00000010H
  0002a	89 07		 mov	 DWORD PTR [edi], eax
  0002c	5f		 pop	 edi
  0002d	5e		 pop	 esi

; 868  : 	}

  0002e	5d		 pop	 ebp
  0002f	c2 04 00	 ret	 4
$LN3@Reallocate:

; 858  : 		{
; 859  : 			ThrowMemoryException();

  00032	e8 00 00 00 00	 call	 ?ThrowMemoryException@?$CSimpleStringT@D$0A@@ATL@@KAXXZ ; ATL::CSimpleStringT<char,0>::ThrowMemoryException
$LN12@Reallocate:
  00037	cc		 int	 3
?Reallocate@?$CSimpleStringT@D$0A@@ATL@@AAEXH@Z ENDP	; ATL::CSimpleStringT<char,0>::Reallocate
_TEXT	ENDS
; Function compile flags: /Ogtp
; File C:\Program Files\Microsoft Visual Studio\2022\Professional\VC\Tools\MSVC\14.44.35207\atlmfc\include\atlsimpstr.h
;	COMDAT ?PrepareWrite2@?$CSimpleStringT@D$0A@@ATL@@AAEXH@Z
_TEXT	SEGMENT
_nLength$ = 8						; size = 4
?PrepareWrite2@?$CSimpleStringT@D$0A@@ATL@@AAEXH@Z PROC	; ATL::CSimpleStringT<char,0>::PrepareWrite2, COMDAT
; _this$ = ecx

; 822  : 	{

  00000	55		 push	 ebp
  00001	8b ec		 mov	 ebp, esp
  00003	56		 push	 esi

; 823  : 		CStringData* pOldData = GetData();
; 824  : 		if( pOldData->nDataLength > nLength )

  00004	8b 75 08	 mov	 esi, DWORD PTR _nLength$[ebp]
  00007	57		 push	 edi
  00008	8b f9		 mov	 edi, ecx

; 804  : 		return( reinterpret_cast< CStringData* >( m_pszData )-1 );

  0000a	8b 0f		 mov	 ecx, DWORD PTR [edi]

; 823  : 		CStringData* pOldData = GetData();
; 824  : 		if( pOldData->nDataLength > nLength )

  0000c	39 71 f4	 cmp	 DWORD PTR [ecx-12], esi
  0000f	0f 4f 71 f4	 cmovg	 esi, DWORD PTR [ecx-12]

; 77   : 		return( nRefs > 1 );

  00013	83 79 fc 01	 cmp	 DWORD PTR [ecx-4], 1

; 825  : 		{
; 826  : 			nLength = pOldData->nDataLength;
; 827  : 		}
; 828  : 		if( pOldData->IsShared() )

  00017	7e 0e		 jle	 SHORT $LN3@PrepareWri

; 829  : 		{
; 830  : 			Fork( nLength );

  00019	56		 push	 esi
  0001a	8b cf		 mov	 ecx, edi
  0001c	e8 00 00 00 00	 call	 ?Fork@?$CSimpleStringT@D$0A@@ATL@@AAEXH@Z ; ATL::CSimpleStringT<char,0>::Fork
  00021	5f		 pop	 edi

; 850  : 		}
; 851  : 	}

  00022	5e		 pop	 esi
  00023	5d		 pop	 ebp
  00024	c2 04 00	 ret	 4
$LN3@PrepareWri:

; 831  : 		}
; 832  : 		else if( pOldData->nAllocLength < nLength )

  00027	8b 49 f8	 mov	 ecx, DWORD PTR [ecx-8]
  0002a	3b ce		 cmp	 ecx, esi
  0002c	7d 25		 jge	 SHORT $LN5@PrepareWri

; 833  : 		{
; 834  : 			// Grow exponentially, until we hit 1G, then by 1M thereafter.
; 835  : 			int nNewLength = pOldData->nAllocLength;
; 836  : 			if( nNewLength > 1024 * 1024 * 1024 )

  0002e	81 f9 00 00 00
	40		 cmp	 ecx, 1073741824		; 40000000H
  00034	7e 07		 jle	 SHORT $LN6@PrepareWri

; 837  : 			{
; 838  : 				nNewLength += 1024 * 1024;

  00036	b8 00 00 10 00	 mov	 eax, 1048576		; 00100000H

; 839  : 			}

  0003b	eb 07		 jmp	 SHORT $LN7@PrepareWri
$LN6@PrepareWri:

; 840  : 			else
; 841  : 			{
; 842  : 				// Exponential growth factor is 1.5.
; 843  : 				nNewLength = nNewLength + nNewLength / 2;

  0003d	8b c1		 mov	 eax, ecx
  0003f	99		 cdq
  00040	2b c2		 sub	 eax, edx
  00042	d1 f8		 sar	 eax, 1
$LN7@PrepareWri:

; 844  : 			}
; 845  : 			if( nNewLength < nLength )

  00044	03 c1		 add	 eax, ecx

; 846  : 			{
; 847  : 				nNewLength = nLength;
; 848  : 			}
; 849  : 			Reallocate( nNewLength );

  00046	8b cf		 mov	 ecx, edi
  00048	3b c6		 cmp	 eax, esi
  0004a	0f 4d f0	 cmovge	 esi, eax
  0004d	56		 push	 esi
  0004e	e8 00 00 00 00	 call	 ?Reallocate@?$CSimpleStringT@D$0A@@ATL@@AAEXH@Z ; ATL::CSimpleStringT<char,0>::Reallocate
$LN5@PrepareWri:

; 850  : 		}
; 851  : 	}

  00053	5f		 pop	 edi
  00054	5e		 pop	 esi
  00055	5d		 pop	 ebp
  00056	c2 04 00	 ret	 4
?PrepareWrite2@?$CSimpleStringT@D$0A@@ATL@@AAEXH@Z ENDP	; ATL::CSimpleStringT<char,0>::PrepareWrite2
_TEXT	ENDS
; Function compile flags: /Ogtp
; File C:\Program Files\Microsoft Visual Studio\2022\Professional\VC\Tools\MSVC\14.44.35207\atlmfc\include\atlsimpstr.h
; File C:\Program Files (x86)\Windows Kits\10\Include\10.0.26100.0\ucrt\corecrt_memcpy_s.h
; File C:\Program Files\Microsoft Visual Studio\2022\Professional\VC\Tools\MSVC\14.44.35207\atlmfc\include\atlsimpstr.h
;	COMDAT ?Fork@?$CSimpleStringT@D$0A@@ATL@@AAEXH@Z
_TEXT	SEGMENT
_this$1$ = -12						; size = 4
_nOldLength$1$ = -8					; size = 4
__Source$1$ = -4					; size = 4
_nLength$ = 8						; size = 4
_pNewData$1$ = 8					; size = 4
?Fork@?$CSimpleStringT@D$0A@@ATL@@AAEXH@Z PROC		; ATL::CSimpleStringT<char,0>::Fork, COMDAT
; _this$ = ecx

; 787  : 	{

  00000	55		 push	 ebp
  00001	8b ec		 mov	 ebp, esp
  00003	83 ec 0c	 sub	 esp, 12			; 0000000cH
  00006	8b c1		 mov	 eax, ecx
  00008	89 45 f4	 mov	 DWORD PTR _this$1$[ebp], eax
  0000b	53		 push	 ebx
  0000c	56		 push	 esi

; 804  : 		return( reinterpret_cast< CStringData* >( m_pszData )-1 );

  0000d	8b 00		 mov	 eax, DWORD PTR [eax]

; 790  : 		CStringData* pNewData = pOldData->pStringMgr->Clone()->Allocate( nLength, sizeof( XCHAR ) );

  0000f	8b 48 f0	 mov	 ecx, DWORD PTR [eax-16]

; 804  : 		return( reinterpret_cast< CStringData* >( m_pszData )-1 );

  00012	8d 58 f0	 lea	 ebx, DWORD PTR [eax-16]
  00015	89 45 fc	 mov	 DWORD PTR __Source$1$[ebp], eax

; 787  : 	{

  00018	57		 push	 edi

; 788  : 		CStringData* pOldData = GetData();
; 789  : 		int nOldLength = pOldData->nDataLength;

  00019	8b 7b 04	 mov	 edi, DWORD PTR [ebx+4]

; 790  : 		CStringData* pNewData = pOldData->pStringMgr->Clone()->Allocate( nLength, sizeof( XCHAR ) );

  0001c	8b 01		 mov	 eax, DWORD PTR [ecx]
  0001e	89 7d f8	 mov	 DWORD PTR _nOldLength$1$[ebp], edi
  00021	ff 50 10	 call	 DWORD PTR [eax+16]
  00024	8b 75 08	 mov	 esi, DWORD PTR _nLength$[ebp]
  00027	8b c8		 mov	 ecx, eax
  00029	6a 01		 push	 1
  0002b	56		 push	 esi
  0002c	8b 10		 mov	 edx, DWORD PTR [eax]
  0002e	ff 12		 call	 DWORD PTR [edx]
  00030	89 45 08	 mov	 DWORD PTR _pNewData$1$[ebp], eax

; 791  : 		if( pNewData == NULL )

  00033	85 c0		 test	 eax, eax
  00035	74 6c		 je	 SHORT $LN25@Fork

; 794  : 		}
; 795  : 		int nCharsToCopy = ((nOldLength < nLength) ? nOldLength : nLength)+1;  // Copy '\0'

  00037	3b fe		 cmp	 edi, esi
  00039	0f 4c f7	 cmovl	 esi, edi

; 796  : 		memcpy_s( PXSTR( pNewData->data() ), nCharsToCopy * sizeof( XCHAR ),

  0003c	8d 78 10	 lea	 edi, DWORD PTR [eax+16]
  0003f	83 c6 01	 add	 esi, 1
; File C:\Program Files (x86)\Windows Kits\10\Include\10.0.26100.0\ucrt\corecrt_memcpy_s.h

; 47   :         if (_SourceSize == 0)

  00042	74 33		 je	 SHORT $LN11@Fork

; 48   :         {
; 49   :             return 0;
; 50   :         }
; 51   : 
; 52   :         _CRT_MEMCPY_S_VALIDATE_RETURN_ERRCODE(_Destination != NULL, EINVAL);

  00044	85 ff		 test	 edi, edi
  00046	74 1f		 je	 SHORT $LN23@Fork

; 53   :         if (_Source == NULL || _DestinationSize < _SourceSize)

  00048	8b 45 fc	 mov	 eax, DWORD PTR __Source$1$[ebp]
  0004b	56		 push	 esi
  0004c	85 c0		 test	 eax, eax
  0004e	74 0c		 je	 SHORT $LN10@Fork

; 56   : 
; 57   :             _CRT_MEMCPY_S_VALIDATE_RETURN_ERRCODE(_Source != NULL,                 EINVAL);
; 58   :             _CRT_MEMCPY_S_VALIDATE_RETURN_ERRCODE(_DestinationSize >= _SourceSize, ERANGE);
; 59   : 
; 60   :             // Unreachable, but required to suppress /analyze warnings:
; 61   :             return EINVAL;
; 62   :         }
; 63   :         memcpy(_Destination, _Source, _SourceSize);

  00050	50		 push	 eax
  00051	57		 push	 edi
  00052	e8 00 00 00 00	 call	 _memcpy
  00057	83 c4 0c	 add	 esp, 12			; 0000000cH
  0005a	eb 1b		 jmp	 SHORT $LN11@Fork
$LN10@Fork:

; 54   :         {
; 55   :             memset(_Destination, 0, _DestinationSize);

  0005c	6a 00		 push	 0
  0005e	57		 push	 edi
  0005f	e8 00 00 00 00	 call	 _memset
  00064	83 c4 0c	 add	 esp, 12			; 0000000cH
$LN23@Fork:
; File C:\Program Files\Microsoft Visual Studio\2022\Professional\VC\Tools\MSVC\14.44.35207\atlmfc\include\atlsimpstr.h

; 798  : 		pNewData->nDataLength = nOldLength;

  00067	e8 00 00 00 00	 call	 __errno
  0006c	c7 00 16 00 00
	00		 mov	 DWORD PTR [eax], 22	; 00000016H
  00072	e8 00 00 00 00	 call	 __invalid_parameter_noinfo
$LN11@Fork:
  00077	8b 4d 08	 mov	 ecx, DWORD PTR _pNewData$1$[ebp]
  0007a	8b 45 f8	 mov	 eax, DWORD PTR _nOldLength$1$[ebp]
  0007d	89 41 04	 mov	 DWORD PTR [ecx+4], eax

; 92   : 		if( _InterlockedDecrement( &nRefs ) <= 0 )

  00080	83 c8 ff	 or	 eax, -1
  00083	f0 0f c1 43 0c	 lock	  xadd	 DWORD PTR [ebx+12], eax
  00088	48		 dec	 eax
  00089	85 c0		 test	 eax, eax
  0008b	7f 08		 jg	 SHORT $LN15@Fork

; 93   : 		{
; 94   : 			pStringMgr->Free( this );

  0008d	8b 0b		 mov	 ecx, DWORD PTR [ebx]
  0008f	53		 push	 ebx
  00090	8b 01		 mov	 eax, DWORD PTR [ecx]
  00092	ff 50 04	 call	 DWORD PTR [eax+4]
$LN15@Fork:

; 799  : 		pOldData->Release();
; 800  : 		Attach( pNewData );

  00095	8b 45 f4	 mov	 eax, DWORD PTR _this$1$[ebp]
  00098	89 38		 mov	 DWORD PTR [eax], edi

; 801  : 	}

  0009a	5f		 pop	 edi
  0009b	5e		 pop	 esi
  0009c	5b		 pop	 ebx
  0009d	8b e5		 mov	 esp, ebp
  0009f	5d		 pop	 ebp
  000a0	c2 04 00	 ret	 4
$LN25@Fork:

; 792  : 		{
; 793  : 			ThrowMemoryException();

  000a3	e8 00 00 00 00	 call	 ?ThrowMemoryException@?$CSimpleStringT@D$0A@@ATL@@KAXXZ ; ATL::CSimpleStringT<char,0>::ThrowMemoryException
$LN22@Fork:
  000a8	cc		 int	 3
?Fork@?$CSimpleStringT@D$0A@@ATL@@AAEXH@Z ENDP		; ATL::CSimpleStringT<char,0>::Fork
_TEXT	ENDS
; Function compile flags: /Ogtp
; File C:\Program Files\Microsoft Visual Studio\2022\Professional\VC\Tools\MSVC\14.44.35207\atlmfc\include\atlsimpstr.h
;	COMDAT ?ThrowMemoryException@?$CSimpleStringT@D$0A@@ATL@@KAXXZ
_TEXT	SEGMENT
?ThrowMemoryException@?$CSimpleStringT@D$0A@@ATL@@KAXXZ PROC ; ATL::CSimpleStringT<char,0>::ThrowMemoryException, COMDAT

; 777  : 		AtlThrow( E_OUTOFMEMORY );

  00000	68 0e 00 07 80	 push	 -2147024882		; 8007000eH
  00005	e8 00 00 00 00	 call	 ?AtlThrowImpl@ATL@@YGXJ@Z ; ATL::AtlThrowImpl
$LN3@ThrowMemor:
  0000a	cc		 int	 3
?ThrowMemoryException@?$CSimpleStringT@D$0A@@ATL@@KAXXZ ENDP ; ATL::CSimpleStringT<char,0>::ThrowMemoryException
_TEXT	ENDS
; Function compile flags: /Ogtp
; File C:\Program Files\Microsoft Visual Studio\2022\Professional\VC\Tools\MSVC\14.44.35207\atlmfc\include\atlsimpstr.h
; File C:\Program Files (x86)\Windows Kits\10\Include\10.0.26100.0\ucrt\corecrt_memcpy_s.h
; File C:\Program Files\Microsoft Visual Studio\2022\Professional\VC\Tools\MSVC\14.44.35207\atlmfc\include\atlsimpstr.h
; File C:\Program Files (x86)\Windows Kits\10\Include\10.0.26100.0\ucrt\corecrt_memcpy_s.h
; File C:\Program Files\Microsoft Visual Studio\2022\Professional\VC\Tools\MSVC\14.44.35207\atlmfc\include\atlsimpstr.h
;	COMDAT ?SetString@?$CSimpleStringT@D$0A@@ATL@@QAEXPBDH@Z
_TEXT	SEGMENT
_pszSrc$ = 8						; size = 4
_nOldLength$1$ = 8					; size = 4
_nLength$ = 12						; size = 4
_nOffset$1$ = 12					; size = 4
?SetString@?$CSimpleStringT@D$0A@@ATL@@QAEXPBDH@Z PROC	; ATL::CSimpleStringT<char,0>::SetString, COMDAT
; _this$ = ecx

; 611  : 	{

  00000	55		 push	 ebp
  00001	8b ec		 mov	 ebp, esp
  00003	56		 push	 esi

; 612  : 		if( nLength == 0 )

  00004	8b 75 0c	 mov	 esi, DWORD PTR _nLength$[ebp]
  00007	57		 push	 edi
  00008	8b f9		 mov	 edi, ecx
  0000a	85 f6		 test	 esi, esi
  0000c	75 58		 jne	 SHORT $LN2@SetString

; 804  : 		return( reinterpret_cast< CStringData* >( m_pszData )-1 );

  0000e	8b 07		 mov	 eax, DWORD PTR [edi]

; 443  : 		if( pOldData->nDataLength == 0 )

  00010	83 78 f4 00	 cmp	 DWORD PTR [eax-12], 0

; 804  : 		return( reinterpret_cast< CStringData* >( m_pszData )-1 );

  00014	8d 50 f0	 lea	 edx, DWORD PTR [eax-16]

; 442  : 		IAtlStringMgr* pStringMgr = pOldData->pStringMgr;

  00017	8b 32		 mov	 esi, DWORD PTR [edx]

; 443  : 		if( pOldData->nDataLength == 0 )

  00019	74 1f		 je	 SHORT $LN72@SetString

; 73   : 		return nRefs < 0;

  0001b	83 7a 0c 00	 cmp	 DWORD PTR [edx+12], 0
  0001f	8d 4a 0c	 lea	 ecx, DWORD PTR [edx+12]

; 448  : 		if( pOldData->IsLocked() )

  00022	7d 1c		 jge	 SHORT $LN10@SetString

; 875  : 		if( nLength < 0 || nLength > GetData()->nAllocLength)

  00024	83 78 f8 00	 cmp	 DWORD PTR [eax-8], 0
  00028	0f 8c 0b 01 00
	00		 jl	 $LN71@SetString

; 877  : 
; 878  : 		GetData()->nDataLength = nLength;

  0002e	c7 40 f4 00 00
	00 00		 mov	 DWORD PTR [eax-12], 0

; 879  : 		m_pszData[nLength] = 0;

  00035	8b 07		 mov	 eax, DWORD PTR [edi]
  00037	c6 00 00	 mov	 BYTE PTR [eax], 0
$LN72@SetString:
  0003a	5f		 pop	 edi

; 638  : 			else
; 639  : 			{
; 640  : 				memcpy_s( pszBuffer, GetAllocLength() * sizeof( XCHAR ), pszSrc, nLength * sizeof( XCHAR ));
; 641  : 			}
; 642  : 			ReleaseBufferSetLength( nLength );
; 643  : 		}
; 644  : 	}

  0003b	5e		 pop	 esi
  0003c	5d		 pop	 ebp
  0003d	c2 08 00	 ret	 8
$LN10@SetString:

; 92   : 		if( _InterlockedDecrement( &nRefs ) <= 0 )

  00040	83 c8 ff	 or	 eax, -1
  00043	f0 0f c1 01	 lock	  xadd	 DWORD PTR [ecx], eax
  00047	48		 dec	 eax
  00048	85 c0		 test	 eax, eax
  0004a	7f 08		 jg	 SHORT $LN27@SetString

; 93   : 		{
; 94   : 			pStringMgr->Free( this );

  0004c	8b 0a		 mov	 ecx, DWORD PTR [edx]
  0004e	52		 push	 edx
  0004f	8b 01		 mov	 eax, DWORD PTR [ecx]
  00051	ff 50 04	 call	 DWORD PTR [eax+4]
$LN27@SetString:

; 456  : 			CStringData* pNewData = pStringMgr->GetNilString();

  00054	8b 06		 mov	 eax, DWORD PTR [esi]
  00056	8b ce		 mov	 ecx, esi
  00058	ff 50 0c	 call	 DWORD PTR [eax+12]

; 457  : 			Attach( pNewData );

  0005b	83 c0 10	 add	 eax, 16			; 00000010H
  0005e	89 07		 mov	 DWORD PTR [edi], eax
  00060	5f		 pop	 edi

; 638  : 			else
; 639  : 			{
; 640  : 				memcpy_s( pszBuffer, GetAllocLength() * sizeof( XCHAR ), pszSrc, nLength * sizeof( XCHAR ));
; 641  : 			}
; 642  : 			ReleaseBufferSetLength( nLength );
; 643  : 		}
; 644  : 	}

  00061	5e		 pop	 esi
  00062	5d		 pop	 ebp
  00063	c2 08 00	 ret	 8
$LN2@SetString:
  00066	53		 push	 ebx

; 613  : 		{
; 614  : 			Empty();
; 615  : 		}
; 616  : 		else
; 617  : 		{
; 618  : 			// It is possible that pszSrc points to a location inside of our
; 619  : 			// buffer.  GetBuffer() might change m_pszData if (1) the buffer
; 620  : 			// is shared or (2) the buffer is too small to hold the new
; 621  : 			// string.  We detect this aliasing, and modify pszSrc to point
; 622  : 			// into the newly allocated buffer instead.
; 623  : 
; 624  : 			if(pszSrc == NULL)

  00067	8b 5d 08	 mov	 ebx, DWORD PTR _pszSrc$[ebp]
  0006a	85 db		 test	 ebx, ebx
  0006c	0f 84 c7 00 00
	00		 je	 $LN71@SetString

; 523  : 		return( GetData()->nDataLength );

  00072	8b 07		 mov	 eax, DWORD PTR [edi]

; 625  : 				AtlThrow(E_INVALIDARG);
; 626  : 
; 627  : 			UINT nOldLength = GetLength();
; 628  : 			UINT_PTR nOffset = pszSrc-GetString();

  00074	8b d3		 mov	 edx, ebx
  00076	2b d0		 sub	 edx, eax
  00078	89 55 0c	 mov	 DWORD PTR _nOffset$1$[ebp], edx
  0007b	8b 48 f4	 mov	 ecx, DWORD PTR [eax-12]
  0007e	89 4d 08	 mov	 DWORD PTR _nOldLength$1$[ebp], ecx

; 808  : 		if (nLength < 0)

  00081	85 f6		 test	 esi, esi
  00083	0f 88 b0 00 00
	00		 js	 $LN71@SetString

; 809  : 			AtlThrow(E_INVALIDARG);
; 810  : 
; 811  : 		CStringData* pOldData = GetData();
; 812  : 		int nShared = 1-pOldData->nRefs;  // nShared < 0 means true, >= 0 means false

  00089	b9 01 00 00 00	 mov	 ecx, 1
  0008e	2b 48 fc	 sub	 ecx, DWORD PTR [eax-4]

; 813  : 		int nTooShort = pOldData->nAllocLength-nLength;  // nTooShort < 0 means true, >= 0 means false

  00091	8b 40 f8	 mov	 eax, DWORD PTR [eax-8]
  00094	2b c6		 sub	 eax, esi

; 814  : 		if( (nShared|nTooShort) < 0 )  // If either sign bit is set (i.e. either is less than zero), we need to copy data

  00096	0b c8		 or	 ecx, eax
  00098	7d 0b		 jge	 SHORT $LN38@SetString

; 815  : 		{
; 816  : 			PrepareWrite2( nLength );

  0009a	56		 push	 esi
  0009b	8b cf		 mov	 ecx, edi
  0009d	e8 00 00 00 00	 call	 ?PrepareWrite2@?$CSimpleStringT@D$0A@@ATL@@AAEXH@Z ; ATL::CSimpleStringT<char,0>::PrepareWrite2
  000a2	8b 55 0c	 mov	 edx, DWORD PTR _nOffset$1$[ebp]
$LN38@SetString:

; 629  : 			// If 0 <= nOffset <= nOldLength, then pszSrc points into our
; 630  : 			// buffer
; 631  : 
; 632  : 			PXSTR pszBuffer = GetBuffer( nLength );

  000a5	8b 07		 mov	 eax, DWORD PTR [edi]
  000a7	8b 48 f8	 mov	 ecx, DWORD PTR [eax-8]

; 633  : 			if( nOffset <= nOldLength )

  000aa	3b 55 08	 cmp	 edx, DWORD PTR _nOldLength$1$[ebp]
  000ad	77 35		 ja	 SHORT $LN5@SetString

; 634  : 			{
; 635  : 				CopyCharsOverlapped( pszBuffer, GetAllocLength(),

  000af	03 d0		 add	 edx, eax
; File C:\Program Files (x86)\Windows Kits\10\Include\10.0.26100.0\ucrt\corecrt_memcpy_s.h

; 81   :         _CRT_MEMCPY_S_VALIDATE_RETURN_ERRCODE(_Destination != NULL,            EINVAL);

  000b1	85 c0		 test	 eax, eax
  000b3	75 0d		 jne	 SHORT $LN51@SetString
  000b5	e8 00 00 00 00	 call	 __errno
  000ba	c7 00 16 00 00
	00		 mov	 DWORD PTR [eax], 22	; 00000016H
  000c0	eb 5b		 jmp	 SHORT $LN97@SetString
$LN51@SetString:

; 82   :         _CRT_MEMCPY_S_VALIDATE_RETURN_ERRCODE(_Source != NULL,                 EINVAL);

  000c2	85 d2		 test	 edx, edx
  000c4	75 0d		 jne	 SHORT $LN52@SetString
  000c6	e8 00 00 00 00	 call	 __errno
  000cb	c7 00 16 00 00
	00		 mov	 DWORD PTR [eax], 22	; 00000016H
  000d1	eb 4a		 jmp	 SHORT $LN97@SetString
$LN52@SetString:

; 83   :         _CRT_MEMCPY_S_VALIDATE_RETURN_ERRCODE(_DestinationSize >= _SourceSize, ERANGE);

  000d3	3b ce		 cmp	 ecx, esi
  000d5	72 3b		 jb	 SHORT $LN98@SetString

; 84   : 
; 85   :         memmove(_Destination, _Source, _SourceSize);

  000d7	56		 push	 esi
  000d8	52		 push	 edx
  000d9	50		 push	 eax
  000da	e8 00 00 00 00	 call	 _memmove
  000df	83 c4 0c	 add	 esp, 12			; 0000000cH
; File C:\Program Files\Microsoft Visual Studio\2022\Professional\VC\Tools\MSVC\14.44.35207\atlmfc\include\atlsimpstr.h

; 637  : 			}

  000e2	eb 3e		 jmp	 SHORT $LN65@SetString
$LN5@SetString:
; File C:\Program Files (x86)\Windows Kits\10\Include\10.0.26100.0\ucrt\corecrt_memcpy_s.h

; 52   :         _CRT_MEMCPY_S_VALIDATE_RETURN_ERRCODE(_Destination != NULL, EINVAL);

  000e4	85 c0		 test	 eax, eax
  000e6	75 0d		 jne	 SHORT $LN61@SetString
  000e8	e8 00 00 00 00	 call	 __errno
  000ed	c7 00 16 00 00
	00		 mov	 DWORD PTR [eax], 22	; 00000016H
  000f3	eb 28		 jmp	 SHORT $LN97@SetString
$LN61@SetString:

; 53   :         if (_Source == NULL || _DestinationSize < _SourceSize)

  000f5	3b ce		 cmp	 ecx, esi
  000f7	72 0d		 jb	 SHORT $LN63@SetString

; 56   : 
; 57   :             _CRT_MEMCPY_S_VALIDATE_RETURN_ERRCODE(_Source != NULL,                 EINVAL);
; 58   :             _CRT_MEMCPY_S_VALIDATE_RETURN_ERRCODE(_DestinationSize >= _SourceSize, ERANGE);
; 59   : 
; 60   :             // Unreachable, but required to suppress /analyze warnings:
; 61   :             return EINVAL;
; 62   :         }
; 63   :         memcpy(_Destination, _Source, _SourceSize);

  000f9	56		 push	 esi
  000fa	53		 push	 ebx
  000fb	50		 push	 eax
  000fc	e8 00 00 00 00	 call	 _memcpy
  00101	83 c4 0c	 add	 esp, 12			; 0000000cH
  00104	eb 1c		 jmp	 SHORT $LN65@SetString
$LN63@SetString:

; 54   :         {
; 55   :             memset(_Destination, 0, _DestinationSize);

  00106	51		 push	 ecx
  00107	6a 00		 push	 0
  00109	50		 push	 eax
  0010a	e8 00 00 00 00	 call	 _memset
  0010f	83 c4 0c	 add	 esp, 12			; 0000000cH
$LN98@SetString:
; File C:\Program Files\Microsoft Visual Studio\2022\Professional\VC\Tools\MSVC\14.44.35207\atlmfc\include\atlsimpstr.h

; 875  : 		if( nLength < 0 || nLength > GetData()->nAllocLength)

  00112	e8 00 00 00 00	 call	 __errno
  00117	c7 00 22 00 00
	00		 mov	 DWORD PTR [eax], 34	; 00000022H
$LN97@SetString:
  0011d	e8 00 00 00 00	 call	 __invalid_parameter_noinfo
$LN65@SetString:
  00122	8b 07		 mov	 eax, DWORD PTR [edi]
  00124	5b		 pop	 ebx
  00125	3b 70 f8	 cmp	 esi, DWORD PTR [eax-8]
  00128	7f 0f		 jg	 SHORT $LN71@SetString

; 877  : 
; 878  : 		GetData()->nDataLength = nLength;

  0012a	89 70 f4	 mov	 DWORD PTR [eax-12], esi

; 879  : 		m_pszData[nLength] = 0;

  0012d	8b 07		 mov	 eax, DWORD PTR [edi]
  0012f	5f		 pop	 edi
  00130	c6 04 06 00	 mov	 BYTE PTR [esi+eax], 0

; 638  : 			else
; 639  : 			{
; 640  : 				memcpy_s( pszBuffer, GetAllocLength() * sizeof( XCHAR ), pszSrc, nLength * sizeof( XCHAR ));
; 641  : 			}
; 642  : 			ReleaseBufferSetLength( nLength );
; 643  : 		}
; 644  : 	}

  00134	5e		 pop	 esi
  00135	5d		 pop	 ebp
  00136	c2 08 00	 ret	 8
$LN71@SetString:

; 876  : 			AtlThrow(E_INVALIDARG);

  00139	68 57 00 07 80	 push	 -2147024809		; 80070057H
  0013e	e8 00 00 00 00	 call	 ?AtlThrowImpl@ATL@@YGXJ@Z ; ATL::AtlThrowImpl
$LN96@SetString:
  00143	cc		 int	 3
?SetString@?$CSimpleStringT@D$0A@@ATL@@QAEXPBDH@Z ENDP	; ATL::CSimpleStringT<char,0>::SetString
_TEXT	ENDS
; Function compile flags: /Ogtp
; File C:\Program Files\Microsoft Visual Studio\2022\Professional\VC\Tools\MSVC\14.44.35207\atlmfc\include\atlsimpstr.h
;	COMDAT ??1?$CSimpleStringT@D$0A@@ATL@@QAE@XZ
_TEXT	SEGMENT
??1?$CSimpleStringT@D$0A@@ATL@@QAE@XZ PROC		; ATL::CSimpleStringT<char,0>::~CSimpleStringT<char,0>, COMDAT
; _this$ = ecx

; 804  : 		return( reinterpret_cast< CStringData* >( m_pszData )-1 );

  00000	8b 11		 mov	 edx, DWORD PTR [ecx]

; 92   : 		if( _InterlockedDecrement( &nRefs ) <= 0 )

  00002	83 c8 ff	 or	 eax, -1

; 804  : 		return( reinterpret_cast< CStringData* >( m_pszData )-1 );

  00005	83 ea 10	 sub	 edx, 16			; 00000010H

; 92   : 		if( _InterlockedDecrement( &nRefs ) <= 0 )

  00008	f0 0f c1 42 0c	 lock	  xadd	 DWORD PTR [edx+12], eax
  0000d	48		 dec	 eax
  0000e	85 c0		 test	 eax, eax
  00010	7f 08		 jg	 SHORT $LN6@CSimpleStr

; 93   : 		{
; 94   : 			pStringMgr->Free( this );

  00012	8b 0a		 mov	 ecx, DWORD PTR [edx]
  00014	52		 push	 edx
  00015	8b 01		 mov	 eax, DWORD PTR [ecx]
  00017	ff 50 04	 call	 DWORD PTR [eax+4]
$LN6@CSimpleStr:

; 265  : 		CStringData* pData = GetData();
; 266  : 		pData->Release();
; 267  : 	}

  0001a	c3		 ret	 0
??1?$CSimpleStringT@D$0A@@ATL@@QAE@XZ ENDP		; ATL::CSimpleStringT<char,0>::~CSimpleStringT<char,0>
_TEXT	ENDS
; Function compile flags: /Ogtp
; File C:\Program Files\Microsoft Visual Studio\2022\Professional\VC\Tools\MSVC\14.44.35207\atlmfc\include\atlexcept.h
;	COMDAT ?AtlThrowImpl@ATL@@YGXJ@Z
_TEXT	SEGMENT
_hr$ = 8						; size = 4
?AtlThrowImpl@ATL@@YGXJ@Z PROC				; ATL::AtlThrowImpl, COMDAT

; 69   : {

  00000	55		 push	 ebp
  00001	8b ec		 mov	 ebp, esp

; 70   : 	ATLTRACE(atlTraceException, 0, _T("AtlThrow: hr = 0x%x\n"), hr );
; 71   : #ifdef _AFX
; 72   : 	if( hr == E_OUTOFMEMORY )

  00003	8b 45 08	 mov	 eax, DWORD PTR _hr$[ebp]
  00006	3d 0e 00 07 80	 cmp	 eax, -2147024882	; 8007000eH
  0000b	75 05		 jne	 SHORT $LN2@AtlThrowIm

; 73   : 	{
; 74   : 		AfxThrowMemoryException();

  0000d	e8 00 00 00 00	 call	 ?AfxThrowMemoryException@@YGXXZ ; AfxThrowMemoryException
$LN2@AtlThrowIm:

; 75   : 	}
; 76   : 	else
; 77   : 	{
; 78   : 		AfxThrowOleException( hr );

  00012	50		 push	 eax
  00013	e8 00 00 00 00	 call	 ?AfxThrowOleException@@YGXJ@Z ; AfxThrowOleException
$LN5@AtlThrowIm:
  00018	cc		 int	 3
?AtlThrowImpl@ATL@@YGXJ@Z ENDP				; ATL::AtlThrowImpl
_TEXT	ENDS
; Function compile flags: /Ogtp
; File C:\Program Files\Microsoft Visual Studio\2022\Professional\VC\Tools\MSVC\14.44.35207\atlmfc\include\afx.h
;	COMDAT ?AfxCrtErrorCheck@@YAHH@Z
_TEXT	SEGMENT
_error$ = 8						; size = 4
?AfxCrtErrorCheck@@YAHH@Z PROC				; AfxCrtErrorCheck, COMDAT

; 510  : {

  00000	55		 push	 ebp
  00001	8b ec		 mov	 ebp, esp

; 511  : 	switch(error)

  00003	8b 4d 08	 mov	 ecx, DWORD PTR _error$[ebp]
  00006	83 f9 50	 cmp	 ecx, 80			; 00000050H
  00009	77 17		 ja	 SHORT $LN9@AfxCrtErro
  0000b	0f b6 81 00 00
	00 00		 movzx	 eax, BYTE PTR $LN11@AfxCrtErro[ecx]
  00012	ff 24 85 00 00
	00 00		 jmp	 DWORD PTR $LN12@AfxCrtErro[eax*4]
$LN4@AfxCrtErro:

; 512  : 	{
; 513  : 	case ENOMEM:
; 514  : 		AfxThrowMemoryException();

  00019	e9 00 00 00 00	 jmp	 ?AfxThrowMemoryException@@YGXXZ ; AfxThrowMemoryException
$LN7@AfxCrtErro:

; 525  : 		break;
; 526  : 	}
; 527  : 	return error;

  0001e	8b c1		 mov	 eax, ecx

; 528  : }

  00020	5d		 pop	 ebp
  00021	c3		 ret	 0
$LN9@AfxCrtErro:

; 515  : 		break;
; 516  : 	case EINVAL:
; 517  : 	case ERANGE:
; 518  : 		AfxThrowInvalidArgException();
; 519  : 		break;
; 520  : 	case STRUNCATE:
; 521  : 	case 0:
; 522  : 		break;
; 523  : 	default:
; 524  : 		AfxThrowInvalidArgException();

  00022	e9 00 00 00 00	 jmp	 ?AfxThrowInvalidArgException@@YGXXZ ; AfxThrowInvalidArgException
  00027	90		 npad	 1
$LN12@AfxCrtErro:

; 528  : }

  00028	00 00 00 00	 DD	 $LN7@AfxCrtErro
  0002c	00 00 00 00	 DD	 $LN4@AfxCrtErro
  00030	00 00 00 00	 DD	 $LN9@AfxCrtErro
  00034	00 00 00 00	 DD	 $LN9@AfxCrtErro
$LN11@AfxCrtErro:
  00038	00		 DB	 0
  00039	03		 DB	 3
  0003a	03		 DB	 3
  0003b	03		 DB	 3
  0003c	03		 DB	 3
  0003d	03		 DB	 3
  0003e	03		 DB	 3
  0003f	03		 DB	 3
  00040	03		 DB	 3
  00041	03		 DB	 3
  00042	03		 DB	 3
  00043	03		 DB	 3
  00044	01		 DB	 1
  00045	03		 DB	 3
  00046	03		 DB	 3
  00047	03		 DB	 3
  00048	03		 DB	 3
  00049	03		 DB	 3
  0004a	03		 DB	 3
  0004b	03		 DB	 3
  0004c	03		 DB	 3
  0004d	03		 DB	 3
  0004e	02		 DB	 2
  0004f	03		 DB	 3
  00050	03		 DB	 3
  00051	03		 DB	 3
  00052	03		 DB	 3
  00053	03		 DB	 3
  00054	03		 DB	 3
  00055	03		 DB	 3
  00056	03		 DB	 3
  00057	03		 DB	 3
  00058	03		 DB	 3
  00059	03		 DB	 3
  0005a	02		 DB	 2
  0005b	03		 DB	 3
  0005c	03		 DB	 3
  0005d	03		 DB	 3
  0005e	03		 DB	 3
  0005f	03		 DB	 3
  00060	03		 DB	 3
  00061	03		 DB	 3
  00062	03		 DB	 3
  00063	03		 DB	 3
  00064	03		 DB	 3
  00065	03		 DB	 3
  00066	03		 DB	 3
  00067	03		 DB	 3
  00068	03		 DB	 3
  00069	03		 DB	 3
  0006a	03		 DB	 3
  0006b	03		 DB	 3
  0006c	03		 DB	 3
  0006d	03		 DB	 3
  0006e	03		 DB	 3
  0006f	03		 DB	 3
  00070	03		 DB	 3
  00071	03		 DB	 3
  00072	03		 DB	 3
  00073	03		 DB	 3
  00074	03		 DB	 3
  00075	03		 DB	 3
  00076	03		 DB	 3
  00077	03		 DB	 3
  00078	03		 DB	 3
  00079	03		 DB	 3
  0007a	03		 DB	 3
  0007b	03		 DB	 3
  0007c	03		 DB	 3
  0007d	03		 DB	 3
  0007e	03		 DB	 3
  0007f	03		 DB	 3
  00080	03		 DB	 3
  00081	03		 DB	 3
  00082	03		 DB	 3
  00083	03		 DB	 3
  00084	03		 DB	 3
  00085	03		 DB	 3
  00086	03		 DB	 3
  00087	03		 DB	 3
  00088	00		 DB	 0
?AfxCrtErrorCheck@@YAHH@Z ENDP				; AfxCrtErrorCheck
_TEXT	ENDS
; Function compile flags: /Ogtp
; File C:\IAGOS\server\v18\Source\Source\_Common\ProjectCmn.cpp
;	COMDAT ?__empty_global_delete@@YAXPAXI@Z
_TEXT	SEGMENT
___formal$ = 8						; size = 4
___formal$ = 12						; size = 4
?__empty_global_delete@@YAXPAXI@Z PROC			; __empty_global_delete, COMDAT

  00000	c2 00 00	 ret	 0
?__empty_global_delete@@YAXPAXI@Z ENDP			; __empty_global_delete
_TEXT	ENDS
; Function compile flags: /Ogtp
; File C:\IAGOS\server\v18\Source\Source\_Common\ProjectCmn.cpp
;	COMDAT ?__empty_global_delete@@YAXPAX@Z
_TEXT	SEGMENT
___formal$ = 8						; size = 4
?__empty_global_delete@@YAXPAX@Z PROC			; __empty_global_delete, COMDAT

  00000	c2 00 00	 ret	 0
?__empty_global_delete@@YAXPAX@Z ENDP			; __empty_global_delete
_TEXT	ENDS
END
