; Listing generated by Microsoft (R) Optimizing Compiler Version 19.44.35225.0 

	TITLE	C:\IAGOS\server\v18\Source\Output\DatabaseServer\Release\ProjectCmn.obj
	.686P
	.XMM
	include listing.inc
	.model	flat

INCLUDELIB LIBCMT
INCLUDELIB OLDNAMES

PUBLIC	?__empty_global_delete@@YAXPAX@Z		; __empty_global_delete
PUBLIC	?__empty_global_delete@@YAXPAXI@Z		; __empty_global_delete
PUBLIC	?AfxCrtErrorCheck@@YAHH@Z			; AfxCrtErrorCheck
PUBLIC	?AtlThrowImpl@ATL@@YGXJ@Z			; ATL::AtlThrowImpl
PUBLIC	??1?$CSimpleStringT@D$0A@@ATL@@QAE@XZ		; ATL::CSimpleStringT<char,0>::~CSimpleStringT<char,0>
PUBLIC	?SetString@?$CSimpleStringT@D$0A@@ATL@@QAEXPBDH@Z ; ATL::CSimpleStringT<char,0>::SetString
PUBLIC	?ThrowMemoryException@?$CSimpleStringT@D$0A@@ATL@@KAXXZ ; ATL::CSimpleStringT<char,0>::ThrowMemoryException
PUBLIC	?Fork@?$CSimpleStringT@D$0A@@ATL@@AAEXH@Z	; ATL::CSimpleStringT<char,0>::Fork
PUBLIC	?PrepareWrite2@?$CSimpleStringT@D$0A@@ATL@@AAEXH@Z ; ATL::CSimpleStringT<char,0>::PrepareWrite2
PUBLIC	?Reallocate@?$CSimpleStringT@D$0A@@ATL@@AAEXH@Z	; ATL::CSimpleStringT<char,0>::Reallocate
PUBLIC	?CloneData@?$CSimpleStringT@D$0A@@ATL@@CAPAUCStringData@2@PAU32@@Z ; ATL::CSimpleStringT<char,0>::CloneData
PUBLIC	??1?$CStringT@DV?$StrTraitMFC@DV?$ChTraitsCRT@D@ATL@@@@@ATL@@QAE@XZ ; ATL::CStringT<char,StrTraitMFC<char,ATL::ChTraitsCRT<char> > >::~CStringT<char,StrTraitMFC<char,ATL::ChTraitsCRT<char> > >
PUBLIC	??4?$CStringT@DV?$StrTraitMFC@DV?$ChTraitsCRT@D@ATL@@@@@ATL@@QAEAAV01@ABV01@@Z ; ATL::CStringT<char,StrTraitMFC<char,ATL::ChTraitsCRT<char> > >::operator=
PUBLIC	?Replace@?$CStringT@DV?$StrTraitMFC@DV?$ChTraitsCRT@D@ATL@@@@@ATL@@QAEHPBD0@Z ; ATL::CStringT<char,StrTraitMFC<char,ATL::ChTraitsCRT<char> > >::Replace
PUBLIC	?LoadStringA@?$CStringT@DV?$StrTraitMFC@DV?$ChTraitsCRT@D@ATL@@@@@ATL@@QAEHI@Z ; ATL::CStringT<char,StrTraitMFC<char,ATL::ChTraitsCRT<char> > >::LoadStringA
PUBLIC	??HATL@@YA?AV?$CStringT@DV?$StrTraitMFC@DV?$ChTraitsCRT@D@ATL@@@@@0@ABV10@PBD@Z ; ATL::operator+
PUBLIC	??0exception@std@@QAE@ABV01@@Z			; std::exception::exception
PUBLIC	??1exception@std@@UAE@XZ			; std::exception::~exception
PUBLIC	?what@exception@std@@UBEPBDXZ			; std::exception::what
PUBLIC	??_Gexception@std@@UAEPAXI@Z			; std::exception::`scalar deleting destructor'
PUBLIC	??0bad_alloc@std@@QAE@ABV01@@Z			; std::bad_alloc::bad_alloc
PUBLIC	??_Gbad_alloc@std@@UAEPAXI@Z			; std::bad_alloc::`scalar deleting destructor'
PUBLIC	??0bad_array_new_length@std@@QAE@XZ		; std::bad_array_new_length::bad_array_new_length
PUBLIC	??1bad_array_new_length@std@@UAE@XZ		; std::bad_array_new_length::~bad_array_new_length
PUBLIC	??0bad_array_new_length@std@@QAE@ABV01@@Z	; std::bad_array_new_length::bad_array_new_length
PUBLIC	??_Gbad_array_new_length@std@@UAEPAXI@Z		; std::bad_array_new_length::`scalar deleting destructor'
PUBLIC	?_Throw_bad_array_new_length@std@@YAXXZ		; std::_Throw_bad_array_new_length
PUBLIC	?_Xlen_string@std@@YAXXZ			; std::_Xlen_string
PUBLIC	??0?$basic_string@DU?$char_traits@D@std@@V?$allocator@D@2@@std@@QAE@ABV01@@Z ; std::basic_string<char,std::char_traits<char>,std::allocator<char> >::basic_string<char,std::char_traits<char>,std::allocator<char> >
PUBLIC	??0?$basic_string@DU?$char_traits@D@std@@V?$allocator@D@2@@std@@QAE@QBD@Z ; std::basic_string<char,std::char_traits<char>,std::allocator<char> >::basic_string<char,std::char_traits<char>,std::allocator<char> >
PUBLIC	??1?$basic_string@DU?$char_traits@D@std@@V?$allocator@D@2@@std@@QAE@XZ ; std::basic_string<char,std::char_traits<char>,std::allocator<char> >::~basic_string<char,std::char_traits<char>,std::allocator<char> >
PUBLIC	?_Throw_tree_length_error@std@@YAXXZ		; std::_Throw_tree_length_error
PUBLIC	?_Insert_node@?$_Tree_val@U?$_Tree_simple_types@U?$pair@$$CBV?$basic_string@DU?$char_traits@D@std@@V?$allocator@D@2@@std@@K@std@@@std@@@std@@QAEPAU?$_Tree_node@U?$pair@$$CBV?$basic_string@DU?$char_traits@D@std@@V?$allocator@D@2@@std@@K@std@@PAX@2@U?$_Tree_id@PAU?$_Tree_node@U?$pair@$$CBV?$basic_string@DU?$char_traits@D@std@@V?$allocator@D@2@@std@@K@std@@PAX@std@@@2@QAU32@@Z ; std::_Tree_val<std::_Tree_simple_types<std::pair<std::basic_string<char,std::char_traits<char>,std::allocator<char> > const ,unsigned long> > >::_Insert_node
PUBLIC	?SetAtGrow@?$CFixedArray@UItemProp@@@@QAEXHPAUItemProp@@H@Z ; CFixedArray<ItemProp>::SetAtGrow
PUBLIC	?Optimize@?$CFixedArray@UItemProp@@@@QAEXXZ	; CFixedArray<ItemProp>::Optimize
PUBLIC	?SetAtGrow@?$CFixedArray@UtagColorText@@@@QAEXHPAUtagColorText@@H@Z ; CFixedArray<tagColorText>::SetAtGrow
PUBLIC	?Optimize@?$CFixedArray@UtagColorText@@@@QAEXXZ	; CFixedArray<tagColorText>::Optimize
PUBLIC	?_Insert_node@?$_Tree_val@U?$_Tree_simple_types@V?$basic_string@DU?$char_traits@D@std@@V?$allocator@D@2@@std@@@std@@@std@@QAEPAU?$_Tree_node@V?$basic_string@DU?$char_traits@D@std@@V?$allocator@D@2@@std@@PAX@2@U?$_Tree_id@PAU?$_Tree_node@V?$basic_string@DU?$char_traits@D@std@@V?$allocator@D@2@@std@@PAX@std@@@2@QAU32@@Z ; std::_Tree_val<std::_Tree_simple_types<std::basic_string<char,std::char_traits<char>,std::allocator<char> > > >::_Insert_node
PUBLIC	?LoadInvalidName@CProject@@QAEHXZ		; CProject::LoadInvalidName
PUBLIC	?IsInvalidName@CProject@@QAEHPBD@Z		; CProject::IsInvalidName
PUBLIC	?_Insert_node@?$_Tree_val@U?$_Tree_simple_types@D@std@@@std@@QAEPAU?$_Tree_node@DPAX@2@U?$_Tree_id@PAU?$_Tree_node@DPAX@std@@@2@QAU32@@Z ; std::_Tree_val<std::_Tree_simple_types<char> >::_Insert_node
PUBLIC	?LoadAllowedLetter@CProject@@QAEHH@Z		; CProject::LoadAllowedLetter
PUBLIC	?IsAllowedLetter@CProject@@QAEHPBDH@Z		; CProject::IsAllowedLetter
PUBLIC	?Formalize@CProject@@QAEXPAD@Z			; CProject::Formalize
PUBLIC	?LoadDefines@CProject@@QAEXXZ			; CProject::LoadDefines
PUBLIC	?LoadPreFiles@CProject@@QAEXXZ			; CProject::LoadPreFiles
PUBLIC	?LoadStrings@CProject@@QAEXXZ			; CProject::LoadStrings
PUBLIC	?LoadPropMover@CProject@@QAEHPBD@Z		; CProject::LoadPropMover
PUBLIC	?LoadPropItem@CProject@@QAEHPBDPAV?$CFixedArray@UItemProp@@@@@Z ; CProject::LoadPropItem
PUBLIC	?LoadPropItemEx@CProject@@QAEHPBDPAV?$CFixedArray@UItemProp@@@@@Z ; CProject::LoadPropItemEx
PUBLIC	?LoadJobItem@CProject@@QAEHPBD@Z		; CProject::LoadJobItem
PUBLIC	?LoadText@CProject@@QAEHPBD@Z			; CProject::LoadText
PUBLIC	?GetLangScript@CProject@@QAE?AV?$CStringT@DV?$StrTraitMFC@DV?$ChTraitsCRT@D@ATL@@@@@ATL@@AAVCScript@@@Z ; CProject::GetLangScript
PUBLIC	??1?$pair@$$CBV?$basic_string@DU?$char_traits@D@std@@V?$allocator@D@2@@std@@K@std@@QAE@XZ ; std::pair<std::basic_string<char,std::char_traits<char>,std::allocator<char> > const ,unsigned long>::~pair<std::basic_string<char,std::char_traits<char>,std::allocator<char> > const ,unsigned long>
PUBLIC	??$?MDU?$char_traits@D@std@@V?$allocator@D@1@@std@@YA_NABV?$basic_string@DU?$char_traits@D@std@@V?$allocator@D@2@@0@0@Z ; std::operator<<char,std::char_traits<char>,std::allocator<char> >
PUBLIC	??$_Allocate_manually_vector_aligned@U_Default_allocate_traits@std@@@std@@YAPAXI@Z ; std::_Allocate_manually_vector_aligned<std::_Default_allocate_traits>
PUBLIC	?GetLangFileName@@YA?AV?$CStringT@DV?$StrTraitMFC@DV?$ChTraitsCRT@D@ATL@@@@@ATL@@HH@Z ; GetLangFileName
PUBLIC	??1?$_Tree@V?$_Tset_traits@HU?$less@H@std@@V?$allocator@H@2@$0A@@std@@@std@@QAE@XZ ; std::_Tree<std::_Tset_traits<int,std::less<int>,std::allocator<int>,0> >::~_Tree<std::_Tset_traits<int,std::less<int>,std::allocator<int>,0> >
PUBLIC	?_Insert_node@?$_Tree_val@U?$_Tree_simple_types@H@std@@@std@@QAEPAU?$_Tree_node@HPAX@2@U?$_Tree_id@PAU?$_Tree_node@HPAX@std@@@2@QAU32@@Z ; std::_Tree_val<std::_Tree_simple_types<int> >::_Insert_node
PUBLIC	??1?$set@HU?$less@H@std@@V?$allocator@H@2@@std@@QAE@XZ ; std::set<int,std::less<int>,std::allocator<int> >::~set<int,std::less<int>,std::allocator<int> >
PUBLIC	??1?$_Alloc_construct_ptr@V?$allocator@U?$_Tree_node@HPAX@std@@@std@@@std@@QAE@XZ ; std::_Alloc_construct_ptr<std::allocator<std::_Tree_node<int,void *> > >::~_Alloc_construct_ptr<std::allocator<std::_Tree_node<int,void *> > >
PUBLIC	??1?$_Alloc_construct_ptr@V?$allocator@U?$_Tree_node@U?$pair@$$CBV?$basic_string@DU?$char_traits@D@std@@V?$allocator@D@2@@std@@K@std@@PAX@std@@@std@@@std@@QAE@XZ ; std::_Alloc_construct_ptr<std::allocator<std::_Tree_node<std::pair<std::basic_string<char,std::char_traits<char>,std::allocator<char> > const ,unsigned long>,void *> > >::~_Alloc_construct_ptr<std::allocator<std::_Tree_node<std::pair<std::basic_string<char,std::char_traits<char>,std::allocator<char> > const ,unsigned long>,void *> > >
PUBLIC	??1?$_Tree_temp_node_alloc@V?$allocator@U?$_Tree_node@U?$pair@$$CBV?$basic_string@DU?$char_traits@D@std@@V?$allocator@D@2@@std@@K@std@@PAX@std@@@std@@@std@@QAE@XZ ; std::_Tree_temp_node_alloc<std::allocator<std::_Tree_node<std::pair<std::basic_string<char,std::char_traits<char>,std::allocator<char> > const ,unsigned long>,void *> > >::~_Tree_temp_node_alloc<std::allocator<std::_Tree_node<std::pair<std::basic_string<char,std::char_traits<char>,std::allocator<char> > const ,unsigned long>,void *> > >
PUBLIC	??1?$_Alloc_construct_ptr@V?$allocator@U?$_Tree_node@V?$basic_string@DU?$char_traits@D@std@@V?$allocator@D@2@@std@@PAX@std@@@std@@@std@@QAE@XZ ; std::_Alloc_construct_ptr<std::allocator<std::_Tree_node<std::basic_string<char,std::char_traits<char>,std::allocator<char> >,void *> > >::~_Alloc_construct_ptr<std::allocator<std::_Tree_node<std::basic_string<char,std::char_traits<char>,std::allocator<char> >,void *> > >
PUBLIC	??$_Find_lower_bound@D@?$_Tree@V?$_Tset_traits@DU?$less@D@std@@V?$allocator@D@2@$0A@@std@@@std@@IBE?AU?$_Tree_find_result@PAU?$_Tree_node@DPAX@std@@@1@ABD@Z ; std::_Tree<std::_Tset_traits<char,std::less<char>,std::allocator<char>,0> >::_Find_lower_bound<char>
PUBLIC	??1?$_Alloc_construct_ptr@V?$allocator@U?$_Tree_node@DPAX@std@@@std@@@std@@QAE@XZ ; std::_Alloc_construct_ptr<std::allocator<std::_Tree_node<char,void *> > >::~_Alloc_construct_ptr<std::allocator<std::_Tree_node<char,void *> > >
PUBLIC	??$_Erase_tree@V?$allocator@U?$_Tree_node@HPAX@std@@@std@@@?$_Tree_val@U?$_Tree_simple_types@H@std@@@std@@QAEXAAV?$allocator@U?$_Tree_node@HPAX@std@@@1@PAU?$_Tree_node@HPAX@1@@Z ; std::_Tree_val<std::_Tree_simple_types<int> >::_Erase_tree<std::allocator<std::_Tree_node<int,void *> > >
PUBLIC	??_C@_00CNPNBAHC@@				; `string'
PUBLIC	??_7exception@std@@6B@				; std::exception::`vftable'
PUBLIC	??_C@_0BC@EOODALEL@Unknown?5exception@		; `string'
PUBLIC	??_7bad_alloc@std@@6B@				; std::bad_alloc::`vftable'
PUBLIC	??_7bad_array_new_length@std@@6B@		; std::bad_array_new_length::`vftable'
PUBLIC	??_C@_0BF@KINCDENJ@bad?5array?5new?5length@	; `string'
PUBLIC	??_R0?AVexception@std@@@8			; std::exception `RTTI Type Descriptor'
PUBLIC	__CT??_R0?AVexception@std@@@8??0exception@std@@QAE@ABV01@@Z12
PUBLIC	__TI3?AVbad_array_new_length@std@@
PUBLIC	__CTA3?AVbad_array_new_length@std@@
PUBLIC	??_R0?AVbad_array_new_length@std@@@8		; std::bad_array_new_length `RTTI Type Descriptor'
PUBLIC	__CT??_R0?AVbad_array_new_length@std@@@8??0bad_array_new_length@std@@QAE@ABV01@@Z12
PUBLIC	??_R0?AVbad_alloc@std@@@8			; std::bad_alloc `RTTI Type Descriptor'
PUBLIC	__CT??_R0?AVbad_alloc@std@@@8??0bad_alloc@std@@QAE@ABV01@@Z12
PUBLIC	??_C@_0BA@JFNIOLAK@string?5too?5long@		; `string'
PUBLIC	??_C@_0BB@GCADKGJO@map?1set?5too?5long@		; `string'
PUBLIC	??_R4exception@std@@6B@				; std::exception::`RTTI Complete Object Locator'
PUBLIC	??_R3exception@std@@8				; std::exception::`RTTI Class Hierarchy Descriptor'
PUBLIC	??_R2exception@std@@8				; std::exception::`RTTI Base Class Array'
PUBLIC	??_R1A@?0A@EA@exception@std@@8			; std::exception::`RTTI Base Class Descriptor at (0,-1,0,64)'
PUBLIC	??_R4bad_array_new_length@std@@6B@		; std::bad_array_new_length::`RTTI Complete Object Locator'
PUBLIC	??_R3bad_array_new_length@std@@8		; std::bad_array_new_length::`RTTI Class Hierarchy Descriptor'
PUBLIC	??_R2bad_array_new_length@std@@8		; std::bad_array_new_length::`RTTI Base Class Array'
PUBLIC	??_R1A@?0A@EA@bad_array_new_length@std@@8	; std::bad_array_new_length::`RTTI Base Class Descriptor at (0,-1,0,64)'
PUBLIC	??_R1A@?0A@EA@bad_alloc@std@@8			; std::bad_alloc::`RTTI Base Class Descriptor at (0,-1,0,64)'
PUBLIC	??_R3bad_alloc@std@@8				; std::bad_alloc::`RTTI Class Hierarchy Descriptor'
PUBLIC	??_R2bad_alloc@std@@8				; std::bad_alloc::`RTTI Base Class Array'
PUBLIC	??_R4bad_alloc@std@@6B@				; std::bad_alloc::`RTTI Complete Object Locator'
PUBLIC	??_C@_06IBDJIBGI@Filter@			; `string'
PUBLIC	??_C@_0M@KNNOCJKG@InvalidName@			; `string'
PUBLIC	??_C@_06JHGCIHDH@Notice@			; `string'
PUBLIC	??_C@_0BC@DHLCCIHN@GuildCombatTEXT_1@		; `string'
PUBLIC	??_C@_0BC@BMJPHLLO@GuildCombatTEXT_2@		; `string'
PUBLIC	??_C@_0BC@FIEEKPP@GuildCombatTEXT_3@		; `string'
PUBLIC	??_C@_0BC@EKMFNMDI@GuildCombatTEXT_4@		; `string'
PUBLIC	??_C@_0BC@FDNOONHJ@GuildCombatTEXT_5@		; `string'
PUBLIC	??_C@_0BC@HIPDLOLK@GuildCombatTEXT_6@		; `string'
PUBLIC	??_C@_06CBLMCBO@Letter@				; `string'
PUBLIC	??_C@_0BG@NONHDJNH@GuildCombat1to1_TEXT1@	; `string'
PUBLIC	??_C@_0BG@PFPKGKBE@GuildCombat1to1_TEXT2@	; `string'
PUBLIC	??_C@_0BG@OMOBFLFF@GuildCombat1to1_TEXT3@	; `string'
PUBLIC	??_C@_0BG@KDKAMNJC@GuildCombat1to1_TEXT4@	; `string'
PUBLIC	??_C@_0BG@LKLLPMND@GuildCombat1to1_TEXT5@	; `string'
PUBLIC	??_C@_07DMFACBBD@Letter1@			; `string'
PUBLIC	??_C@_03JOGALCLM@job@				; `string'
PUBLIC	??_C@_01CELHOKLL@?$HN@				; `string'
PUBLIC	??_C@_03OMLNFKE@sex@				; `string'
PUBLIC	??_C@_04NHONDGDE@item@				; `string'
PUBLIC	??_C@_0DC@PMFBALLG@too?5many?5mover?5property?5or?5inva@ ; `string'
PUBLIC	??_C@_0EL@DNFECMCM@Last?5read?3?$CFs?0?5ID?3?$CFd?5is?5duplicat@ ; `string'
PUBLIC	??_C@_0GF@PODIKLMP@LoadPropMover?5?3?5bIfParts?$LP?$KD?5?91?$MA?$LL@ ; `string'
PUBLIC	??_C@_0CC@LPPNKII@?$CFs?5ID?3?$CFd?5last_read?$CIID?3?$CFd?5name?3?$CF@ ; `string'
PUBLIC	??_C@_01BJJEKLCA@?$CC@				; `string'
PUBLIC	??_C@_01CLKCMJKC@?5@				; `string'
PUBLIC	??_C@_0BC@MJDHHDNE@character?4txt?4txt@		; `string'
PUBLIC	??_C@_0BG@ODDMMEFI@character?9etc?4txt?4txt@	; `string'
PUBLIC	??_C@_0BJ@HMJLABEE@character?9school?4txt?4txt@	; `string'
PUBLIC	??_C@_0M@OGPAIIPO@etc?4txt?4txt@		; `string'
PUBLIC	??_C@_0BB@BKCFBPCG@propCtrl?4txt?4txt@		; `string'
PUBLIC	??_C@_0BB@EIHFMDHG@propItem?4txt?4txt@		; `string'
PUBLIC	??_C@_0BE@CPNEMNP@propItemEtc?4txt?4txt@	; `string'
PUBLIC	??_C@_0BC@EGADJKPG@propKarma?4txt?4txt@		; `string'
PUBLIC	??_C@_0BD@HCIMKPMD@propMotion?4txt?4txt@	; `string'
PUBLIC	??_C@_0BC@DBHLDNCB@propMover?4txt?4txt@		; `string'
PUBLIC	??_C@_0BC@MDLPBBFP@propQuest?4txt?4txt@		; `string'
PUBLIC	??_C@_0BP@EHFDCEFH@propQuest?9DungeonandPK?4txt?4txt@ ; `string'
PUBLIC	??_C@_0BO@JKKEFHJM@propQuest?9RequestBox2?4txt?4txt@ ; `string'
PUBLIC	??_C@_0BN@BEAOFAE@propQuest?9RequestBox?4txt?4txt@ ; `string'
PUBLIC	??_C@_0BL@BIEBMGAK@propQuest?9Scenario?4txt?4txt@ ; `string'
PUBLIC	??_C@_0BC@GAENMDAI@propSkill?4txt?4txt@		; `string'
PUBLIC	??_C@_0BI@COHEJFON@propTroupeSkill?4txt?4txt@	; `string'
PUBLIC	??_C@_0BA@LECIOODH@resData?4txt?4txt@		; `string'
PUBLIC	??_C@_0BD@CBKKCFIG@textClient?4txt?4txt@	; `string'
PUBLIC	??_C@_0BE@LIGMBFHD@textEmotion?4txt?4txt@	; `string'
PUBLIC	??_C@_0O@GENGBLDM@world?4txt?4txt@		; `string'
PUBLIC	??_C@_0BI@GDEOEGGM@Client?2treeHelp?4txt?4txt@	; `string'
PUBLIC	??_C@_0BD@PCPCCCJB@Client?2tip?4txt?4txt@	; `string'
PUBLIC	??_C@_0BL@HJPLFEHN@Client?2PatchClient?4txt?4txt@ ; `string'
PUBLIC	??_C@_0BL@DHMHIAON@Client?2InstantHelp?4txt?4txt@ ; `string'
PUBLIC	??_C@_0BE@PCGFBKB@Client?2help?4txt?4txt@	; `string'
PUBLIC	??_C@_0BF@MOKFFBND@Client?2Guide?4txt?4txt@	; `string'
PUBLIC	??_C@_0BI@HPDDMKMM@Client?2tutorial?4txt?4txt@	; `string'
PUBLIC	??_C@_0BD@EHNANLIJ@Client?2faq?4txt?4txt@	; `string'
PUBLIC	??_C@_0CC@LNLMDCNI@World?2WdVolcane?2WdVolcane?4txt?4t@ ; `string'
PUBLIC	??_C@_0CE@LECANJG@World?2WdMadrigal?2wdMadrigal?4txt@ ; `string'
PUBLIC	??_C@_0CC@OFJBPJBI@World?2WdKebaras?2WdKebaras?4txt?4t@ ; `string'
PUBLIC	??_C@_0CE@BLNGOAF@World?2WdGuildWar?2WdGuildWar?4txt@ ; `string'
PUBLIC	??_C@_0CC@PDPOCILP@World?2WdEvent01?2WdEvent01?4txt?4t@ ; `string'
PUBLIC	??_C@_0CA@CEIGPAD@World?2DuMuscle?2DuMuscle?4txt?4txt@ ; `string'
PUBLIC	??_C@_0BK@PFAKEDAL@World?2DuKrr?2DuKrr?4txt?4txt@ ; `string'
PUBLIC	??_C@_0BO@OOCINCCB@World?2DuFlMas?2DuFlMas?4txt?4txt@ ; `string'
PUBLIC	??_C@_0BM@HLBNPGPD@World?2DuDaDk?2DuDaDk?4txt?4txt@ ; `string'
PUBLIC	??_C@_0BM@FGJOMPKG@World?2DuBear?2DuBear?4txt?4txt@ ; `string'
PUBLIC	??_C@_0CE@GNBHODLB@World?2DuSaTemple?2DuSaTemple?4txt@ ; `string'
PUBLIC	??_C@_0CM@MCGFEELL@World?2DuSaTempleBoss?2DuSaTemple@ ; `string'
PUBLIC	??_C@_0CI@PPFFEENJ@World?2WdVolcaneRed?2WdVolcaneRed@ ; `string'
PUBLIC	??_C@_0CO@OHDLGMEL@World?2WdVolcaneYellow?2WdVolcane@ ; `string'
PUBLIC	??_C@_0BC@LLOPCCEG@lordskill?4txt?4txt@		; `string'
PUBLIC	??_C@_0CE@MOAPONAE@World?2WdHeaven01?2wdheaven01?4txt@ ; `string'
PUBLIC	??_C@_0CE@FOCGNEOE@World?2WdHeaven02?2wdheaven02?4txt@ ; `string'
PUBLIC	??_C@_0CE@CODODMEE@World?2WdHeaven03?2wdheaven03?4txt@ ; `string'
PUBLIC	??_C@_0CE@KFAFKBGF@World?2WdHeaven04?2wdheaven04?4txt@ ; `string'
PUBLIC	??_C@_0CE@NFBNEJMF@World?2WdHeaven05?2wdheaven05?4txt@ ; `string'
PUBLIC	??_C@_0CE@EFDEHACF@World?2WdHeaven06?2wdheaven06?4txt@ ; `string'
PUBLIC	??_C@_0CI@KPKEAIHK@World?2WdHeaven06_1?2wdheaven06_1@ ; `string'
PUBLIC	??_C@_0BC@HFMDODCC@honorList?4txt?4txt@		; `string'
PUBLIC	??_C@_0CC@NFIHHMNA@World?2DuOminous?2duominous?4txt?4t@ ; `string'
PUBLIC	??_C@_0CG@LMDELLIK@World?2DuOminous_1?2duominous_1?4t@ ; `string'
PUBLIC	??_C@_0DC@EKHBJCH@World?2WdGuildhousesmall?2WdGuild@ ; `string'
PUBLIC	??_C@_0DE@MOIPIANB@World?2WdGuildhousemiddle?2WdGuil@ ; `string'
PUBLIC	??_C@_0DC@DDHCLEAB@World?2WdGuildhouselarge?2WdGuild@ ; `string'
PUBLIC	??_C@_0CM@GLCDMCDN@World?2DuDreadfulCave?2DuDreadful@ ; `string'
PUBLIC	??_C@_0CA@GOABAGCH@World?2DuRustia?2DuRustia?4txt?4txt@ ; `string'
PUBLIC	??_C@_0CE@LEEMOLAG@World?2DuRustia_1?2DuRustia_1?4txt@ ; `string'
PUBLIC	??_C@_0CE@PPMPNJMF@World?2WdRartesia?2WdRartesia?4txt@ ; `string'
PUBLIC	??_C@_0CC@CIGPIJKO@World?2DuBehamah?2DuBehamah?4txt?4t@ ; `string'
PUBLIC	??_C@_0CA@MALBOJDP@World?2DuKalgas?2DuKalgas?4txt?4txt@ ; `string'
PUBLIC	??_C@_0CG@PJICLKPM@World?2WdColosseum?2WdColosseum?4t@ ; `string'
PUBLIC	??_C@_0CC@CMCNDHBE@World?2DuUpresia?2DuUpresia?4txt?4t@ ; `string'
PUBLIC	??_C@_0CG@JHJGPNIK@World?2DuUpresia_1?2DuUpresia_1?4t@ ; `string'
PUBLIC	??_C@_0CC@EDPKODAA@World?2DuSanpres?2DuSanpres?4txt?4t@ ; `string'
PUBLIC	??_C@_0CG@GDIDDAKI@World?2DuSanpres_1?2DuSanpres_1?4t@ ; `string'
PUBLIC	??_C@_0CC@DOBLAPJN@World?2DuHerneos?2DuHerneos?4txt?4t@ ; `string'
PUBLIC	??_C@_0CG@LHOKLPNN@World?2DuHerneos_1?2DuHerneos_1?4t@ ; `string'
PUBLIC	??_C@_0BK@GFFJLDEM@World?2WdFwc?2WdFwc?4txt?4txt@ ; `string'
PUBLIC	??_C@_0P@PIAPDKAM@textClient?4inc@		; `string'
PUBLIC	??_C@_08PCOCPGDD@define?4h@			; `string'
PUBLIC	??_C@_0N@PBEDKAEK@defineNeuz?4h@		; `string'
PUBLIC	??_C@_0O@CHPIMLJG@defineQuest?4h@		; `string'
PUBLIC	??_C@_0M@FFCLKMF@defineJob?4h@			; `string'
PUBLIC	??_C@_0N@FBEALHFO@defineItem?4h@		; `string'
PUBLIC	??_C@_0O@IOEDGEHO@defineWorld?4h@		; `string'
PUBLIC	??_C@_0BB@NHAIBECF@defineItemkind?4h@		; `string'
PUBLIC	??_C@_06PCCJFGDM@lang?4h@			; `string'
PUBLIC	??_C@_0M@GILLMHCI@defineObj?4h@			; `string'
PUBLIC	??_C@_0BC@CKDPDEGH@defineAttribute?4h@		; `string'
PUBLIC	??_C@_0O@FCODJECA@defineSkill?4h@		; `string'
PUBLIC	??_C@_0N@CKKCNAEI@defineText?4h@		; `string'
PUBLIC	??_C@_0O@GNMMAJFM@defineSound?4h@		; `string'
PUBLIC	??_C@_09HGIMHIJB@resdata?4h@			; `string'
PUBLIC	??_C@_0L@CLDCCJPD@WndStyle?4h@			; `string'
PUBLIC	??_C@_0BC@NCNNNPFL@definelordskill?4h@		; `string'
PUBLIC	??_C@_0O@GNBOPHIK@defineHonor?4h@		; `string'
PUBLIC	??_C@_0BC@OEKDBOEK@defineItemGrade?4h@		; `string'
PUBLIC	??_C@_0BB@ONJJINID@defineItemType?4h@		; `string'
PUBLIC	??_C@_0N@NGOJEGCM@propLang?4txt@		; `string'
PUBLIC	??_C@_0DB@EEKBNLID@C?3?2IAGOS?2server?2v18?2Source?2Sour@ ; `string'
PUBLIC	??_C@_06OJLEAOEG@?$CFs?0?5?$CFd@		; `string'
PUBLIC	__real@358637bd
PUBLIC	__real@42c80000
PUBLIC	__real@bf800000
PUBLIC	__xmm@7fffffff7fffffff7fffffff7fffffff
EXTRN	??2@YAPAXI@Z:PROC				; operator new
EXTRN	??3@YAXPAXI@Z:PROC				; operator delete
EXTRN	??_U@YAPAXI@Z:PROC				; operator new[]
EXTRN	??_V@YAXPAX@Z:PROC				; operator delete[]
EXTRN	__invalid_parameter_noinfo:PROC
EXTRN	__invoke_watson:PROC
EXTRN	__errno:PROC
EXTRN	__strlwr:PROC
EXTRN	__strupr:PROC
EXTRN	_strdup:PROC
EXTRN	_strlwr:PROC
EXTRN	__imp__LoadResource@8:PROC
EXTRN	__imp__LockResource@4:PROC
EXTRN	__imp__SizeofResource@8:PROC
EXTRN	__imp__FindResourceW@12:PROC
EXTRN	__imp__lstrlenA@4:PROC
EXTRN	__imp__WideCharToMultiByte@32:PROC
EXTRN	__mbscmp:PROC
EXTRN	__mbsinc:PROC
EXTRN	__mbsstr:PROC
EXTRN	__ismbcspace:PROC
EXTRN	?AfxThrowMemoryException@@YGXXZ:PROC		; AfxThrowMemoryException
EXTRN	?AfxThrowInvalidArgException@@YGXXZ:PROC	; AfxThrowInvalidArgException
EXTRN	?AfxThrowOleException@@YGXJ@Z:PROC		; AfxThrowOleException
EXTRN	?AfxFindStringResourceHandle@@YGPAUHINSTANCE__@@I@Z:PROC ; AfxFindStringResourceHandle
EXTRN	?AfxGetStringManager@@YGPAUIAtlStringMgr@ATL@@XZ:PROC ; AfxGetStringManager
EXTRN	??0CDWordArray@@QAE@XZ:PROC			; CDWordArray::CDWordArray
EXTRN	?SetAtGrow@CDWordArray@@QAEXHK@Z:PROC		; CDWordArray::SetAtGrow
EXTRN	??1CDWordArray@@UAE@XZ:PROC			; CDWordArray::~CDWordArray
EXTRN	??0CStringArray@@QAE@XZ:PROC			; CStringArray::CStringArray
EXTRN	?SetAtGrow@CStringArray@@QAEXHABV?$CStringT@DV?$StrTraitMFC@DV?$ChTraitsCRT@D@ATL@@@@@ATL@@@Z:PROC ; CStringArray::SetAtGrow
EXTRN	??1CStringArray@@UAE@XZ:PROC			; CStringArray::~CStringArray
EXTRN	?_Xlength_error@std@@YAXPBD@Z:PROC		; std::_Xlength_error
EXTRN	___std_exception_copy:PROC
EXTRN	___std_exception_destroy:PROC
EXTRN	??_Eexception@std@@UAEPAXI@Z:PROC		; std::exception::`vector deleting destructor'
EXTRN	??_Ebad_alloc@std@@UAEPAXI@Z:PROC		; std::bad_alloc::`vector deleting destructor'
EXTRN	??_Ebad_array_new_length@std@@UAEPAXI@Z:PROC	; std::bad_array_new_length::`vector deleting destructor'
EXTRN	?Error@@YAPBDPBDZZ:PROC				; Error
EXTRN	?GetLanguage@@YAHXZ:PROC			; GetLanguage
EXTRN	??0CScanner@@QAE@H@Z:PROC			; CScanner::CScanner
EXTRN	??1CScanner@@UAE@XZ:PROC			; CScanner::~CScanner
EXTRN	?GetToken@CScanner@@UAEHH@Z:PROC		; CScanner::GetToken
EXTRN	?Load@CScanner@@QAEHPBDH@Z:PROC			; CScanner::Load
EXTRN	?GetNumber@CScanner@@QAEHH@Z:PROC		; CScanner::GetNumber
EXTRN	?GetInt64@CScanner@@QAE_JH@Z:PROC		; CScanner::GetInt64
EXTRN	?GetFloat@CScanner@@QAEMH@Z:PROC		; CScanner::GetFloat
EXTRN	??0CScript@@QAE@H@Z:PROC			; CScript::CScript
EXTRN	??1CScript@@UAE@XZ:PROC				; CScript::~CScript
EXTRN	?Load@CScript@@QAEHPBDHH@Z:PROC			; CScript::Load
EXTRN	?PreScan@CScript@@QAEXXZ:PROC			; CScript::PreScan
EXTRN	?GetToken@CScript@@UAEHH@Z:PROC			; CScript::GetToken
EXTRN	?LoadStringA@CScript@@QAEXXZ:PROC		; CScript::LoadStringA
EXTRN	?WriteLog@@YAXPBDZZ:PROC			; WriteLog
EXTRN	?Load@CLangMan@@QAEHPBD@Z:PROC			; CLangMan::Load
EXTRN	?GetLangData@CLangMan@@QAEPAU_LANG_DATA@@K@Z:PROC ; CLangMan::GetLangData
EXTRN	?GetInstance@CLangMan@@SAPAV1@XZ:PROC		; CLangMan::GetInstance
EXTRN	@__security_check_cookie@4:PROC
EXTRN	__CxxThrowException@8:PROC
EXTRN	___CxxFrameHandler3:PROC
EXTRN	__chkstk:PROC
EXTRN	_memcpy:PROC
EXTRN	_memmove:PROC
EXTRN	_memset:PROC
EXTRN	??_7type_info@@6B@:QWORD			; type_info::`vftable'
EXTRN	___security_cookie:DWORD
EXTRN	__fltused:DWORD
;	COMDAT __xmm@7fffffff7fffffff7fffffff7fffffff
CONST	SEGMENT
__xmm@7fffffff7fffffff7fffffff7fffffff DB 0ffH, 0ffH, 0ffH, 07fH, 0ffH, 0ffH
	DB	0ffH, 07fH, 0ffH, 0ffH, 0ffH, 07fH, 0ffH, 0ffH, 0ffH, 07fH
CONST	ENDS
;	COMDAT __real@bf800000
CONST	SEGMENT
__real@bf800000 DD 0bf800000r			; -1
CONST	ENDS
;	COMDAT __real@42c80000
CONST	SEGMENT
__real@42c80000 DD 042c80000r			; 100
CONST	ENDS
;	COMDAT __real@358637bd
CONST	SEGMENT
__real@358637bd DD 0358637bdr			; 1e-06
CONST	ENDS
;	COMDAT ??_C@_06OJLEAOEG@?$CFs?0?5?$CFd@
CONST	SEGMENT
??_C@_06OJLEAOEG@?$CFs?0?5?$CFd@ DB '%s, %d', 00H	; `string'
CONST	ENDS
;	COMDAT ??_C@_0DB@EEKBNLID@C?3?2IAGOS?2server?2v18?2Source?2Sour@
CONST	SEGMENT
??_C@_0DB@EEKBNLID@C?3?2IAGOS?2server?2v18?2Source?2Sour@ DB 'C:\IAGOS\se'
	DB	'rver\v18\Source\Source\_Common\Data.h', 00H	; `string'
CONST	ENDS
;	COMDAT ??_C@_0N@NGOJEGCM@propLang?4txt@
CONST	SEGMENT
??_C@_0N@NGOJEGCM@propLang?4txt@ DB 'propLang.txt', 00H	; `string'
CONST	ENDS
;	COMDAT ??_C@_0BB@ONJJINID@defineItemType?4h@
CONST	SEGMENT
??_C@_0BB@ONJJINID@defineItemType?4h@ DB 'defineItemType.h', 00H ; `string'
CONST	ENDS
;	COMDAT ??_C@_0BC@OEKDBOEK@defineItemGrade?4h@
CONST	SEGMENT
??_C@_0BC@OEKDBOEK@defineItemGrade?4h@ DB 'defineItemGrade.h', 00H ; `string'
CONST	ENDS
;	COMDAT ??_C@_0O@GNBOPHIK@defineHonor?4h@
CONST	SEGMENT
??_C@_0O@GNBOPHIK@defineHonor?4h@ DB 'defineHonor.h', 00H ; `string'
CONST	ENDS
;	COMDAT ??_C@_0BC@NCNNNPFL@definelordskill?4h@
CONST	SEGMENT
??_C@_0BC@NCNNNPFL@definelordskill?4h@ DB 'definelordskill.h', 00H ; `string'
CONST	ENDS
;	COMDAT ??_C@_0L@CLDCCJPD@WndStyle?4h@
CONST	SEGMENT
??_C@_0L@CLDCCJPD@WndStyle?4h@ DB 'WndStyle.h', 00H	; `string'
CONST	ENDS
;	COMDAT ??_C@_09HGIMHIJB@resdata?4h@
CONST	SEGMENT
??_C@_09HGIMHIJB@resdata?4h@ DB 'resdata.h', 00H	; `string'
CONST	ENDS
;	COMDAT ??_C@_0O@GNMMAJFM@defineSound?4h@
CONST	SEGMENT
??_C@_0O@GNMMAJFM@defineSound?4h@ DB 'defineSound.h', 00H ; `string'
CONST	ENDS
;	COMDAT ??_C@_0N@CKKCNAEI@defineText?4h@
CONST	SEGMENT
??_C@_0N@CKKCNAEI@defineText?4h@ DB 'defineText.h', 00H	; `string'
CONST	ENDS
;	COMDAT ??_C@_0O@FCODJECA@defineSkill?4h@
CONST	SEGMENT
??_C@_0O@FCODJECA@defineSkill?4h@ DB 'defineSkill.h', 00H ; `string'
CONST	ENDS
;	COMDAT ??_C@_0BC@CKDPDEGH@defineAttribute?4h@
CONST	SEGMENT
??_C@_0BC@CKDPDEGH@defineAttribute?4h@ DB 'defineAttribute.h', 00H ; `string'
CONST	ENDS
;	COMDAT ??_C@_0M@GILLMHCI@defineObj?4h@
CONST	SEGMENT
??_C@_0M@GILLMHCI@defineObj?4h@ DB 'defineObj.h', 00H	; `string'
CONST	ENDS
;	COMDAT ??_C@_06PCCJFGDM@lang?4h@
CONST	SEGMENT
??_C@_06PCCJFGDM@lang?4h@ DB 'lang.h', 00H		; `string'
CONST	ENDS
;	COMDAT ??_C@_0BB@NHAIBECF@defineItemkind?4h@
CONST	SEGMENT
??_C@_0BB@NHAIBECF@defineItemkind?4h@ DB 'defineItemkind.h', 00H ; `string'
CONST	ENDS
;	COMDAT ??_C@_0O@IOEDGEHO@defineWorld?4h@
CONST	SEGMENT
??_C@_0O@IOEDGEHO@defineWorld?4h@ DB 'defineWorld.h', 00H ; `string'
CONST	ENDS
;	COMDAT ??_C@_0N@FBEALHFO@defineItem?4h@
CONST	SEGMENT
??_C@_0N@FBEALHFO@defineItem?4h@ DB 'defineItem.h', 00H	; `string'
CONST	ENDS
;	COMDAT ??_C@_0M@FFCLKMF@defineJob?4h@
CONST	SEGMENT
??_C@_0M@FFCLKMF@defineJob?4h@ DB 'defineJob.h', 00H	; `string'
CONST	ENDS
;	COMDAT ??_C@_0O@CHPIMLJG@defineQuest?4h@
CONST	SEGMENT
??_C@_0O@CHPIMLJG@defineQuest?4h@ DB 'defineQuest.h', 00H ; `string'
CONST	ENDS
;	COMDAT ??_C@_0N@PBEDKAEK@defineNeuz?4h@
CONST	SEGMENT
??_C@_0N@PBEDKAEK@defineNeuz?4h@ DB 'defineNeuz.h', 00H	; `string'
CONST	ENDS
;	COMDAT ??_C@_08PCOCPGDD@define?4h@
CONST	SEGMENT
??_C@_08PCOCPGDD@define?4h@ DB 'define.h', 00H		; `string'
CONST	ENDS
;	COMDAT ??_C@_0P@PIAPDKAM@textClient?4inc@
CONST	SEGMENT
??_C@_0P@PIAPDKAM@textClient?4inc@ DB 'textClient.inc', 00H ; `string'
CONST	ENDS
;	COMDAT ??_C@_0BK@GFFJLDEM@World?2WdFwc?2WdFwc?4txt?4txt@
CONST	SEGMENT
??_C@_0BK@GFFJLDEM@World?2WdFwc?2WdFwc?4txt?4txt@ DB 'World\WdFwc\WdFwc.t'
	DB	'xt.txt', 00H				; `string'
CONST	ENDS
;	COMDAT ??_C@_0CG@LHOKLPNN@World?2DuHerneos_1?2DuHerneos_1?4t@
CONST	SEGMENT
??_C@_0CG@LHOKLPNN@World?2DuHerneos_1?2DuHerneos_1?4t@ DB 'World\DuHerneo'
	DB	's_1\DuHerneos_1.txt.txt', 00H		; `string'
CONST	ENDS
;	COMDAT ??_C@_0CC@DOBLAPJN@World?2DuHerneos?2DuHerneos?4txt?4t@
CONST	SEGMENT
??_C@_0CC@DOBLAPJN@World?2DuHerneos?2DuHerneos?4txt?4t@ DB 'World\DuHerne'
	DB	'os\DuHerneos.txt.txt', 00H			; `string'
CONST	ENDS
;	COMDAT ??_C@_0CG@GDIDDAKI@World?2DuSanpres_1?2DuSanpres_1?4t@
CONST	SEGMENT
??_C@_0CG@GDIDDAKI@World?2DuSanpres_1?2DuSanpres_1?4t@ DB 'World\DuSanpre'
	DB	's_1\DuSanpres_1.txt.txt', 00H		; `string'
CONST	ENDS
;	COMDAT ??_C@_0CC@EDPKODAA@World?2DuSanpres?2DuSanpres?4txt?4t@
CONST	SEGMENT
??_C@_0CC@EDPKODAA@World?2DuSanpres?2DuSanpres?4txt?4t@ DB 'World\DuSanpr'
	DB	'es\DuSanpres.txt.txt', 00H			; `string'
CONST	ENDS
;	COMDAT ??_C@_0CG@JHJGPNIK@World?2DuUpresia_1?2DuUpresia_1?4t@
CONST	SEGMENT
??_C@_0CG@JHJGPNIK@World?2DuUpresia_1?2DuUpresia_1?4t@ DB 'World\DuUpresi'
	DB	'a_1\DuUpresia_1.txt.txt', 00H		; `string'
CONST	ENDS
;	COMDAT ??_C@_0CC@CMCNDHBE@World?2DuUpresia?2DuUpresia?4txt?4t@
CONST	SEGMENT
??_C@_0CC@CMCNDHBE@World?2DuUpresia?2DuUpresia?4txt?4t@ DB 'World\DuUpres'
	DB	'ia\DuUpresia.txt.txt', 00H			; `string'
CONST	ENDS
;	COMDAT ??_C@_0CG@PJICLKPM@World?2WdColosseum?2WdColosseum?4t@
CONST	SEGMENT
??_C@_0CG@PJICLKPM@World?2WdColosseum?2WdColosseum?4t@ DB 'World\WdColoss'
	DB	'eum\WdColosseum.txt.txt', 00H		; `string'
CONST	ENDS
;	COMDAT ??_C@_0CA@MALBOJDP@World?2DuKalgas?2DuKalgas?4txt?4txt@
CONST	SEGMENT
??_C@_0CA@MALBOJDP@World?2DuKalgas?2DuKalgas?4txt?4txt@ DB 'World\DuKalga'
	DB	's\DuKalgas.txt.txt', 00H			; `string'
CONST	ENDS
;	COMDAT ??_C@_0CC@CIGPIJKO@World?2DuBehamah?2DuBehamah?4txt?4t@
CONST	SEGMENT
??_C@_0CC@CIGPIJKO@World?2DuBehamah?2DuBehamah?4txt?4t@ DB 'World\DuBeham'
	DB	'ah\DuBehamah.txt.txt', 00H			; `string'
CONST	ENDS
;	COMDAT ??_C@_0CE@PPMPNJMF@World?2WdRartesia?2WdRartesia?4txt@
CONST	SEGMENT
??_C@_0CE@PPMPNJMF@World?2WdRartesia?2WdRartesia?4txt@ DB 'World\WdRartes'
	DB	'ia\WdRartesia.txt.txt', 00H			; `string'
CONST	ENDS
;	COMDAT ??_C@_0CE@LEEMOLAG@World?2DuRustia_1?2DuRustia_1?4txt@
CONST	SEGMENT
??_C@_0CE@LEEMOLAG@World?2DuRustia_1?2DuRustia_1?4txt@ DB 'World\DuRustia'
	DB	'_1\DuRustia_1.txt.txt', 00H			; `string'
CONST	ENDS
;	COMDAT ??_C@_0CA@GOABAGCH@World?2DuRustia?2DuRustia?4txt?4txt@
CONST	SEGMENT
??_C@_0CA@GOABAGCH@World?2DuRustia?2DuRustia?4txt?4txt@ DB 'World\DuRusti'
	DB	'a\DuRustia.txt.txt', 00H			; `string'
CONST	ENDS
;	COMDAT ??_C@_0CM@GLCDMCDN@World?2DuDreadfulCave?2DuDreadful@
CONST	SEGMENT
??_C@_0CM@GLCDMCDN@World?2DuDreadfulCave?2DuDreadful@ DB 'World\DuDreadfu'
	DB	'lCave\DuDreadfulCave.txt.txt', 00H		; `string'
CONST	ENDS
;	COMDAT ??_C@_0DC@DDHCLEAB@World?2WdGuildhouselarge?2WdGuild@
CONST	SEGMENT
??_C@_0DC@DDHCLEAB@World?2WdGuildhouselarge?2WdGuild@ DB 'World\WdGuildho'
	DB	'uselarge\WdGuildhouselarge.txt.txt', 00H	; `string'
CONST	ENDS
;	COMDAT ??_C@_0DE@MOIPIANB@World?2WdGuildhousemiddle?2WdGuil@
CONST	SEGMENT
??_C@_0DE@MOIPIANB@World?2WdGuildhousemiddle?2WdGuil@ DB 'World\WdGuildho'
	DB	'usemiddle\WdGuildhousemiddle.txt.txt', 00H	; `string'
CONST	ENDS
;	COMDAT ??_C@_0DC@EKHBJCH@World?2WdGuildhousesmall?2WdGuild@
CONST	SEGMENT
??_C@_0DC@EKHBJCH@World?2WdGuildhousesmall?2WdGuild@ DB 'World\WdGuildhou'
	DB	'sesmall\WdGuildhousesmall.txt.txt', 00H	; `string'
CONST	ENDS
;	COMDAT ??_C@_0CG@LMDELLIK@World?2DuOminous_1?2duominous_1?4t@
CONST	SEGMENT
??_C@_0CG@LMDELLIK@World?2DuOminous_1?2duominous_1?4t@ DB 'World\DuOminou'
	DB	's_1\duominous_1.txt.txt', 00H		; `string'
CONST	ENDS
;	COMDAT ??_C@_0CC@NFIHHMNA@World?2DuOminous?2duominous?4txt?4t@
CONST	SEGMENT
??_C@_0CC@NFIHHMNA@World?2DuOminous?2duominous?4txt?4t@ DB 'World\DuOmino'
	DB	'us\duominous.txt.txt', 00H			; `string'
CONST	ENDS
;	COMDAT ??_C@_0BC@HFMDODCC@honorList?4txt?4txt@
CONST	SEGMENT
??_C@_0BC@HFMDODCC@honorList?4txt?4txt@ DB 'honorList.txt.txt', 00H ; `string'
CONST	ENDS
;	COMDAT ??_C@_0CI@KPKEAIHK@World?2WdHeaven06_1?2wdheaven06_1@
CONST	SEGMENT
??_C@_0CI@KPKEAIHK@World?2WdHeaven06_1?2wdheaven06_1@ DB 'World\WdHeaven0'
	DB	'6_1\wdheaven06_1.txt.txt', 00H		; `string'
CONST	ENDS
;	COMDAT ??_C@_0CE@EFDEHACF@World?2WdHeaven06?2wdheaven06?4txt@
CONST	SEGMENT
??_C@_0CE@EFDEHACF@World?2WdHeaven06?2wdheaven06?4txt@ DB 'World\WdHeaven'
	DB	'06\wdheaven06.txt.txt', 00H			; `string'
CONST	ENDS
;	COMDAT ??_C@_0CE@NFBNEJMF@World?2WdHeaven05?2wdheaven05?4txt@
CONST	SEGMENT
??_C@_0CE@NFBNEJMF@World?2WdHeaven05?2wdheaven05?4txt@ DB 'World\WdHeaven'
	DB	'05\wdheaven05.txt.txt', 00H			; `string'
CONST	ENDS
;	COMDAT ??_C@_0CE@KFAFKBGF@World?2WdHeaven04?2wdheaven04?4txt@
CONST	SEGMENT
??_C@_0CE@KFAFKBGF@World?2WdHeaven04?2wdheaven04?4txt@ DB 'World\WdHeaven'
	DB	'04\wdheaven04.txt.txt', 00H			; `string'
CONST	ENDS
;	COMDAT ??_C@_0CE@CODODMEE@World?2WdHeaven03?2wdheaven03?4txt@
CONST	SEGMENT
??_C@_0CE@CODODMEE@World?2WdHeaven03?2wdheaven03?4txt@ DB 'World\WdHeaven'
	DB	'03\wdheaven03.txt.txt', 00H			; `string'
CONST	ENDS
;	COMDAT ??_C@_0CE@FOCGNEOE@World?2WdHeaven02?2wdheaven02?4txt@
CONST	SEGMENT
??_C@_0CE@FOCGNEOE@World?2WdHeaven02?2wdheaven02?4txt@ DB 'World\WdHeaven'
	DB	'02\wdheaven02.txt.txt', 00H			; `string'
CONST	ENDS
;	COMDAT ??_C@_0CE@MOAPONAE@World?2WdHeaven01?2wdheaven01?4txt@
CONST	SEGMENT
??_C@_0CE@MOAPONAE@World?2WdHeaven01?2wdheaven01?4txt@ DB 'World\WdHeaven'
	DB	'01\wdheaven01.txt.txt', 00H			; `string'
CONST	ENDS
;	COMDAT ??_C@_0BC@LLOPCCEG@lordskill?4txt?4txt@
CONST	SEGMENT
??_C@_0BC@LLOPCCEG@lordskill?4txt?4txt@ DB 'lordskill.txt.txt', 00H ; `string'
CONST	ENDS
;	COMDAT ??_C@_0CO@OHDLGMEL@World?2WdVolcaneYellow?2WdVolcane@
CONST	SEGMENT
??_C@_0CO@OHDLGMEL@World?2WdVolcaneYellow?2WdVolcane@ DB 'World\WdVolcane'
	DB	'Yellow\WdVolcaneYellow.txt.txt', 00H	; `string'
CONST	ENDS
;	COMDAT ??_C@_0CI@PPFFEENJ@World?2WdVolcaneRed?2WdVolcaneRed@
CONST	SEGMENT
??_C@_0CI@PPFFEENJ@World?2WdVolcaneRed?2WdVolcaneRed@ DB 'World\WdVolcane'
	DB	'Red\WdVolcaneRed.txt.txt', 00H		; `string'
CONST	ENDS
;	COMDAT ??_C@_0CM@MCGFEELL@World?2DuSaTempleBoss?2DuSaTemple@
CONST	SEGMENT
??_C@_0CM@MCGFEELL@World?2DuSaTempleBoss?2DuSaTemple@ DB 'World\DuSaTempl'
	DB	'eBoss\DuSaTempleBoss.txt.txt', 00H		; `string'
CONST	ENDS
;	COMDAT ??_C@_0CE@GNBHODLB@World?2DuSaTemple?2DuSaTemple?4txt@
CONST	SEGMENT
??_C@_0CE@GNBHODLB@World?2DuSaTemple?2DuSaTemple?4txt@ DB 'World\DuSaTemp'
	DB	'le\DuSaTemple.txt.txt', 00H			; `string'
CONST	ENDS
;	COMDAT ??_C@_0BM@FGJOMPKG@World?2DuBear?2DuBear?4txt?4txt@
CONST	SEGMENT
??_C@_0BM@FGJOMPKG@World?2DuBear?2DuBear?4txt?4txt@ DB 'World\DuBear\DuBe'
	DB	'ar.txt.txt', 00H				; `string'
CONST	ENDS
;	COMDAT ??_C@_0BM@HLBNPGPD@World?2DuDaDk?2DuDaDk?4txt?4txt@
CONST	SEGMENT
??_C@_0BM@HLBNPGPD@World?2DuDaDk?2DuDaDk?4txt?4txt@ DB 'World\DuDaDk\DuDa'
	DB	'Dk.txt.txt', 00H				; `string'
CONST	ENDS
;	COMDAT ??_C@_0BO@OOCINCCB@World?2DuFlMas?2DuFlMas?4txt?4txt@
CONST	SEGMENT
??_C@_0BO@OOCINCCB@World?2DuFlMas?2DuFlMas?4txt?4txt@ DB 'World\DuFlMas\D'
	DB	'uFlMas.txt.txt', 00H			; `string'
CONST	ENDS
;	COMDAT ??_C@_0BK@PFAKEDAL@World?2DuKrr?2DuKrr?4txt?4txt@
CONST	SEGMENT
??_C@_0BK@PFAKEDAL@World?2DuKrr?2DuKrr?4txt?4txt@ DB 'World\DuKrr\DuKrr.t'
	DB	'xt.txt', 00H				; `string'
CONST	ENDS
;	COMDAT ??_C@_0CA@CEIGPAD@World?2DuMuscle?2DuMuscle?4txt?4txt@
CONST	SEGMENT
??_C@_0CA@CEIGPAD@World?2DuMuscle?2DuMuscle?4txt?4txt@ DB 'World\DuMuscle'
	DB	'\DuMuscle.txt.txt', 00H			; `string'
CONST	ENDS
;	COMDAT ??_C@_0CC@PDPOCILP@World?2WdEvent01?2WdEvent01?4txt?4t@
CONST	SEGMENT
??_C@_0CC@PDPOCILP@World?2WdEvent01?2WdEvent01?4txt?4t@ DB 'World\WdEvent'
	DB	'01\WdEvent01.txt.txt', 00H			; `string'
CONST	ENDS
;	COMDAT ??_C@_0CE@BLNGOAF@World?2WdGuildWar?2WdGuildWar?4txt@
CONST	SEGMENT
??_C@_0CE@BLNGOAF@World?2WdGuildWar?2WdGuildWar?4txt@ DB 'World\WdGuildWa'
	DB	'r\WdGuildWar.txt.txt', 00H			; `string'
CONST	ENDS
;	COMDAT ??_C@_0CC@OFJBPJBI@World?2WdKebaras?2WdKebaras?4txt?4t@
CONST	SEGMENT
??_C@_0CC@OFJBPJBI@World?2WdKebaras?2WdKebaras?4txt?4t@ DB 'World\WdKebar'
	DB	'as\WdKebaras.txt.txt', 00H			; `string'
CONST	ENDS
;	COMDAT ??_C@_0CE@LECANJG@World?2WdMadrigal?2wdMadrigal?4txt@
CONST	SEGMENT
??_C@_0CE@LECANJG@World?2WdMadrigal?2wdMadrigal?4txt@ DB 'World\WdMadriga'
	DB	'l\wdMadrigal.txt.txt', 00H			; `string'
CONST	ENDS
;	COMDAT ??_C@_0CC@LNLMDCNI@World?2WdVolcane?2WdVolcane?4txt?4t@
CONST	SEGMENT
??_C@_0CC@LNLMDCNI@World?2WdVolcane?2WdVolcane?4txt?4t@ DB 'World\WdVolca'
	DB	'ne\WdVolcane.txt.txt', 00H			; `string'
CONST	ENDS
;	COMDAT ??_C@_0BD@EHNANLIJ@Client?2faq?4txt?4txt@
CONST	SEGMENT
??_C@_0BD@EHNANLIJ@Client?2faq?4txt?4txt@ DB 'Client\faq.txt.txt', 00H ; `string'
CONST	ENDS
;	COMDAT ??_C@_0BI@HPDDMKMM@Client?2tutorial?4txt?4txt@
CONST	SEGMENT
??_C@_0BI@HPDDMKMM@Client?2tutorial?4txt?4txt@ DB 'Client\tutorial.txt.tx'
	DB	't', 00H					; `string'
CONST	ENDS
;	COMDAT ??_C@_0BF@MOKFFBND@Client?2Guide?4txt?4txt@
CONST	SEGMENT
??_C@_0BF@MOKFFBND@Client?2Guide?4txt?4txt@ DB 'Client\Guide.txt.txt', 00H ; `string'
CONST	ENDS
;	COMDAT ??_C@_0BE@PCGFBKB@Client?2help?4txt?4txt@
CONST	SEGMENT
??_C@_0BE@PCGFBKB@Client?2help?4txt?4txt@ DB 'Client\help.txt.txt', 00H ; `string'
CONST	ENDS
;	COMDAT ??_C@_0BL@DHMHIAON@Client?2InstantHelp?4txt?4txt@
CONST	SEGMENT
??_C@_0BL@DHMHIAON@Client?2InstantHelp?4txt?4txt@ DB 'Client\InstantHelp.'
	DB	'txt.txt', 00H				; `string'
CONST	ENDS
;	COMDAT ??_C@_0BL@HJPLFEHN@Client?2PatchClient?4txt?4txt@
CONST	SEGMENT
??_C@_0BL@HJPLFEHN@Client?2PatchClient?4txt?4txt@ DB 'Client\PatchClient.'
	DB	'txt.txt', 00H				; `string'
CONST	ENDS
;	COMDAT ??_C@_0BD@PCPCCCJB@Client?2tip?4txt?4txt@
CONST	SEGMENT
??_C@_0BD@PCPCCCJB@Client?2tip?4txt?4txt@ DB 'Client\tip.txt.txt', 00H ; `string'
CONST	ENDS
;	COMDAT ??_C@_0BI@GDEOEGGM@Client?2treeHelp?4txt?4txt@
CONST	SEGMENT
??_C@_0BI@GDEOEGGM@Client?2treeHelp?4txt?4txt@ DB 'Client\treeHelp.txt.tx'
	DB	't', 00H					; `string'
CONST	ENDS
;	COMDAT ??_C@_0O@GENGBLDM@world?4txt?4txt@
CONST	SEGMENT
??_C@_0O@GENGBLDM@world?4txt?4txt@ DB 'world.txt.txt', 00H ; `string'
CONST	ENDS
;	COMDAT ??_C@_0BE@LIGMBFHD@textEmotion?4txt?4txt@
CONST	SEGMENT
??_C@_0BE@LIGMBFHD@textEmotion?4txt?4txt@ DB 'textEmotion.txt.txt', 00H ; `string'
CONST	ENDS
;	COMDAT ??_C@_0BD@CBKKCFIG@textClient?4txt?4txt@
CONST	SEGMENT
??_C@_0BD@CBKKCFIG@textClient?4txt?4txt@ DB 'textClient.txt.txt', 00H ; `string'
CONST	ENDS
;	COMDAT ??_C@_0BA@LECIOODH@resData?4txt?4txt@
CONST	SEGMENT
??_C@_0BA@LECIOODH@resData?4txt?4txt@ DB 'resData.txt.txt', 00H ; `string'
CONST	ENDS
;	COMDAT ??_C@_0BI@COHEJFON@propTroupeSkill?4txt?4txt@
CONST	SEGMENT
??_C@_0BI@COHEJFON@propTroupeSkill?4txt?4txt@ DB 'propTroupeSkill.txt.txt'
	DB	00H						; `string'
CONST	ENDS
;	COMDAT ??_C@_0BC@GAENMDAI@propSkill?4txt?4txt@
CONST	SEGMENT
??_C@_0BC@GAENMDAI@propSkill?4txt?4txt@ DB 'propSkill.txt.txt', 00H ; `string'
CONST	ENDS
;	COMDAT ??_C@_0BL@BIEBMGAK@propQuest?9Scenario?4txt?4txt@
CONST	SEGMENT
??_C@_0BL@BIEBMGAK@propQuest?9Scenario?4txt?4txt@ DB 'propQuest-Scenario.'
	DB	'txt.txt', 00H				; `string'
CONST	ENDS
;	COMDAT ??_C@_0BN@BEAOFAE@propQuest?9RequestBox?4txt?4txt@
CONST	SEGMENT
??_C@_0BN@BEAOFAE@propQuest?9RequestBox?4txt?4txt@ DB 'propQuest-RequestB'
	DB	'ox.txt.txt', 00H				; `string'
CONST	ENDS
;	COMDAT ??_C@_0BO@JKKEFHJM@propQuest?9RequestBox2?4txt?4txt@
CONST	SEGMENT
??_C@_0BO@JKKEFHJM@propQuest?9RequestBox2?4txt?4txt@ DB 'propQuest-Reques'
	DB	'tBox2.txt.txt', 00H				; `string'
CONST	ENDS
;	COMDAT ??_C@_0BP@EHFDCEFH@propQuest?9DungeonandPK?4txt?4txt@
CONST	SEGMENT
??_C@_0BP@EHFDCEFH@propQuest?9DungeonandPK?4txt?4txt@ DB 'propQuest-Dunge'
	DB	'onandPK.txt.txt', 00H			; `string'
CONST	ENDS
;	COMDAT ??_C@_0BC@MDLPBBFP@propQuest?4txt?4txt@
CONST	SEGMENT
??_C@_0BC@MDLPBBFP@propQuest?4txt?4txt@ DB 'propQuest.txt.txt', 00H ; `string'
CONST	ENDS
;	COMDAT ??_C@_0BC@DBHLDNCB@propMover?4txt?4txt@
CONST	SEGMENT
??_C@_0BC@DBHLDNCB@propMover?4txt?4txt@ DB 'propMover.txt.txt', 00H ; `string'
CONST	ENDS
;	COMDAT ??_C@_0BD@HCIMKPMD@propMotion?4txt?4txt@
CONST	SEGMENT
??_C@_0BD@HCIMKPMD@propMotion?4txt?4txt@ DB 'propMotion.txt.txt', 00H ; `string'
CONST	ENDS
;	COMDAT ??_C@_0BC@EGADJKPG@propKarma?4txt?4txt@
CONST	SEGMENT
??_C@_0BC@EGADJKPG@propKarma?4txt?4txt@ DB 'propKarma.txt.txt', 00H ; `string'
CONST	ENDS
;	COMDAT ??_C@_0BE@CPNEMNP@propItemEtc?4txt?4txt@
CONST	SEGMENT
??_C@_0BE@CPNEMNP@propItemEtc?4txt?4txt@ DB 'propItemEtc.txt.txt', 00H ; `string'
CONST	ENDS
;	COMDAT ??_C@_0BB@EIHFMDHG@propItem?4txt?4txt@
CONST	SEGMENT
??_C@_0BB@EIHFMDHG@propItem?4txt?4txt@ DB 'propItem.txt.txt', 00H ; `string'
CONST	ENDS
;	COMDAT ??_C@_0BB@BKCFBPCG@propCtrl?4txt?4txt@
CONST	SEGMENT
??_C@_0BB@BKCFBPCG@propCtrl?4txt?4txt@ DB 'propCtrl.txt.txt', 00H ; `string'
CONST	ENDS
;	COMDAT ??_C@_0M@OGPAIIPO@etc?4txt?4txt@
CONST	SEGMENT
??_C@_0M@OGPAIIPO@etc?4txt?4txt@ DB 'etc.txt.txt', 00H	; `string'
CONST	ENDS
;	COMDAT ??_C@_0BJ@HMJLABEE@character?9school?4txt?4txt@
CONST	SEGMENT
??_C@_0BJ@HMJLABEE@character?9school?4txt?4txt@ DB 'character-school.txt.'
	DB	'txt', 00H					; `string'
CONST	ENDS
;	COMDAT ??_C@_0BG@ODDMMEFI@character?9etc?4txt?4txt@
CONST	SEGMENT
??_C@_0BG@ODDMMEFI@character?9etc?4txt?4txt@ DB 'character-etc.txt.txt', 00H ; `string'
CONST	ENDS
;	COMDAT ??_C@_0BC@MJDHHDNE@character?4txt?4txt@
CONST	SEGMENT
??_C@_0BC@MJDHHDNE@character?4txt?4txt@ DB 'character.txt.txt', 00H ; `string'
CONST	ENDS
;	COMDAT ??_C@_01CLKCMJKC@?5@
CONST	SEGMENT
??_C@_01CLKCMJKC@?5@ DB ' ', 00H			; `string'
CONST	ENDS
;	COMDAT ??_C@_01BJJEKLCA@?$CC@
CONST	SEGMENT
??_C@_01BJJEKLCA@?$CC@ DB '"', 00H			; `string'
CONST	ENDS
;	COMDAT ??_C@_0CC@LPPNKII@?$CFs?5ID?3?$CFd?5last_read?$CIID?3?$CFd?5name?3?$CF@
CONST	SEGMENT
??_C@_0CC@LPPNKII@?$CFs?5ID?3?$CFd?5last_read?$CIID?3?$CFd?5name?3?$CF@ DB '%'
	DB	's ID:%d last_read(ID:%d name:%s)', 00H	; `string'
CONST	ENDS
;	COMDAT ??_C@_0GF@PODIKLMP@LoadPropMover?5?3?5bIfParts?$LP?$KD?5?91?$MA?$LL@
CONST	SEGMENT
??_C@_0GF@PODIKLMP@LoadPropMover?5?3?5bIfParts?$LP?$KD?5?91?$MA?$LL@ DB 'L'
	DB	'oadPropMover : bIfParts', 0bfH, 0a3H, ' -1', 0c0H, 0bbH, ' ', 0b3H
	DB	0d6H, 0c0H, 0b8H, 0b8H, 0e9H, ' ', 0beH, 0c8H, 0b5H, 0c8H, 0b4H
	DB	0d9H, '. %s ', 0dH, 0aH, 0c4H, 0c3H, 0b7H, 0b3H, 0c0H, 0ccH, ' '
	DB	0b9H, 0d0H, 0b7H, 0c8H, 0b0H, 0c5H, 0b3H, 0aaH, ' ', 0bfH, 0f6H
	DB	0c5H, 0b7H, 0c6H, 0faH, 0b4H, 0f5H, 0b8H, 0a6H, ' ', 0c0H, 0dfH
	DB	0b8H, 0f8H, 0c1H, 0f6H, 0c1H, 0a4H, 0c7H, 0dfH, 0c0H, 0bbH, 0bcH
	DB	0f6H, 0b5H, 0b5H, 0c0H, 0d6H, 0c0H, 0bdH, ' ', 00H ; `string'
CONST	ENDS
;	COMDAT ??_C@_0EL@DNFECMCM@Last?5read?3?$CFs?0?5ID?3?$CFd?5is?5duplicat@
CONST	SEGMENT
??_C@_0EL@DNFECMCM@Last?5read?3?$CFs?0?5ID?3?$CFd?5is?5duplicat@ DB 'Last'
	DB	' read:%s, ID:%d is duplicated. ', 0c4H, 0c3H, 0b7H, 0b3H, 0c0H
	DB	0ccH, ' ', 0b9H, 0d0H, 0b7H, 0c1H, 0b5H, 0b5H, ' ', 0c0H, 0ccH
	DB	0b7H, 0b1H, 0bfH, 0a1H, 0b7H, 0afH, 0b0H, 0a1H, ' ', 0b3H, 0adH
	DB	0b4H, 0d9H, '. FILE:%s', 0aH, 00H		; `string'
CONST	ENDS
;	COMDAT ??_C@_0DC@PMFBALLG@too?5many?5mover?5property?5or?5inva@
CONST	SEGMENT
??_C@_0DC@PMFBALLG@too?5many?5mover?5property?5or?5inva@ DB 'too many mov'
	DB	'er property or invalid id:%d FILE:%s', 0aH, 00H ; `string'
CONST	ENDS
;	COMDAT ??_C@_04NHONDGDE@item@
CONST	SEGMENT
??_C@_04NHONDGDE@item@ DB 'item', 00H			; `string'
CONST	ENDS
;	COMDAT ??_C@_03OMLNFKE@sex@
CONST	SEGMENT
??_C@_03OMLNFKE@sex@ DB 'sex', 00H			; `string'
CONST	ENDS
;	COMDAT ??_C@_01CELHOKLL@?$HN@
CONST	SEGMENT
??_C@_01CELHOKLL@?$HN@ DB '}', 00H			; `string'
CONST	ENDS
;	COMDAT ??_C@_03JOGALCLM@job@
CONST	SEGMENT
??_C@_03JOGALCLM@job@ DB 'job', 00H			; `string'
CONST	ENDS
;	COMDAT ??_C@_07DMFACBBD@Letter1@
CONST	SEGMENT
??_C@_07DMFACBBD@Letter1@ DB 'Letter1', 00H		; `string'
CONST	ENDS
;	COMDAT ??_C@_0BG@LKLLPMND@GuildCombat1to1_TEXT5@
CONST	SEGMENT
??_C@_0BG@LKLLPMND@GuildCombat1to1_TEXT5@ DB 'GuildCombat1to1_TEXT5', 00H ; `string'
CONST	ENDS
;	COMDAT ??_C@_0BG@KDKAMNJC@GuildCombat1to1_TEXT4@
CONST	SEGMENT
??_C@_0BG@KDKAMNJC@GuildCombat1to1_TEXT4@ DB 'GuildCombat1to1_TEXT4', 00H ; `string'
CONST	ENDS
;	COMDAT ??_C@_0BG@OMOBFLFF@GuildCombat1to1_TEXT3@
CONST	SEGMENT
??_C@_0BG@OMOBFLFF@GuildCombat1to1_TEXT3@ DB 'GuildCombat1to1_TEXT3', 00H ; `string'
CONST	ENDS
;	COMDAT ??_C@_0BG@PFPKGKBE@GuildCombat1to1_TEXT2@
CONST	SEGMENT
??_C@_0BG@PFPKGKBE@GuildCombat1to1_TEXT2@ DB 'GuildCombat1to1_TEXT2', 00H ; `string'
CONST	ENDS
;	COMDAT ??_C@_0BG@NONHDJNH@GuildCombat1to1_TEXT1@
CONST	SEGMENT
??_C@_0BG@NONHDJNH@GuildCombat1to1_TEXT1@ DB 'GuildCombat1to1_TEXT1', 00H ; `string'
CONST	ENDS
;	COMDAT ??_C@_06CBLMCBO@Letter@
CONST	SEGMENT
??_C@_06CBLMCBO@Letter@ DB 'Letter', 00H		; `string'
CONST	ENDS
;	COMDAT ??_C@_0BC@HIPDLOLK@GuildCombatTEXT_6@
CONST	SEGMENT
??_C@_0BC@HIPDLOLK@GuildCombatTEXT_6@ DB 'GuildCombatTEXT_6', 00H ; `string'
CONST	ENDS
;	COMDAT ??_C@_0BC@FDNOONHJ@GuildCombatTEXT_5@
CONST	SEGMENT
??_C@_0BC@FDNOONHJ@GuildCombatTEXT_5@ DB 'GuildCombatTEXT_5', 00H ; `string'
CONST	ENDS
;	COMDAT ??_C@_0BC@EKMFNMDI@GuildCombatTEXT_4@
CONST	SEGMENT
??_C@_0BC@EKMFNMDI@GuildCombatTEXT_4@ DB 'GuildCombatTEXT_4', 00H ; `string'
CONST	ENDS
;	COMDAT ??_C@_0BC@FIEEKPP@GuildCombatTEXT_3@
CONST	SEGMENT
??_C@_0BC@FIEEKPP@GuildCombatTEXT_3@ DB 'GuildCombatTEXT_3', 00H ; `string'
CONST	ENDS
;	COMDAT ??_C@_0BC@BMJPHLLO@GuildCombatTEXT_2@
CONST	SEGMENT
??_C@_0BC@BMJPHLLO@GuildCombatTEXT_2@ DB 'GuildCombatTEXT_2', 00H ; `string'
CONST	ENDS
;	COMDAT ??_C@_0BC@DHLCCIHN@GuildCombatTEXT_1@
CONST	SEGMENT
??_C@_0BC@DHLCCIHN@GuildCombatTEXT_1@ DB 'GuildCombatTEXT_1', 00H ; `string'
CONST	ENDS
;	COMDAT ??_C@_06JHGCIHDH@Notice@
CONST	SEGMENT
??_C@_06JHGCIHDH@Notice@ DB 'Notice', 00H		; `string'
CONST	ENDS
;	COMDAT ??_C@_0M@KNNOCJKG@InvalidName@
CONST	SEGMENT
??_C@_0M@KNNOCJKG@InvalidName@ DB 'InvalidName', 00H	; `string'
CONST	ENDS
;	COMDAT ??_C@_06IBDJIBGI@Filter@
CONST	SEGMENT
??_C@_06IBDJIBGI@Filter@ DB 'Filter', 00H		; `string'
CONST	ENDS
;	COMDAT ??_R4bad_alloc@std@@6B@
rdata$r	SEGMENT
??_R4bad_alloc@std@@6B@ DD 00H				; std::bad_alloc::`RTTI Complete Object Locator'
	DD	00H
	DD	00H
	DD	FLAT:??_R0?AVbad_alloc@std@@@8
	DD	FLAT:??_R3bad_alloc@std@@8
rdata$r	ENDS
;	COMDAT ??_R2bad_alloc@std@@8
rdata$r	SEGMENT
??_R2bad_alloc@std@@8 DD FLAT:??_R1A@?0A@EA@bad_alloc@std@@8 ; std::bad_alloc::`RTTI Base Class Array'
	DD	FLAT:??_R1A@?0A@EA@exception@std@@8
rdata$r	ENDS
;	COMDAT ??_R3bad_alloc@std@@8
rdata$r	SEGMENT
??_R3bad_alloc@std@@8 DD 00H				; std::bad_alloc::`RTTI Class Hierarchy Descriptor'
	DD	00H
	DD	02H
	DD	FLAT:??_R2bad_alloc@std@@8
rdata$r	ENDS
;	COMDAT ??_R1A@?0A@EA@bad_alloc@std@@8
rdata$r	SEGMENT
??_R1A@?0A@EA@bad_alloc@std@@8 DD FLAT:??_R0?AVbad_alloc@std@@@8 ; std::bad_alloc::`RTTI Base Class Descriptor at (0,-1,0,64)'
	DD	01H
	DD	00H
	DD	0ffffffffH
	DD	00H
	DD	040H
	DD	FLAT:??_R3bad_alloc@std@@8
rdata$r	ENDS
;	COMDAT ??_R1A@?0A@EA@bad_array_new_length@std@@8
rdata$r	SEGMENT
??_R1A@?0A@EA@bad_array_new_length@std@@8 DD FLAT:??_R0?AVbad_array_new_length@std@@@8 ; std::bad_array_new_length::`RTTI Base Class Descriptor at (0,-1,0,64)'
	DD	02H
	DD	00H
	DD	0ffffffffH
	DD	00H
	DD	040H
	DD	FLAT:??_R3bad_array_new_length@std@@8
rdata$r	ENDS
;	COMDAT ??_R2bad_array_new_length@std@@8
rdata$r	SEGMENT
??_R2bad_array_new_length@std@@8 DD FLAT:??_R1A@?0A@EA@bad_array_new_length@std@@8 ; std::bad_array_new_length::`RTTI Base Class Array'
	DD	FLAT:??_R1A@?0A@EA@bad_alloc@std@@8
	DD	FLAT:??_R1A@?0A@EA@exception@std@@8
rdata$r	ENDS
;	COMDAT ??_R3bad_array_new_length@std@@8
rdata$r	SEGMENT
??_R3bad_array_new_length@std@@8 DD 00H			; std::bad_array_new_length::`RTTI Class Hierarchy Descriptor'
	DD	00H
	DD	03H
	DD	FLAT:??_R2bad_array_new_length@std@@8
rdata$r	ENDS
;	COMDAT ??_R4bad_array_new_length@std@@6B@
rdata$r	SEGMENT
??_R4bad_array_new_length@std@@6B@ DD 00H		; std::bad_array_new_length::`RTTI Complete Object Locator'
	DD	00H
	DD	00H
	DD	FLAT:??_R0?AVbad_array_new_length@std@@@8
	DD	FLAT:??_R3bad_array_new_length@std@@8
rdata$r	ENDS
;	COMDAT ??_R1A@?0A@EA@exception@std@@8
rdata$r	SEGMENT
??_R1A@?0A@EA@exception@std@@8 DD FLAT:??_R0?AVexception@std@@@8 ; std::exception::`RTTI Base Class Descriptor at (0,-1,0,64)'
	DD	00H
	DD	00H
	DD	0ffffffffH
	DD	00H
	DD	040H
	DD	FLAT:??_R3exception@std@@8
rdata$r	ENDS
;	COMDAT ??_R2exception@std@@8
rdata$r	SEGMENT
??_R2exception@std@@8 DD FLAT:??_R1A@?0A@EA@exception@std@@8 ; std::exception::`RTTI Base Class Array'
rdata$r	ENDS
;	COMDAT ??_R3exception@std@@8
rdata$r	SEGMENT
??_R3exception@std@@8 DD 00H				; std::exception::`RTTI Class Hierarchy Descriptor'
	DD	00H
	DD	01H
	DD	FLAT:??_R2exception@std@@8
rdata$r	ENDS
;	COMDAT ??_R4exception@std@@6B@
rdata$r	SEGMENT
??_R4exception@std@@6B@ DD 00H				; std::exception::`RTTI Complete Object Locator'
	DD	00H
	DD	00H
	DD	FLAT:??_R0?AVexception@std@@@8
	DD	FLAT:??_R3exception@std@@8
rdata$r	ENDS
;	COMDAT ??_C@_0BB@GCADKGJO@map?1set?5too?5long@
CONST	SEGMENT
??_C@_0BB@GCADKGJO@map?1set?5too?5long@ DB 'map/set too long', 00H ; `string'
CONST	ENDS
;	COMDAT ??_C@_0BA@JFNIOLAK@string?5too?5long@
CONST	SEGMENT
??_C@_0BA@JFNIOLAK@string?5too?5long@ DB 'string too long', 00H ; `string'
CONST	ENDS
;	COMDAT __CT??_R0?AVbad_alloc@std@@@8??0bad_alloc@std@@QAE@ABV01@@Z12
xdata$x	SEGMENT
__CT??_R0?AVbad_alloc@std@@@8??0bad_alloc@std@@QAE@ABV01@@Z12 DD 010H
	DD	FLAT:??_R0?AVbad_alloc@std@@@8
	DD	00H
	DD	0ffffffffH
	ORG $+4
	DD	0cH
	DD	FLAT:??0bad_alloc@std@@QAE@ABV01@@Z
xdata$x	ENDS
;	COMDAT ??_R0?AVbad_alloc@std@@@8
data$r	SEGMENT
??_R0?AVbad_alloc@std@@@8 DD FLAT:??_7type_info@@6B@	; std::bad_alloc `RTTI Type Descriptor'
	DD	00H
	DB	'.?AVbad_alloc@std@@', 00H
data$r	ENDS
;	COMDAT __CT??_R0?AVbad_array_new_length@std@@@8??0bad_array_new_length@std@@QAE@ABV01@@Z12
xdata$x	SEGMENT
__CT??_R0?AVbad_array_new_length@std@@@8??0bad_array_new_length@std@@QAE@ABV01@@Z12 DD 00H
	DD	FLAT:??_R0?AVbad_array_new_length@std@@@8
	DD	00H
	DD	0ffffffffH
	ORG $+4
	DD	0cH
	DD	FLAT:??0bad_array_new_length@std@@QAE@ABV01@@Z
xdata$x	ENDS
;	COMDAT ??_R0?AVbad_array_new_length@std@@@8
data$r	SEGMENT
??_R0?AVbad_array_new_length@std@@@8 DD FLAT:??_7type_info@@6B@ ; std::bad_array_new_length `RTTI Type Descriptor'
	DD	00H
	DB	'.?AVbad_array_new_length@std@@', 00H
data$r	ENDS
;	COMDAT __CTA3?AVbad_array_new_length@std@@
xdata$x	SEGMENT
__CTA3?AVbad_array_new_length@std@@ DD 03H
	DD	FLAT:__CT??_R0?AVbad_array_new_length@std@@@8??0bad_array_new_length@std@@QAE@ABV01@@Z12
	DD	FLAT:__CT??_R0?AVbad_alloc@std@@@8??0bad_alloc@std@@QAE@ABV01@@Z12
	DD	FLAT:__CT??_R0?AVexception@std@@@8??0exception@std@@QAE@ABV01@@Z12
xdata$x	ENDS
;	COMDAT __TI3?AVbad_array_new_length@std@@
xdata$x	SEGMENT
__TI3?AVbad_array_new_length@std@@ DD 00H
	DD	FLAT:??1bad_array_new_length@std@@UAE@XZ
	DD	00H
	DD	FLAT:__CTA3?AVbad_array_new_length@std@@
xdata$x	ENDS
;	COMDAT __CT??_R0?AVexception@std@@@8??0exception@std@@QAE@ABV01@@Z12
xdata$x	SEGMENT
__CT??_R0?AVexception@std@@@8??0exception@std@@QAE@ABV01@@Z12 DD 00H
	DD	FLAT:??_R0?AVexception@std@@@8
	DD	00H
	DD	0ffffffffH
	ORG $+4
	DD	0cH
	DD	FLAT:??0exception@std@@QAE@ABV01@@Z
xdata$x	ENDS
;	COMDAT ??_R0?AVexception@std@@@8
data$r	SEGMENT
??_R0?AVexception@std@@@8 DD FLAT:??_7type_info@@6B@	; std::exception `RTTI Type Descriptor'
	DD	00H
	DB	'.?AVexception@std@@', 00H
data$r	ENDS
;	COMDAT ??_C@_0BF@KINCDENJ@bad?5array?5new?5length@
CONST	SEGMENT
??_C@_0BF@KINCDENJ@bad?5array?5new?5length@ DB 'bad array new length', 00H ; `string'
CONST	ENDS
;	COMDAT ??_7bad_array_new_length@std@@6B@
CONST	SEGMENT
??_7bad_array_new_length@std@@6B@ DD FLAT:??_R4bad_array_new_length@std@@6B@ ; std::bad_array_new_length::`vftable'
	DD	FLAT:??_Ebad_array_new_length@std@@UAEPAXI@Z
	DD	FLAT:?what@exception@std@@UBEPBDXZ
CONST	ENDS
;	COMDAT ??_7bad_alloc@std@@6B@
CONST	SEGMENT
??_7bad_alloc@std@@6B@ DD FLAT:??_R4bad_alloc@std@@6B@	; std::bad_alloc::`vftable'
	DD	FLAT:??_Ebad_alloc@std@@UAEPAXI@Z
	DD	FLAT:?what@exception@std@@UBEPBDXZ
CONST	ENDS
;	COMDAT ??_C@_0BC@EOODALEL@Unknown?5exception@
CONST	SEGMENT
??_C@_0BC@EOODALEL@Unknown?5exception@ DB 'Unknown exception', 00H ; `string'
CONST	ENDS
;	COMDAT ??_7exception@std@@6B@
CONST	SEGMENT
??_7exception@std@@6B@ DD FLAT:??_R4exception@std@@6B@	; std::exception::`vftable'
	DD	FLAT:??_Eexception@std@@UAEPAXI@Z
	DD	FLAT:?what@exception@std@@UBEPBDXZ
CONST	ENDS
;	COMDAT ??_C@_00CNPNBAHC@@
CONST	SEGMENT
??_C@_00CNPNBAHC@@ DB 00H				; `string'
CONST	ENDS
;	COMDAT xdata$x
xdata$x	SEGMENT
__unwindtable$??$?0D@?$_Tree_temp_node@V?$allocator@U?$_Tree_node@DPAX@std@@@std@@@std@@QAE@AAV?$allocator@U?$_Tree_node@DPAX@std@@@1@PAU?$_Tree_node@DPAX@1@$$QAD@Z DD 0ffffffffH
	DD	FLAT:__unwindfunclet$??$?0D@?$_Tree_temp_node@V?$allocator@U?$_Tree_node@DPAX@std@@@std@@@std@@QAE@AAV?$allocator@U?$_Tree_node@DPAX@std@@@1@PAU?$_Tree_node@DPAX@1@$$QAD@Z$1
__ehfuncinfo$??$?0D@?$_Tree_temp_node@V?$allocator@U?$_Tree_node@DPAX@std@@@std@@@std@@QAE@AAV?$allocator@U?$_Tree_node@DPAX@std@@@1@PAU?$_Tree_node@DPAX@1@$$QAD@Z DD 019930522H
	DD	01H
	DD	FLAT:__unwindtable$??$?0D@?$_Tree_temp_node@V?$allocator@U?$_Tree_node@DPAX@std@@@std@@@std@@QAE@AAV?$allocator@U?$_Tree_node@DPAX@std@@@1@PAU?$_Tree_node@DPAX@1@$$QAD@Z
	DD	2 DUP(00H)
	DD	2 DUP(00H)
	DD	00H
	DD	01H
xdata$x	ENDS
;	COMDAT xdata$x
xdata$x	SEGMENT
__unwindtable$??0?$_Tree_temp_node_alloc@V?$allocator@U?$_Tree_node@DPAX@std@@@std@@@std@@QAE@AAV?$allocator@U?$_Tree_node@DPAX@std@@@1@@Z DD 0ffffffffH
	DD	FLAT:__unwindfunclet$??0?$_Tree_temp_node_alloc@V?$allocator@U?$_Tree_node@DPAX@std@@@std@@@std@@QAE@AAV?$allocator@U?$_Tree_node@DPAX@std@@@1@@Z$0
__ehfuncinfo$??0?$_Tree_temp_node_alloc@V?$allocator@U?$_Tree_node@DPAX@std@@@std@@@std@@QAE@AAV?$allocator@U?$_Tree_node@DPAX@std@@@1@@Z DD 019930522H
	DD	01H
	DD	FLAT:__unwindtable$??0?$_Tree_temp_node_alloc@V?$allocator@U?$_Tree_node@DPAX@std@@@std@@@std@@QAE@AAV?$allocator@U?$_Tree_node@DPAX@std@@@1@@Z
	DD	2 DUP(00H)
	DD	2 DUP(00H)
	DD	00H
	DD	01H
xdata$x	ENDS
;	COMDAT xdata$x
xdata$x	SEGMENT
__unwindtable$??$?0V?$basic_string@DU?$char_traits@D@std@@V?$allocator@D@2@@std@@@?$_Tree_temp_node@V?$allocator@U?$_Tree_node@V?$basic_string@DU?$char_traits@D@std@@V?$allocator@D@2@@std@@PAX@std@@@std@@@std@@QAE@AAV?$allocator@U?$_Tree_node@V?$basic_string@DU?$char_traits@D@std@@V?$allocator@D@2@@std@@PAX@std@@@1@PAU?$_Tree_node@V?$basic_string@DU?$char_traits@D@std@@V?$allocator@D@2@@std@@PAX@1@$$QAV?$basic_string@DU?$char_traits@D@std@@V?$allocator@D@2@@1@@Z DD 0ffffffffH
	DD	FLAT:__unwindfunclet$??$?0V?$basic_string@DU?$char_traits@D@std@@V?$allocator@D@2@@std@@@?$_Tree_temp_node@V?$allocator@U?$_Tree_node@V?$basic_string@DU?$char_traits@D@std@@V?$allocator@D@2@@std@@PAX@std@@@std@@@std@@QAE@AAV?$allocator@U?$_Tree_node@V?$basic_string@DU?$char_traits@D@std@@V?$allocator@D@2@@std@@PAX@std@@@1@PAU?$_Tree_node@V?$basic_string@DU?$char_traits@D@std@@V?$allocator@D@2@@std@@PAX@1@$$QAV?$basic_string@DU?$char_traits@D@std@@V?$allocator@D@2@@1@@Z$1
__ehfuncinfo$??$?0V?$basic_string@DU?$char_traits@D@std@@V?$allocator@D@2@@std@@@?$_Tree_temp_node@V?$allocator@U?$_Tree_node@V?$basic_string@DU?$char_traits@D@std@@V?$allocator@D@2@@std@@PAX@std@@@std@@@std@@QAE@AAV?$allocator@U?$_Tree_node@V?$basic_string@DU?$char_traits@D@std@@V?$allocator@D@2@@std@@PAX@std@@@1@PAU?$_Tree_node@V?$basic_string@DU?$char_traits@D@std@@V?$allocator@D@2@@std@@PAX@1@$$QAV?$basic_string@DU?$char_traits@D@std@@V?$allocator@D@2@@1@@Z DD 019930522H
	DD	01H
	DD	FLAT:__unwindtable$??$?0V?$basic_string@DU?$char_traits@D@std@@V?$allocator@D@2@@std@@@?$_Tree_temp_node@V?$allocator@U?$_Tree_node@V?$basic_string@DU?$char_traits@D@std@@V?$allocator@D@2@@std@@PAX@std@@@std@@@std@@QAE@AAV?$allocator@U?$_Tree_node@V?$basic_string@DU?$char_traits@D@std@@V?$allocator@D@2@@std@@PAX@std@@@1@PAU?$_Tree_node@V?$basic_string@DU?$char_traits@D@std@@V?$allocator@D@2@@std@@PAX@1@$$QAV?$basic_string@DU?$char_traits@D@std@@V?$allocator@D@2@@1@@Z
	DD	2 DUP(00H)
	DD	2 DUP(00H)
	DD	00H
	DD	01H
xdata$x	ENDS
;	COMDAT xdata$x
xdata$x	SEGMENT
__unwindtable$??0?$_Tree_temp_node_alloc@V?$allocator@U?$_Tree_node@V?$basic_string@DU?$char_traits@D@std@@V?$allocator@D@2@@std@@PAX@std@@@std@@@std@@QAE@AAV?$allocator@U?$_Tree_node@V?$basic_string@DU?$char_traits@D@std@@V?$allocator@D@2@@std@@PAX@std@@@1@@Z DD 0ffffffffH
	DD	FLAT:__unwindfunclet$??0?$_Tree_temp_node_alloc@V?$allocator@U?$_Tree_node@V?$basic_string@DU?$char_traits@D@std@@V?$allocator@D@2@@std@@PAX@std@@@std@@@std@@QAE@AAV?$allocator@U?$_Tree_node@V?$basic_string@DU?$char_traits@D@std@@V?$allocator@D@2@@std@@PAX@std@@@1@@Z$0
__ehfuncinfo$??0?$_Tree_temp_node_alloc@V?$allocator@U?$_Tree_node@V?$basic_string@DU?$char_traits@D@std@@V?$allocator@D@2@@std@@PAX@std@@@std@@@std@@QAE@AAV?$allocator@U?$_Tree_node@V?$basic_string@DU?$char_traits@D@std@@V?$allocator@D@2@@std@@PAX@std@@@1@@Z DD 019930522H
	DD	01H
	DD	FLAT:__unwindtable$??0?$_Tree_temp_node_alloc@V?$allocator@U?$_Tree_node@V?$basic_string@DU?$char_traits@D@std@@V?$allocator@D@2@@std@@PAX@std@@@std@@@std@@QAE@AAV?$allocator@U?$_Tree_node@V?$basic_string@DU?$char_traits@D@std@@V?$allocator@D@2@@std@@PAX@std@@@1@@Z
	DD	2 DUP(00H)
	DD	2 DUP(00H)
	DD	00H
	DD	01H
xdata$x	ENDS
;	COMDAT xdata$x
xdata$x	SEGMENT
__unwindtable$??$?0U?$pair@$$CBV?$basic_string@DU?$char_traits@D@std@@V?$allocator@D@2@@std@@K@std@@@?$_Tree_temp_node@V?$allocator@U?$_Tree_node@U?$pair@$$CBV?$basic_string@DU?$char_traits@D@std@@V?$allocator@D@2@@std@@K@std@@PAX@std@@@std@@@std@@QAE@AAV?$allocator@U?$_Tree_node@U?$pair@$$CBV?$basic_string@DU?$char_traits@D@std@@V?$allocator@D@2@@std@@K@std@@PAX@std@@@1@PAU?$_Tree_node@U?$pair@$$CBV?$basic_string@DU?$char_traits@D@std@@V?$allocator@D@2@@std@@K@std@@PAX@1@$$QAU?$pair@$$CBV?$basic_string@DU?$char_traits@D@std@@V?$allocator@D@2@@std@@K@1@@Z DD 0ffffffffH
	DD	FLAT:__unwindfunclet$??$?0U?$pair@$$CBV?$basic_string@DU?$char_traits@D@std@@V?$allocator@D@2@@std@@K@std@@@?$_Tree_temp_node@V?$allocator@U?$_Tree_node@U?$pair@$$CBV?$basic_string@DU?$char_traits@D@std@@V?$allocator@D@2@@std@@K@std@@PAX@std@@@std@@@std@@QAE@AAV?$allocator@U?$_Tree_node@U?$pair@$$CBV?$basic_string@DU?$char_traits@D@std@@V?$allocator@D@2@@std@@K@std@@PAX@std@@@1@PAU?$_Tree_node@U?$pair@$$CBV?$basic_string@DU?$char_traits@D@std@@V?$allocator@D@2@@std@@K@std@@PAX@1@$$QAU?$pair@$$CBV?$basic_string@DU?$char_traits@D@std@@V?$allocator@D@2@@std@@K@1@@Z$1
	DD	0ffffffffH
	DD	FLAT:__unwindfunclet$??$?0U?$pair@$$CBV?$basic_string@DU?$char_traits@D@std@@V?$allocator@D@2@@std@@K@std@@@?$_Tree_temp_node@V?$allocator@U?$_Tree_node@U?$pair@$$CBV?$basic_string@DU?$char_traits@D@std@@V?$allocator@D@2@@std@@K@std@@PAX@std@@@std@@@std@@QAE@AAV?$allocator@U?$_Tree_node@U?$pair@$$CBV?$basic_string@DU?$char_traits@D@std@@V?$allocator@D@2@@std@@K@std@@PAX@std@@@1@PAU?$_Tree_node@U?$pair@$$CBV?$basic_string@DU?$char_traits@D@std@@V?$allocator@D@2@@std@@K@std@@PAX@1@$$QAU?$pair@$$CBV?$basic_string@DU?$char_traits@D@std@@V?$allocator@D@2@@std@@K@1@@Z$0
__ehfuncinfo$??$?0U?$pair@$$CBV?$basic_string@DU?$char_traits@D@std@@V?$allocator@D@2@@std@@K@std@@@?$_Tree_temp_node@V?$allocator@U?$_Tree_node@U?$pair@$$CBV?$basic_string@DU?$char_traits@D@std@@V?$allocator@D@2@@std@@K@std@@PAX@std@@@std@@@std@@QAE@AAV?$allocator@U?$_Tree_node@U?$pair@$$CBV?$basic_string@DU?$char_traits@D@std@@V?$allocator@D@2@@std@@K@std@@PAX@std@@@1@PAU?$_Tree_node@U?$pair@$$CBV?$basic_string@DU?$char_traits@D@std@@V?$allocator@D@2@@std@@K@std@@PAX@1@$$QAU?$pair@$$CBV?$basic_string@DU?$char_traits@D@std@@V?$allocator@D@2@@std@@K@1@@Z DD 019930522H
	DD	02H
	DD	FLAT:__unwindtable$??$?0U?$pair@$$CBV?$basic_string@DU?$char_traits@D@std@@V?$allocator@D@2@@std@@K@std@@@?$_Tree_temp_node@V?$allocator@U?$_Tree_node@U?$pair@$$CBV?$basic_string@DU?$char_traits@D@std@@V?$allocator@D@2@@std@@K@std@@PAX@std@@@std@@@std@@QAE@AAV?$allocator@U?$_Tree_node@U?$pair@$$CBV?$basic_string@DU?$char_traits@D@std@@V?$allocator@D@2@@std@@K@std@@PAX@std@@@1@PAU?$_Tree_node@U?$pair@$$CBV?$basic_string@DU?$char_traits@D@std@@V?$allocator@D@2@@std@@K@std@@PAX@1@$$QAU?$pair@$$CBV?$basic_string@DU?$char_traits@D@std@@V?$allocator@D@2@@std@@K@1@@Z
	DD	2 DUP(00H)
	DD	2 DUP(00H)
	DD	00H
	DD	01H
xdata$x	ENDS
;	COMDAT xdata$x
xdata$x	SEGMENT
__unwindtable$??0?$_Tree_temp_node_alloc@V?$allocator@U?$_Tree_node@U?$pair@$$CBV?$basic_string@DU?$char_traits@D@std@@V?$allocator@D@2@@std@@K@std@@PAX@std@@@std@@@std@@QAE@AAV?$allocator@U?$_Tree_node@U?$pair@$$CBV?$basic_string@DU?$char_traits@D@std@@V?$allocator@D@2@@std@@K@std@@PAX@std@@@1@@Z DD 0ffffffffH
	DD	FLAT:__unwindfunclet$??0?$_Tree_temp_node_alloc@V?$allocator@U?$_Tree_node@U?$pair@$$CBV?$basic_string@DU?$char_traits@D@std@@V?$allocator@D@2@@std@@K@std@@PAX@std@@@std@@@std@@QAE@AAV?$allocator@U?$_Tree_node@U?$pair@$$CBV?$basic_string@DU?$char_traits@D@std@@V?$allocator@D@2@@std@@K@std@@PAX@std@@@1@@Z$0
__ehfuncinfo$??0?$_Tree_temp_node_alloc@V?$allocator@U?$_Tree_node@U?$pair@$$CBV?$basic_string@DU?$char_traits@D@std@@V?$allocator@D@2@@std@@K@std@@PAX@std@@@std@@@std@@QAE@AAV?$allocator@U?$_Tree_node@U?$pair@$$CBV?$basic_string@DU?$char_traits@D@std@@V?$allocator@D@2@@std@@K@std@@PAX@std@@@1@@Z DD 019930522H
	DD	01H
	DD	FLAT:__unwindtable$??0?$_Tree_temp_node_alloc@V?$allocator@U?$_Tree_node@U?$pair@$$CBV?$basic_string@DU?$char_traits@D@std@@V?$allocator@D@2@@std@@K@std@@PAX@std@@@std@@@std@@QAE@AAV?$allocator@U?$_Tree_node@U?$pair@$$CBV?$basic_string@DU?$char_traits@D@std@@V?$allocator@D@2@@std@@K@std@@PAX@std@@@1@@Z
	DD	2 DUP(00H)
	DD	2 DUP(00H)
	DD	00H
	DD	01H
xdata$x	ENDS
;	COMDAT xdata$x
xdata$x	SEGMENT
__unwindtable$??$?0ABH@?$_Tree_temp_node@V?$allocator@U?$_Tree_node@HPAX@std@@@std@@@std@@QAE@AAV?$allocator@U?$_Tree_node@HPAX@std@@@1@PAU?$_Tree_node@HPAX@1@ABH@Z DD 0ffffffffH
	DD	FLAT:__unwindfunclet$??$?0ABH@?$_Tree_temp_node@V?$allocator@U?$_Tree_node@HPAX@std@@@std@@@std@@QAE@AAV?$allocator@U?$_Tree_node@HPAX@std@@@1@PAU?$_Tree_node@HPAX@1@ABH@Z$1
__ehfuncinfo$??$?0ABH@?$_Tree_temp_node@V?$allocator@U?$_Tree_node@HPAX@std@@@std@@@std@@QAE@AAV?$allocator@U?$_Tree_node@HPAX@std@@@1@PAU?$_Tree_node@HPAX@1@ABH@Z DD 019930522H
	DD	01H
	DD	FLAT:__unwindtable$??$?0ABH@?$_Tree_temp_node@V?$allocator@U?$_Tree_node@HPAX@std@@@std@@@std@@QAE@AAV?$allocator@U?$_Tree_node@HPAX@std@@@1@PAU?$_Tree_node@HPAX@1@ABH@Z
	DD	2 DUP(00H)
	DD	2 DUP(00H)
	DD	00H
	DD	01H
xdata$x	ENDS
;	COMDAT xdata$x
xdata$x	SEGMENT
__unwindtable$??0?$_Tree_temp_node_alloc@V?$allocator@U?$_Tree_node@HPAX@std@@@std@@@std@@QAE@AAV?$allocator@U?$_Tree_node@HPAX@std@@@1@@Z DD 0ffffffffH
	DD	FLAT:__unwindfunclet$??0?$_Tree_temp_node_alloc@V?$allocator@U?$_Tree_node@HPAX@std@@@std@@@std@@QAE@AAV?$allocator@U?$_Tree_node@HPAX@std@@@1@@Z$0
__ehfuncinfo$??0?$_Tree_temp_node_alloc@V?$allocator@U?$_Tree_node@HPAX@std@@@std@@@std@@QAE@AAV?$allocator@U?$_Tree_node@HPAX@std@@@1@@Z DD 019930522H
	DD	01H
	DD	FLAT:__unwindtable$??0?$_Tree_temp_node_alloc@V?$allocator@U?$_Tree_node@HPAX@std@@@std@@@std@@QAE@AAV?$allocator@U?$_Tree_node@HPAX@std@@@1@@Z
	DD	2 DUP(00H)
	DD	2 DUP(00H)
	DD	00H
	DD	01H
xdata$x	ENDS
;	COMDAT xdata$x
xdata$x	SEGMENT
__unwindtable$??$_Emplace@D@?$_Tree@V?$_Tset_traits@DU?$less@D@std@@V?$allocator@D@2@$0A@@std@@@std@@IAE?AU?$pair@PAU?$_Tree_node@DPAX@std@@_N@1@$$QAD@Z DD 0ffffffffH
	DD	FLAT:__unwindfunclet$??$_Emplace@D@?$_Tree@V?$_Tset_traits@DU?$less@D@std@@V?$allocator@D@2@$0A@@std@@@std@@IAE?AU?$pair@PAU?$_Tree_node@DPAX@std@@_N@1@$$QAD@Z$2
__ehfuncinfo$??$_Emplace@D@?$_Tree@V?$_Tset_traits@DU?$less@D@std@@V?$allocator@D@2@$0A@@std@@@std@@IAE?AU?$pair@PAU?$_Tree_node@DPAX@std@@_N@1@$$QAD@Z DD 019930522H
	DD	01H
	DD	FLAT:__unwindtable$??$_Emplace@D@?$_Tree@V?$_Tset_traits@DU?$less@D@std@@V?$allocator@D@2@$0A@@std@@@std@@IAE?AU?$pair@PAU?$_Tree_node@DPAX@std@@_N@1@$$QAD@Z
	DD	2 DUP(00H)
	DD	2 DUP(00H)
	DD	00H
	DD	01H
xdata$x	ENDS
;	COMDAT xdata$x
xdata$x	SEGMENT
__unwindtable$??$_Emplace@V?$basic_string@DU?$char_traits@D@std@@V?$allocator@D@2@@std@@@?$_Tree@V?$_Tset_traits@V?$basic_string@DU?$char_traits@D@std@@V?$allocator@D@2@@std@@U?$less@V?$basic_string@DU?$char_traits@D@std@@V?$allocator@D@2@@std@@@2@V?$allocator@V?$basic_string@DU?$char_traits@D@std@@V?$allocator@D@2@@std@@@2@$0A@@std@@@std@@IAE?AU?$pair@PAU?$_Tree_node@V?$basic_string@DU?$char_traits@D@std@@V?$allocator@D@2@@std@@PAX@std@@_N@1@$$QAV?$basic_string@DU?$char_traits@D@std@@V?$allocator@D@2@@1@@Z DD 0ffffffffH
	DD	FLAT:__unwindfunclet$??$_Emplace@V?$basic_string@DU?$char_traits@D@std@@V?$allocator@D@2@@std@@@?$_Tree@V?$_Tset_traits@V?$basic_string@DU?$char_traits@D@std@@V?$allocator@D@2@@std@@U?$less@V?$basic_string@DU?$char_traits@D@std@@V?$allocator@D@2@@std@@@2@V?$allocator@V?$basic_string@DU?$char_traits@D@std@@V?$allocator@D@2@@std@@@2@$0A@@std@@@std@@IAE?AU?$pair@PAU?$_Tree_node@V?$basic_string@DU?$char_traits@D@std@@V?$allocator@D@2@@std@@PAX@std@@_N@1@$$QAV?$basic_string@DU?$char_traits@D@std@@V?$allocator@D@2@@1@@Z$2
__ehfuncinfo$??$_Emplace@V?$basic_string@DU?$char_traits@D@std@@V?$allocator@D@2@@std@@@?$_Tree@V?$_Tset_traits@V?$basic_string@DU?$char_traits@D@std@@V?$allocator@D@2@@std@@U?$less@V?$basic_string@DU?$char_traits@D@std@@V?$allocator@D@2@@std@@@2@V?$allocator@V?$basic_string@DU?$char_traits@D@std@@V?$allocator@D@2@@std@@@2@$0A@@std@@@std@@IAE?AU?$pair@PAU?$_Tree_node@V?$basic_string@DU?$char_traits@D@std@@V?$allocator@D@2@@std@@PAX@std@@_N@1@$$QAV?$basic_string@DU?$char_traits@D@std@@V?$allocator@D@2@@1@@Z DD 019930522H
	DD	01H
	DD	FLAT:__unwindtable$??$_Emplace@V?$basic_string@DU?$char_traits@D@std@@V?$allocator@D@2@@std@@@?$_Tree@V?$_Tset_traits@V?$basic_string@DU?$char_traits@D@std@@V?$allocator@D@2@@std@@U?$less@V?$basic_string@DU?$char_traits@D@std@@V?$allocator@D@2@@std@@@2@V?$allocator@V?$basic_string@DU?$char_traits@D@std@@V?$allocator@D@2@@std@@@2@$0A@@std@@@std@@IAE?AU?$pair@PAU?$_Tree_node@V?$basic_string@DU?$char_traits@D@std@@V?$allocator@D@2@@std@@PAX@std@@_N@1@$$QAV?$basic_string@DU?$char_traits@D@std@@V?$allocator@D@2@@1@@Z
	DD	2 DUP(00H)
	DD	2 DUP(00H)
	DD	00H
	DD	01H
xdata$x	ENDS
;	COMDAT xdata$x
xdata$x	SEGMENT
__unwindtable$??$_Emplace@U?$pair@$$CBV?$basic_string@DU?$char_traits@D@std@@V?$allocator@D@2@@std@@K@std@@@?$_Tree@V?$_Tmap_traits@V?$basic_string@DU?$char_traits@D@std@@V?$allocator@D@2@@std@@KU?$less@V?$basic_string@DU?$char_traits@D@std@@V?$allocator@D@2@@std@@@2@V?$allocator@U?$pair@$$CBV?$basic_string@DU?$char_traits@D@std@@V?$allocator@D@2@@std@@K@std@@@2@$0A@@std@@@std@@IAE?AU?$pair@PAU?$_Tree_node@U?$pair@$$CBV?$basic_string@DU?$char_traits@D@std@@V?$allocator@D@2@@std@@K@std@@PAX@std@@_N@1@$$QAU?$pair@$$CBV?$basic_string@DU?$char_traits@D@std@@V?$allocator@D@2@@std@@K@1@@Z DD 0ffffffffH
	DD	FLAT:__unwindfunclet$??$_Emplace@U?$pair@$$CBV?$basic_string@DU?$char_traits@D@std@@V?$allocator@D@2@@std@@K@std@@@?$_Tree@V?$_Tmap_traits@V?$basic_string@DU?$char_traits@D@std@@V?$allocator@D@2@@std@@KU?$less@V?$basic_string@DU?$char_traits@D@std@@V?$allocator@D@2@@std@@@2@V?$allocator@U?$pair@$$CBV?$basic_string@DU?$char_traits@D@std@@V?$allocator@D@2@@std@@K@std@@@2@$0A@@std@@@std@@IAE?AU?$pair@PAU?$_Tree_node@U?$pair@$$CBV?$basic_string@DU?$char_traits@D@std@@V?$allocator@D@2@@std@@K@std@@PAX@std@@_N@1@$$QAU?$pair@$$CBV?$basic_string@DU?$char_traits@D@std@@V?$allocator@D@2@@std@@K@1@@Z$2
	DD	0ffffffffH
	DD	FLAT:__unwindfunclet$??$_Emplace@U?$pair@$$CBV?$basic_string@DU?$char_traits@D@std@@V?$allocator@D@2@@std@@K@std@@@?$_Tree@V?$_Tmap_traits@V?$basic_string@DU?$char_traits@D@std@@V?$allocator@D@2@@std@@KU?$less@V?$basic_string@DU?$char_traits@D@std@@V?$allocator@D@2@@std@@@2@V?$allocator@U?$pair@$$CBV?$basic_string@DU?$char_traits@D@std@@V?$allocator@D@2@@std@@K@std@@@2@$0A@@std@@@std@@IAE?AU?$pair@PAU?$_Tree_node@U?$pair@$$CBV?$basic_string@DU?$char_traits@D@std@@V?$allocator@D@2@@std@@K@std@@PAX@std@@_N@1@$$QAU?$pair@$$CBV?$basic_string@DU?$char_traits@D@std@@V?$allocator@D@2@@std@@K@1@@Z$1
__ehfuncinfo$??$_Emplace@U?$pair@$$CBV?$basic_string@DU?$char_traits@D@std@@V?$allocator@D@2@@std@@K@std@@@?$_Tree@V?$_Tmap_traits@V?$basic_string@DU?$char_traits@D@std@@V?$allocator@D@2@@std@@KU?$less@V?$basic_string@DU?$char_traits@D@std@@V?$allocator@D@2@@std@@@2@V?$allocator@U?$pair@$$CBV?$basic_string@DU?$char_traits@D@std@@V?$allocator@D@2@@std@@K@std@@@2@$0A@@std@@@std@@IAE?AU?$pair@PAU?$_Tree_node@U?$pair@$$CBV?$basic_string@DU?$char_traits@D@std@@V?$allocator@D@2@@std@@K@std@@PAX@std@@_N@1@$$QAU?$pair@$$CBV?$basic_string@DU?$char_traits@D@std@@V?$allocator@D@2@@std@@K@1@@Z DD 019930522H
	DD	02H
	DD	FLAT:__unwindtable$??$_Emplace@U?$pair@$$CBV?$basic_string@DU?$char_traits@D@std@@V?$allocator@D@2@@std@@K@std@@@?$_Tree@V?$_Tmap_traits@V?$basic_string@DU?$char_traits@D@std@@V?$allocator@D@2@@std@@KU?$less@V?$basic_string@DU?$char_traits@D@std@@V?$allocator@D@2@@std@@@2@V?$allocator@U?$pair@$$CBV?$basic_string@DU?$char_traits@D@std@@V?$allocator@D@2@@std@@K@std@@@2@$0A@@std@@@std@@IAE?AU?$pair@PAU?$_Tree_node@U?$pair@$$CBV?$basic_string@DU?$char_traits@D@std@@V?$allocator@D@2@@std@@K@std@@PAX@std@@_N@1@$$QAU?$pair@$$CBV?$basic_string@DU?$char_traits@D@std@@V?$allocator@D@2@@std@@K@1@@Z
	DD	2 DUP(00H)
	DD	2 DUP(00H)
	DD	00H
	DD	01H
xdata$x	ENDS
;	COMDAT xdata$x
xdata$x	SEGMENT
__unwindtable$??$_Emplace@ABH@?$_Tree@V?$_Tset_traits@HU?$less@H@std@@V?$allocator@H@2@$0A@@std@@@std@@IAE?AU?$pair@PAU?$_Tree_node@HPAX@std@@_N@1@ABH@Z DD 0ffffffffH
	DD	FLAT:__unwindfunclet$??$_Emplace@ABH@?$_Tree@V?$_Tset_traits@HU?$less@H@std@@V?$allocator@H@2@$0A@@std@@@std@@IAE?AU?$pair@PAU?$_Tree_node@HPAX@std@@_N@1@ABH@Z$2
__ehfuncinfo$??$_Emplace@ABH@?$_Tree@V?$_Tset_traits@HU?$less@H@std@@V?$allocator@H@2@$0A@@std@@@std@@IAE?AU?$pair@PAU?$_Tree_node@HPAX@std@@_N@1@ABH@Z DD 019930522H
	DD	01H
	DD	FLAT:__unwindtable$??$_Emplace@ABH@?$_Tree@V?$_Tset_traits@HU?$less@H@std@@V?$allocator@H@2@$0A@@std@@@std@@IAE?AU?$pair@PAU?$_Tree_node@HPAX@std@@_N@1@ABH@Z
	DD	2 DUP(00H)
	DD	2 DUP(00H)
	DD	00H
	DD	01H
xdata$x	ENDS
;	COMDAT xdata$x
xdata$x	SEGMENT
__unwindtable$??$insert@$0A@$0A@@?$_Tree@V?$_Tset_traits@DU?$less@D@std@@V?$allocator@D@2@$0A@@std@@@std@@QAE?AU?$pair@V?$_Tree_const_iterator@V?$_Tree_val@U?$_Tree_simple_types@D@std@@@std@@@std@@_N@1@$$QAD@Z DD 0ffffffffH
	DD	FLAT:__unwindfunclet$??$insert@$0A@$0A@@?$_Tree@V?$_Tset_traits@DU?$less@D@std@@V?$allocator@D@2@$0A@@std@@@std@@QAE?AU?$pair@V?$_Tree_const_iterator@V?$_Tree_val@U?$_Tree_simple_types@D@std@@@std@@@std@@_N@1@$$QAD@Z$2
__ehfuncinfo$??$insert@$0A@$0A@@?$_Tree@V?$_Tset_traits@DU?$less@D@std@@V?$allocator@D@2@$0A@@std@@@std@@QAE?AU?$pair@V?$_Tree_const_iterator@V?$_Tree_val@U?$_Tree_simple_types@D@std@@@std@@@std@@_N@1@$$QAD@Z DD 019930522H
	DD	01H
	DD	FLAT:__unwindtable$??$insert@$0A@$0A@@?$_Tree@V?$_Tset_traits@DU?$less@D@std@@V?$allocator@D@2@$0A@@std@@@std@@QAE?AU?$pair@V?$_Tree_const_iterator@V?$_Tree_val@U?$_Tree_simple_types@D@std@@@std@@@std@@_N@1@$$QAD@Z
	DD	2 DUP(00H)
	DD	2 DUP(00H)
	DD	00H
	DD	01H
xdata$x	ENDS
;	COMDAT xdata$x
xdata$x	SEGMENT
__unwindtable$??$insert@$0A@$0A@@?$_Tree@V?$_Tset_traits@V?$basic_string@DU?$char_traits@D@std@@V?$allocator@D@2@@std@@U?$less@V?$basic_string@DU?$char_traits@D@std@@V?$allocator@D@2@@std@@@2@V?$allocator@V?$basic_string@DU?$char_traits@D@std@@V?$allocator@D@2@@std@@@2@$0A@@std@@@std@@QAE?AU?$pair@V?$_Tree_const_iterator@V?$_Tree_val@U?$_Tree_simple_types@V?$basic_string@DU?$char_traits@D@std@@V?$allocator@D@2@@std@@@std@@@std@@@std@@_N@1@$$QAV?$basic_string@DU?$char_traits@D@std@@V?$allocator@D@2@@1@@Z DD 0ffffffffH
	DD	FLAT:__unwindfunclet$??$insert@$0A@$0A@@?$_Tree@V?$_Tset_traits@V?$basic_string@DU?$char_traits@D@std@@V?$allocator@D@2@@std@@U?$less@V?$basic_string@DU?$char_traits@D@std@@V?$allocator@D@2@@std@@@2@V?$allocator@V?$basic_string@DU?$char_traits@D@std@@V?$allocator@D@2@@std@@@2@$0A@@std@@@std@@QAE?AU?$pair@V?$_Tree_const_iterator@V?$_Tree_val@U?$_Tree_simple_types@V?$basic_string@DU?$char_traits@D@std@@V?$allocator@D@2@@std@@@std@@@std@@@std@@_N@1@$$QAV?$basic_string@DU?$char_traits@D@std@@V?$allocator@D@2@@1@@Z$2
__ehfuncinfo$??$insert@$0A@$0A@@?$_Tree@V?$_Tset_traits@V?$basic_string@DU?$char_traits@D@std@@V?$allocator@D@2@@std@@U?$less@V?$basic_string@DU?$char_traits@D@std@@V?$allocator@D@2@@std@@@2@V?$allocator@V?$basic_string@DU?$char_traits@D@std@@V?$allocator@D@2@@std@@@2@$0A@@std@@@std@@QAE?AU?$pair@V?$_Tree_const_iterator@V?$_Tree_val@U?$_Tree_simple_types@V?$basic_string@DU?$char_traits@D@std@@V?$allocator@D@2@@std@@@std@@@std@@@std@@_N@1@$$QAV?$basic_string@DU?$char_traits@D@std@@V?$allocator@D@2@@1@@Z DD 019930522H
	DD	01H
	DD	FLAT:__unwindtable$??$insert@$0A@$0A@@?$_Tree@V?$_Tset_traits@V?$basic_string@DU?$char_traits@D@std@@V?$allocator@D@2@@std@@U?$less@V?$basic_string@DU?$char_traits@D@std@@V?$allocator@D@2@@std@@@2@V?$allocator@V?$basic_string@DU?$char_traits@D@std@@V?$allocator@D@2@@std@@@2@$0A@@std@@@std@@QAE?AU?$pair@V?$_Tree_const_iterator@V?$_Tree_val@U?$_Tree_simple_types@V?$basic_string@DU?$char_traits@D@std@@V?$allocator@D@2@@std@@@std@@@std@@@std@@_N@1@$$QAV?$basic_string@DU?$char_traits@D@std@@V?$allocator@D@2@@1@@Z
	DD	2 DUP(00H)
	DD	2 DUP(00H)
	DD	00H
	DD	01H
xdata$x	ENDS
;	COMDAT xdata$x
xdata$x	SEGMENT
__unwindtable$??$insert@$0A@$0A@@?$_Tree@V?$_Tmap_traits@V?$basic_string@DU?$char_traits@D@std@@V?$allocator@D@2@@std@@KU?$less@V?$basic_string@DU?$char_traits@D@std@@V?$allocator@D@2@@std@@@2@V?$allocator@U?$pair@$$CBV?$basic_string@DU?$char_traits@D@std@@V?$allocator@D@2@@std@@K@std@@@2@$0A@@std@@@std@@QAE?AU?$pair@V?$_Tree_iterator@V?$_Tree_val@U?$_Tree_simple_types@U?$pair@$$CBV?$basic_string@DU?$char_traits@D@std@@V?$allocator@D@2@@std@@K@std@@@std@@@std@@@std@@_N@1@$$QAU?$pair@$$CBV?$basic_string@DU?$char_traits@D@std@@V?$allocator@D@2@@std@@K@1@@Z DD 0ffffffffH
	DD	FLAT:__unwindfunclet$??$insert@$0A@$0A@@?$_Tree@V?$_Tmap_traits@V?$basic_string@DU?$char_traits@D@std@@V?$allocator@D@2@@std@@KU?$less@V?$basic_string@DU?$char_traits@D@std@@V?$allocator@D@2@@std@@@2@V?$allocator@U?$pair@$$CBV?$basic_string@DU?$char_traits@D@std@@V?$allocator@D@2@@std@@K@std@@@2@$0A@@std@@@std@@QAE?AU?$pair@V?$_Tree_iterator@V?$_Tree_val@U?$_Tree_simple_types@U?$pair@$$CBV?$basic_string@DU?$char_traits@D@std@@V?$allocator@D@2@@std@@K@std@@@std@@@std@@@std@@_N@1@$$QAU?$pair@$$CBV?$basic_string@DU?$char_traits@D@std@@V?$allocator@D@2@@std@@K@1@@Z$2
	DD	0ffffffffH
	DD	FLAT:__unwindfunclet$??$insert@$0A@$0A@@?$_Tree@V?$_Tmap_traits@V?$basic_string@DU?$char_traits@D@std@@V?$allocator@D@2@@std@@KU?$less@V?$basic_string@DU?$char_traits@D@std@@V?$allocator@D@2@@std@@@2@V?$allocator@U?$pair@$$CBV?$basic_string@DU?$char_traits@D@std@@V?$allocator@D@2@@std@@K@std@@@2@$0A@@std@@@std@@QAE?AU?$pair@V?$_Tree_iterator@V?$_Tree_val@U?$_Tree_simple_types@U?$pair@$$CBV?$basic_string@DU?$char_traits@D@std@@V?$allocator@D@2@@std@@K@std@@@std@@@std@@@std@@_N@1@$$QAU?$pair@$$CBV?$basic_string@DU?$char_traits@D@std@@V?$allocator@D@2@@std@@K@1@@Z$1
__ehfuncinfo$??$insert@$0A@$0A@@?$_Tree@V?$_Tmap_traits@V?$basic_string@DU?$char_traits@D@std@@V?$allocator@D@2@@std@@KU?$less@V?$basic_string@DU?$char_traits@D@std@@V?$allocator@D@2@@std@@@2@V?$allocator@U?$pair@$$CBV?$basic_string@DU?$char_traits@D@std@@V?$allocator@D@2@@std@@K@std@@@2@$0A@@std@@@std@@QAE?AU?$pair@V?$_Tree_iterator@V?$_Tree_val@U?$_Tree_simple_types@U?$pair@$$CBV?$basic_string@DU?$char_traits@D@std@@V?$allocator@D@2@@std@@K@std@@@std@@@std@@@std@@_N@1@$$QAU?$pair@$$CBV?$basic_string@DU?$char_traits@D@std@@V?$allocator@D@2@@std@@K@1@@Z DD 019930522H
	DD	02H
	DD	FLAT:__unwindtable$??$insert@$0A@$0A@@?$_Tree@V?$_Tmap_traits@V?$basic_string@DU?$char_traits@D@std@@V?$allocator@D@2@@std@@KU?$less@V?$basic_string@DU?$char_traits@D@std@@V?$allocator@D@2@@std@@@2@V?$allocator@U?$pair@$$CBV?$basic_string@DU?$char_traits@D@std@@V?$allocator@D@2@@std@@K@std@@@2@$0A@@std@@@std@@QAE?AU?$pair@V?$_Tree_iterator@V?$_Tree_val@U?$_Tree_simple_types@U?$pair@$$CBV?$basic_string@DU?$char_traits@D@std@@V?$allocator@D@2@@std@@K@std@@@std@@@std@@@std@@_N@1@$$QAU?$pair@$$CBV?$basic_string@DU?$char_traits@D@std@@V?$allocator@D@2@@std@@K@1@@Z
	DD	2 DUP(00H)
	DD	2 DUP(00H)
	DD	00H
	DD	01H
xdata$x	ENDS
;	COMDAT xdata$x
xdata$x	SEGMENT
__unwindtable$??$insert@$0A@$0A@@?$_Tree@V?$_Tset_traits@HU?$less@H@std@@V?$allocator@H@2@$0A@@std@@@std@@QAE?AU?$pair@V?$_Tree_const_iterator@V?$_Tree_val@U?$_Tree_simple_types@H@std@@@std@@@std@@_N@1@ABH@Z DD 0ffffffffH
	DD	FLAT:__unwindfunclet$??$insert@$0A@$0A@@?$_Tree@V?$_Tset_traits@HU?$less@H@std@@V?$allocator@H@2@$0A@@std@@@std@@QAE?AU?$pair@V?$_Tree_const_iterator@V?$_Tree_val@U?$_Tree_simple_types@H@std@@@std@@@std@@_N@1@ABH@Z$2
__ehfuncinfo$??$insert@$0A@$0A@@?$_Tree@V?$_Tset_traits@HU?$less@H@std@@V?$allocator@H@2@$0A@@std@@@std@@QAE?AU?$pair@V?$_Tree_const_iterator@V?$_Tree_val@U?$_Tree_simple_types@H@std@@@std@@@std@@_N@1@ABH@Z DD 019930522H
	DD	01H
	DD	FLAT:__unwindtable$??$insert@$0A@$0A@@?$_Tree@V?$_Tset_traits@HU?$less@H@std@@V?$allocator@H@2@$0A@@std@@@std@@QAE?AU?$pair@V?$_Tree_const_iterator@V?$_Tree_val@U?$_Tree_simple_types@H@std@@@std@@@std@@_N@1@ABH@Z
	DD	2 DUP(00H)
	DD	2 DUP(00H)
	DD	00H
	DD	01H
xdata$x	ENDS
;	COMDAT xdata$x
xdata$x	SEGMENT
__unwindtable$?GetLangFileName@@YA?AV?$CStringT@DV?$StrTraitMFC@DV?$ChTraitsCRT@D@ATL@@@@@ATL@@HH@Z DD 0ffffffffH
	DD	FLAT:__unwindfunclet$?GetLangFileName@@YA?AV?$CStringT@DV?$StrTraitMFC@DV?$ChTraitsCRT@D@ATL@@@@@ATL@@HH@Z$0
	DD	00H
	DD	FLAT:__unwindfunclet$?GetLangFileName@@YA?AV?$CStringT@DV?$StrTraitMFC@DV?$ChTraitsCRT@D@ATL@@@@@ATL@@HH@Z$2
	DD	00H
	DD	FLAT:__unwindfunclet$?GetLangFileName@@YA?AV?$CStringT@DV?$StrTraitMFC@DV?$ChTraitsCRT@D@ATL@@@@@ATL@@HH@Z$1
__ehfuncinfo$?GetLangFileName@@YA?AV?$CStringT@DV?$StrTraitMFC@DV?$ChTraitsCRT@D@ATL@@@@@ATL@@HH@Z DD 019930522H
	DD	03H
	DD	FLAT:__unwindtable$?GetLangFileName@@YA?AV?$CStringT@DV?$StrTraitMFC@DV?$ChTraitsCRT@D@ATL@@@@@ATL@@HH@Z
	DD	2 DUP(00H)
	DD	2 DUP(00H)
	DD	00H
	DD	01H
xdata$x	ENDS
;	COMDAT xdata$x
xdata$x	SEGMENT
__unwindtable$?GetLangScript@CProject@@QAE?AV?$CStringT@DV?$StrTraitMFC@DV?$ChTraitsCRT@D@ATL@@@@@ATL@@AAVCScript@@@Z DD 0ffffffffH
	DD	FLAT:__unwindfunclet$?GetLangScript@CProject@@QAE?AV?$CStringT@DV?$StrTraitMFC@DV?$ChTraitsCRT@D@ATL@@@@@ATL@@AAVCScript@@@Z$0
__ehfuncinfo$?GetLangScript@CProject@@QAE?AV?$CStringT@DV?$StrTraitMFC@DV?$ChTraitsCRT@D@ATL@@@@@ATL@@AAVCScript@@@Z DD 019930522H
	DD	01H
	DD	FLAT:__unwindtable$?GetLangScript@CProject@@QAE?AV?$CStringT@DV?$StrTraitMFC@DV?$ChTraitsCRT@D@ATL@@@@@ATL@@AAVCScript@@@Z
	DD	2 DUP(00H)
	DD	2 DUP(00H)
	DD	00H
	DD	01H
xdata$x	ENDS
;	COMDAT xdata$x
xdata$x	SEGMENT
__ehfuncinfo$?LoadText@CProject@@QAEHPBD@Z DD 019930522H
	DD	05H
	DD	FLAT:__unwindtable$?LoadText@CProject@@QAEHPBD@Z
	DD	2 DUP(00H)
	DD	2 DUP(00H)
	DD	00H
	DD	01H
__unwindtable$?LoadText@CProject@@QAEHPBD@Z DD 0ffffffffH
	DD	FLAT:__unwindfunclet$?LoadText@CProject@@QAEHPBD@Z$0
	DD	00H
	DD	FLAT:__unwindfunclet$?LoadText@CProject@@QAEHPBD@Z$1
	DD	01H
	DD	FLAT:__unwindfunclet$?LoadText@CProject@@QAEHPBD@Z$2
	DD	02H
	DD	FLAT:__unwindfunclet$?LoadText@CProject@@QAEHPBD@Z$4
	DD	02H
	DD	FLAT:__unwindfunclet$?LoadText@CProject@@QAEHPBD@Z$3
xdata$x	ENDS
;	COMDAT xdata$x
xdata$x	SEGMENT
__unwindtable$?LoadJobItem@CProject@@QAEHPBD@Z DD 0ffffffffH
	DD	FLAT:__unwindfunclet$?LoadJobItem@CProject@@QAEHPBD@Z$0
__ehfuncinfo$?LoadJobItem@CProject@@QAEHPBD@Z DD 019930522H
	DD	01H
	DD	FLAT:__unwindtable$?LoadJobItem@CProject@@QAEHPBD@Z
	DD	2 DUP(00H)
	DD	2 DUP(00H)
	DD	00H
	DD	01H
xdata$x	ENDS
;	COMDAT xdata$x
xdata$x	SEGMENT
__unwindtable$?LoadPropItemEx@CProject@@QAEHPBDPAV?$CFixedArray@UItemProp@@@@@Z DD 0ffffffffH
	DD	FLAT:__unwindfunclet$?LoadPropItemEx@CProject@@QAEHPBDPAV?$CFixedArray@UItemProp@@@@@Z$0
	DD	00H
	DD	FLAT:__unwindfunclet$?LoadPropItemEx@CProject@@QAEHPBDPAV?$CFixedArray@UItemProp@@@@@Z$1
	DD	01H
	DD	FLAT:__unwindfunclet$?LoadPropItemEx@CProject@@QAEHPBDPAV?$CFixedArray@UItemProp@@@@@Z$5
	DD	01H
	DD	FLAT:__unwindfunclet$?LoadPropItemEx@CProject@@QAEHPBDPAV?$CFixedArray@UItemProp@@@@@Z$4
__ehfuncinfo$?LoadPropItemEx@CProject@@QAEHPBDPAV?$CFixedArray@UItemProp@@@@@Z DD 019930522H
	DD	04H
	DD	FLAT:__unwindtable$?LoadPropItemEx@CProject@@QAEHPBDPAV?$CFixedArray@UItemProp@@@@@Z
	DD	2 DUP(00H)
	DD	2 DUP(00H)
	DD	00H
	DD	01H
xdata$x	ENDS
;	COMDAT xdata$x
xdata$x	SEGMENT
__unwindtable$?LoadPropItem@CProject@@QAEHPBDPAV?$CFixedArray@UItemProp@@@@@Z DD 0ffffffffH
	DD	FLAT:__unwindfunclet$?LoadPropItem@CProject@@QAEHPBDPAV?$CFixedArray@UItemProp@@@@@Z$0
	DD	00H
	DD	FLAT:__unwindfunclet$?LoadPropItem@CProject@@QAEHPBDPAV?$CFixedArray@UItemProp@@@@@Z$1
	DD	01H
	DD	FLAT:__unwindfunclet$?LoadPropItem@CProject@@QAEHPBDPAV?$CFixedArray@UItemProp@@@@@Z$5
	DD	01H
	DD	FLAT:__unwindfunclet$?LoadPropItem@CProject@@QAEHPBDPAV?$CFixedArray@UItemProp@@@@@Z$4
__ehfuncinfo$?LoadPropItem@CProject@@QAEHPBDPAV?$CFixedArray@UItemProp@@@@@Z DD 019930522H
	DD	04H
	DD	FLAT:__unwindtable$?LoadPropItem@CProject@@QAEHPBDPAV?$CFixedArray@UItemProp@@@@@Z
	DD	2 DUP(00H)
	DD	2 DUP(00H)
	DD	00H
	DD	01H
xdata$x	ENDS
;	COMDAT xdata$x
xdata$x	SEGMENT
__unwindtable$?LoadPropMover@CProject@@QAEHPBD@Z DD 0ffffffffH
	DD	FLAT:__unwindfunclet$?LoadPropMover@CProject@@QAEHPBD@Z$0
	DD	00H
	DD	FLAT:__unwindfunclet$?LoadPropMover@CProject@@QAEHPBD@Z$1
	DD	01H
	DD	FLAT:__unwindfunclet$?LoadPropMover@CProject@@QAEHPBD@Z$6
__ehfuncinfo$?LoadPropMover@CProject@@QAEHPBD@Z DD 019930522H
	DD	03H
	DD	FLAT:__unwindtable$?LoadPropMover@CProject@@QAEHPBD@Z
	DD	2 DUP(00H)
	DD	2 DUP(00H)
	DD	00H
	DD	01H
xdata$x	ENDS
;	COMDAT xdata$x
xdata$x	SEGMENT
__unwindtable$?LoadStrings@CProject@@QAEXXZ DD 0ffffffffH
	DD	FLAT:__unwindfunclet$?LoadStrings@CProject@@QAEXXZ$0
__ehfuncinfo$?LoadStrings@CProject@@QAEXXZ DD 019930522H
	DD	01H
	DD	FLAT:__unwindtable$?LoadStrings@CProject@@QAEXXZ
	DD	2 DUP(00H)
	DD	2 DUP(00H)
	DD	00H
	DD	01H
xdata$x	ENDS
;	COMDAT xdata$x
xdata$x	SEGMENT
__unwindtable$?LoadDefines@CProject@@QAEXXZ DD 0ffffffffH
	DD	FLAT:__unwindfunclet$?LoadDefines@CProject@@QAEXXZ$0
__ehfuncinfo$?LoadDefines@CProject@@QAEXXZ DD 019930522H
	DD	01H
	DD	FLAT:__unwindtable$?LoadDefines@CProject@@QAEXXZ
	DD	2 DUP(00H)
	DD	2 DUP(00H)
	DD	00H
	DD	01H
xdata$x	ENDS
;	COMDAT xdata$x
xdata$x	SEGMENT
__ehfuncinfo$?LoadAllowedLetter@CProject@@QAEHH@Z DD 019930522H
	DD	05H
	DD	FLAT:__unwindtable$?LoadAllowedLetter@CProject@@QAEHH@Z
	DD	2 DUP(00H)
	DD	2 DUP(00H)
	DD	00H
	DD	01H
__unwindtable$?LoadAllowedLetter@CProject@@QAEHH@Z DD 0ffffffffH
	DD	FLAT:__unwindfunclet$?LoadAllowedLetter@CProject@@QAEHH@Z$0
	DD	00H
	DD	FLAT:__unwindfunclet$?LoadAllowedLetter@CProject@@QAEHH@Z$1
	DD	01H
	DD	FLAT:__unwindfunclet$?LoadAllowedLetter@CProject@@QAEHH@Z$2
	DD	01H
	DD	FLAT:__unwindfunclet$?LoadAllowedLetter@CProject@@QAEHH@Z$3
	DD	01H
	DD	FLAT:__unwindfunclet$?LoadAllowedLetter@CProject@@QAEHH@Z$6
xdata$x	ENDS
;	COMDAT xdata$x
xdata$x	SEGMENT
__unwindtable$?IsInvalidName@CProject@@QAEHPBD@Z DD 0ffffffffH
	DD	FLAT:__unwindfunclet$?IsInvalidName@CProject@@QAEHPBD@Z$2
	DD	0ffffffffH
	DD	FLAT:__unwindfunclet$?IsInvalidName@CProject@@QAEHPBD@Z$0
__ehfuncinfo$?IsInvalidName@CProject@@QAEHPBD@Z DD 019930522H
	DD	02H
	DD	FLAT:__unwindtable$?IsInvalidName@CProject@@QAEHPBD@Z
	DD	2 DUP(00H)
	DD	2 DUP(00H)
	DD	00H
	DD	01H
xdata$x	ENDS
;	COMDAT xdata$x
xdata$x	SEGMENT
__ehfuncinfo$?LoadInvalidName@CProject@@QAEHXZ DD 019930522H
	DD	05H
	DD	FLAT:__unwindtable$?LoadInvalidName@CProject@@QAEHXZ
	DD	2 DUP(00H)
	DD	2 DUP(00H)
	DD	00H
	DD	01H
__unwindtable$?LoadInvalidName@CProject@@QAEHXZ DD 0ffffffffH
	DD	FLAT:__unwindfunclet$?LoadInvalidName@CProject@@QAEHXZ$0
	DD	00H
	DD	FLAT:__unwindfunclet$?LoadInvalidName@CProject@@QAEHXZ$1
	DD	01H
	DD	FLAT:__unwindfunclet$?LoadInvalidName@CProject@@QAEHXZ$2
	DD	01H
	DD	FLAT:__unwindfunclet$?LoadInvalidName@CProject@@QAEHXZ$3
	DD	03H
	DD	FLAT:__unwindfunclet$?LoadInvalidName@CProject@@QAEHXZ$8
xdata$x	ENDS
;	COMDAT xdata$x
xdata$x	SEGMENT
__unwindtable$??HATL@@YA?AV?$CStringT@DV?$StrTraitMFC@DV?$ChTraitsCRT@D@ATL@@@@@0@ABV10@PBD@Z DD 0ffffffffH
	DD	FLAT:__unwindfunclet$??HATL@@YA?AV?$CStringT@DV?$StrTraitMFC@DV?$ChTraitsCRT@D@ATL@@@@@0@ABV10@PBD@Z$0
__ehfuncinfo$??HATL@@YA?AV?$CStringT@DV?$StrTraitMFC@DV?$ChTraitsCRT@D@ATL@@@@@0@ABV10@PBD@Z DD 019930522H
	DD	01H
	DD	FLAT:__unwindtable$??HATL@@YA?AV?$CStringT@DV?$StrTraitMFC@DV?$ChTraitsCRT@D@ATL@@@@@0@ABV10@PBD@Z
	DD	2 DUP(00H)
	DD	2 DUP(00H)
	DD	00H
	DD	01H
xdata$x	ENDS
;	COMDAT xdata$x
xdata$x	SEGMENT
__unwindtable$??0?$CStringT@DV?$StrTraitMFC@DV?$ChTraitsCRT@D@ATL@@@@@ATL@@QAE@PBD@Z DD 0ffffffffH
	DD	FLAT:__unwindfunclet$??0?$CStringT@DV?$StrTraitMFC@DV?$ChTraitsCRT@D@ATL@@@@@ATL@@QAE@PBD@Z$0
__ehfuncinfo$??0?$CStringT@DV?$StrTraitMFC@DV?$ChTraitsCRT@D@ATL@@@@@ATL@@QAE@PBD@Z DD 019930522H
	DD	01H
	DD	FLAT:__unwindtable$??0?$CStringT@DV?$StrTraitMFC@DV?$ChTraitsCRT@D@ATL@@@@@ATL@@QAE@PBD@Z
	DD	2 DUP(00H)
	DD	2 DUP(00H)
	DD	00H
	DD	01H
xdata$x	ENDS
; Function compile flags: /Ogtp
; File C:\Program Files\Microsoft Visual Studio\2022\Professional\VC\Tools\MSVC\14.44.35207\include\xtree
; File C:\Program Files\Microsoft Visual Studio\2022\Professional\VC\Tools\MSVC\14.44.35207\include\utility
; File C:\Program Files\Microsoft Visual Studio\2022\Professional\VC\Tools\MSVC\14.44.35207\include\xmemory
; File C:\Program Files\Microsoft Visual Studio\2022\Professional\VC\Tools\MSVC\14.44.35207\include\xtree
;	COMDAT ??$_Erase_tree@V?$allocator@U?$_Tree_node@HPAX@std@@@std@@@?$_Tree_val@U?$_Tree_simple_types@H@std@@@std@@QAEXAAV?$allocator@U?$_Tree_node@HPAX@std@@@1@PAU?$_Tree_node@HPAX@1@@Z
_TEXT	SEGMENT
__Al$ = 8						; size = 4
__Rootnode$ = 12					; size = 4
??$_Erase_tree@V?$allocator@U?$_Tree_node@HPAX@std@@@std@@@?$_Tree_val@U?$_Tree_simple_types@H@std@@@std@@QAEXAAV?$allocator@U?$_Tree_node@HPAX@std@@@1@PAU?$_Tree_node@HPAX@1@@Z PROC ; std::_Tree_val<std::_Tree_simple_types<int> >::_Erase_tree<std::allocator<std::_Tree_node<int,void *> > >, COMDAT
; _this$ = ecx

; 767  :     void _Erase_tree(_Alnode& _Al, _Nodeptr _Rootnode) noexcept {

  00000	55		 push	 ebp
  00001	8b ec		 mov	 ebp, esp
  00003	53		 push	 ebx
  00004	56		 push	 esi

; 768  :         while (!_Rootnode->_Isnil) { // free subtrees, then node

  00005	8b 75 0c	 mov	 esi, DWORD PTR __Rootnode$[ebp]
  00008	8b d9		 mov	 ebx, ecx
  0000a	80 7e 0d 00	 cmp	 BYTE PTR [esi+13], 0
  0000e	75 25		 jne	 SHORT $LN34@Erase_tree
  00010	57		 push	 edi
  00011	8b 7d 08	 mov	 edi, DWORD PTR __Al$[ebp]
$LL2@Erase_tree:

; 769  :             _Erase_tree(_Al, _Rootnode->_Right);

  00014	ff 76 08	 push	 DWORD PTR [esi+8]
  00017	8b cb		 mov	 ecx, ebx
  00019	57		 push	 edi
  0001a	e8 00 00 00 00	 call	 ??$_Erase_tree@V?$allocator@U?$_Tree_node@HPAX@std@@@std@@@?$_Tree_val@U?$_Tree_simple_types@H@std@@@std@@QAEXAAV?$allocator@U?$_Tree_node@HPAX@std@@@1@PAU?$_Tree_node@HPAX@1@@Z ; std::_Tree_val<std::_Tree_simple_types<int> >::_Erase_tree<std::allocator<std::_Tree_node<int,void *> > >
; File C:\Program Files\Microsoft Visual Studio\2022\Professional\VC\Tools\MSVC\14.44.35207\include\utility

; 773  :     _Ty _Old_val = static_cast<_Ty&&>(_Val);

  0001f	8b c6		 mov	 eax, esi

; 774  :     _Val         = static_cast<_Other&&>(_New_val);

  00021	8b 36		 mov	 esi, DWORD PTR [esi]
; File C:\Program Files\Microsoft Visual Studio\2022\Professional\VC\Tools\MSVC\14.44.35207\include\xmemory

; 289  :         ::operator delete(_Ptr, _Bytes);

  00023	6a 14		 push	 20			; 00000014H
  00025	50		 push	 eax
  00026	e8 00 00 00 00	 call	 ??3@YAXPAXI@Z		; operator delete
  0002b	83 c4 08	 add	 esp, 8
; File C:\Program Files\Microsoft Visual Studio\2022\Professional\VC\Tools\MSVC\14.44.35207\include\xtree

; 768  :         while (!_Rootnode->_Isnil) { // free subtrees, then node

  0002e	80 7e 0d 00	 cmp	 BYTE PTR [esi+13], 0
  00032	74 e0		 je	 SHORT $LL2@Erase_tree
  00034	5f		 pop	 edi
$LN34@Erase_tree:
  00035	5e		 pop	 esi

; 770  :             _Alnode::value_type::_Freenode(_Al, _STD exchange(_Rootnode, _Rootnode->_Left));
; 771  :         }
; 772  :     }

  00036	5b		 pop	 ebx
  00037	5d		 pop	 ebp
  00038	c2 08 00	 ret	 8
??$_Erase_tree@V?$allocator@U?$_Tree_node@HPAX@std@@@std@@@?$_Tree_val@U?$_Tree_simple_types@H@std@@@std@@QAEXAAV?$allocator@U?$_Tree_node@HPAX@std@@@1@PAU?$_Tree_node@HPAX@1@@Z ENDP ; std::_Tree_val<std::_Tree_simple_types<int> >::_Erase_tree<std::allocator<std::_Tree_node<int,void *> > >
_TEXT	ENDS
; Function compile flags: /Ogtp
; File C:\Program Files\Microsoft Visual Studio\2022\Professional\VC\Tools\MSVC\14.44.35207\include\xmemory
;	COMDAT ??1?$_Alloc_construct_ptr@V?$allocator@U?$_Tree_node@DPAX@std@@@std@@@std@@QAE@XZ
_TEXT	SEGMENT
??1?$_Alloc_construct_ptr@V?$allocator@U?$_Tree_node@DPAX@std@@@std@@@std@@QAE@XZ PROC ; std::_Alloc_construct_ptr<std::allocator<std::_Tree_node<char,void *> > >::~_Alloc_construct_ptr<std::allocator<std::_Tree_node<char,void *> > >, COMDAT
; _this$ = ecx

; 1172 :         if (_Ptr) {

  00000	8b 41 04	 mov	 eax, DWORD PTR [ecx+4]
  00003	85 c0		 test	 eax, eax
  00005	74 0b		 je	 SHORT $LN10@Alloc_cons

; 289  :         ::operator delete(_Ptr, _Bytes);

  00007	6a 10		 push	 16			; 00000010H
  00009	50		 push	 eax
  0000a	e8 00 00 00 00	 call	 ??3@YAXPAXI@Z		; operator delete
  0000f	83 c4 08	 add	 esp, 8
$LN10@Alloc_cons:

; 1173 :             _Al.deallocate(_Ptr, 1);
; 1174 :         }
; 1175 :     }

  00012	c3		 ret	 0
??1?$_Alloc_construct_ptr@V?$allocator@U?$_Tree_node@DPAX@std@@@std@@@std@@QAE@XZ ENDP ; std::_Alloc_construct_ptr<std::allocator<std::_Tree_node<char,void *> > >::~_Alloc_construct_ptr<std::allocator<std::_Tree_node<char,void *> > >
_TEXT	ENDS
; Function compile flags: /Ogtp
; File C:\Program Files\Microsoft Visual Studio\2022\Professional\VC\Tools\MSVC\14.44.35207\include\xtree
; File C:\Program Files\Microsoft Visual Studio\2022\Professional\VC\Tools\MSVC\14.44.35207\include\type_traits
; File C:\Program Files\Microsoft Visual Studio\2022\Professional\VC\Tools\MSVC\14.44.35207\include\xtree
; File C:\Program Files\Microsoft Visual Studio\2022\Professional\VC\Tools\MSVC\14.44.35207\include\type_traits
; File C:\Program Files\Microsoft Visual Studio\2022\Professional\VC\Tools\MSVC\14.44.35207\include\xtree
;	COMDAT ??$_Find_lower_bound@D@?$_Tree@V?$_Tset_traits@DU?$less@D@std@@V?$allocator@D@2@$0A@@std@@@std@@IBE?AU?$_Tree_find_result@PAU?$_Tree_node@DPAX@std@@@1@ABD@Z
_TEXT	SEGMENT
___$ReturnUdt$ = 8					; size = 4
__Keyval$ = 12						; size = 4
??$_Find_lower_bound@D@?$_Tree@V?$_Tset_traits@DU?$less@D@std@@V?$allocator@D@2@$0A@@std@@@std@@IBE?AU?$_Tree_find_result@PAU?$_Tree_node@DPAX@std@@@1@ABD@Z PROC ; std::_Tree<std::_Tset_traits<char,std::less<char>,std::allocator<char>,0> >::_Find_lower_bound<char>, COMDAT
; _this$ = ecx

; 1628 :     _Tree_find_result<_Nodeptr> _Find_lower_bound(const _Keyty& _Keyval) const {

  00000	55		 push	 ebp
  00001	8b ec		 mov	 ebp, esp

; 1629 :         const auto _Scary = _Get_scary();
; 1630 :         _Tree_find_result<_Nodeptr> _Result{{_Scary->_Myhead->_Parent, _Tree_child::_Right}, _Scary->_Myhead};

  00003	8b 09		 mov	 ecx, DWORD PTR [ecx]
  00005	8b 55 08	 mov	 edx, DWORD PTR ___$ReturnUdt$[ebp]
  00008	8b 41 04	 mov	 eax, DWORD PTR [ecx+4]
  0000b	89 02		 mov	 DWORD PTR [edx], eax
  0000d	c7 42 04 00 00
	00 00		 mov	 DWORD PTR [edx+4], 0
  00014	89 4a 08	 mov	 DWORD PTR [edx+8], ecx

; 1631 :         _Nodeptr _Trynode = _Result._Location._Parent;
; 1632 :         while (!_Trynode->_Isnil) {

  00017	80 78 0d 00	 cmp	 BYTE PTR [eax+13], 0
  0001b	75 28		 jne	 SHORT $LN13@Find_lower
; File C:\Program Files\Microsoft Visual Studio\2022\Professional\VC\Tools\MSVC\14.44.35207\include\type_traits

; 2380 :         return _Left < _Right;

  0001d	8b 4d 0c	 mov	 ecx, DWORD PTR __Keyval$[ebp]
  00020	53		 push	 ebx
  00021	8a 19		 mov	 bl, BYTE PTR [ecx]
$LL2@Find_lower:
; File C:\Program Files\Microsoft Visual Studio\2022\Professional\VC\Tools\MSVC\14.44.35207\include\xtree

; 1633 :             _Result._Location._Parent = _Trynode;

  00023	89 02		 mov	 DWORD PTR [edx], eax
; File C:\Program Files\Microsoft Visual Studio\2022\Professional\VC\Tools\MSVC\14.44.35207\include\type_traits

; 2380 :         return _Left < _Right;

  00025	38 58 0e	 cmp	 BYTE PTR [eax+14], bl
; File C:\Program Files\Microsoft Visual Studio\2022\Professional\VC\Tools\MSVC\14.44.35207\include\xtree

; 1634 :             if (_DEBUG_LT_PRED(_Getcomp(), _Traits::_Kfn(_Trynode->_Myval), _Keyval)) {

  00028	7d 07		 jge	 SHORT $LN4@Find_lower

; 1635 :                 _Result._Location._Child = _Tree_child::_Right;
; 1636 :                 _Trynode                 = _Trynode->_Right;

  0002a	8b 40 08	 mov	 eax, DWORD PTR [eax+8]
  0002d	33 c9		 xor	 ecx, ecx

; 1637 :             } else {

  0002f	eb 0a		 jmp	 SHORT $LN5@Find_lower
$LN4@Find_lower:

; 1638 :                 _Result._Location._Child = _Tree_child::_Left;
; 1639 :                 _Result._Bound           = _Trynode;

  00031	89 42 08	 mov	 DWORD PTR [edx+8], eax

; 1640 :                 _Trynode                 = _Trynode->_Left;

  00034	b9 01 00 00 00	 mov	 ecx, 1
  00039	8b 00		 mov	 eax, DWORD PTR [eax]
$LN5@Find_lower:

; 1631 :         _Nodeptr _Trynode = _Result._Location._Parent;
; 1632 :         while (!_Trynode->_Isnil) {

  0003b	89 4a 04	 mov	 DWORD PTR [edx+4], ecx
  0003e	80 78 0d 00	 cmp	 BYTE PTR [eax+13], 0
  00042	74 df		 je	 SHORT $LL2@Find_lower
  00044	5b		 pop	 ebx
$LN13@Find_lower:

; 1641 :             }
; 1642 :         }
; 1643 : 
; 1644 :         return _Result;
; 1645 :     }

  00045	8b c2		 mov	 eax, edx
  00047	5d		 pop	 ebp
  00048	c2 08 00	 ret	 8
??$_Find_lower_bound@D@?$_Tree@V?$_Tset_traits@DU?$less@D@std@@V?$allocator@D@2@$0A@@std@@@std@@IBE?AU?$_Tree_find_result@PAU?$_Tree_node@DPAX@std@@@1@ABD@Z ENDP ; std::_Tree<std::_Tset_traits<char,std::less<char>,std::allocator<char>,0> >::_Find_lower_bound<char>
_TEXT	ENDS
; Function compile flags: /Ogtp
; File C:\Program Files\Microsoft Visual Studio\2022\Professional\VC\Tools\MSVC\14.44.35207\include\xmemory
;	COMDAT ??1?$_Alloc_construct_ptr@V?$allocator@U?$_Tree_node@V?$basic_string@DU?$char_traits@D@std@@V?$allocator@D@2@@std@@PAX@std@@@std@@@std@@QAE@XZ
_TEXT	SEGMENT
??1?$_Alloc_construct_ptr@V?$allocator@U?$_Tree_node@V?$basic_string@DU?$char_traits@D@std@@V?$allocator@D@2@@std@@PAX@std@@@std@@@std@@QAE@XZ PROC ; std::_Alloc_construct_ptr<std::allocator<std::_Tree_node<std::basic_string<char,std::char_traits<char>,std::allocator<char> >,void *> > >::~_Alloc_construct_ptr<std::allocator<std::_Tree_node<std::basic_string<char,std::char_traits<char>,std::allocator<char> >,void *> > >, COMDAT
; _this$ = ecx

; 1172 :         if (_Ptr) {

  00000	8b 41 04	 mov	 eax, DWORD PTR [ecx+4]
  00003	85 c0		 test	 eax, eax
  00005	74 0b		 je	 SHORT $LN10@Alloc_cons

; 289  :         ::operator delete(_Ptr, _Bytes);

  00007	6a 28		 push	 40			; 00000028H
  00009	50		 push	 eax
  0000a	e8 00 00 00 00	 call	 ??3@YAXPAXI@Z		; operator delete
  0000f	83 c4 08	 add	 esp, 8
$LN10@Alloc_cons:

; 1173 :             _Al.deallocate(_Ptr, 1);
; 1174 :         }
; 1175 :     }

  00012	c3		 ret	 0
??1?$_Alloc_construct_ptr@V?$allocator@U?$_Tree_node@V?$basic_string@DU?$char_traits@D@std@@V?$allocator@D@2@@std@@PAX@std@@@std@@@std@@QAE@XZ ENDP ; std::_Alloc_construct_ptr<std::allocator<std::_Tree_node<std::basic_string<char,std::char_traits<char>,std::allocator<char> >,void *> > >::~_Alloc_construct_ptr<std::allocator<std::_Tree_node<std::basic_string<char,std::char_traits<char>,std::allocator<char> >,void *> > >
_TEXT	ENDS
; Function compile flags: /Ogtp
; File C:\Program Files\Microsoft Visual Studio\2022\Professional\VC\Tools\MSVC\14.44.35207\include\xmemory
;	COMDAT ??1?$_Tree_temp_node_alloc@V?$allocator@U?$_Tree_node@U?$pair@$$CBV?$basic_string@DU?$char_traits@D@std@@V?$allocator@D@2@@std@@K@std@@PAX@std@@@std@@@std@@QAE@XZ
_TEXT	SEGMENT
??1?$_Tree_temp_node_alloc@V?$allocator@U?$_Tree_node@U?$pair@$$CBV?$basic_string@DU?$char_traits@D@std@@V?$allocator@D@2@@std@@K@std@@PAX@std@@@std@@@std@@QAE@XZ PROC ; std::_Tree_temp_node_alloc<std::allocator<std::_Tree_node<std::pair<std::basic_string<char,std::char_traits<char>,std::allocator<char> > const ,unsigned long>,void *> > >::~_Tree_temp_node_alloc<std::allocator<std::_Tree_node<std::pair<std::basic_string<char,std::char_traits<char>,std::allocator<char> > const ,unsigned long>,void *> > >, COMDAT
; _this$ = ecx

; 1172 :         if (_Ptr) {

  00000	8b 41 04	 mov	 eax, DWORD PTR [ecx+4]
  00003	85 c0		 test	 eax, eax
  00005	74 0b		 je	 SHORT $LN13@Tree_temp_

; 289  :         ::operator delete(_Ptr, _Bytes);

  00007	6a 2c		 push	 44			; 0000002cH
  00009	50		 push	 eax
  0000a	e8 00 00 00 00	 call	 ??3@YAXPAXI@Z		; operator delete
  0000f	83 c4 08	 add	 esp, 8
$LN13@Tree_temp_:
  00012	c3		 ret	 0
??1?$_Tree_temp_node_alloc@V?$allocator@U?$_Tree_node@U?$pair@$$CBV?$basic_string@DU?$char_traits@D@std@@V?$allocator@D@2@@std@@K@std@@PAX@std@@@std@@@std@@QAE@XZ ENDP ; std::_Tree_temp_node_alloc<std::allocator<std::_Tree_node<std::pair<std::basic_string<char,std::char_traits<char>,std::allocator<char> > const ,unsigned long>,void *> > >::~_Tree_temp_node_alloc<std::allocator<std::_Tree_node<std::pair<std::basic_string<char,std::char_traits<char>,std::allocator<char> > const ,unsigned long>,void *> > >
_TEXT	ENDS
; Function compile flags: /Ogtp
; File C:\Program Files\Microsoft Visual Studio\2022\Professional\VC\Tools\MSVC\14.44.35207\include\xmemory
;	COMDAT ??1?$_Alloc_construct_ptr@V?$allocator@U?$_Tree_node@U?$pair@$$CBV?$basic_string@DU?$char_traits@D@std@@V?$allocator@D@2@@std@@K@std@@PAX@std@@@std@@@std@@QAE@XZ
_TEXT	SEGMENT
??1?$_Alloc_construct_ptr@V?$allocator@U?$_Tree_node@U?$pair@$$CBV?$basic_string@DU?$char_traits@D@std@@V?$allocator@D@2@@std@@K@std@@PAX@std@@@std@@@std@@QAE@XZ PROC ; std::_Alloc_construct_ptr<std::allocator<std::_Tree_node<std::pair<std::basic_string<char,std::char_traits<char>,std::allocator<char> > const ,unsigned long>,void *> > >::~_Alloc_construct_ptr<std::allocator<std::_Tree_node<std::pair<std::basic_string<char,std::char_traits<char>,std::allocator<char> > const ,unsigned long>,void *> > >, COMDAT
; _this$ = ecx

; 1172 :         if (_Ptr) {

  00000	8b 41 04	 mov	 eax, DWORD PTR [ecx+4]
  00003	85 c0		 test	 eax, eax
  00005	74 0b		 je	 SHORT $LN10@Alloc_cons

; 289  :         ::operator delete(_Ptr, _Bytes);

  00007	6a 2c		 push	 44			; 0000002cH
  00009	50		 push	 eax
  0000a	e8 00 00 00 00	 call	 ??3@YAXPAXI@Z		; operator delete
  0000f	83 c4 08	 add	 esp, 8
$LN10@Alloc_cons:

; 1173 :             _Al.deallocate(_Ptr, 1);
; 1174 :         }
; 1175 :     }

  00012	c3		 ret	 0
??1?$_Alloc_construct_ptr@V?$allocator@U?$_Tree_node@U?$pair@$$CBV?$basic_string@DU?$char_traits@D@std@@V?$allocator@D@2@@std@@K@std@@PAX@std@@@std@@@std@@QAE@XZ ENDP ; std::_Alloc_construct_ptr<std::allocator<std::_Tree_node<std::pair<std::basic_string<char,std::char_traits<char>,std::allocator<char> > const ,unsigned long>,void *> > >::~_Alloc_construct_ptr<std::allocator<std::_Tree_node<std::pair<std::basic_string<char,std::char_traits<char>,std::allocator<char> > const ,unsigned long>,void *> > >
_TEXT	ENDS
; Function compile flags: /Ogtp
; File C:\Program Files\Microsoft Visual Studio\2022\Professional\VC\Tools\MSVC\14.44.35207\include\xmemory
;	COMDAT ??1?$_Alloc_construct_ptr@V?$allocator@U?$_Tree_node@HPAX@std@@@std@@@std@@QAE@XZ
_TEXT	SEGMENT
??1?$_Alloc_construct_ptr@V?$allocator@U?$_Tree_node@HPAX@std@@@std@@@std@@QAE@XZ PROC ; std::_Alloc_construct_ptr<std::allocator<std::_Tree_node<int,void *> > >::~_Alloc_construct_ptr<std::allocator<std::_Tree_node<int,void *> > >, COMDAT
; _this$ = ecx

; 1172 :         if (_Ptr) {

  00000	8b 41 04	 mov	 eax, DWORD PTR [ecx+4]
  00003	85 c0		 test	 eax, eax
  00005	74 0b		 je	 SHORT $LN10@Alloc_cons

; 289  :         ::operator delete(_Ptr, _Bytes);

  00007	6a 14		 push	 20			; 00000014H
  00009	50		 push	 eax
  0000a	e8 00 00 00 00	 call	 ??3@YAXPAXI@Z		; operator delete
  0000f	83 c4 08	 add	 esp, 8
$LN10@Alloc_cons:

; 1173 :             _Al.deallocate(_Ptr, 1);
; 1174 :         }
; 1175 :     }

  00012	c3		 ret	 0
??1?$_Alloc_construct_ptr@V?$allocator@U?$_Tree_node@HPAX@std@@@std@@@std@@QAE@XZ ENDP ; std::_Alloc_construct_ptr<std::allocator<std::_Tree_node<int,void *> > >::~_Alloc_construct_ptr<std::allocator<std::_Tree_node<int,void *> > >
_TEXT	ENDS
; Function compile flags: /Ogtp
;	COMDAT ??1?$set@HU?$less@H@std@@V?$allocator@H@2@@std@@QAE@XZ
_TEXT	SEGMENT
??1?$set@HU?$less@H@std@@V?$allocator@H@2@@std@@QAE@XZ PROC ; std::set<int,std::less<int>,std::allocator<int> >::~set<int,std::less<int>,std::allocator<int> >, COMDAT
; _this$ = ecx
  00000	e9 00 00 00 00	 jmp	 ??1?$_Tree@V?$_Tset_traits@HU?$less@H@std@@V?$allocator@H@2@$0A@@std@@@std@@QAE@XZ ; std::_Tree<std::_Tset_traits<int,std::less<int>,std::allocator<int>,0> >::~_Tree<std::_Tset_traits<int,std::less<int>,std::allocator<int>,0> >
??1?$set@HU?$less@H@std@@V?$allocator@H@2@@std@@QAE@XZ ENDP ; std::set<int,std::less<int>,std::allocator<int> >::~set<int,std::less<int>,std::allocator<int> >
_TEXT	ENDS
; Function compile flags: /Ogtp
; File C:\Program Files\Microsoft Visual Studio\2022\Professional\VC\Tools\MSVC\14.44.35207\include\xtree
;	COMDAT ?_Insert_node@?$_Tree_val@U?$_Tree_simple_types@H@std@@@std@@QAEPAU?$_Tree_node@HPAX@2@U?$_Tree_id@PAU?$_Tree_node@HPAX@std@@@2@QAU32@@Z
_TEXT	SEGMENT
__Head$1$ = -4						; size = 4
__Loc$ = 8						; size = 8
__Newnode$ = 16						; size = 4
?_Insert_node@?$_Tree_val@U?$_Tree_simple_types@H@std@@@std@@QAEPAU?$_Tree_node@HPAX@2@U?$_Tree_id@PAU?$_Tree_node@HPAX@std@@@2@QAU32@@Z PROC ; std::_Tree_val<std::_Tree_simple_types<int> >::_Insert_node, COMDAT
; _this$ = ecx

; 669  :     _Nodeptr _Insert_node(const _Tree_id<_Nodeptr> _Loc, const _Nodeptr _Newnode) noexcept {

  00000	55		 push	 ebp
  00001	8b ec		 mov	 ebp, esp
  00003	51		 push	 ecx

; 670  :         ++_Mysize;
; 671  :         const auto _Head  = _Myhead;
; 672  :         _Newnode->_Parent = _Loc._Parent;

  00004	8b 55 08	 mov	 edx, DWORD PTR __Loc$[ebp]
  00007	53		 push	 ebx
  00008	8b d9		 mov	 ebx, ecx
  0000a	57		 push	 edi
  0000b	8b 7d 10	 mov	 edi, DWORD PTR __Newnode$[ebp]
  0000e	8b 03		 mov	 eax, DWORD PTR [ebx]
  00010	ff 43 04	 inc	 DWORD PTR [ebx+4]
  00013	89 45 fc	 mov	 DWORD PTR __Head$1$[ebp], eax
  00016	89 57 04	 mov	 DWORD PTR [edi+4], edx

; 673  :         if (_Loc._Parent == _Head) { // first node in tree, just set head values

  00019	3b d0		 cmp	 edx, eax
  0001b	75 16		 jne	 SHORT $LN5@Insert_nod

; 674  :             _Head->_Left     = _Newnode;

  0001d	89 38		 mov	 DWORD PTR [eax], edi

; 675  :             _Head->_Parent   = _Newnode;

  0001f	89 78 04	 mov	 DWORD PTR [eax+4], edi

; 676  :             _Head->_Right    = _Newnode;

  00022	89 78 08	 mov	 DWORD PTR [eax+8], edi

; 735  :         return _Newnode;
; 736  :     }

  00025	8b c7		 mov	 eax, edi
  00027	c6 47 0c 01	 mov	 BYTE PTR [edi+12], 1
  0002b	5f		 pop	 edi
  0002c	5b		 pop	 ebx
  0002d	8b e5		 mov	 esp, ebp
  0002f	5d		 pop	 ebp
  00030	c2 0c 00	 ret	 12			; 0000000cH
$LN5@Insert_nod:

; 677  :             _Newnode->_Color = _Black; // the root is black
; 678  :             return _Newnode;
; 679  :         }
; 680  : 
; 681  :         _STL_INTERNAL_CHECK(_Loc._Child != _Tree_child::_Unused);
; 682  :         if (_Loc._Child == _Tree_child::_Right) { // add to right of _Loc._Parent

  00033	83 7d 0c 00	 cmp	 DWORD PTR __Loc$[ebp+4], 0
  00037	75 0d		 jne	 SHORT $LN6@Insert_nod

; 683  :             _STL_INTERNAL_CHECK(_Loc._Parent->_Right->_Isnil);
; 684  :             _Loc._Parent->_Right = _Newnode;

  00039	89 7a 08	 mov	 DWORD PTR [edx+8], edi

; 685  :             if (_Loc._Parent == _Head->_Right) { // remember rightmost node

  0003c	3b 50 08	 cmp	 edx, DWORD PTR [eax+8]
  0003f	75 0d		 jne	 SHORT $LN9@Insert_nod

; 686  :                 _Head->_Right = _Newnode;

  00041	89 78 08	 mov	 DWORD PTR [eax+8], edi

; 687  :             }
; 688  :         } else { // add to left of _Loc._Parent

  00044	eb 08		 jmp	 SHORT $LN9@Insert_nod
$LN6@Insert_nod:

; 689  :             _STL_INTERNAL_CHECK(_Loc._Parent->_Left->_Isnil);
; 690  :             _Loc._Parent->_Left = _Newnode;

  00046	89 3a		 mov	 DWORD PTR [edx], edi

; 691  :             if (_Loc._Parent == _Head->_Left) { // remember leftmost node

  00048	3b 10		 cmp	 edx, DWORD PTR [eax]
  0004a	75 02		 jne	 SHORT $LN9@Insert_nod

; 692  :                 _Head->_Left = _Newnode;

  0004c	89 38		 mov	 DWORD PTR [eax], edi
$LN9@Insert_nod:

; 693  :             }
; 694  :         }
; 695  : 
; 696  :         for (_Nodeptr _Pnode = _Newnode; _Pnode->_Parent->_Color == _Red;) {

  0004e	8b 4f 04	 mov	 ecx, DWORD PTR [edi+4]
  00051	8b c7		 mov	 eax, edi
  00053	80 79 0c 00	 cmp	 BYTE PTR [ecx+12], 0
  00057	0f 85 7d 01 00
	00		 jne	 $LN3@Insert_nod
  0005d	56		 push	 esi
  0005e	66 90		 npad	 2
$LL4@Insert_nod:

; 697  :             if (_Pnode->_Parent == _Pnode->_Parent->_Parent->_Left) { // fixup red-red in left subtree

  00060	8b 50 04	 mov	 edx, DWORD PTR [eax+4]
  00063	8b 72 04	 mov	 esi, DWORD PTR [edx+4]
  00066	8b 0e		 mov	 ecx, DWORD PTR [esi]
  00068	3b d1		 cmp	 edx, ecx
  0006a	0f 85 aa 00 00
	00		 jne	 $LN10@Insert_nod

; 698  :                 const auto _Parent_sibling = _Pnode->_Parent->_Parent->_Right;

  00070	8b 4e 08	 mov	 ecx, DWORD PTR [esi+8]

; 699  :                 if (_Parent_sibling->_Color == _Red) { // parent's sibling has two red children, blacken both

  00073	80 79 0c 00	 cmp	 BYTE PTR [ecx+12], 0
  00077	0f 84 a3 00 00
	00		 je	 $LN82@Insert_nod

; 700  :                     _Pnode->_Parent->_Color          = _Black;
; 701  :                     _Parent_sibling->_Color          = _Black;
; 702  :                     _Pnode->_Parent->_Parent->_Color = _Red;
; 703  :                     _Pnode                           = _Pnode->_Parent->_Parent;
; 704  :                 } else { // parent's sibling has red and black children
; 705  :                     if (_Pnode == _Pnode->_Parent->_Right) { // rotate right child to left

  0007d	8b 72 08	 mov	 esi, DWORD PTR [edx+8]
  00080	3b c6		 cmp	 eax, esi
  00082	75 37		 jne	 SHORT $LN57@Insert_nod

; 485  :         _Wherenode->_Right = _Pnode->_Left;

  00084	8b 0e		 mov	 ecx, DWORD PTR [esi]

; 706  :                         _Pnode = _Pnode->_Parent;

  00086	8b c2		 mov	 eax, edx

; 485  :         _Wherenode->_Right = _Pnode->_Left;

  00088	89 4a 08	 mov	 DWORD PTR [edx+8], ecx

; 486  : 
; 487  :         if (!_Pnode->_Left->_Isnil) {

  0008b	8b 0e		 mov	 ecx, DWORD PTR [esi]
  0008d	80 79 0d 00	 cmp	 BYTE PTR [ecx+13], 0
  00091	75 03		 jne	 SHORT $LN21@Insert_nod

; 488  :             _Pnode->_Left->_Parent = _Wherenode;

  00093	89 41 04	 mov	 DWORD PTR [ecx+4], eax
$LN21@Insert_nod:

; 489  :         }
; 490  : 
; 491  :         _Pnode->_Parent = _Wherenode->_Parent;

  00096	8b 4a 04	 mov	 ecx, DWORD PTR [edx+4]
  00099	89 4e 04	 mov	 DWORD PTR [esi+4], ecx

; 492  : 
; 493  :         if (_Wherenode == _Myhead->_Parent) {

  0009c	8b 0b		 mov	 ecx, DWORD PTR [ebx]
  0009e	3b 41 04	 cmp	 eax, DWORD PTR [ecx+4]
  000a1	75 05		 jne	 SHORT $LN22@Insert_nod

; 494  :             _Myhead->_Parent = _Pnode;

  000a3	89 71 04	 mov	 DWORD PTR [ecx+4], esi
  000a6	eb 0e		 jmp	 SHORT $LN25@Insert_nod
$LN22@Insert_nod:

; 495  :         } else if (_Wherenode == _Wherenode->_Parent->_Left) {

  000a8	8b 4a 04	 mov	 ecx, DWORD PTR [edx+4]
  000ab	3b 01		 cmp	 eax, DWORD PTR [ecx]
  000ad	75 04		 jne	 SHORT $LN24@Insert_nod

; 496  :             _Wherenode->_Parent->_Left = _Pnode;

  000af	89 31		 mov	 DWORD PTR [ecx], esi

; 497  :         } else {

  000b1	eb 03		 jmp	 SHORT $LN25@Insert_nod
$LN24@Insert_nod:

; 498  :             _Wherenode->_Parent->_Right = _Pnode;

  000b3	89 71 08	 mov	 DWORD PTR [ecx+8], esi
$LN25@Insert_nod:

; 499  :         }
; 500  : 
; 501  :         _Pnode->_Left       = _Wherenode;

  000b6	89 06		 mov	 DWORD PTR [esi], eax

; 502  :         _Wherenode->_Parent = _Pnode;

  000b8	89 70 04	 mov	 DWORD PTR [eax+4], esi
$LN57@Insert_nod:

; 707  :                         _Lrotate(_Pnode);
; 708  :                     }
; 709  : 
; 710  :                     _Pnode->_Parent->_Color          = _Black; // propagate red up

  000bb	8b 48 04	 mov	 ecx, DWORD PTR [eax+4]
  000be	c6 41 0c 01	 mov	 BYTE PTR [ecx+12], 1

; 711  :                     _Pnode->_Parent->_Parent->_Color = _Red;

  000c2	8b 48 04	 mov	 ecx, DWORD PTR [eax+4]
  000c5	8b 49 04	 mov	 ecx, DWORD PTR [ecx+4]
  000c8	c6 41 0c 00	 mov	 BYTE PTR [ecx+12], 0

; 712  :                     _Rrotate(_Pnode->_Parent->_Parent);

  000cc	8b 48 04	 mov	 ecx, DWORD PTR [eax+4]
  000cf	8b 51 04	 mov	 edx, DWORD PTR [ecx+4]

; 506  :         _Nodeptr _Pnode   = _Wherenode->_Left;

  000d2	8b 32		 mov	 esi, DWORD PTR [edx]

; 507  :         _Wherenode->_Left = _Pnode->_Right;

  000d4	8b 4e 08	 mov	 ecx, DWORD PTR [esi+8]
  000d7	89 0a		 mov	 DWORD PTR [edx], ecx

; 508  : 
; 509  :         if (!_Pnode->_Right->_Isnil) {

  000d9	8b 4e 08	 mov	 ecx, DWORD PTR [esi+8]
  000dc	80 79 0d 00	 cmp	 BYTE PTR [ecx+13], 0
  000e0	75 03		 jne	 SHORT $LN29@Insert_nod

; 510  :             _Pnode->_Right->_Parent = _Wherenode;

  000e2	89 51 04	 mov	 DWORD PTR [ecx+4], edx
$LN29@Insert_nod:

; 511  :         }
; 512  : 
; 513  :         _Pnode->_Parent = _Wherenode->_Parent;

  000e5	8b 4a 04	 mov	 ecx, DWORD PTR [edx+4]
  000e8	89 4e 04	 mov	 DWORD PTR [esi+4], ecx

; 514  : 
; 515  :         if (_Wherenode == _Myhead->_Parent) {

  000eb	8b 0b		 mov	 ecx, DWORD PTR [ebx]
  000ed	3b 51 04	 cmp	 edx, DWORD PTR [ecx+4]
  000f0	75 0b		 jne	 SHORT $LN30@Insert_nod

; 516  :             _Myhead->_Parent = _Pnode;

  000f2	89 71 04	 mov	 DWORD PTR [ecx+4], esi

; 521  :         }
; 522  : 
; 523  :         _Pnode->_Right      = _Wherenode;

  000f5	89 56 08	 mov	 DWORD PTR [esi+8], edx

; 713  :                 }
; 714  :             } else { // fixup red-red in right subtree

  000f8	e9 cc 00 00 00	 jmp	 $LN81@Insert_nod
$LN30@Insert_nod:

; 517  :         } else if (_Wherenode == _Wherenode->_Parent->_Right) {

  000fd	8b 4a 04	 mov	 ecx, DWORD PTR [edx+4]
  00100	3b 51 08	 cmp	 edx, DWORD PTR [ecx+8]
  00103	75 0b		 jne	 SHORT $LN32@Insert_nod

; 518  :             _Wherenode->_Parent->_Right = _Pnode;

  00105	89 71 08	 mov	 DWORD PTR [ecx+8], esi

; 521  :         }
; 522  : 
; 523  :         _Pnode->_Right      = _Wherenode;

  00108	89 56 08	 mov	 DWORD PTR [esi+8], edx

; 713  :                 }
; 714  :             } else { // fixup red-red in right subtree

  0010b	e9 b9 00 00 00	 jmp	 $LN81@Insert_nod
$LN32@Insert_nod:

; 520  :             _Wherenode->_Parent->_Left = _Pnode;

  00110	89 31		 mov	 DWORD PTR [ecx], esi

; 521  :         }
; 522  : 
; 523  :         _Pnode->_Right      = _Wherenode;

  00112	89 56 08	 mov	 DWORD PTR [esi+8], edx

; 713  :                 }
; 714  :             } else { // fixup red-red in right subtree

  00115	e9 af 00 00 00	 jmp	 $LN81@Insert_nod
$LN10@Insert_nod:

; 715  :                 const auto _Parent_sibling = _Pnode->_Parent->_Parent->_Left;
; 716  :                 if (_Parent_sibling->_Color == _Red) { // parent's sibling has two red children, blacken both

  0011a	80 79 0c 00	 cmp	 BYTE PTR [ecx+12], 0
  0011e	75 1d		 jne	 SHORT $LN15@Insert_nod
$LN82@Insert_nod:

; 693  :             }
; 694  :         }
; 695  : 
; 696  :         for (_Nodeptr _Pnode = _Newnode; _Pnode->_Parent->_Color == _Red;) {

  00120	c6 42 0c 01	 mov	 BYTE PTR [edx+12], 1
  00124	c6 41 0c 01	 mov	 BYTE PTR [ecx+12], 1
  00128	8b 48 04	 mov	 ecx, DWORD PTR [eax+4]
  0012b	8b 49 04	 mov	 ecx, DWORD PTR [ecx+4]
  0012e	c6 41 0c 00	 mov	 BYTE PTR [ecx+12], 0
  00132	8b 48 04	 mov	 ecx, DWORD PTR [eax+4]
  00135	8b 41 04	 mov	 eax, DWORD PTR [ecx+4]
  00138	e9 8f 00 00 00	 jmp	 $LN2@Insert_nod
$LN15@Insert_nod:

; 717  :                     _Pnode->_Parent->_Color          = _Black;
; 718  :                     _Parent_sibling->_Color          = _Black;
; 719  :                     _Pnode->_Parent->_Parent->_Color = _Red;
; 720  :                     _Pnode                           = _Pnode->_Parent->_Parent;
; 721  :                 } else { // parent's sibling has red and black children
; 722  :                     if (_Pnode == _Pnode->_Parent->_Left) { // rotate left child to right

  0013d	8b 32		 mov	 esi, DWORD PTR [edx]
  0013f	3b c6		 cmp	 eax, esi
  00141	75 3a		 jne	 SHORT $LN42@Insert_nod

; 507  :         _Wherenode->_Left = _Pnode->_Right;

  00143	8b 4e 08	 mov	 ecx, DWORD PTR [esi+8]

; 723  :                         _Pnode = _Pnode->_Parent;

  00146	8b c2		 mov	 eax, edx

; 507  :         _Wherenode->_Left = _Pnode->_Right;

  00148	89 08		 mov	 DWORD PTR [eax], ecx

; 508  : 
; 509  :         if (!_Pnode->_Right->_Isnil) {

  0014a	8b 4e 08	 mov	 ecx, DWORD PTR [esi+8]
  0014d	80 79 0d 00	 cmp	 BYTE PTR [ecx+13], 0
  00151	75 03		 jne	 SHORT $LN37@Insert_nod

; 510  :             _Pnode->_Right->_Parent = _Wherenode;

  00153	89 41 04	 mov	 DWORD PTR [ecx+4], eax
$LN37@Insert_nod:

; 511  :         }
; 512  : 
; 513  :         _Pnode->_Parent = _Wherenode->_Parent;

  00156	8b 4a 04	 mov	 ecx, DWORD PTR [edx+4]
  00159	89 4e 04	 mov	 DWORD PTR [esi+4], ecx

; 514  : 
; 515  :         if (_Wherenode == _Myhead->_Parent) {

  0015c	8b 0b		 mov	 ecx, DWORD PTR [ebx]
  0015e	3b 41 04	 cmp	 eax, DWORD PTR [ecx+4]
  00161	75 05		 jne	 SHORT $LN38@Insert_nod

; 516  :             _Myhead->_Parent = _Pnode;

  00163	89 71 04	 mov	 DWORD PTR [ecx+4], esi
  00166	eb 0f		 jmp	 SHORT $LN41@Insert_nod
$LN38@Insert_nod:

; 517  :         } else if (_Wherenode == _Wherenode->_Parent->_Right) {

  00168	8b 4a 04	 mov	 ecx, DWORD PTR [edx+4]
  0016b	3b 41 08	 cmp	 eax, DWORD PTR [ecx+8]
  0016e	75 05		 jne	 SHORT $LN40@Insert_nod

; 518  :             _Wherenode->_Parent->_Right = _Pnode;

  00170	89 71 08	 mov	 DWORD PTR [ecx+8], esi

; 519  :         } else {

  00173	eb 02		 jmp	 SHORT $LN41@Insert_nod
$LN40@Insert_nod:

; 520  :             _Wherenode->_Parent->_Left = _Pnode;

  00175	89 31		 mov	 DWORD PTR [ecx], esi
$LN41@Insert_nod:

; 521  :         }
; 522  : 
; 523  :         _Pnode->_Right      = _Wherenode;

  00177	89 46 08	 mov	 DWORD PTR [esi+8], eax

; 524  :         _Wherenode->_Parent = _Pnode;

  0017a	89 70 04	 mov	 DWORD PTR [eax+4], esi
$LN42@Insert_nod:

; 724  :                         _Rrotate(_Pnode);
; 725  :                     }
; 726  : 
; 727  :                     _Pnode->_Parent->_Color          = _Black; // propagate red up

  0017d	8b 48 04	 mov	 ecx, DWORD PTR [eax+4]
  00180	c6 41 0c 01	 mov	 BYTE PTR [ecx+12], 1

; 728  :                     _Pnode->_Parent->_Parent->_Color = _Red;

  00184	8b 48 04	 mov	 ecx, DWORD PTR [eax+4]
  00187	8b 49 04	 mov	 ecx, DWORD PTR [ecx+4]
  0018a	c6 41 0c 00	 mov	 BYTE PTR [ecx+12], 0

; 729  :                     _Lrotate(_Pnode->_Parent->_Parent);

  0018e	8b 48 04	 mov	 ecx, DWORD PTR [eax+4]
  00191	8b 51 04	 mov	 edx, DWORD PTR [ecx+4]

; 484  :         _Nodeptr _Pnode    = _Wherenode->_Right;

  00194	8b 72 08	 mov	 esi, DWORD PTR [edx+8]

; 485  :         _Wherenode->_Right = _Pnode->_Left;

  00197	8b 0e		 mov	 ecx, DWORD PTR [esi]
  00199	89 4a 08	 mov	 DWORD PTR [edx+8], ecx

; 486  : 
; 487  :         if (!_Pnode->_Left->_Isnil) {

  0019c	8b 0e		 mov	 ecx, DWORD PTR [esi]
  0019e	80 79 0d 00	 cmp	 BYTE PTR [ecx+13], 0
  001a2	75 03		 jne	 SHORT $LN45@Insert_nod

; 488  :             _Pnode->_Left->_Parent = _Wherenode;

  001a4	89 51 04	 mov	 DWORD PTR [ecx+4], edx
$LN45@Insert_nod:

; 489  :         }
; 490  : 
; 491  :         _Pnode->_Parent = _Wherenode->_Parent;

  001a7	8b 4a 04	 mov	 ecx, DWORD PTR [edx+4]
  001aa	89 4e 04	 mov	 DWORD PTR [esi+4], ecx

; 492  : 
; 493  :         if (_Wherenode == _Myhead->_Parent) {

  001ad	8b 0b		 mov	 ecx, DWORD PTR [ebx]
  001af	3b 51 04	 cmp	 edx, DWORD PTR [ecx+4]
  001b2	75 05		 jne	 SHORT $LN46@Insert_nod

; 494  :             _Myhead->_Parent = _Pnode;

  001b4	89 71 04	 mov	 DWORD PTR [ecx+4], esi
  001b7	eb 0e		 jmp	 SHORT $LN49@Insert_nod
$LN46@Insert_nod:

; 495  :         } else if (_Wherenode == _Wherenode->_Parent->_Left) {

  001b9	8b 4a 04	 mov	 ecx, DWORD PTR [edx+4]
  001bc	3b 11		 cmp	 edx, DWORD PTR [ecx]
  001be	75 04		 jne	 SHORT $LN48@Insert_nod

; 496  :             _Wherenode->_Parent->_Left = _Pnode;

  001c0	89 31		 mov	 DWORD PTR [ecx], esi

; 497  :         } else {

  001c2	eb 03		 jmp	 SHORT $LN49@Insert_nod
$LN48@Insert_nod:

; 498  :             _Wherenode->_Parent->_Right = _Pnode;

  001c4	89 71 08	 mov	 DWORD PTR [ecx+8], esi
$LN49@Insert_nod:

; 499  :         }
; 500  : 
; 501  :         _Pnode->_Left       = _Wherenode;

  001c7	89 16		 mov	 DWORD PTR [esi], edx
$LN81@Insert_nod:

; 693  :             }
; 694  :         }
; 695  : 
; 696  :         for (_Nodeptr _Pnode = _Newnode; _Pnode->_Parent->_Color == _Red;) {

  001c9	89 72 04	 mov	 DWORD PTR [edx+4], esi
$LN2@Insert_nod:
  001cc	8b 48 04	 mov	 ecx, DWORD PTR [eax+4]
  001cf	80 79 0c 00	 cmp	 BYTE PTR [ecx+12], 0
  001d3	0f 84 87 fe ff
	ff		 je	 $LL4@Insert_nod
  001d9	5e		 pop	 esi
$LN3@Insert_nod:

; 730  :                 }
; 731  :             }
; 732  :         }
; 733  : 
; 734  :         _Head->_Parent->_Color = _Black; // root is always black

  001da	8b 45 fc	 mov	 eax, DWORD PTR __Head$1$[ebp]
  001dd	8b 40 04	 mov	 eax, DWORD PTR [eax+4]
  001e0	c6 40 0c 01	 mov	 BYTE PTR [eax+12], 1

; 735  :         return _Newnode;
; 736  :     }

  001e4	8b c7		 mov	 eax, edi
  001e6	5f		 pop	 edi
  001e7	5b		 pop	 ebx
  001e8	8b e5		 mov	 esp, ebp
  001ea	5d		 pop	 ebp
  001eb	c2 0c 00	 ret	 12			; 0000000cH
?_Insert_node@?$_Tree_val@U?$_Tree_simple_types@H@std@@@std@@QAEPAU?$_Tree_node@HPAX@2@U?$_Tree_id@PAU?$_Tree_node@HPAX@std@@@2@QAU32@@Z ENDP ; std::_Tree_val<std::_Tree_simple_types<int> >::_Insert_node
_TEXT	ENDS
; Function compile flags: /Ogtp
; File C:\Program Files\Microsoft Visual Studio\2022\Professional\VC\Tools\MSVC\14.44.35207\include\xtree
; File C:\Program Files\Microsoft Visual Studio\2022\Professional\VC\Tools\MSVC\14.44.35207\include\utility
; File C:\Program Files\Microsoft Visual Studio\2022\Professional\VC\Tools\MSVC\14.44.35207\include\xmemory
; File C:\Program Files\Microsoft Visual Studio\2022\Professional\VC\Tools\MSVC\14.44.35207\include\xtree
; File C:\Program Files\Microsoft Visual Studio\2022\Professional\VC\Tools\MSVC\14.44.35207\include\xmemory
; File C:\Program Files\Microsoft Visual Studio\2022\Professional\VC\Tools\MSVC\14.44.35207\include\xtree
;	COMDAT ??1?$_Tree@V?$_Tset_traits@HU?$less@H@std@@V?$allocator@H@2@$0A@@std@@@std@@QAE@XZ
_TEXT	SEGMENT
??1?$_Tree@V?$_Tset_traits@HU?$less@H@std@@V?$allocator@H@2@$0A@@std@@@std@@QAE@XZ PROC ; std::_Tree<std::_Tset_traits<int,std::less<int>,std::allocator<int>,0> >::~_Tree<std::_Tset_traits<int,std::less<int>,std::allocator<int>,0> >, COMDAT
; _this$ = ecx

; 1095 :     ~_Tree() noexcept {

  00000	56		 push	 esi
  00001	57		 push	 edi
  00002	8b f9		 mov	 edi, ecx

; 777  :         _Erase_tree(_Al, _Myhead->_Parent);

  00004	8b 37		 mov	 esi, DWORD PTR [edi]
  00006	8b 76 04	 mov	 esi, DWORD PTR [esi+4]

; 768  :         while (!_Rootnode->_Isnil) { // free subtrees, then node

  00009	80 7e 0d 00	 cmp	 BYTE PTR [esi+13], 0
  0000d	75 21		 jne	 SHORT $LN61@Tree
  0000f	90		 npad	 1
$LL8@Tree:

; 769  :             _Erase_tree(_Al, _Rootnode->_Right);

  00010	ff 76 08	 push	 DWORD PTR [esi+8]
  00013	8b cf		 mov	 ecx, edi
  00015	57		 push	 edi
  00016	e8 00 00 00 00	 call	 ??$_Erase_tree@V?$allocator@U?$_Tree_node@HPAX@std@@@std@@@?$_Tree_val@U?$_Tree_simple_types@H@std@@@std@@QAEXAAV?$allocator@U?$_Tree_node@HPAX@std@@@1@PAU?$_Tree_node@HPAX@1@@Z ; std::_Tree_val<std::_Tree_simple_types<int> >::_Erase_tree<std::allocator<std::_Tree_node<int,void *> > >
; File C:\Program Files\Microsoft Visual Studio\2022\Professional\VC\Tools\MSVC\14.44.35207\include\utility

; 773  :     _Ty _Old_val = static_cast<_Ty&&>(_Val);

  0001b	8b c6		 mov	 eax, esi

; 774  :     _Val         = static_cast<_Other&&>(_New_val);

  0001d	8b 36		 mov	 esi, DWORD PTR [esi]
; File C:\Program Files\Microsoft Visual Studio\2022\Professional\VC\Tools\MSVC\14.44.35207\include\xmemory

; 289  :         ::operator delete(_Ptr, _Bytes);

  0001f	6a 14		 push	 20			; 00000014H
  00021	50		 push	 eax
  00022	e8 00 00 00 00	 call	 ??3@YAXPAXI@Z		; operator delete
  00027	83 c4 08	 add	 esp, 8
; File C:\Program Files\Microsoft Visual Studio\2022\Professional\VC\Tools\MSVC\14.44.35207\include\xtree

; 768  :         while (!_Rootnode->_Isnil) { // free subtrees, then node

  0002a	80 7e 0d 00	 cmp	 BYTE PTR [esi+13], 0
  0002e	74 e0		 je	 SHORT $LL8@Tree
$LN61@Tree:
; File C:\Program Files\Microsoft Visual Studio\2022\Professional\VC\Tools\MSVC\14.44.35207\include\xmemory

; 289  :         ::operator delete(_Ptr, _Bytes);

  00030	6a 14		 push	 20			; 00000014H
  00032	ff 37		 push	 DWORD PTR [edi]
  00034	e8 00 00 00 00	 call	 ??3@YAXPAXI@Z		; operator delete
  00039	83 c4 08	 add	 esp, 8
  0003c	5f		 pop	 edi
  0003d	5e		 pop	 esi
; File C:\Program Files\Microsoft Visual Studio\2022\Professional\VC\Tools\MSVC\14.44.35207\include\xtree

; 1102 :     }

  0003e	c3		 ret	 0
??1?$_Tree@V?$_Tset_traits@HU?$less@H@std@@V?$allocator@H@2@$0A@@std@@@std@@QAE@XZ ENDP ; std::_Tree<std::_Tset_traits<int,std::less<int>,std::allocator<int>,0> >::~_Tree<std::_Tset_traits<int,std::less<int>,std::allocator<int>,0> >
_TEXT	ENDS
; Function compile flags: /Ogtp
; File C:\IAGOS\server\v18\Source\Source\_Common\ProjectCmn.cpp
; File C:\Program Files\Microsoft Visual Studio\2022\Professional\VC\Tools\MSVC\14.44.35207\atlmfc\include\afxstr.h
; File C:\Program Files\Microsoft Visual Studio\2022\Professional\VC\Tools\MSVC\14.44.35207\atlmfc\include\atlsimpstr.h
; File C:\Program Files\Microsoft Visual Studio\2022\Professional\VC\Tools\MSVC\14.44.35207\atlmfc\include\cstringt.h
; File C:\Program Files\Microsoft Visual Studio\2022\Professional\VC\Tools\MSVC\14.44.35207\atlmfc\include\atlsimpstr.h
; File C:\IAGOS\server\v18\Source\Source\_Common\ProjectCmn.cpp
; File C:\Program Files\Microsoft Visual Studio\2022\Professional\VC\Tools\MSVC\14.44.35207\atlmfc\include\atlsimpstr.h
; File C:\IAGOS\server\v18\Source\Source\_Common\ProjectCmn.cpp
; File C:\Program Files\Microsoft Visual Studio\2022\Professional\VC\Tools\MSVC\14.44.35207\atlmfc\include\atlsimpstr.h
; File C:\IAGOS\server\v18\Source\Source\_Common\ProjectCmn.cpp
; File C:\Program Files\Microsoft Visual Studio\2022\Professional\VC\Tools\MSVC\14.44.35207\atlmfc\include\atlsimpstr.h
; File C:\IAGOS\server\v18\Source\Source\_Common\ProjectCmn.cpp
;	COMDAT ?GetLangFileName@@YA?AV?$CStringT@DV?$StrTraitMFC@DV?$ChTraitsCRT@D@ATL@@@@@ATL@@HH@Z
_TEXT	SEGMENT
_file$ = -80						; size = 64
$T2 = -16						; size = 4
__$EHRec$ = -12						; size = 12
___$ReturnUdt$ = 8					; size = 4
_nLang$ = 12						; size = 4
_nType$ = 16						; size = 4
$T3 = 16						; size = 4
?GetLangFileName@@YA?AV?$CStringT@DV?$StrTraitMFC@DV?$ChTraitsCRT@D@ATL@@@@@ATL@@HH@Z PROC ; GetLangFileName, COMDAT

; 12   : {

  00000	55		 push	 ebp
  00001	8b ec		 mov	 ebp, esp
  00003	6a ff		 push	 -1
  00005	68 00 00 00 00	 push	 __ehhandler$?GetLangFileName@@YA?AV?$CStringT@DV?$StrTraitMFC@DV?$ChTraitsCRT@D@ATL@@@@@ATL@@HH@Z
  0000a	64 a1 00 00 00
	00		 mov	 eax, DWORD PTR fs:0
  00010	50		 push	 eax
  00011	83 ec 44	 sub	 esp, 68			; 00000044H
  00014	56		 push	 esi
  00015	57		 push	 edi
  00016	a1 00 00 00 00	 mov	 eax, DWORD PTR ___security_cookie
  0001b	33 c5		 xor	 eax, ebp
  0001d	50		 push	 eax
  0001e	8d 45 f4	 lea	 eax, DWORD PTR __$EHRec$[ebp]
  00021	64 a3 00 00 00
	00		 mov	 DWORD PTR fs:0, eax
  00027	c7 45 f0 00 00
	00 00		 mov	 DWORD PTR $T2[ebp], 0

; 13   : 	char* file[] =
; 14   : 		{ "Filter", "InvalidName", "Notice", "GuildCombatTEXT_1", "GuildCombatTEXT_2", "GuildCombatTEXT_3", "GuildCombatTEXT_4", "GuildCombatTEXT_5", "GuildCombatTEXT_6" 
; 15   : #ifdef __RULE_0615
; 16   : 			,"Letter"
; 17   : #endif	// __RULE_0615
; 18   : #if __VER >= 11 // __GUILD_COMBAT_1TO1
; 19   : 			,"GuildCombat1to1_TEXT1", "GuildCombat1to1_TEXT2", "GuildCombat1to1_TEXT3", "GuildCombat1to1_TEXT4", "GuildCombat1to1_TEXT5"
; 20   : #endif //__GUILD_COMBAT_1TO1
; 21   : #ifdef __VENDOR_1106
; 22   : 			, "Letter1"
; 23   : #endif	// __VENDOR_1106
; 24   : 		};
; 25   : 
; 26   : 	CString fileName = file[nType];

  0002e	8b 45 10	 mov	 eax, DWORD PTR _nType$[ebp]
  00031	c7 45 b0 00 00
	00 00		 mov	 DWORD PTR _file$[ebp], OFFSET ??_C@_06IBDJIBGI@Filter@
  00038	c7 45 b4 00 00
	00 00		 mov	 DWORD PTR _file$[ebp+4], OFFSET ??_C@_0M@KNNOCJKG@InvalidName@
  0003f	c7 45 b8 00 00
	00 00		 mov	 DWORD PTR _file$[ebp+8], OFFSET ??_C@_06JHGCIHDH@Notice@
  00046	c7 45 bc 00 00
	00 00		 mov	 DWORD PTR _file$[ebp+12], OFFSET ??_C@_0BC@DHLCCIHN@GuildCombatTEXT_1@
  0004d	c7 45 c0 00 00
	00 00		 mov	 DWORD PTR _file$[ebp+16], OFFSET ??_C@_0BC@BMJPHLLO@GuildCombatTEXT_2@
  00054	c7 45 c4 00 00
	00 00		 mov	 DWORD PTR _file$[ebp+20], OFFSET ??_C@_0BC@FIEEKPP@GuildCombatTEXT_3@
  0005b	c7 45 c8 00 00
	00 00		 mov	 DWORD PTR _file$[ebp+24], OFFSET ??_C@_0BC@EKMFNMDI@GuildCombatTEXT_4@
  00062	c7 45 cc 00 00
	00 00		 mov	 DWORD PTR _file$[ebp+28], OFFSET ??_C@_0BC@FDNOONHJ@GuildCombatTEXT_5@
  00069	c7 45 d0 00 00
	00 00		 mov	 DWORD PTR _file$[ebp+32], OFFSET ??_C@_0BC@HIPDLOLK@GuildCombatTEXT_6@
  00070	c7 45 d4 00 00
	00 00		 mov	 DWORD PTR _file$[ebp+36], OFFSET ??_C@_06CBLMCBO@Letter@
  00077	c7 45 d8 00 00
	00 00		 mov	 DWORD PTR _file$[ebp+40], OFFSET ??_C@_0BG@NONHDJNH@GuildCombat1to1_TEXT1@
  0007e	c7 45 dc 00 00
	00 00		 mov	 DWORD PTR _file$[ebp+44], OFFSET ??_C@_0BG@PFPKGKBE@GuildCombat1to1_TEXT2@
  00085	c7 45 e0 00 00
	00 00		 mov	 DWORD PTR _file$[ebp+48], OFFSET ??_C@_0BG@OMOBFLFF@GuildCombat1to1_TEXT3@
  0008c	c7 45 e4 00 00
	00 00		 mov	 DWORD PTR _file$[ebp+52], OFFSET ??_C@_0BG@KDKAMNJC@GuildCombat1to1_TEXT4@
  00093	c7 45 e8 00 00
	00 00		 mov	 DWORD PTR _file$[ebp+56], OFFSET ??_C@_0BG@LKLLPMND@GuildCombat1to1_TEXT5@
  0009a	c7 45 ec 00 00
	00 00		 mov	 DWORD PTR _file$[ebp+60], OFFSET ??_C@_07DMFACBBD@Letter1@
  000a1	8b 74 85 b0	 mov	 esi, DWORD PTR _file$[ebp+eax*4]
  000a5	c7 45 fc 00 00
	00 00		 mov	 DWORD PTR __$EHRec$[ebp+8], 0
; File C:\Program Files\Microsoft Visual Studio\2022\Professional\VC\Tools\MSVC\14.44.35207\atlmfc\include\afxstr.h

; 56   : 		return( AfxGetStringManager() );

  000ac	e8 00 00 00 00	 call	 ?AfxGetStringManager@@YGPAUIAtlStringMgr@ATL@@XZ ; AfxGetStringManager
  000b1	8b c8		 mov	 ecx, eax
; File C:\Program Files\Microsoft Visual Studio\2022\Professional\VC\Tools\MSVC\14.44.35207\atlmfc\include\atlsimpstr.h

; 209  : 		ATLENSURE( pStringMgr != NULL );

  000b3	85 c9		 test	 ecx, ecx
  000b5	0f 84 bc 00 00
	00		 je	 $LN51@GetLangFil

; 210  : 		CStringData* pData = pStringMgr->GetNilString();

  000bb	8b 01		 mov	 eax, DWORD PTR [ecx]
  000bd	ff 50 0c	 call	 DWORD PTR [eax+12]

; 211  : 		Attach( pData );

  000c0	8b 7d 08	 mov	 edi, DWORD PTR ___$ReturnUdt$[ebp]
  000c3	83 c0 10	 add	 eax, 16			; 00000010H
  000c6	89 07		 mov	 DWORD PTR [edi], eax
; File C:\Program Files\Microsoft Visual Studio\2022\Professional\VC\Tools\MSVC\14.44.35207\atlmfc\include\cstringt.h

; 1052 : 		CThisSimpleString( StringTraits::GetDefaultManager() )

  000c8	c7 45 fc 01 00
	00 00		 mov	 DWORD PTR __$EHRec$[ebp+8], 1

; 2712 : 		if( (pv != NULL) && IS_INTRESOURCE( pv ) )

  000cf	85 f6		 test	 esi, esi
  000d1	74 28		 je	 SHORT $LN46@GetLangFil
  000d3	f7 c6 00 00 ff
	ff		 test	 esi, -65536		; ffff0000H
  000d9	75 0d		 jne	 SHORT $LN33@GetLangFil

; 2713 : 		{
; 2714 : 			UINT nID = LOWORD( reinterpret_cast< DWORD_PTR >( pv ) );

  000db	0f b7 c6	 movzx	 eax, si

; 2715 : 			(nID);
; 2716 : #ifdef _ATL_USE_WINAPI_FAMILY_DESKTOP_APP
; 2717 : 			if( !LoadString( nID ) )

  000de	8b cf		 mov	 ecx, edi
  000e0	50		 push	 eax
  000e1	e8 00 00 00 00	 call	 ?LoadStringA@?$CStringT@DV?$StrTraitMFC@DV?$ChTraitsCRT@D@ATL@@@@@ATL@@QAEHI@Z ; ATL::CStringT<char,StrTraitMFC<char,ATL::ChTraitsCRT<char> > >::LoadStringA

; 1054 : 		if( !CheckImplicitLoad( pszSrc ) )

  000e6	eb 1e		 jmp	 SHORT $LN7@GetLangFil
$LN33@GetLangFil:
; File C:\Program Files\Microsoft Visual Studio\2022\Professional\VC\Tools\MSVC\14.44.35207\atlmfc\include\atlsimpstr.h

; 730  : 		return( int( strlen( psz ) ) );

  000e8	8b ce		 mov	 ecx, esi
  000ea	8d 51 01	 lea	 edx, DWORD PTR [ecx+1]
  000ed	0f 1f 00	 npad	 3
$LL47@GetLangFil:
  000f0	8a 01		 mov	 al, BYTE PTR [ecx]
  000f2	41		 inc	 ecx
  000f3	84 c0		 test	 al, al
  000f5	75 f9		 jne	 SHORT $LL47@GetLangFil
  000f7	2b ca		 sub	 ecx, edx
  000f9	eb 02		 jmp	 SHORT $LN32@GetLangFil
$LN46@GetLangFil:

; 607  : 	}
; 608  : 	void SetString(
; 609  : 		_In_reads_opt_(nLength) PCXSTR pszSrc,
; 610  : 		_In_ int nLength)
; 611  : 	{
; 612  : 		if( nLength == 0 )
; 613  : 		{
; 614  : 			Empty();
; 615  : 		}
; 616  : 		else
; 617  : 		{
; 618  : 			// It is possible that pszSrc points to a location inside of our
; 619  : 			// buffer.  GetBuffer() might change m_pszData if (1) the buffer
; 620  : 			// is shared or (2) the buffer is too small to hold the new
; 621  : 			// string.  We detect this aliasing, and modify pszSrc to point
; 622  : 			// into the newly allocated buffer instead.
; 623  : 
; 624  : 			if(pszSrc == NULL)
; 625  : 				AtlThrow(E_INVALIDARG);
; 626  : 
; 627  : 			UINT nOldLength = GetLength();
; 628  : 			UINT_PTR nOffset = pszSrc-GetString();
; 629  : 			// If 0 <= nOffset <= nOldLength, then pszSrc points into our
; 630  : 			// buffer
; 631  : 
; 632  : 			PXSTR pszBuffer = GetBuffer( nLength );
; 633  : 			if( nOffset <= nOldLength )
; 634  : 			{
; 635  : 				CopyCharsOverlapped( pszBuffer, GetAllocLength(),
; 636  : 					pszBuffer+nOffset, nLength );
; 637  : 			}
; 638  : 			else
; 639  : 			{
; 640  : 				memcpy_s( pszBuffer, GetAllocLength() * sizeof( XCHAR ), pszSrc, nLength * sizeof( XCHAR ));
; 641  : 			}
; 642  : 			ReleaseBufferSetLength( nLength );
; 643  : 		}
; 644  : 	}
; 645  : 
; 646  : public:
; 647  : 	friend CSimpleStringT operator+(
; 648  : 		_In_ const CSimpleStringT& str1,
; 649  : 		_In_ const CSimpleStringT& str2)
; 650  : 	{
; 651  : 		CSimpleStringT s( str1.GetManager() );
; 652  : 
; 653  : 		Concatenate( s, str1, str1.GetLength(), str2, str2.GetLength() );
; 654  : 
; 655  : 		return( s );
; 656  : 	}
; 657  : 
; 658  : 	friend CSimpleStringT operator+(
; 659  : 		_In_ const CSimpleStringT& str1,
; 660  : 		_In_z_ PCXSTR psz2)
; 661  : 	{
; 662  : 		CSimpleStringT s( str1.GetManager() );
; 663  : 
; 664  : 		Concatenate( s, str1, str1.GetLength(), psz2, StringLength( psz2 ) );
; 665  : 
; 666  : 		return( s );
; 667  : 	}
; 668  : 
; 669  : 	friend CSimpleStringT operator+(
; 670  : 		_In_z_ PCXSTR psz1,
; 671  : 		_In_ const CSimpleStringT& str2)
; 672  : 	{
; 673  : 		CSimpleStringT s( str2.GetManager() );
; 674  : 
; 675  : 		Concatenate( s, psz1, StringLength( psz1 ), str2, str2.GetLength() );
; 676  : 
; 677  : 		return( s );
; 678  : 	}
; 679  : 
; 680  : 	_ATL_INSECURE_DEPRECATE("CSimpleStringT::CopyChars must be passed a buffer size")
; 681  : 	static void __cdecl CopyChars(
; 682  : 		_Out_writes_(nChars) XCHAR* pchDest,
; 683  : 		_In_reads_opt_(nChars) const XCHAR* pchSrc,
; 684  : 		_In_ int nChars) throw()
; 685  : 	{
; 686  : 		if (pchSrc != NULL)
; 687  : 		{
; 688  : 			#pragma warning (push)
; 689  : 			#pragma warning(disable : 4996)
; 690  : 			memcpy( pchDest, pchSrc, nChars*sizeof( XCHAR ) );
; 691  : 			#pragma warning (pop)
; 692  : 		}
; 693  : 	}
; 694  : 	static void __cdecl CopyChars(
; 695  : 		_Out_writes_to_(nDestLen,nChars) XCHAR* pchDest,
; 696  : 		_In_ size_t nDestLen,
; 697  : 		_In_reads_opt_(nChars) const XCHAR* pchSrc,
; 698  : 		_In_ int nChars) throw()
; 699  : 	{
; 700  : 		memcpy_s( pchDest, nDestLen*sizeof( XCHAR ),
; 701  : 			pchSrc, nChars*sizeof( XCHAR ) );
; 702  : 	}
; 703  : 
; 704  : 	_ATL_INSECURE_DEPRECATE("CSimpleStringT::CopyCharsOverlapped must be passed a buffer size")
; 705  : 	static void __cdecl CopyCharsOverlapped(
; 706  : 		_Out_writes_(nChars) XCHAR* pchDest,
; 707  : 		_In_reads_(nChars) const XCHAR* pchSrc,
; 708  : 		_In_ int nChars) throw()
; 709  : 	{
; 710  : 		#pragma warning (push)
; 711  : 		#pragma warning(disable : 4996)
; 712  : 		memmove( pchDest, pchSrc, nChars*sizeof( XCHAR ) );
; 713  : 		#pragma warning (pop)
; 714  : 	}
; 715  : 	static void __cdecl CopyCharsOverlapped(
; 716  : 		_Out_writes_to_(nDestLen, nDestLen) XCHAR* pchDest,
; 717  : 		_In_ size_t nDestLen,
; 718  : 		_In_reads_(nChars) const XCHAR* pchSrc,
; 719  : 		_In_ int nChars) throw()
; 720  : 	{
; 721  : 		memmove_s( pchDest, nDestLen*sizeof( XCHAR ),
; 722  : 			pchSrc, nChars*sizeof( XCHAR ) );
; 723  : 	}
; 724  : 	static int __cdecl StringLength(_In_opt_z_ const char* psz) throw()
; 725  : 	{
; 726  : 		if( psz == NULL )
; 727  : 		{
; 728  : 			return( 0 );

  000fb	33 c9		 xor	 ecx, ecx
$LN32@GetLangFil:

; 606  : 		SetString( pszSrc, StringLength( pszSrc ) );

  000fd	51		 push	 ecx
  000fe	56		 push	 esi
  000ff	8b cf		 mov	 ecx, edi
  00101	e8 00 00 00 00	 call	 ?SetString@?$CSimpleStringT@D$0A@@ATL@@QAEXPBDH@Z ; ATL::CSimpleStringT<char,0>::SetString
$LN7@GetLangFil:
; File C:\IAGOS\server\v18\Source\Source\_Common\ProjectCmn.cpp

; 64   : 	return fileName;

  00106	ff 75 0c	 push	 DWORD PTR _nLang$[ebp]
  00109	c7 45 fc 00 00
	00 00		 mov	 DWORD PTR __$EHRec$[ebp+8], 0
  00110	c7 45 f0 01 00
	00 00		 mov	 DWORD PTR $T2[ebp], 1
  00117	e8 00 00 00 00	 call	 ?GetInstance@CLangMan@@SAPAV1@XZ ; CLangMan::GetInstance
  0011c	8b c8		 mov	 ecx, eax
  0011e	e8 00 00 00 00	 call	 ?GetLangData@CLangMan@@QAEPAU_LANG_DATA@@K@Z ; CLangMan::GetLangData
  00123	05 04 01 00 00	 add	 eax, 260		; 00000104H
  00128	50		 push	 eax
  00129	8d 45 10	 lea	 eax, DWORD PTR $T3[ebp]
  0012c	57		 push	 edi
  0012d	50		 push	 eax
  0012e	e8 00 00 00 00	 call	 ??HATL@@YA?AV?$CStringT@DV?$StrTraitMFC@DV?$ChTraitsCRT@D@ATL@@@@@0@ABV10@PBD@Z ; ATL::operator+
  00133	83 c4 0c	 add	 esp, 12			; 0000000cH
  00136	50		 push	 eax
  00137	8b cf		 mov	 ecx, edi
  00139	c7 45 fc 02 00
	00 00		 mov	 DWORD PTR __$EHRec$[ebp+8], 2
  00140	e8 00 00 00 00	 call	 ??4?$CStringT@DV?$StrTraitMFC@DV?$ChTraitsCRT@D@ATL@@@@@ATL@@QAEAAV01@ABV01@@Z ; ATL::CStringT<char,StrTraitMFC<char,ATL::ChTraitsCRT<char> > >::operator=
; File C:\Program Files\Microsoft Visual Studio\2022\Professional\VC\Tools\MSVC\14.44.35207\atlmfc\include\atlsimpstr.h

; 804  : 		return( reinterpret_cast< CStringData* >( m_pszData )-1 );

  00145	8b 75 10	 mov	 esi, DWORD PTR $T3[ebp]

; 92   : 		if( _InterlockedDecrement( &nRefs ) <= 0 )

  00148	83 c8 ff	 or	 eax, -1
; File C:\IAGOS\server\v18\Source\Source\_Common\ProjectCmn.cpp

; 29   : 	fileName	= fileName + CLangMan::GetInstance()->GetLangData( nLang )->szFileName;

  0014b	c6 45 fc 00	 mov	 BYTE PTR __$EHRec$[ebp+8], 0
; File C:\Program Files\Microsoft Visual Studio\2022\Professional\VC\Tools\MSVC\14.44.35207\atlmfc\include\atlsimpstr.h

; 804  : 		return( reinterpret_cast< CStringData* >( m_pszData )-1 );

  0014f	83 c6 f0	 add	 esi, -16		; fffffff0H

; 92   : 		if( _InterlockedDecrement( &nRefs ) <= 0 )

  00152	f0 0f c1 46 0c	 lock	  xadd	 DWORD PTR [esi+12], eax
  00157	48		 dec	 eax
  00158	85 c0		 test	 eax, eax
  0015a	7f 08		 jg	 SHORT $LN43@GetLangFil

; 93   : 		{
; 94   : 			pStringMgr->Free( this );

  0015c	8b 0e		 mov	 ecx, DWORD PTR [esi]
  0015e	56		 push	 esi
  0015f	8b 11		 mov	 edx, DWORD PTR [ecx]
  00161	ff 52 04	 call	 DWORD PTR [edx+4]
$LN43@GetLangFil:
; File C:\IAGOS\server\v18\Source\Source\_Common\ProjectCmn.cpp

; 64   : 	return fileName;

  00164	8b c7		 mov	 eax, edi

; 65   : }

  00166	8b 4d f4	 mov	 ecx, DWORD PTR __$EHRec$[ebp]
  00169	64 89 0d 00 00
	00 00		 mov	 DWORD PTR fs:0, ecx
  00170	59		 pop	 ecx
  00171	5f		 pop	 edi
  00172	5e		 pop	 esi
  00173	8b e5		 mov	 esp, ebp
  00175	5d		 pop	 ebp
  00176	c3		 ret	 0
$LN51@GetLangFil:
; File C:\Program Files\Microsoft Visual Studio\2022\Professional\VC\Tools\MSVC\14.44.35207\atlmfc\include\atlsimpstr.h

; 209  : 		ATLENSURE( pStringMgr != NULL );

  00177	68 05 40 00 80	 push	 -2147467259		; 80004005H
  0017c	e8 00 00 00 00	 call	 ?AtlThrowImpl@ATL@@YGXJ@Z ; ATL::AtlThrowImpl
$LN49@GetLangFil:
  00181	cc		 int	 3
_TEXT	ENDS
;	COMDAT text$x
text$x	SEGMENT
__unwindfunclet$?GetLangFileName@@YA?AV?$CStringT@DV?$StrTraitMFC@DV?$ChTraitsCRT@D@ATL@@@@@ATL@@HH@Z$2:
  00000	8b 4d 08	 mov	 ecx, DWORD PTR ___$ReturnUdt$[ebp]
  00003	e9 00 00 00 00	 jmp	 ??1?$CSimpleStringT@D$0A@@ATL@@QAE@XZ ; ATL::CSimpleStringT<char,0>::~CSimpleStringT<char,0>
__unwindfunclet$?GetLangFileName@@YA?AV?$CStringT@DV?$StrTraitMFC@DV?$ChTraitsCRT@D@ATL@@@@@ATL@@HH@Z$0:
  00008	8b 45 f0	 mov	 eax, DWORD PTR $T2[ebp]
  0000b	83 e0 01	 and	 eax, 1
  0000e	0f 84 0c 00 00
	00		 je	 $LN4@GetLangFil
  00014	83 65 f0 fe	 and	 DWORD PTR $T2[ebp], -2	; fffffffeH
  00018	8b 4d 08	 mov	 ecx, DWORD PTR ___$ReturnUdt$[ebp]
  0001b	e9 00 00 00 00	 jmp	 ??1?$CStringT@DV?$StrTraitMFC@DV?$ChTraitsCRT@D@ATL@@@@@ATL@@QAE@XZ ; ATL::CStringT<char,StrTraitMFC<char,ATL::ChTraitsCRT<char> > >::~CStringT<char,StrTraitMFC<char,ATL::ChTraitsCRT<char> > >
$LN4@GetLangFil:
  00020	c3		 ret	 0
__unwindfunclet$?GetLangFileName@@YA?AV?$CStringT@DV?$StrTraitMFC@DV?$ChTraitsCRT@D@ATL@@@@@ATL@@HH@Z$1:
  00021	8d 4d 10	 lea	 ecx, DWORD PTR $T3[ebp]
  00024	e9 00 00 00 00	 jmp	 ??1?$CStringT@DV?$StrTraitMFC@DV?$ChTraitsCRT@D@ATL@@@@@ATL@@QAE@XZ ; ATL::CStringT<char,StrTraitMFC<char,ATL::ChTraitsCRT<char> > >::~CStringT<char,StrTraitMFC<char,ATL::ChTraitsCRT<char> > >
  00029	cc		 int	 3
  0002a	cc		 int	 3
  0002b	cc		 int	 3
  0002c	cc		 int	 3
  0002d	cc		 int	 3
__ehhandler$?GetLangFileName@@YA?AV?$CStringT@DV?$StrTraitMFC@DV?$ChTraitsCRT@D@ATL@@@@@ATL@@HH@Z:
  0002e	90		 npad	 1
  0002f	90		 npad	 1
  00030	8b 54 24 08	 mov	 edx, DWORD PTR [esp+8]
  00034	8d 42 0c	 lea	 eax, DWORD PTR [edx+12]
  00037	8b 4a b0	 mov	 ecx, DWORD PTR [edx-80]
  0003a	33 c8		 xor	 ecx, eax
  0003c	e8 00 00 00 00	 call	 @__security_check_cookie@4
  00041	b8 00 00 00 00	 mov	 eax, OFFSET __ehfuncinfo$?GetLangFileName@@YA?AV?$CStringT@DV?$StrTraitMFC@DV?$ChTraitsCRT@D@ATL@@@@@ATL@@HH@Z
  00046	e9 00 00 00 00	 jmp	 ___CxxFrameHandler3
text$x	ENDS
?GetLangFileName@@YA?AV?$CStringT@DV?$StrTraitMFC@DV?$ChTraitsCRT@D@ATL@@@@@ATL@@HH@Z ENDP ; GetLangFileName
; Function compile flags: /Ogtp
; File C:\Program Files\Microsoft Visual Studio\2022\Professional\VC\Tools\MSVC\14.44.35207\include\xmemory
;	COMDAT ??$_Allocate_manually_vector_aligned@U_Default_allocate_traits@std@@@std@@YAPAXI@Z
_TEXT	SEGMENT
__Bytes$ = 8						; size = 4
??$_Allocate_manually_vector_aligned@U_Default_allocate_traits@std@@@std@@YAPAXI@Z PROC ; std::_Allocate_manually_vector_aligned<std::_Default_allocate_traits>, COMDAT

; 182  : __declspec(allocator) void* _Allocate_manually_vector_aligned(const size_t _Bytes) {

  00000	55		 push	 ebp
  00001	8b ec		 mov	 ebp, esp

; 183  :     // allocate _Bytes manually aligned to at least _Big_allocation_alignment
; 184  :     const size_t _Block_size = _Non_user_size + _Bytes;

  00003	8b 45 08	 mov	 eax, DWORD PTR __Bytes$[ebp]
  00006	8d 48 23	 lea	 ecx, DWORD PTR [eax+35]

; 185  :     if (_Block_size <= _Bytes) {

  00009	3b c8		 cmp	 ecx, eax
  0000b	0f 86 00 00 00
	00		 jbe	 ?_Throw_bad_array_new_length@std@@YAXXZ ; std::_Throw_bad_array_new_length

; 136  :         return ::operator new(_Bytes);

  00011	51		 push	 ecx
  00012	e8 00 00 00 00	 call	 ??2@YAPAXI@Z		; operator new

; 186  :         _Throw_bad_array_new_length(); // add overflow
; 187  :     }
; 188  : 
; 189  :     const uintptr_t _Ptr_container = reinterpret_cast<uintptr_t>(_Traits::_Allocate(_Block_size));

  00017	8b c8		 mov	 ecx, eax

; 136  :         return ::operator new(_Bytes);

  00019	83 c4 04	 add	 esp, 4

; 190  :     _STL_VERIFY(_Ptr_container != 0, "invalid argument"); // validate even in release since we're doing p[-1]

  0001c	85 c9		 test	 ecx, ecx
  0001e	74 0b		 je	 SHORT $LN9@Allocate_m

; 191  :     void* const _Ptr = reinterpret_cast<void*>((_Ptr_container + _Non_user_size) & ~(_Big_allocation_alignment - 1));

  00020	8d 41 23	 lea	 eax, DWORD PTR [ecx+35]
  00023	83 e0 e0	 and	 eax, -32		; ffffffe0H

; 192  :     static_cast<uintptr_t*>(_Ptr)[-1] = _Ptr_container;

  00026	89 48 fc	 mov	 DWORD PTR [eax-4], ecx

; 193  : 
; 194  : #ifdef _DEBUG
; 195  :     static_cast<uintptr_t*>(_Ptr)[-2] = _Big_allocation_sentinel;
; 196  : #endif // defined(_DEBUG)
; 197  :     return _Ptr;
; 198  : }

  00029	5d		 pop	 ebp
  0002a	c3		 ret	 0
$LN9@Allocate_m:

; 190  :     _STL_VERIFY(_Ptr_container != 0, "invalid argument"); // validate even in release since we're doing p[-1]

  0002b	6a 00		 push	 0
  0002d	6a 00		 push	 0
  0002f	6a 00		 push	 0
  00031	6a 00		 push	 0
  00033	6a 00		 push	 0
  00035	e8 00 00 00 00	 call	 __invoke_watson
$LN7@Allocate_m:
  0003a	cc		 int	 3
??$_Allocate_manually_vector_aligned@U_Default_allocate_traits@std@@@std@@YAPAXI@Z ENDP ; std::_Allocate_manually_vector_aligned<std::_Default_allocate_traits>
_TEXT	ENDS
; Function compile flags: /Ogtp
; File C:\Program Files\Microsoft Visual Studio\2022\Professional\VC\Tools\MSVC\14.44.35207\include\xstring
; File C:\Program Files\Microsoft Visual Studio\2022\Professional\VC\Tools\MSVC\14.44.35207\include\__msvc_string_view.hpp
; File C:\Program Files\Microsoft Visual Studio\2022\Professional\VC\Tools\MSVC\14.44.35207\include\xstring
; File C:\Program Files\Microsoft Visual Studio\2022\Professional\VC\Tools\MSVC\14.44.35207\include\__msvc_string_view.hpp
; File C:\Program Files\Microsoft Visual Studio\2022\Professional\VC\Tools\MSVC\14.44.35207\include\xstring
; File C:\Program Files\Microsoft Visual Studio\2022\Professional\VC\Tools\MSVC\14.44.35207\include\__msvc_string_view.hpp
; File C:\Program Files\Microsoft Visual Studio\2022\Professional\VC\Tools\MSVC\14.44.35207\include\xstring
;	COMDAT ??$?MDU?$char_traits@D@std@@V?$allocator@D@1@@std@@YA_NABV?$basic_string@DU?$char_traits@D@std@@V?$allocator@D@2@@0@0@Z
_TEXT	SEGMENT
__Left$ = 8						; size = 4
__Right$ = 12						; size = 4
??$?MDU?$char_traits@D@std@@V?$allocator@D@1@@std@@YA_NABV?$basic_string@DU?$char_traits@D@std@@V?$allocator@D@2@@0@0@Z PROC ; std::operator<<char,std::char_traits<char>,std::allocator<char> >, COMDAT

; 3307 :     const basic_string<_Elem, _Traits, _Alloc>& _Left, const basic_string<_Elem, _Traits, _Alloc>& _Right) noexcept {

  00000	55		 push	 ebp
  00001	8b ec		 mov	 ebp, esp

; 444  :         const value_type* _Result = _Bx._Buf;

  00003	8b 45 0c	 mov	 eax, DWORD PTR __Right$[ebp]
  00006	8b c8		 mov	 ecx, eax

; 453  :         return _Myres > _Small_string_capacity;

  00008	83 78 14 0f	 cmp	 DWORD PTR [eax+20], 15	; 0000000fH

; 445  :         if (_Large_mode_engaged()) {

  0000c	76 02		 jbe	 SHORT $LN8@operator

; 446  :             _Result = _Unfancy(_Bx._Ptr);

  0000e	8b 08		 mov	 ecx, DWORD PTR [eax]
$LN8@operator:
  00010	53		 push	 ebx
  00011	56		 push	 esi

; 444  :         const value_type* _Result = _Bx._Buf;

  00012	8b 75 08	 mov	 esi, DWORD PTR __Left$[ebp]
  00015	8b d6		 mov	 edx, esi
  00017	57		 push	 edi

; 453  :         return _Myres > _Small_string_capacity;

  00018	83 7e 14 0f	 cmp	 DWORD PTR [esi+20], 15	; 0000000fH

; 445  :         if (_Large_mode_engaged()) {

  0001c	76 02		 jbe	 SHORT $LN15@operator

; 446  :             _Result = _Unfancy(_Bx._Ptr);

  0001e	8b 16		 mov	 edx, DWORD PTR [esi]
$LN15@operator:

; 2890 :         return _Traits_compare<_Traits>(_Mypair._Myval2._Myptr(), _Mypair._Myval2._Mysize,

  00020	8b 5e 10	 mov	 ebx, DWORD PTR [esi+16]
  00023	8b f3		 mov	 esi, ebx
  00025	8b 78 10	 mov	 edi, DWORD PTR [eax+16]
  00028	3b fb		 cmp	 edi, ebx
  0002a	0f 42 f7	 cmovb	 esi, edi
; File C:\Program Files\Microsoft Visual Studio\2022\Professional\VC\Tools\MSVC\14.44.35207\include\__msvc_string_view.hpp

; 439  :         return _CSTD memcmp(_First1, _First2, _Count);

  0002d	83 ee 04	 sub	 esi, 4
  00030	72 11		 jb	 SHORT $LN35@operator
$LL36@operator:
  00032	8b 02		 mov	 eax, DWORD PTR [edx]
  00034	3b 01		 cmp	 eax, DWORD PTR [ecx]
  00036	75 10		 jne	 SHORT $LN34@operator
  00038	83 c2 04	 add	 edx, 4
  0003b	83 c1 04	 add	 ecx, 4
  0003e	83 ee 04	 sub	 esi, 4
  00041	73 ef		 jae	 SHORT $LL36@operator
$LN35@operator:
  00043	83 fe fc	 cmp	 esi, -4			; fffffffcH
  00046	74 34		 je	 SHORT $LN33@operator
$LN34@operator:
  00048	8a 02		 mov	 al, BYTE PTR [edx]
  0004a	3a 01		 cmp	 al, BYTE PTR [ecx]
  0004c	75 27		 jne	 SHORT $LN37@operator
  0004e	83 fe fd	 cmp	 esi, -3			; fffffffdH
  00051	74 29		 je	 SHORT $LN33@operator
  00053	8a 42 01	 mov	 al, BYTE PTR [edx+1]
  00056	3a 41 01	 cmp	 al, BYTE PTR [ecx+1]
  00059	75 1a		 jne	 SHORT $LN37@operator
  0005b	83 fe fe	 cmp	 esi, -2			; fffffffeH
  0005e	74 1c		 je	 SHORT $LN33@operator
  00060	8a 42 02	 mov	 al, BYTE PTR [edx+2]
  00063	3a 41 02	 cmp	 al, BYTE PTR [ecx+2]
  00066	75 0d		 jne	 SHORT $LN37@operator
  00068	83 fe ff	 cmp	 esi, -1
  0006b	74 0f		 je	 SHORT $LN33@operator
  0006d	8a 42 03	 mov	 al, BYTE PTR [edx+3]
  00070	3a 41 03	 cmp	 al, BYTE PTR [ecx+3]
  00073	74 07		 je	 SHORT $LN33@operator
$LN37@operator:
  00075	1b c0		 sbb	 eax, eax
  00077	83 c8 01	 or	 eax, 1
  0007a	eb 02		 jmp	 SHORT $LN38@operator
$LN33@operator:
  0007c	33 c0		 xor	 eax, eax
$LN38@operator:

; 621  :     if (_Ans != 0) {

  0007e	85 c0		 test	 eax, eax
  00080	75 13		 jne	 SHORT $LN24@operator

; 622  :         return _Ans;
; 623  :     }
; 624  : 
; 625  :     if (_Left_size < _Right_size) {

  00082	3b fb		 cmp	 edi, ebx
  00084	76 0b		 jbe	 SHORT $LN51@operator
; File C:\Program Files\Microsoft Visual Studio\2022\Professional\VC\Tools\MSVC\14.44.35207\include\xstring

; 3308 :     return _Left.compare(_Right) < 0;

  00086	5f		 pop	 edi
; File C:\Program Files\Microsoft Visual Studio\2022\Professional\VC\Tools\MSVC\14.44.35207\include\__msvc_string_view.hpp

; 626  :         return -1;

  00087	83 c8 ff	 or	 eax, -1
; File C:\Program Files\Microsoft Visual Studio\2022\Professional\VC\Tools\MSVC\14.44.35207\include\xstring

; 3308 :     return _Left.compare(_Right) < 0;

  0008a	5e		 pop	 esi
  0008b	c1 e8 1f	 shr	 eax, 31			; 0000001fH
  0008e	5b		 pop	 ebx

; 3309 : }

  0008f	5d		 pop	 ebp
  00090	c3		 ret	 0
$LN51@operator:
; File C:\Program Files\Microsoft Visual Studio\2022\Professional\VC\Tools\MSVC\14.44.35207\include\__msvc_string_view.hpp

; 629  :     if (_Left_size > _Right_size) {

  00091	1b c0		 sbb	 eax, eax
  00093	f7 d8		 neg	 eax
$LN24@operator:
; File C:\Program Files\Microsoft Visual Studio\2022\Professional\VC\Tools\MSVC\14.44.35207\include\xstring

; 3308 :     return _Left.compare(_Right) < 0;

  00095	5f		 pop	 edi
  00096	5e		 pop	 esi
  00097	c1 e8 1f	 shr	 eax, 31			; 0000001fH
  0009a	5b		 pop	 ebx

; 3309 : }

  0009b	5d		 pop	 ebp
  0009c	c3		 ret	 0
??$?MDU?$char_traits@D@std@@V?$allocator@D@1@@std@@YA_NABV?$basic_string@DU?$char_traits@D@std@@V?$allocator@D@2@@0@0@Z ENDP ; std::operator<<char,std::char_traits<char>,std::allocator<char> >
_TEXT	ENDS
; Function compile flags: /Ogtp
;	COMDAT ??1?$pair@$$CBV?$basic_string@DU?$char_traits@D@std@@V?$allocator@D@2@@std@@K@std@@QAE@XZ
_TEXT	SEGMENT
??1?$pair@$$CBV?$basic_string@DU?$char_traits@D@std@@V?$allocator@D@2@@std@@K@std@@QAE@XZ PROC ; std::pair<std::basic_string<char,std::char_traits<char>,std::allocator<char> > const ,unsigned long>::~pair<std::basic_string<char,std::char_traits<char>,std::allocator<char> > const ,unsigned long>, COMDAT
; _this$ = ecx
  00000	e9 00 00 00 00	 jmp	 ??1?$basic_string@DU?$char_traits@D@std@@V?$allocator@D@2@@std@@QAE@XZ ; std::basic_string<char,std::char_traits<char>,std::allocator<char> >::~basic_string<char,std::char_traits<char>,std::allocator<char> >
??1?$pair@$$CBV?$basic_string@DU?$char_traits@D@std@@V?$allocator@D@2@@std@@K@std@@QAE@XZ ENDP ; std::pair<std::basic_string<char,std::char_traits<char>,std::allocator<char> > const ,unsigned long>::~pair<std::basic_string<char,std::char_traits<char>,std::allocator<char> > const ,unsigned long>
_TEXT	ENDS
; Function compile flags: /Ogtp
; File C:\IAGOS\server\v18\Source\Source\_Common\ProjectCmn.cpp
; File C:\Program Files\Microsoft Visual Studio\2022\Professional\VC\Tools\MSVC\14.44.35207\atlmfc\include\afxstr.h
; File C:\Program Files\Microsoft Visual Studio\2022\Professional\VC\Tools\MSVC\14.44.35207\atlmfc\include\atlsimpstr.h
; File C:\IAGOS\server\v18\Source\Source\_Common\ProjectCmn.cpp
; File C:\Program Files\Microsoft Visual Studio\2022\Professional\VC\Tools\MSVC\14.44.35207\atlmfc\include\atlsimpstr.h
; File C:\IAGOS\server\v18\Source\Source\_Common\ProjectCmn.cpp
; File C:\Program Files\Microsoft Visual Studio\2022\Professional\VC\Tools\MSVC\14.44.35207\atlmfc\include\atlsimpstr.h
; File C:\IAGOS\server\v18\Source\Source\_Common\ProjectCmn.cpp
; File C:\Program Files\Microsoft Visual Studio\2022\Professional\VC\Tools\MSVC\14.44.35207\atlmfc\include\atlsimpstr.h
; File C:\IAGOS\server\v18\Source\Source\_Common\ProjectCmn.cpp
;	COMDAT ?GetLangScript@CProject@@QAE?AV?$CStringT@DV?$StrTraitMFC@DV?$ChTraitsCRT@D@ATL@@@@@ATL@@AAVCScript@@@Z
_TEXT	SEGMENT
$T2 = -16						; size = 4
__$EHRec$ = -12						; size = 12
___$ReturnUdt$ = 8					; size = 4
_script$ = 12						; size = 4
?GetLangScript@CProject@@QAE?AV?$CStringT@DV?$StrTraitMFC@DV?$ChTraitsCRT@D@ATL@@@@@ATL@@AAVCScript@@@Z PROC ; CProject::GetLangScript, COMDAT
; _this$ = ecx

; 924  : {

  00000	55		 push	 ebp
  00001	8b ec		 mov	 ebp, esp
  00003	6a ff		 push	 -1
  00005	68 00 00 00 00	 push	 __ehhandler$?GetLangScript@CProject@@QAE?AV?$CStringT@DV?$StrTraitMFC@DV?$ChTraitsCRT@D@ATL@@@@@ATL@@AAVCScript@@@Z
  0000a	64 a1 00 00 00
	00		 mov	 eax, DWORD PTR fs:0
  00010	50		 push	 eax
  00011	51		 push	 ecx
  00012	56		 push	 esi
  00013	57		 push	 edi
  00014	a1 00 00 00 00	 mov	 eax, DWORD PTR ___security_cookie
  00019	33 c5		 xor	 eax, ebp
  0001b	50		 push	 eax
  0001c	8d 45 f4	 lea	 eax, DWORD PTR __$EHRec$[ebp]
  0001f	64 a3 00 00 00
	00		 mov	 DWORD PTR fs:0, eax
  00025	c7 45 fc 00 00
	00 00		 mov	 DWORD PTR __$EHRec$[ebp+8], 0
  0002c	c7 45 f0 00 00
	00 00		 mov	 DWORD PTR $T2[ebp], 0
; File C:\Program Files\Microsoft Visual Studio\2022\Professional\VC\Tools\MSVC\14.44.35207\atlmfc\include\afxstr.h

; 56   : 		return( AfxGetStringManager() );

  00033	e8 00 00 00 00	 call	 ?AfxGetStringManager@@YGPAUIAtlStringMgr@ATL@@XZ ; AfxGetStringManager
  00038	8b c8		 mov	 ecx, eax
; File C:\Program Files\Microsoft Visual Studio\2022\Professional\VC\Tools\MSVC\14.44.35207\atlmfc\include\atlsimpstr.h

; 209  : 		ATLENSURE( pStringMgr != NULL );

  0003a	85 c9		 test	 ecx, ecx
  0003c	74 6f		 je	 SHORT $LN39@GetLangScr

; 210  : 		CStringData* pData = pStringMgr->GetNilString();

  0003e	8b 01		 mov	 eax, DWORD PTR [ecx]
  00040	ff 50 0c	 call	 DWORD PTR [eax+12]

; 211  : 		Attach( pData );

  00043	8b 7d 08	 mov	 edi, DWORD PTR ___$ReturnUdt$[ebp]
  00046	83 c0 10	 add	 eax, 16			; 00000010H
  00049	89 07		 mov	 DWORD PTR [edi], eax
; File C:\IAGOS\server\v18\Source\Source\_Common\ProjectCmn.cpp

; 932  : 	return string;

  0004b	8b 75 0c	 mov	 esi, DWORD PTR _script$[ebp]
  0004e	8b ce		 mov	 ecx, esi
  00050	6a 00		 push	 0
  00052	c7 45 fc 00 00
	00 00		 mov	 DWORD PTR __$EHRec$[ebp+8], 0
  00059	c7 45 f0 01 00
	00 00		 mov	 DWORD PTR $T2[ebp], 1
  00060	8b 06		 mov	 eax, DWORD PTR [esi]
  00062	ff 50 14	 call	 DWORD PTR [eax+20]
  00065	8d 46 20	 lea	 eax, DWORD PTR [esi+32]
  00068	8b cf		 mov	 ecx, edi
  0006a	50		 push	 eax
  0006b	e8 00 00 00 00	 call	 ??4?$CStringT@DV?$StrTraitMFC@DV?$ChTraitsCRT@D@ATL@@@@@ATL@@QAEAAV01@ABV01@@Z ; ATL::CStringT<char,StrTraitMFC<char,ATL::ChTraitsCRT<char> > >::operator=
  00070	8b 06		 mov	 eax, DWORD PTR [esi]
  00072	8b ce		 mov	 ecx, esi
  00074	6a 00		 push	 0
  00076	ff 50 14	 call	 DWORD PTR [eax+20]
  00079	8b 06		 mov	 eax, DWORD PTR [esi]
  0007b	8b ce		 mov	 ecx, esi
  0007d	6a 00		 push	 0
  0007f	ff 50 14	 call	 DWORD PTR [eax+20]
; File C:\Program Files\Microsoft Visual Studio\2022\Professional\VC\Tools\MSVC\14.44.35207\atlmfc\include\atlsimpstr.h

; 537  : 		return( GetLength() == 0 );

  00082	8b 0f		 mov	 ecx, DWORD PTR [edi]
  00084	83 79 f4 00	 cmp	 DWORD PTR [ecx-12], 0
; File C:\IAGOS\server\v18\Source\Source\_Common\ProjectCmn.cpp

; 930  : 	if( string.IsEmpty() )

  00088	75 0e		 jne	 SHORT $LN2@GetLangScr
; File C:\Program Files\Microsoft Visual Studio\2022\Professional\VC\Tools\MSVC\14.44.35207\atlmfc\include\atlsimpstr.h

; 606  : 		SetString( pszSrc, StringLength( pszSrc ) );

  0008a	6a 01		 push	 1
  0008c	68 00 00 00 00	 push	 OFFSET ??_C@_01CLKCMJKC@?5@
  00091	8b cf		 mov	 ecx, edi
  00093	e8 00 00 00 00	 call	 ?SetString@?$CSimpleStringT@D$0A@@ATL@@QAEXPBDH@Z ; ATL::CSimpleStringT<char,0>::SetString
$LN2@GetLangScr:
; File C:\IAGOS\server\v18\Source\Source\_Common\ProjectCmn.cpp

; 932  : 	return string;

  00098	8b c7		 mov	 eax, edi

; 933  : }

  0009a	8b 4d f4	 mov	 ecx, DWORD PTR __$EHRec$[ebp]
  0009d	64 89 0d 00 00
	00 00		 mov	 DWORD PTR fs:0, ecx
  000a4	59		 pop	 ecx
  000a5	5f		 pop	 edi
  000a6	5e		 pop	 esi
  000a7	8b e5		 mov	 esp, ebp
  000a9	5d		 pop	 ebp
  000aa	c2 08 00	 ret	 8
$LN39@GetLangScr:
; File C:\Program Files\Microsoft Visual Studio\2022\Professional\VC\Tools\MSVC\14.44.35207\atlmfc\include\atlsimpstr.h

; 209  : 		ATLENSURE( pStringMgr != NULL );

  000ad	68 05 40 00 80	 push	 -2147467259		; 80004005H
  000b2	e8 00 00 00 00	 call	 ?AtlThrowImpl@ATL@@YGXJ@Z ; ATL::AtlThrowImpl
$LN37@GetLangScr:
  000b7	cc		 int	 3
_TEXT	ENDS
;	COMDAT text$x
text$x	SEGMENT
__unwindfunclet$?GetLangScript@CProject@@QAE?AV?$CStringT@DV?$StrTraitMFC@DV?$ChTraitsCRT@D@ATL@@@@@ATL@@AAVCScript@@@Z$0:
  00000	8b 45 f0	 mov	 eax, DWORD PTR $T2[ebp]
  00003	83 e0 01	 and	 eax, 1
  00006	0f 84 0c 00 00
	00		 je	 $LN5@GetLangScr
  0000c	83 65 f0 fe	 and	 DWORD PTR $T2[ebp], -2	; fffffffeH
  00010	8b 4d 08	 mov	 ecx, DWORD PTR ___$ReturnUdt$[ebp]
  00013	e9 00 00 00 00	 jmp	 ??1?$CStringT@DV?$StrTraitMFC@DV?$ChTraitsCRT@D@ATL@@@@@ATL@@QAE@XZ ; ATL::CStringT<char,StrTraitMFC<char,ATL::ChTraitsCRT<char> > >::~CStringT<char,StrTraitMFC<char,ATL::ChTraitsCRT<char> > >
$LN5@GetLangScr:
  00018	c3		 ret	 0
  00019	cc		 int	 3
  0001a	cc		 int	 3
  0001b	cc		 int	 3
  0001c	cc		 int	 3
  0001d	cc		 int	 3
__ehhandler$?GetLangScript@CProject@@QAE?AV?$CStringT@DV?$StrTraitMFC@DV?$ChTraitsCRT@D@ATL@@@@@ATL@@AAVCScript@@@Z:
  0001e	90		 npad	 1
  0001f	90		 npad	 1
  00020	8b 54 24 08	 mov	 edx, DWORD PTR [esp+8]
  00024	8d 42 0c	 lea	 eax, DWORD PTR [edx+12]
  00027	8b 4a f0	 mov	 ecx, DWORD PTR [edx-16]
  0002a	33 c8		 xor	 ecx, eax
  0002c	e8 00 00 00 00	 call	 @__security_check_cookie@4
  00031	b8 00 00 00 00	 mov	 eax, OFFSET __ehfuncinfo$?GetLangScript@CProject@@QAE?AV?$CStringT@DV?$StrTraitMFC@DV?$ChTraitsCRT@D@ATL@@@@@ATL@@AAVCScript@@@Z
  00036	e9 00 00 00 00	 jmp	 ___CxxFrameHandler3
text$x	ENDS
?GetLangScript@CProject@@QAE?AV?$CStringT@DV?$StrTraitMFC@DV?$ChTraitsCRT@D@ATL@@@@@ATL@@AAVCScript@@@Z ENDP ; CProject::GetLangScript
; Function compile flags: /Ogtp
; File C:\IAGOS\server\v18\Source\Source\_Common\ProjectCmn.cpp
; File C:\Program Files\Microsoft Visual Studio\2022\Professional\VC\Tools\MSVC\14.44.35207\atlmfc\include\afxstr.h
; File C:\Program Files\Microsoft Visual Studio\2022\Professional\VC\Tools\MSVC\14.44.35207\atlmfc\include\atlsimpstr.h
; File C:\Program Files\Microsoft Visual Studio\2022\Professional\VC\Tools\MSVC\14.44.35207\atlmfc\include\cstringt.h
; File C:\Program Files\Microsoft Visual Studio\2022\Professional\VC\Tools\MSVC\14.44.35207\atlmfc\include\atlsimpstr.h
; File C:\IAGOS\server\v18\Source\Source\_Common\ProjectCmn.cpp
; File C:\Program Files\Microsoft Visual Studio\2022\Professional\VC\Tools\MSVC\14.44.35207\atlmfc\include\atlsimpstr.h
; File C:\IAGOS\server\v18\Source\Source\_Common\ProjectCmn.cpp
; File C:\Program Files\Microsoft Visual Studio\2022\Professional\VC\Tools\MSVC\14.44.35207\atlmfc\include\atlsimpstr.h
; File C:\IAGOS\server\v18\Source\Source\_Common\ProjectCmn.cpp
; File C:\Program Files\Microsoft Visual Studio\2022\Professional\VC\Tools\MSVC\14.44.35207\atlmfc\include\afxcoll.inl
; File C:\Program Files\Microsoft Visual Studio\2022\Professional\VC\Tools\MSVC\14.44.35207\atlmfc\include\atlsimpstr.h
; File C:\IAGOS\server\v18\Source\Source\_Common\ProjectCmn.cpp
; File C:\IAGOS\server\v18\Source\Source\_Common\Data.h
; File C:\Program Files\Microsoft Visual Studio\2022\Professional\VC\Tools\MSVC\14.44.35207\atlmfc\include\afxcoll.inl
; File C:\IAGOS\server\v18\Source\Source\_Common\ProjectCmn.cpp
; File C:\Program Files\Microsoft Visual Studio\2022\Professional\VC\Tools\MSVC\14.44.35207\atlmfc\include\afxcoll.inl
; File C:\IAGOS\server\v18\Source\Source\_Common\ProjectCmn.cpp
; File C:\Program Files\Microsoft Visual Studio\2022\Professional\VC\Tools\MSVC\14.44.35207\atlmfc\include\afxcoll.inl
; File C:\Program Files\Microsoft Visual Studio\2022\Professional\VC\Tools\MSVC\14.44.35207\atlmfc\include\atlsimpstr.h
; File C:\IAGOS\server\v18\Source\Source\_Common\ProjectCmn.cpp
;	COMDAT ?LoadText@CProject@@QAEHPBD@Z
_TEXT	SEGMENT
_colorArray$ = -7852					; size = 20
_colorText$ = -7832					; size = 8
_dwColor$1$ = -7828					; size = 4
_strArray$ = -7824					; size = 20
_str$2 = -7804						; size = 4
_scanner$ = -7800					; size = 7784
__$ArrayPad$ = -16					; size = 4
__$EHRec$ = -12						; size = 12
_lpszFileName$ = 8					; size = 4
?LoadText@CProject@@QAEHPBD@Z PROC			; CProject::LoadText, COMDAT
; _this$ = ecx

; 874  : {

  00000	55		 push	 ebp
  00001	8b ec		 mov	 ebp, esp
  00003	6a ff		 push	 -1
  00005	68 00 00 00 00	 push	 __ehhandler$?LoadText@CProject@@QAEHPBD@Z
  0000a	64 a1 00 00 00
	00		 mov	 eax, DWORD PTR fs:0
  00010	50		 push	 eax
  00011	b8 a0 1e 00 00	 mov	 eax, 7840		; 00001ea0H
  00016	e8 00 00 00 00	 call	 __chkstk
  0001b	a1 00 00 00 00	 mov	 eax, DWORD PTR ___security_cookie
  00020	33 c5		 xor	 eax, ebp
  00022	89 45 f0	 mov	 DWORD PTR __$ArrayPad$[ebp], eax
  00025	53		 push	 ebx
  00026	56		 push	 esi
  00027	57		 push	 edi
  00028	50		 push	 eax
  00029	8d 45 f4	 lea	 eax, DWORD PTR __$EHRec$[ebp]
  0002c	64 a3 00 00 00
	00		 mov	 DWORD PTR fs:0, eax
  00032	8b d9		 mov	 ebx, ecx
  00034	8b 75 08	 mov	 esi, DWORD PTR _lpszFileName$[ebp]

; 875  : 	tagColorText colorText, *pColorText;
; 876  : 
; 877  : 	CScript scanner;

  00037	8d 8d 88 e1 ff
	ff		 lea	 ecx, DWORD PTR _scanner$[ebp]
  0003d	6a 00		 push	 0
  0003f	e8 00 00 00 00	 call	 ??0CScript@@QAE@H@Z	; CScript::CScript

; 878  : 	if( scanner.Load( lpszFileName ) == FALSE )

  00044	6a 00		 push	 0
  00046	6a 01		 push	 1
  00048	56		 push	 esi
  00049	8d 8d 88 e1 ff
	ff		 lea	 ecx, DWORD PTR _scanner$[ebp]
  0004f	c7 45 fc 00 00
	00 00		 mov	 DWORD PTR __$EHRec$[ebp+8], 0
  00056	e8 00 00 00 00	 call	 ?Load@CScript@@QAEHPBDHH@Z ; CScript::Load
  0005b	85 c0		 test	 eax, eax
  0005d	75 07		 jne	 SHORT $LN8@LoadText
  0005f	33 f6		 xor	 esi, esi
  00061	e9 fa 01 00 00	 jmp	 $LN16@LoadText
$LN8@LoadText:

; 879  : 		return FALSE;
; 880  : 
; 881  : 	CStringArray strArray;

  00066	8d 8d 70 e1 ff
	ff		 lea	 ecx, DWORD PTR _strArray$[ebp]
  0006c	e8 00 00 00 00	 call	 ??0CStringArray@@QAE@XZ	; CStringArray::CStringArray

; 882  : 	CDWordArray  colorArray;

  00071	8d 8d 54 e1 ff
	ff		 lea	 ecx, DWORD PTR _colorArray$[ebp]
  00077	c6 45 fc 01	 mov	 BYTE PTR __$EHRec$[ebp+8], 1
  0007b	e8 00 00 00 00	 call	 ??0CDWordArray@@QAE@XZ	; CDWordArray::CDWordArray

; 883  : 	DWORD dwId = scanner.GetNumber();

  00080	6a 00		 push	 0
  00082	8d 8d 88 e1 ff
	ff		 lea	 ecx, DWORD PTR _scanner$[ebp]
  00088	c6 45 fc 02	 mov	 BYTE PTR __$EHRec$[ebp+8], 2
  0008c	e8 00 00 00 00	 call	 ?GetNumber@CScanner@@QAEHH@Z ; CScanner::GetNumber
  00091	8b f8		 mov	 edi, eax
$LL4@LoadText:

; 884  : 
; 885  : 	do {
; 886  : 		DWORD dwColor = scanner.GetNumber(); // color

  00093	6a 00		 push	 0
  00095	8d 8d 88 e1 ff
	ff		 lea	 ecx, DWORD PTR _scanner$[ebp]
  0009b	e8 00 00 00 00	 call	 ?GetNumber@CScanner@@QAEHH@Z ; CScanner::GetNumber

; 887  : 		scanner.GetToken();

  000a0	6a 00		 push	 0
  000a2	8d 8d 88 e1 ff
	ff		 lea	 ecx, DWORD PTR _scanner$[ebp]
  000a8	89 85 6c e1 ff
	ff		 mov	 DWORD PTR _dwColor$1$[ebp], eax
  000ae	e8 00 00 00 00	 call	 ?GetToken@CScript@@UAEHH@Z ; CScript::GetToken

; 888  : 		if( *scanner.token  == '{' )

  000b3	8b 85 c4 e1 ff
	ff		 mov	 eax, DWORD PTR _scanner$[ebp+60]
  000b9	80 38 7b	 cmp	 BYTE PTR [eax], 123	; 0000007bH
  000bc	0f 85 dd 00 00
	00		 jne	 $LN54@LoadText

; 889  : 		{
; 890  : 
; 891  : 			scanner.GetToken();

  000c2	6a 00		 push	 0
  000c4	8d 8d 88 e1 ff
	ff		 lea	 ecx, DWORD PTR _scanner$[ebp]
  000ca	e8 00 00 00 00	 call	 ?GetToken@CScript@@UAEHH@Z ; CScript::GetToken

; 892  : 			CString str	= scanner.token;

  000cf	8b b5 c4 e1 ff
	ff		 mov	 esi, DWORD PTR _scanner$[ebp+60]
; File C:\Program Files\Microsoft Visual Studio\2022\Professional\VC\Tools\MSVC\14.44.35207\atlmfc\include\afxstr.h

; 56   : 		return( AfxGetStringManager() );

  000d5	e8 00 00 00 00	 call	 ?AfxGetStringManager@@YGPAUIAtlStringMgr@ATL@@XZ ; AfxGetStringManager
  000da	8b c8		 mov	 ecx, eax
; File C:\Program Files\Microsoft Visual Studio\2022\Professional\VC\Tools\MSVC\14.44.35207\atlmfc\include\atlsimpstr.h

; 209  : 		ATLENSURE( pStringMgr != NULL );

  000dc	85 c9		 test	 ecx, ecx
  000de	0f 84 ac 01 00
	00		 je	 $LN79@LoadText

; 210  : 		CStringData* pData = pStringMgr->GetNilString();

  000e4	8b 01		 mov	 eax, DWORD PTR [ecx]
  000e6	ff 50 0c	 call	 DWORD PTR [eax+12]

; 211  : 		Attach( pData );

  000e9	83 c0 10	 add	 eax, 16			; 00000010H
  000ec	89 85 84 e1 ff
	ff		 mov	 DWORD PTR _str$2[ebp], eax
; File C:\Program Files\Microsoft Visual Studio\2022\Professional\VC\Tools\MSVC\14.44.35207\atlmfc\include\cstringt.h

; 1052 : 		CThisSimpleString( StringTraits::GetDefaultManager() )

  000f2	c6 45 fc 03	 mov	 BYTE PTR __$EHRec$[ebp+8], 3

; 2712 : 		if( (pv != NULL) && IS_INTRESOURCE( pv ) )

  000f6	85 f6		 test	 esi, esi
  000f8	74 29		 je	 SHORT $LN92@LoadText
  000fa	f7 c6 00 00 ff
	ff		 test	 esi, -65536		; ffff0000H
  00100	75 11		 jne	 SHORT $LN44@LoadText

; 2713 : 		{
; 2714 : 			UINT nID = LOWORD( reinterpret_cast< DWORD_PTR >( pv ) );

  00102	0f b7 c6	 movzx	 eax, si

; 2715 : 			(nID);
; 2716 : #ifdef _ATL_USE_WINAPI_FAMILY_DESKTOP_APP
; 2717 : 			if( !LoadString( nID ) )

  00105	8d 8d 84 e1 ff
	ff		 lea	 ecx, DWORD PTR _str$2[ebp]
  0010b	50		 push	 eax
  0010c	e8 00 00 00 00	 call	 ?LoadStringA@?$CStringT@DV?$StrTraitMFC@DV?$ChTraitsCRT@D@ATL@@@@@ATL@@QAEHI@Z ; ATL::CStringT<char,StrTraitMFC<char,ATL::ChTraitsCRT<char> > >::LoadStringA

; 1054 : 		if( !CheckImplicitLoad( pszSrc ) )

  00111	eb 1f		 jmp	 SHORT $LN18@LoadText
$LN44@LoadText:
; File C:\Program Files\Microsoft Visual Studio\2022\Professional\VC\Tools\MSVC\14.44.35207\atlmfc\include\atlsimpstr.h

; 730  : 		return( int( strlen( psz ) ) );

  00113	8b c6		 mov	 eax, esi
  00115	8d 50 01	 lea	 edx, DWORD PTR [eax+1]
$LL94@LoadText:
  00118	8a 08		 mov	 cl, BYTE PTR [eax]
  0011a	40		 inc	 eax
  0011b	84 c9		 test	 cl, cl
  0011d	75 f9		 jne	 SHORT $LL94@LoadText
  0011f	2b c2		 sub	 eax, edx
  00121	eb 02		 jmp	 SHORT $LN43@LoadText
$LN92@LoadText:

; 607  : 	}
; 608  : 	void SetString(
; 609  : 		_In_reads_opt_(nLength) PCXSTR pszSrc,
; 610  : 		_In_ int nLength)
; 611  : 	{
; 612  : 		if( nLength == 0 )
; 613  : 		{
; 614  : 			Empty();
; 615  : 		}
; 616  : 		else
; 617  : 		{
; 618  : 			// It is possible that pszSrc points to a location inside of our
; 619  : 			// buffer.  GetBuffer() might change m_pszData if (1) the buffer
; 620  : 			// is shared or (2) the buffer is too small to hold the new
; 621  : 			// string.  We detect this aliasing, and modify pszSrc to point
; 622  : 			// into the newly allocated buffer instead.
; 623  : 
; 624  : 			if(pszSrc == NULL)
; 625  : 				AtlThrow(E_INVALIDARG);
; 626  : 
; 627  : 			UINT nOldLength = GetLength();
; 628  : 			UINT_PTR nOffset = pszSrc-GetString();
; 629  : 			// If 0 <= nOffset <= nOldLength, then pszSrc points into our
; 630  : 			// buffer
; 631  : 
; 632  : 			PXSTR pszBuffer = GetBuffer( nLength );
; 633  : 			if( nOffset <= nOldLength )
; 634  : 			{
; 635  : 				CopyCharsOverlapped( pszBuffer, GetAllocLength(),
; 636  : 					pszBuffer+nOffset, nLength );
; 637  : 			}
; 638  : 			else
; 639  : 			{
; 640  : 				memcpy_s( pszBuffer, GetAllocLength() * sizeof( XCHAR ), pszSrc, nLength * sizeof( XCHAR ));
; 641  : 			}
; 642  : 			ReleaseBufferSetLength( nLength );
; 643  : 		}
; 644  : 	}
; 645  : 
; 646  : public:
; 647  : 	friend CSimpleStringT operator+(
; 648  : 		_In_ const CSimpleStringT& str1,
; 649  : 		_In_ const CSimpleStringT& str2)
; 650  : 	{
; 651  : 		CSimpleStringT s( str1.GetManager() );
; 652  : 
; 653  : 		Concatenate( s, str1, str1.GetLength(), str2, str2.GetLength() );
; 654  : 
; 655  : 		return( s );
; 656  : 	}
; 657  : 
; 658  : 	friend CSimpleStringT operator+(
; 659  : 		_In_ const CSimpleStringT& str1,
; 660  : 		_In_z_ PCXSTR psz2)
; 661  : 	{
; 662  : 		CSimpleStringT s( str1.GetManager() );
; 663  : 
; 664  : 		Concatenate( s, str1, str1.GetLength(), psz2, StringLength( psz2 ) );
; 665  : 
; 666  : 		return( s );
; 667  : 	}
; 668  : 
; 669  : 	friend CSimpleStringT operator+(
; 670  : 		_In_z_ PCXSTR psz1,
; 671  : 		_In_ const CSimpleStringT& str2)
; 672  : 	{
; 673  : 		CSimpleStringT s( str2.GetManager() );
; 674  : 
; 675  : 		Concatenate( s, psz1, StringLength( psz1 ), str2, str2.GetLength() );
; 676  : 
; 677  : 		return( s );
; 678  : 	}
; 679  : 
; 680  : 	_ATL_INSECURE_DEPRECATE("CSimpleStringT::CopyChars must be passed a buffer size")
; 681  : 	static void __cdecl CopyChars(
; 682  : 		_Out_writes_(nChars) XCHAR* pchDest,
; 683  : 		_In_reads_opt_(nChars) const XCHAR* pchSrc,
; 684  : 		_In_ int nChars) throw()
; 685  : 	{
; 686  : 		if (pchSrc != NULL)
; 687  : 		{
; 688  : 			#pragma warning (push)
; 689  : 			#pragma warning(disable : 4996)
; 690  : 			memcpy( pchDest, pchSrc, nChars*sizeof( XCHAR ) );
; 691  : 			#pragma warning (pop)
; 692  : 		}
; 693  : 	}
; 694  : 	static void __cdecl CopyChars(
; 695  : 		_Out_writes_to_(nDestLen,nChars) XCHAR* pchDest,
; 696  : 		_In_ size_t nDestLen,
; 697  : 		_In_reads_opt_(nChars) const XCHAR* pchSrc,
; 698  : 		_In_ int nChars) throw()
; 699  : 	{
; 700  : 		memcpy_s( pchDest, nDestLen*sizeof( XCHAR ),
; 701  : 			pchSrc, nChars*sizeof( XCHAR ) );
; 702  : 	}
; 703  : 
; 704  : 	_ATL_INSECURE_DEPRECATE("CSimpleStringT::CopyCharsOverlapped must be passed a buffer size")
; 705  : 	static void __cdecl CopyCharsOverlapped(
; 706  : 		_Out_writes_(nChars) XCHAR* pchDest,
; 707  : 		_In_reads_(nChars) const XCHAR* pchSrc,
; 708  : 		_In_ int nChars) throw()
; 709  : 	{
; 710  : 		#pragma warning (push)
; 711  : 		#pragma warning(disable : 4996)
; 712  : 		memmove( pchDest, pchSrc, nChars*sizeof( XCHAR ) );
; 713  : 		#pragma warning (pop)
; 714  : 	}
; 715  : 	static void __cdecl CopyCharsOverlapped(
; 716  : 		_Out_writes_to_(nDestLen, nDestLen) XCHAR* pchDest,
; 717  : 		_In_ size_t nDestLen,
; 718  : 		_In_reads_(nChars) const XCHAR* pchSrc,
; 719  : 		_In_ int nChars) throw()
; 720  : 	{
; 721  : 		memmove_s( pchDest, nDestLen*sizeof( XCHAR ),
; 722  : 			pchSrc, nChars*sizeof( XCHAR ) );
; 723  : 	}
; 724  : 	static int __cdecl StringLength(_In_opt_z_ const char* psz) throw()
; 725  : 	{
; 726  : 		if( psz == NULL )
; 727  : 		{
; 728  : 			return( 0 );

  00123	33 c0		 xor	 eax, eax
$LN43@LoadText:

; 606  : 		SetString( pszSrc, StringLength( pszSrc ) );

  00125	50		 push	 eax
  00126	56		 push	 esi
  00127	8d 8d 84 e1 ff
	ff		 lea	 ecx, DWORD PTR _str$2[ebp]
  0012d	e8 00 00 00 00	 call	 ?SetString@?$CSimpleStringT@D$0A@@ATL@@QAEXPBDH@Z ; ATL::CSimpleStringT<char,0>::SetString
$LN18@LoadText:
; File C:\IAGOS\server\v18\Source\Source\_Common\ProjectCmn.cpp

; 893  : 			str.Replace( "\"", "" );

  00132	68 00 00 00 00	 push	 OFFSET ??_C@_00CNPNBAHC@@
  00137	68 00 00 00 00	 push	 OFFSET ??_C@_01BJJEKLCA@?$CC@
  0013c	8d 8d 84 e1 ff
	ff		 lea	 ecx, DWORD PTR _str$2[ebp]
  00142	c6 45 fc 04	 mov	 BYTE PTR __$EHRec$[ebp+8], 4
  00146	e8 00 00 00 00	 call	 ?Replace@?$CStringT@DV?$StrTraitMFC@DV?$ChTraitsCRT@D@ATL@@@@@ATL@@QAEHPBD0@Z ; ATL::CStringT<char,StrTraitMFC<char,ATL::ChTraitsCRT<char> > >::Replace

; 894  : //			if( str.IsEmpty() )
; 895  : //				str	= "Empty";
; 896  : 			#ifdef _DEBUG
; 897  : 			if( strArray.GetSize() > (int)( dwId ) )
; 898  : 				if( strArray.GetAt( dwId ).IsEmpty() == FALSE )
; 899  : 					Error( "CProject::LoadText : °°Ŕş ľĆŔĚµđ Á¸Ŕç %d - %s", dwId, str );						
; 900  : 			#endif	// _DEBUG	
; 901  : 			strArray.SetAtGrow( dwId, str );

  0014b	8d 85 84 e1 ff
	ff		 lea	 eax, DWORD PTR _str$2[ebp]
  00151	50		 push	 eax
  00152	57		 push	 edi
  00153	8d 8d 70 e1 ff
	ff		 lea	 ecx, DWORD PTR _strArray$[ebp]
  00159	e8 00 00 00 00	 call	 ?SetAtGrow@CStringArray@@QAEXHABV?$CStringT@DV?$StrTraitMFC@DV?$ChTraitsCRT@D@ATL@@@@@ATL@@@Z ; CStringArray::SetAtGrow

; 902  : 			colorArray.SetAtGrow( dwId, dwColor );

  0015e	ff b5 6c e1 ff
	ff		 push	 DWORD PTR _dwColor$1$[ebp]
  00164	8d 8d 54 e1 ff
	ff		 lea	 ecx, DWORD PTR _colorArray$[ebp]
  0016a	57		 push	 edi
  0016b	e8 00 00 00 00	 call	 ?SetAtGrow@CDWordArray@@QAEXHK@Z ; CDWordArray::SetAtGrow

; 903  : 			scanner.GetToken();	// }

  00170	6a 00		 push	 0
  00172	8d 8d 88 e1 ff
	ff		 lea	 ecx, DWORD PTR _scanner$[ebp]
  00178	e8 00 00 00 00	 call	 ?GetToken@CScript@@UAEHH@Z ; CScript::GetToken
; File C:\Program Files\Microsoft Visual Studio\2022\Professional\VC\Tools\MSVC\14.44.35207\atlmfc\include\atlsimpstr.h

; 804  : 		return( reinterpret_cast< CStringData* >( m_pszData )-1 );

  0017d	8b 95 84 e1 ff
	ff		 mov	 edx, DWORD PTR _str$2[ebp]

; 92   : 		if( _InterlockedDecrement( &nRefs ) <= 0 )

  00183	83 c8 ff	 or	 eax, -1
; File C:\IAGOS\server\v18\Source\Source\_Common\ProjectCmn.cpp

; 904  : 		}

  00186	c6 45 fc 02	 mov	 BYTE PTR __$EHRec$[ebp+8], 2
; File C:\Program Files\Microsoft Visual Studio\2022\Professional\VC\Tools\MSVC\14.44.35207\atlmfc\include\atlsimpstr.h

; 804  : 		return( reinterpret_cast< CStringData* >( m_pszData )-1 );

  0018a	83 c2 f0	 add	 edx, -16		; fffffff0H

; 92   : 		if( _InterlockedDecrement( &nRefs ) <= 0 )

  0018d	f0 0f c1 42 0c	 lock	  xadd	 DWORD PTR [edx+12], eax
  00192	48		 dec	 eax
  00193	85 c0		 test	 eax, eax
  00195	7f 08		 jg	 SHORT $LN54@LoadText

; 93   : 		{
; 94   : 			pStringMgr->Free( this );

  00197	8b 0a		 mov	 ecx, DWORD PTR [edx]
  00199	52		 push	 edx
  0019a	8b 01		 mov	 eax, DWORD PTR [ecx]
  0019c	ff 50 04	 call	 DWORD PTR [eax+4]
$LN54@LoadText:
; File C:\IAGOS\server\v18\Source\Source\_Common\ProjectCmn.cpp

; 905  : 		dwId = scanner.GetNumber();	// next

  0019f	6a 00		 push	 0
  001a1	8d 8d 88 e1 ff
	ff		 lea	 ecx, DWORD PTR _scanner$[ebp]
  001a7	e8 00 00 00 00	 call	 ?GetNumber@CScanner@@QAEHH@Z ; CScanner::GetNumber

; 906  : 	} while( scanner.tok != FINISHED );

  001ac	83 bd cc e9 ff
	ff 15		 cmp	 DWORD PTR _scanner$[ebp+2116], 21 ; 00000015H
  001b3	8b f8		 mov	 edi, eax
  001b5	0f 85 d8 fe ff
	ff		 jne	 $LL4@LoadText

; 907  : 
; 908  : 	for( int i = 0; i < strArray.GetSize(); i++ )

  001bb	8b 8d 78 e1 ff
	ff		 mov	 ecx, DWORD PTR _strArray$[ebp+8]
  001c1	33 f6		 xor	 esi, esi
  001c3	85 c9		 test	 ecx, ecx
  001c5	7e 76		 jle	 SHORT $LN6@LoadText
$LL7@LoadText:
; File C:\Program Files\Microsoft Visual Studio\2022\Professional\VC\Tools\MSVC\14.44.35207\atlmfc\include\afxcoll.inl

; 289  : 		if( nIndex < 0 || nIndex >= m_nSize )

  001c7	85 f6		 test	 esi, esi
  001c9	0f 88 bc 00 00
	00		 js	 $LN81@LoadText
; File C:\Program Files\Microsoft Visual Studio\2022\Professional\VC\Tools\MSVC\14.44.35207\atlmfc\include\atlsimpstr.h

; 537  : 		return( GetLength() == 0 );

  001cf	8b 85 74 e1 ff
	ff		 mov	 eax, DWORD PTR _strArray$[ebp+4]
  001d5	8b 04 b0	 mov	 eax, DWORD PTR [eax+esi*4]
  001d8	83 78 f4 00	 cmp	 DWORD PTR [eax-12], 0
; File C:\IAGOS\server\v18\Source\Source\_Common\ProjectCmn.cpp

; 910  : 		if( strArray.GetAt( i ).IsEmpty() == FALSE )

  001dc	74 5a		 je	 SHORT $LN5@LoadText

; 911  : 		{
; 912  : 			m_colorText.SetAtGrow( i, &colorText );

  001de	6a 00		 push	 0
  001e0	8d 85 68 e1 ff
	ff		 lea	 eax, DWORD PTR _colorText$[ebp]
  001e6	50		 push	 eax
  001e7	56		 push	 esi
  001e8	8d 4b 60	 lea	 ecx, DWORD PTR [ebx+96]
  001eb	e8 00 00 00 00	 call	 ?SetAtGrow@?$CFixedArray@UtagColorText@@@@QAEXHPAUtagColorText@@H@Z ; CFixedArray<tagColorText>::SetAtGrow
; File C:\IAGOS\server\v18\Source\Source\_Common\Data.h

; 270  : 	if( dwIndex >= (DWORD)m_nMaxIndex )

  001f0	3b 73 78	 cmp	 esi, DWORD PTR [ebx+120]
  001f3	72 04		 jb	 SHORT $LN67@LoadText

; 271  : 		return NULL;

  001f5	33 ff		 xor	 edi, edi
  001f7	eb 06		 jmp	 SHORT $LN66@LoadText
$LN67@LoadText:

; 272  : 	return (T*) m_apOffset[ dwIndex ];

  001f9	8b 43 68	 mov	 eax, DWORD PTR [ebx+104]
  001fc	8b 3c b0	 mov	 edi, DWORD PTR [eax+esi*4]
$LN66@LoadText:
; File C:\Program Files\Microsoft Visual Studio\2022\Professional\VC\Tools\MSVC\14.44.35207\atlmfc\include\afxcoll.inl

; 117  : 		if( nIndex < 0 || nIndex >= m_nSize )

  001ff	3b b5 5c e1 ff
	ff		 cmp	 esi, DWORD PTR _colorArray$[ebp+8]
  00205	0f 8d 80 00 00
	00		 jge	 $LN81@LoadText
; File C:\IAGOS\server\v18\Source\Source\_Common\ProjectCmn.cpp

; 915  : 			pColorText->dwColor = colorArray.GetAt( i );

  0020b	8b 85 58 e1 ff
	ff		 mov	 eax, DWORD PTR _colorArray$[ebp+4]
  00211	8b 04 b0	 mov	 eax, DWORD PTR [eax+esi*4]
  00214	89 07		 mov	 DWORD PTR [edi], eax
; File C:\Program Files\Microsoft Visual Studio\2022\Professional\VC\Tools\MSVC\14.44.35207\atlmfc\include\afxcoll.inl

; 289  : 		if( nIndex < 0 || nIndex >= m_nSize )

  00216	3b b5 78 e1 ff
	ff		 cmp	 esi, DWORD PTR _strArray$[ebp+8]
  0021c	7d 6d		 jge	 SHORT $LN81@LoadText
; File C:\IAGOS\server\v18\Source\Source\_Common\ProjectCmn.cpp

; 916  : 			pColorText->lpszData = strdup( strArray.GetAt( i ) ) ;

  0021e	8b 85 74 e1 ff
	ff		 mov	 eax, DWORD PTR _strArray$[ebp+4]
  00224	ff 34 b0	 push	 DWORD PTR [eax+esi*4]
  00227	e8 00 00 00 00	 call	 _strdup
  0022c	89 47 04	 mov	 DWORD PTR [edi+4], eax
  0022f	83 c4 04	 add	 esp, 4
  00232	8b 8d 78 e1 ff
	ff		 mov	 ecx, DWORD PTR _strArray$[ebp+8]
$LN5@LoadText:

; 907  : 
; 908  : 	for( int i = 0; i < strArray.GetSize(); i++ )

  00238	46		 inc	 esi
  00239	3b f1		 cmp	 esi, ecx
  0023b	7c 8a		 jl	 SHORT $LL7@LoadText
$LN6@LoadText:

; 917  : 		}
; 918  : 	}
; 919  : 	m_colorText.Optimize();

  0023d	8d 4b 60	 lea	 ecx, DWORD PTR [ebx+96]
  00240	e8 00 00 00 00	 call	 ?Optimize@?$CFixedArray@UtagColorText@@@@QAEXXZ ; CFixedArray<tagColorText>::Optimize

; 920  : 	return TRUE;

  00245	8d 8d 54 e1 ff
	ff		 lea	 ecx, DWORD PTR _colorArray$[ebp]
  0024b	be 01 00 00 00	 mov	 esi, 1
  00250	e8 00 00 00 00	 call	 ??1CDWordArray@@UAE@XZ	; CDWordArray::~CDWordArray
  00255	8d 8d 70 e1 ff
	ff		 lea	 ecx, DWORD PTR _strArray$[ebp]
  0025b	e8 00 00 00 00	 call	 ??1CStringArray@@UAE@XZ	; CStringArray::~CStringArray
$LN16@LoadText:
  00260	8d 8d 88 e1 ff
	ff		 lea	 ecx, DWORD PTR _scanner$[ebp]
  00266	e8 00 00 00 00	 call	 ??1CScript@@UAE@XZ	; CScript::~CScript
  0026b	8b c6		 mov	 eax, esi

; 921  : }

  0026d	8b 4d f4	 mov	 ecx, DWORD PTR __$EHRec$[ebp]
  00270	64 89 0d 00 00
	00 00		 mov	 DWORD PTR fs:0, ecx
  00277	59		 pop	 ecx
  00278	5f		 pop	 edi
  00279	5e		 pop	 esi
  0027a	5b		 pop	 ebx
  0027b	8b 4d f0	 mov	 ecx, DWORD PTR __$ArrayPad$[ebp]
  0027e	33 cd		 xor	 ecx, ebp
  00280	e8 00 00 00 00	 call	 @__security_check_cookie@4
  00285	8b e5		 mov	 esp, ebp
  00287	5d		 pop	 ebp
  00288	c2 04 00	 ret	 4
$LN81@LoadText:
; File C:\Program Files\Microsoft Visual Studio\2022\Professional\VC\Tools\MSVC\14.44.35207\atlmfc\include\afxcoll.inl

; 290  : 			AfxThrowInvalidArgException();

  0028b	e8 00 00 00 00	 call	 ?AfxThrowInvalidArgException@@YGXXZ ; AfxThrowInvalidArgException
$LN79@LoadText:
; File C:\Program Files\Microsoft Visual Studio\2022\Professional\VC\Tools\MSVC\14.44.35207\atlmfc\include\atlsimpstr.h

; 209  : 		ATLENSURE( pStringMgr != NULL );

  00290	68 05 40 00 80	 push	 -2147467259		; 80004005H
  00295	e8 00 00 00 00	 call	 ?AtlThrowImpl@ATL@@YGXJ@Z ; ATL::AtlThrowImpl
$LN96@LoadText:
  0029a	cc		 int	 3
_TEXT	ENDS
;	COMDAT text$x
text$x	SEGMENT
__unwindfunclet$?LoadText@CProject@@QAEHPBD@Z$0:
  00000	8d 8d 88 e1 ff
	ff		 lea	 ecx, DWORD PTR _scanner$[ebp]
  00006	e9 00 00 00 00	 jmp	 ??1CScript@@UAE@XZ	; CScript::~CScript
__unwindfunclet$?LoadText@CProject@@QAEHPBD@Z$1:
  0000b	8d 8d 70 e1 ff
	ff		 lea	 ecx, DWORD PTR _strArray$[ebp]
  00011	e9 00 00 00 00	 jmp	 ??1CStringArray@@UAE@XZ	; CStringArray::~CStringArray
__unwindfunclet$?LoadText@CProject@@QAEHPBD@Z$2:
  00016	8d 8d 54 e1 ff
	ff		 lea	 ecx, DWORD PTR _colorArray$[ebp]
  0001c	e9 00 00 00 00	 jmp	 ??1CDWordArray@@UAE@XZ	; CDWordArray::~CDWordArray
__unwindfunclet$?LoadText@CProject@@QAEHPBD@Z$4:
  00021	8d 8d 84 e1 ff
	ff		 lea	 ecx, DWORD PTR _str$2[ebp]
  00027	e9 00 00 00 00	 jmp	 ??1?$CSimpleStringT@D$0A@@ATL@@QAE@XZ ; ATL::CSimpleStringT<char,0>::~CSimpleStringT<char,0>
__unwindfunclet$?LoadText@CProject@@QAEHPBD@Z$3:
  0002c	8d 8d 84 e1 ff
	ff		 lea	 ecx, DWORD PTR _str$2[ebp]
  00032	e9 00 00 00 00	 jmp	 ??1?$CStringT@DV?$StrTraitMFC@DV?$ChTraitsCRT@D@ATL@@@@@ATL@@QAE@XZ ; ATL::CStringT<char,StrTraitMFC<char,ATL::ChTraitsCRT<char> > >::~CStringT<char,StrTraitMFC<char,ATL::ChTraitsCRT<char> > >
  00037	cc		 int	 3
  00038	cc		 int	 3
  00039	cc		 int	 3
  0003a	cc		 int	 3
  0003b	cc		 int	 3
__ehhandler$?LoadText@CProject@@QAEHPBD@Z:
  0003c	90		 npad	 1
  0003d	90		 npad	 1
  0003e	8b 54 24 08	 mov	 edx, DWORD PTR [esp+8]
  00042	8d 42 0c	 lea	 eax, DWORD PTR [edx+12]
  00045	8b 8a 50 e1 ff
	ff		 mov	 ecx, DWORD PTR [edx-7856]
  0004b	33 c8		 xor	 ecx, eax
  0004d	e8 00 00 00 00	 call	 @__security_check_cookie@4
  00052	8b 4a fc	 mov	 ecx, DWORD PTR [edx-4]
  00055	33 c8		 xor	 ecx, eax
  00057	e8 00 00 00 00	 call	 @__security_check_cookie@4
  0005c	b8 00 00 00 00	 mov	 eax, OFFSET __ehfuncinfo$?LoadText@CProject@@QAEHPBD@Z
  00061	e9 00 00 00 00	 jmp	 ___CxxFrameHandler3
text$x	ENDS
?LoadText@CProject@@QAEHPBD@Z ENDP			; CProject::LoadText
; Function compile flags: /Ogtp
; File C:\IAGOS\server\v18\Source\Source\_Common\ProjectCmn.cpp
; File C:\Program Files\Microsoft Visual Studio\2022\Professional\VC\Tools\MSVC\14.44.35207\atlmfc\include\cstringt.h
; File C:\IAGOS\server\v18\Source\Source\_Common\ProjectCmn.cpp
; File C:\Program Files\Microsoft Visual Studio\2022\Professional\VC\Tools\MSVC\14.44.35207\atlmfc\include\cstringt.h
; File C:\IAGOS\server\v18\Source\Source\_Common\ProjectCmn.cpp
; File C:\Program Files\Microsoft Visual Studio\2022\Professional\VC\Tools\MSVC\14.44.35207\atlmfc\include\cstringt.h
; File C:\IAGOS\server\v18\Source\Source\_Common\ProjectCmn.cpp
; File C:\Program Files\Microsoft Visual Studio\2022\Professional\VC\Tools\MSVC\14.44.35207\atlmfc\include\cstringt.h
; File C:\IAGOS\server\v18\Source\Source\_Common\ProjectCmn.cpp
; File C:\Program Files\Microsoft Visual Studio\2022\Professional\VC\Tools\MSVC\14.44.35207\atlmfc\include\cstringt.h
; File C:\IAGOS\server\v18\Source\Source\_Common\ProjectCmn.cpp
;	COMDAT ?LoadJobItem@CProject@@QAEHPBD@Z
_TEXT	SEGMENT
_this$GSCopy$1$ = -7812					; size = 4
_nJob$1$ = -7808					; size = 4
tv491 = -7804						; size = 4
_script$ = -7800					; size = 7784
__$ArrayPad$ = -16					; size = 4
__$EHRec$ = -12						; size = 12
_lpszFileName$ = 8					; size = 4
?LoadJobItem@CProject@@QAEHPBD@Z PROC			; CProject::LoadJobItem, COMDAT
; _this$ = ecx

; 68   : {

  00000	55		 push	 ebp
  00001	8b ec		 mov	 ebp, esp
  00003	6a ff		 push	 -1
  00005	68 00 00 00 00	 push	 __ehhandler$?LoadJobItem@CProject@@QAEHPBD@Z
  0000a	64 a1 00 00 00
	00		 mov	 eax, DWORD PTR fs:0
  00010	50		 push	 eax
  00011	b8 78 1e 00 00	 mov	 eax, 7800		; 00001e78H
  00016	e8 00 00 00 00	 call	 __chkstk
  0001b	a1 00 00 00 00	 mov	 eax, DWORD PTR ___security_cookie
  00020	33 c5		 xor	 eax, ebp
  00022	89 45 f0	 mov	 DWORD PTR __$ArrayPad$[ebp], eax
  00025	53		 push	 ebx
  00026	56		 push	 esi
  00027	57		 push	 edi
  00028	50		 push	 eax
  00029	8d 45 f4	 lea	 eax, DWORD PTR __$EHRec$[ebp]
  0002c	64 a3 00 00 00
	00		 mov	 DWORD PTR fs:0, eax
  00032	8b d9		 mov	 ebx, ecx
  00034	89 9d 7c e1 ff
	ff		 mov	 DWORD PTR _this$GSCopy$1$[ebp], ebx
  0003a	8b 75 08	 mov	 esi, DWORD PTR _lpszFileName$[ebp]

; 69   : 	CScript script;

  0003d	8d 8d 88 e1 ff
	ff		 lea	 ecx, DWORD PTR _script$[ebp]
  00043	6a 00		 push	 0
  00045	e8 00 00 00 00	 call	 ??0CScript@@QAE@H@Z	; CScript::CScript

; 70   : 	if( script.Load( lpszFileName ) == FALSE )

  0004a	6a 00		 push	 0
  0004c	6a 01		 push	 1
  0004e	56		 push	 esi
  0004f	8d 8d 88 e1 ff
	ff		 lea	 ecx, DWORD PTR _script$[ebp]
  00055	c7 45 fc 00 00
	00 00		 mov	 DWORD PTR __$EHRec$[ebp+8], 0
  0005c	e8 00 00 00 00	 call	 ?Load@CScript@@QAEHPBDHH@Z ; CScript::Load
  00061	85 c0		 test	 eax, eax
  00063	75 07		 jne	 SHORT $LN8@LoadJobIte
  00065	33 f6		 xor	 esi, esi
  00067	e9 eb 01 00 00	 jmp	 $LN14@LoadJobIte
$LN8@LoadJobIte:

; 71   : 		return FALSE;
; 72   : 	script.GetToken();

  0006c	6a 00		 push	 0
  0006e	8d 8d 88 e1 ff
	ff		 lea	 ecx, DWORD PTR _script$[ebp]
  00074	e8 00 00 00 00	 call	 ?GetToken@CScript@@UAEHH@Z ; CScript::GetToken

; 73   : 	int nJob, nSex, i, j, nItem;
; 74   : 	memset( m_jobItem, 0xff, sizeof( m_jobItem ) );

  00079	68 d0 16 00 00	 push	 5840			; 000016d0H
  0007e	8d 83 6c fe 04
	00		 lea	 eax, DWORD PTR [ebx+327276]
  00084	68 ff 00 00 00	 push	 255			; 000000ffH
  00089	50		 push	 eax
  0008a	e8 00 00 00 00	 call	 _memset
  0008f	83 c4 0c	 add	 esp, 12			; 0000000cH

; 75   : 	while( script.tok != FINISHED )

  00092	83 bd cc e9 ff
	ff 15		 cmp	 DWORD PTR _script$[ebp+2116], 21 ; 00000015H
  00099	0f 84 b3 01 00
	00		 je	 $LN105@LoadJobIte
  0009f	90		 npad	 1
$LL2@LoadJobIte:
; File C:\Program Files\Microsoft Visual Studio\2022\Professional\VC\Tools\MSVC\14.44.35207\atlmfc\include\cstringt.h

; 184  : 		return _mbscmp( reinterpret_cast< const unsigned char* >( pszA ), reinterpret_cast< const unsigned char* >( pszB ) );

  000a0	68 00 00 00 00	 push	 OFFSET ??_C@_03JOGALCLM@job@
  000a5	ff b5 a8 e1 ff
	ff		 push	 DWORD PTR _script$[ebp+32]
  000ab	e8 00 00 00 00	 call	 __mbscmp
  000b0	83 c4 08	 add	 esp, 8

; 2490 : 		return(str1.Compare(psz2) == 0);

  000b3	85 c0		 test	 eax, eax
; File C:\IAGOS\server\v18\Source\Source\_Common\ProjectCmn.cpp

; 77   : 		if( script.Token == _T( "job" ) )

  000b5	0f 85 7d 01 00
	00		 jne	 $LN5@LoadJobIte

; 78   : 		{
; 79   : 			nJob = script.GetNumber();

  000bb	50		 push	 eax
  000bc	8d 8d 88 e1 ff
	ff		 lea	 ecx, DWORD PTR _script$[ebp]
  000c2	e8 00 00 00 00	 call	 ?GetNumber@CScanner@@QAEHH@Z ; CScanner::GetNumber
  000c7	8b f0		 mov	 esi, eax

; 80   : 			script.GetToken(); // {

  000c9	8d 8d 88 e1 ff
	ff		 lea	 ecx, DWORD PTR _script$[ebp]
  000cf	6a 00		 push	 0
  000d1	89 b5 80 e1 ff
	ff		 mov	 DWORD PTR _nJob$1$[ebp], esi
  000d7	e8 00 00 00 00	 call	 ?GetToken@CScript@@UAEHH@Z ; CScript::GetToken

; 81   : 			script.GetToken(); // sex

  000dc	6a 00		 push	 0
  000de	8d 8d 88 e1 ff
	ff		 lea	 ecx, DWORD PTR _script$[ebp]
  000e4	e8 00 00 00 00	 call	 ?GetToken@CScript@@UAEHH@Z ; CScript::GetToken
  000e9	33 ff		 xor	 edi, edi
  000eb	89 bd 84 e1 ff
	ff		 mov	 DWORD PTR tv491[ebp], edi
  000f1	0f 1f 40 00 66
	66 66 0f 1f 84
	00 00 00 00 00	 npad	 15
$LL4@LoadJobIte:
; File C:\Program Files\Microsoft Visual Studio\2022\Professional\VC\Tools\MSVC\14.44.35207\atlmfc\include\cstringt.h

; 184  : 		return _mbscmp( reinterpret_cast< const unsigned char* >( pszA ), reinterpret_cast< const unsigned char* >( pszB ) );

  00100	68 00 00 00 00	 push	 OFFSET ??_C@_01CELHOKLL@?$HN@
  00105	ff b5 a8 e1 ff
	ff		 push	 DWORD PTR _script$[ebp+32]
  0010b	e8 00 00 00 00	 call	 __mbscmp
  00110	83 c4 08	 add	 esp, 8

; 2571 : 		return( str1.Compare( psz2 ) != 0 );

  00113	85 c0		 test	 eax, eax
; File C:\IAGOS\server\v18\Source\Source\_Common\ProjectCmn.cpp

; 83   : 			while( script.Token != _T( "}" ) )

  00115	0f 84 1d 01 00
	00		 je	 $LN5@LoadJobIte
; File C:\Program Files\Microsoft Visual Studio\2022\Professional\VC\Tools\MSVC\14.44.35207\atlmfc\include\cstringt.h

; 184  : 		return _mbscmp( reinterpret_cast< const unsigned char* >( pszA ), reinterpret_cast< const unsigned char* >( pszB ) );

  0011b	68 00 00 00 00	 push	 OFFSET ??_C@_03OMLNFKE@sex@
  00120	ff b5 a8 e1 ff
	ff		 push	 DWORD PTR _script$[ebp+32]
  00126	e8 00 00 00 00	 call	 __mbscmp
  0012b	83 c4 08	 add	 esp, 8

; 2490 : 		return(str1.Compare(psz2) == 0);

  0012e	85 c0		 test	 eax, eax
; File C:\IAGOS\server\v18\Source\Source\_Common\ProjectCmn.cpp

; 85   : 				if( script.Token == _T( "sex" ) )

  00130	75 7d		 jne	 SHORT $LN85@LoadJobIte

; 86   : 				{
; 87   : 					nSex = script.GetNumber();

  00132	50		 push	 eax
  00133	8d 8d 88 e1 ff
	ff		 lea	 ecx, DWORD PTR _script$[ebp]
  00139	e8 00 00 00 00	 call	 ?GetNumber@CScanner@@QAEHH@Z ; CScanner::GetNumber

; 88   : 					script.GetToken(); // {

  0013e	6a 00		 push	 0
  00140	8d 8d 88 e1 ff
	ff		 lea	 ecx, DWORD PTR _script$[ebp]
  00146	8b d8		 mov	 ebx, eax
  00148	e8 00 00 00 00	 call	 ?GetToken@CScript@@UAEHH@Z ; CScript::GetToken

; 89   : 					i = 0; nItem = script.GetNumber();

  0014d	33 f6		 xor	 esi, esi
  0014f	8d 8d 88 e1 ff
	ff		 lea	 ecx, DWORD PTR _script$[ebp]
  00155	56		 push	 esi
  00156	e8 00 00 00 00	 call	 ?GetNumber@CScanner@@QAEHH@Z ; CScanner::GetNumber
$LN115@LoadJobIte:
; File C:\Program Files\Microsoft Visual Studio\2022\Professional\VC\Tools\MSVC\14.44.35207\atlmfc\include\cstringt.h

; 184  : 		return _mbscmp( reinterpret_cast< const unsigned char* >( pszA ), reinterpret_cast< const unsigned char* >( pszB ) );

  0015b	68 00 00 00 00	 push	 OFFSET ??_C@_01CELHOKLL@?$HN@
  00160	ff b5 a8 e1 ff
	ff		 push	 DWORD PTR _script$[ebp+32]
  00166	8b f8		 mov	 edi, eax
  00168	e8 00 00 00 00	 call	 __mbscmp
  0016d	83 c4 08	 add	 esp, 8

; 2571 : 		return( str1.Compare( psz2 ) != 0 );

  00170	85 c0		 test	 eax, eax
; File C:\IAGOS\server\v18\Source\Source\_Common\ProjectCmn.cpp

; 90   : 					while( script.Token != _T( "}" ) )

  00172	74 29		 je	 SHORT $LN112@LoadJobIte

; 91   : 					{
; 92   : 						m_jobItem[ nJob ].adwMale[ i ][ nSex ] = nItem;

  00174	6b 85 80 e1 ff
	ff 49		 imul	 eax, DWORD PTR _nJob$1$[ebp], 73
  0017b	8b 8d 7c e1 ff
	ff		 mov	 ecx, DWORD PTR _this$GSCopy$1$[ebp]

; 93   : 						nItem = script.GetNumber();

  00181	6a 00		 push	 0
  00183	03 c6		 add	 eax, esi
  00185	8d 04 43	 lea	 eax, DWORD PTR [ebx+eax*2]
  00188	89 bc 81 6c fe
	04 00		 mov	 DWORD PTR [ecx+eax*4+327276], edi
  0018f	8d 8d 88 e1 ff
	ff		 lea	 ecx, DWORD PTR _script$[ebp]
  00195	e8 00 00 00 00	 call	 ?GetNumber@CScanner@@QAEHH@Z ; CScanner::GetNumber

; 94   : 						i++;

  0019a	46		 inc	 esi

; 95   : 					} 

  0019b	eb be		 jmp	 SHORT $LN115@LoadJobIte
$LN112@LoadJobIte:
  0019d	8b 9d 7c e1 ff
	ff		 mov	 ebx, DWORD PTR _this$GSCopy$1$[ebp]
  001a3	8b b5 80 e1 ff
	ff		 mov	 esi, DWORD PTR _nJob$1$[ebp]
  001a9	8b bd 84 e1 ff
	ff		 mov	 edi, DWORD PTR tv491[ebp]
$LN85@LoadJobIte:
; File C:\Program Files\Microsoft Visual Studio\2022\Professional\VC\Tools\MSVC\14.44.35207\atlmfc\include\cstringt.h

; 184  : 		return _mbscmp( reinterpret_cast< const unsigned char* >( pszA ), reinterpret_cast< const unsigned char* >( pszB ) );

  001af	68 00 00 00 00	 push	 OFFSET ??_C@_04NHONDGDE@item@
  001b4	ff b5 a8 e1 ff
	ff		 push	 DWORD PTR _script$[ebp+32]
  001ba	e8 00 00 00 00	 call	 __mbscmp
  001bf	83 c4 08	 add	 esp, 8

; 2490 : 		return(str1.Compare(psz2) == 0);

  001c2	85 c0		 test	 eax, eax
; File C:\IAGOS\server\v18\Source\Source\_Common\ProjectCmn.cpp

; 97   : 				if( script.Token == _T( "item" ) )

  001c4	75 5a		 jne	 SHORT $LN11@LoadJobIte

; 98   : 				{
; 99   : 					m_jobItem[ nJob ].beginItem[ j ].dwItemType = script.GetNumber();

  001c6	69 f6 48 02 00
	00		 imul	 esi, esi, 584
  001cc	8d 8d 88 e1 ff
	ff		 lea	 ecx, DWORD PTR _script$[ebp]
  001d2	50		 push	 eax
  001d3	03 fe		 add	 edi, esi
  001d5	e8 00 00 00 00	 call	 ?GetNumber@CScanner@@QAEHH@Z ; CScanner::GetNumber

; 100  : 					m_jobItem[ nJob ].beginItem[ j ].dwItemId   = script.GetNumber();

  001da	6a 00		 push	 0
  001dc	8d 8d 88 e1 ff
	ff		 lea	 ecx, DWORD PTR _script$[ebp]
  001e2	89 84 1f bc fe
	04 00		 mov	 DWORD PTR [edi+ebx+327356], eax
  001e9	e8 00 00 00 00	 call	 ?GetNumber@CScanner@@QAEHH@Z ; CScanner::GetNumber
  001ee	8b 8d 84 e1 ff
	ff		 mov	 ecx, DWORD PTR tv491[ebp]
  001f4	03 ce		 add	 ecx, esi

; 101  : 					m_jobItem[ nJob ].beginItem[ j ].dwNum      = script.GetNumber();

  001f6	6a 00		 push	 0
  001f8	89 84 19 c0 fe
	04 00		 mov	 DWORD PTR [ecx+ebx+327360], eax
  001ff	8d 8d 88 e1 ff
	ff		 lea	 ecx, DWORD PTR _script$[ebp]
  00205	e8 00 00 00 00	 call	 ?GetNumber@CScanner@@QAEHH@Z ; CScanner::GetNumber
  0020a	89 84 1f c4 fe
	04 00		 mov	 DWORD PTR [edi+ebx+327364], eax

; 102  : 					j++;

  00211	8b bd 84 e1 ff
	ff		 mov	 edi, DWORD PTR tv491[ebp]
  00217	83 c7 0c	 add	 edi, 12			; 0000000cH
  0021a	89 bd 84 e1 ff
	ff		 mov	 DWORD PTR tv491[ebp], edi
$LN11@LoadJobIte:

; 103  : 				}
; 104  : 				script.GetToken();

  00220	6a 00		 push	 0
  00222	8d 8d 88 e1 ff
	ff		 lea	 ecx, DWORD PTR _script$[ebp]
  00228	e8 00 00 00 00	 call	 ?GetToken@CScript@@UAEHH@Z ; CScript::GetToken

; 105  : 			}

  0022d	8b b5 80 e1 ff
	ff		 mov	 esi, DWORD PTR _nJob$1$[ebp]
  00233	e9 c8 fe ff ff	 jmp	 $LL4@LoadJobIte
$LN5@LoadJobIte:

; 106  : 		}
; 107  : 		script.GetToken();

  00238	6a 00		 push	 0
  0023a	8d 8d 88 e1 ff
	ff		 lea	 ecx, DWORD PTR _script$[ebp]
  00240	e8 00 00 00 00	 call	 ?GetToken@CScript@@UAEHH@Z ; CScript::GetToken
  00245	83 bd cc e9 ff
	ff 15		 cmp	 DWORD PTR _script$[ebp+2116], 21 ; 00000015H
  0024c	0f 85 4e fe ff
	ff		 jne	 $LL2@LoadJobIte
$LN105@LoadJobIte:

; 108  : 	}
; 109  : 	return TRUE;

  00252	be 01 00 00 00	 mov	 esi, 1
$LN14@LoadJobIte:
  00257	8d 8d 88 e1 ff
	ff		 lea	 ecx, DWORD PTR _script$[ebp]
  0025d	e8 00 00 00 00	 call	 ??1CScript@@UAE@XZ	; CScript::~CScript
  00262	8b c6		 mov	 eax, esi

; 110  : }

  00264	8b 4d f4	 mov	 ecx, DWORD PTR __$EHRec$[ebp]
  00267	64 89 0d 00 00
	00 00		 mov	 DWORD PTR fs:0, ecx
  0026e	59		 pop	 ecx
  0026f	5f		 pop	 edi
  00270	5e		 pop	 esi
  00271	5b		 pop	 ebx
  00272	8b 4d f0	 mov	 ecx, DWORD PTR __$ArrayPad$[ebp]
  00275	33 cd		 xor	 ecx, ebp
  00277	e8 00 00 00 00	 call	 @__security_check_cookie@4
  0027c	8b e5		 mov	 esp, ebp
  0027e	5d		 pop	 ebp
  0027f	c2 04 00	 ret	 4
_TEXT	ENDS
;	COMDAT text$x
text$x	SEGMENT
__unwindfunclet$?LoadJobItem@CProject@@QAEHPBD@Z$0:
  00000	8d 8d 88 e1 ff
	ff		 lea	 ecx, DWORD PTR _script$[ebp]
  00006	e9 00 00 00 00	 jmp	 ??1CScript@@UAE@XZ	; CScript::~CScript
  0000b	cc		 int	 3
  0000c	cc		 int	 3
  0000d	cc		 int	 3
  0000e	cc		 int	 3
  0000f	cc		 int	 3
__ehhandler$?LoadJobItem@CProject@@QAEHPBD@Z:
  00010	90		 npad	 1
  00011	90		 npad	 1
  00012	8b 54 24 08	 mov	 edx, DWORD PTR [esp+8]
  00016	8d 42 0c	 lea	 eax, DWORD PTR [edx+12]
  00019	8b 8a 78 e1 ff
	ff		 mov	 ecx, DWORD PTR [edx-7816]
  0001f	33 c8		 xor	 ecx, eax
  00021	e8 00 00 00 00	 call	 @__security_check_cookie@4
  00026	8b 4a fc	 mov	 ecx, DWORD PTR [edx-4]
  00029	33 c8		 xor	 ecx, eax
  0002b	e8 00 00 00 00	 call	 @__security_check_cookie@4
  00030	b8 00 00 00 00	 mov	 eax, OFFSET __ehfuncinfo$?LoadJobItem@CProject@@QAEHPBD@Z
  00035	e9 00 00 00 00	 jmp	 ___CxxFrameHandler3
text$x	ENDS
?LoadJobItem@CProject@@QAEHPBD@Z ENDP			; CProject::LoadJobItem
; Function compile flags: /Ogtp
; File C:\IAGOS\server\v18\Source\Source\_Common\ProjectCmn.cpp
; File C:\Program Files\Microsoft Visual Studio\2022\Professional\VC\Tools\MSVC\14.44.35207\atlmfc\include\cstringt.h
; File C:\Program Files\Microsoft Visual Studio\2022\Professional\VC\Tools\MSVC\14.44.35207\atlmfc\include\atlsimpstr.h
; File C:\IAGOS\server\v18\Source\Source\_Common\ProjectCmn.cpp
; File C:\Program Files\Microsoft Visual Studio\2022\Professional\VC\Tools\MSVC\14.44.35207\include\utility
; File C:\IAGOS\server\v18\Source\Source\_Common\ProjectCmn.cpp
; File C:\Program Files\Microsoft Visual Studio\2022\Professional\VC\Tools\MSVC\14.44.35207\include\xtree
; File C:\IAGOS\server\v18\Source\Source\_Common\ProjectCmn.cpp
; File C:\Program Files\Microsoft Visual Studio\2022\Professional\VC\Tools\MSVC\14.44.35207\include\xtree
; File C:\Program Files\Microsoft Visual Studio\2022\Professional\VC\Tools\MSVC\14.44.35207\include\type_traits
; File C:\Program Files\Microsoft Visual Studio\2022\Professional\VC\Tools\MSVC\14.44.35207\include\xtree
; File C:\Program Files\Microsoft Visual Studio\2022\Professional\VC\Tools\MSVC\14.44.35207\include\type_traits
; File C:\Program Files\Microsoft Visual Studio\2022\Professional\VC\Tools\MSVC\14.44.35207\include\xtree
; File C:\Program Files\Microsoft Visual Studio\2022\Professional\VC\Tools\MSVC\14.44.35207\include\type_traits
; File C:\Program Files\Microsoft Visual Studio\2022\Professional\VC\Tools\MSVC\14.44.35207\include\xtree
; File C:\Program Files\Microsoft Visual Studio\2022\Professional\VC\Tools\MSVC\14.44.35207\include\type_traits
; File C:\Program Files\Microsoft Visual Studio\2022\Professional\VC\Tools\MSVC\14.44.35207\include\xtree
; File C:\Program Files\Microsoft Visual Studio\2022\Professional\VC\Tools\MSVC\14.44.35207\include\xmemory
; File C:\Program Files\Microsoft Visual Studio\2022\Professional\VC\Tools\MSVC\14.44.35207\include\xtree
; File C:\Program Files\Microsoft Visual Studio\2022\Professional\VC\Tools\MSVC\14.44.35207\include\xmemory
; File C:\Program Files\Microsoft Visual Studio\2022\Professional\VC\Tools\MSVC\14.44.35207\include\utility
; File C:\Program Files\Microsoft Visual Studio\2022\Professional\VC\Tools\MSVC\14.44.35207\include\xtree
; File C:\Program Files\Microsoft Visual Studio\2022\Professional\VC\Tools\MSVC\14.44.35207\include\utility
; File C:\Program Files\Microsoft Visual Studio\2022\Professional\VC\Tools\MSVC\14.44.35207\include\xtree
; File C:\Program Files\Microsoft Visual Studio\2022\Professional\VC\Tools\MSVC\14.44.35207\include\utility
; File C:\Program Files\Microsoft Visual Studio\2022\Professional\VC\Tools\MSVC\14.44.35207\include\xtree
; File C:\Program Files\Microsoft Visual Studio\2022\Professional\VC\Tools\MSVC\14.44.35207\include\utility
; File C:\Program Files\Microsoft Visual Studio\2022\Professional\VC\Tools\MSVC\14.44.35207\include\xtree
; File C:\IAGOS\server\v18\Source\Source\_Common\ProjectCmn.cpp
; File C:\Program Files\Microsoft Visual Studio\2022\Professional\VC\Tools\MSVC\14.44.35207\atlmfc\include\atlsimpstr.h
; File C:\Program Files\Microsoft Visual Studio\2022\Professional\VC\Tools\MSVC\14.44.35207\include\xtree
; File C:\IAGOS\server\v18\Source\Source\_Common\ProjectCmn.cpp
;	COMDAT ?LoadPropItemEx@CProject@@QAEHPBDPAV?$CFixedArray@UItemProp@@@@@Z
_TEXT	SEGMENT
$T4 = -8656						; size = 8
_lpszFileName$GSCopy$1$ = -8648				; size = 4
__Myhead$1$ = -8644					; size = 4
_this$GSCopy$1$ = -8640					; size = 4
_apObjProp$GSCopy$1$ = -8636				; size = 4
__Loc$1$ = -8632					; size = 4
$T1$sroa$1779$1$ = -8628				; size = 4
tv2384 = -8624						; size = 4
tv2388 = -8624						; size = 4
tv2392 = -8624						; size = 4
tv2396 = -8624						; size = 4
tv2400 = -8624						; size = 4
_this$1$ = -8624					; size = 4
_scanner$ = -8620					; size = 7784
_prop$ = -836						; size = 792
$T5 = -44						; size = 28
__$ArrayPad$ = -16					; size = 4
__$EHRec$ = -12						; size = 12
_lpszFileName$ = 8					; size = 4
_apObjProp$ = 12					; size = 4
?LoadPropItemEx@CProject@@QAEHPBDPAV?$CFixedArray@UItemProp@@@@@Z PROC ; CProject::LoadPropItemEx, COMDAT
; _this$ = ecx

; 622  : {

  00000	55		 push	 ebp
  00001	8b ec		 mov	 ebp, esp
  00003	6a ff		 push	 -1
  00005	68 00 00 00 00	 push	 __ehhandler$?LoadPropItemEx@CProject@@QAEHPBDPAV?$CFixedArray@UItemProp@@@@@Z
  0000a	64 a1 00 00 00
	00		 mov	 eax, DWORD PTR fs:0
  00010	50		 push	 eax
  00011	b8 c4 21 00 00	 mov	 eax, 8644		; 000021c4H
  00016	e8 00 00 00 00	 call	 __chkstk
  0001b	a1 00 00 00 00	 mov	 eax, DWORD PTR ___security_cookie
  00020	33 c5		 xor	 eax, ebp
  00022	89 45 f0	 mov	 DWORD PTR __$ArrayPad$[ebp], eax
  00025	53		 push	 ebx
  00026	56		 push	 esi
  00027	57		 push	 edi
  00028	50		 push	 eax
  00029	8d 45 f4	 lea	 eax, DWORD PTR __$EHRec$[ebp]
  0002c	64 a3 00 00 00
	00		 mov	 DWORD PTR fs:0, eax
  00032	89 8d 40 de ff
	ff		 mov	 DWORD PTR _this$GSCopy$1$[ebp], ecx
  00038	8b 7d 08	 mov	 edi, DWORD PTR _lpszFileName$[ebp]

; 623  : 	CScript scanner;

  0003b	8d 8d 54 de ff
	ff		 lea	 ecx, DWORD PTR _scanner$[ebp]
  00041	8b 75 0c	 mov	 esi, DWORD PTR _apObjProp$[ebp]
  00044	6a 00		 push	 0
  00046	89 bd 38 de ff
	ff		 mov	 DWORD PTR _lpszFileName$GSCopy$1$[ebp], edi
  0004c	89 b5 44 de ff
	ff		 mov	 DWORD PTR _apObjProp$GSCopy$1$[ebp], esi
  00052	e8 00 00 00 00	 call	 ??0CScript@@QAE@H@Z	; CScript::CScript

; 624  : 	if( scanner.Load( lpszFileName, FALSE ) == FALSE )

  00057	6a 00		 push	 0
  00059	6a 00		 push	 0
  0005b	57		 push	 edi
  0005c	8d 8d 54 de ff
	ff		 lea	 ecx, DWORD PTR _scanner$[ebp]
  00062	c7 45 fc 00 00
	00 00		 mov	 DWORD PTR __$EHRec$[ebp+8], 0
  00069	e8 00 00 00 00	 call	 ?Load@CScript@@QAEHPBDHH@Z ; CScript::Load
  0006e	85 c0		 test	 eax, eax
  00070	0f 84 0b 0d 00
	00		 je	 $LN22@LoadPropIt

; 625  : 	{
; 626  : 	#ifdef __CLIENT
; 627  : 		MessageBox( g_Neuz.GetSafeHwnd(), "LoadPropItem", "flyff", MB_OK );
; 628  : 		ADDERRORMSG( "LoadPropItem file open error" );
; 629  : 	#endif //__CLIENT
; 630  : 		return FALSE;
; 631  : 	}
; 632  : 
; 633  : 	ItemProp prop;
; 634  : 	ZeroMemory( &prop, sizeof(prop) );

  00076	68 18 03 00 00	 push	 792			; 00000318H
  0007b	8d 85 bc fc ff
	ff		 lea	 eax, DWORD PTR _prop$[ebp]
  00081	6a 00		 push	 0
  00083	50		 push	 eax
  00084	e8 00 00 00 00	 call	 _memset
  00089	83 c4 0c	 add	 esp, 12			; 0000000cH

; 635  : 
; 636  : 	int nVer = scanner.GetNumber();	// version

  0008c	8d 8d 54 de ff
	ff		 lea	 ecx, DWORD PTR _scanner$[ebp]
  00092	6a 00		 push	 0
  00094	e8 00 00 00 00	 call	 ?GetNumber@CScanner@@QAEHH@Z ; CScanner::GetNumber

; 637  : 	while( scanner.tok != FINISHED )

  00099	83 bd 98 e6 ff
	ff 15		 cmp	 DWORD PTR _scanner$[ebp+2116], 21 ; 00000015H
  000a0	8b d8		 mov	 ebx, eax
  000a2	0f 84 aa 0c 00
	00		 je	 $LN3@LoadPropIt
  000a8	0f 1f 84 00 00
	00 00 00	 npad	 8
$LL2@LoadPropIt:

; 638  : 	{
; 639  : 		DWORD dwID = scanner.GetNumber();	// IID_

  000b0	6a 00		 push	 0
  000b2	8d 8d 54 de ff
	ff		 lea	 ecx, DWORD PTR _scanner$[ebp]
  000b8	e8 00 00 00 00	 call	 ?GetNumber@CScanner@@QAEHH@Z ; CScanner::GetNumber

; 640  : 		if( dwID <= 0 )

  000bd	85 c0		 test	 eax, eax
  000bf	0f 84 9b 0c 00
	00		 je	 $LN237@LoadPropIt

; 643  : 			return FALSE;
; 644  : 		}
; 645  : 
; 646  : //#ifdef __CLIENT
; 647  : 		prop.nVer	= nVer;
; 648  : //#endif	// __CLIENT
; 649  : 		prop.dwID = dwID;
; 650  : 		scanner.GetToken();

  000c5	6a 00		 push	 0
  000c7	8d 8d 54 de ff
	ff		 lea	 ecx, DWORD PTR _scanner$[ebp]
  000cd	89 9d 40 ff ff
	ff		 mov	 DWORD PTR _prop$[ebp+644], ebx
  000d3	89 85 bc fc ff
	ff		 mov	 DWORD PTR _prop$[ebp], eax
  000d9	e8 00 00 00 00	 call	 ?GetToken@CScript@@UAEHH@Z ; CScript::GetToken
; File C:\Program Files\Microsoft Visual Studio\2022\Professional\VC\Tools\MSVC\14.44.35207\atlmfc\include\cstringt.h

; 1868 : 		PCXSTR psz = this->GetString();

  000de	8b b5 74 de ff
	ff		 mov	 esi, DWORD PTR _scanner$[ebp+32]

; 1869 : 		PCXSTR pszLast = NULL;

  000e4	33 ff		 xor	 edi, edi

; 1870 : 
; 1871 : 		while( *psz != 0 )

  000e6	8a 06		 mov	 al, BYTE PTR [esi]
  000e8	84 c0		 test	 al, al
  000ea	0f 84 7f 00 00
	00		 je	 $LN59@LoadPropIt
$LL31@LoadPropIt:

; 177  : 		return _ismbcspace( ch );

  000f0	0f be c0	 movsx	 eax, al
  000f3	50		 push	 eax
  000f4	e8 00 00 00 00	 call	 __ismbcspace
  000f9	83 c4 04	 add	 esp, 4

; 1873 : 			if( StringTraits::IsSpace( *psz ) )

  000fc	85 c0		 test	 eax, eax
  000fe	74 0b		 je	 SHORT $LN33@LoadPropIt

; 1874 : 			{
; 1875 : 				if( pszLast == NULL )
; 1876 : 					pszLast = psz;
; 1877 : 			}

  00100	85 ff		 test	 edi, edi
  00102	8b c6		 mov	 eax, esi
  00104	0f 45 c7	 cmovne	 eax, edi
  00107	8b f8		 mov	 edi, eax
  00109	eb 02		 jmp	 SHORT $LN34@LoadPropIt
$LN33@LoadPropIt:

; 1878 : 			else
; 1879 : 			{
; 1880 : 				pszLast = NULL;

  0010b	33 ff		 xor	 edi, edi
$LN34@LoadPropIt:

; 167  : 		return reinterpret_cast< char* >( _mbsinc( reinterpret_cast< const unsigned char* >( p ) ) );

  0010d	56		 push	 esi
  0010e	e8 00 00 00 00	 call	 __mbsinc

; 1882 : 			psz = StringTraits::CharNext( psz );

  00113	8b f0		 mov	 esi, eax

; 167  : 		return reinterpret_cast< char* >( _mbsinc( reinterpret_cast< const unsigned char* >( p ) ) );

  00115	83 c4 04	 add	 esp, 4

; 1871 : 		while( *psz != 0 )

  00118	8a 06		 mov	 al, BYTE PTR [esi]
  0011a	84 c0		 test	 al, al
  0011c	75 d2		 jne	 SHORT $LL31@LoadPropIt

; 1883 : 		}
; 1884 : 
; 1885 : 		if( pszLast != NULL )

  0011e	85 ff		 test	 edi, edi
  00120	74 47		 je	 SHORT $LN261@LoadPropIt

; 1886 : 		{
; 1887 : 			// truncate at trailing space start
; 1888 : 			int iLast = int( pszLast - this->GetString() );

  00122	8b 95 74 de ff
	ff		 mov	 edx, DWORD PTR _scanner$[ebp+32]
  00128	2b fa		 sub	 edi, edx
; File C:\Program Files\Microsoft Visual Studio\2022\Professional\VC\Tools\MSVC\14.44.35207\atlmfc\include\atlsimpstr.h

; 808  : 		if (nLength < 0)

  0012a	0f 88 7e 0c 00
	00		 js	 $LN238@LoadPropIt

; 810  : 
; 811  : 		CStringData* pOldData = GetData();
; 812  : 		int nShared = 1-pOldData->nRefs;  // nShared < 0 means true, >= 0 means false
; 813  : 		int nTooShort = pOldData->nAllocLength-nLength;  // nTooShort < 0 means true, >= 0 means false

  00130	8b 42 f8	 mov	 eax, DWORD PTR [edx-8]
  00133	b9 01 00 00 00	 mov	 ecx, 1
  00138	2b 4a fc	 sub	 ecx, DWORD PTR [edx-4]
  0013b	2b c7		 sub	 eax, edi

; 814  : 		if( (nShared|nTooShort) < 0 )  // If either sign bit is set (i.e. either is less than zero), we need to copy data

  0013d	0b c1		 or	 eax, ecx
  0013f	7d 12		 jge	 SHORT $LN48@LoadPropIt

; 815  : 		{
; 816  : 			PrepareWrite2( nLength );

  00141	57		 push	 edi
  00142	8d 8d 74 de ff
	ff		 lea	 ecx, DWORD PTR _scanner$[ebp+32]
  00148	e8 00 00 00 00	 call	 ?PrepareWrite2@?$CSimpleStringT@D$0A@@ATL@@AAEXH@Z ; ATL::CSimpleStringT<char,0>::PrepareWrite2
  0014d	8b 95 74 de ff
	ff		 mov	 edx, DWORD PTR _scanner$[ebp+32]
$LN48@LoadPropIt:

; 875  : 		if( nLength < 0 || nLength > GetData()->nAllocLength)

  00153	3b 7a f8	 cmp	 edi, DWORD PTR [edx-8]
  00156	0f 8f 52 0c 00
	00		 jg	 $LN238@LoadPropIt

; 876  : 			AtlThrow(E_INVALIDARG);
; 877  : 
; 878  : 		GetData()->nDataLength = nLength;

  0015c	89 7a f4	 mov	 DWORD PTR [edx-12], edi

; 879  : 		m_pszData[nLength] = 0;

  0015f	8b 85 74 de ff
	ff		 mov	 eax, DWORD PTR _scanner$[ebp+32]
  00165	c6 04 38 00	 mov	 BYTE PTR [eax+edi], 0
$LN261@LoadPropIt:
; File C:\IAGOS\server\v18\Source\Source\_Common\ProjectCmn.cpp

; 653  : 		_tcscpy( prop.szName, (LPCSTR)scanner.Token );

  00169	8b b5 74 de ff
	ff		 mov	 esi, DWORD PTR _scanner$[ebp+32]
$LN59@LoadPropIt:
  0016f	8d 8d c0 fc ff
	ff		 lea	 ecx, DWORD PTR _prop$[ebp+4]
  00175	2b ce		 sub	 ecx, esi
$LL18@LoadPropIt:
  00177	8a 06		 mov	 al, BYTE PTR [esi]
  00179	8d 76 01	 lea	 esi, DWORD PTR [esi+1]
  0017c	88 44 31 ff	 mov	 BYTE PTR [ecx+esi-1], al
  00180	84 c0		 test	 al, al
  00182	75 f3		 jne	 SHORT $LL18@LoadPropIt

; 654  : 
; 655  :  		prop.dwNum				= scanner.GetNumber();            

  00184	6a 00		 push	 0
  00186	8d 8d 54 de ff
	ff		 lea	 ecx, DWORD PTR _scanner$[ebp]
  0018c	e8 00 00 00 00	 call	 ?GetNumber@CScanner@@QAEHH@Z ; CScanner::GetNumber

; 656  : 		prop.dwPackMax			= scanner.GetNumber();      

  00191	6a 00		 push	 0
  00193	8d 8d 54 de ff
	ff		 lea	 ecx, DWORD PTR _scanner$[ebp]
  00199	89 85 24 fd ff
	ff		 mov	 DWORD PTR _prop$[ebp+104], eax
  0019f	e8 00 00 00 00	 call	 ?GetNumber@CScanner@@QAEHH@Z ; CScanner::GetNumber

; 657  : 		prop.dwItemKind1		= scanner.GetNumber();      

  001a4	6a 00		 push	 0
  001a6	8d 8d 54 de ff
	ff		 lea	 ecx, DWORD PTR _scanner$[ebp]
  001ac	89 85 28 fd ff
	ff		 mov	 DWORD PTR _prop$[ebp+108], eax
  001b2	e8 00 00 00 00	 call	 ?GetNumber@CScanner@@QAEHH@Z ; CScanner::GetNumber

; 658  : 		prop.dwItemKind2		= scanner.GetNumber();      

  001b7	6a 00		 push	 0
  001b9	8d 8d 54 de ff
	ff		 lea	 ecx, DWORD PTR _scanner$[ebp]
  001bf	89 85 2c fd ff
	ff		 mov	 DWORD PTR _prop$[ebp+112], eax
  001c5	e8 00 00 00 00	 call	 ?GetNumber@CScanner@@QAEHH@Z ; CScanner::GetNumber

; 659  : 		prop.dwItemKind3		= scanner.GetNumber();      

  001ca	6a 00		 push	 0
  001cc	8d 8d 54 de ff
	ff		 lea	 ecx, DWORD PTR _scanner$[ebp]
  001d2	89 85 30 fd ff
	ff		 mov	 DWORD PTR _prop$[ebp+116], eax
  001d8	e8 00 00 00 00	 call	 ?GetNumber@CScanner@@QAEHH@Z ; CScanner::GetNumber

; 660  : 		prop.dwItemJob			= scanner.GetNumber();      

  001dd	6a 00		 push	 0
  001df	8d 8d 54 de ff
	ff		 lea	 ecx, DWORD PTR _scanner$[ebp]
  001e5	89 85 34 fd ff
	ff		 mov	 DWORD PTR _prop$[ebp+120], eax
  001eb	e8 00 00 00 00	 call	 ?GetNumber@CScanner@@QAEHH@Z ; CScanner::GetNumber

; 661  : 		prop.bPermanence		= scanner.GetNumber();      

  001f0	6a 00		 push	 0
  001f2	8d 8d 54 de ff
	ff		 lea	 ecx, DWORD PTR _scanner$[ebp]
  001f8	89 85 38 fd ff
	ff		 mov	 DWORD PTR _prop$[ebp+124], eax
  001fe	e8 00 00 00 00	 call	 ?GetNumber@CScanner@@QAEHH@Z ; CScanner::GetNumber

; 662  : 		prop.dwUseable			= scanner.GetNumber();      

  00203	6a 00		 push	 0
  00205	8d 8d 54 de ff
	ff		 lea	 ecx, DWORD PTR _scanner$[ebp]
  0020b	89 85 3c fd ff
	ff		 mov	 DWORD PTR _prop$[ebp+128], eax
  00211	e8 00 00 00 00	 call	 ?GetNumber@CScanner@@QAEHH@Z ; CScanner::GetNumber

; 663  : 		prop.dwItemSex			= scanner.GetNumber();      

  00216	6a 00		 push	 0
  00218	8d 8d 54 de ff
	ff		 lea	 ecx, DWORD PTR _scanner$[ebp]
  0021e	89 85 40 fd ff
	ff		 mov	 DWORD PTR _prop$[ebp+132], eax
  00224	e8 00 00 00 00	 call	 ?GetNumber@CScanner@@QAEHH@Z ; CScanner::GetNumber

; 664  : 		prop.dwCost				= scanner.GetNumber();      

  00229	6a 00		 push	 0
  0022b	8d 8d 54 de ff
	ff		 lea	 ecx, DWORD PTR _scanner$[ebp]
  00231	89 85 44 fd ff
	ff		 mov	 DWORD PTR _prop$[ebp+136], eax
  00237	e8 00 00 00 00	 call	 ?GetNumber@CScanner@@QAEHH@Z ; CScanner::GetNumber

; 665  : 		prop.dwEndurance		= scanner.GetNumber(); 

  0023c	6a 00		 push	 0
  0023e	8d 8d 54 de ff
	ff		 lea	 ecx, DWORD PTR _scanner$[ebp]
  00244	89 85 48 fd ff
	ff		 mov	 DWORD PTR _prop$[ebp+140], eax
  0024a	e8 00 00 00 00	 call	 ?GetNumber@CScanner@@QAEHH@Z ; CScanner::GetNumber

; 666  : 		prop.nAbrasion			= scanner.GetNumber();

  0024f	6a 00		 push	 0
  00251	8d 8d 54 de ff
	ff		 lea	 ecx, DWORD PTR _scanner$[ebp]
  00257	89 85 4c fd ff
	ff		 mov	 DWORD PTR _prop$[ebp+144], eax
  0025d	e8 00 00 00 00	 call	 ?GetNumber@CScanner@@QAEHH@Z ; CScanner::GetNumber

; 667  : 		prop.nMaxRepair			= scanner.GetNumber();

  00262	6a 00		 push	 0
  00264	8d 8d 54 de ff
	ff		 lea	 ecx, DWORD PTR _scanner$[ebp]
  0026a	89 85 54 fd ff
	ff		 mov	 DWORD PTR _prop$[ebp+152], eax
  00270	e8 00 00 00 00	 call	 ?GetNumber@CScanner@@QAEHH@Z ; CScanner::GetNumber

; 668  : 		prop.dwHanded			= scanner.GetNumber();      

  00275	6a 00		 push	 0
  00277	8d 8d 54 de ff
	ff		 lea	 ecx, DWORD PTR _scanner$[ebp]
  0027d	89 85 58 fd ff
	ff		 mov	 DWORD PTR _prop$[ebp+156], eax
  00283	e8 00 00 00 00	 call	 ?GetNumber@CScanner@@QAEHH@Z ; CScanner::GetNumber

; 669  : 		prop.dwFlag				= scanner.GetNumber();      

  00288	6a 00		 push	 0
  0028a	8d 8d 54 de ff
	ff		 lea	 ecx, DWORD PTR _scanner$[ebp]
  00290	89 85 5c fd ff
	ff		 mov	 DWORD PTR _prop$[ebp+160], eax
  00296	e8 00 00 00 00	 call	 ?GetNumber@CScanner@@QAEHH@Z ; CScanner::GetNumber

; 670  : 		prop.dwParts			= scanner.GetNumber();      

  0029b	6a 00		 push	 0
  0029d	8d 8d 54 de ff
	ff		 lea	 ecx, DWORD PTR _scanner$[ebp]
  002a3	89 85 60 fd ff
	ff		 mov	 DWORD PTR _prop$[ebp+164], eax
  002a9	e8 00 00 00 00	 call	 ?GetNumber@CScanner@@QAEHH@Z ; CScanner::GetNumber

; 671  : 		prop.dwPartsub			= scanner.GetNumber();      

  002ae	6a 00		 push	 0
  002b0	8d 8d 54 de ff
	ff		 lea	 ecx, DWORD PTR _scanner$[ebp]
  002b6	89 85 64 fd ff
	ff		 mov	 DWORD PTR _prop$[ebp+168], eax
  002bc	e8 00 00 00 00	 call	 ?GetNumber@CScanner@@QAEHH@Z ; CScanner::GetNumber

; 672  : 		prop.bPartsFile			= scanner.GetNumber();      

  002c1	6a 00		 push	 0
  002c3	8d 8d 54 de ff
	ff		 lea	 ecx, DWORD PTR _scanner$[ebp]
  002c9	89 85 68 fd ff
	ff		 mov	 DWORD PTR _prop$[ebp+172], eax
  002cf	e8 00 00 00 00	 call	 ?GetNumber@CScanner@@QAEHH@Z ; CScanner::GetNumber

; 673  : 		prop.dwExclusive		= scanner.GetNumber();      

  002d4	6a 00		 push	 0
  002d6	8d 8d 54 de ff
	ff		 lea	 ecx, DWORD PTR _scanner$[ebp]
  002dc	89 85 6c fd ff
	ff		 mov	 DWORD PTR _prop$[ebp+176], eax
  002e2	e8 00 00 00 00	 call	 ?GetNumber@CScanner@@QAEHH@Z ; CScanner::GetNumber

; 674  : 		prop.dwBasePartsIgnore	= scanner.GetNumber();      

  002e7	6a 00		 push	 0
  002e9	8d 8d 54 de ff
	ff		 lea	 ecx, DWORD PTR _scanner$[ebp]
  002ef	89 85 70 fd ff
	ff		 mov	 DWORD PTR _prop$[ebp+180], eax
  002f5	e8 00 00 00 00	 call	 ?GetNumber@CScanner@@QAEHH@Z ; CScanner::GetNumber
  002fa	89 85 74 fd ff
	ff		 mov	 DWORD PTR _prop$[ebp+184], eax

; 675  : 		prop.dwItemLV			= scanner.GetNumber();      

  00300	6a 00		 push	 0
  00302	8d 8d 54 de ff
	ff		 lea	 ecx, DWORD PTR _scanner$[ebp]
  00308	e8 00 00 00 00	 call	 ?GetNumber@CScanner@@QAEHH@Z ; CScanner::GetNumber

; 676  : 		prop.dwItemRare			= scanner.GetNumber();   

  0030d	6a 00		 push	 0
  0030f	8d 8d 54 de ff
	ff		 lea	 ecx, DWORD PTR _scanner$[ebp]
  00315	89 85 78 fd ff
	ff		 mov	 DWORD PTR _prop$[ebp+188], eax
  0031b	e8 00 00 00 00	 call	 ?GetNumber@CScanner@@QAEHH@Z ; CScanner::GetNumber

; 677  : 		prop.dwShopAble			= scanner.GetNumber();

  00320	6a 00		 push	 0
  00322	8d 8d 54 de ff
	ff		 lea	 ecx, DWORD PTR _scanner$[ebp]
  00328	89 85 7c fd ff
	ff		 mov	 DWORD PTR _prop$[ebp+192], eax
  0032e	e8 00 00 00 00	 call	 ?GetNumber@CScanner@@QAEHH@Z ; CScanner::GetNumber

; 678  : 		prop.nLog				= scanner.GetNumber();

  00333	6a 00		 push	 0
  00335	8d 8d 54 de ff
	ff		 lea	 ecx, DWORD PTR _scanner$[ebp]
  0033b	89 85 80 fd ff
	ff		 mov	 DWORD PTR _prop$[ebp+196], eax
  00341	e8 00 00 00 00	 call	 ?GetNumber@CScanner@@QAEHH@Z ; CScanner::GetNumber

; 679  : 		prop.bCharged			= scanner.GetNumber();

  00346	6a 00		 push	 0
  00348	8d 8d 54 de ff
	ff		 lea	 ecx, DWORD PTR _scanner$[ebp]
  0034e	89 85 50 fd ff
	ff		 mov	 DWORD PTR _prop$[ebp+148], eax
  00354	e8 00 00 00 00	 call	 ?GetNumber@CScanner@@QAEHH@Z ; CScanner::GetNumber

; 680  : 		prop.bCharged	= ( prop.bCharged != 1? 0: 1 );

  00359	48		 dec	 eax

; 681  : 		prop.dwLinkKindBullet	= scanner.GetNumber();      

  0035a	8d 8d 54 de ff
	ff		 lea	 ecx, DWORD PTR _scanner$[ebp]
  00360	f7 d8		 neg	 eax
  00362	6a 00		 push	 0
  00364	1b c0		 sbb	 eax, eax
  00366	40		 inc	 eax
  00367	89 85 a8 fd ff
	ff		 mov	 DWORD PTR _prop$[ebp+236], eax
  0036d	e8 00 00 00 00	 call	 ?GetNumber@CScanner@@QAEHH@Z ; CScanner::GetNumber

; 682  : 		prop.dwLinkKind			= scanner.GetNumber();      

  00372	6a 00		 push	 0
  00374	8d 8d 54 de ff
	ff		 lea	 ecx, DWORD PTR _scanner$[ebp]
  0037a	89 85 98 fd ff
	ff		 mov	 DWORD PTR _prop$[ebp+220], eax
  00380	e8 00 00 00 00	 call	 ?GetNumber@CScanner@@QAEHH@Z ; CScanner::GetNumber

; 683  : 		prop.dwAbilityMin		= scanner.GetNumber();      

  00385	6a 00		 push	 0
  00387	8d 8d 54 de ff
	ff		 lea	 ecx, DWORD PTR _scanner$[ebp]
  0038d	89 85 9c fd ff
	ff		 mov	 DWORD PTR _prop$[ebp+224], eax
  00393	e8 00 00 00 00	 call	 ?GetNumber@CScanner@@QAEHH@Z ; CScanner::GetNumber

; 684  : 		prop.dwAbilityMax		= scanner.GetNumber();      

  00398	6a 00		 push	 0
  0039a	8d 8d 54 de ff
	ff		 lea	 ecx, DWORD PTR _scanner$[ebp]
  003a0	89 85 a0 fd ff
	ff		 mov	 DWORD PTR _prop$[ebp+228], eax
  003a6	e8 00 00 00 00	 call	 ?GetNumber@CScanner@@QAEHH@Z ; CScanner::GetNumber

; 685  : 		prop.eItemType			= static_cast<SAI79::ePropType>(scanner.GetNumber());

  003ab	6a 00		 push	 0
  003ad	8d 8d 54 de ff
	ff		 lea	 ecx, DWORD PTR _scanner$[ebp]
  003b3	89 85 a4 fd ff
	ff		 mov	 DWORD PTR _prop$[ebp+232], eax
  003b9	e8 00 00 00 00	 call	 ?GetNumber@CScanner@@QAEHH@Z ; CScanner::GetNumber

; 686  : 		prop.wItemEatk			= static_cast<short>(scanner.GetNumber());

  003be	6a 00		 push	 0
  003c0	8d 8d 54 de ff
	ff		 lea	 ecx, DWORD PTR _scanner$[ebp]
  003c6	89 85 ac fd ff
	ff		 mov	 DWORD PTR _prop$[ebp+240], eax
  003cc	e8 00 00 00 00	 call	 ?GetNumber@CScanner@@QAEHH@Z ; CScanner::GetNumber

; 687  : 		prop.dwParry			= scanner.GetNumber();

  003d1	6a 00		 push	 0
  003d3	8d 8d 54 de ff
	ff		 lea	 ecx, DWORD PTR _scanner$[ebp]
  003d9	66 89 85 b0 fd
	ff ff		 mov	 WORD PTR _prop$[ebp+244], ax
  003e0	e8 00 00 00 00	 call	 ?GetNumber@CScanner@@QAEHH@Z ; CScanner::GetNumber

; 688  : 		prop.dwblockRating		= scanner.GetNumber();

  003e5	6a 00		 push	 0
  003e7	8d 8d 54 de ff
	ff		 lea	 ecx, DWORD PTR _scanner$[ebp]
  003ed	89 85 b4 fd ff
	ff		 mov	 DWORD PTR _prop$[ebp+248], eax
  003f3	e8 00 00 00 00	 call	 ?GetNumber@CScanner@@QAEHH@Z ; CScanner::GetNumber

; 689  : 		prop.nAddSkillMin		= scanner.GetNumber();

  003f8	6a 00		 push	 0
  003fa	8d 8d 54 de ff
	ff		 lea	 ecx, DWORD PTR _scanner$[ebp]
  00400	89 85 b8 fd ff
	ff		 mov	 DWORD PTR _prop$[ebp+252], eax
  00406	e8 00 00 00 00	 call	 ?GetNumber@CScanner@@QAEHH@Z ; CScanner::GetNumber

; 690  : 		prop.nAddSkillMax		= scanner.GetNumber();

  0040b	6a 00		 push	 0
  0040d	8d 8d 54 de ff
	ff		 lea	 ecx, DWORD PTR _scanner$[ebp]
  00413	89 85 bc fd ff
	ff		 mov	 DWORD PTR _prop$[ebp+256], eax
  00419	e8 00 00 00 00	 call	 ?GetNumber@CScanner@@QAEHH@Z ; CScanner::GetNumber

; 691  : 		prop.dwAtkStyle			= scanner.GetNumber();      

  0041e	6a 00		 push	 0
  00420	8d 8d 54 de ff
	ff		 lea	 ecx, DWORD PTR _scanner$[ebp]
  00426	89 85 c0 fd ff
	ff		 mov	 DWORD PTR _prop$[ebp+260], eax
  0042c	e8 00 00 00 00	 call	 ?GetNumber@CScanner@@QAEHH@Z ; CScanner::GetNumber

; 692  : 		prop.dwWeaponType		= scanner.GetNumber();      

  00431	6a 00		 push	 0
  00433	8d 8d 54 de ff
	ff		 lea	 ecx, DWORD PTR _scanner$[ebp]
  00439	89 85 c4 fd ff
	ff		 mov	 DWORD PTR _prop$[ebp+264], eax
  0043f	e8 00 00 00 00	 call	 ?GetNumber@CScanner@@QAEHH@Z ; CScanner::GetNumber

; 693  : 		prop.dwItemAtkOrder1	= scanner.GetNumber();      	

  00444	6a 00		 push	 0
  00446	8d 8d 54 de ff
	ff		 lea	 ecx, DWORD PTR _scanner$[ebp]
  0044c	89 85 c8 fd ff
	ff		 mov	 DWORD PTR _prop$[ebp+268], eax
  00452	e8 00 00 00 00	 call	 ?GetNumber@CScanner@@QAEHH@Z ; CScanner::GetNumber

; 694  : 		prop.dwItemAtkOrder2	= scanner.GetNumber();      	

  00457	6a 00		 push	 0
  00459	8d 8d 54 de ff
	ff		 lea	 ecx, DWORD PTR _scanner$[ebp]
  0045f	89 85 cc fd ff
	ff		 mov	 DWORD PTR _prop$[ebp+272], eax
  00465	e8 00 00 00 00	 call	 ?GetNumber@CScanner@@QAEHH@Z ; CScanner::GetNumber
  0046a	89 85 d0 fd ff
	ff		 mov	 DWORD PTR _prop$[ebp+276], eax

; 695  : 		prop.dwItemAtkOrder3	= scanner.GetNumber();      	

  00470	8d 8d 54 de ff
	ff		 lea	 ecx, DWORD PTR _scanner$[ebp]
  00476	6a 00		 push	 0
  00478	e8 00 00 00 00	 call	 ?GetNumber@CScanner@@QAEHH@Z ; CScanner::GetNumber

; 696  : 		prop.dwItemAtkOrder4	= scanner.GetNumber();      	

  0047d	6a 00		 push	 0
  0047f	8d 8d 54 de ff
	ff		 lea	 ecx, DWORD PTR _scanner$[ebp]
  00485	89 85 d4 fd ff
	ff		 mov	 DWORD PTR _prop$[ebp+280], eax
  0048b	e8 00 00 00 00	 call	 ?GetNumber@CScanner@@QAEHH@Z ; CScanner::GetNumber

; 697  : 		prop.tmContinuousPain	= scanner.GetNumber();      

  00490	6a 00		 push	 0
  00492	8d 8d 54 de ff
	ff		 lea	 ecx, DWORD PTR _scanner$[ebp]
  00498	89 85 d8 fd ff
	ff		 mov	 DWORD PTR _prop$[ebp+284], eax
  0049e	e8 00 00 00 00	 call	 ?GetNumber@CScanner@@QAEHH@Z ; CScanner::GetNumber

; 698  : 		prop.nShellQuantity		= scanner.GetNumber();      

  004a3	6a 00		 push	 0
  004a5	8d 8d 54 de ff
	ff		 lea	 ecx, DWORD PTR _scanner$[ebp]
  004ab	89 85 dc fd ff
	ff		 mov	 DWORD PTR _prop$[ebp+288], eax
  004b1	e8 00 00 00 00	 call	 ?GetNumber@CScanner@@QAEHH@Z ; CScanner::GetNumber

; 699  : 		prop.dwRecoil			= scanner.GetNumber();      

  004b6	6a 00		 push	 0
  004b8	8d 8d 54 de ff
	ff		 lea	 ecx, DWORD PTR _scanner$[ebp]
  004be	89 85 84 fd ff
	ff		 mov	 DWORD PTR _prop$[ebp+200], eax
  004c4	e8 00 00 00 00	 call	 ?GetNumber@CScanner@@QAEHH@Z ; CScanner::GetNumber

; 700  : 		prop.dwLoadingTime		= scanner.GetNumber();      

  004c9	6a 00		 push	 0
  004cb	8d 8d 54 de ff
	ff		 lea	 ecx, DWORD PTR _scanner$[ebp]
  004d1	89 85 e0 fd ff
	ff		 mov	 DWORD PTR _prop$[ebp+292], eax
  004d7	e8 00 00 00 00	 call	 ?GetNumber@CScanner@@QAEHH@Z ; CScanner::GetNumber

; 701  : 		prop.nAdjHitRate		= scanner.GetNumber();      

  004dc	6a 00		 push	 0
  004de	8d 8d 54 de ff
	ff		 lea	 ecx, DWORD PTR _scanner$[ebp]
  004e4	89 85 e4 fd ff
	ff		 mov	 DWORD PTR _prop$[ebp+296], eax
  004ea	e8 00 00 00 00	 call	 ?GetNumber@CScanner@@QAEHH@Z ; CScanner::GetNumber

; 702  : 		prop.fAttackSpeed		= scanner.GetFloat();      

  004ef	6a 00		 push	 0
  004f1	8d 8d 54 de ff
	ff		 lea	 ecx, DWORD PTR _scanner$[ebp]
  004f7	89 85 e8 fd ff
	ff		 mov	 DWORD PTR _prop$[ebp+300], eax
  004fd	e8 00 00 00 00	 call	 ?GetFloat@CScanner@@QAEMH@Z ; CScanner::GetFloat

; 703  : 		prop.dwDmgShift			= scanner.GetNumber();      

  00502	6a 00		 push	 0
  00504	8d 8d 54 de ff
	ff		 lea	 ecx, DWORD PTR _scanner$[ebp]
  0050a	d9 9d ec fd ff
	ff		 fstp	 DWORD PTR _prop$[ebp+304]
  00510	e8 00 00 00 00	 call	 ?GetNumber@CScanner@@QAEHH@Z ; CScanner::GetNumber

; 704  : 		prop.dwAttackRange		= scanner.GetNumber();      

  00515	6a 00		 push	 0
  00517	8d 8d 54 de ff
	ff		 lea	 ecx, DWORD PTR _scanner$[ebp]
  0051d	89 85 f0 fd ff
	ff		 mov	 DWORD PTR _prop$[ebp+308], eax
  00523	e8 00 00 00 00	 call	 ?GetNumber@CScanner@@QAEHH@Z ; CScanner::GetNumber

; 705  : 		prop.nProbability		= scanner.GetNumber();      

  00528	6a 00		 push	 0
  0052a	8d 8d 54 de ff
	ff		 lea	 ecx, DWORD PTR _scanner$[ebp]
  00530	89 85 f4 fd ff
	ff		 mov	 DWORD PTR _prop$[ebp+312], eax
  00536	e8 00 00 00 00	 call	 ?GetNumber@CScanner@@QAEHH@Z ; CScanner::GetNumber

; 706  : 		prop.dwDestParam[0]		= scanner.GetNumber();      

  0053b	6a 00		 push	 0
  0053d	8d 8d 54 de ff
	ff		 lea	 ecx, DWORD PTR _scanner$[ebp]
  00543	89 85 f8 fd ff
	ff		 mov	 DWORD PTR _prop$[ebp+316], eax
  00549	e8 00 00 00 00	 call	 ?GetNumber@CScanner@@QAEHH@Z ; CScanner::GetNumber

; 707  : 		prop.dwDestParam[1]		= scanner.GetNumber();      

  0054e	6a 00		 push	 0
  00550	8d 8d 54 de ff
	ff		 lea	 ecx, DWORD PTR _scanner$[ebp]
  00556	89 85 fc fd ff
	ff		 mov	 DWORD PTR _prop$[ebp+320], eax
  0055c	e8 00 00 00 00	 call	 ?GetNumber@CScanner@@QAEHH@Z ; CScanner::GetNumber

; 708  : #ifdef __PROP_0827
; 709  : 		prop.dwDestParam[2]		= scanner.GetNumber();      

  00561	6a 00		 push	 0
  00563	8d 8d 54 de ff
	ff		 lea	 ecx, DWORD PTR _scanner$[ebp]
  00569	89 85 00 fe ff
	ff		 mov	 DWORD PTR _prop$[ebp+324], eax
  0056f	e8 00 00 00 00	 call	 ?GetNumber@CScanner@@QAEHH@Z ; CScanner::GetNumber

; 710  : #endif	// __PROP_0827
; 711  : 		prop.nAdjParamVal[0]	= scanner.GetNumber();      

  00574	6a 00		 push	 0
  00576	8d 8d 54 de ff
	ff		 lea	 ecx, DWORD PTR _scanner$[ebp]
  0057c	89 85 04 fe ff
	ff		 mov	 DWORD PTR _prop$[ebp+328], eax
  00582	e8 00 00 00 00	 call	 ?GetNumber@CScanner@@QAEHH@Z ; CScanner::GetNumber

; 712  : 		prop.nAdjParamVal[1]	= scanner.GetNumber();      

  00587	6a 00		 push	 0
  00589	8d 8d 54 de ff
	ff		 lea	 ecx, DWORD PTR _scanner$[ebp]
  0058f	89 85 08 fe ff
	ff		 mov	 DWORD PTR _prop$[ebp+332], eax
  00595	e8 00 00 00 00	 call	 ?GetNumber@CScanner@@QAEHH@Z ; CScanner::GetNumber

; 713  : #ifdef __PROP_0827
; 714  : 		prop.nAdjParamVal[2]	= scanner.GetNumber();      

  0059a	6a 00		 push	 0
  0059c	8d 8d 54 de ff
	ff		 lea	 ecx, DWORD PTR _scanner$[ebp]
  005a2	89 85 0c fe ff
	ff		 mov	 DWORD PTR _prop$[ebp+336], eax
  005a8	e8 00 00 00 00	 call	 ?GetNumber@CScanner@@QAEHH@Z ; CScanner::GetNumber

; 715  : #endif	// __PROP_0827
; 716  : 		prop.dwChgParamVal[0]	= scanner.GetNumber();      

  005ad	6a 00		 push	 0
  005af	8d 8d 54 de ff
	ff		 lea	 ecx, DWORD PTR _scanner$[ebp]
  005b5	89 85 10 fe ff
	ff		 mov	 DWORD PTR _prop$[ebp+340], eax
  005bb	e8 00 00 00 00	 call	 ?GetNumber@CScanner@@QAEHH@Z ; CScanner::GetNumber

; 717  : 		prop.dwChgParamVal[1]	= scanner.GetNumber();      

  005c0	6a 00		 push	 0
  005c2	8d 8d 54 de ff
	ff		 lea	 ecx, DWORD PTR _scanner$[ebp]
  005c8	89 85 14 fe ff
	ff		 mov	 DWORD PTR _prop$[ebp+344], eax
  005ce	e8 00 00 00 00	 call	 ?GetNumber@CScanner@@QAEHH@Z ; CScanner::GetNumber

; 718  : #ifdef __PROP_0827
; 719  : 		prop.dwChgParamVal[2]	= scanner.GetNumber();      

  005d3	6a 00		 push	 0
  005d5	8d 8d 54 de ff
	ff		 lea	 ecx, DWORD PTR _scanner$[ebp]
  005db	89 85 18 fe ff
	ff		 mov	 DWORD PTR _prop$[ebp+348], eax
  005e1	e8 00 00 00 00	 call	 ?GetNumber@CScanner@@QAEHH@Z ; CScanner::GetNumber

; 720  : #endif	// __PROP_0827
; 721  : 		prop.nDestData1[0]		= scanner.GetNumber();      

  005e6	6a 00		 push	 0
  005e8	8d 8d 54 de ff
	ff		 lea	 ecx, DWORD PTR _scanner$[ebp]
  005ee	89 85 1c fe ff
	ff		 mov	 DWORD PTR _prop$[ebp+352], eax
  005f4	e8 00 00 00 00	 call	 ?GetNumber@CScanner@@QAEHH@Z ; CScanner::GetNumber

; 722  : 		prop.nDestData1[1]		= scanner.GetNumber();   

  005f9	6a 00		 push	 0
  005fb	8d 8d 54 de ff
	ff		 lea	 ecx, DWORD PTR _scanner$[ebp]
  00601	89 85 20 fe ff
	ff		 mov	 DWORD PTR _prop$[ebp+356], eax
  00607	e8 00 00 00 00	 call	 ?GetNumber@CScanner@@QAEHH@Z ; CScanner::GetNumber

; 723  : 		prop.nDestData1[2]		= scanner.GetNumber();      

  0060c	6a 00		 push	 0
  0060e	8d 8d 54 de ff
	ff		 lea	 ecx, DWORD PTR _scanner$[ebp]
  00614	89 85 24 fe ff
	ff		 mov	 DWORD PTR _prop$[ebp+360], eax
  0061a	e8 00 00 00 00	 call	 ?GetNumber@CScanner@@QAEHH@Z ; CScanner::GetNumber

; 724  : 		prop.dwActiveSkill		= scanner.GetNumber();

  0061f	6a 00		 push	 0
  00621	8d 8d 54 de ff
	ff		 lea	 ecx, DWORD PTR _scanner$[ebp]
  00627	89 85 28 fe ff
	ff		 mov	 DWORD PTR _prop$[ebp+364], eax
  0062d	e8 00 00 00 00	 call	 ?GetNumber@CScanner@@QAEHH@Z ; CScanner::GetNumber

; 725  : 		prop.dwActiveSkillLv	= scanner.GetNumber();

  00632	6a 00		 push	 0
  00634	8d 8d 54 de ff
	ff		 lea	 ecx, DWORD PTR _scanner$[ebp]
  0063a	89 85 2c fe ff
	ff		 mov	 DWORD PTR _prop$[ebp+368], eax
  00640	e8 00 00 00 00	 call	 ?GetNumber@CScanner@@QAEHH@Z ; CScanner::GetNumber

; 726  : 		prop.dwActiveSkillRate	= scanner.GetNumber();      

  00645	6a 00		 push	 0
  00647	8d 8d 54 de ff
	ff		 lea	 ecx, DWORD PTR _scanner$[ebp]
  0064d	89 85 88 fd ff
	ff		 mov	 DWORD PTR _prop$[ebp+204], eax
  00653	e8 00 00 00 00	 call	 ?GetNumber@CScanner@@QAEHH@Z ; CScanner::GetNumber

; 727  : 		prop.dwReqMp			= scanner.GetNumber();      

  00658	6a 00		 push	 0
  0065a	8d 8d 54 de ff
	ff		 lea	 ecx, DWORD PTR _scanner$[ebp]
  00660	89 85 30 fe ff
	ff		 mov	 DWORD PTR _prop$[ebp+372], eax
  00666	e8 00 00 00 00	 call	 ?GetNumber@CScanner@@QAEHH@Z ; CScanner::GetNumber

; 728  : 		prop.dwReqFp			= scanner.GetNumber();      

  0066b	6a 00		 push	 0
  0066d	8d 8d 54 de ff
	ff		 lea	 ecx, DWORD PTR _scanner$[ebp]
  00673	89 85 34 fe ff
	ff		 mov	 DWORD PTR _prop$[ebp+376], eax
  00679	e8 00 00 00 00	 call	 ?GetNumber@CScanner@@QAEHH@Z ; CScanner::GetNumber

; 729  :         prop.dwReqDisLV			= scanner.GetNumber();      

  0067e	6a 00		 push	 0
  00680	8d 8d 54 de ff
	ff		 lea	 ecx, DWORD PTR _scanner$[ebp]
  00686	89 85 38 fe ff
	ff		 mov	 DWORD PTR _prop$[ebp+380], eax
  0068c	e8 00 00 00 00	 call	 ?GetNumber@CScanner@@QAEHH@Z ; CScanner::GetNumber

; 730  : 		prop.dwReSkill1			= scanner.GetNumber();

  00691	6a 00		 push	 0
  00693	8d 8d 54 de ff
	ff		 lea	 ecx, DWORD PTR _scanner$[ebp]
  00699	89 85 3c fe ff
	ff		 mov	 DWORD PTR _prop$[ebp+384], eax
  0069f	e8 00 00 00 00	 call	 ?GetNumber@CScanner@@QAEHH@Z ; CScanner::GetNumber

; 731  : 		prop.dwReSkillLevel1	= scanner.GetNumber();

  006a4	6a 00		 push	 0
  006a6	8d 8d 54 de ff
	ff		 lea	 ecx, DWORD PTR _scanner$[ebp]
  006ac	89 85 40 fe ff
	ff		 mov	 DWORD PTR _prop$[ebp+388], eax
  006b2	e8 00 00 00 00	 call	 ?GetNumber@CScanner@@QAEHH@Z ; CScanner::GetNumber

; 732  : 		prop.dwReSkill2			= scanner.GetNumber();

  006b7	6a 00		 push	 0
  006b9	8d 8d 54 de ff
	ff		 lea	 ecx, DWORD PTR _scanner$[ebp]
  006bf	89 85 44 fe ff
	ff		 mov	 DWORD PTR _prop$[ebp+392], eax
  006c5	e8 00 00 00 00	 call	 ?GetNumber@CScanner@@QAEHH@Z ; CScanner::GetNumber

; 733  : 		prop.dwReSkillLevel2	= scanner.GetNumber();

  006ca	6a 00		 push	 0
  006cc	8d 8d 54 de ff
	ff		 lea	 ecx, DWORD PTR _scanner$[ebp]
  006d2	89 85 48 fe ff
	ff		 mov	 DWORD PTR _prop$[ebp+396], eax
  006d8	e8 00 00 00 00	 call	 ?GetNumber@CScanner@@QAEHH@Z ; CScanner::GetNumber

; 734  :         prop.dwSkillReadyType	= scanner.GetNumber();      

  006dd	6a 00		 push	 0
  006df	8d 8d 54 de ff
	ff		 lea	 ecx, DWORD PTR _scanner$[ebp]
  006e5	89 85 4c fe ff
	ff		 mov	 DWORD PTR _prop$[ebp+400], eax
  006eb	e8 00 00 00 00	 call	 ?GetNumber@CScanner@@QAEHH@Z ; CScanner::GetNumber

; 735  : 		prop.dwSkillReady		= scanner.GetNumber();      

  006f0	6a 00		 push	 0
  006f2	8d 8d 54 de ff
	ff		 lea	 ecx, DWORD PTR _scanner$[ebp]
  006f8	89 85 50 fe ff
	ff		 mov	 DWORD PTR _prop$[ebp+404], eax
  006fe	e8 00 00 00 00	 call	 ?GetNumber@CScanner@@QAEHH@Z ; CScanner::GetNumber

; 736  : 		prop._dwSkillRange		= scanner.GetNumber();      

  00703	6a 00		 push	 0
  00705	8d 8d 54 de ff
	ff		 lea	 ecx, DWORD PTR _scanner$[ebp]
  0070b	89 85 54 fe ff
	ff		 mov	 DWORD PTR _prop$[ebp+408], eax
  00711	e8 00 00 00 00	 call	 ?GetNumber@CScanner@@QAEHH@Z ; CScanner::GetNumber

; 737  : 		prop.dwSfxElemental		= scanner.GetNumber();      

  00716	6a 00		 push	 0
  00718	8d 8d 54 de ff
	ff		 lea	 ecx, DWORD PTR _scanner$[ebp]
  0071e	89 85 58 fe ff
	ff		 mov	 DWORD PTR _prop$[ebp+412], eax
  00724	e8 00 00 00 00	 call	 ?GetNumber@CScanner@@QAEHH@Z ; CScanner::GetNumber

; 738  : 		prop.dwSfxObj			= scanner.GetNumber();      

  00729	6a 00		 push	 0
  0072b	8d 8d 54 de ff
	ff		 lea	 ecx, DWORD PTR _scanner$[ebp]
  00731	89 85 5c fe ff
	ff		 mov	 DWORD PTR _prop$[ebp+416], eax
  00737	e8 00 00 00 00	 call	 ?GetNumber@CScanner@@QAEHH@Z ; CScanner::GetNumber

; 739  : 		prop.dwSfxObj2			= scanner.GetNumber();      

  0073c	6a 00		 push	 0
  0073e	8d 8d 54 de ff
	ff		 lea	 ecx, DWORD PTR _scanner$[ebp]
  00744	89 85 60 fe ff
	ff		 mov	 DWORD PTR _prop$[ebp+420], eax
  0074a	e8 00 00 00 00	 call	 ?GetNumber@CScanner@@QAEHH@Z ; CScanner::GetNumber

; 740  : 		prop.dwSfxObj3			= scanner.GetNumber();      

  0074f	6a 00		 push	 0
  00751	8d 8d 54 de ff
	ff		 lea	 ecx, DWORD PTR _scanner$[ebp]
  00757	89 85 64 fe ff
	ff		 mov	 DWORD PTR _prop$[ebp+424], eax
  0075d	e8 00 00 00 00	 call	 ?GetNumber@CScanner@@QAEHH@Z ; CScanner::GetNumber

; 741  : 		prop.dwSfxObj4			= scanner.GetNumber();      

  00762	6a 00		 push	 0
  00764	8d 8d 54 de ff
	ff		 lea	 ecx, DWORD PTR _scanner$[ebp]
  0076a	89 85 68 fe ff
	ff		 mov	 DWORD PTR _prop$[ebp+428], eax
  00770	e8 00 00 00 00	 call	 ?GetNumber@CScanner@@QAEHH@Z ; CScanner::GetNumber
  00775	89 85 6c fe ff
	ff		 mov	 DWORD PTR _prop$[ebp+432], eax

; 742  : 		prop.dwSfxObj5			= scanner.GetNumber();      

  0077b	6a 00		 push	 0
  0077d	8d 8d 54 de ff
	ff		 lea	 ecx, DWORD PTR _scanner$[ebp]
  00783	e8 00 00 00 00	 call	 ?GetNumber@CScanner@@QAEHH@Z ; CScanner::GetNumber

; 743  : 		prop.dwUseMotion		= scanner.GetNumber();      

  00788	6a 00		 push	 0
  0078a	8d 8d 54 de ff
	ff		 lea	 ecx, DWORD PTR _scanner$[ebp]
  00790	89 85 70 fe ff
	ff		 mov	 DWORD PTR _prop$[ebp+436], eax
  00796	e8 00 00 00 00	 call	 ?GetNumber@CScanner@@QAEHH@Z ; CScanner::GetNumber

; 744  : 		prop.dwCircleTime		= scanner.GetNumber();      

  0079b	6a 00		 push	 0
  0079d	8d 8d 54 de ff
	ff		 lea	 ecx, DWORD PTR _scanner$[ebp]
  007a3	89 85 74 fe ff
	ff		 mov	 DWORD PTR _prop$[ebp+440], eax
  007a9	e8 00 00 00 00	 call	 ?GetNumber@CScanner@@QAEHH@Z ; CScanner::GetNumber

; 745  : 		prop.dwSkillTime		= scanner.GetNumber();

  007ae	6a 00		 push	 0
  007b0	8d 8d 54 de ff
	ff		 lea	 ecx, DWORD PTR _scanner$[ebp]
  007b6	89 85 78 fe ff
	ff		 mov	 DWORD PTR _prop$[ebp+444], eax
  007bc	e8 00 00 00 00	 call	 ?GetNumber@CScanner@@QAEHH@Z ; CScanner::GetNumber

; 746  : 		prop.dwExeTarget		= scanner.GetNumber();      

  007c1	6a 00		 push	 0
  007c3	8d 8d 54 de ff
	ff		 lea	 ecx, DWORD PTR _scanner$[ebp]
  007c9	89 85 7c fe ff
	ff		 mov	 DWORD PTR _prop$[ebp+448], eax
  007cf	e8 00 00 00 00	 call	 ?GetNumber@CScanner@@QAEHH@Z ; CScanner::GetNumber

; 747  : 		prop.dwUseChance		= scanner.GetNumber();      

  007d4	6a 00		 push	 0
  007d6	8d 8d 54 de ff
	ff		 lea	 ecx, DWORD PTR _scanner$[ebp]
  007dc	89 85 80 fe ff
	ff		 mov	 DWORD PTR _prop$[ebp+452], eax
  007e2	e8 00 00 00 00	 call	 ?GetNumber@CScanner@@QAEHH@Z ; CScanner::GetNumber

; 748  : 		prop.dwSpellRegion		= scanner.GetNumber();   

  007e7	6a 00		 push	 0
  007e9	8d 8d 54 de ff
	ff		 lea	 ecx, DWORD PTR _scanner$[ebp]
  007ef	89 85 84 fe ff
	ff		 mov	 DWORD PTR _prop$[ebp+456], eax
  007f5	e8 00 00 00 00	 call	 ?GetNumber@CScanner@@QAEHH@Z ; CScanner::GetNumber

; 749  : 		prop.dwSpellType		= scanner.GetNumber();

  007fa	6a 00		 push	 0
  007fc	8d 8d 54 de ff
	ff		 lea	 ecx, DWORD PTR _scanner$[ebp]
  00802	89 85 88 fe ff
	ff		 mov	 DWORD PTR _prop$[ebp+460], eax
  00808	e8 00 00 00 00	 call	 ?GetNumber@CScanner@@QAEHH@Z ; CScanner::GetNumber

; 750  : 		prop.dwReferStat1		= scanner.GetNumber();      

  0080d	6a 00		 push	 0
  0080f	8d 8d 54 de ff
	ff		 lea	 ecx, DWORD PTR _scanner$[ebp]
  00815	89 85 94 fd ff
	ff		 mov	 DWORD PTR _prop$[ebp+216], eax
  0081b	e8 00 00 00 00	 call	 ?GetNumber@CScanner@@QAEHH@Z ; CScanner::GetNumber

; 751  : 		prop.dwReferStat2		= scanner.GetNumber();      

  00820	6a 00		 push	 0
  00822	8d 8d 54 de ff
	ff		 lea	 ecx, DWORD PTR _scanner$[ebp]
  00828	89 85 8c fe ff
	ff		 mov	 DWORD PTR _prop$[ebp+464], eax
  0082e	e8 00 00 00 00	 call	 ?GetNumber@CScanner@@QAEHH@Z ; CScanner::GetNumber

; 752  : 		prop.dwReferTarget1		= scanner.GetNumber();      

  00833	6a 00		 push	 0
  00835	8d 8d 54 de ff
	ff		 lea	 ecx, DWORD PTR _scanner$[ebp]
  0083b	89 85 90 fe ff
	ff		 mov	 DWORD PTR _prop$[ebp+468], eax
  00841	e8 00 00 00 00	 call	 ?GetNumber@CScanner@@QAEHH@Z ; CScanner::GetNumber

; 753  : 		prop.dwReferTarget2		= scanner.GetNumber();      

  00846	6a 00		 push	 0
  00848	8d 8d 54 de ff
	ff		 lea	 ecx, DWORD PTR _scanner$[ebp]
  0084e	89 85 94 fe ff
	ff		 mov	 DWORD PTR _prop$[ebp+472], eax
  00854	e8 00 00 00 00	 call	 ?GetNumber@CScanner@@QAEHH@Z ; CScanner::GetNumber

; 754  : 		prop.dwReferValue1		= scanner.GetNumber();      

  00859	6a 00		 push	 0
  0085b	8d 8d 54 de ff
	ff		 lea	 ecx, DWORD PTR _scanner$[ebp]
  00861	89 85 98 fe ff
	ff		 mov	 DWORD PTR _prop$[ebp+476], eax
  00867	e8 00 00 00 00	 call	 ?GetNumber@CScanner@@QAEHH@Z ; CScanner::GetNumber

; 755  : 		prop.dwReferValue2		= scanner.GetNumber();      

  0086c	6a 00		 push	 0
  0086e	8d 8d 54 de ff
	ff		 lea	 ecx, DWORD PTR _scanner$[ebp]
  00874	89 85 9c fe ff
	ff		 mov	 DWORD PTR _prop$[ebp+480], eax
  0087a	e8 00 00 00 00	 call	 ?GetNumber@CScanner@@QAEHH@Z ; CScanner::GetNumber

; 756  : 		prop.dwSkillType		= scanner.GetNumber();      

  0087f	6a 00		 push	 0
  00881	8d 8d 54 de ff
	ff		 lea	 ecx, DWORD PTR _scanner$[ebp]
  00887	89 85 a0 fe ff
	ff		 mov	 DWORD PTR _prop$[ebp+484], eax
  0088d	e8 00 00 00 00	 call	 ?GetNumber@CScanner@@QAEHH@Z ; CScanner::GetNumber

; 757  : 		prop.nItemResistElecricity	= (int)(scanner.GetFloat() * 100.0f);

  00892	6a 00		 push	 0
  00894	8d 8d 54 de ff
	ff		 lea	 ecx, DWORD PTR _scanner$[ebp]
  0089a	89 85 a4 fe ff
	ff		 mov	 DWORD PTR _prop$[ebp+488], eax
  008a0	e8 00 00 00 00	 call	 ?GetFloat@CScanner@@QAEMH@Z ; CScanner::GetFloat
  008a5	d8 0d 00 00 00
	00		 fmul	 DWORD PTR __real@42c80000

; 758  : 		prop.nItemResistFire	    = (int)(scanner.GetFloat() * 100.0f);      

  008ab	8d 8d 54 de ff
	ff		 lea	 ecx, DWORD PTR _scanner$[ebp]
  008b1	6a 00		 push	 0
  008b3	d9 9d 50 de ff
	ff		 fstp	 DWORD PTR tv2400[ebp]
  008b9	f3 0f 2c 85 50
	de ff ff	 cvttss2si eax, DWORD PTR tv2400[ebp]
  008c1	89 85 a8 fe ff
	ff		 mov	 DWORD PTR _prop$[ebp+492], eax
  008c7	e8 00 00 00 00	 call	 ?GetFloat@CScanner@@QAEMH@Z ; CScanner::GetFloat
  008cc	d8 0d 00 00 00
	00		 fmul	 DWORD PTR __real@42c80000

; 759  : 		prop.nItemResistWind	    = (int)(scanner.GetFloat() * 100.0f);      

  008d2	8d 8d 54 de ff
	ff		 lea	 ecx, DWORD PTR _scanner$[ebp]
  008d8	6a 00		 push	 0
  008da	d9 9d 50 de ff
	ff		 fstp	 DWORD PTR tv2396[ebp]
  008e0	f3 0f 2c 85 50
	de ff ff	 cvttss2si eax, DWORD PTR tv2396[ebp]
  008e8	89 85 b0 fe ff
	ff		 mov	 DWORD PTR _prop$[ebp+500], eax
  008ee	e8 00 00 00 00	 call	 ?GetFloat@CScanner@@QAEMH@Z ; CScanner::GetFloat
  008f3	d8 0d 00 00 00
	00		 fmul	 DWORD PTR __real@42c80000
  008f9	d9 9d 50 de ff
	ff		 fstp	 DWORD PTR tv2392[ebp]
  008ff	f3 0f 2c 85 50
	de ff ff	 cvttss2si eax, DWORD PTR tv2392[ebp]
  00907	89 85 b4 fe ff
	ff		 mov	 DWORD PTR _prop$[ebp+504], eax

; 760  : 		prop.nItemResistWater	    = (int)(scanner.GetFloat() * 100.0f);      

  0090d	6a 00		 push	 0
  0090f	8d 8d 54 de ff
	ff		 lea	 ecx, DWORD PTR _scanner$[ebp]
  00915	e8 00 00 00 00	 call	 ?GetFloat@CScanner@@QAEMH@Z ; CScanner::GetFloat
  0091a	d8 0d 00 00 00
	00		 fmul	 DWORD PTR __real@42c80000

; 761  : 		prop.nItemResistEarth	    = (int)(scanner.GetFloat() * 100.0f);      

  00920	8d 8d 54 de ff
	ff		 lea	 ecx, DWORD PTR _scanner$[ebp]
  00926	6a 00		 push	 0
  00928	d9 9d 50 de ff
	ff		 fstp	 DWORD PTR tv2388[ebp]
  0092e	f3 0f 2c 85 50
	de ff ff	 cvttss2si eax, DWORD PTR tv2388[ebp]
  00936	89 85 b8 fe ff
	ff		 mov	 DWORD PTR _prop$[ebp+508], eax
  0093c	e8 00 00 00 00	 call	 ?GetFloat@CScanner@@QAEMH@Z ; CScanner::GetFloat
  00941	d8 0d 00 00 00
	00		 fmul	 DWORD PTR __real@42c80000

; 762  : 		prop.nEvildoing			= scanner.GetNumber();      

  00947	8d 8d 54 de ff
	ff		 lea	 ecx, DWORD PTR _scanner$[ebp]
  0094d	6a 00		 push	 0
  0094f	d9 9d 50 de ff
	ff		 fstp	 DWORD PTR tv2384[ebp]
  00955	f3 0f 2c 85 50
	de ff ff	 cvttss2si eax, DWORD PTR tv2384[ebp]
  0095d	89 85 bc fe ff
	ff		 mov	 DWORD PTR _prop$[ebp+512], eax
  00963	e8 00 00 00 00	 call	 ?GetNumber@CScanner@@QAEHH@Z ; CScanner::GetNumber

; 763  : 		prop.dwExpertLV			= scanner.GetNumber();      

  00968	6a 00		 push	 0
  0096a	8d 8d 54 de ff
	ff		 lea	 ecx, DWORD PTR _scanner$[ebp]
  00970	89 85 c0 fe ff
	ff		 mov	 DWORD PTR _prop$[ebp+516], eax
  00976	e8 00 00 00 00	 call	 ?GetNumber@CScanner@@QAEHH@Z ; CScanner::GetNumber

; 764  : 		prop.dwExpertMax		= scanner.GetNumber();   

  0097b	6a 00		 push	 0
  0097d	8d 8d 54 de ff
	ff		 lea	 ecx, DWORD PTR _scanner$[ebp]
  00983	89 85 c4 fe ff
	ff		 mov	 DWORD PTR _prop$[ebp+520], eax
  00989	e8 00 00 00 00	 call	 ?GetNumber@CScanner@@QAEHH@Z ; CScanner::GetNumber

; 765  : 		prop.dwSubDefine		= scanner.GetNumber();

  0098e	6a 00		 push	 0
  00990	8d 8d 54 de ff
	ff		 lea	 ecx, DWORD PTR _scanner$[ebp]
  00996	89 85 c8 fe ff
	ff		 mov	 DWORD PTR _prop$[ebp+524], eax
  0099c	e8 00 00 00 00	 call	 ?GetNumber@CScanner@@QAEHH@Z ; CScanner::GetNumber

; 766  : 		prop.dwExp				= scanner.GetNumber();      

  009a1	6a 00		 push	 0
  009a3	8d 8d 54 de ff
	ff		 lea	 ecx, DWORD PTR _scanner$[ebp]
  009a9	89 85 cc fe ff
	ff		 mov	 DWORD PTR _prop$[ebp+528], eax
  009af	e8 00 00 00 00	 call	 ?GetNumber@CScanner@@QAEHH@Z ; CScanner::GetNumber

; 767  : 		prop.dwComboStyle		= scanner.GetNumber();      

  009b4	6a 00		 push	 0
  009b6	8d 8d 54 de ff
	ff		 lea	 ecx, DWORD PTR _scanner$[ebp]
  009bc	89 85 d0 fe ff
	ff		 mov	 DWORD PTR _prop$[ebp+532], eax
  009c2	e8 00 00 00 00	 call	 ?GetNumber@CScanner@@QAEHH@Z ; CScanner::GetNumber

; 768  : 		prop.fFlightSpeed		= scanner.GetFloat();      

  009c7	6a 00		 push	 0
  009c9	8d 8d 54 de ff
	ff		 lea	 ecx, DWORD PTR _scanner$[ebp]
  009cf	89 85 d4 fe ff
	ff		 mov	 DWORD PTR _prop$[ebp+536], eax
  009d5	e8 00 00 00 00	 call	 ?GetFloat@CScanner@@QAEMH@Z ; CScanner::GetFloat
  009da	d9 9d d8 fe ff
	ff		 fstp	 DWORD PTR _prop$[ebp+540]

; 769  : 		prop.fFlightLRAngle		= scanner.GetFloat();      

  009e0	6a 00		 push	 0
  009e2	8d 8d 54 de ff
	ff		 lea	 ecx, DWORD PTR _scanner$[ebp]
  009e8	e8 00 00 00 00	 call	 ?GetFloat@CScanner@@QAEMH@Z ; CScanner::GetFloat
  009ed	d9 9d dc fe ff
	ff		 fstp	 DWORD PTR _prop$[ebp+544]

; 770  : 		prop.fFlightTBAngle		= scanner.GetFloat();      

  009f3	6a 00		 push	 0
  009f5	8d 8d 54 de ff
	ff		 lea	 ecx, DWORD PTR _scanner$[ebp]
  009fb	e8 00 00 00 00	 call	 ?GetFloat@CScanner@@QAEMH@Z ; CScanner::GetFloat

; 771  : 		prop.dwFlightLimit		= scanner.GetNumber();      

  00a00	6a 00		 push	 0
  00a02	8d 8d 54 de ff
	ff		 lea	 ecx, DWORD PTR _scanner$[ebp]
  00a08	d9 9d e0 fe ff
	ff		 fstp	 DWORD PTR _prop$[ebp+548]
  00a0e	e8 00 00 00 00	 call	 ?GetNumber@CScanner@@QAEHH@Z ; CScanner::GetNumber

; 772  : 		prop.dwFFuelReMax		= scanner.GetNumber();      

  00a13	6a 00		 push	 0
  00a15	8d 8d 54 de ff
	ff		 lea	 ecx, DWORD PTR _scanner$[ebp]
  00a1b	89 85 e4 fe ff
	ff		 mov	 DWORD PTR _prop$[ebp+552], eax
  00a21	e8 00 00 00 00	 call	 ?GetNumber@CScanner@@QAEHH@Z ; CScanner::GetNumber

; 773  : 		prop.dwAFuelReMax		= scanner.GetNumber();      

  00a26	6a 00		 push	 0
  00a28	8d 8d 54 de ff
	ff		 lea	 ecx, DWORD PTR _scanner$[ebp]
  00a2e	89 85 e8 fe ff
	ff		 mov	 DWORD PTR _prop$[ebp+556], eax
  00a34	e8 00 00 00 00	 call	 ?GetNumber@CScanner@@QAEHH@Z ; CScanner::GetNumber

; 774  : 		prop.dwFuelRe			= scanner.GetNumber();      

  00a39	6a 00		 push	 0
  00a3b	8d 8d 54 de ff
	ff		 lea	 ecx, DWORD PTR _scanner$[ebp]
  00a41	89 85 90 fd ff
	ff		 mov	 DWORD PTR _prop$[ebp+212], eax
  00a47	e8 00 00 00 00	 call	 ?GetNumber@CScanner@@QAEHH@Z ; CScanner::GetNumber

; 775  : 		prop.dwLimitLevel1		= scanner.GetNumber();

  00a4c	6a 00		 push	 0
  00a4e	8d 8d 54 de ff
	ff		 lea	 ecx, DWORD PTR _scanner$[ebp]
  00a54	89 85 8c fd ff
	ff		 mov	 DWORD PTR _prop$[ebp+208], eax
  00a5a	e8 00 00 00 00	 call	 ?GetNumber@CScanner@@QAEHH@Z ; CScanner::GetNumber

; 776  : 		prop.nReflect			= scanner.GetNumber();      

  00a5f	6a 00		 push	 0
  00a61	8d 8d 54 de ff
	ff		 lea	 ecx, DWORD PTR _scanner$[ebp]
  00a67	89 85 ec fe ff
	ff		 mov	 DWORD PTR _prop$[ebp+560], eax
  00a6d	e8 00 00 00 00	 call	 ?GetNumber@CScanner@@QAEHH@Z ; CScanner::GetNumber

; 777  : 		prop.dwSndAttack1		= scanner.GetNumber();     

  00a72	6a 00		 push	 0
  00a74	8d 8d 54 de ff
	ff		 lea	 ecx, DWORD PTR _scanner$[ebp]
  00a7a	89 85 f0 fe ff
	ff		 mov	 DWORD PTR _prop$[ebp+564], eax
  00a80	e8 00 00 00 00	 call	 ?GetNumber@CScanner@@QAEHH@Z ; CScanner::GetNumber

; 778  : 		prop.dwSndAttack2		= scanner.GetNumber();     

  00a85	6a 00		 push	 0
  00a87	8d 8d 54 de ff
	ff		 lea	 ecx, DWORD PTR _scanner$[ebp]
  00a8d	89 85 f4 fe ff
	ff		 mov	 DWORD PTR _prop$[ebp+568], eax
  00a93	e8 00 00 00 00	 call	 ?GetNumber@CScanner@@QAEHH@Z ; CScanner::GetNumber

; 779  : 		
; 780  : 		// szIcon
; 781  : 		scanner.GetToken();

  00a98	6a 00		 push	 0
  00a9a	8d 8d 54 de ff
	ff		 lea	 ecx, DWORD PTR _scanner$[ebp]
  00aa0	89 85 f8 fe ff
	ff		 mov	 DWORD PTR _prop$[ebp+572], eax
  00aa6	e8 00 00 00 00	 call	 ?GetToken@CScript@@UAEHH@Z ; CScript::GetToken

; 782  : 		scanner.GetToken();	

  00aab	6a 00		 push	 0
  00aad	8d 8d 54 de ff
	ff		 lea	 ecx, DWORD PTR _scanner$[ebp]
  00ab3	e8 00 00 00 00	 call	 ?GetToken@CScript@@UAEHH@Z ; CScript::GetToken

; 783  : 	#ifdef __CLIENT		
; 784  : 		_tcsncpy( prop.szIcon, scanner.token, sizeof(prop.szIcon)-1 );
; 785  : 		prop.szCommand[sizeof(prop.szIcon)-1] = 0;
; 786  : 	#endif 
; 787  : 
; 788  : #ifdef __VERIFY_0201
; 789  : 		_tcsncpy( prop.szIcon, scanner.token, sizeof(prop.szIcon)-1 );
; 790  : 		prop.szCommand[sizeof(prop.szIcon)-1] = 0;
; 791  : #endif	// __VERIFY_0201
; 792  : 
; 793  : 		scanner.GetToken();

  00ab8	6a 00		 push	 0
  00aba	8d 8d 54 de ff
	ff		 lea	 ecx, DWORD PTR _scanner$[ebp]
  00ac0	e8 00 00 00 00	 call	 ?GetToken@CScript@@UAEHH@Z ; CScript::GetToken

; 794  : 
; 795  : 		// dwQuestId
; 796  : 		prop.dwQuestId	= scanner.GetNumber(  );

  00ac5	6a 00		 push	 0
  00ac7	8d 8d 54 de ff
	ff		 lea	 ecx, DWORD PTR _scanner$[ebp]
  00acd	e8 00 00 00 00	 call	 ?GetNumber@CScanner@@QAEHH@Z ; CScanner::GetNumber

; 797  : 
; 798  : 		// szTextFileName 
; 799  : 		scanner.GetToken();

  00ad2	6a 00		 push	 0
  00ad4	8d 8d 54 de ff
	ff		 lea	 ecx, DWORD PTR _scanner$[ebp]
  00ada	89 85 fc fe ff
	ff		 mov	 DWORD PTR _prop$[ebp+576], eax
  00ae0	e8 00 00 00 00	 call	 ?GetToken@CScript@@UAEHH@Z ; CScript::GetToken

; 800  : 		scanner.GetToken(); 

  00ae5	6a 00		 push	 0
  00ae7	8d 8d 54 de ff
	ff		 lea	 ecx, DWORD PTR _scanner$[ebp]
  00aed	e8 00 00 00 00	 call	 ?GetToken@CScript@@UAEHH@Z ; CScript::GetToken

; 801  : 		_tcscpy( prop.szTextFileName, scanner.token );

  00af2	8b 8d 90 de ff
	ff		 mov	 ecx, DWORD PTR _scanner$[ebp+60]
  00af8	8d 95 00 ff ff
	ff		 lea	 edx, DWORD PTR _prop$[ebp+580]
  00afe	2b d1		 sub	 edx, ecx
$LL19@LoadPropIt:
  00b00	8a 01		 mov	 al, BYTE PTR [ecx]
  00b02	8d 49 01	 lea	 ecx, DWORD PTR [ecx+1]
  00b05	88 44 0a ff	 mov	 BYTE PTR [edx+ecx-1], al
  00b09	84 c0		 test	 al, al
  00b0b	75 f3		 jne	 SHORT $LL19@LoadPropIt

; 802  : 		scanner.GetToken();

  00b0d	6a 00		 push	 0
  00b0f	8d 8d 54 de ff
	ff		 lea	 ecx, DWORD PTR _scanner$[ebp]
  00b15	e8 00 00 00 00	 call	 ?GetToken@CScript@@UAEHH@Z ; CScript::GetToken

; 803  : 
; 804  : 		// szCommand
; 805  : 		scanner.GetToken();		

  00b1a	6a 00		 push	 0
  00b1c	8d 8d 54 de ff
	ff		 lea	 ecx, DWORD PTR _scanner$[ebp]
  00b22	e8 00 00 00 00	 call	 ?GetToken@CScript@@UAEHH@Z ; CScript::GetToken

; 806  : 	#ifdef __CLIENT		
; 807  : 		_tcsncpy( prop.szCommand, scanner.token, sizeof(prop.szCommand)-1 );
; 808  : 		prop.szCommand[sizeof(prop.szCommand)-1] = 0;
; 809  : 	#endif // __CLIENT
; 810  : 
; 811  : #if __VER >= 16
; 812  : 		prop.dwBuffTickType		= scanner.GetNumber();

  00b27	6a 00		 push	 0
  00b29	8d 8d 54 de ff
	ff		 lea	 ecx, DWORD PTR _scanner$[ebp]
  00b2f	e8 00 00 00 00	 call	 ?GetNumber@CScanner@@QAEHH@Z ; CScanner::GetNumber

; 813  : #endif
; 814  : 
; 815  : #if __VER >= 18
; 816  : 		prop.dwMonsterGrade			= scanner.GetNumber();

  00b34	6a 00		 push	 0
  00b36	8d 8d 54 de ff
	ff		 lea	 ecx, DWORD PTR _scanner$[ebp]
  00b3c	89 45 b0	 mov	 DWORD PTR _prop$[ebp+756], eax
  00b3f	e8 00 00 00 00	 call	 ?GetNumber@CScanner@@QAEHH@Z ; CScanner::GetNumber

; 817  : 		prop.dwEquipItemKeepSkill	= scanner.GetNumber();

  00b44	6a 00		 push	 0
  00b46	8d 8d 54 de ff
	ff		 lea	 ecx, DWORD PTR _scanner$[ebp]
  00b4c	89 45 cc	 mov	 DWORD PTR _prop$[ebp+784], eax
  00b4f	e8 00 00 00 00	 call	 ?GetNumber@CScanner@@QAEHH@Z ; CScanner::GetNumber
  00b54	89 45 d0	 mov	 DWORD PTR _prop$[ebp+788], eax

; 818  : #endif
; 819  : 
; 820  : 	#ifdef __WORLDSERVER
; 821  : 		#ifdef __INTERNALSERVER
; 822  : 			prop.nLog = -1;		// °łąßĽ·żˇĽ± ŔĚ°Ĺ ą«˝Ă.
; 823  : 		#endif
; 824  : 		if( g_eLocal.GetState( EVE_SCHOOL ) )
; 825  : 		{
; 826  : 			prop.dwShopAble	= 1;
; 827  : 			if( prop.dwItemRare == (DWORD)-1 )
; 828  : 				prop.dwItemRare		= prop.dwItemLV;
; 829  : 		}
; 830  : 	#endif	// __WORLDSERVER
; 831  : 
; 832  : 		if( ::GetLanguage() == LANG_THA )

  00b57	e8 00 00 00 00	 call	 ?GetLanguage@@YAHXZ	; GetLanguage
  00b5c	83 f8 04	 cmp	 eax, 4
  00b5f	75 73		 jne	 SHORT $LN15@LoadPropIt

; 833  : 		{
; 834  : 			if( prop.dwLimitLevel1 > 0 && prop.dwLimitLevel1 <= 5 )

  00b61	8b 85 ec fe ff
	ff		 mov	 eax, DWORD PTR _prop$[ebp+560]
  00b67	85 c0		 test	 eax, eax
  00b69	74 11		 je	 SHORT $LN7@LoadPropIt
  00b6b	83 f8 05	 cmp	 eax, 5
  00b6e	77 11		 ja	 SHORT $LN259@LoadPropIt

; 835  : 				prop.dwLimitLevel1	= 1;

  00b70	c7 85 ec fe ff
	ff 01 00 00 00	 mov	 DWORD PTR _prop$[ebp+560], 1
  00b7a	eb 58		 jmp	 SHORT $LN15@LoadPropIt
$LN7@LoadPropIt:

; 836  : 			else if( prop.dwLimitLevel1 > 5 && prop.dwLimitLevel1 <= 15 )

  00b7c	83 f8 05	 cmp	 eax, 5
  00b7f	76 11		 jbe	 SHORT $LN9@LoadPropIt
$LN259@LoadPropIt:
  00b81	83 f8 0f	 cmp	 eax, 15			; 0000000fH
  00b84	77 11		 ja	 SHORT $LN258@LoadPropIt

; 837  : 				prop.dwLimitLevel1	= 5;

  00b86	c7 85 ec fe ff
	ff 05 00 00 00	 mov	 DWORD PTR _prop$[ebp+560], 5
  00b90	eb 42		 jmp	 SHORT $LN15@LoadPropIt
$LN9@LoadPropIt:

; 838  : 			else if( prop.dwLimitLevel1 > 15 && prop.dwLimitLevel1 <= 30 )

  00b92	83 f8 0f	 cmp	 eax, 15			; 0000000fH
  00b95	76 11		 jbe	 SHORT $LN11@LoadPropIt
$LN258@LoadPropIt:
  00b97	83 f8 1e	 cmp	 eax, 30			; 0000001eH
  00b9a	77 11		 ja	 SHORT $LN257@LoadPropIt

; 839  : 				prop.dwLimitLevel1	= 15;

  00b9c	c7 85 ec fe ff
	ff 0f 00 00 00	 mov	 DWORD PTR _prop$[ebp+560], 15 ; 0000000fH
  00ba6	eb 2c		 jmp	 SHORT $LN15@LoadPropIt
$LN11@LoadPropIt:

; 840  : 			else if( prop.dwLimitLevel1 > 30 && prop.dwLimitLevel1 <= 45 )

  00ba8	83 f8 1e	 cmp	 eax, 30			; 0000001eH
  00bab	76 11		 jbe	 SHORT $LN13@LoadPropIt
$LN257@LoadPropIt:
  00bad	83 f8 2d	 cmp	 eax, 45			; 0000002dH
  00bb0	77 11		 ja	 SHORT $LN256@LoadPropIt

; 841  : 				prop.dwLimitLevel1	= 30;

  00bb2	c7 85 ec fe ff
	ff 1e 00 00 00	 mov	 DWORD PTR _prop$[ebp+560], 30 ; 0000001eH
  00bbc	eb 16		 jmp	 SHORT $LN15@LoadPropIt
$LN13@LoadPropIt:

; 842  : 			else if( prop.dwLimitLevel1 > 45 && prop.dwLimitLevel1 < 60 )

  00bbe	83 f8 2d	 cmp	 eax, 45			; 0000002dH
  00bc1	76 11		 jbe	 SHORT $LN15@LoadPropIt
$LN256@LoadPropIt:
  00bc3	83 f8 3c	 cmp	 eax, 60			; 0000003cH
  00bc6	b9 2d 00 00 00	 mov	 ecx, 45			; 0000002dH
  00bcb	0f 42 c1	 cmovb	 eax, ecx
  00bce	89 85 ec fe ff
	ff		 mov	 DWORD PTR _prop$[ebp+560], eax
$LN15@LoadPropIt:

; 843  : 				prop.dwLimitLevel1	= 45;
; 844  : 		}
; 845  : 		
; 846  : 		if( nVer <= __VER )

  00bd4	83 fb 12	 cmp	 ebx, 18			; 00000012H
  00bd7	0f 8f 53 01 00
	00		 jg	 $LN262@LoadPropIt
; File C:\Program Files\Microsoft Visual Studio\2022\Professional\VC\Tools\MSVC\14.44.35207\include\utility

; 274  :         : first(_STD forward<_Other1>(_Val1)), second(_STD forward<_Other2>(_Val2)) {

  00bdd	8d 85 c0 fc ff
	ff		 lea	 eax, DWORD PTR _prop$[ebp+4]
  00be3	50		 push	 eax
  00be4	8d 4d d4	 lea	 ecx, DWORD PTR $T5[ebp]
  00be7	e8 00 00 00 00	 call	 ??0?$basic_string@DU?$char_traits@D@std@@V?$allocator@D@2@@std@@QAE@QBD@Z ; std::basic_string<char,std::char_traits<char>,std::allocator<char> >::basic_string<char,std::char_traits<char>,std::allocator<char> >
  00bec	8b 85 bc fc ff
	ff		 mov	 eax, DWORD PTR _prop$[ebp]
  00bf2	89 45 ec	 mov	 DWORD PTR $T5[ebp+24], eax
; File C:\IAGOS\server\v18\Source\Source\_Common\ProjectCmn.cpp

; 849  : 			m_mapII.insert( map<string, DWORD>::value_type( prop.szName, prop.dwID ) );

  00bf5	8b b5 40 de ff
	ff		 mov	 esi, DWORD PTR _this$GSCopy$1$[ebp]
; File C:\Program Files\Microsoft Visual Studio\2022\Professional\VC\Tools\MSVC\14.44.35207\include\xtree

; 1630 :         _Tree_find_result<_Nodeptr> _Result{{_Scary->_Myhead->_Parent, _Tree_child::_Right}, _Scary->_Myhead};

  00bfb	33 db		 xor	 ebx, ebx
; File C:\IAGOS\server\v18\Source\Source\_Common\ProjectCmn.cpp

; 849  : 			m_mapII.insert( map<string, DWORD>::value_type( prop.szName, prop.dwID ) );

  00bfd	83 c6 08	 add	 esi, 8
  00c00	c6 45 fc 01	 mov	 BYTE PTR __$EHRec$[ebp+8], 1
  00c04	89 b5 50 de ff
	ff		 mov	 DWORD PTR _this$1$[ebp], esi
; File C:\Program Files\Microsoft Visual Studio\2022\Professional\VC\Tools\MSVC\14.44.35207\include\xtree

; 1630 :         _Tree_find_result<_Nodeptr> _Result{{_Scary->_Myhead->_Parent, _Tree_child::_Right}, _Scary->_Myhead};

  00c0a	8b 06		 mov	 eax, DWORD PTR [esi]
  00c0c	89 85 3c de ff
	ff		 mov	 DWORD PTR __Myhead$1$[ebp], eax
  00c12	89 85 4c de ff
	ff		 mov	 DWORD PTR $T1$sroa$1779$1$[ebp], eax
  00c18	8b 78 04	 mov	 edi, DWORD PTR [eax+4]
  00c1b	89 bd 48 de ff
	ff		 mov	 DWORD PTR __Loc$1$[ebp], edi

; 1631 :         _Nodeptr _Trynode = _Result._Location._Parent;
; 1632 :         while (!_Trynode->_Isnil) {

  00c21	38 5f 0d	 cmp	 BYTE PTR [edi+13], bl
  00c24	75 4c		 jne	 SHORT $LN78@LoadPropIt
  00c26	8b f7		 mov	 esi, edi
  00c28	0f 1f 84 00 00
	00 00 00	 npad	 8
$LL77@LoadPropIt:
; File C:\Program Files\Microsoft Visual Studio\2022\Professional\VC\Tools\MSVC\14.44.35207\include\type_traits

; 2380 :         return _Left < _Right;

  00c30	8d 45 d4	 lea	 eax, DWORD PTR $T5[ebp]
; File C:\Program Files\Microsoft Visual Studio\2022\Professional\VC\Tools\MSVC\14.44.35207\include\xtree

; 1633 :             _Result._Location._Parent = _Trynode;

  00c33	89 b5 48 de ff
	ff		 mov	 DWORD PTR __Loc$1$[ebp], esi
; File C:\Program Files\Microsoft Visual Studio\2022\Professional\VC\Tools\MSVC\14.44.35207\include\type_traits

; 2380 :         return _Left < _Right;

  00c39	50		 push	 eax
; File C:\Program Files\Microsoft Visual Studio\2022\Professional\VC\Tools\MSVC\14.44.35207\include\xtree

; 1634 :             if (_DEBUG_LT_PRED(_Getcomp(), _Traits::_Kfn(_Trynode->_Myval), _Keyval)) {

  00c3a	8d 46 10	 lea	 eax, DWORD PTR [esi+16]
; File C:\Program Files\Microsoft Visual Studio\2022\Professional\VC\Tools\MSVC\14.44.35207\include\type_traits

; 2380 :         return _Left < _Right;

  00c3d	50		 push	 eax
  00c3e	e8 00 00 00 00	 call	 ??$?MDU?$char_traits@D@std@@V?$allocator@D@1@@std@@YA_NABV?$basic_string@DU?$char_traits@D@std@@V?$allocator@D@2@@0@0@Z ; std::operator<<char,std::char_traits<char>,std::allocator<char> >
  00c43	83 c4 08	 add	 esp, 8
; File C:\Program Files\Microsoft Visual Studio\2022\Professional\VC\Tools\MSVC\14.44.35207\include\xtree

; 1634 :             if (_DEBUG_LT_PRED(_Getcomp(), _Traits::_Kfn(_Trynode->_Myval), _Keyval)) {

  00c46	84 c0		 test	 al, al
  00c48	74 0d		 je	 SHORT $LN79@LoadPropIt

; 1635 :                 _Result._Location._Child = _Tree_child::_Right;
; 1636 :                 _Trynode                 = _Trynode->_Right;

  00c4a	8b 76 08	 mov	 esi, DWORD PTR [esi+8]
  00c4d	33 db		 xor	 ebx, ebx

; 1637 :             } else {

  00c4f	8b 85 4c de ff
	ff		 mov	 eax, DWORD PTR $T1$sroa$1779$1$[ebp]
  00c55	eb 0f		 jmp	 SHORT $LN80@LoadPropIt
$LN79@LoadPropIt:

; 1638 :                 _Result._Location._Child = _Tree_child::_Left;
; 1639 :                 _Result._Bound           = _Trynode;

  00c57	8b c6		 mov	 eax, esi
  00c59	bb 01 00 00 00	 mov	 ebx, 1

; 1640 :                 _Trynode                 = _Trynode->_Left;

  00c5e	8b 36		 mov	 esi, DWORD PTR [esi]
  00c60	89 85 4c de ff
	ff		 mov	 DWORD PTR $T1$sroa$1779$1$[ebp], eax
$LN80@LoadPropIt:

; 1631 :         _Nodeptr _Trynode = _Result._Location._Parent;
; 1632 :         while (!_Trynode->_Isnil) {

  00c66	80 7e 0d 00	 cmp	 BYTE PTR [esi+13], 0
  00c6a	74 c4		 je	 SHORT $LL77@LoadPropIt
  00c6c	8b b5 50 de ff
	ff		 mov	 esi, DWORD PTR _this$1$[ebp]
$LN78@LoadPropIt:

