; Listing generated by Microsoft (R) Optimizing Compiler Version 19.44.35225.0 

	TITLE	C:\IAGOS\server\v18\Source\Output\DatabaseServer\Release\Query.obj
	.686P
	.XMM
	include listing.inc
	.model	flat

INCLUDELIB LIBCMT
INCLUDELIB OLDNAMES

PUBLIC	?__empty_global_delete@@YAXPAX@Z		; __empty_global_delete
PUBLIC	?__empty_global_delete@@YAXPAXI@Z		; __empty_global_delete
PUBLIC	___local_stdio_printf_options
PUBLIC	___local_stdio_scanf_options
PUBLIC	_fprintf
PUBLIC	_sscanf
PUBLIC	?FindCol@CQuery@@AAEHPAD@Z			; CQuery::FindCol
PUBLIC	??0CQuery@@QAE@XZ				; CQuery::CQuery
PUBLIC	??1CQuery@@QAE@XZ				; CQuery::~CQuery
PUBLIC	?PrintDiag@CQuery@@QAEXPBDF@Z			; CQuery::PrintDiag
PUBLIC	?Connect@CQuery@@QAEHHPAD0PBD@Z			; CQuery::Connect
PUBLIC	?DisConnect@CQuery@@QAEXXZ			; CQuery::DisConnect
PUBLIC	?Exec@CQuery@@QAEHPBD@Z				; CQuery::Exec
PUBLIC	?Exec@CQuery@@QAEHPBDHQAUQUERY_BINDINFO@@@Z	; CQuery::Exec
PUBLIC	?PrepareFetch@CQuery@@QAEHXZ			; CQuery::PrepareFetch
PUBLIC	?Execute@CQuery@@QAAHPBDZZ			; CQuery::Execute
PUBLIC	?Fetch@CQuery@@QAEHXZ				; CQuery::Fetch
PUBLIC	?Clear@CQuery@@QAEXXZ				; CQuery::Clear
PUBLIC	?GetInt@CQuery@@QAEHH@Z				; CQuery::GetInt
PUBLIC	?GetInt@CQuery@@QAEHPAD@Z			; CQuery::GetInt
PUBLIC	?GetInt64@CQuery@@QAE_JH@Z			; CQuery::GetInt64
PUBLIC	?GetInt64@CQuery@@QAE_JPAD@Z			; CQuery::GetInt64
PUBLIC	?GetFloat@CQuery@@QAEMH@Z			; CQuery::GetFloat
PUBLIC	?GetFloat@CQuery@@QAEMPAD@Z			; CQuery::GetFloat
PUBLIC	?GetChar@CQuery@@QAEDH@Z			; CQuery::GetChar
PUBLIC	?GetChar@CQuery@@QAEDPAD@Z			; CQuery::GetChar
PUBLIC	?GetStr@CQuery@@QAEXHPAD@Z			; CQuery::GetStr
PUBLIC	?GetStr@CQuery@@QAEXPAD0@Z			; CQuery::GetStr
PUBLIC	?ReadBlob@CQuery@@QAEHPBDPAX@Z			; CQuery::ReadBlob
PUBLIC	?WriteBlob@CQuery@@QAEXPBDPAXH@Z		; CQuery::WriteBlob
PUBLIC	?BindParameter@CQuery@@QAEHGFFFKFPAXJPAJ@Z	; CQuery::BindParameter
PUBLIC	?MoreResults@CQuery@@QAEHXZ			; CQuery::MoreResults
PUBLIC	?WriteLogFile@CQuery@@QAAXPADZZ			; CQuery::WriteLogFile
PUBLIC	?EnableConnectionPooling@CQuery@@SAHXZ		; CQuery::EnableConnectionPooling
PUBLIC	?GetPWDFromToken@@YAHPBDPAD@Z			; GetPWDFromToken
PUBLIC	?Decrpyt@@YAXPAEPAD@Z				; Decrpyt
PUBLIC	?_OptionsStorage@?1??__local_stdio_printf_options@@9@4_KA ; `__local_stdio_printf_options'::`2'::_OptionsStorage
PUBLIC	?_OptionsStorage@?1??__local_stdio_scanf_options@@9@4_KA ; `__local_stdio_scanf_options'::`2'::_OptionsStorage
PUBLIC	??_C@_04NOJCDH@?$CF02x@				; `string'
PUBLIC	??_C@_0DB@LCKDCOHF@DRIVER?$DN?$HLMicrosoft?5Access?5Driver@ ; `string'
PUBLIC	??_C@_0L@IGAOAHAB@FileDsn?$DN?$CFs@		; `string'
PUBLIC	??_C@_0DD@BKEPHFNG@CQuery?3?3BindParameter?5?9?5result?5@ ; `string'
PUBLIC	??_C@_0P@PHEABAGN@SQLMoreResults@		; `string'
PUBLIC	??_C@_0M@FBMLJEEM@CQUERYNOCOL@			; `string'
PUBLIC	??_C@_04HIBGFPH@NULL@				; `string'
PUBLIC	??_C@_0BH@NJAMFEFI@ERROR?3Colume?5not?5found@	; `string'
PUBLIC	??_C@_05OAGAMKLF@00000@				; `string'
PUBLIC	??_C@_0BO@HJEJONGA@query?3?$CFs?6SQLSTATE?3?$CFs?5error?3?$CFs@ ; `string'
PUBLIC	??_C@_0BF@KIMLEFFG@SQLSTATE?3?$CFs?5error?3?$CFs@ ; `string'
PUBLIC	??_C@_01MCMALHOG@a@				; `string'
PUBLIC	??_C@_0BG@DGAFOMHO@?4?4?2CQuery?9LogFile?4txt@	; `string'
PUBLIC	??_C@_0CA@CKBPMIJH@?$CFd?1?$CF02d?1?$CF02d?7?$CF02d?3?$CF02d?3?$CF02d?6?$CFs?6@ ; `string'
PUBLIC	__real@c2c80000
PUBLIC	__real@c2cc0000
EXTRN	??_U@YAPAXI@Z:PROC				; operator new[]
EXTRN	??_V@YAXPAX@Z:PROC				; operator delete[]
EXTRN	_stricmp:PROC
EXTRN	__imp__OutputDebugStringA@4:PROC
EXTRN	__imp__GetCurrentThreadId@0:PROC
EXTRN	__imp__GetLocalTime@4:PROC
EXTRN	__imp__lstrcmpA@8:PROC
EXTRN	__imp__lstrcpyA@8:PROC
EXTRN	__imp__lstrlenA@4:PROC
EXTRN	__imp__wsprintfA:PROC
EXTRN	_fclose:PROC
EXTRN	_fopen:PROC
EXTRN	___stdio_common_vfprintf:PROC
EXTRN	___stdio_common_vsprintf:PROC
EXTRN	___stdio_common_vsscanf:PROC
EXTRN	_atof:PROC
EXTRN	_atoi:PROC
EXTRN	__atoi64:PROC
EXTRN	?WriteLog@@YAXPBDZZ:PROC			; WriteLog
EXTRN	?MakeFileNameDate@@YAPBDPBD@Z:PROC		; MakeFileNameDate
EXTRN	_SQLAllocHandle@12:PROC
EXTRN	_SQLBindCol@24:PROC
EXTRN	_SQLCloseCursor@4:PROC
EXTRN	_SQLConnect@28:PROC
EXTRN	_SQLDescribeCol@36:PROC
EXTRN	_SQLDisconnect@4:PROC
EXTRN	_SQLExecDirect@12:PROC
EXTRN	_SQLFetch@4:PROC
EXTRN	_SQLFreeHandle@8:PROC
EXTRN	_SQLFreeStmt@8:PROC
EXTRN	_SQLGetData@24:PROC
EXTRN	_SQLGetDiagRec@32:PROC
EXTRN	_SQLNumResultCols@8:PROC
EXTRN	_SQLParamData@8:PROC
EXTRN	_SQLPutData@12:PROC
EXTRN	_SQLSetEnvAttr@16:PROC
EXTRN	_SQLDriverConnect@32:PROC
EXTRN	_SQLMoreResults@4:PROC
EXTRN	_SQLBindParameter@40:PROC
EXTRN	_des3_set_3keys:PROC
EXTRN	_des3_decrypt:PROC
EXTRN	@__security_check_cookie@4:PROC
EXTRN	__chkstk:PROC
EXTRN	_memcpy:PROC
EXTRN	_memset:PROC
EXTRN	___security_cookie:DWORD
EXTRN	__fltused:DWORD
;	COMDAT ?_OptionsStorage@?1??__local_stdio_printf_options@@9@4_KA
_BSS	SEGMENT
?_OptionsStorage@?1??__local_stdio_printf_options@@9@4_KA DQ 01H DUP (?) ; `__local_stdio_printf_options'::`2'::_OptionsStorage
_BSS	ENDS
;	COMDAT ?_OptionsStorage@?1??__local_stdio_scanf_options@@9@4_KA
_BSS	SEGMENT
?_OptionsStorage@?1??__local_stdio_scanf_options@@9@4_KA DQ 01H DUP (?) ; `__local_stdio_scanf_options'::`2'::_OptionsStorage
_BSS	ENDS
;	COMDAT __real@c2cc0000
CONST	SEGMENT
__real@c2cc0000 DD 0c2cc0000r			; -102
CONST	ENDS
;	COMDAT __real@c2c80000
CONST	SEGMENT
__real@c2c80000 DD 0c2c80000r			; -100
CONST	ENDS
;	COMDAT ??_C@_0CA@CKBPMIJH@?$CFd?1?$CF02d?1?$CF02d?7?$CF02d?3?$CF02d?3?$CF02d?6?$CFs?6@
CONST	SEGMENT
??_C@_0CA@CKBPMIJH@?$CFd?1?$CF02d?1?$CF02d?7?$CF02d?3?$CF02d?3?$CF02d?6?$CFs?6@ DB '%'
	DB	'd/%02d/%02d', 09H, '%02d:%02d:%02d', 0aH, '%s', 0aH, 00H ; `string'
CONST	ENDS
;	COMDAT ??_C@_0BG@DGAFOMHO@?4?4?2CQuery?9LogFile?4txt@
CONST	SEGMENT
??_C@_0BG@DGAFOMHO@?4?4?2CQuery?9LogFile?4txt@ DB '..\CQuery-LogFile.txt', 00H ; `string'
CONST	ENDS
;	COMDAT ??_C@_01MCMALHOG@a@
CONST	SEGMENT
??_C@_01MCMALHOG@a@ DB 'a', 00H				; `string'
CONST	ENDS
;	COMDAT ??_C@_0BF@KIMLEFFG@SQLSTATE?3?$CFs?5error?3?$CFs@
CONST	SEGMENT
??_C@_0BF@KIMLEFFG@SQLSTATE?3?$CFs?5error?3?$CFs@ DB 'SQLSTATE:%s error:%'
	DB	's', 00H					; `string'
CONST	ENDS
;	COMDAT ??_C@_0BO@HJEJONGA@query?3?$CFs?6SQLSTATE?3?$CFs?5error?3?$CFs@
CONST	SEGMENT
??_C@_0BO@HJEJONGA@query?3?$CFs?6SQLSTATE?3?$CFs?5error?3?$CFs@ DB 'query'
	DB	':%s', 0aH, 'SQLSTATE:%s error:%s', 00H	; `string'
CONST	ENDS
;	COMDAT ??_C@_05OAGAMKLF@00000@
CONST	SEGMENT
??_C@_05OAGAMKLF@00000@ DB '00000', 00H			; `string'
CONST	ENDS
;	COMDAT ??_C@_0BH@NJAMFEFI@ERROR?3Colume?5not?5found@
CONST	SEGMENT
??_C@_0BH@NJAMFEFI@ERROR?3Colume?5not?5found@ DB 'ERROR:Colume not found', 00H ; `string'
CONST	ENDS
;	COMDAT ??_C@_04HIBGFPH@NULL@
CONST	SEGMENT
??_C@_04HIBGFPH@NULL@ DB 'NULL', 00H			; `string'
CONST	ENDS
;	COMDAT ??_C@_0M@FBMLJEEM@CQUERYNOCOL@
CONST	SEGMENT
??_C@_0M@FBMLJEEM@CQUERYNOCOL@ DB 'CQUERYNOCOL', 00H	; `string'
CONST	ENDS
;	COMDAT ??_C@_0P@PHEABAGN@SQLMoreResults@
CONST	SEGMENT
??_C@_0P@PHEABAGN@SQLMoreResults@ DB 'SQLMoreResults', 00H ; `string'
CONST	ENDS
;	COMDAT ??_C@_0DD@BKEPHFNG@CQuery?3?3BindParameter?5?9?5result?5@
CONST	SEGMENT
??_C@_0DD@BKEPHFNG@CQuery?3?3BindParameter?5?9?5result?5@ DB 'CQuery::Bin'
	DB	'dParameter - result : %d, ThreadID : %d', 00H ; `string'
CONST	ENDS
;	COMDAT ??_C@_0L@IGAOAHAB@FileDsn?$DN?$CFs@
CONST	SEGMENT
??_C@_0L@IGAOAHAB@FileDsn?$DN?$CFs@ DB 'FileDsn=%s', 00H ; `string'
CONST	ENDS
;	COMDAT ??_C@_0DB@LCKDCOHF@DRIVER?$DN?$HLMicrosoft?5Access?5Driver@
CONST	SEGMENT
??_C@_0DB@LCKDCOHF@DRIVER?$DN?$HLMicrosoft?5Access?5Driver@ DB 'DRIVER={M'
	DB	'icrosoft Access Driver (*.mdb)};DBQ=%s;', 00H ; `string'
CONST	ENDS
;	COMDAT ??_C@_04NOJCDH@?$CF02x@
CONST	SEGMENT
??_C@_04NOJCDH@?$CF02x@ DB '%02x', 00H			; `string'
CONST	ENDS
;	COMDAT ?keys@?1??Decrpyt@@YAXPAEPAD@Z@4PAY07EA
_DATA	SEGMENT
?keys@?1??Decrpyt@@YAXPAEPAD@Z@4PAY07EA DB 032H		; `Decrpyt'::`2'::keys
	DB	089H
	DB	045H
	DB	09aH
	DB	089H
	DB	0abH
	DB	0cdH
	DB	011H
	DB	023H
	DB	045H
	DB	067H
	DB	089H
	DB	0abH
	DB	0cdH
	DB	0efH
	DB	01H
	DB	01fH
	DB	067H
	DB	089H
	DB	054H
	DB	0cdH
	DB	0efH
	DB	00H
	DB	023H
_DATA	ENDS
; Function compile flags: /Ogtp
; File C:\IAGOS\server\v18\Source\Source\_database\Query.cpp
;	COMDAT ?Decrpyt@@YAXPAEPAD@Z
_TEXT	SEGMENT
_ctx3$ = -772						; size = 768
__$ArrayPad$ = -4					; size = 4
_pEncrypted$ = 8					; size = 4
_szResult$ = 12						; size = 4
?Decrpyt@@YAXPAEPAD@Z PROC				; Decrpyt, COMDAT

; 14   : {

  00000	55		 push	 ebp
  00001	8b ec		 mov	 ebp, esp
  00003	81 ec 04 03 00
	00		 sub	 esp, 772		; 00000304H
  00009	a1 00 00 00 00	 mov	 eax, DWORD PTR ___security_cookie
  0000e	33 c5		 xor	 eax, ebp
  00010	89 45 fc	 mov	 DWORD PTR __$ArrayPad$[ebp], eax
  00013	53		 push	 ebx
  00014	8b 5d 0c	 mov	 ebx, DWORD PTR _szResult$[ebp]

; 15   : 	static unsigned char keys[3][8] =
; 16   : 	{
; 17   : 		{ 0x32, 0x89, 0x45, 0x9A, 0x89, 0xAB, 0xCD, 0x11 },
; 18   : 		{ 0x23, 0x45, 0x67, 0x89, 0xAB, 0xCD, 0xEF, 0x01 },
; 19   : 		{ 0x1F, 0x67, 0x89, 0x54, 0xCD, 0xEF, 0x00, 0x23 }
; 20   : 	};
; 21   : 
; 22   :     des3_context ctx3;
; 23   :     des3_set_3keys( &ctx3, keys[0], keys[1], keys[2] );

  00017	8d 85 fc fc ff
	ff		 lea	 eax, DWORD PTR _ctx3$[ebp]
  0001d	56		 push	 esi
  0001e	8b 75 08	 mov	 esi, DWORD PTR _pEncrypted$[ebp]
  00021	57		 push	 edi
  00022	68 10 00 00 00	 push	 OFFSET ?keys@?1??Decrpyt@@YAXPAEPAD@Z@4PAY07EA+16
  00027	68 08 00 00 00	 push	 OFFSET ?keys@?1??Decrpyt@@YAXPAEPAD@Z@4PAY07EA+8
  0002c	68 00 00 00 00	 push	 OFFSET ?keys@?1??Decrpyt@@YAXPAEPAD@Z@4PAY07EA
  00031	50		 push	 eax
  00032	e8 00 00 00 00	 call	 _des3_set_3keys
  00037	83 c4 10	 add	 esp, 16			; 00000010H
  0003a	bf 03 00 00 00	 mov	 edi, 3
  0003f	2b de		 sub	 ebx, esi
$LL4@Decrpyt:

; 24   : 
; 25   :     unsigned char* input = pEncrypted;
; 26   :     unsigned char* result = (unsigned char*)szResult;
; 27   : 	for( int i=0; i<3; i++ )
; 28   : 		des3_decrypt( &ctx3, input + i*8, result + i*8 );

  00041	8d 04 33	 lea	 eax, DWORD PTR [ebx+esi]
  00044	50		 push	 eax
  00045	8d 85 fc fc ff
	ff		 lea	 eax, DWORD PTR _ctx3$[ebp]
  0004b	56		 push	 esi
  0004c	50		 push	 eax
  0004d	e8 00 00 00 00	 call	 _des3_decrypt
  00052	83 c4 0c	 add	 esp, 12			; 0000000cH
  00055	83 c6 08	 add	 esi, 8
  00058	83 ef 01	 sub	 edi, 1
  0005b	75 e4		 jne	 SHORT $LL4@Decrpyt

; 29   : }

  0005d	8b 4d fc	 mov	 ecx, DWORD PTR __$ArrayPad$[ebp]
  00060	5f		 pop	 edi
  00061	5e		 pop	 esi
  00062	33 cd		 xor	 ecx, ebp
  00064	5b		 pop	 ebx
  00065	e8 00 00 00 00	 call	 @__security_check_cookie@4
  0006a	8b e5		 mov	 esp, ebp
  0006c	5d		 pop	 ebp
  0006d	c3		 ret	 0
?Decrpyt@@YAXPAEPAD@Z ENDP				; Decrpyt
_TEXT	ENDS
; Function compile flags: /Ogtp
; File C:\IAGOS\server\v18\Source\Source\_database\Query.cpp
;	COMDAT ?GetPWDFromToken@@YAHPBDPAD@Z
_TEXT	SEGMENT
_szPWD$GSCopy$1$ = -268					; size = 4
_szBuf$1 = -264						; size = 3
_byPWD$2 = -260						; size = 256
__$ArrayPad$ = -4					; size = 4
_szToken$ = 8						; size = 4
_szPWD$ = 12						; size = 4
?GetPWDFromToken@@YAHPBDPAD@Z PROC			; GetPWDFromToken, COMDAT

; 32   : {

  00000	55		 push	 ebp
  00001	8b ec		 mov	 ebp, esp
  00003	81 ec 0c 01 00
	00		 sub	 esp, 268		; 0000010cH
  00009	a1 00 00 00 00	 mov	 eax, DWORD PTR ___security_cookie
  0000e	33 c5		 xor	 eax, ebp
  00010	89 45 fc	 mov	 DWORD PTR __$ArrayPad$[ebp], eax
  00013	8b 45 0c	 mov	 eax, DWORD PTR _szPWD$[ebp]
  00016	53		 push	 ebx
  00017	8b 5d 08	 mov	 ebx, DWORD PTR _szToken$[ebp]
  0001a	57		 push	 edi

; 33   : 
; 34   : 	int nCount = strlen( szToken ) / 2;

  0001b	8b fb		 mov	 edi, ebx
  0001d	89 85 f4 fe ff
	ff		 mov	 DWORD PTR _szPWD$GSCopy$1$[ebp], eax
  00023	8d 4f 01	 lea	 ecx, DWORD PTR [edi+1]
$LL11@GetPWDFrom:
  00026	8a 07		 mov	 al, BYTE PTR [edi]
  00028	47		 inc	 edi
  00029	84 c0		 test	 al, al
  0002b	75 f9		 jne	 SHORT $LL11@GetPWDFrom
  0002d	2b f9		 sub	 edi, ecx
  0002f	d1 ef		 shr	 edi, 1

; 35   : 	if( nCount > 0 )

  00031	74 6a		 je	 SHORT $LN5@GetPWDFrom

; 36   : 	{
; 37   : 		BYTE byPWD[256];
; 38   : 		char szBuf[3] = {0, };

  00033	33 c0		 xor	 eax, eax
  00035	56		 push	 esi
  00036	66 89 85 f8 fe
	ff ff		 mov	 WORD PTR _szBuf$1[ebp], ax
  0003d	33 f6		 xor	 esi, esi
  0003f	88 85 fa fe ff
	ff		 mov	 BYTE PTR _szBuf$1[ebp+2], al
$LL4@GetPWDFrom:

; 39   : 		for( int i=0; i<nCount; i++ )
; 40   : 		{
; 41   : 			memcpy( szBuf, szToken + i*2, 2 );						

  00045	66 8b 04 73	 mov	 ax, WORD PTR [ebx+esi*2]
  00049	66 89 85 f8 fe
	ff ff		 mov	 WORD PTR _szBuf$1[ebp], ax

; 42   : 			sscanf( szBuf, "%02x", (byPWD + i) );

  00050	8d 85 fc fe ff
	ff		 lea	 eax, DWORD PTR _byPWD$2[ebp]
  00056	03 c6		 add	 eax, esi
  00058	50		 push	 eax
  00059	8d 85 f8 fe ff
	ff		 lea	 eax, DWORD PTR _szBuf$1[ebp]
  0005f	68 00 00 00 00	 push	 OFFSET ??_C@_04NOJCDH@?$CF02x@
  00064	50		 push	 eax
  00065	e8 00 00 00 00	 call	 _sscanf
  0006a	46		 inc	 esi
  0006b	83 c4 0c	 add	 esp, 12			; 0000000cH
  0006e	3b f7		 cmp	 esi, edi
  00070	7c d3		 jl	 SHORT $LL4@GetPWDFrom

; 43   : 		}
; 44   : 		Decrpyt( byPWD, szPWD );

  00072	5e		 pop	 esi
  00073	ff b5 f4 fe ff
	ff		 push	 DWORD PTR _szPWD$GSCopy$1$[ebp]
  00079	8d 85 fc fe ff
	ff		 lea	 eax, DWORD PTR _byPWD$2[ebp]
  0007f	50		 push	 eax
  00080	e8 00 00 00 00	 call	 ?Decrpyt@@YAXPAEPAD@Z	; Decrpyt
  00085	83 c4 08	 add	 esp, 8

; 45   : 		return TRUE;

  00088	b8 01 00 00 00	 mov	 eax, 1
  0008d	5f		 pop	 edi

; 46   : 	}
; 47   : 	return FALSE;
; 48   : /*
; 49   : 	int i;
; 50   : 	static unsigned char keys[3][8] =
; 51   : 	{
; 52   : 		{ 0x32, 0x89, 0x45, 0x9A, 0x89, 0xAB, 0xCD, 0x11 },
; 53   : 		{ 0x23, 0x45, 0x67, 0x89, 0xAB, 0xCD, 0xEF, 0x01 },
; 54   : 		{ 0x1F, 0x67, 0x89, 0x54, 0xCD, 0xEF, 0x00, 0x23 }
; 55   : 	};
; 56   : 
; 57   :     des3_context ctx3;
; 58   :     des3_set_3keys( &ctx3, keys[0], keys[1], keys[2] );
; 59   : 
; 60   : 	{
; 61   : 		// uncomment this block to make encrypted password
; 62   : 		// unsigned char input[24] = { '1', '2', };       // original password
; 63   : 		unsigned char input[24] = {0, };       // original password
; 64   : 		unsigned char output[24];
; 65   : 		
; 66   : 		strcpy( (char*)input, szToken );
; 67   : 
; 68   : 		for( i=0; i<3; i++ )
; 69   : 		{
; 70   : 			unsigned char buf[8] = { 0, };
; 71   : 			memcpy( buf, input+i*8, 8 );
; 72   : 			des3_encrypt( &ctx3, buf, output + i*8 );
; 73   : 		}
; 74   : 
; 75   : 		char szBuffer[256] = {0, };
; 76   : 		for( i=0; i<24; i++ )
; 77   : 			sprintf( szBuffer+i*2, "%02X", output[i] );
; 78   : 		OutputDebugString( szBuffer );
; 79   : 		
; 80   : 	}
; 81   : 	OutputDebugString( "\n" );
; 82   : */
; 83   : 	return TRUE;
; 84   : }

  0008e	5b		 pop	 ebx
  0008f	8b 4d fc	 mov	 ecx, DWORD PTR __$ArrayPad$[ebp]
  00092	33 cd		 xor	 ecx, ebp
  00094	e8 00 00 00 00	 call	 @__security_check_cookie@4
  00099	8b e5		 mov	 esp, ebp
  0009b	5d		 pop	 ebp
  0009c	c3		 ret	 0
$LN5@GetPWDFrom:
  0009d	8b 4d fc	 mov	 ecx, DWORD PTR __$ArrayPad$[ebp]
  000a0	33 c0		 xor	 eax, eax
  000a2	5f		 pop	 edi
  000a3	33 cd		 xor	 ecx, ebp
  000a5	5b		 pop	 ebx
  000a6	e8 00 00 00 00	 call	 @__security_check_cookie@4
  000ab	8b e5		 mov	 esp, ebp
  000ad	5d		 pop	 ebp
  000ae	c3		 ret	 0
?GetPWDFromToken@@YAHPBDPAD@Z ENDP			; GetPWDFromToken
_TEXT	ENDS
; Function compile flags: /Ogtp
; File C:\IAGOS\server\v18\Source\Source\_database\Query.cpp
;	COMDAT ?EnableConnectionPooling@CQuery@@SAHXZ
_TEXT	SEGMENT
?EnableConnectionPooling@CQuery@@SAHXZ PROC		; CQuery::EnableConnectionPooling, COMDAT

; 122  : 	SQLRETURN result = SQLSetEnvAttr( NULL,  // make process level cursor pooling

  00000	6a fa		 push	 -6			; fffffffaH
  00002	6a 01		 push	 1
  00004	68 c9 00 00 00	 push	 201			; 000000c9H
  00009	6a 00		 push	 0
  0000b	e8 00 00 00 00	 call	 _SQLSetEnvAttr@16

; 123  : 					   			     SQL_ATTR_CONNECTION_POOLING,
; 124  : 						             (SQLPOINTER)SQL_CP_ONE_PER_DRIVER,
; 125  : 						             SQL_IS_INTEGER );
; 126  : 
; 127  : 	return SQL_SUCCEEDED( result ); 

  00010	66 a9 fe ff	 test	 ax, -2			; fffffffeH
  00014	b8 00 00 00 00	 mov	 eax, 0
  00019	0f 94 c0	 sete	 al

; 128  : }

  0001c	c3		 ret	 0
?EnableConnectionPooling@CQuery@@SAHXZ ENDP		; CQuery::EnableConnectionPooling
_TEXT	ENDS
; Function compile flags: /Ogtp
; File C:\IAGOS\server\v18\Source\Source\_database\Query.cpp
; File C:\Program Files (x86)\Windows Kits\10\Include\10.0.26100.0\ucrt\stdio.h
; File C:\IAGOS\server\v18\Source\Source\_database\Query.cpp
;	COMDAT ?WriteLogFile@CQuery@@QAAXPADZZ
_TEXT	SEGMENT
_time$ = -65556						; size = 16
_szBuffer$ = -65540					; size = 65536
__$ArrayPad$ = -4					; size = 4
_this$ = 8						; size = 4
_lpszFormat$ = 12					; size = 4
?WriteLogFile@CQuery@@QAAXPADZZ PROC			; CQuery::WriteLogFile, COMDAT

; 606  : {	

  00000	55		 push	 ebp
  00001	8b ec		 mov	 ebp, esp
  00003	b8 14 00 01 00	 mov	 eax, 65556		; 00010014H
  00008	e8 00 00 00 00	 call	 __chkstk
  0000d	a1 00 00 00 00	 mov	 eax, DWORD PTR ___security_cookie
  00012	33 c5		 xor	 eax, ebp
  00014	89 45 fc	 mov	 DWORD PTR __$ArrayPad$[ebp], eax
; File C:\Program Files (x86)\Windows Kits\10\Include\10.0.26100.0\ucrt\stdio.h

; 1392 :         int const _Result = __stdio_common_vsprintf(

  00017	8d 45 10	 lea	 eax, DWORD PTR _lpszFormat$[ebp+4]
  0001a	50		 push	 eax
  0001b	6a 00		 push	 0
  0001d	ff 75 0c	 push	 DWORD PTR _lpszFormat$[ebp]
  00020	8d 85 fc ff fe
	ff		 lea	 eax, DWORD PTR _szBuffer$[ebp]
  00026	68 ff ff 00 00	 push	 65535			; 0000ffffH
  0002b	50		 push	 eax
  0002c	e8 00 00 00 00	 call	 ___local_stdio_printf_options
  00031	8b 08		 mov	 ecx, DWORD PTR [eax]
  00033	ff 70 04	 push	 DWORD PTR [eax+4]
  00036	83 c9 01	 or	 ecx, 1
  00039	51		 push	 ecx
  0003a	e8 00 00 00 00	 call	 ___stdio_common_vsprintf

; 1393 :             _CRT_INTERNAL_LOCAL_PRINTF_OPTIONS | _CRT_INTERNAL_PRINTF_LEGACY_VSPRINTF_NULL_TERMINATION,
; 1394 :             _Buffer, _BufferCount, _Format, _Locale, _ArgList);
; 1395 : 
; 1396 :         return _Result < 0 ? -1 : _Result;

  0003f	83 c9 ff	 or	 ecx, -1
  00042	83 c4 1c	 add	 esp, 28			; 0000001cH
  00045	85 c0		 test	 eax, eax
  00047	0f 48 c1	 cmovs	 eax, ecx
; File C:\IAGOS\server\v18\Source\Source\_database\Query.cpp

; 614  : 	if( n == -1 ) // if the number of bytes to write exceeds buffer, then count bytes are written and -1 is returned

  0004a	3b c1		 cmp	 eax, ecx
  0004c	0f 84 88 00 00
	00		 je	 $LN1@WriteLogFi

; 615  : 		return;
; 616  : 
; 617  : 	OutputDebugString( szBuffer );

  00052	56		 push	 esi
  00053	8d 85 fc ff fe
	ff		 lea	 eax, DWORD PTR _szBuffer$[ebp]
  00059	50		 push	 eax
  0005a	ff 15 00 00 00
	00		 call	 DWORD PTR __imp__OutputDebugStringA@4

; 618  : 
; 619  : 	FILE* fp = fopen( MakeFileNameDate( "..\\CQuery-LogFile.txt" ), "a" );

  00060	68 00 00 00 00	 push	 OFFSET ??_C@_01MCMALHOG@a@
  00065	68 00 00 00 00	 push	 OFFSET ??_C@_0BG@DGAFOMHO@?4?4?2CQuery?9LogFile?4txt@
  0006a	e8 00 00 00 00	 call	 ?MakeFileNameDate@@YAPBDPBD@Z ; MakeFileNameDate
  0006f	83 c4 04	 add	 esp, 4
  00072	50		 push	 eax
  00073	e8 00 00 00 00	 call	 _fopen
  00078	8b f0		 mov	 esi, eax
  0007a	83 c4 08	 add	 esp, 8

; 620  : 	if( fp == NULL )

  0007d	85 f6		 test	 esi, esi
  0007f	74 58		 je	 SHORT $LN11@WriteLogFi

; 621  : 		return;
; 622  : 
; 623  : 	// time
; 624  : 	SYSTEMTIME	time;
; 625  : 	GetLocalTime( &time );

  00081	8d 85 ec ff fe
	ff		 lea	 eax, DWORD PTR _time$[ebp]
  00087	50		 push	 eax
  00088	ff 15 00 00 00
	00		 call	 DWORD PTR __imp__GetLocalTime@4

; 626  : 	fprintf( fp, "%d/%02d/%02d\t%02d:%02d:%02d\n%s\n", 

  0008e	0f b7 8d f8 ff
	fe ff		 movzx	 ecx, WORD PTR _time$[ebp+12]
  00095	8d 85 fc ff fe
	ff		 lea	 eax, DWORD PTR _szBuffer$[ebp]
  0009b	50		 push	 eax
  0009c	0f b7 85 f6 ff
	fe ff		 movzx	 eax, WORD PTR _time$[ebp+10]
  000a3	51		 push	 ecx
  000a4	50		 push	 eax
  000a5	0f b7 85 f4 ff
	fe ff		 movzx	 eax, WORD PTR _time$[ebp+8]
  000ac	50		 push	 eax
  000ad	0f b7 85 f2 ff
	fe ff		 movzx	 eax, WORD PTR _time$[ebp+6]
  000b4	50		 push	 eax
  000b5	0f b7 85 ee ff
	fe ff		 movzx	 eax, WORD PTR _time$[ebp+2]
  000bc	50		 push	 eax
  000bd	0f b7 85 ec ff
	fe ff		 movzx	 eax, WORD PTR _time$[ebp]
  000c4	50		 push	 eax
  000c5	68 00 00 00 00	 push	 OFFSET ??_C@_0CA@CKBPMIJH@?$CFd?1?$CF02d?1?$CF02d?7?$CF02d?3?$CF02d?3?$CF02d?6?$CFs?6@
  000ca	56		 push	 esi
  000cb	e8 00 00 00 00	 call	 _fprintf

; 627  : 		     time.wYear, time.wMonth, time.wDay, time.wHour, time.wMinute, time.wSecond,
; 628  : 		     szBuffer );
; 629  : 	fclose( fp );

  000d0	56		 push	 esi
  000d1	e8 00 00 00 00	 call	 _fclose
  000d6	83 c4 28	 add	 esp, 40			; 00000028H
$LN11@WriteLogFi:
  000d9	5e		 pop	 esi
$LN1@WriteLogFi:

; 630  : }

  000da	8b 4d fc	 mov	 ecx, DWORD PTR __$ArrayPad$[ebp]
  000dd	33 cd		 xor	 ecx, ebp
  000df	e8 00 00 00 00	 call	 @__security_check_cookie@4
  000e4	8b e5		 mov	 esp, ebp
  000e6	5d		 pop	 ebp
  000e7	c3		 ret	 0
?WriteLogFile@CQuery@@QAAXPADZZ ENDP			; CQuery::WriteLogFile
_TEXT	ENDS
; Function compile flags: /Ogtp
; File C:\IAGOS\server\v18\Source\Source\_database\Query.cpp
;	COMDAT ?MoreResults@CQuery@@QAEHXZ
_TEXT	SEGMENT
?MoreResults@CQuery@@QAEHXZ PROC			; CQuery::MoreResults, COMDAT
; _this$ = ecx

; 249  : {

  00000	56		 push	 esi
  00001	8b f1		 mov	 esi, ecx

; 250  : //	Clear();	// ˝ÇÇčŔűŔ¸·Î Ç×»ó Ĺ¬¸®ľî µČ »óĹÂ·Î ˝ÇÇŕµÇ°Ô ÇŃ´Ů.
; 251  : 	
; 252  : 	SQLRETURN ret = SQLMoreResults( hStmt );

  00003	ff b6 08 07 00
	00		 push	 DWORD PTR [esi+1800]
  00009	e8 00 00 00 00	 call	 _SQLMoreResults@4

; 253  : 	switch( ret ) {

  0000e	98		 cwde
  0000f	83 e8 00	 sub	 eax, 0
  00012	74 17		 je	 SHORT $LN4@MoreResult
  00014	83 e8 01	 sub	 eax, 1
  00017	74 12		 je	 SHORT $LN4@MoreResult

; 254  : 	case SQL_SUCCESS:
; 255  : 	case SQL_SUCCESS_WITH_INFO:
; 256  : 		break;
; 257  : 	default:
; 258  : 		PrintDiag( "SQLMoreResults", SQL_HANDLE_STMT );	

  00019	6a 03		 push	 3
  0001b	68 00 00 00 00	 push	 OFFSET ??_C@_0P@PHEABAGN@SQLMoreResults@
  00020	8b ce		 mov	 ecx, esi
  00022	e8 00 00 00 00	 call	 ?PrintDiag@CQuery@@QAEXPBDF@Z ; CQuery::PrintDiag

; 259  : 		return FALSE;

  00027	33 c0		 xor	 eax, eax
  00029	5e		 pop	 esi

; 263  : }

  0002a	c3		 ret	 0
$LN4@MoreResult:

; 260  : 	}
; 261  : 
; 262  : 	return PrepareFetch();

  0002b	8b ce		 mov	 ecx, esi
  0002d	5e		 pop	 esi
  0002e	e9 00 00 00 00	 jmp	 ?PrepareFetch@CQuery@@QAEHXZ ; CQuery::PrepareFetch
?MoreResults@CQuery@@QAEHXZ ENDP			; CQuery::MoreResults
_TEXT	ENDS
; Function compile flags: /Ogtp
; File C:\IAGOS\server\v18\Source\Source\_database\Query.cpp
;	COMDAT ?BindParameter@CQuery@@QAEHGFFFKFPAXJPAJ@Z
_TEXT	SEGMENT
_parameterNumber$ = 8					; size = 2
_inputOutputType$ = 12					; size = 2
_valueType$ = 16					; size = 2
_parameterType$ = 20					; size = 2
_columnSize$ = 24					; size = 4
_decimalDigits$ = 28					; size = 2
_parameterValuePtr$ = 32				; size = 4
_bufferLength$ = 36					; size = 4
_strLen_or_IndPtr$ = 40					; size = 4
?BindParameter@CQuery@@QAEHGFFFKFPAXJPAJ@Z PROC		; CQuery::BindParameter, COMDAT
; _this$ = ecx

; 201  : {

  00000	55		 push	 ebp
  00001	8b ec		 mov	 ebp, esp
  00003	56		 push	 esi

; 202  : 	SQLRETURN result = ::SQLBindParameter( hStmt, parameterNumber, inputOutputType, valueType, parameterType, columnSize,

  00004	ff 75 28	 push	 DWORD PTR _strLen_or_IndPtr$[ebp]
  00007	ff 75 24	 push	 DWORD PTR _bufferLength$[ebp]
  0000a	ff 75 20	 push	 DWORD PTR _parameterValuePtr$[ebp]
  0000d	ff 75 1c	 push	 DWORD PTR _decimalDigits$[ebp]
  00010	ff 75 18	 push	 DWORD PTR _columnSize$[ebp]
  00013	ff 75 14	 push	 DWORD PTR _parameterType$[ebp]
  00016	ff 75 10	 push	 DWORD PTR _valueType$[ebp]
  00019	ff 75 0c	 push	 DWORD PTR _inputOutputType$[ebp]
  0001c	ff 75 08	 push	 DWORD PTR _parameterNumber$[ebp]
  0001f	ff b1 08 07 00
	00		 push	 DWORD PTR [ecx+1800]
  00025	e8 00 00 00 00	 call	 _SQLBindParameter@40
  0002a	0f b7 f0	 movzx	 esi, ax

; 203  : 		                                decimalDigits, parameterValuePtr, bufferLength, strLen_or_IndPtr );
; 204  : 	if( result != SQL_SUCCESS )

  0002d	66 85 f6	 test	 si, si
  00030	74 1f		 je	 SHORT $LN2@BindParame

; 205  : 	{
; 206  : 		TRACE( "CQuery::BindParameter\n" );
; 207  : 		WriteLog( "CQuery::BindParameter - result : %d, ThreadID : %d", result, ::GetCurrentThreadId() );

  00032	ff 15 00 00 00
	00		 call	 DWORD PTR __imp__GetCurrentThreadId@0
  00038	50		 push	 eax
  00039	0f bf c6	 movsx	 eax, si
  0003c	50		 push	 eax
  0003d	68 00 00 00 00	 push	 OFFSET ??_C@_0DD@BKEPHFNG@CQuery?3?3BindParameter?5?9?5result?5@
  00042	e8 00 00 00 00	 call	 ?WriteLog@@YAXPBDZZ	; WriteLog
  00047	83 c4 0c	 add	 esp, 12			; 0000000cH

; 208  : 		return FALSE;

  0004a	33 c0		 xor	 eax, eax
  0004c	5e		 pop	 esi

; 212  : }

  0004d	5d		 pop	 ebp
  0004e	c2 24 00	 ret	 36			; 00000024H
$LN2@BindParame:

; 209  : 	}
; 210  : 	else
; 211  : 		return TRUE;

  00051	b8 01 00 00 00	 mov	 eax, 1
  00056	5e		 pop	 esi

; 212  : }

  00057	5d		 pop	 ebp
  00058	c2 24 00	 ret	 36			; 00000024H
?BindParameter@CQuery@@QAEHGFFFKFPAXJPAJ@Z ENDP		; CQuery::BindParameter
_TEXT	ENDS
; Function compile flags: /Ogtp
; File C:\IAGOS\server\v18\Source\Source\_database\Query.cpp
;	COMDAT ?WriteBlob@CQuery@@QAEXPBDPAXH@Z
_TEXT	SEGMENT
_this$GSCopy$1$ = -10024				; size = 4
_cbBlob$ = -10020					; size = 4
_pToken$ = -10016					; size = 4
_size$GSCopy$1$ = -10012				; size = 4
_buf$GSCopy$1$ = -10008					; size = 4
_tmp$ = -10004						; size = 10000
__$ArrayPad$ = -4					; size = 4
_szSQL$ = 8						; size = 4
_buf$ = 12						; size = 4
_size$ = 16						; size = 4
?WriteBlob@CQuery@@QAEXPBDPAXH@Z PROC			; CQuery::WriteBlob, COMDAT
; _this$ = ecx

; 575  : {

  00000	55		 push	 ebp
  00001	8b ec		 mov	 ebp, esp
  00003	b8 28 27 00 00	 mov	 eax, 10024		; 00002728H
  00008	e8 00 00 00 00	 call	 __chkstk
  0000d	a1 00 00 00 00	 mov	 eax, DWORD PTR ___security_cookie
  00012	33 c5		 xor	 eax, ebp
  00014	89 45 fc	 mov	 DWORD PTR __$ArrayPad$[ebp], eax
  00017	8b 45 0c	 mov	 eax, DWORD PTR _buf$[ebp]
  0001a	56		 push	 esi
  0001b	57		 push	 edi
  0001c	8b 75 08	 mov	 esi, DWORD PTR _szSQL$[ebp]
  0001f	8b f9		 mov	 edi, ecx
  00021	8b 4d 10	 mov	 ecx, DWORD PTR _size$[ebp]
  00024	89 85 e8 d8 ff
	ff		 mov	 DWORD PTR _buf$GSCopy$1$[ebp], eax

; 576  : 	SQLINTEGER cbBlob;
; 577  : 	char tmp[BLOBBATCH],*p;
; 578  : 	SQLPOINTER pToken;
; 579  : 	int nPut;
; 580  : 
; 581  : 	cbBlob=SQL_LEN_DATA_AT_EXEC(size);

  0002a	b8 9c ff ff ff	 mov	 eax, -100		; ffffff9cH
  0002f	2b c1		 sub	 eax, ecx
  00031	89 bd d8 d8 ff
	ff		 mov	 DWORD PTR _this$GSCopy$1$[ebp], edi
  00037	89 85 dc d8 ff
	ff		 mov	 DWORD PTR _cbBlob$[ebp], eax

; 582  : 	SQLBindParameter(hStmt,1,SQL_PARAM_INPUT,SQL_C_BINARY,SQL_LONGVARBINARY,

  0003d	8d 85 dc d8 ff
	ff		 lea	 eax, DWORD PTR _cbBlob$[ebp]
  00043	50		 push	 eax
  00044	6a 00		 push	 0
  00046	6a 01		 push	 1
  00048	6a 00		 push	 0
  0004a	51		 push	 ecx
  0004b	6a fc		 push	 -4			; fffffffcH
  0004d	6a fe		 push	 -2			; fffffffeH
  0004f	6a 01		 push	 1
  00051	6a 01		 push	 1
  00053	ff b7 08 07 00
	00		 push	 DWORD PTR [edi+1800]
  00059	89 8d e4 d8 ff
	ff		 mov	 DWORD PTR _size$GSCopy$1$[ebp], ecx
  0005f	e8 00 00 00 00	 call	 _SQLBindParameter@40

; 583  : 		size,0,(SQLPOINTER)1,0,&cbBlob);
; 584  : 	SQLExecDirect(hStmt,(SQLCHAR *)szSQL,SQL_NTS);

  00064	6a fd		 push	 -3			; fffffffdH
  00066	56		 push	 esi
  00067	ff b7 08 07 00
	00		 push	 DWORD PTR [edi+1800]
  0006d	e8 00 00 00 00	 call	 _SQLExecDirect@12

; 585  : 	SQLRETURN ret=SQLParamData(hStmt, &pToken);

  00072	8d 85 e0 d8 ff
	ff		 lea	 eax, DWORD PTR _pToken$[ebp]
  00078	50		 push	 eax
  00079	ff b7 08 07 00
	00		 push	 DWORD PTR [edi+1800]
  0007f	e8 00 00 00 00	 call	 _SQLParamData@8

; 586  : 	while (ret==SQL_NEED_DATA) 

  00084	66 83 f8 63	 cmp	 ax, 99			; 00000063H
  00088	0f 85 95 00 00
	00		 jne	 $LN3@WriteBlob
  0008e	53		 push	 ebx
  0008f	90		 npad	 1
$LL2@WriteBlob:

; 587  : 	{
; 588  : 		if (ret==SQL_NEED_DATA) 
; 589  : 		{
; 590  : 			if ((int)pToken==1) 

  00090	83 bd e0 d8 ff
	ff 01		 cmp	 DWORD PTR _pToken$[ebp], 1
  00097	75 6d		 jne	 SHORT $LN5@WriteBlob

; 591  : 			{
; 592  : 				for (p=(char *)buf;p<(char *)buf+size;p+=BLOBBATCH) 

  00099	8b 8d e8 d8 ff
	ff		 mov	 ecx, DWORD PTR _buf$GSCopy$1$[ebp]
  0009f	8b d9		 mov	 ebx, ecx
  000a1	8b 95 e4 d8 ff
	ff		 mov	 edx, DWORD PTR _size$GSCopy$1$[ebp]
  000a7	8d 04 0a	 lea	 eax, DWORD PTR [edx+ecx]
  000aa	3b c8		 cmp	 ecx, eax
  000ac	73 58		 jae	 SHORT $LN5@WriteBlob
  000ae	8b f2		 mov	 esi, edx
$LL6@WriteBlob:

; 593  : 				{
; 594  : 					nPut=min(BLOBBATCH,(char *)buf+size-p);

  000b0	81 fe 10 27 00
	00		 cmp	 esi, 10000		; 00002710H
  000b6	b8 10 27 00 00	 mov	 eax, 10000		; 00002710H
  000bb	8b fe		 mov	 edi, esi
  000bd	0f 4f f8	 cmovg	 edi, eax

; 595  : 					memcpy(tmp,p,nPut);

  000c0	8d 85 ec d8 ff
	ff		 lea	 eax, DWORD PTR _tmp$[ebp]
  000c6	57		 push	 edi
  000c7	53		 push	 ebx
  000c8	50		 push	 eax
  000c9	e8 00 00 00 00	 call	 _memcpy
  000ce	83 c4 0c	 add	 esp, 12			; 0000000cH

; 596  : 					SQLPutData(hStmt,(PTR)tmp,nPut);

  000d1	8d 85 ec d8 ff
	ff		 lea	 eax, DWORD PTR _tmp$[ebp]
  000d7	57		 push	 edi
  000d8	8b bd d8 d8 ff
	ff		 mov	 edi, DWORD PTR _this$GSCopy$1$[ebp]
  000de	50		 push	 eax
  000df	ff b7 08 07 00
	00		 push	 DWORD PTR [edi+1800]
  000e5	e8 00 00 00 00	 call	 _SQLPutData@12
  000ea	8b 85 e4 d8 ff
	ff		 mov	 eax, DWORD PTR _size$GSCopy$1$[ebp]
  000f0	81 c3 10 27 00
	00		 add	 ebx, 10000		; 00002710H
  000f6	03 85 e8 d8 ff
	ff		 add	 eax, DWORD PTR _buf$GSCopy$1$[ebp]
  000fc	81 ee 10 27 00
	00		 sub	 esi, 10000		; 00002710H
  00102	3b d8		 cmp	 ebx, eax
  00104	72 aa		 jb	 SHORT $LL6@WriteBlob
$LN5@WriteBlob:

; 597  : 				}
; 598  : 			}
; 599  : 		}
; 600  : 		ret=SQLParamData(hStmt, &pToken);

  00106	8d 85 e0 d8 ff
	ff		 lea	 eax, DWORD PTR _pToken$[ebp]
  0010c	50		 push	 eax
  0010d	ff b7 08 07 00
	00		 push	 DWORD PTR [edi+1800]
  00113	e8 00 00 00 00	 call	 _SQLParamData@8
  00118	66 83 f8 63	 cmp	 ax, 99			; 00000063H
  0011c	0f 84 6e ff ff
	ff		 je	 $LL2@WriteBlob

; 586  : 	while (ret==SQL_NEED_DATA) 

  00122	5b		 pop	 ebx
$LN3@WriteBlob:

; 601  : 	}
; 602  : 	Clear();

  00123	8b cf		 mov	 ecx, edi
  00125	e8 00 00 00 00	 call	 ?Clear@CQuery@@QAEXXZ	; CQuery::Clear

; 603  : }

  0012a	8b 4d fc	 mov	 ecx, DWORD PTR __$ArrayPad$[ebp]
  0012d	5f		 pop	 edi
  0012e	33 cd		 xor	 ecx, ebp
  00130	5e		 pop	 esi
  00131	e8 00 00 00 00	 call	 @__security_check_cookie@4
  00136	8b e5		 mov	 esp, ebp
  00138	5d		 pop	 ebp
  00139	c2 0c 00	 ret	 12			; 0000000cH
?WriteBlob@CQuery@@QAEXPBDPAXH@Z ENDP			; CQuery::WriteBlob
_TEXT	ENDS
; Function compile flags: /Ogtp
; File C:\IAGOS\server\v18\Source\Source\_database\Query.cpp
;	COMDAT ?ReadBlob@CQuery@@QAEHPBDPAX@Z
_TEXT	SEGMENT
_buf$GSCopy$1$ = -10016					; size = 4
_LenBin$ = -10012					; size = 4
_TotalGet$1$ = -10008					; size = 4
_BinaryPtr$ = -10004					; size = 10000
__$ArrayPad$ = -4					; size = 4
_szSQL$ = 8						; size = 4
_buf$ = 12						; size = 4
?ReadBlob@CQuery@@QAEHPBDPAX@Z PROC			; CQuery::ReadBlob, COMDAT
; _this$ = ecx

; 536  : {

  00000	55		 push	 ebp
  00001	8b ec		 mov	 ebp, esp
  00003	b8 20 27 00 00	 mov	 eax, 10016		; 00002720H
  00008	e8 00 00 00 00	 call	 __chkstk
  0000d	a1 00 00 00 00	 mov	 eax, DWORD PTR ___security_cookie
  00012	33 c5		 xor	 eax, ebp
  00014	89 45 fc	 mov	 DWORD PTR __$ArrayPad$[ebp], eax
  00017	8b 45 0c	 mov	 eax, DWORD PTR _buf$[ebp]
  0001a	53		 push	 ebx
  0001b	8b 5d 08	 mov	 ebx, DWORD PTR _szSQL$[ebp]
  0001e	56		 push	 esi
  0001f	57		 push	 edi
  00020	8b f9		 mov	 edi, ecx
  00022	89 85 e0 d8 ff
	ff		 mov	 DWORD PTR _buf$GSCopy$1$[ebp], eax

; 537  : 	SQLCHAR BinaryPtr[BLOBBATCH];
; 538  : 	SQLINTEGER LenBin;
; 539  : 	char *p;
; 540  : 	int nGet;
; 541  : 	int TotalGet=0;
; 542  : 
; 543  : 	SQLRETURN ret=SQLExecDirect(hStmt,(SQLCHAR *)szSQL,SQL_NTS);

  00028	6a fd		 push	 -3			; fffffffdH
  0002a	53		 push	 ebx
  0002b	33 f6		 xor	 esi, esi
  0002d	ff b7 08 07 00
	00		 push	 DWORD PTR [edi+1800]
  00033	89 b5 e8 d8 ff
	ff		 mov	 DWORD PTR _TotalGet$1$[ebp], esi
  00039	e8 00 00 00 00	 call	 _SQLExecDirect@12

; 544  : 	if (ret!=SQL_SUCCESS) {

  0003e	66 85 c0	 test	 ax, ax
  00041	74 20		 je	 SHORT $LN11@ReadBlob

; 545  : 		PrintDiag( szSQL );

  00043	6a 02		 push	 2
  00045	53		 push	 ebx
  00046	8b cf		 mov	 ecx, edi
  00048	e8 00 00 00 00	 call	 ?PrintDiag@CQuery@@QAEXPBDF@Z ; CQuery::PrintDiag
  0004d	5f		 pop	 edi

; 570  : }

  0004e	5e		 pop	 esi
  0004f	83 c8 ff	 or	 eax, -1
  00052	5b		 pop	 ebx
  00053	8b 4d fc	 mov	 ecx, DWORD PTR __$ArrayPad$[ebp]
  00056	33 cd		 xor	 ecx, ebp
  00058	e8 00 00 00 00	 call	 @__security_check_cookie@4
  0005d	8b e5		 mov	 esp, ebp
  0005f	5d		 pop	 ebp
  00060	c2 08 00	 ret	 8
$LN11@ReadBlob:

; 546  : 		return -1;
; 547  : 	}
; 548  : 
; 549  : 	while ((ret=SQLFetch(hStmt)) != SQL_NO_DATA) 

  00063	ff b7 08 07 00
	00		 push	 DWORD PTR [edi+1800]
  00069	e8 00 00 00 00	 call	 _SQLFetch@4
  0006e	66 83 f8 64	 cmp	 ax, 100			; 00000064H
  00072	0f 84 b2 00 00
	00		 je	 $LN15@ReadBlob
  00078	0f 1f 84 00 00
	00 00 00	 npad	 8
$LL2@ReadBlob:

; 550  : 	{
; 551  : 		p=(char *)buf;

  00080	8b 9d e0 d8 ff
	ff		 mov	 ebx, DWORD PTR _buf$GSCopy$1$[ebp]

; 552  : 		while ((ret=SQLGetData(hStmt,1,SQL_C_BINARY,BinaryPtr,sizeof(BinaryPtr),
; 553  : 			&LenBin))!=SQL_NO_DATA) {

  00086	8d 85 e4 d8 ff
	ff		 lea	 eax, DWORD PTR _LenBin$[ebp]
  0008c	50		 push	 eax
  0008d	68 10 27 00 00	 push	 10000			; 00002710H
  00092	8d 85 ec d8 ff
	ff		 lea	 eax, DWORD PTR _BinaryPtr$[ebp]
  00098	50		 push	 eax
  00099	6a fe		 push	 -2			; fffffffeH
  0009b	6a 01		 push	 1
  0009d	ff b7 08 07 00
	00		 push	 DWORD PTR [edi+1800]
  000a3	e8 00 00 00 00	 call	 _SQLGetData@24
  000a8	0f b7 c8	 movzx	 ecx, ax
  000ab	66 83 f9 64	 cmp	 cx, 100			; 00000064H
  000af	74 5e		 je	 SHORT $LN5@ReadBlob
$LL4@ReadBlob:

; 554  : 			if (LenBin==SQL_NULL_DATA) 

  000b1	8b 85 e4 d8 ff
	ff		 mov	 eax, DWORD PTR _LenBin$[ebp]
  000b7	83 f8 ff	 cmp	 eax, -1
  000ba	0f 84 86 00 00
	00		 je	 $LN13@ReadBlob

; 557  : 				return 0;
; 558  : 			}
; 559  : 			if (ret==SQL_SUCCESS)

  000c0	66 85 c9	 test	 cx, cx
  000c3	be 10 27 00 00	 mov	 esi, 10000		; 00002710H
  000c8	0f 44 f0	 cmove	 esi, eax

; 560  : 				nGet=LenBin;
; 561  : 			else
; 562  : 				nGet=BLOBBATCH;
; 563  : 			TotalGet+=nGet;
; 564  : 			memcpy(p,BinaryPtr,nGet);

  000cb	8d 85 ec d8 ff
	ff		 lea	 eax, DWORD PTR _BinaryPtr$[ebp]
  000d1	01 b5 e8 d8 ff
	ff		 add	 DWORD PTR _TotalGet$1$[ebp], esi
  000d7	56		 push	 esi
  000d8	50		 push	 eax
  000d9	53		 push	 ebx
  000da	e8 00 00 00 00	 call	 _memcpy
  000df	83 c4 0c	 add	 esp, 12			; 0000000cH
  000e2	8d 85 e4 d8 ff
	ff		 lea	 eax, DWORD PTR _LenBin$[ebp]

; 565  : 			p+=nGet;

  000e8	03 de		 add	 ebx, esi
  000ea	50		 push	 eax
  000eb	68 10 27 00 00	 push	 10000			; 00002710H
  000f0	8d 85 ec d8 ff
	ff		 lea	 eax, DWORD PTR _BinaryPtr$[ebp]
  000f6	50		 push	 eax
  000f7	6a fe		 push	 -2			; fffffffeH
  000f9	6a 01		 push	 1
  000fb	ff b7 08 07 00
	00		 push	 DWORD PTR [edi+1800]
  00101	e8 00 00 00 00	 call	 _SQLGetData@24
  00106	0f b7 c8	 movzx	 ecx, ax
  00109	66 83 f9 64	 cmp	 cx, 100			; 00000064H
  0010d	75 a2		 jne	 SHORT $LL4@ReadBlob
$LN5@ReadBlob:

; 546  : 		return -1;
; 547  : 	}
; 548  : 
; 549  : 	while ((ret=SQLFetch(hStmt)) != SQL_NO_DATA) 

  0010f	ff b7 08 07 00
	00		 push	 DWORD PTR [edi+1800]
  00115	e8 00 00 00 00	 call	 _SQLFetch@4
  0011a	66 83 f8 64	 cmp	 ax, 100			; 00000064H
  0011e	0f 85 5c ff ff
	ff		 jne	 $LL2@ReadBlob
  00124	8b b5 e8 d8 ff
	ff		 mov	 esi, DWORD PTR _TotalGet$1$[ebp]
$LN15@ReadBlob:

; 566  : 		}
; 567  : 	}
; 568  : 	Clear();

  0012a	8b cf		 mov	 ecx, edi
  0012c	e8 00 00 00 00	 call	 ?Clear@CQuery@@QAEXXZ	; CQuery::Clear
  00131	5f		 pop	 edi

; 569  : 	return TotalGet;

  00132	8b c6		 mov	 eax, esi

; 570  : }

  00134	5e		 pop	 esi
  00135	5b		 pop	 ebx
  00136	8b 4d fc	 mov	 ecx, DWORD PTR __$ArrayPad$[ebp]
  00139	33 cd		 xor	 ecx, ebp
  0013b	e8 00 00 00 00	 call	 @__security_check_cookie@4
  00140	8b e5		 mov	 esp, ebp
  00142	5d		 pop	 ebp
  00143	c2 08 00	 ret	 8
$LN13@ReadBlob:

; 555  : 			{
; 556  : 				Clear();

  00146	8b cf		 mov	 ecx, edi
  00148	e8 00 00 00 00	 call	 ?Clear@CQuery@@QAEXXZ	; CQuery::Clear

; 570  : }

  0014d	8b 4d fc	 mov	 ecx, DWORD PTR __$ArrayPad$[ebp]
  00150	33 c0		 xor	 eax, eax
  00152	5f		 pop	 edi
  00153	5e		 pop	 esi
  00154	33 cd		 xor	 ecx, ebp
  00156	5b		 pop	 ebx
  00157	e8 00 00 00 00	 call	 @__security_check_cookie@4
  0015c	8b e5		 mov	 esp, ebp
  0015e	5d		 pop	 ebp
  0015f	c2 08 00	 ret	 8
?ReadBlob@CQuery@@QAEHPBDPAX@Z ENDP			; CQuery::ReadBlob
_TEXT	ENDS
; Function compile flags: /Ogtp
; File C:\IAGOS\server\v18\Source\Source\_database\Query.cpp
;	COMDAT ?GetStr@CQuery@@QAEXPAD0@Z
_TEXT	SEGMENT
_sCol$ = 8						; size = 4
_buf$ = 12						; size = 4
?GetStr@CQuery@@QAEXPAD0@Z PROC				; CQuery::GetStr, COMDAT
; _this$ = ecx

; 474  : {

  00000	55		 push	 ebp
  00001	8b ec		 mov	 ebp, esp
  00003	56		 push	 esi

; 475  : 	int n;
; 476  : 	n=FindCol(sCol);

  00004	ff 75 08	 push	 DWORD PTR _sCol$[ebp]
  00007	8b f1		 mov	 esi, ecx
  00009	e8 00 00 00 00	 call	 ?FindCol@CQuery@@AAEHPAD@Z ; CQuery::FindCol

; 477  : 	if (n==-1) 

  0000e	83 f8 ff	 cmp	 eax, -1
  00011	75 13		 jne	 SHORT $LN2@GetStr

; 478  : 	{
; 479  : 		lstrcpy(buf,"ERROR:Colume not found");

  00013	68 00 00 00 00	 push	 OFFSET ??_C@_0BH@NJAMFEFI@ERROR?3Colume?5not?5found@
  00018	ff 75 0c	 push	 DWORD PTR _buf$[ebp]
  0001b	ff 15 00 00 00
	00		 call	 DWORD PTR __imp__lstrcpyA@8
  00021	5e		 pop	 esi

; 483  : 	}
; 484  : }

  00022	5d		 pop	 ebp
  00023	c2 08 00	 ret	 8
$LN2@GetStr:

; 480  : 	} else 
; 481  : 	{
; 482  : 		GetStr(n, buf);

  00026	ff 75 0c	 push	 DWORD PTR _buf$[ebp]
  00029	8b ce		 mov	 ecx, esi
  0002b	50		 push	 eax
  0002c	e8 00 00 00 00	 call	 ?GetStr@CQuery@@QAEXHPAD@Z ; CQuery::GetStr
  00031	5e		 pop	 esi

; 483  : 	}
; 484  : }

  00032	5d		 pop	 ebp
  00033	c2 08 00	 ret	 8
?GetStr@CQuery@@QAEXPAD0@Z ENDP				; CQuery::GetStr
_TEXT	ENDS
; Function compile flags: /Ogtp
; File C:\IAGOS\server\v18\Source\Source\_database\Query.cpp
;	COMDAT ?GetStr@CQuery@@QAEXHPAD@Z
_TEXT	SEGMENT
_nCol$ = 8						; size = 4
_buf$ = 12						; size = 4
?GetStr@CQuery@@QAEXHPAD@Z PROC				; CQuery::GetStr, COMDAT
; _this$ = ecx

; 457  : {

  00000	55		 push	 ebp
  00001	8b ec		 mov	 ebp, esp

; 458  : 	if (nCol > this->nCol) 

  00003	0f bf 81 0c 07
	00 00		 movsx	 eax, WORD PTR [ecx+1804]
  0000a	8b 55 08	 mov	 edx, DWORD PTR _nCol$[ebp]
  0000d	3b d0		 cmp	 edx, eax
  0000f	7e 1b		 jle	 SHORT $LN2@GetStr

; 459  : 	{
; 460  : 		strcpy(buf, "CQUERYNOCOL");

  00011	8b 4d 0c	 mov	 ecx, DWORD PTR _buf$[ebp]
  00014	f3 0f 7e 05 00
	00 00 00	 movq	 xmm0, QWORD PTR ??_C@_0M@FBMLJEEM@CQUERYNOCOL@
  0001c	66 0f d6 01	 movq	 QWORD PTR [ecx], xmm0
  00020	a1 08 00 00 00	 mov	 eax, DWORD PTR ??_C@_0M@FBMLJEEM@CQUERYNOCOL@+8
  00025	89 41 08	 mov	 DWORD PTR [ecx+8], eax

; 469  : 	}
; 470  : }

  00028	5d		 pop	 ebp
  00029	c2 08 00	 ret	 8
$LN2@GetStr:

; 461  : 		return;
; 462  : 	}
; 463  : 
; 464  : 	if (lCol[nCol-1]==SQL_NULL_DATA) 

  0002c	83 bc 91 0c 39
	00 00 ff	 cmp	 DWORD PTR [ecx+edx*4+14604], -1
  00034	75 12		 jne	 SHORT $LN3@GetStr

; 465  : 	{
; 466  : 		lstrcpy(buf,"NULL");

  00036	68 00 00 00 00	 push	 OFFSET ??_C@_04HIBGFPH@NULL@
  0003b	ff 75 0c	 push	 DWORD PTR _buf$[ebp]
  0003e	ff 15 00 00 00
	00		 call	 DWORD PTR __imp__lstrcpyA@8

; 469  : 	}
; 470  : }

  00044	5d		 pop	 ebp
  00045	c2 08 00	 ret	 8
$LN3@GetStr:

; 467  : 	} else {
; 468  : 		 strcpy(buf,Col[nCol-1]);

  00048	8b 8c 91 04 03
	00 00		 mov	 ecx, DWORD PTR [ecx+edx*4+772]
  0004f	8b 55 0c	 mov	 edx, DWORD PTR _buf$[ebp]
$LL6@GetStr:
  00052	8a 01		 mov	 al, BYTE PTR [ecx]
  00054	8d 49 01	 lea	 ecx, DWORD PTR [ecx+1]
  00057	88 02		 mov	 BYTE PTR [edx], al
  00059	8d 52 01	 lea	 edx, DWORD PTR [edx+1]
  0005c	84 c0		 test	 al, al
  0005e	75 f2		 jne	 SHORT $LL6@GetStr

; 469  : 	}
; 470  : }

  00060	5d		 pop	 ebp
  00061	c2 08 00	 ret	 8
?GetStr@CQuery@@QAEXHPAD@Z ENDP				; CQuery::GetStr
_TEXT	ENDS
; Function compile flags: /Ogtp
; File C:\IAGOS\server\v18\Source\Source\_database\Query.cpp
;	COMDAT ?GetChar@CQuery@@QAEDPAD@Z
_TEXT	SEGMENT
_sCol$ = 8						; size = 4
?GetChar@CQuery@@QAEDPAD@Z PROC				; CQuery::GetChar, COMDAT
; _this$ = ecx

; 445  : {

  00000	55		 push	 ebp
  00001	8b ec		 mov	 ebp, esp
  00003	56		 push	 esi

; 446  : 	int n;
; 447  : 	n = FindCol(sCol);

  00004	ff 75 08	 push	 DWORD PTR _sCol$[ebp]
  00007	8b f1		 mov	 esi, ecx
  00009	e8 00 00 00 00	 call	 ?FindCol@CQuery@@AAEHPAD@Z ; CQuery::FindCol

; 448  : 	if (n==-1)

  0000e	83 f8 ff	 cmp	 eax, -1
  00011	75 07		 jne	 SHORT $LN2@GetChar

; 449  : 		return CQUERYNOCOL;

  00013	b0 9a		 mov	 al, -102		; ffffff9aH
  00015	5e		 pop	 esi

; 452  : }

  00016	5d		 pop	 ebp
  00017	c2 04 00	 ret	 4
$LN2@GetChar:

; 450  : 	else
; 451  : 		return GetChar(n);

  0001a	50		 push	 eax
  0001b	8b ce		 mov	 ecx, esi
  0001d	e8 00 00 00 00	 call	 ?GetChar@CQuery@@QAEDH@Z ; CQuery::GetChar
  00022	5e		 pop	 esi

; 452  : }

  00023	5d		 pop	 ebp
  00024	c2 04 00	 ret	 4
?GetChar@CQuery@@QAEDPAD@Z ENDP				; CQuery::GetChar
_TEXT	ENDS
; Function compile flags: /Ogtp
; File C:\IAGOS\server\v18\Source\Source\_database\Query.cpp
;	COMDAT ?GetChar@CQuery@@QAEDH@Z
_TEXT	SEGMENT
_nCol$ = 8						; size = 4
?GetChar@CQuery@@QAEDH@Z PROC				; CQuery::GetChar, COMDAT
; _this$ = ecx

; 431  : {

  00000	55		 push	 ebp
  00001	8b ec		 mov	 ebp, esp

; 432  : 	if (nCol > this->nCol)

  00003	0f bf 81 0c 07
	00 00		 movsx	 eax, WORD PTR [ecx+1804]
  0000a	8b 55 08	 mov	 edx, DWORD PTR _nCol$[ebp]
  0000d	3b d0		 cmp	 edx, eax
  0000f	7e 06		 jle	 SHORT $LN2@GetChar

; 433  : 		return CQUERYNOCOL;

  00011	b0 9a		 mov	 al, -102		; ffffff9aH

; 441  : 	}
; 442  : }

  00013	5d		 pop	 ebp
  00014	c2 04 00	 ret	 4
$LN2@GetChar:

; 434  : 	
; 435  : 	if (lCol[nCol-1]==SQL_NULL_DATA) 

  00017	83 bc 91 0c 39
	00 00 ff	 cmp	 DWORD PTR [ecx+edx*4+14604], -1
  0001f	75 06		 jne	 SHORT $LN3@GetChar

; 436  : 	{
; 437  : 		return CQUERYNULL;

  00021	b0 9c		 mov	 al, -100		; ffffff9cH

; 441  : 	}
; 442  : }

  00023	5d		 pop	 ebp
  00024	c2 04 00	 ret	 4
$LN3@GetChar:

; 438  : 	} else 
; 439  : 	{
; 440  : 		return Col[nCol-1][0];

  00027	8b 84 91 04 03
	00 00		 mov	 eax, DWORD PTR [ecx+edx*4+772]
  0002e	8a 00		 mov	 al, BYTE PTR [eax]

; 441  : 	}
; 442  : }

  00030	5d		 pop	 ebp
  00031	c2 04 00	 ret	 4
?GetChar@CQuery@@QAEDH@Z ENDP				; CQuery::GetChar
_TEXT	ENDS
; Function compile flags: /Ogtp
; File C:\IAGOS\server\v18\Source\Source\_database\Query.cpp
;	COMDAT ?GetFloat@CQuery@@QAEMPAD@Z
_TEXT	SEGMENT
_sCol$ = 8						; size = 4
?GetFloat@CQuery@@QAEMPAD@Z PROC			; CQuery::GetFloat, COMDAT
; _this$ = ecx

; 420  : {

  00000	55		 push	 ebp
  00001	8b ec		 mov	 ebp, esp
  00003	56		 push	 esi

; 421  : 	int n;
; 422  : 	n = FindCol(sCol);

  00004	ff 75 08	 push	 DWORD PTR _sCol$[ebp]
  00007	8b f1		 mov	 esi, ecx
  00009	e8 00 00 00 00	 call	 ?FindCol@CQuery@@AAEHPAD@Z ; CQuery::FindCol

; 423  : 	if (n==-1)

  0000e	83 f8 ff	 cmp	 eax, -1
  00011	75 0b		 jne	 SHORT $LN2@GetFloat

; 424  : 		return CQUERYNOCOL;

  00013	d9 05 00 00 00
	00		 fld	 DWORD PTR __real@c2cc0000
  00019	5e		 pop	 esi

; 427  : }

  0001a	5d		 pop	 ebp
  0001b	c2 04 00	 ret	 4
$LN2@GetFloat:

; 425  : 	else
; 426  : 		return GetFloat(n);

  0001e	50		 push	 eax
  0001f	8b ce		 mov	 ecx, esi
  00021	e8 00 00 00 00	 call	 ?GetFloat@CQuery@@QAEMH@Z ; CQuery::GetFloat
  00026	5e		 pop	 esi

; 427  : }

  00027	5d		 pop	 ebp
  00028	c2 04 00	 ret	 4
?GetFloat@CQuery@@QAEMPAD@Z ENDP			; CQuery::GetFloat
_TEXT	ENDS
; Function compile flags: /Ogtp
; File C:\IAGOS\server\v18\Source\Source\_database\Query.cpp
;	COMDAT ?GetFloat@CQuery@@QAEMH@Z
_TEXT	SEGMENT
_nCol$ = 8						; size = 4
tv138 = 8						; size = 4
?GetFloat@CQuery@@QAEMH@Z PROC				; CQuery::GetFloat, COMDAT
; _this$ = ecx

; 405  : {

  00000	55		 push	 ebp
  00001	8b ec		 mov	 ebp, esp

; 406  : 	if (nCol > this->nCol)

  00003	0f bf 81 0c 07
	00 00		 movsx	 eax, WORD PTR [ecx+1804]
  0000a	8b 55 08	 mov	 edx, DWORD PTR _nCol$[ebp]
  0000d	3b d0		 cmp	 edx, eax
  0000f	7e 0a		 jle	 SHORT $LN2@GetFloat

; 407  : 		return CQUERYNOCOL;

  00011	d9 05 00 00 00
	00		 fld	 DWORD PTR __real@c2cc0000

; 415  : 	}
; 416  : }

  00017	5d		 pop	 ebp
  00018	c2 04 00	 ret	 4
$LN2@GetFloat:

; 408  : 	
; 409  : 	if (lCol[nCol-1]==SQL_NULL_DATA) 

  0001b	83 bc 91 0c 39
	00 00 ff	 cmp	 DWORD PTR [ecx+edx*4+14604], -1
  00023	75 0a		 jne	 SHORT $LN3@GetFloat

; 410  : 	{
; 411  : 		return CQUERYNULL;

  00025	d9 05 00 00 00
	00		 fld	 DWORD PTR __real@c2c80000

; 415  : 	}
; 416  : }

  0002b	5d		 pop	 ebp
  0002c	c2 04 00	 ret	 4
$LN3@GetFloat:

; 412  : 	} else 
; 413  : 	{
; 414  : 		return	( (float)( atof(Col[nCol-1]) ) );

  0002f	ff b4 91 04 03
	00 00		 push	 DWORD PTR [ecx+edx*4+772]
  00036	e8 00 00 00 00	 call	 _atof
  0003b	d9 5d 08	 fstp	 DWORD PTR tv138[ebp]
  0003e	d9 45 08	 fld	 DWORD PTR tv138[ebp]
  00041	83 c4 04	 add	 esp, 4

; 415  : 	}
; 416  : }

  00044	5d		 pop	 ebp
  00045	c2 04 00	 ret	 4
?GetFloat@CQuery@@QAEMH@Z ENDP				; CQuery::GetFloat
_TEXT	ENDS
; Function compile flags: /Ogtp
; File C:\IAGOS\server\v18\Source\Source\_database\Query.cpp
;	COMDAT ?GetInt64@CQuery@@QAE_JPAD@Z
_TEXT	SEGMENT
_sCol$ = 8						; size = 4
?GetInt64@CQuery@@QAE_JPAD@Z PROC			; CQuery::GetInt64, COMDAT
; _this$ = ecx

; 391  : {

  00000	55		 push	 ebp
  00001	8b ec		 mov	 ebp, esp
  00003	56		 push	 esi

; 392  : 	int n;
; 393  : 	n=FindCol(sCol);

  00004	ff 75 08	 push	 DWORD PTR _sCol$[ebp]
  00007	8b f1		 mov	 esi, ecx
  00009	e8 00 00 00 00	 call	 ?FindCol@CQuery@@AAEHPAD@Z ; CQuery::FindCol

; 394  : 	if (n==-1) 

  0000e	83 f8 ff	 cmp	 eax, -1
  00011	75 0d		 jne	 SHORT $LN2@GetInt64

; 395  : 	{
; 396  : 		return CQUERYNOCOL;

  00013	b8 9a ff ff ff	 mov	 eax, -102		; ffffff9aH
  00018	83 ca ff	 or	 edx, -1
  0001b	5e		 pop	 esi

; 400  : 	}
; 401  : }

  0001c	5d		 pop	 ebp
  0001d	c2 04 00	 ret	 4
$LN2@GetInt64:

; 397  : 	} else 
; 398  : 	{
; 399  : 		return GetInt64( n );

  00020	50		 push	 eax
  00021	8b ce		 mov	 ecx, esi
  00023	e8 00 00 00 00	 call	 ?GetInt64@CQuery@@QAE_JH@Z ; CQuery::GetInt64
  00028	5e		 pop	 esi

; 400  : 	}
; 401  : }

  00029	5d		 pop	 ebp
  0002a	c2 04 00	 ret	 4
?GetInt64@CQuery@@QAE_JPAD@Z ENDP			; CQuery::GetInt64
_TEXT	ENDS
; Function compile flags: /Ogtp
; File C:\IAGOS\server\v18\Source\Source\_database\Query.cpp
;	COMDAT ?GetInt64@CQuery@@QAE_JH@Z
_TEXT	SEGMENT
_nCol$ = 8						; size = 4
?GetInt64@CQuery@@QAE_JH@Z PROC				; CQuery::GetInt64, COMDAT
; _this$ = ecx

; 376  : {

  00000	55		 push	 ebp
  00001	8b ec		 mov	 ebp, esp

; 377  : 	if (nCol > this->nCol)

  00003	0f bf 81 0c 07
	00 00		 movsx	 eax, WORD PTR [ecx+1804]
  0000a	8b 55 08	 mov	 edx, DWORD PTR _nCol$[ebp]
  0000d	3b d0		 cmp	 edx, eax
  0000f	7e 0c		 jle	 SHORT $LN2@GetInt64

; 378  : 		return CQUERYNOCOL;

  00011	b8 9a ff ff ff	 mov	 eax, -102		; ffffff9aH
  00016	83 ca ff	 or	 edx, -1

; 386  : 	}
; 387  : }

  00019	5d		 pop	 ebp
  0001a	c2 04 00	 ret	 4
$LN2@GetInt64:

; 379  : 
; 380  : 	if (lCol[nCol-1]==SQL_NULL_DATA) 

  0001d	83 bc 91 0c 39
	00 00 ff	 cmp	 DWORD PTR [ecx+edx*4+14604], -1
  00025	75 0c		 jne	 SHORT $LN3@GetInt64

; 381  : 	{
; 382  : 		return CQUERYNULL;

  00027	b8 9c ff ff ff	 mov	 eax, -100		; ffffff9cH
  0002c	83 ca ff	 or	 edx, -1

; 386  : 	}
; 387  : }

  0002f	5d		 pop	 ebp
  00030	c2 04 00	 ret	 4
$LN3@GetInt64:

; 383  : 	} else 
; 384  : 	{
; 385  : 		return _atoi64(Col[nCol-1]);

  00033	ff b4 91 04 03
	00 00		 push	 DWORD PTR [ecx+edx*4+772]
  0003a	e8 00 00 00 00	 call	 __atoi64
  0003f	83 c4 04	 add	 esp, 4

; 386  : 	}
; 387  : }

  00042	5d		 pop	 ebp
  00043	c2 04 00	 ret	 4
?GetInt64@CQuery@@QAE_JH@Z ENDP				; CQuery::GetInt64
_TEXT	ENDS
; Function compile flags: /Ogtp
; File C:\IAGOS\server\v18\Source\Source\_database\Query.cpp
;	COMDAT ?GetInt@CQuery@@QAEHPAD@Z
_TEXT	SEGMENT
_sCol$ = 8						; size = 4
?GetInt@CQuery@@QAEHPAD@Z PROC				; CQuery::GetInt, COMDAT
; _this$ = ecx

; 362  : {

  00000	55		 push	 ebp
  00001	8b ec		 mov	 ebp, esp
  00003	56		 push	 esi

; 363  : 	int n;
; 364  : 	n=FindCol(sCol);

  00004	ff 75 08	 push	 DWORD PTR _sCol$[ebp]
  00007	8b f1		 mov	 esi, ecx
  00009	e8 00 00 00 00	 call	 ?FindCol@CQuery@@AAEHPAD@Z ; CQuery::FindCol

; 365  : 	if (n==-1) 

  0000e	83 f8 ff	 cmp	 eax, -1
  00011	75 0a		 jne	 SHORT $LN2@GetInt

; 366  : 	{
; 367  : 		return CQUERYNOCOL;

  00013	b8 9a ff ff ff	 mov	 eax, -102		; ffffff9aH
  00018	5e		 pop	 esi

; 371  : 	}
; 372  : }

  00019	5d		 pop	 ebp
  0001a	c2 04 00	 ret	 4
$LN2@GetInt:

; 368  : 	} else 
; 369  : 	{
; 370  : 		return GetInt(n);

  0001d	50		 push	 eax
  0001e	8b ce		 mov	 ecx, esi
  00020	e8 00 00 00 00	 call	 ?GetInt@CQuery@@QAEHH@Z	; CQuery::GetInt
  00025	5e		 pop	 esi

; 371  : 	}
; 372  : }

  00026	5d		 pop	 ebp
  00027	c2 04 00	 ret	 4
?GetInt@CQuery@@QAEHPAD@Z ENDP				; CQuery::GetInt
_TEXT	ENDS
; Function compile flags: /Ogtp
; File C:\IAGOS\server\v18\Source\Source\_database\Query.cpp
;	COMDAT ?GetInt@CQuery@@QAEHH@Z
_TEXT	SEGMENT
_nCol$ = 8						; size = 4
?GetInt@CQuery@@QAEHH@Z PROC				; CQuery::GetInt, COMDAT
; _this$ = ecx

; 347  : {

  00000	55		 push	 ebp
  00001	8b ec		 mov	 ebp, esp

; 348  : 	if (nCol > this->nCol)

  00003	0f bf 81 0c 07
	00 00		 movsx	 eax, WORD PTR [ecx+1804]
  0000a	8b 55 08	 mov	 edx, DWORD PTR _nCol$[ebp]
  0000d	3b d0		 cmp	 edx, eax
  0000f	7e 09		 jle	 SHORT $LN2@GetInt

; 349  : 		return CQUERYNOCOL;

  00011	b8 9a ff ff ff	 mov	 eax, -102		; ffffff9aH

; 357  : 	}
; 358  : }

  00016	5d		 pop	 ebp
  00017	c2 04 00	 ret	 4
$LN2@GetInt:

; 350  : 
; 351  : 	if (lCol[nCol-1]==SQL_NULL_DATA) 

  0001a	83 bc 91 0c 39
	00 00 ff	 cmp	 DWORD PTR [ecx+edx*4+14604], -1
  00022	75 09		 jne	 SHORT $LN3@GetInt

; 352  : 	{
; 353  : 		return CQUERYNULL;

  00024	b8 9c ff ff ff	 mov	 eax, -100		; ffffff9cH

; 357  : 	}
; 358  : }

  00029	5d		 pop	 ebp
  0002a	c2 04 00	 ret	 4
$LN3@GetInt:

; 354  : 	} else 
; 355  : 	{
; 356  : 		return atoi(Col[nCol-1]);

  0002d	ff b4 91 04 03
	00 00		 push	 DWORD PTR [ecx+edx*4+772]
  00034	e8 00 00 00 00	 call	 _atoi
  00039	83 c4 04	 add	 esp, 4

; 357  : 	}
; 358  : }

  0003c	5d		 pop	 ebp
  0003d	c2 04 00	 ret	 4
?GetInt@CQuery@@QAEHH@Z ENDP				; CQuery::GetInt
_TEXT	ENDS
; Function compile flags: /Ogtp
; File C:\IAGOS\server\v18\Source\Source\_database\Query.cpp
;	COMDAT ?Clear@CQuery@@QAEXXZ
_TEXT	SEGMENT
?Clear@CQuery@@QAEXXZ PROC				; CQuery::Clear, COMDAT
; _this$ = ecx

; 328  : {

  00000	56		 push	 esi
  00001	8b f1		 mov	 esi, ecx

; 329  : 	SQLCloseCursor(hStmt);

  00003	ff b6 08 07 00
	00		 push	 DWORD PTR [esi+1800]
  00009	e8 00 00 00 00	 call	 _SQLCloseCursor@4

; 330  : 	SQLFreeStmt(hStmt, SQL_UNBIND);

  0000e	6a 02		 push	 2
  00010	ff b6 08 07 00
	00		 push	 DWORD PTR [esi+1800]
  00016	e8 00 00 00 00	 call	 _SQLFreeStmt@8
  0001b	5e		 pop	 esi

; 331  : }

  0001c	c3		 ret	 0
?Clear@CQuery@@QAEXXZ ENDP				; CQuery::Clear
_TEXT	ENDS
; Function compile flags: /Ogtp
; File C:\IAGOS\server\v18\Source\Source\_database\Query.cpp
;	COMDAT ?Fetch@CQuery@@QAEHXZ
_TEXT	SEGMENT
?Fetch@CQuery@@QAEHXZ PROC				; CQuery::Fetch, COMDAT
; _this$ = ecx

; 303  : 	SQLRETURN result = SQLFetch( hStmt );

  00000	ff b1 08 07 00
	00		 push	 DWORD PTR [ecx+1800]
  00006	e8 00 00 00 00	 call	 _SQLFetch@4

; 304  : 
; 305  : 	switch( result )

  0000b	98		 cwde
  0000c	83 f8 64	 cmp	 eax, 100		; 00000064H
  0000f	77 14		 ja	 SHORT $LN2@Fetch
  00011	0f b6 80 00 00
	00 00		 movzx	 eax, BYTE PTR $LN9@Fetch[eax]
  00018	ff 24 85 00 00
	00 00		 jmp	 DWORD PTR $LN10@Fetch[eax*4]
$LN4@Fetch:

; 306  : 	{
; 307  : 	case SQL_SUCCESS_WITH_INFO:
; 308  : 		#ifdef _DEBUG
; 309  : 			PrintDiag( NULL, SQL_HANDLE_STMT );
; 310  : 		#endif
; 311  : 	case SQL_SUCCESS:
; 312  : 	case SQL_NEED_DATA:
; 313  : 		return TRUE;

  0001f	b8 01 00 00 00	 mov	 eax, 1

; 324  : }

  00024	c3		 ret	 0
$LN2@Fetch:

; 314  : 
; 315  : 	case SQL_NO_DATA_FOUND:		// == SQL_NO_DATA
; 316  : 		return FALSE;
; 317  : 	}
; 318  : 
; 319  : #ifdef __INTERNALSERVER
; 320  : 	PrintDiag( NULL, SQL_HANDLE_STMT );
; 321  : #endif
; 322  : 
; 323  : 	return FALSE;

  00025	33 c0		 xor	 eax, eax

; 324  : }

  00027	c3		 ret	 0
$LN10@Fetch:
  00028	00 00 00 00	 DD	 $LN4@Fetch
  0002c	00 00 00 00	 DD	 $LN2@Fetch
  00030	00 00 00 00	 DD	 $LN2@Fetch
$LN9@Fetch:
  00034	00		 DB	 0
  00035	00		 DB	 0
  00036	02		 DB	 2
  00037	02		 DB	 2
  00038	02		 DB	 2
  00039	02		 DB	 2
  0003a	02		 DB	 2
  0003b	02		 DB	 2
  0003c	02		 DB	 2
  0003d	02		 DB	 2
  0003e	02		 DB	 2
  0003f	02		 DB	 2
  00040	02		 DB	 2
  00041	02		 DB	 2
  00042	02		 DB	 2
  00043	02		 DB	 2
  00044	02		 DB	 2
  00045	02		 DB	 2
  00046	02		 DB	 2
  00047	02		 DB	 2
  00048	02		 DB	 2
  00049	02		 DB	 2
  0004a	02		 DB	 2
  0004b	02		 DB	 2
  0004c	02		 DB	 2
  0004d	02		 DB	 2
  0004e	02		 DB	 2
  0004f	02		 DB	 2
  00050	02		 DB	 2
  00051	02		 DB	 2
  00052	02		 DB	 2
  00053	02		 DB	 2
  00054	02		 DB	 2
  00055	02		 DB	 2
  00056	02		 DB	 2
  00057	02		 DB	 2
  00058	02		 DB	 2
  00059	02		 DB	 2
  0005a	02		 DB	 2
  0005b	02		 DB	 2
  0005c	02		 DB	 2
  0005d	02		 DB	 2
  0005e	02		 DB	 2
  0005f	02		 DB	 2
  00060	02		 DB	 2
  00061	02		 DB	 2
  00062	02		 DB	 2
  00063	02		 DB	 2
  00064	02		 DB	 2
  00065	02		 DB	 2
  00066	02		 DB	 2
  00067	02		 DB	 2
  00068	02		 DB	 2
  00069	02		 DB	 2
  0006a	02		 DB	 2
  0006b	02		 DB	 2
  0006c	02		 DB	 2
  0006d	02		 DB	 2
  0006e	02		 DB	 2
  0006f	02		 DB	 2
  00070	02		 DB	 2
  00071	02		 DB	 2
  00072	02		 DB	 2
  00073	02		 DB	 2
  00074	02		 DB	 2
  00075	02		 DB	 2
  00076	02		 DB	 2
  00077	02		 DB	 2
  00078	02		 DB	 2
  00079	02		 DB	 2
  0007a	02		 DB	 2
  0007b	02		 DB	 2
  0007c	02		 DB	 2
  0007d	02		 DB	 2
  0007e	02		 DB	 2
  0007f	02		 DB	 2
  00080	02		 DB	 2
  00081	02		 DB	 2
  00082	02		 DB	 2
  00083	02		 DB	 2
  00084	02		 DB	 2
  00085	02		 DB	 2
  00086	02		 DB	 2
  00087	02		 DB	 2
  00088	02		 DB	 2
  00089	02		 DB	 2
  0008a	02		 DB	 2
  0008b	02		 DB	 2
  0008c	02		 DB	 2
  0008d	02		 DB	 2
  0008e	02		 DB	 2
  0008f	02		 DB	 2
  00090	02		 DB	 2
  00091	02		 DB	 2
  00092	02		 DB	 2
  00093	02		 DB	 2
  00094	02		 DB	 2
  00095	02		 DB	 2
  00096	02		 DB	 2
  00097	00		 DB	 0
  00098	01		 DB	 1
?Fetch@CQuery@@QAEHXZ ENDP				; CQuery::Fetch
_TEXT	ENDS
; Function compile flags: /Ogtp
; File C:\IAGOS\server\v18\Source\Source\_database\Query.cpp
; File C:\Program Files (x86)\Windows Kits\10\Include\10.0.26100.0\ucrt\stdio.h
; File C:\IAGOS\server\v18\Source\Source\_database\Query.cpp
;	COMDAT ?Execute@CQuery@@QAAHPBDZZ
_TEXT	SEGMENT
_szQuery$ = -1028					; size = 1024
__$ArrayPad$ = -4					; size = 4
_this$ = 8						; size = 4
_lpszFormat$ = 12					; size = 4
?Execute@CQuery@@QAAHPBDZZ PROC				; CQuery::Execute, COMDAT

; 671  : {

  00000	55		 push	 ebp
  00001	8b ec		 mov	 ebp, esp
  00003	81 ec 04 04 00
	00		 sub	 esp, 1028		; 00000404H
  00009	a1 00 00 00 00	 mov	 eax, DWORD PTR ___security_cookie
  0000e	33 c5		 xor	 eax, ebp
  00010	89 45 fc	 mov	 DWORD PTR __$ArrayPad$[ebp], eax
  00013	56		 push	 esi
  00014	8b 75 08	 mov	 esi, DWORD PTR _this$[ebp]

; 672  : 	char szQuery[1024]		= { 0,};

  00017	8d 85 fc fb ff
	ff		 lea	 eax, DWORD PTR _szQuery$[ebp]
  0001d	68 00 04 00 00	 push	 1024			; 00000400H
  00022	6a 00		 push	 0
  00024	50		 push	 eax
  00025	e8 00 00 00 00	 call	 _memset
  0002a	83 c4 0c	 add	 esp, 12			; 0000000cH
; File C:\Program Files (x86)\Windows Kits\10\Include\10.0.26100.0\ucrt\stdio.h

; 1392 :         int const _Result = __stdio_common_vsprintf(

  0002d	8d 45 10	 lea	 eax, DWORD PTR _lpszFormat$[ebp+4]
  00030	50		 push	 eax
  00031	6a 00		 push	 0
  00033	ff 75 0c	 push	 DWORD PTR _lpszFormat$[ebp]
  00036	8d 85 fc fb ff
	ff		 lea	 eax, DWORD PTR _szQuery$[ebp]
  0003c	68 00 04 00 00	 push	 1024			; 00000400H
  00041	50		 push	 eax
  00042	e8 00 00 00 00	 call	 ___local_stdio_printf_options
  00047	8b 08		 mov	 ecx, DWORD PTR [eax]
  00049	ff 70 04	 push	 DWORD PTR [eax+4]
  0004c	83 c9 01	 or	 ecx, 1
  0004f	51		 push	 ecx
  00050	e8 00 00 00 00	 call	 ___stdio_common_vsprintf

; 1393 :             _CRT_INTERNAL_LOCAL_PRINTF_OPTIONS | _CRT_INTERNAL_PRINTF_LEGACY_VSPRINTF_NULL_TERMINATION,
; 1394 :             _Buffer, _BufferCount, _Format, _Locale, _ArgList);
; 1395 : 
; 1396 :         return _Result < 0 ? -1 : _Result;

  00055	83 c9 ff	 or	 ecx, -1
  00058	83 c4 1c	 add	 esp, 28			; 0000001cH
  0005b	85 c0		 test	 eax, eax
  0005d	0f 48 c1	 cmovs	 eax, ecx
; File C:\IAGOS\server\v18\Source\Source\_database\Query.cpp

; 677  : 	return n > 0 && Exec( szQuery );

  00060	85 c0		 test	 eax, eax
  00062	7e 26		 jle	 SHORT $LN3@Execute
  00064	8d 85 fc fb ff
	ff		 lea	 eax, DWORD PTR _szQuery$[ebp]
  0006a	8b ce		 mov	 ecx, esi
  0006c	50		 push	 eax
  0006d	e8 00 00 00 00	 call	 ?Exec@CQuery@@QAEHPBD@Z	; CQuery::Exec
  00072	85 c0		 test	 eax, eax
  00074	74 14		 je	 SHORT $LN3@Execute
  00076	b8 01 00 00 00	 mov	 eax, 1
  0007b	5e		 pop	 esi

; 678  : }

  0007c	8b 4d fc	 mov	 ecx, DWORD PTR __$ArrayPad$[ebp]
  0007f	33 cd		 xor	 ecx, ebp
  00081	e8 00 00 00 00	 call	 @__security_check_cookie@4
  00086	8b e5		 mov	 esp, ebp
  00088	5d		 pop	 ebp
  00089	c3		 ret	 0
$LN3@Execute:
  0008a	8b 4d fc	 mov	 ecx, DWORD PTR __$ArrayPad$[ebp]
  0008d	33 c0		 xor	 eax, eax
  0008f	33 cd		 xor	 ecx, ebp
  00091	5e		 pop	 esi
  00092	e8 00 00 00 00	 call	 @__security_check_cookie@4
  00097	8b e5		 mov	 esp, ebp
  00099	5d		 pop	 ebp
  0009a	c3		 ret	 0
?Execute@CQuery@@QAAHPBDZZ ENDP				; CQuery::Execute
_TEXT	ENDS
; Function compile flags: /Ogtp
; File C:\IAGOS\server\v18\Source\Source\_database\Query.cpp
;	COMDAT ?PrepareFetch@CQuery@@QAEHXZ
_TEXT	SEGMENT
_m_nPrecision$ = -28					; size = 4
tv295 = -24						; size = 4
tv296 = -20						; size = 4
_nActualLen$ = -16					; size = 2
_m_nSQLType$ = -12					; size = 2
_m_nScale$ = -8						; size = 2
_m_nNullability$ = -4					; size = 2
?PrepareFetch@CQuery@@QAEHXZ PROC			; CQuery::PrepareFetch, COMDAT
; _this$ = ecx

; 634  : {

  00000	55		 push	 ebp
  00001	8b ec		 mov	 ebp, esp
  00003	83 ec 1c	 sub	 esp, 28			; 0000001cH
  00006	53		 push	 ebx
  00007	57		 push	 edi
  00008	8b f9		 mov	 edi, ecx

; 635  : 	SQLNumResultCols(hStmt,&nCol);

  0000a	8d 9f 0c 07 00
	00		 lea	 ebx, DWORD PTR [edi+1804]
  00010	53		 push	 ebx
  00011	ff b7 08 07 00
	00		 push	 DWORD PTR [edi+1800]
  00017	e8 00 00 00 00	 call	 _SQLNumResultCols@8

; 636  : 	if (nCol > MAXCOL)

  0001c	0f b7 03	 movzx	 eax, WORD PTR [ebx]
  0001f	b9 00 01 00 00	 mov	 ecx, 256		; 00000100H
  00024	66 3b c1	 cmp	 ax, cx
  00027	7e 08		 jle	 SHORT $LN5@PrepareFet

; 637  : 		return FALSE;

  00029	5f		 pop	 edi
  0002a	33 c0		 xor	 eax, eax

; 660  : 			&nActualLen,
; 661  : 			&m_nSQLType,
; 662  : 			&m_nPrecision,
; 663  : 			&m_nScale,
; 664  : 			&m_nNullability);
; 665  : 	}
; 666  : 
; 667  : 	return TRUE;
; 668  : }

  0002c	5b		 pop	 ebx
  0002d	8b e5		 mov	 esp, ebp
  0002f	5d		 pop	 ebp
  00030	c3		 ret	 0
$LN5@PrepareFet:

; 638  : 	
; 639  : 	// nColŔĚ 0ŔÎ °ćżě´Â Selectą® ŔĚżÜŔÇ ´Ů¸Ą ¸í·ÉŔ» ˝ÇÇŕÇŃ °ćżěŔĚąÇ·Î 
; 640  : 	// ąŮŔÎµůŔ» ÇŇ ÇĘżä°ˇ ľř´Ů.
; 641  : 	if (nCol == 0) 

  00031	66 85 c0	 test	 ax, ax
  00034	75 12		 jne	 SHORT $LN6@PrepareFet

; 642  : 	{
; 643  : 		Clear();

  00036	8b cf		 mov	 ecx, edi
  00038	e8 00 00 00 00	 call	 ?Clear@CQuery@@QAEXXZ	; CQuery::Clear
  0003d	5f		 pop	 edi

; 660  : 			&nActualLen,
; 661  : 			&m_nSQLType,
; 662  : 			&m_nPrecision,
; 663  : 			&m_nScale,
; 664  : 			&m_nNullability);
; 665  : 	}
; 666  : 
; 667  : 	return TRUE;
; 668  : }

  0003e	b8 01 00 00 00	 mov	 eax, 1
  00043	5b		 pop	 ebx
  00044	8b e5		 mov	 esp, ebp
  00046	5d		 pop	 ebp
  00047	c3		 ret	 0
$LN6@PrepareFet:

; 644  : 		return TRUE;
; 645  : 	}
; 646  : 	
; 647  : 	SWORD	nActualLen;
; 648  : 	SWORD	m_nSQLType;
; 649  : 	UDWORD	m_nPrecision;
; 650  : 	SWORD	m_nScale;
; 651  : 	SWORD	m_nNullability;
; 652  :  
; 653  : 	// ¸đµç ÄĂ·łŔ» ą®ŔÚż­·Î ąŮŔÎµůÇŘ łő´Â´Ů. Coląčż­Ŕş zero base, 
; 654  : 	// ÄĂ·ł ąřČŁ´Â one baseŔÓżˇ ŔŻŔÇÇŇ °Í
; 655  : 	for (int c=0;c<nCol;c++) 

  00048	33 c9		 xor	 ecx, ecx
  0004a	33 db		 xor	 ebx, ebx
  0004c	66 3b c8	 cmp	 cx, ax
  0004f	7d 71		 jge	 SHORT $LN3@PrepareFet
  00051	8d 87 0e 07 00
	00		 lea	 eax, DWORD PTR [edi+1806]
  00057	8d 8f 08 03 00
	00		 lea	 ecx, DWORD PTR [edi+776]
  0005d	89 45 ec	 mov	 DWORD PTR tv296[ebp], eax
  00060	89 4d e8	 mov	 DWORD PTR tv295[ebp], ecx
  00063	56		 push	 esi
$LL4@PrepareFet:

; 656  : 	{
; 657  : 		SQLBindCol(hStmt,c+1,SQL_C_CHAR,Col[c],8192,&lCol[c]);

  00064	8d 81 08 36 00
	00		 lea	 eax, DWORD PTR [ecx+13832]
  0006a	50		 push	 eax
  0006b	68 00 20 00 00	 push	 8192			; 00002000H
  00070	ff 31		 push	 DWORD PTR [ecx]
  00072	8d 73 01	 lea	 esi, DWORD PTR [ebx+1]
  00075	6a 01		 push	 1
  00077	56		 push	 esi
  00078	ff b7 08 07 00
	00		 push	 DWORD PTR [edi+1800]
  0007e	e8 00 00 00 00	 call	 _SQLBindCol@24

; 658  : 	//	SQLDescribeCol(hStmt,c+1,ColName[c],30,NULL,NULL,NULL,NULL,NULL);
; 659  : 		SQLDescribeCol(hStmt,c+1,ColName[c],30,

  00083	8d 45 fc	 lea	 eax, DWORD PTR _m_nNullability$[ebp]
  00086	50		 push	 eax
  00087	8d 45 f8	 lea	 eax, DWORD PTR _m_nScale$[ebp]
  0008a	50		 push	 eax
  0008b	8d 45 e4	 lea	 eax, DWORD PTR _m_nPrecision$[ebp]
  0008e	50		 push	 eax
  0008f	8d 45 f4	 lea	 eax, DWORD PTR _m_nSQLType$[ebp]
  00092	50		 push	 eax
  00093	8d 45 f0	 lea	 eax, DWORD PTR _nActualLen$[ebp]
  00096	50		 push	 eax
  00097	6a 1e		 push	 30			; 0000001eH
  00099	ff 75 ec	 push	 DWORD PTR tv296[ebp]
  0009c	56		 push	 esi
  0009d	ff b7 08 07 00
	00		 push	 DWORD PTR [edi+1800]
  000a3	e8 00 00 00 00	 call	 _SQLDescribeCol@36
  000a8	8b 4d e8	 mov	 ecx, DWORD PTR tv295[ebp]
  000ab	43		 inc	 ebx
  000ac	0f bf 87 0c 07
	00 00		 movsx	 eax, WORD PTR [edi+1804]
  000b3	83 c1 04	 add	 ecx, 4
  000b6	83 45 ec 32	 add	 DWORD PTR tv296[ebp], 50 ; 00000032H
  000ba	89 4d e8	 mov	 DWORD PTR tv295[ebp], ecx
  000bd	3b d8		 cmp	 ebx, eax
  000bf	7c a3		 jl	 SHORT $LL4@PrepareFet

; 644  : 		return TRUE;
; 645  : 	}
; 646  : 	
; 647  : 	SWORD	nActualLen;
; 648  : 	SWORD	m_nSQLType;
; 649  : 	UDWORD	m_nPrecision;
; 650  : 	SWORD	m_nScale;
; 651  : 	SWORD	m_nNullability;
; 652  :  
; 653  : 	// ¸đµç ÄĂ·łŔ» ą®ŔÚż­·Î ąŮŔÎµůÇŘ łő´Â´Ů. Coląčż­Ŕş zero base, 
; 654  : 	// ÄĂ·ł ąřČŁ´Â one baseŔÓżˇ ŔŻŔÇÇŇ °Í
; 655  : 	for (int c=0;c<nCol;c++) 

  000c1	5e		 pop	 esi
$LN3@PrepareFet:
  000c2	5f		 pop	 edi

; 660  : 			&nActualLen,
; 661  : 			&m_nSQLType,
; 662  : 			&m_nPrecision,
; 663  : 			&m_nScale,
; 664  : 			&m_nNullability);
; 665  : 	}
; 666  : 
; 667  : 	return TRUE;
; 668  : }

  000c3	b8 01 00 00 00	 mov	 eax, 1
  000c8	5b		 pop	 ebx
  000c9	8b e5		 mov	 esp, ebp
  000cb	5d		 pop	 ebp
  000cc	c3		 ret	 0
?PrepareFetch@CQuery@@QAEHXZ ENDP			; CQuery::PrepareFetch
_TEXT	ENDS
; Function compile flags: /Ogtp
; File C:\IAGOS\server\v18\Source\Source\_database\Query.cpp
;	COMDAT ?Exec@CQuery@@QAEHPBDHQAUQUERY_BINDINFO@@@Z
_TEXT	SEGMENT
_szSQL$ = 8						; size = 4
_nCount$ = 12						; size = 4
_infos$ = 16						; size = 4
?Exec@CQuery@@QAEHPBDHQAUQUERY_BINDINFO@@@Z PROC	; CQuery::Exec, COMDAT
; _this$ = ecx

; 267  : {

  00000	55		 push	 ebp
  00001	8b ec		 mov	 ebp, esp
  00003	53		 push	 ebx
  00004	56		 push	 esi
  00005	57		 push	 edi
  00006	8b f9		 mov	 edi, ecx

; 268  : 	Clear();	// ˝ÇÇčŔűŔ¸·Î Ç×»ó Ĺ¬¸®ľî µČ »óĹÂ·Î ˝ÇÇŕµÇ°Ô ÇŃ´Ů.

  00008	e8 00 00 00 00	 call	 ?Clear@CQuery@@QAEXXZ	; CQuery::Clear

; 269  : 
; 270  : 	SQLRETURN ret = SQLExecDirect( hStmt, (SQLCHAR*)szSQL, lstrlen( szSQL ) );

  0000d	8b 5d 08	 mov	 ebx, DWORD PTR _szSQL$[ebp]
  00010	8b b7 08 07 00
	00		 mov	 esi, DWORD PTR [edi+1800]
  00016	53		 push	 ebx
  00017	ff 15 00 00 00
	00		 call	 DWORD PTR __imp__lstrlenA@4
  0001d	50		 push	 eax
  0001e	53		 push	 ebx
  0001f	56		 push	 esi
  00020	e8 00 00 00 00	 call	 _SQLExecDirect@12

; 271  : 	switch( ret )

  00025	98		 cwde
  00026	83 e8 00	 sub	 eax, 0
  00029	74 62		 je	 SHORT $LN4@Exec
  0002b	83 e8 01	 sub	 eax, 1
  0002e	74 5d		 je	 SHORT $LN4@Exec
  00030	83 e8 63	 sub	 eax, 99			; 00000063H
  00033	74 58		 je	 SHORT $LN4@Exec

; 272  : 	{
; 273  : 	case SQL_SUCCESS_WITH_INFO:
; 274  : #ifdef _DEBUG
; 275  : 		PrintDiag( szSQL, SQL_HANDLE_STMT );	
; 276  : #endif
; 277  : 		// ľĆ·ˇ °čĽÓ ˝ÇÇŕ 
; 278  : 	case SQL_SUCCESS:
; 279  : 	case SQL_NO_DATA_FOUND:
; 280  : 		break;
; 281  : 	default:
; 282  : 		{
; 283  : 			PrintDiag( szSQL, SQL_HANDLE_STMT );	

  00035	6a 03		 push	 3
  00037	53		 push	 ebx
  00038	8b cf		 mov	 ecx, edi
  0003a	e8 00 00 00 00	 call	 ?PrintDiag@CQuery@@QAEXPBDF@Z ; CQuery::PrintDiag

; 284  : 			DisConnect();

  0003f	8b cf		 mov	 ecx, edi
  00041	e8 00 00 00 00	 call	 ?DisConnect@CQuery@@QAEXXZ ; CQuery::DisConnect

; 285  : 			if( Connect( 3, DBName, DBId, DBPass ) )

  00046	8d 87 00 02 00
	00		 lea	 eax, DWORD PTR [edi+512]
  0004c	8b cf		 mov	 ecx, edi
  0004e	50		 push	 eax
  0004f	8d 87 00 01 00
	00		 lea	 eax, DWORD PTR [edi+256]
  00055	50		 push	 eax
  00056	57		 push	 edi
  00057	6a 03		 push	 3
  00059	e8 00 00 00 00	 call	 ?Connect@CQuery@@QAEHHPAD0PBD@Z ; CQuery::Connect
  0005e	85 c0		 test	 eax, eax
  00060	74 22		 je	 SHORT $LN8@Exec

; 286  : 			{
; 287  : 				ret = SQLExecDirect( hStmt, (SQLCHAR *)szSQL, SQL_NTS );

  00062	6a fd		 push	 -3			; fffffffdH
  00064	53		 push	 ebx
  00065	ff b7 08 07 00
	00		 push	 DWORD PTR [edi+1800]
  0006b	e8 00 00 00 00	 call	 _SQLExecDirect@12
  00070	0f b7 c0	 movzx	 eax, ax

; 288  : 				if ((ret != SQL_SUCCESS) && (ret != SQL_SUCCESS_WITH_INFO) && (ret != SQL_NO_DATA)) 

  00073	66 85 c0	 test	 ax, ax
  00076	74 15		 je	 SHORT $LN4@Exec
  00078	66 83 f8 01	 cmp	 ax, 1
  0007c	74 0f		 je	 SHORT $LN4@Exec
  0007e	66 83 f8 64	 cmp	 ax, 100			; 00000064H
  00082	74 09		 je	 SHORT $LN4@Exec
$LN8@Exec:
  00084	5f		 pop	 edi

; 297  : }

  00085	5e		 pop	 esi
  00086	33 c0		 xor	 eax, eax
  00088	5b		 pop	 ebx
  00089	5d		 pop	 ebp
  0008a	c2 0c 00	 ret	 12			; 0000000cH
$LN4@Exec:

; 289  : 					return FALSE;
; 290  : 			}
; 291  : 			else
; 292  : 				return FALSE;
; 293  : 		}
; 294  : 	}
; 295  : 
; 296  : 	return PrepareFetch();

  0008d	8b cf		 mov	 ecx, edi
  0008f	e8 00 00 00 00	 call	 ?PrepareFetch@CQuery@@QAEHXZ ; CQuery::PrepareFetch
  00094	5f		 pop	 edi

; 297  : }

  00095	5e		 pop	 esi
  00096	5b		 pop	 ebx
  00097	5d		 pop	 ebp
  00098	c2 0c 00	 ret	 12			; 0000000cH
?Exec@CQuery@@QAEHPBDHQAUQUERY_BINDINFO@@@Z ENDP	; CQuery::Exec
_TEXT	ENDS
; Function compile flags: /Ogtp
; File C:\IAGOS\server\v18\Source\Source\_database\Query.cpp
;	COMDAT ?Exec@CQuery@@QAEHPBD@Z
_TEXT	SEGMENT
_szSQL$ = 8						; size = 4
?Exec@CQuery@@QAEHPBD@Z PROC				; CQuery::Exec, COMDAT
; _this$ = ecx

; 216  : {

  00000	55		 push	 ebp
  00001	8b ec		 mov	 ebp, esp
  00003	53		 push	 ebx
  00004	56		 push	 esi
  00005	57		 push	 edi
  00006	8b f9		 mov	 edi, ecx

; 217  : 	Clear();	// ˝ÇÇčŔűŔ¸·Î Ç×»ó Ĺ¬¸®ľî µČ »óĹÂ·Î ˝ÇÇŕµÇ°Ô ÇŃ´Ů.

  00008	e8 00 00 00 00	 call	 ?Clear@CQuery@@QAEXXZ	; CQuery::Clear

; 218  : 
; 219  : 	SQLRETURN ret = SQLExecDirect( hStmt, (SQLCHAR*)szSQL, lstrlen( szSQL ) );

  0000d	8b 5d 08	 mov	 ebx, DWORD PTR _szSQL$[ebp]
  00010	8b b7 08 07 00
	00		 mov	 esi, DWORD PTR [edi+1800]
  00016	53		 push	 ebx
  00017	ff 15 00 00 00
	00		 call	 DWORD PTR __imp__lstrlenA@4
  0001d	50		 push	 eax
  0001e	53		 push	 ebx
  0001f	56		 push	 esi
  00020	e8 00 00 00 00	 call	 _SQLExecDirect@12

; 220  : 	switch( ret )

  00025	98		 cwde
  00026	83 e8 00	 sub	 eax, 0
  00029	74 62		 je	 SHORT $LN4@Exec
  0002b	83 e8 01	 sub	 eax, 1
  0002e	74 5d		 je	 SHORT $LN4@Exec
  00030	83 e8 63	 sub	 eax, 99			; 00000063H
  00033	74 58		 je	 SHORT $LN4@Exec

; 221  : 	{
; 222  : 	case SQL_SUCCESS_WITH_INFO:
; 223  : #ifdef _DEBUG
; 224  : 		PrintDiag( szSQL, SQL_HANDLE_STMT );	
; 225  : #endif
; 226  : 		// ľĆ·ˇ °čĽÓ ˝ÇÇŕ 
; 227  : 	case SQL_SUCCESS:
; 228  : 	case SQL_NO_DATA_FOUND:
; 229  : 		break;
; 230  : 	default:
; 231  : 		{
; 232  : 			PrintDiag( szSQL, SQL_HANDLE_STMT );	

  00035	6a 03		 push	 3
  00037	53		 push	 ebx
  00038	8b cf		 mov	 ecx, edi
  0003a	e8 00 00 00 00	 call	 ?PrintDiag@CQuery@@QAEXPBDF@Z ; CQuery::PrintDiag

; 233  : 			DisConnect();

  0003f	8b cf		 mov	 ecx, edi
  00041	e8 00 00 00 00	 call	 ?DisConnect@CQuery@@QAEXXZ ; CQuery::DisConnect

; 234  : 			if( Connect( 3, DBName, DBId, DBPass ) )

  00046	8d 87 00 02 00
	00		 lea	 eax, DWORD PTR [edi+512]
  0004c	8b cf		 mov	 ecx, edi
  0004e	50		 push	 eax
  0004f	8d 87 00 01 00
	00		 lea	 eax, DWORD PTR [edi+256]
  00055	50		 push	 eax
  00056	57		 push	 edi
  00057	6a 03		 push	 3
  00059	e8 00 00 00 00	 call	 ?Connect@CQuery@@QAEHHPAD0PBD@Z ; CQuery::Connect
  0005e	85 c0		 test	 eax, eax
  00060	74 22		 je	 SHORT $LN8@Exec

; 235  : 			{
; 236  : 				ret = SQLExecDirect( hStmt, (SQLCHAR *)szSQL, SQL_NTS );

  00062	6a fd		 push	 -3			; fffffffdH
  00064	53		 push	 ebx
  00065	ff b7 08 07 00
	00		 push	 DWORD PTR [edi+1800]
  0006b	e8 00 00 00 00	 call	 _SQLExecDirect@12
  00070	0f b7 c0	 movzx	 eax, ax

; 237  : 				if ((ret != SQL_SUCCESS) && (ret != SQL_SUCCESS_WITH_INFO) && (ret != SQL_NO_DATA)) 

  00073	66 85 c0	 test	 ax, ax
  00076	74 15		 je	 SHORT $LN4@Exec
  00078	66 83 f8 01	 cmp	 ax, 1
  0007c	74 0f		 je	 SHORT $LN4@Exec
  0007e	66 83 f8 64	 cmp	 ax, 100			; 00000064H
  00082	74 09		 je	 SHORT $LN4@Exec
$LN8@Exec:
  00084	5f		 pop	 edi

; 246  : }

  00085	5e		 pop	 esi
  00086	33 c0		 xor	 eax, eax
  00088	5b		 pop	 ebx
  00089	5d		 pop	 ebp
  0008a	c2 04 00	 ret	 4
$LN4@Exec:

; 238  : 					return FALSE;
; 239  : 			}
; 240  : 			else
; 241  : 				return FALSE;
; 242  : 		}
; 243  : 	}
; 244  : 
; 245  : 	return PrepareFetch();

  0008d	8b cf		 mov	 ecx, edi
  0008f	e8 00 00 00 00	 call	 ?PrepareFetch@CQuery@@QAEHXZ ; CQuery::PrepareFetch
  00094	5f		 pop	 edi

; 246  : }

  00095	5e		 pop	 esi
  00096	5b		 pop	 ebx
  00097	5d		 pop	 ebp
  00098	c2 04 00	 ret	 4
?Exec@CQuery@@QAEHPBD@Z ENDP				; CQuery::Exec
_TEXT	ENDS
; Function compile flags: /Ogtp
; File C:\IAGOS\server\v18\Source\Source\_database\Query.cpp
;	COMDAT ?DisConnect@CQuery@@QAEXXZ
_TEXT	SEGMENT
?DisConnect@CQuery@@QAEXXZ PROC				; CQuery::DisConnect, COMDAT
; _this$ = ecx

; 111  : {

  00000	56		 push	 esi
  00001	8b f1		 mov	 esi, ecx

; 112  : 	if (hStmt)	SQLFreeHandle(SQL_HANDLE_STMT,hStmt);	hStmt = NULL;

  00003	8b 86 08 07 00
	00		 mov	 eax, DWORD PTR [esi+1800]
  00009	85 c0		 test	 eax, eax
  0000b	74 08		 je	 SHORT $LN2@DisConnect
  0000d	50		 push	 eax
  0000e	6a 03		 push	 3
  00010	e8 00 00 00 00	 call	 _SQLFreeHandle@8
$LN2@DisConnect:

; 113  : 	if (hDbc)	SQLDisconnect(hDbc);

  00015	8b 86 04 03 00
	00		 mov	 eax, DWORD PTR [esi+772]
  0001b	c7 86 08 07 00
	00 00 00 00 00	 mov	 DWORD PTR [esi+1800], 0
  00025	85 c0		 test	 eax, eax
  00027	74 06		 je	 SHORT $LN3@DisConnect
  00029	50		 push	 eax
  0002a	e8 00 00 00 00	 call	 _SQLDisconnect@4
$LN3@DisConnect:

; 114  : 	if (hDbc)	SQLFreeHandle(SQL_HANDLE_DBC,hDbc);		hDbc = NULL;

  0002f	8b 86 04 03 00
	00		 mov	 eax, DWORD PTR [esi+772]
  00035	85 c0		 test	 eax, eax
  00037	74 08		 je	 SHORT $LN4@DisConnect
  00039	50		 push	 eax
  0003a	6a 02		 push	 2
  0003c	e8 00 00 00 00	 call	 _SQLFreeHandle@8
$LN4@DisConnect:

; 115  : 	if (hEnv)	SQLFreeHandle(SQL_HANDLE_ENV,hEnv);		hEnv = NULL;

  00041	8b 86 00 03 00
	00		 mov	 eax, DWORD PTR [esi+768]
  00047	c7 86 04 03 00
	00 00 00 00 00	 mov	 DWORD PTR [esi+772], 0
  00051	85 c0		 test	 eax, eax
  00053	74 08		 je	 SHORT $LN7@DisConnect
  00055	50		 push	 eax
  00056	6a 01		 push	 1
  00058	e8 00 00 00 00	 call	 _SQLFreeHandle@8
$LN7@DisConnect:

; 116  : }

  0005d	c7 86 00 03 00
	00 00 00 00 00	 mov	 DWORD PTR [esi+768], 0
  00067	5e		 pop	 esi
  00068	c3		 ret	 0
?DisConnect@CQuery@@QAEXXZ ENDP				; CQuery::DisConnect
_TEXT	ENDS
; Function compile flags: /Ogtp
; File C:\IAGOS\server\v18\Source\Source\_database\Query.cpp
;	COMDAT ?Connect@CQuery@@QAEHHPAD0PBD@Z
_TEXT	SEGMENT
_ret$ = -528						; size = 2
_UID$GSCopy$1$ = -528					; size = 4
_PWD$GSCopy$1$ = -524					; size = 4
_cbOutCon$ = -520					; size = 2
_OutCon$ = -516						; size = 255
_InCon$ = -260						; size = 255
__$ArrayPad$ = -4					; size = 4
_Type$ = 8						; size = 4
_ConStr$ = 12						; size = 4
_UID$ = 16						; size = 4
_PWD$ = 20						; size = 4
?Connect@CQuery@@QAEHHPAD0PBD@Z PROC			; CQuery::Connect, COMDAT
; _this$ = ecx

; 137  : {

  00000	55		 push	 ebp
  00001	8b ec		 mov	 ebp, esp
  00003	81 ec 10 02 00
	00		 sub	 esp, 528		; 00000210H
  00009	a1 00 00 00 00	 mov	 eax, DWORD PTR ___security_cookie
  0000e	33 c5		 xor	 eax, ebp
  00010	89 45 fc	 mov	 DWORD PTR __$ArrayPad$[ebp], eax
  00013	8b 45 14	 mov	 eax, DWORD PTR _PWD$[ebp]
  00016	53		 push	 ebx
  00017	8b 5d 0c	 mov	 ebx, DWORD PTR _ConStr$[ebp]
  0001a	56		 push	 esi
  0001b	8b 75 10	 mov	 esi, DWORD PTR _UID$[ebp]
  0001e	57		 push	 edi
  0001f	8b f9		 mov	 edi, ecx
  00021	89 b5 f0 fd ff
	ff		 mov	 DWORD PTR _UID$GSCopy$1$[ebp], esi
  00027	8b d7		 mov	 edx, edi
  00029	89 85 f4 fd ff
	ff		 mov	 DWORD PTR _PWD$GSCopy$1$[ebp], eax

; 138  : 	strcpy( DBName, ConStr );

  0002f	8b cb		 mov	 ecx, ebx
  00031	2b d3		 sub	 edx, ebx
$LL10@Connect:
  00033	8a 01		 mov	 al, BYTE PTR [ecx]
  00035	8d 49 01	 lea	 ecx, DWORD PTR [ecx+1]
  00038	88 44 0a ff	 mov	 BYTE PTR [edx+ecx-1], al
  0003c	84 c0		 test	 al, al
  0003e	75 f3		 jne	 SHORT $LL10@Connect

; 139  : 	strcpy( DBId, UID );

  00040	8b d7		 mov	 edx, edi
  00042	8b ce		 mov	 ecx, esi
  00044	2b d6		 sub	 edx, esi
  00046	66 66 0f 1f 84
	00 00 00 00 00	 npad	 10
$LL11@Connect:
  00050	8a 01		 mov	 al, BYTE PTR [ecx]
  00052	8d 49 01	 lea	 ecx, DWORD PTR [ecx+1]
  00055	88 84 0a ff 00
	00 00		 mov	 BYTE PTR [edx+ecx+255], al
  0005c	84 c0		 test	 al, al
  0005e	75 f0		 jne	 SHORT $LL11@Connect

; 140  : 	strcpy( DBPass, PWD );

  00060	8b 8d f4 fd ff
	ff		 mov	 ecx, DWORD PTR _PWD$GSCopy$1$[ebp]
  00066	8b d7		 mov	 edx, edi
  00068	2b d1		 sub	 edx, ecx
  0006a	66 0f 1f 44 00
	00		 npad	 6
$LL12@Connect:
  00070	8a 01		 mov	 al, BYTE PTR [ecx]
  00072	8d 49 01	 lea	 ecx, DWORD PTR [ecx+1]
  00075	88 84 0a ff 01
	00 00		 mov	 BYTE PTR [edx+ecx+511], al
  0007c	84 c0		 test	 al, al
  0007e	75 f0		 jne	 SHORT $LL12@Connect

; 141  : 	
; 142  : 	SQLCHAR InCon[255];
; 143  : 	SQLCHAR OutCon[255];
; 144  :     SQLSMALLINT cbOutCon;
; 145  : 
; 146  : 	SQLRETURN ret;
; 147  : 
; 148  : 	// ČŻ°ć ÇÚµéŔ» ÇŇ´çÇĎ°í ąöŔü ĽÓĽşŔ» ĽłÁ¤ÇŃ´Ů.
; 149  : 	SQLAllocHandle(SQL_HANDLE_ENV,SQL_NULL_HANDLE,&hEnv);

  00080	8d b7 00 03 00
	00		 lea	 esi, DWORD PTR [edi+768]
  00086	56		 push	 esi
  00087	6a 00		 push	 0
  00089	6a 01		 push	 1
  0008b	e8 00 00 00 00	 call	 _SQLAllocHandle@12

; 150  : 	SQLSetEnvAttr(hEnv,SQL_ATTR_ODBC_VERSION,(SQLPOINTER)SQL_OV_ODBC3,SQL_IS_INTEGER);

  00090	6a fa		 push	 -6			; fffffffaH
  00092	6a 03		 push	 3
  00094	68 c8 00 00 00	 push	 200			; 000000c8H
  00099	ff 36		 push	 DWORD PTR [esi]
  0009b	e8 00 00 00 00	 call	 _SQLSetEnvAttr@16

; 151  : 	
; 152  : 	// ż¬°á Ĺ¸ŔÔżˇ µű¶ó MDB ¶Ç´Â SQL Ľ­ąö, ¶Ç´Â DSNżˇ ż¬°áÇŃ´Ů.
; 153  : 	SQLAllocHandle(SQL_HANDLE_DBC,hEnv,&hDbc);

  000a0	8d 87 04 03 00
	00		 lea	 eax, DWORD PTR [edi+772]
  000a6	50		 push	 eax
  000a7	ff 36		 push	 DWORD PTR [esi]
  000a9	6a 02		 push	 2
  000ab	e8 00 00 00 00	 call	 _SQLAllocHandle@12

; 154  : 	switch (Type) 

  000b0	8b 45 08	 mov	 eax, DWORD PTR _Type$[ebp]
  000b3	83 e8 01	 sub	 eax, 1
  000b6	74 3b		 je	 SHORT $LN4@Connect
  000b8	83 e8 01	 sub	 eax, 1
  000bb	74 2e		 je	 SHORT $LN5@Connect
  000bd	83 e8 01	 sub	 eax, 1
  000c0	75 21		 jne	 SHORT $LN22@Connect

; 166  : 	case 3:
; 167  : 		ret=SQLConnect(hDbc,(SQLCHAR *)ConStr,SQL_NTS,(SQLCHAR *)UID,SQL_NTS,

  000c2	8b 85 f4 fd ff
	ff		 mov	 eax, DWORD PTR _PWD$GSCopy$1$[ebp]
  000c8	6a fd		 push	 -3			; fffffffdH
  000ca	50		 push	 eax
  000cb	6a fd		 push	 -3			; fffffffdH
  000cd	ff b5 f0 fd ff
	ff		 push	 DWORD PTR _UID$GSCopy$1$[ebp]
  000d3	6a fd		 push	 -3			; fffffffdH
  000d5	53		 push	 ebx
  000d6	ff b7 04 03 00
	00		 push	 DWORD PTR [edi+772]
  000dc	e8 00 00 00 00	 call	 _SQLConnect@28
  000e1	eb 54		 jmp	 SHORT $LN33@Connect
$LN22@Connect:

; 154  : 	switch (Type) 

  000e3	8b 85 f0 fd ff
	ff		 mov	 eax, DWORD PTR _ret$[ebp]
  000e9	eb 4f		 jmp	 SHORT $LN2@Connect
$LN5@Connect:

; 158  : 		ret=SQLDriverConnect(hDbc,NULL,(SQLCHAR *)InCon,sizeof(InCon),OutCon,
; 159  : 			sizeof(OutCon),&cbOutCon, SQL_DRIVER_NOPROMPT);
; 160  : 		break;
; 161  : 	case 2:
; 162  : 		wsprintf((char *)InCon, "FileDsn=%s",ConStr);

  000eb	53		 push	 ebx
  000ec	68 00 00 00 00	 push	 OFFSET ??_C@_0L@IGAOAHAB@FileDsn?$DN?$CFs@

; 163  : 		ret=SQLDriverConnect(hDbc,NULL,(SQLCHAR *)InCon,sizeof(InCon),OutCon,
; 164  : 			sizeof(OutCon),&cbOutCon, SQL_DRIVER_NOPROMPT);
; 165  : 		break;

  000f1	eb 06		 jmp	 SHORT $LN34@Connect
$LN4@Connect:

; 155  : 	{
; 156  : 	case 1:
; 157  : 		wsprintf((char *)InCon,"DRIVER={Microsoft Access Driver (*.mdb)};DBQ=%s;",ConStr);

  000f3	53		 push	 ebx
  000f4	68 00 00 00 00	 push	 OFFSET ??_C@_0DB@LCKDCOHF@DRIVER?$DN?$HLMicrosoft?5Access?5Driver@
$LN34@Connect:

; 168  : 			(SQLCHAR *)PWD,SQL_NTS);
; 169  : 		break;
; 170  : 	}
; 171  : 
; 172  : 	if ((ret != SQL_SUCCESS) && (ret != SQL_SUCCESS_WITH_INFO)) 

  000f9	8d 85 fc fe ff
	ff		 lea	 eax, DWORD PTR _InCon$[ebp]
  000ff	50		 push	 eax
  00100	ff 15 00 00 00
	00		 call	 DWORD PTR __imp__wsprintfA
  00106	83 c4 0c	 add	 esp, 12			; 0000000cH
  00109	8d 85 f8 fd ff
	ff		 lea	 eax, DWORD PTR _cbOutCon$[ebp]
  0010f	6a 00		 push	 0
  00111	50		 push	 eax
  00112	68 ff 00 00 00	 push	 255			; 000000ffH
  00117	8d 85 fc fd ff
	ff		 lea	 eax, DWORD PTR _OutCon$[ebp]
  0011d	50		 push	 eax
  0011e	68 ff 00 00 00	 push	 255			; 000000ffH
  00123	8d 85 fc fe ff
	ff		 lea	 eax, DWORD PTR _InCon$[ebp]
  00129	50		 push	 eax
  0012a	6a 00		 push	 0
  0012c	ff b7 04 03 00
	00		 push	 DWORD PTR [edi+772]
  00132	e8 00 00 00 00	 call	 _SQLDriverConnect@32
$LN33@Connect:
  00137	0f b7 c0	 movzx	 eax, ax
$LN2@Connect:
  0013a	66 85 c0	 test	 ax, ax
  0013d	74 25		 je	 SHORT $LN7@Connect
  0013f	66 83 f8 01	 cmp	 ax, 1
  00143	74 1f		 je	 SHORT $LN7@Connect

; 173  : 	{
; 174  : 		PrintDiag( ConStr );

  00145	6a 02		 push	 2
  00147	53		 push	 ebx
  00148	8b cf		 mov	 ecx, edi
  0014a	e8 00 00 00 00	 call	 ?PrintDiag@CQuery@@QAEXPBDF@Z ; CQuery::PrintDiag
  0014f	5f		 pop	 edi

; 185  : 	}
; 186  : 
; 187  : //	::SQLSetStmtOption(hStmt, SQL_QUERY_TIMEOUT, 10);  // 10ĂĘ Ĺ¸ŔÓľĆżô 
; 188  : 	return TRUE;
; 189  : }

  00150	5e		 pop	 esi
  00151	33 c0		 xor	 eax, eax
  00153	5b		 pop	 ebx
  00154	8b 4d fc	 mov	 ecx, DWORD PTR __$ArrayPad$[ebp]
  00157	33 cd		 xor	 ecx, ebp
  00159	e8 00 00 00 00	 call	 @__security_check_cookie@4
  0015e	8b e5		 mov	 esp, ebp
  00160	5d		 pop	 ebp
  00161	c2 10 00	 ret	 16			; 00000010H
$LN7@Connect:

; 175  : 		return FALSE;
; 176  : 	}
; 177  : 
; 178  : 	// ¸í·É ÇÚµéŔ» ÇŇ´çÇŃ´Ů.
; 179  : 	ret=SQLAllocHandle(SQL_HANDLE_STMT,hDbc,&hStmt);

  00164	8d b7 08 07 00
	00		 lea	 esi, DWORD PTR [edi+1800]
  0016a	56		 push	 esi
  0016b	ff b7 04 03 00
	00		 push	 DWORD PTR [edi+772]
  00171	6a 03		 push	 3
  00173	e8 00 00 00 00	 call	 _SQLAllocHandle@12
  00178	0f b7 c0	 movzx	 eax, ax

; 180  : 	if ((ret != SQL_SUCCESS) && (ret != SQL_SUCCESS_WITH_INFO)) 

  0017b	66 85 c0	 test	 ax, ax
  0017e	74 2b		 je	 SHORT $LN8@Connect
  00180	66 83 f8 01	 cmp	 ax, 1
  00184	74 25		 je	 SHORT $LN8@Connect

; 181  : 	{
; 182  : 		PrintDiag( ConStr );

  00186	6a 02		 push	 2
  00188	53		 push	 ebx
  00189	8b cf		 mov	 ecx, edi
  0018b	e8 00 00 00 00	 call	 ?PrintDiag@CQuery@@QAEXPBDF@Z ; CQuery::PrintDiag
  00190	5f		 pop	 edi

; 183  : 		hStmt=0;

  00191	c7 06 00 00 00
	00		 mov	 DWORD PTR [esi], 0

; 184  : 		return FALSE;

  00197	33 c0		 xor	 eax, eax

; 185  : 	}
; 186  : 
; 187  : //	::SQLSetStmtOption(hStmt, SQL_QUERY_TIMEOUT, 10);  // 10ĂĘ Ĺ¸ŔÓľĆżô 
; 188  : 	return TRUE;
; 189  : }

  00199	5e		 pop	 esi
  0019a	5b		 pop	 ebx
  0019b	8b 4d fc	 mov	 ecx, DWORD PTR __$ArrayPad$[ebp]
  0019e	33 cd		 xor	 ecx, ebp
  001a0	e8 00 00 00 00	 call	 @__security_check_cookie@4
  001a5	8b e5		 mov	 esp, ebp
  001a7	5d		 pop	 ebp
  001a8	c2 10 00	 ret	 16			; 00000010H
$LN8@Connect:
  001ab	8b 4d fc	 mov	 ecx, DWORD PTR __$ArrayPad$[ebp]
  001ae	b8 01 00 00 00	 mov	 eax, 1
  001b3	5f		 pop	 edi
  001b4	5e		 pop	 esi
  001b5	33 cd		 xor	 ecx, ebp
  001b7	5b		 pop	 ebx
  001b8	e8 00 00 00 00	 call	 @__security_check_cookie@4
  001bd	8b e5		 mov	 esp, ebp
  001bf	5d		 pop	 ebp
  001c0	c2 10 00	 ret	 16			; 00000010H
?Connect@CQuery@@QAEHHPAD0PBD@Z ENDP			; CQuery::Connect
_TEXT	ENDS
; Function compile flags: /Ogtp
; File C:\IAGOS\server\v18\Source\Source\_database\Query.cpp
;	COMDAT ?PrintDiag@CQuery@@QAEXPBDF@Z
_TEXT	SEGMENT
_nError$ = -536						; size = 4
_nLen$ = -532						; size = 2
_handle$1$ = -528					; size = 4
_szMsg$ = -524						; size = 512
_szState$ = -12						; size = 6
__$ArrayPad$ = -4					; size = 4
_szSQL$ = 8						; size = 4
_type$ = 12						; size = 2
?PrintDiag@CQuery@@QAEXPBDF@Z PROC			; CQuery::PrintDiag, COMDAT
; _this$ = ecx

; 488  : {

  00000	55		 push	 ebp
  00001	8b ec		 mov	 ebp, esp
  00003	81 ec 18 02 00
	00		 sub	 esp, 536		; 00000218H
  00009	a1 00 00 00 00	 mov	 eax, DWORD PTR ___security_cookie
  0000e	33 c5		 xor	 eax, ebp
  00010	89 45 fc	 mov	 DWORD PTR __$ArrayPad$[ebp], eax

; 489  : 
; 490  : /*
; 491  : 	SQLINTEGER NativeError;
; 492  : 	SQLCHAR SqlState[6], Msg[1024];
; 493  : 	SQLSMALLINT MsgLen;
; 494  : 
; 495  : 	int ii=1;
; 496  : 	SQLRETURN Ret = SQLGetDiagRec(SQL_HANDLE_STMT, hStmt, ii, SqlState, &NativeError, Msg, sizeof(Msg), &MsgLen);
; 497  : 	if( Ret != SQL_NO_DATA )
; 498  : 	{
; 499  : 		if( szSQL )
; 500  : 			WriteLogFile("query:%s\nSQLSTATE:%s error:%s", szSQL, (LPCTSTR)SqlState,(LPCTSTR)Msg );
; 501  : 		else
; 502  : 			WriteLogFile("SQLSTATE:%s error:%s", (LPCTSTR)SqlState,(LPCTSTR)Msg );
; 503  : 	}
; 504  : */
; 505  : 	UCHAR szMsg[SQL_MAX_MESSAGE_LENGTH];
; 506  : 	UCHAR szState[SQL_SQLSTATE_SIZE+1];
; 507  : 	SQLSMALLINT nLen;
; 508  : 	SQLINTEGER nError;
; 509  : 	SQLRETURN ret;
; 510  : 
; 511  : 	SQLHANDLE handle = hDbc;
; 512  : 	if( type == SQL_HANDLE_STMT )

  00013	8b 55 0c	 mov	 edx, DWORD PTR _type$[ebp]
  00016	53		 push	 ebx
  00017	8b 5d 08	 mov	 ebx, DWORD PTR _szSQL$[ebp]
  0001a	56		 push	 esi
  0001b	57		 push	 edi
  0001c	8b f9		 mov	 edi, ecx
  0001e	8b 8f 04 03 00
	00		 mov	 ecx, DWORD PTR [edi+772]
  00024	89 8d f0 fd ff
	ff		 mov	 DWORD PTR _handle$1$[ebp], ecx
  0002a	66 83 fa 03	 cmp	 dx, 3
  0002e	75 0c		 jne	 SHORT $LN4@PrintDiag

; 513  : 		handle = hStmt;

  00030	8b 8f 08 07 00
	00		 mov	 ecx, DWORD PTR [edi+1800]
  00036	89 8d f0 fd ff
	ff		 mov	 DWORD PTR _handle$1$[ebp], ecx
$LN4@PrintDiag:

; 514  : 
; 515  : 	int nIndex=1;

  0003c	be 01 00 00 00	 mov	 esi, 1
$LL2@PrintDiag:

; 516  : 	while( TRUE )
; 517  : 	{
; 518  : 		ret = SQLGetDiagRec( type, handle, nIndex, szState, &nError, szMsg, SQL_MAX_MESSAGE_LENGTH-1, &nLen );

  00041	8d 85 ec fd ff
	ff		 lea	 eax, DWORD PTR _nLen$[ebp]
  00047	50		 push	 eax
  00048	68 ff 01 00 00	 push	 511			; 000001ffH
  0004d	8d 85 f4 fd ff
	ff		 lea	 eax, DWORD PTR _szMsg$[ebp]
  00053	50		 push	 eax
  00054	8d 85 e8 fd ff
	ff		 lea	 eax, DWORD PTR _nError$[ebp]
  0005a	50		 push	 eax
  0005b	8d 45 f4	 lea	 eax, DWORD PTR _szState$[ebp]
  0005e	50		 push	 eax
  0005f	56		 push	 esi
  00060	51		 push	 ecx
  00061	52		 push	 edx
  00062	e8 00 00 00 00	 call	 _SQLGetDiagRec@32
  00067	0f b7 c0	 movzx	 eax, ax

; 519  : 		if( (ret == SQL_SUCCESS || ret == SQL_SUCCESS_WITH_INFO) &&	lstrcmp((LPCTSTR)szState, "00000") != 0 )

  0006a	66 85 c0	 test	 ax, ax
  0006d	74 06		 je	 SHORT $LN7@PrintDiag
  0006f	66 83 f8 01	 cmp	 ax, 1
  00073	75 5a		 jne	 SHORT $LN5@PrintDiag
$LN7@PrintDiag:
  00075	68 00 00 00 00	 push	 OFFSET ??_C@_05OAGAMKLF@00000@
  0007a	8d 45 f4	 lea	 eax, DWORD PTR _szState$[ebp]
  0007d	50		 push	 eax
  0007e	ff 15 00 00 00
	00		 call	 DWORD PTR __imp__lstrcmpA@8
  00084	85 c0		 test	 eax, eax
  00086	74 47		 je	 SHORT $LN5@PrintDiag

; 520  : 		{
; 521  : 			if( szSQL )

  00088	8d 85 f4 fd ff
	ff		 lea	 eax, DWORD PTR _szMsg$[ebp]
  0008e	50		 push	 eax
  0008f	8d 45 f4	 lea	 eax, DWORD PTR _szState$[ebp]
  00092	50		 push	 eax
  00093	85 db		 test	 ebx, ebx
  00095	74 1b		 je	 SHORT $LN8@PrintDiag

; 522  : 				WriteLogFile("query:%s\nSQLSTATE:%s error:%s", szSQL, (LPCTSTR)szState,(LPCTSTR)szMsg );

  00097	53		 push	 ebx
  00098	68 00 00 00 00	 push	 OFFSET ??_C@_0BO@HJEJONGA@query?3?$CFs?6SQLSTATE?3?$CFs?5error?3?$CFs@
  0009d	57		 push	 edi
  0009e	e8 00 00 00 00	 call	 ?WriteLogFile@CQuery@@QAAXPADZZ ; CQuery::WriteLogFile

; 525  : 			nIndex++;
; 526  : 		}
; 527  : 		else
; 528  : 			break;	
; 529  : 	}

  000a3	8b 8d f0 fd ff
	ff		 mov	 ecx, DWORD PTR _handle$1$[ebp]
  000a9	83 c4 14	 add	 esp, 20			; 00000014H
  000ac	8b 55 0c	 mov	 edx, DWORD PTR _type$[ebp]
  000af	46		 inc	 esi
  000b0	eb 8f		 jmp	 SHORT $LL2@PrintDiag
$LN8@PrintDiag:

; 523  : 			else
; 524  : 				WriteLogFile("SQLSTATE:%s error:%s", (LPCTSTR)szState,(LPCTSTR)szMsg );

  000b2	68 00 00 00 00	 push	 OFFSET ??_C@_0BF@KIMLEFFG@SQLSTATE?3?$CFs?5error?3?$CFs@
  000b7	57		 push	 edi
  000b8	e8 00 00 00 00	 call	 ?WriteLogFile@CQuery@@QAAXPADZZ ; CQuery::WriteLogFile

; 525  : 			nIndex++;
; 526  : 		}
; 527  : 		else
; 528  : 			break;	
; 529  : 	}

  000bd	8b 8d f0 fd ff
	ff		 mov	 ecx, DWORD PTR _handle$1$[ebp]
  000c3	83 c4 10	 add	 esp, 16			; 00000010H
  000c6	8b 55 0c	 mov	 edx, DWORD PTR _type$[ebp]
  000c9	46		 inc	 esi
  000ca	e9 72 ff ff ff	 jmp	 $LL2@PrintDiag
$LN5@PrintDiag:

; 530  : }

  000cf	8b 4d fc	 mov	 ecx, DWORD PTR __$ArrayPad$[ebp]
  000d2	5f		 pop	 edi
  000d3	5e		 pop	 esi
  000d4	33 cd		 xor	 ecx, ebp
  000d6	5b		 pop	 ebx
  000d7	e8 00 00 00 00	 call	 @__security_check_cookie@4
  000dc	8b e5		 mov	 esp, ebp
  000de	5d		 pop	 ebp
  000df	c2 08 00	 ret	 8
?PrintDiag@CQuery@@QAEXPBDF@Z ENDP			; CQuery::PrintDiag
_TEXT	ENDS
; Function compile flags: /Ogtp
; File C:\IAGOS\server\v18\Source\Source\_database\Query.cpp
;	COMDAT ??1CQuery@@QAE@XZ
_TEXT	SEGMENT
??1CQuery@@QAE@XZ PROC					; CQuery::~CQuery, COMDAT
; _this$ = ecx

; 100  : {

  00000	56		 push	 esi
  00001	8b f1		 mov	 esi, ecx
  00003	57		 push	 edi

; 101  : 	if (hStmt)	SQLFreeHandle(SQL_HANDLE_STMT,hStmt);

  00004	8b 86 08 07 00
	00		 mov	 eax, DWORD PTR [esi+1800]
  0000a	85 c0		 test	 eax, eax
  0000c	74 08		 je	 SHORT $LN5@CQuery
  0000e	50		 push	 eax
  0000f	6a 03		 push	 3
  00011	e8 00 00 00 00	 call	 _SQLFreeHandle@8
$LN5@CQuery:

; 102  : 	if (hDbc)	SQLDisconnect(hDbc);

  00016	8b 86 04 03 00
	00		 mov	 eax, DWORD PTR [esi+772]
  0001c	85 c0		 test	 eax, eax
  0001e	74 06		 je	 SHORT $LN6@CQuery
  00020	50		 push	 eax
  00021	e8 00 00 00 00	 call	 _SQLDisconnect@4
$LN6@CQuery:

; 103  : 	if (hDbc)	SQLFreeHandle(SQL_HANDLE_DBC,hDbc);

  00026	8b 86 04 03 00
	00		 mov	 eax, DWORD PTR [esi+772]
  0002c	85 c0		 test	 eax, eax
  0002e	74 08		 je	 SHORT $LN7@CQuery
  00030	50		 push	 eax
  00031	6a 02		 push	 2
  00033	e8 00 00 00 00	 call	 _SQLFreeHandle@8
$LN7@CQuery:

; 104  : 	if (hEnv)	SQLFreeHandle(SQL_HANDLE_ENV,hEnv);

  00038	8b 86 00 03 00
	00		 mov	 eax, DWORD PTR [esi+768]
  0003e	85 c0		 test	 eax, eax
  00040	74 08		 je	 SHORT $LN8@CQuery
  00042	50		 push	 eax
  00043	6a 01		 push	 1
  00045	e8 00 00 00 00	 call	 _SQLFreeHandle@8
$LN8@CQuery:

; 105  : 
; 106  : 	for( int i = 0; i < MAXCOL; i++ )

  0004a	81 c6 08 03 00
	00		 add	 esi, 776		; 00000308H
  00050	bf 00 01 00 00	 mov	 edi, 256		; 00000100H
$LL4@CQuery:

; 107  : 		SAFE_DELETE_ARRAY( Col[i] );

  00055	8b 06		 mov	 eax, DWORD PTR [esi]
  00057	85 c0		 test	 eax, eax
  00059	74 0f		 je	 SHORT $LN2@CQuery
  0005b	50		 push	 eax
  0005c	e8 00 00 00 00	 call	 ??_V@YAXPAX@Z		; operator delete[]
  00061	83 c4 04	 add	 esp, 4
  00064	c7 06 00 00 00
	00		 mov	 DWORD PTR [esi], 0
$LN2@CQuery:

; 105  : 
; 106  : 	for( int i = 0; i < MAXCOL; i++ )

  0006a	83 c6 04	 add	 esi, 4
  0006d	83 ef 01	 sub	 edi, 1
  00070	75 e3		 jne	 SHORT $LL4@CQuery
  00072	5f		 pop	 edi
  00073	5e		 pop	 esi

; 108  : }

  00074	c3		 ret	 0
??1CQuery@@QAE@XZ ENDP					; CQuery::~CQuery
_TEXT	ENDS
; Function compile flags: /Ogtp
; File C:\IAGOS\server\v18\Source\Source\_database\Query.cpp
;	COMDAT ??0CQuery@@QAE@XZ
_TEXT	SEGMENT
??0CQuery@@QAE@XZ PROC					; CQuery::CQuery, COMDAT
; _this$ = ecx

; 88   : {

  00000	53		 push	 ebx
  00001	8b d9		 mov	 ebx, ecx
  00003	56		 push	 esi
  00004	57		 push	 edi

; 89   : 	hStmt	= NULL;

  00005	bf 00 01 00 00	 mov	 edi, 256		; 00000100H
  0000a	c7 83 08 07 00
	00 00 00 00 00	 mov	 DWORD PTR [ebx+1800], 0
  00014	8d b3 08 03 00
	00		 lea	 esi, DWORD PTR [ebx+776]

; 90   : 	hDbc	= NULL;
; 91   : 	hDbc	= NULL;

  0001a	c7 83 04 03 00
	00 00 00 00 00	 mov	 DWORD PTR [ebx+772], 0

; 92   : 	hEnv	= NULL;

  00024	c7 83 00 03 00
	00 00 00 00 00	 mov	 DWORD PTR [ebx+768], 0
  0002e	66 90		 npad	 2
$LL4@CQuery:

; 93   : 
; 94   : 	for( int i = 0; i < MAXCOL; i++ )
; 95   : 		Col[i]	= new char[8192];

  00030	68 00 20 00 00	 push	 8192			; 00002000H
  00035	e8 00 00 00 00	 call	 ??_U@YAPAXI@Z		; operator new[]
  0003a	83 c4 04	 add	 esp, 4
  0003d	89 06		 mov	 DWORD PTR [esi], eax
  0003f	8d 76 04	 lea	 esi, DWORD PTR [esi+4]
  00042	83 ef 01	 sub	 edi, 1
  00045	75 e9		 jne	 SHORT $LL4@CQuery

; 96   : }

  00047	5f		 pop	 edi
  00048	5e		 pop	 esi
  00049	8b c3		 mov	 eax, ebx
  0004b	5b		 pop	 ebx
  0004c	c3		 ret	 0
??0CQuery@@QAE@XZ ENDP					; CQuery::CQuery
_TEXT	ENDS
; Function compile flags: /Ogtp
; File C:\IAGOS\server\v18\Source\Source\_database\Query.cpp
;	COMDAT ?FindCol@CQuery@@AAEHPAD@Z
_TEXT	SEGMENT
_name$ = 8						; size = 4
?FindCol@CQuery@@AAEHPAD@Z PROC				; CQuery::FindCol, COMDAT
; _this$ = ecx

; 335  : {

  00000	55		 push	 ebp
  00001	8b ec		 mov	 ebp, esp
  00003	53		 push	 ebx
  00004	8b d9		 mov	 ebx, ecx

; 336  : 	int i;
; 337  : 	for (i=0;i<nCol;i++) 

  00006	33 c0		 xor	 eax, eax
  00008	56		 push	 esi
  00009	33 f6		 xor	 esi, esi
  0000b	57		 push	 edi
  0000c	66 3b 83 0c 07
	00 00		 cmp	 ax, WORD PTR [ebx+1804]
  00013	7d 2a		 jge	 SHORT $LN3@FindCol
  00015	8d bb 0e 07 00
	00		 lea	 edi, DWORD PTR [ebx+1806]
  0001b	0f 1f 44 00 00	 npad	 5
$LL4@FindCol:

; 338  : 	{
; 339  : 		if (stricmp(name,(LPCTSTR)ColName[i])==0)

  00020	57		 push	 edi
  00021	ff 75 08	 push	 DWORD PTR _name$[ebp]
  00024	46		 inc	 esi
  00025	e8 00 00 00 00	 call	 _stricmp
  0002a	83 c4 08	 add	 esp, 8
  0002d	85 c0		 test	 eax, eax
  0002f	74 18		 je	 SHORT $LN8@FindCol

; 336  : 	int i;
; 337  : 	for (i=0;i<nCol;i++) 

  00031	0f bf 83 0c 07
	00 00		 movsx	 eax, WORD PTR [ebx+1804]
  00038	83 c7 32	 add	 edi, 50			; 00000032H
  0003b	3b f0		 cmp	 esi, eax
  0003d	7c e1		 jl	 SHORT $LL4@FindCol
$LN3@FindCol:
  0003f	5f		 pop	 edi

; 341  : 	}
; 342  : 	return -1;
; 343  : }

  00040	5e		 pop	 esi
  00041	83 c8 ff	 or	 eax, -1
  00044	5b		 pop	 ebx
  00045	5d		 pop	 ebp
  00046	c2 04 00	 ret	 4
$LN8@FindCol:
  00049	5f		 pop	 edi

; 340  : 			return i+1;

  0004a	8b c6		 mov	 eax, esi

; 341  : 	}
; 342  : 	return -1;
; 343  : }

  0004c	5e		 pop	 esi
  0004d	5b		 pop	 ebx
  0004e	5d		 pop	 ebp
  0004f	c2 04 00	 ret	 4
?FindCol@CQuery@@AAEHPAD@Z ENDP				; CQuery::FindCol
_TEXT	ENDS
; Function compile flags: /Ogtp
; File C:\Program Files (x86)\Windows Kits\10\Include\10.0.26100.0\ucrt\stdio.h
;	COMDAT _sscanf
_TEXT	SEGMENT
__Buffer$ = 8						; size = 4
__Format$ = 12						; size = 4
_sscanf	PROC						; COMDAT

; 2247 :     {

  00000	55		 push	 ebp
  00001	8b ec		 mov	 ebp, esp

; 2153 :         return __stdio_common_vsscanf(

  00003	8d 45 10	 lea	 eax, DWORD PTR __Format$[ebp+4]
  00006	50		 push	 eax
  00007	6a 00		 push	 0
  00009	ff 75 0c	 push	 DWORD PTR __Format$[ebp]
  0000c	6a ff		 push	 -1
  0000e	ff 75 08	 push	 DWORD PTR __Buffer$[ebp]
  00011	e8 00 00 00 00	 call	 ___local_stdio_scanf_options
  00016	ff 70 04	 push	 DWORD PTR [eax+4]
  00019	ff 30		 push	 DWORD PTR [eax]
  0001b	e8 00 00 00 00	 call	 ___stdio_common_vsscanf
  00020	83 c4 1c	 add	 esp, 28			; 0000001cH

; 2248 :         int _Result;
; 2249 :         va_list _ArgList;
; 2250 :         __crt_va_start(_ArgList, _Format);
; 2251 :         _Result = _vsscanf_l(_Buffer, _Format, NULL, _ArgList);
; 2252 :         __crt_va_end(_ArgList);
; 2253 :         return _Result;
; 2254 :     }

  00023	5d		 pop	 ebp
  00024	c3		 ret	 0
_sscanf	ENDP
_TEXT	ENDS
; Function compile flags: /Ogtp
; File C:\Program Files (x86)\Windows Kits\10\Include\10.0.26100.0\ucrt\stdio.h
;	COMDAT _fprintf
_TEXT	SEGMENT
__Stream$ = 8						; size = 4
__Format$ = 12						; size = 4
_fprintf PROC						; COMDAT

; 837  :     {

  00000	55		 push	 ebp
  00001	8b ec		 mov	 ebp, esp

; 645  :         return __stdio_common_vfprintf(_CRT_INTERNAL_LOCAL_PRINTF_OPTIONS, _Stream, _Format, _Locale, _ArgList);

  00003	8d 45 10	 lea	 eax, DWORD PTR __Format$[ebp+4]
  00006	50		 push	 eax
  00007	6a 00		 push	 0
  00009	ff 75 0c	 push	 DWORD PTR __Format$[ebp]
  0000c	ff 75 08	 push	 DWORD PTR __Stream$[ebp]
  0000f	e8 00 00 00 00	 call	 ___local_stdio_printf_options
  00014	ff 70 04	 push	 DWORD PTR [eax+4]
  00017	ff 30		 push	 DWORD PTR [eax]
  00019	e8 00 00 00 00	 call	 ___stdio_common_vfprintf
  0001e	83 c4 18	 add	 esp, 24			; 00000018H

; 838  :         int _Result;
; 839  :         va_list _ArgList;
; 840  :         __crt_va_start(_ArgList, _Format);
; 841  :         _Result = _vfprintf_l(_Stream, _Format, NULL, _ArgList);
; 842  :         __crt_va_end(_ArgList);
; 843  :         return _Result;
; 844  :     }

  00021	5d		 pop	 ebp
  00022	c3		 ret	 0
_fprintf ENDP
_TEXT	ENDS
; Function compile flags: /Ogtp
; File C:\Program Files (x86)\Windows Kits\10\Include\10.0.26100.0\ucrt\corecrt_stdio_config.h
;	COMDAT ___local_stdio_scanf_options
_TEXT	SEGMENT
___local_stdio_scanf_options PROC			; COMDAT

; 101  :         static unsigned __int64 _OptionsStorage;
; 102  :         return &_OptionsStorage;

  00000	b8 00 00 00 00	 mov	 eax, OFFSET ?_OptionsStorage@?1??__local_stdio_scanf_options@@9@4_KA ; `__local_stdio_scanf_options'::`2'::_OptionsStorage

; 103  :     }

  00005	c3		 ret	 0
___local_stdio_scanf_options ENDP
_TEXT	ENDS
; Function compile flags: /Ogtp
; File C:\Program Files (x86)\Windows Kits\10\Include\10.0.26100.0\ucrt\corecrt_stdio_config.h
;	COMDAT ___local_stdio_printf_options
_TEXT	SEGMENT
___local_stdio_printf_options PROC			; COMDAT

; 91   :         static unsigned __int64 _OptionsStorage;
; 92   :         return &_OptionsStorage;

  00000	b8 00 00 00 00	 mov	 eax, OFFSET ?_OptionsStorage@?1??__local_stdio_printf_options@@9@4_KA ; `__local_stdio_printf_options'::`2'::_OptionsStorage

; 93   :     }

  00005	c3		 ret	 0
___local_stdio_printf_options ENDP
_TEXT	ENDS
; Function compile flags: /Ogtp
; File C:\IAGOS\server\v18\Source\Source\_database\Query.cpp
;	COMDAT ?__empty_global_delete@@YAXPAXI@Z
_TEXT	SEGMENT
___formal$ = 8						; size = 4
___formal$ = 12						; size = 4
?__empty_global_delete@@YAXPAXI@Z PROC			; __empty_global_delete, COMDAT

  00000	c2 00 00	 ret	 0
?__empty_global_delete@@YAXPAXI@Z ENDP			; __empty_global_delete
_TEXT	ENDS
; Function compile flags: /Ogtp
; File C:\IAGOS\server\v18\Source\Source\_database\Query.cpp
;	COMDAT ?__empty_global_delete@@YAXPAX@Z
_TEXT	SEGMENT
___formal$ = 8						; size = 4
?__empty_global_delete@@YAXPAX@Z PROC			; __empty_global_delete, COMDAT

  00000	c2 00 00	 ret	 0
?__empty_global_delete@@YAXPAX@Z ENDP			; __empty_global_delete
_TEXT	ENDS
END
