; Listing generated by Microsoft (R) Optimizing Compiler Version 19.44.35225.0 

	TITLE	C:\IAGOS\server\v18\Source\Output\DatabaseServer\Release\Quiz.obj
	.686P
	.XMM
	include listing.inc
	.model	flat

INCLUDELIB LIBCMT
INCLUDELIB OLDNAMES

PUBLIC	?__empty_global_delete@@YAXPAX@Z		; __empty_global_delete
PUBLIC	?__empty_global_delete@@YAXPAXI@Z		; __empty_global_delete
PUBLIC	??1?$CStringT@DV?$StrTraitMFC@DV?$ChTraitsCRT@D@ATL@@@@@ATL@@QAE@XZ ; ATL::CStringT<char,StrTraitMFC<char,ATL::ChTraitsCRT<char> > >::~CStringT<char,StrTraitMFC<char,ATL::ChTraitsCRT<char> > >
PUBLIC	??0CQuiz@@QAE@XZ				; CQuiz::CQuiz
PUBLIC	??1CQuiz@@QAE@XZ				; CQuiz::~CQuiz
PUBLIC	?GetInstance@CQuiz@@SAPAV1@XZ			; CQuiz::GetInstance
PUBLIC	?Clear@CQuiz@@QAEXXZ				; CQuiz::Clear
PUBLIC	?LoadScript@CQuiz@@QAEXXZ			; CQuiz::LoadScript
PUBLIC	??1?$vector@U_QUIZLIST@CQuiz@@V?$allocator@U_QUIZLIST@CQuiz@@@std@@@std@@QAE@XZ ; std::vector<CQuiz::_QUIZLIST,std::allocator<CQuiz::_QUIZLIST> >::~vector<CQuiz::_QUIZLIST,std::allocator<CQuiz::_QUIZLIST> >
PUBLIC	??$_Destroy_range@V?$allocator@U_QUIZLIST@CQuiz@@@std@@@std@@YAXPAU_QUIZLIST@CQuiz@@QAU12@AAV?$allocator@U_QUIZLIST@CQuiz@@@0@@Z ; std::_Destroy_range<std::allocator<CQuiz::_QUIZLIST> >
PUBLIC	??_C@_0O@JDCLLGCC@QuizEvent?4lua@		; `string'
PUBLIC	??_C@_0BN@EBBMEDBP@QuizEvent?4lua?5Load?5Failed?$CB?$CB?$CB@ ; `string'
PUBLIC	??_C@_08EBFIKNOF@AutoMode@			; `string'
PUBLIC	??_C@_08LLCHHHKO@QuizType@			; `string'
PUBLIC	??_C@_0N@JCCLKJOL@EntranceTime@			; `string'
EXTRN	??3@YAXPAXI@Z:PROC				; operator delete
EXTRN	_atexit:PROC
EXTRN	__Init_thread_header:PROC
EXTRN	__Init_thread_footer:PROC
EXTRN	__invoke_watson:PROC
EXTRN	_exit:PROC
EXTRN	?Error@@YAPBDPBDZZ:PROC				; Error
EXTRN	??0CLuaBase@@QAE@XZ:PROC			; CLuaBase::CLuaBase
EXTRN	??1CLuaBase@@UAE@XZ:PROC			; CLuaBase::~CLuaBase
EXTRN	?RunScript@CLuaBase@@QAEHPBD@Z:PROC		; CLuaBase::RunScript
EXTRN	?GetGlobalNumber@CLuaBase@@QAENPAD@Z:PROC	; CLuaBase::GetGlobalNumber
EXTRN	?GetGlobalBool@CLuaBase@@QAEHPAD@Z:PROC		; CLuaBase::GetGlobalBool
EXTRN	@__security_check_cookie@4:PROC
EXTRN	___CxxFrameHandler3:PROC
EXTRN	__ftol2:PROC
EXTRN	__ftol2_sse:PROC
EXTRN	__Init_thread_epoch:DWORD
EXTRN	___security_cookie:DWORD
EXTRN	__fltused:DWORD
EXTRN	__tls_array:DWORD
EXTRN	__tls_index:DWORD
;	COMDAT ?sQuiz@?1??GetInstance@CQuiz@@SAPAV2@XZ@4V2@A
_BSS	SEGMENT
?sQuiz@?1??GetInstance@CQuiz@@SAPAV2@XZ@4V2@A DB 020H DUP (?) ; `CQuiz::GetInstance'::`2'::sQuiz
_BSS	ENDS
;	COMDAT ?$TSS0@?1??GetInstance@CQuiz@@SAPAV2@XZ@4HA
_BSS	SEGMENT
?$TSS0@?1??GetInstance@CQuiz@@SAPAV2@XZ@4HA DD 01H DUP (?) ; `CQuiz::GetInstance'::`2'::$TSS0
_BSS	ENDS
;	COMDAT ??_C@_0N@JCCLKJOL@EntranceTime@
CONST	SEGMENT
??_C@_0N@JCCLKJOL@EntranceTime@ DB 'EntranceTime', 00H	; `string'
CONST	ENDS
;	COMDAT ??_C@_08LLCHHHKO@QuizType@
CONST	SEGMENT
??_C@_08LLCHHHKO@QuizType@ DB 'QuizType', 00H		; `string'
CONST	ENDS
;	COMDAT ??_C@_08EBFIKNOF@AutoMode@
CONST	SEGMENT
??_C@_08EBFIKNOF@AutoMode@ DB 'AutoMode', 00H		; `string'
CONST	ENDS
;	COMDAT ??_C@_0BN@EBBMEDBP@QuizEvent?4lua?5Load?5Failed?$CB?$CB?$CB@
CONST	SEGMENT
??_C@_0BN@EBBMEDBP@QuizEvent?4lua?5Load?5Failed?$CB?$CB?$CB@ DB 'QuizEven'
	DB	't.lua Load Failed!!!', 00H			; `string'
CONST	ENDS
;	COMDAT ??_C@_0O@JDCLLGCC@QuizEvent?4lua@
CONST	SEGMENT
??_C@_0O@JDCLLGCC@QuizEvent?4lua@ DB 'QuizEvent.lua', 00H ; `string'
CONST	ENDS
;	COMDAT xdata$x
xdata$x	SEGMENT
__ehfuncinfo$??$_Destroy_range@V?$allocator@U_QUIZLIST@CQuiz@@@std@@@std@@YAXPAU_QUIZLIST@CQuiz@@QAU12@AAV?$allocator@U_QUIZLIST@CQuiz@@@0@@Z DD 019930522H
	DD	00H
	DD	00H
	DD	2 DUP(00H)
	DD	2 DUP(00H)
	DD	00H
	DD	05H
xdata$x	ENDS
;	COMDAT xdata$x
xdata$x	SEGMENT
__unwindtable$?LoadScript@CQuiz@@QAEXXZ DD 0ffffffffH
	DD	FLAT:__unwindfunclet$?LoadScript@CQuiz@@QAEXXZ$0
__ehfuncinfo$?LoadScript@CQuiz@@QAEXXZ DD 019930522H
	DD	01H
	DD	FLAT:__unwindtable$?LoadScript@CQuiz@@QAEXXZ
	DD	2 DUP(00H)
	DD	2 DUP(00H)
	DD	00H
	DD	01H
xdata$x	ENDS
;	COMDAT xdata$x
xdata$x	SEGMENT
__ehfuncinfo$??_G_QUIZLIST@CQuiz@@QAEPAXI@Z DD 019930522H
	DD	00H
	DD	00H
	DD	2 DUP(00H)
	DD	2 DUP(00H)
	DD	00H
	DD	05H
xdata$x	ENDS
;	COMDAT xdata$x
xdata$x	SEGMENT
__ehfuncinfo$??1_QUIZLIST@CQuiz@@QAE@XZ DD 019930522H
	DD	00H
	DD	00H
	DD	2 DUP(00H)
	DD	2 DUP(00H)
	DD	00H
	DD	05H
xdata$x	ENDS
; Function compile flags: /Ogtp
; File C:\Program Files\Microsoft Visual Studio\2022\Professional\VC\Tools\MSVC\14.44.35207\include\xmemory
; File C:\Program Files\Microsoft Visual Studio\2022\Professional\VC\Tools\MSVC\14.44.35207\atlmfc\include\atlsimpstr.h
; File C:\Program Files\Microsoft Visual Studio\2022\Professional\VC\Tools\MSVC\14.44.35207\include\xmemory
;	COMDAT ??$_Destroy_range@V?$allocator@U_QUIZLIST@CQuiz@@@std@@@std@@YAXPAU_QUIZLIST@CQuiz@@QAU12@AAV?$allocator@U_QUIZLIST@CQuiz@@@0@@Z
_TEXT	SEGMENT
__$EHRec$ = -12						; size = 12
__First$ = 8						; size = 4
__Last$ = 12						; size = 4
__Al$ = 16						; size = 4
??$_Destroy_range@V?$allocator@U_QUIZLIST@CQuiz@@@std@@@std@@YAXPAU_QUIZLIST@CQuiz@@QAU12@AAV?$allocator@U_QUIZLIST@CQuiz@@@0@@Z PROC ; std::_Destroy_range<std::allocator<CQuiz::_QUIZLIST> >, COMDAT

; 1098 : _CONSTEXPR20 void _Destroy_range(_Alloc_ptr_t<_Alloc> _First, const _Alloc_ptr_t<_Alloc> _Last, _Alloc& _Al) noexcept {

  00000	55		 push	 ebp
  00001	8b ec		 mov	 ebp, esp
  00003	6a ff		 push	 -1
  00005	68 00 00 00 00	 push	 __ehhandler$??$_Destroy_range@V?$allocator@U_QUIZLIST@CQuiz@@@std@@@std@@YAXPAU_QUIZLIST@CQuiz@@QAU12@AAV?$allocator@U_QUIZLIST@CQuiz@@@0@@Z
  0000a	64 a1 00 00 00
	00		 mov	 eax, DWORD PTR fs:0
  00010	50		 push	 eax
  00011	56		 push	 esi
  00012	57		 push	 edi
  00013	a1 00 00 00 00	 mov	 eax, DWORD PTR ___security_cookie
  00018	33 c5		 xor	 eax, ebp
  0001a	50		 push	 eax
  0001b	8d 45 f4	 lea	 eax, DWORD PTR __$EHRec$[ebp]
  0001e	64 a3 00 00 00
	00		 mov	 DWORD PTR fs:0, eax

; 1102 :         for (; _First != _Last; ++_First) {

  00024	8b 75 08	 mov	 esi, DWORD PTR __First$[ebp]
  00027	8b 7d 0c	 mov	 edi, DWORD PTR __Last$[ebp]
  0002a	3b f7		 cmp	 esi, edi
  0002c	74 24		 je	 SHORT $LN3@Destroy_ra
  0002e	66 90		 npad	 2
$LL4@Destroy_ra:
; File C:\Program Files\Microsoft Visual Studio\2022\Professional\VC\Tools\MSVC\14.44.35207\atlmfc\include\atlsimpstr.h

; 804  : 		return( reinterpret_cast< CStringData* >( m_pszData )-1 );

  00030	8b 56 04	 mov	 edx, DWORD PTR [esi+4]

; 92   : 		if( _InterlockedDecrement( &nRefs ) <= 0 )

  00033	83 c8 ff	 or	 eax, -1

; 804  : 		return( reinterpret_cast< CStringData* >( m_pszData )-1 );

  00036	83 ea 10	 sub	 edx, 16			; 00000010H

; 92   : 		if( _InterlockedDecrement( &nRefs ) <= 0 )

  00039	f0 0f c1 42 0c	 lock	  xadd	 DWORD PTR [edx+12], eax
  0003e	48		 dec	 eax
  0003f	85 c0		 test	 eax, eax
  00041	7f 08		 jg	 SHORT $LN25@Destroy_ra

; 93   : 		{
; 94   : 			pStringMgr->Free( this );

  00043	8b 0a		 mov	 ecx, DWORD PTR [edx]
  00045	52		 push	 edx
  00046	8b 01		 mov	 eax, DWORD PTR [ecx]
  00048	ff 50 04	 call	 DWORD PTR [eax+4]
$LN25@Destroy_ra:
; File C:\Program Files\Microsoft Visual Studio\2022\Professional\VC\Tools\MSVC\14.44.35207\include\xmemory

; 1102 :         for (; _First != _Last; ++_First) {

  0004b	83 c6 14	 add	 esi, 20			; 00000014H
  0004e	3b f7		 cmp	 esi, edi
  00050	75 de		 jne	 SHORT $LL4@Destroy_ra
$LN3@Destroy_ra:

; 1103 :             allocator_traits<_Alloc>::destroy(_Al, _STD _Unfancy(_First));
; 1104 :         }
; 1105 :     }
; 1106 : }

  00052	8b 4d f4	 mov	 ecx, DWORD PTR __$EHRec$[ebp]
  00055	64 89 0d 00 00
	00 00		 mov	 DWORD PTR fs:0, ecx
  0005c	59		 pop	 ecx
  0005d	5f		 pop	 edi
  0005e	5e		 pop	 esi
  0005f	8b e5		 mov	 esp, ebp
  00061	5d		 pop	 ebp
  00062	c3		 ret	 0
  00063	cc		 int	 3
  00064	cc		 int	 3
  00065	cc		 int	 3
  00066	cc		 int	 3
  00067	cc		 int	 3
_TEXT	ENDS
;	COMDAT text$x
text$x	SEGMENT
__ehhandler$??$_Destroy_range@V?$allocator@U_QUIZLIST@CQuiz@@@std@@@std@@YAXPAU_QUIZLIST@CQuiz@@QAU12@AAV?$allocator@U_QUIZLIST@CQuiz@@@0@@Z:
  00000	90		 npad	 1
  00001	90		 npad	 1
  00002	8b 54 24 08	 mov	 edx, DWORD PTR [esp+8]
  00006	8d 42 0c	 lea	 eax, DWORD PTR [edx+12]
  00009	8b 4a f4	 mov	 ecx, DWORD PTR [edx-12]
  0000c	33 c8		 xor	 ecx, eax
  0000e	e8 00 00 00 00	 call	 @__security_check_cookie@4
  00013	b8 00 00 00 00	 mov	 eax, OFFSET __ehfuncinfo$??$_Destroy_range@V?$allocator@U_QUIZLIST@CQuiz@@@std@@@std@@YAXPAU_QUIZLIST@CQuiz@@QAU12@AAV?$allocator@U_QUIZLIST@CQuiz@@@0@@Z
  00018	e9 00 00 00 00	 jmp	 ___CxxFrameHandler3
text$x	ENDS
??$_Destroy_range@V?$allocator@U_QUIZLIST@CQuiz@@@std@@@std@@YAXPAU_QUIZLIST@CQuiz@@QAU12@AAV?$allocator@U_QUIZLIST@CQuiz@@@0@@Z ENDP ; std::_Destroy_range<std::allocator<CQuiz::_QUIZLIST> >
; Function compile flags: /Ogtp
;	COMDAT ??__FsQuiz@?1??GetInstance@CQuiz@@SAPAV1@XZ@YAXXZ
text$yd	SEGMENT
??__FsQuiz@?1??GetInstance@CQuiz@@SAPAV1@XZ@YAXXZ PROC	; `CQuiz::GetInstance'::`2'::`dynamic atexit destructor for 'sQuiz'', COMDAT
  00000	b9 00 00 00 00	 mov	 ecx, OFFSET ?sQuiz@?1??GetInstance@CQuiz@@SAPAV2@XZ@4V2@A
  00005	e9 00 00 00 00	 jmp	 ??1CQuiz@@QAE@XZ	; CQuiz::~CQuiz
??__FsQuiz@?1??GetInstance@CQuiz@@SAPAV1@XZ@YAXXZ ENDP	; `CQuiz::GetInstance'::`2'::`dynamic atexit destructor for 'sQuiz''
text$yd	ENDS
; Function compile flags: /Ogtp
; File C:\Program Files\Microsoft Visual Studio\2022\Professional\VC\Tools\MSVC\14.44.35207\include\vector
; File C:\Program Files\Microsoft Visual Studio\2022\Professional\VC\Tools\MSVC\14.44.35207\include\xmemory
; File C:\Program Files\Microsoft Visual Studio\2022\Professional\VC\Tools\MSVC\14.44.35207\include\vector
; File C:\Program Files\Microsoft Visual Studio\2022\Professional\VC\Tools\MSVC\14.44.35207\include\xmemory
; File C:\Program Files\Microsoft Visual Studio\2022\Professional\VC\Tools\MSVC\14.44.35207\include\vector
;	COMDAT ??1?$vector@U_QUIZLIST@CQuiz@@V?$allocator@U_QUIZLIST@CQuiz@@@std@@@std@@QAE@XZ
_TEXT	SEGMENT
??1?$vector@U_QUIZLIST@CQuiz@@V?$allocator@U_QUIZLIST@CQuiz@@@std@@@std@@QAE@XZ PROC ; std::vector<CQuiz::_QUIZLIST,std::allocator<CQuiz::_QUIZLIST> >::~vector<CQuiz::_QUIZLIST,std::allocator<CQuiz::_QUIZLIST> >, COMDAT
; _this$ = ecx

; 829  :     _CONSTEXPR20 ~vector() noexcept {

  00000	56		 push	 esi
  00001	8b f1		 mov	 esi, ecx

; 2090 :         if (_Myfirst) { // destroy and deallocate old array

  00003	8b 06		 mov	 eax, DWORD PTR [esi]
  00005	85 c0		 test	 eax, eax
  00007	74 65		 je	 SHORT $LN5@vector
  00009	57		 push	 edi

; 2091 :             _STD _Destroy_range(_Myfirst, _Mylast, _Al);

  0000a	56		 push	 esi
  0000b	ff 76 04	 push	 DWORD PTR [esi+4]
  0000e	50		 push	 eax
  0000f	e8 00 00 00 00	 call	 ??$_Destroy_range@V?$allocator@U_QUIZLIST@CQuiz@@@std@@@std@@YAXPAU_QUIZLIST@CQuiz@@QAU12@AAV?$allocator@U_QUIZLIST@CQuiz@@@0@@Z ; std::_Destroy_range<std::allocator<CQuiz::_QUIZLIST> >

; 2092 :             _ASAN_VECTOR_REMOVE;
; 2093 :             _Al.deallocate(_Myfirst, static_cast<size_type>(_Myend - _Myfirst));

  00014	8b 4e 08	 mov	 ecx, DWORD PTR [esi+8]
  00017	b8 67 66 66 66	 mov	 eax, 1717986919		; 66666667H
  0001c	8b 3e		 mov	 edi, DWORD PTR [esi]
  0001e	83 c4 0c	 add	 esp, 12			; 0000000cH
  00021	2b cf		 sub	 ecx, edi
  00023	f7 e9		 imul	 ecx
  00025	c1 fa 03	 sar	 edx, 3
  00028	8b c2		 mov	 eax, edx
  0002a	c1 e8 1f	 shr	 eax, 31			; 0000001fH
  0002d	03 c2		 add	 eax, edx
; File C:\Program Files\Microsoft Visual Studio\2022\Professional\VC\Tools\MSVC\14.44.35207\include\xmemory

; 985  :         _STD _Deallocate<_New_alignof<_Ty>>(_Ptr, sizeof(_Ty) * _Count);

  0002f	8d 0c 80	 lea	 ecx, DWORD PTR [eax+eax*4]
  00032	c1 e1 02	 shl	 ecx, 2

; 284  :         if (_Bytes >= _Big_allocation_threshold) {

  00035	81 f9 00 10 00
	00		 cmp	 ecx, 4096		; 00001000H
  0003b	72 12		 jb	 SHORT $LN18@vector

; 205  :     const uintptr_t _Ptr_container   = _Ptr_user[-1];

  0003d	8b 57 fc	 mov	 edx, DWORD PTR [edi-4]
  00040	83 c1 23	 add	 ecx, 35			; 00000023H

; 206  : 
; 207  :     // If the following asserts, it likely means that we are performing
; 208  :     // an aligned delete on memory coming from an unaligned allocation.
; 209  :     _STL_ASSERT(_Ptr_user[-2] == _Big_allocation_sentinel, "invalid argument");
; 210  : 
; 211  :     // Extra paranoia on aligned allocation/deallocation; ensure _Ptr_container is
; 212  :     // in range [_Min_back_shift, _Non_user_size]
; 213  : #ifdef _DEBUG
; 214  :     constexpr uintptr_t _Min_back_shift = 2 * sizeof(void*);
; 215  : #else // ^^^ defined(_DEBUG) / !defined(_DEBUG) vvv
; 216  :     constexpr uintptr_t _Min_back_shift = sizeof(void*);
; 217  : #endif // ^^^ !defined(_DEBUG) ^^^
; 218  :     const uintptr_t _Back_shift = reinterpret_cast<uintptr_t>(_Ptr) - _Ptr_container;

  00043	2b fa		 sub	 edi, edx

; 219  :     _STL_VERIFY(_Back_shift >= _Min_back_shift && _Back_shift <= _Non_user_size, "invalid argument");

  00045	8d 47 fc	 lea	 eax, DWORD PTR [edi-4]
  00048	83 f8 1f	 cmp	 eax, 31			; 0000001fH
  0004b	77 23		 ja	 SHORT $LN17@vector

; 220  :     _Ptr = reinterpret_cast<void*>(_Ptr_container);

  0004d	8b fa		 mov	 edi, edx
$LN18@vector:

; 289  :         ::operator delete(_Ptr, _Bytes);

  0004f	51		 push	 ecx
  00050	57		 push	 edi
  00051	e8 00 00 00 00	 call	 ??3@YAXPAXI@Z		; operator delete
  00056	83 c4 08	 add	 esp, 8
; File C:\Program Files\Microsoft Visual Studio\2022\Professional\VC\Tools\MSVC\14.44.35207\include\vector

; 2095 :             _Myfirst = nullptr;

  00059	c7 06 00 00 00
	00		 mov	 DWORD PTR [esi], 0

; 2096 :             _Mylast  = nullptr;

  0005f	c7 46 04 00 00
	00 00		 mov	 DWORD PTR [esi+4], 0

; 2097 :             _Myend   = nullptr;

  00066	c7 46 08 00 00
	00 00		 mov	 DWORD PTR [esi+8], 0
  0006d	5f		 pop	 edi
$LN5@vector:
  0006e	5e		 pop	 esi

; 835  :     }

  0006f	c3		 ret	 0
$LN17@vector:
; File C:\Program Files\Microsoft Visual Studio\2022\Professional\VC\Tools\MSVC\14.44.35207\include\xmemory

; 219  :     _STL_VERIFY(_Back_shift >= _Min_back_shift && _Back_shift <= _Non_user_size, "invalid argument");

  00070	6a 00		 push	 0
  00072	6a 00		 push	 0
  00074	6a 00		 push	 0
  00076	6a 00		 push	 0
  00078	6a 00		 push	 0
  0007a	e8 00 00 00 00	 call	 __invoke_watson
$LN26@vector:
  0007f	cc		 int	 3
??1?$vector@U_QUIZLIST@CQuiz@@V?$allocator@U_QUIZLIST@CQuiz@@@std@@@std@@QAE@XZ ENDP ; std::vector<CQuiz::_QUIZLIST,std::allocator<CQuiz::_QUIZLIST> >::~vector<CQuiz::_QUIZLIST,std::allocator<CQuiz::_QUIZLIST> >
_TEXT	ENDS
; Function compile flags: /Ogtp
; File C:\IAGOS\server\v18\Source\Source\_Common\Quiz.cpp
;	COMDAT ?LoadScript@CQuiz@@QAEXXZ
_TEXT	SEGMENT
_Lua$ = -20						; size = 8
__$EHRec$ = -12						; size = 12
?LoadScript@CQuiz@@QAEXXZ PROC				; CQuiz::LoadScript, COMDAT
; _this$ = ecx

; 66   : {

  00000	55		 push	 ebp
  00001	8b ec		 mov	 ebp, esp
  00003	6a ff		 push	 -1
  00005	68 00 00 00 00	 push	 __ehhandler$?LoadScript@CQuiz@@QAEXXZ
  0000a	64 a1 00 00 00
	00		 mov	 eax, DWORD PTR fs:0
  00010	50		 push	 eax
  00011	83 ec 08	 sub	 esp, 8
  00014	56		 push	 esi
  00015	a1 00 00 00 00	 mov	 eax, DWORD PTR ___security_cookie
  0001a	33 c5		 xor	 eax, ebp
  0001c	50		 push	 eax
  0001d	8d 45 f4	 lea	 eax, DWORD PTR __$EHRec$[ebp]
  00020	64 a3 00 00 00
	00		 mov	 DWORD PTR fs:0, eax
  00026	8b f1		 mov	 esi, ecx

; 67   : 	if( IsRun() )

  00028	83 7e 08 00	 cmp	 DWORD PTR [esi+8], 0
  0002c	75 61		 jne	 SHORT $LN1@LoadScript

; 68   : 		return;
; 69   : 	
; 70   : 	CLuaBase Lua;

  0002e	8d 4d ec	 lea	 ecx, DWORD PTR _Lua$[ebp]
  00031	e8 00 00 00 00	 call	 ??0CLuaBase@@QAE@XZ	; CLuaBase::CLuaBase

; 71   : 	if( Lua.RunScript( "QuizEvent.lua" ) != 0 )

  00036	68 00 00 00 00	 push	 OFFSET ??_C@_0O@JDCLLGCC@QuizEvent?4lua@
  0003b	8d 4d ec	 lea	 ecx, DWORD PTR _Lua$[ebp]
  0003e	c7 45 fc 00 00
	00 00		 mov	 DWORD PTR __$EHRec$[ebp+8], 0
  00045	e8 00 00 00 00	 call	 ?RunScript@CLuaBase@@QAEHPBD@Z ; CLuaBase::RunScript
  0004a	85 c0		 test	 eax, eax
  0004c	75 51		 jne	 SHORT $LN9@LoadScript

; 75   : 	}
; 76   : 	m_bAuto						= static_cast<BOOL>( Lua.GetGlobalBool( "AutoMode" ) );

  0004e	68 00 00 00 00	 push	 OFFSET ??_C@_08EBFIKNOF@AutoMode@
  00053	8d 4d ec	 lea	 ecx, DWORD PTR _Lua$[ebp]
  00056	e8 00 00 00 00	 call	 ?GetGlobalBool@CLuaBase@@QAEHPAD@Z ; CLuaBase::GetGlobalBool

; 77   : 	m_nType						= static_cast<int>( Lua.GetGlobalNumber( "QuizType" ) );

  0005b	68 00 00 00 00	 push	 OFFSET ??_C@_08LLCHHHKO@QuizType@
  00060	8d 4d ec	 lea	 ecx, DWORD PTR _Lua$[ebp]
  00063	89 46 04	 mov	 DWORD PTR [esi+4], eax
  00066	e8 00 00 00 00	 call	 ?GetGlobalNumber@CLuaBase@@QAENPAD@Z ; CLuaBase::GetGlobalNumber
  0006b	e8 00 00 00 00	 call	 __ftol2_sse

; 78   : 	m_dwEntranceTime			= static_cast<DWORD>( Lua.GetGlobalNumber( "EntranceTime" ) );

  00070	68 00 00 00 00	 push	 OFFSET ??_C@_0N@JCCLKJOL@EntranceTime@
  00075	8d 4d ec	 lea	 ecx, DWORD PTR _Lua$[ebp]
  00078	89 06		 mov	 DWORD PTR [esi], eax
  0007a	e8 00 00 00 00	 call	 ?GetGlobalNumber@CLuaBase@@QAENPAD@Z ; CLuaBase::GetGlobalNumber
  0007f	e8 00 00 00 00	 call	 __ftol2

; 79   : #ifdef __WORLDSERVER
; 80   : 	m_nChannel					= static_cast<int>( Lua.GetGlobalNumber( "QuizChannel" ) );
; 81   : 	if( !m_nChannel )
; 82   : 		m_nChannel = g_uIdofMulti;
; 83   : 
; 84   : 	Lua.GetGloabal( "tNPC" );
; 85   : 	Lua.PushNil();
; 86   : 	while( Lua.TableLoop( -2 ) )
; 87   : 	{
; 88   : 		m_sNPC.dwNPCId			= static_cast<DWORD>( CScript::GetDefineNum( Lua.GetFieldToString( -1, "strNPCId" ) ) );
; 89   : 		m_sNPC.strCharKey		= Lua.GetFieldToString( -1, "strCharKey" );
; 90   : 		m_sNPC.vPos.x			= static_cast<float>( Lua.GetFieldToNumber( -1, "xPos" ) );
; 91   : 		m_sNPC.vPos.y			= static_cast<float>( Lua.GetFieldToNumber( -1, "yPos" ) );
; 92   : 		m_sNPC.vPos.z			= static_cast<float>( Lua.GetFieldToNumber( -1, "zPos" ) );
; 93   : 		Lua.Pop( 1 );
; 94   : 	}
; 95   : 	Lua.Pop( 0 );
; 96   : 
; 97   : 	m_dwWaitTime				= static_cast<DWORD>( Lua.GetGlobalNumber( "WaitTime" ) );
; 98   : 	m_dwQuestionTime			= static_cast<DWORD>( Lua.GetGlobalNumber( "QuestionTime" ) );
; 99   : 	m_dwAnswerTime				= static_cast<DWORD>( Lua.GetGlobalNumber( "AnswerTime" ) );
; 100  : 	m_dwWatchingZoneOpenTime	= static_cast<DWORD>( Lua.GetGlobalNumber( "WatchingZoneOpenTime" ) );
; 101  : 	m_dwCloseWaitTime			= static_cast<DWORD>( Lua.GetGlobalNumber( "CloseWaitTime" ) );
; 102  : 	m_dwPrizeItemId				= static_cast<DWORD>( CScript::GetDefineNum( Lua.GetGlobalString( "PrizeItemId" ) ) );
; 103  : 	m_nPrizeItemNum				= static_cast<int>( Lua.GetGlobalNumber( "PrizeItemNum" ) );
; 104  : #endif // __WORLDSERVER
; 105  : }

  00084	8d 4d ec	 lea	 ecx, DWORD PTR _Lua$[ebp]
  00087	89 46 0c	 mov	 DWORD PTR [esi+12], eax
  0008a	e8 00 00 00 00	 call	 ??1CLuaBase@@UAE@XZ	; CLuaBase::~CLuaBase
$LN1@LoadScript:
  0008f	8b 4d f4	 mov	 ecx, DWORD PTR __$EHRec$[ebp]
  00092	64 89 0d 00 00
	00 00		 mov	 DWORD PTR fs:0, ecx
  00099	59		 pop	 ecx
  0009a	5e		 pop	 esi
  0009b	8b e5		 mov	 esp, ebp
  0009d	5d		 pop	 ebp
  0009e	c3		 ret	 0
$LN9@LoadScript:

; 72   : 	{
; 73   : 		Error( "QuizEvent.lua Load Failed!!!" );

  0009f	68 00 00 00 00	 push	 OFFSET ??_C@_0BN@EBBMEDBP@QuizEvent?4lua?5Load?5Failed?$CB?$CB?$CB@
  000a4	e8 00 00 00 00	 call	 ?Error@@YAPBDPBDZZ	; Error
  000a9	83 c4 04	 add	 esp, 4

; 74   : 		exit(0);

  000ac	6a 00		 push	 0
  000ae	e8 00 00 00 00	 call	 _exit
$LN7@LoadScript:
  000b3	cc		 int	 3
_TEXT	ENDS
;	COMDAT text$x
text$x	SEGMENT
__unwindfunclet$?LoadScript@CQuiz@@QAEXXZ$0:
  00000	8d 4d ec	 lea	 ecx, DWORD PTR _Lua$[ebp]
  00003	e9 00 00 00 00	 jmp	 ??1CLuaBase@@UAE@XZ	; CLuaBase::~CLuaBase
  00008	cc		 int	 3
  00009	cc		 int	 3
  0000a	cc		 int	 3
  0000b	cc		 int	 3
  0000c	cc		 int	 3
__ehhandler$?LoadScript@CQuiz@@QAEXXZ:
  0000d	90		 npad	 1
  0000e	90		 npad	 1
  0000f	8b 54 24 08	 mov	 edx, DWORD PTR [esp+8]
  00013	8d 42 0c	 lea	 eax, DWORD PTR [edx+12]
  00016	8b 4a f0	 mov	 ecx, DWORD PTR [edx-16]
  00019	33 c8		 xor	 ecx, eax
  0001b	e8 00 00 00 00	 call	 @__security_check_cookie@4
  00020	b8 00 00 00 00	 mov	 eax, OFFSET __ehfuncinfo$?LoadScript@CQuiz@@QAEXXZ
  00025	e9 00 00 00 00	 jmp	 ___CxxFrameHandler3
text$x	ENDS
?LoadScript@CQuiz@@QAEXXZ ENDP				; CQuiz::LoadScript
; Function compile flags: /Ogtp
; File C:\IAGOS\server\v18\Source\Source\_Common\Quiz.cpp
; File C:\Program Files\Microsoft Visual Studio\2022\Professional\VC\Tools\MSVC\14.44.35207\include\vector
; File C:\IAGOS\server\v18\Source\Source\_Common\Quiz.cpp
; File C:\Program Files\Microsoft Visual Studio\2022\Professional\VC\Tools\MSVC\14.44.35207\include\vector
; File C:\IAGOS\server\v18\Source\Source\_Common\Quiz.cpp
;	COMDAT ?Clear@CQuiz@@QAEXXZ
_TEXT	SEGMENT
?Clear@CQuiz@@QAEXXZ PROC				; CQuiz::Clear, COMDAT
; _this$ = ecx
; File C:\Program Files\Microsoft Visual Studio\2022\Professional\VC\Tools\MSVC\14.44.35207\include\vector

; 1812 :         if (_Myfirst == _Mylast) { // already empty, nothing to do

  00000	8b 41 14	 mov	 eax, DWORD PTR [ecx+20]
; File C:\IAGOS\server\v18\Source\Source\_Common\Quiz.cpp

; 61   : {

  00003	56		 push	 esi

; 62   : 	m_vecQuizList.clear();

  00004	8d 71 14	 lea	 esi, DWORD PTR [ecx+20]
; File C:\Program Files\Microsoft Visual Studio\2022\Professional\VC\Tools\MSVC\14.44.35207\include\vector

; 1812 :         if (_Myfirst == _Mylast) { // already empty, nothing to do

  00007	8b 4e 04	 mov	 ecx, DWORD PTR [esi+4]
  0000a	3b c1		 cmp	 eax, ecx
  0000c	74 10		 je	 SHORT $LN3@Clear

; 1813 :             // This is an optimization for debug mode: we can avoid taking the debug lock to invalidate iterators.
; 1814 :             // Note that when clearing an empty vector, this will preserve past-the-end iterators, which is allowed by
; 1815 :             // N4950 [sequence.reqmts]/54 "a.clear() [...] may invalidate the past-the-end iterator".
; 1816 :             return;
; 1817 :         }
; 1818 : 
; 1819 :         _My_data._Orphan_all();
; 1820 :         _Destroy_range(_Myfirst, _Mylast, _Getal());

  0000e	56		 push	 esi
  0000f	51		 push	 ecx
  00010	50		 push	 eax
  00011	e8 00 00 00 00	 call	 ??$_Destroy_range@V?$allocator@U_QUIZLIST@CQuiz@@@std@@@std@@YAXPAU_QUIZLIST@CQuiz@@QAU12@AAV?$allocator@U_QUIZLIST@CQuiz@@@0@@Z ; std::_Destroy_range<std::allocator<CQuiz::_QUIZLIST> >

; 1821 :         _ASAN_VECTOR_MODIFY(static_cast<difference_type>(_Myfirst - _Mylast)); // negative when destroying elements
; 1822 :         _Mylast = _Myfirst;

  00016	8b 06		 mov	 eax, DWORD PTR [esi]
  00018	83 c4 0c	 add	 esp, 12			; 0000000cH
  0001b	89 46 04	 mov	 DWORD PTR [esi+4], eax
$LN3@Clear:
  0001e	5e		 pop	 esi
; File C:\IAGOS\server\v18\Source\Source\_Common\Quiz.cpp

; 63   : }

  0001f	c3		 ret	 0
?Clear@CQuiz@@QAEXXZ ENDP				; CQuiz::Clear
_TEXT	ENDS
; Function compile flags: /Ogtp
; File C:\IAGOS\server\v18\Source\Source\_Common\Quiz.cpp
;	COMDAT ?GetInstance@CQuiz@@SAPAV1@XZ
_TEXT	SEGMENT
?GetInstance@CQuiz@@SAPAV1@XZ PROC			; CQuiz::GetInstance, COMDAT

; 55   : 	static CQuiz sQuiz;

  00000	64 a1 00 00 00
	00		 mov	 eax, DWORD PTR fs:__tls_array
  00006	8b 0d 00 00 00
	00		 mov	 ecx, DWORD PTR __tls_index
  0000c	8b 0c 88	 mov	 ecx, DWORD PTR [eax+ecx*4]
  0000f	a1 00 00 00 00	 mov	 eax, DWORD PTR ?$TSS0@?1??GetInstance@CQuiz@@SAPAV2@XZ@4HA
  00014	3b 81 00 00 00
	00		 cmp	 eax, DWORD PTR __Init_thread_epoch[ecx]
  0001a	7f 06		 jg	 SHORT $LN8@GetInstanc
$LN5@GetInstanc:

; 56   : 	return & sQuiz;
; 57   : }

  0001c	b8 00 00 00 00	 mov	 eax, OFFSET ?sQuiz@?1??GetInstance@CQuiz@@SAPAV2@XZ@4V2@A
  00021	c3		 ret	 0
$LN8@GetInstanc:

; 55   : 	static CQuiz sQuiz;

  00022	68 00 00 00 00	 push	 OFFSET ?$TSS0@?1??GetInstance@CQuiz@@SAPAV2@XZ@4HA
  00027	e8 00 00 00 00	 call	 __Init_thread_header
  0002c	83 c4 04	 add	 esp, 4
  0002f	83 3d 00 00 00
	00 ff		 cmp	 DWORD PTR ?$TSS0@?1??GetInstance@CQuiz@@SAPAV2@XZ@4HA, -1
  00036	75 e4		 jne	 SHORT $LN5@GetInstanc
  00038	b9 00 00 00 00	 mov	 ecx, OFFSET ?sQuiz@?1??GetInstance@CQuiz@@SAPAV2@XZ@4V2@A
  0003d	e8 00 00 00 00	 call	 ??0CQuiz@@QAE@XZ	; CQuiz::CQuiz
  00042	68 00 00 00 00	 push	 OFFSET ??__FsQuiz@?1??GetInstance@CQuiz@@SAPAV1@XZ@YAXXZ ; `CQuiz::GetInstance'::`2'::`dynamic atexit destructor for 'sQuiz''
  00047	e8 00 00 00 00	 call	 _atexit
  0004c	68 00 00 00 00	 push	 OFFSET ?$TSS0@?1??GetInstance@CQuiz@@SAPAV2@XZ@4HA
  00051	e8 00 00 00 00	 call	 __Init_thread_footer
  00056	83 c4 08	 add	 esp, 8
  00059	eb c1		 jmp	 SHORT $LN5@GetInstanc
?GetInstance@CQuiz@@SAPAV1@XZ ENDP			; CQuiz::GetInstance
_TEXT	ENDS
; Function compile flags: /Ogtp
; File C:\IAGOS\server\v18\Source\Source\_Common\Quiz.cpp
;	COMDAT ??1CQuiz@@QAE@XZ
_TEXT	SEGMENT
??1CQuiz@@QAE@XZ PROC					; CQuiz::~CQuiz, COMDAT
; _this$ = ecx

; 41   : {

  00000	56		 push	 esi
  00001	8b f1		 mov	 esi, ecx

; 42   : #if defined(__DBSERVER) || defined(__WORLDSERVER)
; 43   : 	Clear();

  00003	e8 00 00 00 00	 call	 ?Clear@CQuiz@@QAEXXZ	; CQuiz::Clear

; 44   : #endif // defined(__DBSERVER) || defined(__WORLDSERVER)
; 45   : /*
; 46   : #if defined(__CLIENT) || defined(__WORLDSERVER)
; 47   : 	SAFE_DELETE( m_pVObj );
; 48   : 	SAFE_DELETE( m_pHObj );
; 49   : #endif // defined(__CLIENT) || defined(__WORLDSERVER)
; 50   : */
; 51   : }

  00008	8d 4e 14	 lea	 ecx, DWORD PTR [esi+20]
  0000b	5e		 pop	 esi
  0000c	e9 00 00 00 00	 jmp	 ??1?$vector@U_QUIZLIST@CQuiz@@V?$allocator@U_QUIZLIST@CQuiz@@@std@@@std@@QAE@XZ ; std::vector<CQuiz::_QUIZLIST,std::allocator<CQuiz::_QUIZLIST> >::~vector<CQuiz::_QUIZLIST,std::allocator<CQuiz::_QUIZLIST> >
??1CQuiz@@QAE@XZ ENDP					; CQuiz::~CQuiz
_TEXT	ENDS
; Function compile flags: /Ogtp
; File C:\IAGOS\server\v18\Source\Source\_Common\Quiz.cpp
; File C:\Program Files\Microsoft Visual Studio\2022\Professional\VC\Tools\MSVC\14.44.35207\include\vector
; File C:\IAGOS\server\v18\Source\Source\_Common\Quiz.cpp
;	COMDAT ??0CQuiz@@QAE@XZ
_TEXT	SEGMENT
_this$ = -4						; size = 4
??0CQuiz@@QAE@XZ PROC					; CQuiz::CQuiz, COMDAT
; _this$ = ecx

; 31   : {

  00000	55		 push	 ebp
  00001	8b ec		 mov	 ebp, esp
  00003	51		 push	 ecx

; 26   : :m_bAuto( FALSE ), m_bRun( FALSE ), m_nQuizSize( 0 )

  00004	c7 41 04 00 00
	00 00		 mov	 DWORD PTR [ecx+4], 0

; 38   : }

  0000b	8b c1		 mov	 eax, ecx
  0000d	c7 41 08 00 00
	00 00		 mov	 DWORD PTR [ecx+8], 0
  00014	c7 41 10 00 00
	00 00		 mov	 DWORD PTR [ecx+16], 0
  0001b	89 4d fc	 mov	 DWORD PTR _this$[ebp], ecx
; File C:\Program Files\Microsoft Visual Studio\2022\Professional\VC\Tools\MSVC\14.44.35207\include\vector

; 400  :     _CONSTEXPR20 _Vector_val() noexcept : _Myfirst(), _Mylast(), _Myend() {}

  0001e	c7 41 14 00 00
	00 00		 mov	 DWORD PTR [ecx+20], 0
  00025	c7 41 18 00 00
	00 00		 mov	 DWORD PTR [ecx+24], 0
  0002c	c7 41 1c 00 00
	00 00		 mov	 DWORD PTR [ecx+28], 0
; File C:\IAGOS\server\v18\Source\Source\_Common\Quiz.cpp

; 38   : }

  00033	8b e5		 mov	 esp, ebp
  00035	5d		 pop	 ebp
  00036	c3		 ret	 0
??0CQuiz@@QAE@XZ ENDP					; CQuiz::CQuiz
_TEXT	ENDS
; Function compile flags: /Ogtp
; File C:\Program Files\Microsoft Visual Studio\2022\Professional\VC\Tools\MSVC\14.44.35207\atlmfc\include\cstringt.h
; File C:\Program Files\Microsoft Visual Studio\2022\Professional\VC\Tools\MSVC\14.44.35207\atlmfc\include\atlsimpstr.h
; File C:\Program Files\Microsoft Visual Studio\2022\Professional\VC\Tools\MSVC\14.44.35207\atlmfc\include\cstringt.h
;	COMDAT ??1?$CStringT@DV?$StrTraitMFC@DV?$ChTraitsCRT@D@ATL@@@@@ATL@@QAE@XZ
_TEXT	SEGMENT
??1?$CStringT@DV?$StrTraitMFC@DV?$ChTraitsCRT@D@ATL@@@@@ATL@@QAE@XZ PROC ; ATL::CStringT<char,StrTraitMFC<char,ATL::ChTraitsCRT<char> > >::~CStringT<char,StrTraitMFC<char,ATL::ChTraitsCRT<char> > >, COMDAT
; _this$ = ecx
; File C:\Program Files\Microsoft Visual Studio\2022\Professional\VC\Tools\MSVC\14.44.35207\atlmfc\include\atlsimpstr.h

; 804  : 		return( reinterpret_cast< CStringData* >( m_pszData )-1 );

  00000	8b 11		 mov	 edx, DWORD PTR [ecx]

; 92   : 		if( _InterlockedDecrement( &nRefs ) <= 0 )

  00002	83 c8 ff	 or	 eax, -1

; 804  : 		return( reinterpret_cast< CStringData* >( m_pszData )-1 );

  00005	83 ea 10	 sub	 edx, 16			; 00000010H

; 92   : 		if( _InterlockedDecrement( &nRefs ) <= 0 )

  00008	f0 0f c1 42 0c	 lock	  xadd	 DWORD PTR [edx+12], eax
  0000d	48		 dec	 eax
  0000e	85 c0		 test	 eax, eax
  00010	7f 08		 jg	 SHORT $LN8@CStringT

; 93   : 		{
; 94   : 			pStringMgr->Free( this );

  00012	8b 0a		 mov	 ecx, DWORD PTR [edx]
  00014	52		 push	 edx
  00015	8b 01		 mov	 eax, DWORD PTR [ecx]
  00017	ff 50 04	 call	 DWORD PTR [eax+4]
$LN8@CStringT:
; File C:\Program Files\Microsoft Visual Studio\2022\Professional\VC\Tools\MSVC\14.44.35207\atlmfc\include\cstringt.h

; 1303 : 	}

  0001a	c3		 ret	 0
??1?$CStringT@DV?$StrTraitMFC@DV?$ChTraitsCRT@D@ATL@@@@@ATL@@QAE@XZ ENDP ; ATL::CStringT<char,StrTraitMFC<char,ATL::ChTraitsCRT<char> > >::~CStringT<char,StrTraitMFC<char,ATL::ChTraitsCRT<char> > >
_TEXT	ENDS
; Function compile flags: /Ogtp
; File C:\IAGOS\server\v18\Source\Source\_Common\Quiz.cpp
;	COMDAT ?__empty_global_delete@@YAXPAXI@Z
_TEXT	SEGMENT
___formal$ = 8						; size = 4
___formal$ = 12						; size = 4
?__empty_global_delete@@YAXPAXI@Z PROC			; __empty_global_delete, COMDAT

  00000	c2 00 00	 ret	 0
?__empty_global_delete@@YAXPAXI@Z ENDP			; __empty_global_delete
_TEXT	ENDS
; Function compile flags: /Ogtp
; File C:\IAGOS\server\v18\Source\Source\_Common\Quiz.cpp
;	COMDAT ?__empty_global_delete@@YAXPAX@Z
_TEXT	SEGMENT
___formal$ = 8						; size = 4
?__empty_global_delete@@YAXPAX@Z PROC			; __empty_global_delete, COMDAT

  00000	c2 00 00	 ret	 0
?__empty_global_delete@@YAXPAX@Z ENDP			; __empty_global_delete
_TEXT	ENDS
END
