; Listing generated by Microsoft (R) Optimizing Compiler Version 19.44.35225.0 

	TITLE	C:\IAGOS\server\v18\Source\Output\DatabaseServer\Release\QuizDBCtrl.obj
	.686P
	.XMM
	include listing.inc
	.model	flat

INCLUDELIB LIBCMT
INCLUDELIB OLDNAMES

PUBLIC	?__empty_global_delete@@YAXPAX@Z		; __empty_global_delete
PUBLIC	?__empty_global_delete@@YAXPAXI@Z		; __empty_global_delete
PUBLIC	___local_stdio_printf_options
PUBLIC	_sprintf
PUBLIC	?AtlThrowImpl@ATL@@YGXJ@Z			; ATL::AtlThrowImpl
PUBLIC	?SetString@?$CSimpleStringT@D$0A@@ATL@@QAEXPBDH@Z ; ATL::CSimpleStringT<char,0>::SetString
PUBLIC	?ThrowMemoryException@?$CSimpleStringT@D$0A@@ATL@@KAXXZ ; ATL::CSimpleStringT<char,0>::ThrowMemoryException
PUBLIC	?Fork@?$CSimpleStringT@D$0A@@ATL@@AAEXH@Z	; ATL::CSimpleStringT<char,0>::Fork
PUBLIC	?PrepareWrite2@?$CSimpleStringT@D$0A@@ATL@@AAEXH@Z ; ATL::CSimpleStringT<char,0>::PrepareWrite2
PUBLIC	?Reallocate@?$CSimpleStringT@D$0A@@ATL@@AAEXH@Z	; ATL::CSimpleStringT<char,0>::Reallocate
PUBLIC	??0?$CStringT@DV?$StrTraitMFC@DV?$ChTraitsCRT@D@ATL@@@@@ATL@@QAE@ABV01@@Z ; ATL::CStringT<char,StrTraitMFC<char,ATL::ChTraitsCRT<char> > >::CStringT<char,StrTraitMFC<char,ATL::ChTraitsCRT<char> > >
PUBLIC	??1?$CStringT@DV?$StrTraitMFC@DV?$ChTraitsCRT@D@ATL@@@@@ATL@@QAE@XZ ; ATL::CStringT<char,StrTraitMFC<char,ATL::ChTraitsCRT<char> > >::~CStringT<char,StrTraitMFC<char,ATL::ChTraitsCRT<char> > >
PUBLIC	??0exception@std@@QAE@ABV01@@Z			; std::exception::exception
PUBLIC	??1exception@std@@UAE@XZ			; std::exception::~exception
PUBLIC	?what@exception@std@@UBEPBDXZ			; std::exception::what
PUBLIC	??_Gexception@std@@UAEPAXI@Z			; std::exception::`scalar deleting destructor'
PUBLIC	??0bad_alloc@std@@QAE@ABV01@@Z			; std::bad_alloc::bad_alloc
PUBLIC	??_Gbad_alloc@std@@UAEPAXI@Z			; std::bad_alloc::`scalar deleting destructor'
PUBLIC	??0bad_array_new_length@std@@QAE@XZ		; std::bad_array_new_length::bad_array_new_length
PUBLIC	??1bad_array_new_length@std@@UAE@XZ		; std::bad_array_new_length::~bad_array_new_length
PUBLIC	??0bad_array_new_length@std@@QAE@ABV01@@Z	; std::bad_array_new_length::bad_array_new_length
PUBLIC	??_Gbad_array_new_length@std@@UAEPAXI@Z		; std::bad_array_new_length::`scalar deleting destructor'
PUBLIC	?_Throw_bad_array_new_length@std@@YAXXZ		; std::_Throw_bad_array_new_length
PUBLIC	?_Throw_tree_length_error@std@@YAXXZ		; std::_Throw_tree_length_error
PUBLIC	??$_Allocate_manually_vector_aligned@U_Default_allocate_traits@std@@@std@@YAPAXI@Z ; std::_Allocate_manually_vector_aligned<std::_Default_allocate_traits>
PUBLIC	??0CQuizDBCtrl@@QAE@XZ				; CQuizDBCtrl::CQuizDBCtrl
PUBLIC	??1CQuizDBCtrl@@UAE@XZ				; CQuizDBCtrl::~CQuizDBCtrl
PUBLIC	?Handler@CQuizDBCtrl@@UAEXPAUtagDB_OVERLAPPED_PLUS@@K@Z ; CQuizDBCtrl::Handler
PUBLIC	?OnTimer@CQuizDBCtrl@@UAEXXZ			; CQuizDBCtrl::OnTimer
PUBLIC	?LoadQuizEventId@CQuizDBCtrl@@QAEHXZ		; CQuizDBCtrl::LoadQuizEventId
PUBLIC	?InitWorldData@CQuizDBCtrl@@AAEXKHH@Z		; CQuizDBCtrl::InitWorldData
PUBLIC	?DeleteWorldData@CQuizDBCtrl@@AAEXKH@Z		; CQuizDBCtrl::DeleteWorldData
PUBLIC	?GetWorldData@CQuizDBCtrl@@AAEPAU_WORLDDATA@1@K@Z ; CQuizDBCtrl::GetWorldData
PUBLIC	?SetState@CQuizDBCtrl@@AAEXKH@Z			; CQuizDBCtrl::SetState
PUBLIC	?GetQuizEventId@CQuizDBCtrl@@AAEHK@Z		; CQuizDBCtrl::GetQuizEventId
PUBLIC	?InsertQuizEvent@CQuizDBCtrl@@AAEXKH@Z		; CQuizDBCtrl::InsertQuizEvent
PUBLIC	?UpdateQuizEvent@CQuizDBCtrl@@AAEXKHHH@Z	; CQuizDBCtrl::UpdateQuizEvent
PUBLIC	?LoadQuizList@CQuizDBCtrl@@AAEXK@Z		; CQuizDBCtrl::LoadQuizList
PUBLIC	?EntranceQuizEvent@CQuizDBCtrl@@AAEXKKH@Z	; CQuizDBCtrl::EntranceQuizEvent
PUBLIC	?SelectQuizExample@CQuizDBCtrl@@AAEXKKHHHH@Z	; CQuizDBCtrl::SelectQuizExample
PUBLIC	?PostPrizeItem@CQuizDBCtrl@@AAEXKKH@Z		; CQuizDBCtrl::PostPrizeItem
PUBLIC	??1?$_Tree@V?$_Tmap_traits@KU_WORLDDATA@CQuizDBCtrl@@U?$less@K@std@@V?$allocator@U?$pair@$$CBKU_WORLDDATA@CQuizDBCtrl@@@std@@@4@$0A@@std@@@std@@QAE@XZ ; std::_Tree<std::_Tmap_traits<unsigned long,CQuizDBCtrl::_WORLDDATA,std::less<unsigned long>,std::allocator<std::pair<unsigned long const ,CQuizDBCtrl::_WORLDDATA> >,0> >::~_Tree<std::_Tmap_traits<unsigned long,CQuizDBCtrl::_WORLDDATA,std::less<unsigned long>,std::allocator<std::pair<unsigned long const ,CQuizDBCtrl::_WORLDDATA> >,0> >
PUBLIC	?_Lrotate@?$_Tree_val@U?$_Tree_simple_types@U?$pair@$$CBKU_WORLDDATA@CQuizDBCtrl@@@std@@@std@@@std@@QAEXPAU?$_Tree_node@U?$pair@$$CBKU_WORLDDATA@CQuizDBCtrl@@@std@@PAX@2@@Z ; std::_Tree_val<std::_Tree_simple_types<std::pair<unsigned long const ,CQuizDBCtrl::_WORLDDATA> > >::_Lrotate
PUBLIC	?_Rrotate@?$_Tree_val@U?$_Tree_simple_types@U?$pair@$$CBKU_WORLDDATA@CQuizDBCtrl@@@std@@@std@@@std@@QAEXPAU?$_Tree_node@U?$pair@$$CBKU_WORLDDATA@CQuizDBCtrl@@@std@@PAX@2@@Z ; std::_Tree_val<std::_Tree_simple_types<std::pair<unsigned long const ,CQuizDBCtrl::_WORLDDATA> > >::_Rrotate
PUBLIC	?_Extract@?$_Tree_val@U?$_Tree_simple_types@U?$pair@$$CBKU_WORLDDATA@CQuizDBCtrl@@@std@@@std@@@std@@QAEPAU?$_Tree_node@U?$pair@$$CBKU_WORLDDATA@CQuizDBCtrl@@@std@@PAX@2@V?$_Tree_unchecked_const_iterator@V?$_Tree_val@U?$_Tree_simple_types@U?$pair@$$CBKU_WORLDDATA@CQuizDBCtrl@@@std@@@std@@@std@@U_Iterator_base0@2@@2@@Z ; std::_Tree_val<std::_Tree_simple_types<std::pair<unsigned long const ,CQuizDBCtrl::_WORLDDATA> > >::_Extract
PUBLIC	?_Insert_node@?$_Tree_val@U?$_Tree_simple_types@U?$pair@$$CBKU_WORLDDATA@CQuizDBCtrl@@@std@@@std@@@std@@QAEPAU?$_Tree_node@U?$pair@$$CBKU_WORLDDATA@CQuizDBCtrl@@@std@@PAX@2@U?$_Tree_id@PAU?$_Tree_node@U?$pair@$$CBKU_WORLDDATA@CQuizDBCtrl@@@std@@PAX@std@@@2@QAU32@@Z ; std::_Tree_val<std::_Tree_simple_types<std::pair<unsigned long const ,CQuizDBCtrl::_WORLDDATA> > >::_Insert_node
PUBLIC	??_GCQuizDBCtrl@@UAEPAXI@Z			; CQuizDBCtrl::`scalar deleting destructor'
PUBLIC	??0CQuizDBMng@@QAE@XZ				; CQuizDBMng::CQuizDBMng
PUBLIC	??1CQuizDBMng@@QAE@XZ				; CQuizDBMng::~CQuizDBMng
PUBLIC	?GetInstance@CQuizDBMng@@SAPAV1@XZ		; CQuizDBMng::GetInstance
PUBLIC	?InitQuizEventId@CQuizDBMng@@QAEHXZ		; CQuizDBMng::InitQuizEventId
PUBLIC	?CreateLogQuery@CQuizDBMng@@QAEPAVCQuery@@XZ	; CQuizDBMng::CreateLogQuery
PUBLIC	??$?5H@CAr@@QAEAAV0@AAH@Z			; CAr::operator>><int>
PUBLIC	??$?5K@CAr@@QAEAAV0@AAK@Z			; CAr::operator>><unsigned long>
PUBLIC	??1_QUIZLIST@CQuiz@@QAE@XZ			; CQuiz::_QUIZLIST::~_QUIZLIST
PUBLIC	?_Xlength@?$vector@U_QUIZLIST@CQuiz@@V?$allocator@U_QUIZLIST@CQuiz@@@std@@@std@@CAXXZ ; std::vector<CQuiz::_QUIZLIST,std::allocator<CQuiz::_QUIZLIST> >::_Xlength
PUBLIC	??E?$_Tree_unchecked_const_iterator@V?$_Tree_val@U?$_Tree_simple_types@U?$pair@$$CBKU_WORLDDATA@CQuizDBCtrl@@@std@@@std@@@std@@U_Iterator_base0@2@@std@@QAEAAV01@XZ ; std::_Tree_unchecked_const_iterator<std::_Tree_val<std::_Tree_simple_types<std::pair<unsigned long const ,CQuizDBCtrl::_WORLDDATA> > >,std::_Iterator_base0>::operator++
PUBLIC	??$_Destroy_range@V?$allocator@U_QUIZLIST@CQuiz@@@std@@@std@@YAXPAU_QUIZLIST@CQuiz@@QAU12@AAV?$allocator@U_QUIZLIST@CQuiz@@@0@@Z ; std::_Destroy_range<std::allocator<CQuiz::_QUIZLIST> >
PUBLIC	??$_Erase_tree@V?$allocator@U?$_Tree_node@U?$pair@$$CBKU_WORLDDATA@CQuizDBCtrl@@@std@@PAX@std@@@std@@@?$_Tree_val@U?$_Tree_simple_types@U?$pair@$$CBKU_WORLDDATA@CQuizDBCtrl@@@std@@@std@@@std@@QAEXAAV?$allocator@U?$_Tree_node@U?$pair@$$CBKU_WORLDDATA@CQuizDBCtrl@@@std@@PAX@std@@@1@PAU?$_Tree_node@U?$pair@$$CBKU_WORLDDATA@CQuizDBCtrl@@@std@@PAX@1@@Z ; std::_Tree_val<std::_Tree_simple_types<std::pair<unsigned long const ,CQuizDBCtrl::_WORLDDATA> > >::_Erase_tree<std::allocator<std::_Tree_node<std::pair<unsigned long const ,CQuizDBCtrl::_WORLDDATA>,void *> > >
PUBLIC	??$_Find_lower_bound@K@?$_Tree@V?$_Tmap_traits@KU_WORLDDATA@CQuizDBCtrl@@U?$less@K@std@@V?$allocator@U?$pair@$$CBKU_WORLDDATA@CQuizDBCtrl@@@std@@@4@$0A@@std@@@std@@IBE?AU?$_Tree_find_result@PAU?$_Tree_node@U?$pair@$$CBKU_WORLDDATA@CQuizDBCtrl@@@std@@PAX@std@@@1@ABK@Z ; std::_Tree<std::_Tmap_traits<unsigned long,CQuizDBCtrl::_WORLDDATA,std::less<unsigned long>,std::allocator<std::pair<unsigned long const ,CQuizDBCtrl::_WORLDDATA> >,0> >::_Find_lower_bound<unsigned long>
PUBLIC	??1?$_Alloc_construct_ptr@V?$allocator@U?$_Tree_node@U?$pair@$$CBKU_WORLDDATA@CQuizDBCtrl@@@std@@PAX@std@@@std@@@std@@QAE@XZ ; std::_Alloc_construct_ptr<std::allocator<std::_Tree_node<std::pair<unsigned long const ,CQuizDBCtrl::_WORLDDATA>,void *> > >::~_Alloc_construct_ptr<std::allocator<std::_Tree_node<std::pair<unsigned long const ,CQuizDBCtrl::_WORLDDATA>,void *> > >
PUBLIC	??$_Emplace_reallocate@ABU_QUIZLIST@CQuiz@@@?$vector@U_QUIZLIST@CQuiz@@V?$allocator@U_QUIZLIST@CQuiz@@@std@@@std@@AAEPAU_QUIZLIST@CQuiz@@QAU23@ABU23@@Z ; std::vector<CQuiz::_QUIZLIST,std::allocator<CQuiz::_QUIZLIST> >::_Emplace_reallocate<CQuiz::_QUIZLIST const &>
PUBLIC	??1_Reallocation_guard@?$vector@U_QUIZLIST@CQuiz@@V?$allocator@U_QUIZLIST@CQuiz@@@std@@@std@@QAE@XZ ; std::vector<CQuiz::_QUIZLIST,std::allocator<CQuiz::_QUIZLIST> >::_Reallocation_guard::~_Reallocation_guard
PUBLIC	??$_Uninitialized_move@PAU_QUIZLIST@CQuiz@@V?$allocator@U_QUIZLIST@CQuiz@@@std@@@std@@YAPAU_QUIZLIST@CQuiz@@QAU12@0PAU12@AAV?$allocator@U_QUIZLIST@CQuiz@@@0@@Z ; std::_Uninitialized_move<CQuiz::_QUIZLIST *,std::allocator<CQuiz::_QUIZLIST> >
PUBLIC	??1?$_Uninitialized_backout_al@V?$allocator@U_QUIZLIST@CQuiz@@@std@@@std@@QAE@XZ ; std::_Uninitialized_backout_al<std::allocator<CQuiz::_QUIZLIST> >::~_Uninitialized_backout_al<std::allocator<CQuiz::_QUIZLIST> >
PUBLIC	?_OptionsStorage@?1??__local_stdio_printf_options@@9@4_KA ; `__local_stdio_printf_options'::`2'::_OptionsStorage
PUBLIC	??_C@_00CNPNBAHC@@				; `string'
PUBLIC	??_7exception@std@@6B@				; std::exception::`vftable'
PUBLIC	??_C@_0BC@EOODALEL@Unknown?5exception@		; `string'
PUBLIC	??_7bad_alloc@std@@6B@				; std::bad_alloc::`vftable'
PUBLIC	??_7bad_array_new_length@std@@6B@		; std::bad_array_new_length::`vftable'
PUBLIC	??_C@_0BF@KINCDENJ@bad?5array?5new?5length@	; `string'
PUBLIC	??_R0?AVexception@std@@@8			; std::exception `RTTI Type Descriptor'
PUBLIC	__CT??_R0?AVexception@std@@@8??0exception@std@@QAE@ABV01@@Z12
PUBLIC	__TI3?AVbad_array_new_length@std@@
PUBLIC	__CTA3?AVbad_array_new_length@std@@
PUBLIC	??_R0?AVbad_array_new_length@std@@@8		; std::bad_array_new_length `RTTI Type Descriptor'
PUBLIC	__CT??_R0?AVbad_array_new_length@std@@@8??0bad_array_new_length@std@@QAE@ABV01@@Z12
PUBLIC	??_R0?AVbad_alloc@std@@@8			; std::bad_alloc `RTTI Type Descriptor'
PUBLIC	__CT??_R0?AVbad_alloc@std@@@8??0bad_alloc@std@@QAE@ABV01@@Z12
PUBLIC	??_C@_0BB@GCADKGJO@map?1set?5too?5long@		; `string'
PUBLIC	??_C@_09GBAEEKDE@?$CFs?0?5?$CFd?7?$CFs@		; `string'
PUBLIC	??_C@_0BA@FOIKENOD@vector?5too?5long@		; `string'
PUBLIC	??_R4exception@std@@6B@				; std::exception::`RTTI Complete Object Locator'
PUBLIC	??_R3exception@std@@8				; std::exception::`RTTI Class Hierarchy Descriptor'
PUBLIC	??_R2exception@std@@8				; std::exception::`RTTI Base Class Array'
PUBLIC	??_R1A@?0A@EA@exception@std@@8			; std::exception::`RTTI Base Class Descriptor at (0,-1,0,64)'
PUBLIC	??_R4bad_array_new_length@std@@6B@		; std::bad_array_new_length::`RTTI Complete Object Locator'
PUBLIC	??_R3bad_array_new_length@std@@8		; std::bad_array_new_length::`RTTI Class Hierarchy Descriptor'
PUBLIC	??_R2bad_array_new_length@std@@8		; std::bad_array_new_length::`RTTI Base Class Array'
PUBLIC	??_R1A@?0A@EA@bad_array_new_length@std@@8	; std::bad_array_new_length::`RTTI Base Class Descriptor at (0,-1,0,64)'
PUBLIC	??_R1A@?0A@EA@bad_alloc@std@@8			; std::bad_alloc::`RTTI Base Class Descriptor at (0,-1,0,64)'
PUBLIC	??_R3bad_alloc@std@@8				; std::bad_alloc::`RTTI Class Hierarchy Descriptor'
PUBLIC	??_R2bad_alloc@std@@8				; std::bad_alloc::`RTTI Base Class Array'
PUBLIC	??_R4bad_alloc@std@@6B@				; std::bad_alloc::`RTTI Complete Object Locator'
PUBLIC	??_7CQuizDBCtrl@@6B@				; CQuizDBCtrl::`vftable'
PUBLIC	??_C@_0DJ@FAECAJIA@usp_Quiz_Update?5?$EAserverindex?5?$DN?5@ ; `string'
PUBLIC	??_C@_0EA@POJBDFAK@C?3?2IAGOS?2server?2v18?2Source?2Sour@ ; `string'
PUBLIC	??_C@_0CI@FLDMMNNC@usp_QuizID_Select?5?$EAserverindex?5@ ; `string'
PUBLIC	??_C@_06MHCADHHK@QuizID@			; `string'
PUBLIC	??_C@_0FN@CPHHLGOP@usp_QuizLog_Insert?5?$EAidQuizEvent@ ; `string'
PUBLIC	??_C@_0HC@EIMMABOA@usp_QuizLog_Update?5?$EAidQuizEvent@ ; `string'
PUBLIC	??_C@_0DH@POLKCAKJ@usp_Quiz_Load?5?$EAserverindex?5?$DN?5?8?$CF@ ; `string'
PUBLIC	??_C@_08PALOFDJJ@m_nIndex@			; `string'
PUBLIC	??_C@_09JLOLCEAF@m_nAnswer@			; `string'
PUBLIC	??_C@_0N@FGDIAFNN@m_szQuestion@			; `string'
PUBLIC	??_C@_06FKNLKGFE@m_Item@			; `string'
PUBLIC	??_C@_0M@KDEONCPF@m_ItemCount@			; `string'
PUBLIC	??_C@_0GK@INLLFENK@usp_QuizUserLog_Insert?5?$EAm_idQui@ ; `string'
PUBLIC	??_C@_0KA@MEAEOFMI@usp_QuizAnswerLog_Insert?5?$EAm_idQ@ ; `string'
PUBLIC	??_C@_0CM@LINHPGHC@CQuizDBMng?5?9?5m_QuizDBCtrl?4Creat@ ; `string'
PUBLIC	??_C@_0CN@JDPLLBGJ@Can?8t?5connect?5db?3?5CQuizDBCtrl?4C@ ; `string'
PUBLIC	??_R4CQuizDBCtrl@@6B@				; CQuizDBCtrl::`RTTI Complete Object Locator'
PUBLIC	??_R0?AVCQuizDBCtrl@@@8				; CQuizDBCtrl `RTTI Type Descriptor'
PUBLIC	??_R3CQuizDBCtrl@@8				; CQuizDBCtrl::`RTTI Class Hierarchy Descriptor'
PUBLIC	??_R2CQuizDBCtrl@@8				; CQuizDBCtrl::`RTTI Base Class Array'
PUBLIC	??_R1A@?0A@EA@CQuizDBCtrl@@8			; CQuizDBCtrl::`RTTI Base Class Descriptor at (0,-1,0,64)'
PUBLIC	??_R1A@?0A@EA@CDbController@@8			; CDbController::`RTTI Base Class Descriptor at (0,-1,0,64)'
PUBLIC	??_R0?AVCDbController@@@8			; CDbController `RTTI Type Descriptor'
PUBLIC	??_R3CDbController@@8				; CDbController::`RTTI Class Hierarchy Descriptor'
PUBLIC	??_R2CDbController@@8				; CDbController::`RTTI Base Class Array'
EXTRN	??2@YAPAXI@Z:PROC				; operator new
EXTRN	??3@YAXPAXI@Z:PROC				; operator delete
EXTRN	_atexit:PROC
EXTRN	__Init_thread_header:PROC
EXTRN	__Init_thread_abort:PROC
EXTRN	__Init_thread_footer:PROC
EXTRN	__invalid_parameter_noinfo:PROC
EXTRN	__invoke_watson:PROC
EXTRN	__errno:PROC
EXTRN	__imp__GetTickCount@0:PROC
EXTRN	___stdio_common_vsprintf:PROC
EXTRN	__time32:PROC
EXTRN	?AfxThrowMemoryException@@YGXXZ:PROC		; AfxThrowMemoryException
EXTRN	?AfxThrowOleException@@YGXJ@Z:PROC		; AfxThrowOleException
EXTRN	?AfxGetStringManager@@YGPAUIAtlStringMgr@ATL@@XZ:PROC ; AfxGetStringManager
EXTRN	?AfxMessageBox@@YGHPBDII@Z:PROC			; AfxMessageBox
EXTRN	?_Xlength_error@std@@YAXPBD@Z:PROC		; std::_Xlength_error
EXTRN	___std_exception_copy:PROC
EXTRN	___std_exception_destroy:PROC
EXTRN	??_Eexception@std@@UAEPAXI@Z:PROC		; std::exception::`vector deleting destructor'
EXTRN	??_Ebad_alloc@std@@UAEPAXI@Z:PROC		; std::bad_alloc::`vector deleting destructor'
EXTRN	??_Ebad_array_new_length@std@@UAEPAXI@Z:PROC	; std::bad_array_new_length::`vector deleting destructor'
EXTRN	?Error@@YAPBDPBDZZ:PROC				; Error
EXTRN	?WriteLog@@YAXPBDZZ:PROC			; WriteLog
EXTRN	??0CQuery@@QAE@XZ:PROC				; CQuery::CQuery
EXTRN	??1CQuery@@QAE@XZ:PROC				; CQuery::~CQuery
EXTRN	?Connect@CQuery@@QAEHHPAD0PBD@Z:PROC		; CQuery::Connect
EXTRN	?Exec@CQuery@@QAEHPBD@Z:PROC			; CQuery::Exec
EXTRN	?Fetch@CQuery@@QAEHXZ:PROC			; CQuery::Fetch
EXTRN	?GetInt@CQuery@@QAEHPAD@Z:PROC			; CQuery::GetInt
EXTRN	?GetStr@CQuery@@QAEXPAD0@Z:PROC			; CQuery::GetStr
EXTRN	??0CAr@@QAE@PAXI@Z:PROC				; CAr::CAr
EXTRN	??1CAr@@QAE@XZ:PROC				; CAr::~CAr
EXTRN	??0CItemElem@@QAE@XZ:PROC			; CItemElem::CItemElem
EXTRN	?GetInstance@CDbManager@@SAAAV1@XZ:PROC		; CDbManager::GetInstance
EXTRN	??0CDbController@@QAE@XZ:PROC			; CDbController::CDbController
EXTRN	??1CDbController@@UAE@XZ:PROC			; CDbController::~CDbController
EXTRN	?CreateDbHandler@CDbController@@QAEHK@Z:PROC	; CDbController::CreateDbHandler
EXTRN	?CloseDbHandler@CDbController@@QAEXXZ:PROC	; CDbController::CloseDbHandler
EXTRN	?Post@post@@YAXKPAVCMail@@PAVCQuery@@@Z:PROC	; post::Post
EXTRN	??_ECQuizDBCtrl@@UAEPAXI@Z:PROC			; CQuizDBCtrl::`vector deleting destructor'
EXTRN	?GetInstance@CQuiz@@SAPAV1@XZ:PROC		; CQuiz::GetInstance
EXTRN	?GetInstance@CDPTrans@@SAPAV1@XZ:PROC		; CDPTrans::GetInstance
EXTRN	?SendQuizEventOpen@CDPTrans@@QAEXK@Z:PROC	; CDPTrans::SendQuizEventOpen
EXTRN	?SendQuizList@CDPTrans@@QAEXKAAU_QUIZLIST@CQuiz@@H@Z:PROC ; CDPTrans::SendQuizList
EXTRN	?SendQuizEventNotice@CDPTrans@@QAEXK@Z:PROC	; CDPTrans::SendQuizEventNotice
EXTRN	??0CMail@@QAE@XZ:PROC				; CMail::CMail
EXTRN	@__security_check_cookie@4:PROC
EXTRN	__CxxThrowException@8:PROC
EXTRN	___CxxFrameHandler3:PROC
EXTRN	__chkstk:PROC
EXTRN	_memcpy:PROC
EXTRN	_memmove:PROC
EXTRN	_memset:PROC
EXTRN	__Init_thread_epoch:DWORD
EXTRN	??_7type_info@@6B@:QWORD			; type_info::`vftable'
EXTRN	?g_next@@3KA:DWORD				; g_next
EXTRN	?prj@@3VCProject@@A:BYTE			; prj
EXTRN	?DSN_NAME_LOG@@3PADA:BYTE			; DSN_NAME_LOG
EXTRN	?DB_ADMIN_ID_LOG@@3PADA:BYTE			; DB_ADMIN_ID_LOG
EXTRN	?g_appInfo@@3UAppInfo@@A:QWORD			; g_appInfo
EXTRN	___security_cookie:DWORD
EXTRN	__tls_array:DWORD
EXTRN	__tls_index:DWORD
;	COMDAT ?_OptionsStorage@?1??__local_stdio_printf_options@@9@4_KA
_BSS	SEGMENT
?_OptionsStorage@?1??__local_stdio_printf_options@@9@4_KA DQ 01H DUP (?) ; `__local_stdio_printf_options'::`2'::_OptionsStorage
_BSS	ENDS
;	COMDAT ?sQuizDBMng@?1??GetInstance@CQuizDBMng@@SAPAV2@XZ@4V2@A
_BSS	SEGMENT
?sQuizDBMng@?1??GetInstance@CQuizDBMng@@SAPAV2@XZ@4V2@A DB 028H DUP (?) ; `CQuizDBMng::GetInstance'::`2'::sQuizDBMng
_BSS	ENDS
;	COMDAT ?$TSS0@?1??GetInstance@CQuizDBMng@@SAPAV2@XZ@4HA
_BSS	SEGMENT
?$TSS0@?1??GetInstance@CQuizDBMng@@SAPAV2@XZ@4HA DD 01H DUP (?) ; `CQuizDBMng::GetInstance'::`2'::$TSS0
_BSS	ENDS
;	COMDAT ??_R2CDbController@@8
rdata$r	SEGMENT
??_R2CDbController@@8 DD FLAT:??_R1A@?0A@EA@CDbController@@8 ; CDbController::`RTTI Base Class Array'
rdata$r	ENDS
;	COMDAT ??_R3CDbController@@8
rdata$r	SEGMENT
??_R3CDbController@@8 DD 00H				; CDbController::`RTTI Class Hierarchy Descriptor'
	DD	00H
	DD	01H
	DD	FLAT:??_R2CDbController@@8
rdata$r	ENDS
;	COMDAT ??_R0?AVCDbController@@@8
data$rs	SEGMENT
??_R0?AVCDbController@@@8 DD FLAT:??_7type_info@@6B@	; CDbController `RTTI Type Descriptor'
	DD	00H
	DB	'.?AVCDbController@@', 00H
data$rs	ENDS
;	COMDAT ??_R1A@?0A@EA@CDbController@@8
rdata$r	SEGMENT
??_R1A@?0A@EA@CDbController@@8 DD FLAT:??_R0?AVCDbController@@@8 ; CDbController::`RTTI Base Class Descriptor at (0,-1,0,64)'
	DD	00H
	DD	00H
	DD	0ffffffffH
	DD	00H
	DD	040H
	DD	FLAT:??_R3CDbController@@8
rdata$r	ENDS
;	COMDAT ??_R1A@?0A@EA@CQuizDBCtrl@@8
rdata$r	SEGMENT
??_R1A@?0A@EA@CQuizDBCtrl@@8 DD FLAT:??_R0?AVCQuizDBCtrl@@@8 ; CQuizDBCtrl::`RTTI Base Class Descriptor at (0,-1,0,64)'
	DD	01H
	DD	00H
	DD	0ffffffffH
	DD	00H
	DD	040H
	DD	FLAT:??_R3CQuizDBCtrl@@8
rdata$r	ENDS
;	COMDAT ??_R2CQuizDBCtrl@@8
rdata$r	SEGMENT
??_R2CQuizDBCtrl@@8 DD FLAT:??_R1A@?0A@EA@CQuizDBCtrl@@8 ; CQuizDBCtrl::`RTTI Base Class Array'
	DD	FLAT:??_R1A@?0A@EA@CDbController@@8
rdata$r	ENDS
;	COMDAT ??_R3CQuizDBCtrl@@8
rdata$r	SEGMENT
??_R3CQuizDBCtrl@@8 DD 00H				; CQuizDBCtrl::`RTTI Class Hierarchy Descriptor'
	DD	00H
	DD	02H
	DD	FLAT:??_R2CQuizDBCtrl@@8
rdata$r	ENDS
;	COMDAT ??_R0?AVCQuizDBCtrl@@@8
data$rs	SEGMENT
??_R0?AVCQuizDBCtrl@@@8 DD FLAT:??_7type_info@@6B@	; CQuizDBCtrl `RTTI Type Descriptor'
	DD	00H
	DB	'.?AVCQuizDBCtrl@@', 00H
data$rs	ENDS
;	COMDAT ??_R4CQuizDBCtrl@@6B@
rdata$r	SEGMENT
??_R4CQuizDBCtrl@@6B@ DD 00H				; CQuizDBCtrl::`RTTI Complete Object Locator'
	DD	00H
	DD	00H
	DD	FLAT:??_R0?AVCQuizDBCtrl@@@8
	DD	FLAT:??_R3CQuizDBCtrl@@8
rdata$r	ENDS
;	COMDAT ??_C@_0CN@JDPLLBGJ@Can?8t?5connect?5db?3?5CQuizDBCtrl?4C@
CONST	SEGMENT
??_C@_0CN@JDPLLBGJ@Can?8t?5connect?5db?3?5CQuizDBCtrl?4C@ DB 'Can''t conn'
	DB	'ect db: CQuizDBCtrl.CreateLogQuery', 00H	; `string'
CONST	ENDS
;	COMDAT ??_C@_0CM@LINHPGHC@CQuizDBMng?5?9?5m_QuizDBCtrl?4Creat@
CONST	SEGMENT
??_C@_0CM@LINHPGHC@CQuizDBMng?5?9?5m_QuizDBCtrl?4Creat@ DB 'CQuizDBMng - '
	DB	'm_QuizDBCtrl.CreateDbHandler()', 00H	; `string'
CONST	ENDS
;	COMDAT ??_C@_0KA@MEAEOFMI@usp_QuizAnswerLog_Insert?5?$EAm_idQ@
CONST	SEGMENT
??_C@_0KA@MEAEOFMI@usp_QuizAnswerLog_Insert?5?$EAm_idQ@ DB 'usp_QuizAnswe'
	DB	'rLog_Insert @m_idQuizEvent = %d, @m_idPlayer = ''%07d'', @ser'
	DB	'verindex = ''%02d'', @m_nChannel = %d, @m_nQuizNum = %d, @m_n'
	DB	'Select = %d, @m_nAnswer = %d', 00H		; `string'
CONST	ENDS
;	COMDAT ??_C@_0GK@INLLFENK@usp_QuizUserLog_Insert?5?$EAm_idQui@
CONST	SEGMENT
??_C@_0GK@INLLFENK@usp_QuizUserLog_Insert?5?$EAm_idQui@ DB 'usp_QuizUserL'
	DB	'og_Insert @m_idQuizEvent = %d, @m_idPlayer = ''%07d'', @serve'
	DB	'rindex = ''%02d'', @m_nChannel = %d', 00H	; `string'
CONST	ENDS
;	COMDAT ??_C@_0M@KDEONCPF@m_ItemCount@
CONST	SEGMENT
??_C@_0M@KDEONCPF@m_ItemCount@ DB 'm_ItemCount', 00H	; `string'
CONST	ENDS
;	COMDAT ??_C@_06FKNLKGFE@m_Item@
CONST	SEGMENT
??_C@_06FKNLKGFE@m_Item@ DB 'm_Item', 00H		; `string'
CONST	ENDS
;	COMDAT ??_C@_0N@FGDIAFNN@m_szQuestion@
CONST	SEGMENT
??_C@_0N@FGDIAFNN@m_szQuestion@ DB 'm_szQuestion', 00H	; `string'
CONST	ENDS
;	COMDAT ??_C@_09JLOLCEAF@m_nAnswer@
CONST	SEGMENT
??_C@_09JLOLCEAF@m_nAnswer@ DB 'm_nAnswer', 00H		; `string'
CONST	ENDS
;	COMDAT ??_C@_08PALOFDJJ@m_nIndex@
CONST	SEGMENT
??_C@_08PALOFDJJ@m_nIndex@ DB 'm_nIndex', 00H		; `string'
CONST	ENDS
;	COMDAT ??_C@_0DH@POLKCAKJ@usp_Quiz_Load?5?$EAserverindex?5?$DN?5?8?$CF@
CONST	SEGMENT
??_C@_0DH@POLKCAKJ@usp_Quiz_Load?5?$EAserverindex?5?$DN?5?8?$CF@ DB 'usp_'
	DB	'Quiz_Load @serverindex = ''%02d'', @m_nQuizType = %d', 00H ; `string'
CONST	ENDS
;	COMDAT ??_C@_0HC@EIMMABOA@usp_QuizLog_Update?5?$EAidQuizEvent@
CONST	SEGMENT
??_C@_0HC@EIMMABOA@usp_QuizLog_Update?5?$EAidQuizEvent@ DB 'usp_QuizLog_U'
	DB	'pdate @idQuizEvent = %d, @serverindex = ''%02d'', @nChannel ='
	DB	' %d, @nWinnerCount = %d, @nQuizCount = %d', 00H ; `string'
CONST	ENDS
;	COMDAT ??_C@_0FN@CPHHLGOP@usp_QuizLog_Insert?5?$EAidQuizEvent@
CONST	SEGMENT
??_C@_0FN@CPHHLGOP@usp_QuizLog_Insert?5?$EAidQuizEvent@ DB 'usp_QuizLog_I'
	DB	'nsert @idQuizEvent = %d, @serverindex = ''%02d'', @nChannel ='
	DB	' %d, @nQuizType = %d', 00H			; `string'
CONST	ENDS
;	COMDAT ??_C@_06MHCADHHK@QuizID@
CONST	SEGMENT
??_C@_06MHCADHHK@QuizID@ DB 'QuizID', 00H		; `string'
CONST	ENDS
;	COMDAT ??_C@_0CI@FLDMMNNC@usp_QuizID_Select?5?$EAserverindex?5@
CONST	SEGMENT
??_C@_0CI@FLDMMNNC@usp_QuizID_Select?5?$EAserverindex?5@ DB 'usp_QuizID_S'
	DB	'elect @serverindex = ''%02d''', 00H		; `string'
CONST	ENDS
;	COMDAT ??_C@_0EA@POJBDFAK@C?3?2IAGOS?2server?2v18?2Source?2Sour@
CONST	SEGMENT
??_C@_0EA@POJBDFAK@C?3?2IAGOS?2server?2v18?2Source?2Sour@ DB 'C:\IAGOS\se'
	DB	'rver\v18\Source\Source\DatabaseServer\QuizDBCtrl.cpp', 00H ; `string'
CONST	ENDS
;	COMDAT ??_C@_0DJ@FAECAJIA@usp_Quiz_Update?5?$EAserverindex?5?$DN?5@
CONST	SEGMENT
??_C@_0DJ@FAECAJIA@usp_Quiz_Update?5?$EAserverindex?5?$DN?5@ DB 'usp_Quiz'
	DB	'_Update @serverindex = ''%02d'', @m_nQuizType = %d', 00H ; `string'
CONST	ENDS
;	COMDAT ??_7CQuizDBCtrl@@6B@
CONST	SEGMENT
??_7CQuizDBCtrl@@6B@ DD FLAT:??_R4CQuizDBCtrl@@6B@	; CQuizDBCtrl::`vftable'
	DD	FLAT:??_ECQuizDBCtrl@@UAEPAXI@Z
	DD	FLAT:?Handler@CQuizDBCtrl@@UAEXPAUtagDB_OVERLAPPED_PLUS@@K@Z
	DD	FLAT:?OnTimer@CQuizDBCtrl@@UAEXXZ
CONST	ENDS
;	COMDAT ??_R4bad_alloc@std@@6B@
rdata$r	SEGMENT
??_R4bad_alloc@std@@6B@ DD 00H				; std::bad_alloc::`RTTI Complete Object Locator'
	DD	00H
	DD	00H
	DD	FLAT:??_R0?AVbad_alloc@std@@@8
	DD	FLAT:??_R3bad_alloc@std@@8
rdata$r	ENDS
;	COMDAT ??_R2bad_alloc@std@@8
rdata$r	SEGMENT
??_R2bad_alloc@std@@8 DD FLAT:??_R1A@?0A@EA@bad_alloc@std@@8 ; std::bad_alloc::`RTTI Base Class Array'
	DD	FLAT:??_R1A@?0A@EA@exception@std@@8
rdata$r	ENDS
;	COMDAT ??_R3bad_alloc@std@@8
rdata$r	SEGMENT
??_R3bad_alloc@std@@8 DD 00H				; std::bad_alloc::`RTTI Class Hierarchy Descriptor'
	DD	00H
	DD	02H
	DD	FLAT:??_R2bad_alloc@std@@8
rdata$r	ENDS
;	COMDAT ??_R1A@?0A@EA@bad_alloc@std@@8
rdata$r	SEGMENT
??_R1A@?0A@EA@bad_alloc@std@@8 DD FLAT:??_R0?AVbad_alloc@std@@@8 ; std::bad_alloc::`RTTI Base Class Descriptor at (0,-1,0,64)'
	DD	01H
	DD	00H
	DD	0ffffffffH
	DD	00H
	DD	040H
	DD	FLAT:??_R3bad_alloc@std@@8
rdata$r	ENDS
;	COMDAT ??_R1A@?0A@EA@bad_array_new_length@std@@8
rdata$r	SEGMENT
??_R1A@?0A@EA@bad_array_new_length@std@@8 DD FLAT:??_R0?AVbad_array_new_length@std@@@8 ; std::bad_array_new_length::`RTTI Base Class Descriptor at (0,-1,0,64)'
	DD	02H
	DD	00H
	DD	0ffffffffH
	DD	00H
	DD	040H
	DD	FLAT:??_R3bad_array_new_length@std@@8
rdata$r	ENDS
;	COMDAT ??_R2bad_array_new_length@std@@8
rdata$r	SEGMENT
??_R2bad_array_new_length@std@@8 DD FLAT:??_R1A@?0A@EA@bad_array_new_length@std@@8 ; std::bad_array_new_length::`RTTI Base Class Array'
	DD	FLAT:??_R1A@?0A@EA@bad_alloc@std@@8
	DD	FLAT:??_R1A@?0A@EA@exception@std@@8
rdata$r	ENDS
;	COMDAT ??_R3bad_array_new_length@std@@8
rdata$r	SEGMENT
??_R3bad_array_new_length@std@@8 DD 00H			; std::bad_array_new_length::`RTTI Class Hierarchy Descriptor'
	DD	00H
	DD	03H
	DD	FLAT:??_R2bad_array_new_length@std@@8
rdata$r	ENDS
;	COMDAT ??_R4bad_array_new_length@std@@6B@
rdata$r	SEGMENT
??_R4bad_array_new_length@std@@6B@ DD 00H		; std::bad_array_new_length::`RTTI Complete Object Locator'
	DD	00H
	DD	00H
	DD	FLAT:??_R0?AVbad_array_new_length@std@@@8
	DD	FLAT:??_R3bad_array_new_length@std@@8
rdata$r	ENDS
;	COMDAT ??_R1A@?0A@EA@exception@std@@8
rdata$r	SEGMENT
??_R1A@?0A@EA@exception@std@@8 DD FLAT:??_R0?AVexception@std@@@8 ; std::exception::`RTTI Base Class Descriptor at (0,-1,0,64)'
	DD	00H
	DD	00H
	DD	0ffffffffH
	DD	00H
	DD	040H
	DD	FLAT:??_R3exception@std@@8
rdata$r	ENDS
;	COMDAT ??_R2exception@std@@8
rdata$r	SEGMENT
??_R2exception@std@@8 DD FLAT:??_R1A@?0A@EA@exception@std@@8 ; std::exception::`RTTI Base Class Array'
rdata$r	ENDS
;	COMDAT ??_R3exception@std@@8
rdata$r	SEGMENT
??_R3exception@std@@8 DD 00H				; std::exception::`RTTI Class Hierarchy Descriptor'
	DD	00H
	DD	01H
	DD	FLAT:??_R2exception@std@@8
rdata$r	ENDS
;	COMDAT ??_R4exception@std@@6B@
rdata$r	SEGMENT
??_R4exception@std@@6B@ DD 00H				; std::exception::`RTTI Complete Object Locator'
	DD	00H
	DD	00H
	DD	FLAT:??_R0?AVexception@std@@@8
	DD	FLAT:??_R3exception@std@@8
rdata$r	ENDS
;	COMDAT ??_C@_0BA@FOIKENOD@vector?5too?5long@
CONST	SEGMENT
??_C@_0BA@FOIKENOD@vector?5too?5long@ DB 'vector too long', 00H ; `string'
CONST	ENDS
;	COMDAT ??_C@_09GBAEEKDE@?$CFs?0?5?$CFd?7?$CFs@
CONST	SEGMENT
??_C@_09GBAEEKDE@?$CFs?0?5?$CFd?7?$CFs@ DB '%s, %d', 09H, '%s', 00H ; `string'
CONST	ENDS
;	COMDAT ??_C@_0BB@GCADKGJO@map?1set?5too?5long@
CONST	SEGMENT
??_C@_0BB@GCADKGJO@map?1set?5too?5long@ DB 'map/set too long', 00H ; `string'
CONST	ENDS
;	COMDAT __CT??_R0?AVbad_alloc@std@@@8??0bad_alloc@std@@QAE@ABV01@@Z12
xdata$x	SEGMENT
__CT??_R0?AVbad_alloc@std@@@8??0bad_alloc@std@@QAE@ABV01@@Z12 DD 010H
	DD	FLAT:??_R0?AVbad_alloc@std@@@8
	DD	00H
	DD	0ffffffffH
	ORG $+4
	DD	0cH
	DD	FLAT:??0bad_alloc@std@@QAE@ABV01@@Z
xdata$x	ENDS
;	COMDAT ??_R0?AVbad_alloc@std@@@8
data$r	SEGMENT
??_R0?AVbad_alloc@std@@@8 DD FLAT:??_7type_info@@6B@	; std::bad_alloc `RTTI Type Descriptor'
	DD	00H
	DB	'.?AVbad_alloc@std@@', 00H
data$r	ENDS
;	COMDAT __CT??_R0?AVbad_array_new_length@std@@@8??0bad_array_new_length@std@@QAE@ABV01@@Z12
xdata$x	SEGMENT
__CT??_R0?AVbad_array_new_length@std@@@8??0bad_array_new_length@std@@QAE@ABV01@@Z12 DD 00H
	DD	FLAT:??_R0?AVbad_array_new_length@std@@@8
	DD	00H
	DD	0ffffffffH
	ORG $+4
	DD	0cH
	DD	FLAT:??0bad_array_new_length@std@@QAE@ABV01@@Z
xdata$x	ENDS
;	COMDAT ??_R0?AVbad_array_new_length@std@@@8
data$r	SEGMENT
??_R0?AVbad_array_new_length@std@@@8 DD FLAT:??_7type_info@@6B@ ; std::bad_array_new_length `RTTI Type Descriptor'
	DD	00H
	DB	'.?AVbad_array_new_length@std@@', 00H
data$r	ENDS
;	COMDAT __CTA3?AVbad_array_new_length@std@@
xdata$x	SEGMENT
__CTA3?AVbad_array_new_length@std@@ DD 03H
	DD	FLAT:__CT??_R0?AVbad_array_new_length@std@@@8??0bad_array_new_length@std@@QAE@ABV01@@Z12
	DD	FLAT:__CT??_R0?AVbad_alloc@std@@@8??0bad_alloc@std@@QAE@ABV01@@Z12
	DD	FLAT:__CT??_R0?AVexception@std@@@8??0exception@std@@QAE@ABV01@@Z12
xdata$x	ENDS
;	COMDAT __TI3?AVbad_array_new_length@std@@
xdata$x	SEGMENT
__TI3?AVbad_array_new_length@std@@ DD 00H
	DD	FLAT:??1bad_array_new_length@std@@UAE@XZ
	DD	00H
	DD	FLAT:__CTA3?AVbad_array_new_length@std@@
xdata$x	ENDS
;	COMDAT __CT??_R0?AVexception@std@@@8??0exception@std@@QAE@ABV01@@Z12
xdata$x	SEGMENT
__CT??_R0?AVexception@std@@@8??0exception@std@@QAE@ABV01@@Z12 DD 00H
	DD	FLAT:??_R0?AVexception@std@@@8
	DD	00H
	DD	0ffffffffH
	ORG $+4
	DD	0cH
	DD	FLAT:??0exception@std@@QAE@ABV01@@Z
xdata$x	ENDS
;	COMDAT ??_R0?AVexception@std@@@8
data$r	SEGMENT
??_R0?AVexception@std@@@8 DD FLAT:??_7type_info@@6B@	; std::exception `RTTI Type Descriptor'
	DD	00H
	DB	'.?AVexception@std@@', 00H
data$r	ENDS
;	COMDAT ??_C@_0BF@KINCDENJ@bad?5array?5new?5length@
CONST	SEGMENT
??_C@_0BF@KINCDENJ@bad?5array?5new?5length@ DB 'bad array new length', 00H ; `string'
CONST	ENDS
;	COMDAT ??_7bad_array_new_length@std@@6B@
CONST	SEGMENT
??_7bad_array_new_length@std@@6B@ DD FLAT:??_R4bad_array_new_length@std@@6B@ ; std::bad_array_new_length::`vftable'
	DD	FLAT:??_Ebad_array_new_length@std@@UAEPAXI@Z
	DD	FLAT:?what@exception@std@@UBEPBDXZ
CONST	ENDS
;	COMDAT ??_7bad_alloc@std@@6B@
CONST	SEGMENT
??_7bad_alloc@std@@6B@ DD FLAT:??_R4bad_alloc@std@@6B@	; std::bad_alloc::`vftable'
	DD	FLAT:??_Ebad_alloc@std@@UAEPAXI@Z
	DD	FLAT:?what@exception@std@@UBEPBDXZ
CONST	ENDS
;	COMDAT ??_C@_0BC@EOODALEL@Unknown?5exception@
CONST	SEGMENT
??_C@_0BC@EOODALEL@Unknown?5exception@ DB 'Unknown exception', 00H ; `string'
CONST	ENDS
;	COMDAT ??_7exception@std@@6B@
CONST	SEGMENT
??_7exception@std@@6B@ DD FLAT:??_R4exception@std@@6B@	; std::exception::`vftable'
	DD	FLAT:??_Eexception@std@@UAEPAXI@Z
	DD	FLAT:?what@exception@std@@UBEPBDXZ
CONST	ENDS
;	COMDAT ??_C@_00CNPNBAHC@@
CONST	SEGMENT
??_C@_00CNPNBAHC@@ DB 00H				; `string'
CONST	ENDS
;	COMDAT xdata$x
xdata$x	SEGMENT
__unwindtable$??$_Uninitialized_move@PAU_QUIZLIST@CQuiz@@V?$allocator@U_QUIZLIST@CQuiz@@@std@@@std@@YAPAU_QUIZLIST@CQuiz@@QAU12@0PAU12@AAV?$allocator@U_QUIZLIST@CQuiz@@@0@@Z DD 0ffffffffH
	DD	FLAT:__unwindfunclet$??$_Uninitialized_move@PAU_QUIZLIST@CQuiz@@V?$allocator@U_QUIZLIST@CQuiz@@@std@@@std@@YAPAU_QUIZLIST@CQuiz@@QAU12@0PAU12@AAV?$allocator@U_QUIZLIST@CQuiz@@@0@@Z$0
__ehfuncinfo$??$_Uninitialized_move@PAU_QUIZLIST@CQuiz@@V?$allocator@U_QUIZLIST@CQuiz@@@std@@@std@@YAPAU_QUIZLIST@CQuiz@@QAU12@0PAU12@AAV?$allocator@U_QUIZLIST@CQuiz@@@0@@Z DD 019930522H
	DD	01H
	DD	FLAT:__unwindtable$??$_Uninitialized_move@PAU_QUIZLIST@CQuiz@@V?$allocator@U_QUIZLIST@CQuiz@@@std@@@std@@YAPAU_QUIZLIST@CQuiz@@QAU12@0PAU12@AAV?$allocator@U_QUIZLIST@CQuiz@@@0@@Z
	DD	2 DUP(00H)
	DD	2 DUP(00H)
	DD	00H
	DD	01H
xdata$x	ENDS
;	COMDAT xdata$x
xdata$x	SEGMENT
__unwindtable$??$_Uninitialized_copy@PAU_QUIZLIST@CQuiz@@PAU12@V?$allocator@U_QUIZLIST@CQuiz@@@std@@@std@@YAPAU_QUIZLIST@CQuiz@@PAU12@00AAV?$allocator@U_QUIZLIST@CQuiz@@@0@@Z DD 0ffffffffH
	DD	FLAT:__unwindfunclet$??$_Uninitialized_copy@PAU_QUIZLIST@CQuiz@@PAU12@V?$allocator@U_QUIZLIST@CQuiz@@@std@@@std@@YAPAU_QUIZLIST@CQuiz@@PAU12@00AAV?$allocator@U_QUIZLIST@CQuiz@@@0@@Z$0
__ehfuncinfo$??$_Uninitialized_copy@PAU_QUIZLIST@CQuiz@@PAU12@V?$allocator@U_QUIZLIST@CQuiz@@@std@@@std@@YAPAU_QUIZLIST@CQuiz@@PAU12@00AAV?$allocator@U_QUIZLIST@CQuiz@@@0@@Z DD 019930522H
	DD	01H
	DD	FLAT:__unwindtable$??$_Uninitialized_copy@PAU_QUIZLIST@CQuiz@@PAU12@V?$allocator@U_QUIZLIST@CQuiz@@@std@@@std@@YAPAU_QUIZLIST@CQuiz@@PAU12@00AAV?$allocator@U_QUIZLIST@CQuiz@@@0@@Z
	DD	2 DUP(00H)
	DD	2 DUP(00H)
	DD	00H
	DD	01H
xdata$x	ENDS
;	COMDAT xdata$x
xdata$x	SEGMENT
__unwindtable$??$_Emplace_reallocate@ABU_QUIZLIST@CQuiz@@@?$vector@U_QUIZLIST@CQuiz@@V?$allocator@U_QUIZLIST@CQuiz@@@std@@@std@@AAEPAU_QUIZLIST@CQuiz@@QAU23@ABU23@@Z DD 0ffffffffH
	DD	FLAT:__unwindfunclet$??$_Emplace_reallocate@ABU_QUIZLIST@CQuiz@@@?$vector@U_QUIZLIST@CQuiz@@V?$allocator@U_QUIZLIST@CQuiz@@@std@@@std@@AAEPAU_QUIZLIST@CQuiz@@QAU23@ABU23@@Z$0
	DD	00H
	DD	FLAT:__unwindfunclet$??$_Emplace_reallocate@ABU_QUIZLIST@CQuiz@@@?$vector@U_QUIZLIST@CQuiz@@V?$allocator@U_QUIZLIST@CQuiz@@@std@@@std@@AAEPAU_QUIZLIST@CQuiz@@QAU23@ABU23@@Z$2
__ehfuncinfo$??$_Emplace_reallocate@ABU_QUIZLIST@CQuiz@@@?$vector@U_QUIZLIST@CQuiz@@V?$allocator@U_QUIZLIST@CQuiz@@@std@@@std@@AAEPAU_QUIZLIST@CQuiz@@QAU23@ABU23@@Z DD 019930522H
	DD	02H
	DD	FLAT:__unwindtable$??$_Emplace_reallocate@ABU_QUIZLIST@CQuiz@@@?$vector@U_QUIZLIST@CQuiz@@V?$allocator@U_QUIZLIST@CQuiz@@@std@@@std@@AAEPAU_QUIZLIST@CQuiz@@QAU23@ABU23@@Z
	DD	2 DUP(00H)
	DD	2 DUP(00H)
	DD	00H
	DD	01H
xdata$x	ENDS
;	COMDAT xdata$x
xdata$x	SEGMENT
__unwindtable$??$?0U?$pair@$$CBKU_WORLDDATA@CQuizDBCtrl@@@std@@@?$_Tree_temp_node@V?$allocator@U?$_Tree_node@U?$pair@$$CBKU_WORLDDATA@CQuizDBCtrl@@@std@@PAX@std@@@std@@@std@@QAE@AAV?$allocator@U?$_Tree_node@U?$pair@$$CBKU_WORLDDATA@CQuizDBCtrl@@@std@@PAX@std@@@1@PAU?$_Tree_node@U?$pair@$$CBKU_WORLDDATA@CQuizDBCtrl@@@std@@PAX@1@$$QAU?$pair@$$CBKU_WORLDDATA@CQuizDBCtrl@@@1@@Z DD 0ffffffffH
	DD	FLAT:__unwindfunclet$??$?0U?$pair@$$CBKU_WORLDDATA@CQuizDBCtrl@@@std@@@?$_Tree_temp_node@V?$allocator@U?$_Tree_node@U?$pair@$$CBKU_WORLDDATA@CQuizDBCtrl@@@std@@PAX@std@@@std@@@std@@QAE@AAV?$allocator@U?$_Tree_node@U?$pair@$$CBKU_WORLDDATA@CQuizDBCtrl@@@std@@PAX@std@@@1@PAU?$_Tree_node@U?$pair@$$CBKU_WORLDDATA@CQuizDBCtrl@@@std@@PAX@1@$$QAU?$pair@$$CBKU_WORLDDATA@CQuizDBCtrl@@@1@@Z$1
__ehfuncinfo$??$?0U?$pair@$$CBKU_WORLDDATA@CQuizDBCtrl@@@std@@@?$_Tree_temp_node@V?$allocator@U?$_Tree_node@U?$pair@$$CBKU_WORLDDATA@CQuizDBCtrl@@@std@@PAX@std@@@std@@@std@@QAE@AAV?$allocator@U?$_Tree_node@U?$pair@$$CBKU_WORLDDATA@CQuizDBCtrl@@@std@@PAX@std@@@1@PAU?$_Tree_node@U?$pair@$$CBKU_WORLDDATA@CQuizDBCtrl@@@std@@PAX@1@$$QAU?$pair@$$CBKU_WORLDDATA@CQuizDBCtrl@@@1@@Z DD 019930522H
	DD	01H
	DD	FLAT:__unwindtable$??$?0U?$pair@$$CBKU_WORLDDATA@CQuizDBCtrl@@@std@@@?$_Tree_temp_node@V?$allocator@U?$_Tree_node@U?$pair@$$CBKU_WORLDDATA@CQuizDBCtrl@@@std@@PAX@std@@@std@@@std@@QAE@AAV?$allocator@U?$_Tree_node@U?$pair@$$CBKU_WORLDDATA@CQuizDBCtrl@@@std@@PAX@std@@@1@PAU?$_Tree_node@U?$pair@$$CBKU_WORLDDATA@CQuizDBCtrl@@@std@@PAX@1@$$QAU?$pair@$$CBKU_WORLDDATA@CQuizDBCtrl@@@1@@Z
	DD	2 DUP(00H)
	DD	2 DUP(00H)
	DD	00H
	DD	01H
xdata$x	ENDS
;	COMDAT xdata$x
xdata$x	SEGMENT
__unwindtable$??0?$_Tree_temp_node_alloc@V?$allocator@U?$_Tree_node@U?$pair@$$CBKU_WORLDDATA@CQuizDBCtrl@@@std@@PAX@std@@@std@@@std@@QAE@AAV?$allocator@U?$_Tree_node@U?$pair@$$CBKU_WORLDDATA@CQuizDBCtrl@@@std@@PAX@std@@@1@@Z DD 0ffffffffH
	DD	FLAT:__unwindfunclet$??0?$_Tree_temp_node_alloc@V?$allocator@U?$_Tree_node@U?$pair@$$CBKU_WORLDDATA@CQuizDBCtrl@@@std@@PAX@std@@@std@@@std@@QAE@AAV?$allocator@U?$_Tree_node@U?$pair@$$CBKU_WORLDDATA@CQuizDBCtrl@@@std@@PAX@std@@@1@@Z$0
__ehfuncinfo$??0?$_Tree_temp_node_alloc@V?$allocator@U?$_Tree_node@U?$pair@$$CBKU_WORLDDATA@CQuizDBCtrl@@@std@@PAX@std@@@std@@@std@@QAE@AAV?$allocator@U?$_Tree_node@U?$pair@$$CBKU_WORLDDATA@CQuizDBCtrl@@@std@@PAX@std@@@1@@Z DD 019930522H
	DD	01H
	DD	FLAT:__unwindtable$??0?$_Tree_temp_node_alloc@V?$allocator@U?$_Tree_node@U?$pair@$$CBKU_WORLDDATA@CQuizDBCtrl@@@std@@PAX@std@@@std@@@std@@QAE@AAV?$allocator@U?$_Tree_node@U?$pair@$$CBKU_WORLDDATA@CQuizDBCtrl@@@std@@PAX@std@@@1@@Z
	DD	2 DUP(00H)
	DD	2 DUP(00H)
	DD	00H
	DD	01H
xdata$x	ENDS
;	COMDAT xdata$x
xdata$x	SEGMENT
__ehfuncinfo$??$_Destroy_range@V?$allocator@U_QUIZLIST@CQuiz@@@std@@@std@@YAXPAU_QUIZLIST@CQuiz@@QAU12@AAV?$allocator@U_QUIZLIST@CQuiz@@@0@@Z DD 019930522H
	DD	00H
	DD	00H
	DD	2 DUP(00H)
	DD	2 DUP(00H)
	DD	00H
	DD	05H
xdata$x	ENDS
;	COMDAT xdata$x
xdata$x	SEGMENT
__unwindtable$??$_Emplace@U?$pair@$$CBKU_WORLDDATA@CQuizDBCtrl@@@std@@@?$_Tree@V?$_Tmap_traits@KU_WORLDDATA@CQuizDBCtrl@@U?$less@K@std@@V?$allocator@U?$pair@$$CBKU_WORLDDATA@CQuizDBCtrl@@@std@@@4@$0A@@std@@@std@@IAE?AU?$pair@PAU?$_Tree_node@U?$pair@$$CBKU_WORLDDATA@CQuizDBCtrl@@@std@@PAX@std@@_N@1@$$QAU?$pair@$$CBKU_WORLDDATA@CQuizDBCtrl@@@1@@Z DD 0ffffffffH
	DD	FLAT:__unwindfunclet$??$_Emplace@U?$pair@$$CBKU_WORLDDATA@CQuizDBCtrl@@@std@@@?$_Tree@V?$_Tmap_traits@KU_WORLDDATA@CQuizDBCtrl@@U?$less@K@std@@V?$allocator@U?$pair@$$CBKU_WORLDDATA@CQuizDBCtrl@@@std@@@4@$0A@@std@@@std@@IAE?AU?$pair@PAU?$_Tree_node@U?$pair@$$CBKU_WORLDDATA@CQuizDBCtrl@@@std@@PAX@std@@_N@1@$$QAU?$pair@$$CBKU_WORLDDATA@CQuizDBCtrl@@@1@@Z$2
__ehfuncinfo$??$_Emplace@U?$pair@$$CBKU_WORLDDATA@CQuizDBCtrl@@@std@@@?$_Tree@V?$_Tmap_traits@KU_WORLDDATA@CQuizDBCtrl@@U?$less@K@std@@V?$allocator@U?$pair@$$CBKU_WORLDDATA@CQuizDBCtrl@@@std@@@4@$0A@@std@@@std@@IAE?AU?$pair@PAU?$_Tree_node@U?$pair@$$CBKU_WORLDDATA@CQuizDBCtrl@@@std@@PAX@std@@_N@1@$$QAU?$pair@$$CBKU_WORLDDATA@CQuizDBCtrl@@@1@@Z DD 019930522H
	DD	01H
	DD	FLAT:__unwindtable$??$_Emplace@U?$pair@$$CBKU_WORLDDATA@CQuizDBCtrl@@@std@@@?$_Tree@V?$_Tmap_traits@KU_WORLDDATA@CQuizDBCtrl@@U?$less@K@std@@V?$allocator@U?$pair@$$CBKU_WORLDDATA@CQuizDBCtrl@@@std@@@4@$0A@@std@@@std@@IAE?AU?$pair@PAU?$_Tree_node@U?$pair@$$CBKU_WORLDDATA@CQuizDBCtrl@@@std@@PAX@std@@_N@1@$$QAU?$pair@$$CBKU_WORLDDATA@CQuizDBCtrl@@@1@@Z
	DD	2 DUP(00H)
	DD	2 DUP(00H)
	DD	00H
	DD	01H
xdata$x	ENDS
;	COMDAT xdata$x
xdata$x	SEGMENT
__unwindtable$??$insert@$0A@$0A@@?$_Tree@V?$_Tmap_traits@KU_WORLDDATA@CQuizDBCtrl@@U?$less@K@std@@V?$allocator@U?$pair@$$CBKU_WORLDDATA@CQuizDBCtrl@@@std@@@4@$0A@@std@@@std@@QAE?AU?$pair@V?$_Tree_iterator@V?$_Tree_val@U?$_Tree_simple_types@U?$pair@$$CBKU_WORLDDATA@CQuizDBCtrl@@@std@@@std@@@std@@@std@@_N@1@$$QAU?$pair@$$CBKU_WORLDDATA@CQuizDBCtrl@@@1@@Z DD 0ffffffffH
	DD	FLAT:__unwindfunclet$??$insert@$0A@$0A@@?$_Tree@V?$_Tmap_traits@KU_WORLDDATA@CQuizDBCtrl@@U?$less@K@std@@V?$allocator@U?$pair@$$CBKU_WORLDDATA@CQuizDBCtrl@@@std@@@4@$0A@@std@@@std@@QAE?AU?$pair@V?$_Tree_iterator@V?$_Tree_val@U?$_Tree_simple_types@U?$pair@$$CBKU_WORLDDATA@CQuizDBCtrl@@@std@@@std@@@std@@@std@@_N@1@$$QAU?$pair@$$CBKU_WORLDDATA@CQuizDBCtrl@@@1@@Z$2
__ehfuncinfo$??$insert@$0A@$0A@@?$_Tree@V?$_Tmap_traits@KU_WORLDDATA@CQuizDBCtrl@@U?$less@K@std@@V?$allocator@U?$pair@$$CBKU_WORLDDATA@CQuizDBCtrl@@@std@@@4@$0A@@std@@@std@@QAE?AU?$pair@V?$_Tree_iterator@V?$_Tree_val@U?$_Tree_simple_types@U?$pair@$$CBKU_WORLDDATA@CQuizDBCtrl@@@std@@@std@@@std@@@std@@_N@1@$$QAU?$pair@$$CBKU_WORLDDATA@CQuizDBCtrl@@@1@@Z DD 019930522H
	DD	01H
	DD	FLAT:__unwindtable$??$insert@$0A@$0A@@?$_Tree@V?$_Tmap_traits@KU_WORLDDATA@CQuizDBCtrl@@U?$less@K@std@@V?$allocator@U?$pair@$$CBKU_WORLDDATA@CQuizDBCtrl@@@std@@@4@$0A@@std@@@std@@QAE?AU?$pair@V?$_Tree_iterator@V?$_Tree_val@U?$_Tree_simple_types@U?$pair@$$CBKU_WORLDDATA@CQuizDBCtrl@@@std@@@std@@@std@@@std@@_N@1@$$QAU?$pair@$$CBKU_WORLDDATA@CQuizDBCtrl@@@1@@Z
	DD	2 DUP(00H)
	DD	2 DUP(00H)
	DD	00H
	DD	01H
xdata$x	ENDS
;	COMDAT xdata$x
xdata$x	SEGMENT
__ehfuncinfo$??_G_QUIZLIST@CQuiz@@QAEPAXI@Z DD 019930522H
	DD	00H
	DD	00H
	DD	2 DUP(00H)
	DD	2 DUP(00H)
	DD	00H
	DD	05H
xdata$x	ENDS
;	COMDAT xdata$x
xdata$x	SEGMENT
__ehfuncinfo$??1_QUIZLIST@CQuiz@@QAE@XZ DD 019930522H
	DD	00H
	DD	00H
	DD	2 DUP(00H)
	DD	2 DUP(00H)
	DD	00H
	DD	05H
xdata$x	ENDS
;	COMDAT xdata$x
xdata$x	SEGMENT
__ehfuncinfo$??0_QUIZLIST@CQuiz@@QAE@XZ DD 019930522H
	DD	00H
	DD	00H
	DD	2 DUP(00H)
	DD	2 DUP(00H)
	DD	00H
	DD	05H
xdata$x	ENDS
;	COMDAT xdata$x
xdata$x	SEGMENT
__unwindtable$?CreateLogQuery@CQuizDBMng@@QAEPAVCQuery@@XZ DD 0ffffffffH
	DD	FLAT:__unwindfunclet$?CreateLogQuery@CQuizDBMng@@QAEPAVCQuery@@XZ$0
__ehfuncinfo$?CreateLogQuery@CQuizDBMng@@QAEPAVCQuery@@XZ DD 019930522H
	DD	01H
	DD	FLAT:__unwindtable$?CreateLogQuery@CQuizDBMng@@QAEPAVCQuery@@XZ
	DD	2 DUP(00H)
	DD	2 DUP(00H)
	DD	00H
	DD	01H
xdata$x	ENDS
;	COMDAT xdata$x
xdata$x	SEGMENT
__unwindtable$?GetInstance@CQuizDBMng@@SAPAV1@XZ DD 0ffffffffH
	DD	FLAT:__unwindfunclet$?GetInstance@CQuizDBMng@@SAPAV1@XZ$0
__ehfuncinfo$?GetInstance@CQuizDBMng@@SAPAV1@XZ DD 019930522H
	DD	01H
	DD	FLAT:__unwindtable$?GetInstance@CQuizDBMng@@SAPAV1@XZ
	DD	2 DUP(00H)
	DD	2 DUP(00H)
	DD	00H
	DD	01H
xdata$x	ENDS
;	COMDAT xdata$x
xdata$x	SEGMENT
__ehfuncinfo$??1CQuizDBMng@@QAE@XZ DD 019930522H
	DD	00H
	DD	00H
	DD	2 DUP(00H)
	DD	2 DUP(00H)
	DD	00H
	DD	05H
xdata$x	ENDS
;	COMDAT xdata$x
xdata$x	SEGMENT
__unwindtable$??0CQuizDBMng@@QAE@XZ DD 0ffffffffH
	DD	FLAT:__unwindfunclet$??0CQuizDBMng@@QAE@XZ$0
__ehfuncinfo$??0CQuizDBMng@@QAE@XZ DD 019930522H
	DD	01H
	DD	FLAT:__unwindtable$??0CQuizDBMng@@QAE@XZ
	DD	2 DUP(00H)
	DD	2 DUP(00H)
	DD	00H
	DD	01H
xdata$x	ENDS
;	COMDAT xdata$x
xdata$x	SEGMENT
__unwindtable$?PostPrizeItem@CQuizDBCtrl@@AAEXKKH@Z DD 0ffffffffH
	DD	FLAT:__unwindfunclet$?PostPrizeItem@CQuizDBCtrl@@AAEXKKH@Z$0
	DD	0ffffffffH
	DD	FLAT:__unwindfunclet$?PostPrizeItem@CQuizDBCtrl@@AAEXKKH@Z$1
__ehfuncinfo$?PostPrizeItem@CQuizDBCtrl@@AAEXKKH@Z DD 019930522H
	DD	02H
	DD	FLAT:__unwindtable$?PostPrizeItem@CQuizDBCtrl@@AAEXKKH@Z
	DD	2 DUP(00H)
	DD	2 DUP(00H)
	DD	00H
	DD	01H
xdata$x	ENDS
;	COMDAT xdata$x
xdata$x	SEGMENT
__unwindtable$?LoadQuizList@CQuizDBCtrl@@AAEXK@Z DD 0ffffffffH
	DD	FLAT:__unwindfunclet$?LoadQuizList@CQuizDBCtrl@@AAEXK@Z$0
__ehfuncinfo$?LoadQuizList@CQuizDBCtrl@@AAEXK@Z DD 019930522H
	DD	01H
	DD	FLAT:__unwindtable$?LoadQuizList@CQuizDBCtrl@@AAEXK@Z
	DD	2 DUP(00H)
	DD	2 DUP(00H)
	DD	00H
	DD	01H
xdata$x	ENDS
;	COMDAT xdata$x
xdata$x	SEGMENT
__unwindtable$?InitWorldData@CQuizDBCtrl@@AAEXKHH@Z DD 0ffffffffH
	DD	FLAT:__unwindfunclet$?InitWorldData@CQuizDBCtrl@@AAEXKHH@Z$2
__ehfuncinfo$?InitWorldData@CQuizDBCtrl@@AAEXKHH@Z DD 019930522H
	DD	01H
	DD	FLAT:__unwindtable$?InitWorldData@CQuizDBCtrl@@AAEXKHH@Z
	DD	2 DUP(00H)
	DD	2 DUP(00H)
	DD	00H
	DD	01H
xdata$x	ENDS
;	COMDAT xdata$x
xdata$x	SEGMENT
__ehfuncinfo$?Handler@CQuizDBCtrl@@UAEXPAUtagDB_OVERLAPPED_PLUS@@K@Z DD 019930522H
	DD	06H
	DD	FLAT:__unwindtable$?Handler@CQuizDBCtrl@@UAEXPAUtagDB_OVERLAPPED_PLUS@@K@Z
	DD	2 DUP(00H)
	DD	2 DUP(00H)
	DD	00H
	DD	01H
__unwindtable$?Handler@CQuizDBCtrl@@UAEXPAUtagDB_OVERLAPPED_PLUS@@K@Z DD 0ffffffffH
	DD	FLAT:__unwindfunclet$?Handler@CQuizDBCtrl@@UAEXPAUtagDB_OVERLAPPED_PLUS@@K@Z$0
	DD	00H
	DD	FLAT:__unwindfunclet$?Handler@CQuizDBCtrl@@UAEXPAUtagDB_OVERLAPPED_PLUS@@K@Z$1
	DD	00H
	DD	FLAT:__unwindfunclet$?Handler@CQuizDBCtrl@@UAEXPAUtagDB_OVERLAPPED_PLUS@@K@Z$2
	DD	00H
	DD	FLAT:__unwindfunclet$?Handler@CQuizDBCtrl@@UAEXPAUtagDB_OVERLAPPED_PLUS@@K@Z$3
	DD	00H
	DD	FLAT:__unwindfunclet$?Handler@CQuizDBCtrl@@UAEXPAUtagDB_OVERLAPPED_PLUS@@K@Z$4
	DD	00H
	DD	FLAT:__unwindfunclet$?Handler@CQuizDBCtrl@@UAEXPAUtagDB_OVERLAPPED_PLUS@@K@Z$5
xdata$x	ENDS
;	COMDAT xdata$x
xdata$x	SEGMENT
__unwindtable$??0CQuizDBCtrl@@QAE@XZ DD 0ffffffffH
	DD	FLAT:__unwindfunclet$??0CQuizDBCtrl@@QAE@XZ$0
__ehfuncinfo$??0CQuizDBCtrl@@QAE@XZ DD 019930522H
	DD	01H
	DD	FLAT:__unwindtable$??0CQuizDBCtrl@@QAE@XZ
	DD	2 DUP(00H)
	DD	2 DUP(00H)
	DD	00H
	DD	01H
xdata$x	ENDS
; Function compile flags: /Ogtp
; File C:\Program Files\Microsoft Visual Studio\2022\Professional\VC\Tools\MSVC\14.44.35207\include\xmemory
;	COMDAT ??1?$_Uninitialized_backout_al@V?$allocator@U_QUIZLIST@CQuiz@@@std@@@std@@QAE@XZ
_TEXT	SEGMENT
??1?$_Uninitialized_backout_al@V?$allocator@U_QUIZLIST@CQuiz@@@std@@@std@@QAE@XZ PROC ; std::_Uninitialized_backout_al<std::allocator<CQuiz::_QUIZLIST> >::~_Uninitialized_backout_al<std::allocator<CQuiz::_QUIZLIST> >, COMDAT
; _this$ = ecx

; 1839 :         _STD _Destroy_range(_First, _Last, _Al);

  00000	ff 71 08	 push	 DWORD PTR [ecx+8]
  00003	ff 71 04	 push	 DWORD PTR [ecx+4]
  00006	ff 31		 push	 DWORD PTR [ecx]
  00008	e8 00 00 00 00	 call	 ??$_Destroy_range@V?$allocator@U_QUIZLIST@CQuiz@@@std@@@std@@YAXPAU_QUIZLIST@CQuiz@@QAU12@AAV?$allocator@U_QUIZLIST@CQuiz@@@0@@Z ; std::_Destroy_range<std::allocator<CQuiz::_QUIZLIST> >
  0000d	83 c4 0c	 add	 esp, 12			; 0000000cH

; 1840 :     }

  00010	c3		 ret	 0
??1?$_Uninitialized_backout_al@V?$allocator@U_QUIZLIST@CQuiz@@@std@@@std@@QAE@XZ ENDP ; std::_Uninitialized_backout_al<std::allocator<CQuiz::_QUIZLIST> >::~_Uninitialized_backout_al<std::allocator<CQuiz::_QUIZLIST> >
_TEXT	ENDS
; Function compile flags: /Ogtp
; File C:\Program Files\Microsoft Visual Studio\2022\Professional\VC\Tools\MSVC\14.44.35207\include\xmemory
;	COMDAT ??$_Uninitialized_move@PAU_QUIZLIST@CQuiz@@V?$allocator@U_QUIZLIST@CQuiz@@@std@@@std@@YAPAU_QUIZLIST@CQuiz@@QAU12@0PAU12@AAV?$allocator@U_QUIZLIST@CQuiz@@@0@@Z
_TEXT	SEGMENT
__Backout$ = -24					; size = 12
__$EHRec$ = -12						; size = 12
__First$ = 8						; size = 4
__Last$ = 12						; size = 4
__Dest$ = 16						; size = 4
__Al$ = 20						; size = 4
??$_Uninitialized_move@PAU_QUIZLIST@CQuiz@@V?$allocator@U_QUIZLIST@CQuiz@@@std@@@std@@YAPAU_QUIZLIST@CQuiz@@QAU12@0PAU12@AAV?$allocator@U_QUIZLIST@CQuiz@@@0@@Z PROC ; std::_Uninitialized_move<CQuiz::_QUIZLIST *,std::allocator<CQuiz::_QUIZLIST> >, COMDAT

; 1977 :     const _InIt _First, const _InIt _Last, _Alloc_ptr_t<_Alloc> _Dest, _Alloc& _Al) {

  00000	55		 push	 ebp
  00001	8b ec		 mov	 ebp, esp
  00003	6a ff		 push	 -1
  00005	68 00 00 00 00	 push	 __ehhandler$??$_Uninitialized_move@PAU_QUIZLIST@CQuiz@@V?$allocator@U_QUIZLIST@CQuiz@@@std@@@std@@YAPAU_QUIZLIST@CQuiz@@QAU12@0PAU12@AAV?$allocator@U_QUIZLIST@CQuiz@@@0@@Z
  0000a	64 a1 00 00 00
	00		 mov	 eax, DWORD PTR fs:0
  00010	50		 push	 eax
  00011	83 ec 0c	 sub	 esp, 12			; 0000000cH
  00014	53		 push	 ebx
  00015	56		 push	 esi
  00016	57		 push	 edi
  00017	a1 00 00 00 00	 mov	 eax, DWORD PTR ___security_cookie
  0001c	33 c5		 xor	 eax, ebp
  0001e	50		 push	 eax
  0001f	8d 45 f4	 lea	 eax, DWORD PTR __$EHRec$[ebp]
  00022	64 a3 00 00 00
	00		 mov	 DWORD PTR fs:0, eax

; 1833 :     _CONSTEXPR20 _Uninitialized_backout_al(pointer _Dest, _Alloc& _Al_) : _First(_Dest), _Last(_Dest), _Al(_Al_) {}

  00028	8b 7d 10	 mov	 edi, DWORD PTR __Dest$[ebp]
  0002b	8b 45 14	 mov	 eax, DWORD PTR __Al$[ebp]
  0002e	89 7d e8	 mov	 DWORD PTR __Backout$[ebp], edi
  00031	89 7d ec	 mov	 DWORD PTR __Backout$[ebp+4], edi
  00034	89 45 f0	 mov	 DWORD PTR __Backout$[ebp+8], eax

; 1978 :     // move [_First, _Last) to raw _Dest, using _Al
; 1979 :     // note: only called internally from elsewhere in the STL
; 1980 : #ifdef _ENABLE_STL_INTERNAL_CHECK
; 1981 :     _STD _Adl_verify_range(_First, _Last);
; 1982 : #endif // ^^^ defined(_ENABLE_STL_INTERNAL_CHECK) ^^^
; 1983 :     using _Ptrval     = typename _Alloc::value_type*;
; 1984 :     auto _UFirst      = _STD _Get_unwrapped(_First);
; 1985 :     const auto _ULast = _STD _Get_unwrapped(_Last);
; 1986 :     if constexpr (conjunction_v<bool_constant<_Iter_move_cat<decltype(_UFirst), _Ptrval>::_Bitcopy_constructible>,
; 1987 :                       _Uses_default_construct<_Alloc, _Ptrval, decltype(_STD move(*_UFirst))>>) {
; 1988 : #if _HAS_CXX20
; 1989 :         if (!_STD is_constant_evaluated())
; 1990 : #endif // _HAS_CXX20
; 1991 :         {
; 1992 :             _STD _Copy_memmove(_UFirst, _ULast, _STD _Unfancy(_Dest));
; 1993 :             return _Dest + (_ULast - _UFirst);
; 1994 :         }
; 1995 :     }
; 1996 : 
; 1997 :     _Uninitialized_backout_al<_Alloc> _Backout{_Dest, _Al};
; 1998 :     for (; _UFirst != _ULast; ++_UFirst) {

  00037	8b 75 08	 mov	 esi, DWORD PTR __First$[ebp]
  0003a	8b 5d 0c	 mov	 ebx, DWORD PTR __Last$[ebp]
  0003d	c7 45 fc 00 00
	00 00		 mov	 DWORD PTR __$EHRec$[ebp+8], 0
  00044	3b f3		 cmp	 esi, ebx
  00046	74 3d		 je	 SHORT $LN3@Uninitiali

; 1833 :     _CONSTEXPR20 _Uninitialized_backout_al(pointer _Dest, _Alloc& _Al_) : _First(_Dest), _Last(_Dest), _Al(_Al_) {}

  00048	83 c6 08	 add	 esi, 8
  0004b	0f 1f 44 00 00	 npad	 5
$LL4@Uninitiali:
  00050	8b 46 f8	 mov	 eax, DWORD PTR [esi-8]
  00053	8d 4f 04	 lea	 ecx, DWORD PTR [edi+4]
  00056	89 07		 mov	 DWORD PTR [edi], eax
  00058	8d 46 fc	 lea	 eax, DWORD PTR [esi-4]
  0005b	50		 push	 eax
  0005c	e8 00 00 00 00	 call	 ??0?$CStringT@DV?$StrTraitMFC@DV?$ChTraitsCRT@D@ATL@@@@@ATL@@QAE@ABV01@@Z ; ATL::CStringT<char,StrTraitMFC<char,ATL::ChTraitsCRT<char> > >::CStringT<char,StrTraitMFC<char,ATL::ChTraitsCRT<char> > >
  00061	8b 06		 mov	 eax, DWORD PTR [esi]

; 1978 :     // move [_First, _Last) to raw _Dest, using _Al
; 1979 :     // note: only called internally from elsewhere in the STL
; 1980 : #ifdef _ENABLE_STL_INTERNAL_CHECK
; 1981 :     _STD _Adl_verify_range(_First, _Last);
; 1982 : #endif // ^^^ defined(_ENABLE_STL_INTERNAL_CHECK) ^^^
; 1983 :     using _Ptrval     = typename _Alloc::value_type*;
; 1984 :     auto _UFirst      = _STD _Get_unwrapped(_First);
; 1985 :     const auto _ULast = _STD _Get_unwrapped(_Last);
; 1986 :     if constexpr (conjunction_v<bool_constant<_Iter_move_cat<decltype(_UFirst), _Ptrval>::_Bitcopy_constructible>,
; 1987 :                       _Uses_default_construct<_Alloc, _Ptrval, decltype(_STD move(*_UFirst))>>) {
; 1988 : #if _HAS_CXX20
; 1989 :         if (!_STD is_constant_evaluated())
; 1990 : #endif // _HAS_CXX20
; 1991 :         {
; 1992 :             _STD _Copy_memmove(_UFirst, _ULast, _STD _Unfancy(_Dest));
; 1993 :             return _Dest + (_ULast - _UFirst);
; 1994 :         }
; 1995 :     }
; 1996 : 
; 1997 :     _Uninitialized_backout_al<_Alloc> _Backout{_Dest, _Al};
; 1998 :     for (; _UFirst != _ULast; ++_UFirst) {

  00063	8d 76 14	 lea	 esi, DWORD PTR [esi+20]
  00066	89 47 08	 mov	 DWORD PTR [edi+8], eax
  00069	8b 46 f0	 mov	 eax, DWORD PTR [esi-16]
  0006c	89 47 0c	 mov	 DWORD PTR [edi+12], eax
  0006f	8b 46 f4	 mov	 eax, DWORD PTR [esi-12]
  00072	89 47 10	 mov	 DWORD PTR [edi+16], eax

; 1845 :         ++_Last;

  00075	83 c7 14	 add	 edi, 20			; 00000014H

; 1978 :     // move [_First, _Last) to raw _Dest, using _Al
; 1979 :     // note: only called internally from elsewhere in the STL
; 1980 : #ifdef _ENABLE_STL_INTERNAL_CHECK
; 1981 :     _STD _Adl_verify_range(_First, _Last);
; 1982 : #endif // ^^^ defined(_ENABLE_STL_INTERNAL_CHECK) ^^^
; 1983 :     using _Ptrval     = typename _Alloc::value_type*;
; 1984 :     auto _UFirst      = _STD _Get_unwrapped(_First);
; 1985 :     const auto _ULast = _STD _Get_unwrapped(_Last);
; 1986 :     if constexpr (conjunction_v<bool_constant<_Iter_move_cat<decltype(_UFirst), _Ptrval>::_Bitcopy_constructible>,
; 1987 :                       _Uses_default_construct<_Alloc, _Ptrval, decltype(_STD move(*_UFirst))>>) {
; 1988 : #if _HAS_CXX20
; 1989 :         if (!_STD is_constant_evaluated())
; 1990 : #endif // _HAS_CXX20
; 1991 :         {
; 1992 :             _STD _Copy_memmove(_UFirst, _ULast, _STD _Unfancy(_Dest));
; 1993 :             return _Dest + (_ULast - _UFirst);
; 1994 :         }
; 1995 :     }
; 1996 : 
; 1997 :     _Uninitialized_backout_al<_Alloc> _Backout{_Dest, _Al};
; 1998 :     for (; _UFirst != _ULast; ++_UFirst) {

  00078	8d 46 f8	 lea	 eax, DWORD PTR [esi-8]

; 1845 :         ++_Last;

  0007b	89 7d ec	 mov	 DWORD PTR __Backout$[ebp+4], edi

; 1978 :     // move [_First, _Last) to raw _Dest, using _Al
; 1979 :     // note: only called internally from elsewhere in the STL
; 1980 : #ifdef _ENABLE_STL_INTERNAL_CHECK
; 1981 :     _STD _Adl_verify_range(_First, _Last);
; 1982 : #endif // ^^^ defined(_ENABLE_STL_INTERNAL_CHECK) ^^^
; 1983 :     using _Ptrval     = typename _Alloc::value_type*;
; 1984 :     auto _UFirst      = _STD _Get_unwrapped(_First);
; 1985 :     const auto _ULast = _STD _Get_unwrapped(_Last);
; 1986 :     if constexpr (conjunction_v<bool_constant<_Iter_move_cat<decltype(_UFirst), _Ptrval>::_Bitcopy_constructible>,
; 1987 :                       _Uses_default_construct<_Alloc, _Ptrval, decltype(_STD move(*_UFirst))>>) {
; 1988 : #if _HAS_CXX20
; 1989 :         if (!_STD is_constant_evaluated())
; 1990 : #endif // _HAS_CXX20
; 1991 :         {
; 1992 :             _STD _Copy_memmove(_UFirst, _ULast, _STD _Unfancy(_Dest));
; 1993 :             return _Dest + (_ULast - _UFirst);
; 1994 :         }
; 1995 :     }
; 1996 : 
; 1997 :     _Uninitialized_backout_al<_Alloc> _Backout{_Dest, _Al};
; 1998 :     for (; _UFirst != _ULast; ++_UFirst) {

  0007e	3b c3		 cmp	 eax, ebx
  00080	75 ce		 jne	 SHORT $LL4@Uninitiali
  00082	8b 45 14	 mov	 eax, DWORD PTR __Al$[ebp]
$LN3@Uninitiali:

; 1839 :         _STD _Destroy_range(_First, _Last, _Al);

  00085	50		 push	 eax
  00086	57		 push	 edi
  00087	57		 push	 edi
  00088	e8 00 00 00 00	 call	 ??$_Destroy_range@V?$allocator@U_QUIZLIST@CQuiz@@@std@@@std@@YAXPAU_QUIZLIST@CQuiz@@QAU12@AAV?$allocator@U_QUIZLIST@CQuiz@@@0@@Z ; std::_Destroy_range<std::allocator<CQuiz::_QUIZLIST> >
  0008d	83 c4 0c	 add	 esp, 12			; 0000000cH

; 1999 :         _Backout._Emplace_back(_STD move(*_UFirst));
; 2000 :     }
; 2001 : 
; 2002 :     return _Backout._Release();

  00090	8b c7		 mov	 eax, edi

; 2003 : }

  00092	8b 4d f4	 mov	 ecx, DWORD PTR __$EHRec$[ebp]
  00095	64 89 0d 00 00
	00 00		 mov	 DWORD PTR fs:0, ecx
  0009c	59		 pop	 ecx
  0009d	5f		 pop	 edi
  0009e	5e		 pop	 esi
  0009f	5b		 pop	 ebx
  000a0	8b e5		 mov	 esp, ebp
  000a2	5d		 pop	 ebp
  000a3	c3		 ret	 0
_TEXT	ENDS
;	COMDAT text$x
text$x	SEGMENT
__unwindfunclet$??$_Uninitialized_move@PAU_QUIZLIST@CQuiz@@V?$allocator@U_QUIZLIST@CQuiz@@@std@@@std@@YAPAU_QUIZLIST@CQuiz@@QAU12@0PAU12@AAV?$allocator@U_QUIZLIST@CQuiz@@@0@@Z$0:
  00000	8d 4d e8	 lea	 ecx, DWORD PTR __Backout$[ebp]
  00003	e9 00 00 00 00	 jmp	 ??1?$_Uninitialized_backout_al@V?$allocator@U_QUIZLIST@CQuiz@@@std@@@std@@QAE@XZ ; std::_Uninitialized_backout_al<std::allocator<CQuiz::_QUIZLIST> >::~_Uninitialized_backout_al<std::allocator<CQuiz::_QUIZLIST> >
  00008	cc		 int	 3
  00009	cc		 int	 3
  0000a	cc		 int	 3
  0000b	cc		 int	 3
  0000c	cc		 int	 3
__ehhandler$??$_Uninitialized_move@PAU_QUIZLIST@CQuiz@@V?$allocator@U_QUIZLIST@CQuiz@@@std@@@std@@YAPAU_QUIZLIST@CQuiz@@QAU12@0PAU12@AAV?$allocator@U_QUIZLIST@CQuiz@@@0@@Z:
  0000d	90		 npad	 1
  0000e	90		 npad	 1
  0000f	8b 54 24 08	 mov	 edx, DWORD PTR [esp+8]
  00013	8d 42 0c	 lea	 eax, DWORD PTR [edx+12]
  00016	8b 4a e4	 mov	 ecx, DWORD PTR [edx-28]
  00019	33 c8		 xor	 ecx, eax
  0001b	e8 00 00 00 00	 call	 @__security_check_cookie@4
  00020	b8 00 00 00 00	 mov	 eax, OFFSET __ehfuncinfo$??$_Uninitialized_move@PAU_QUIZLIST@CQuiz@@V?$allocator@U_QUIZLIST@CQuiz@@@std@@@std@@YAPAU_QUIZLIST@CQuiz@@QAU12@0PAU12@AAV?$allocator@U_QUIZLIST@CQuiz@@@0@@Z
  00025	e9 00 00 00 00	 jmp	 ___CxxFrameHandler3
text$x	ENDS
??$_Uninitialized_move@PAU_QUIZLIST@CQuiz@@V?$allocator@U_QUIZLIST@CQuiz@@@std@@@std@@YAPAU_QUIZLIST@CQuiz@@QAU12@0PAU12@AAV?$allocator@U_QUIZLIST@CQuiz@@@0@@Z ENDP ; std::_Uninitialized_move<CQuiz::_QUIZLIST *,std::allocator<CQuiz::_QUIZLIST> >
; Function compile flags: /Ogtp
; File C:\Program Files\Microsoft Visual Studio\2022\Professional\VC\Tools\MSVC\14.44.35207\include\vector
; File C:\Program Files\Microsoft Visual Studio\2022\Professional\VC\Tools\MSVC\14.44.35207\include\xmemory
; File C:\Program Files\Microsoft Visual Studio\2022\Professional\VC\Tools\MSVC\14.44.35207\include\vector
; File C:\Program Files\Microsoft Visual Studio\2022\Professional\VC\Tools\MSVC\14.44.35207\include\xmemory
; File C:\Program Files\Microsoft Visual Studio\2022\Professional\VC\Tools\MSVC\14.44.35207\include\vector
; File C:\Program Files\Microsoft Visual Studio\2022\Professional\VC\Tools\MSVC\14.44.35207\include\xmemory
; File C:\Program Files\Microsoft Visual Studio\2022\Professional\VC\Tools\MSVC\14.44.35207\include\vector
;	COMDAT ??1_Reallocation_guard@?$vector@U_QUIZLIST@CQuiz@@V?$allocator@U_QUIZLIST@CQuiz@@@std@@@std@@QAE@XZ
_TEXT	SEGMENT
??1_Reallocation_guard@?$vector@U_QUIZLIST@CQuiz@@V?$allocator@U_QUIZLIST@CQuiz@@@std@@@std@@QAE@XZ PROC ; std::vector<CQuiz::_QUIZLIST,std::allocator<CQuiz::_QUIZLIST> >::_Reallocation_guard::~_Reallocation_guard, COMDAT
; _this$ = ecx

; 620  :         _CONSTEXPR20 ~_Reallocation_guard() noexcept {

  00000	56		 push	 esi
  00001	8b f1		 mov	 esi, ecx

; 621  :             if (_New_begin != nullptr) {

  00003	83 7e 04 00	 cmp	 DWORD PTR [esi+4], 0
  00007	74 40		 je	 SHORT $LN10@Reallocati

; 622  :                 _STD _Destroy_range(_Constructed_first, _Constructed_last, _Al);

  00009	ff 36		 push	 DWORD PTR [esi]
  0000b	ff 76 10	 push	 DWORD PTR [esi+16]
  0000e	ff 76 0c	 push	 DWORD PTR [esi+12]
  00011	e8 00 00 00 00	 call	 ??$_Destroy_range@V?$allocator@U_QUIZLIST@CQuiz@@@std@@@std@@YAXPAU_QUIZLIST@CQuiz@@QAU12@AAV?$allocator@U_QUIZLIST@CQuiz@@@0@@Z ; std::_Destroy_range<std::allocator<CQuiz::_QUIZLIST> >
; File C:\Program Files\Microsoft Visual Studio\2022\Professional\VC\Tools\MSVC\14.44.35207\include\xmemory

; 985  :         _STD _Deallocate<_New_alignof<_Ty>>(_Ptr, sizeof(_Ty) * _Count);

  00016	8b 46 08	 mov	 eax, DWORD PTR [esi+8]
; File C:\Program Files\Microsoft Visual Studio\2022\Professional\VC\Tools\MSVC\14.44.35207\include\vector

; 622  :                 _STD _Destroy_range(_Constructed_first, _Constructed_last, _Al);

  00019	83 c4 0c	 add	 esp, 12			; 0000000cH
; File C:\Program Files\Microsoft Visual Studio\2022\Professional\VC\Tools\MSVC\14.44.35207\include\xmemory

; 985  :         _STD _Deallocate<_New_alignof<_Ty>>(_Ptr, sizeof(_Ty) * _Count);

  0001c	8d 0c 80	 lea	 ecx, DWORD PTR [eax+eax*4]
  0001f	8b 46 04	 mov	 eax, DWORD PTR [esi+4]
  00022	c1 e1 02	 shl	 ecx, 2

; 284  :         if (_Bytes >= _Big_allocation_threshold) {

  00025	81 f9 00 10 00
	00		 cmp	 ecx, 4096		; 00001000H
  0002b	72 12		 jb	 SHORT $LN15@Reallocati

; 205  :     const uintptr_t _Ptr_container   = _Ptr_user[-1];

  0002d	8b 50 fc	 mov	 edx, DWORD PTR [eax-4]
  00030	83 c1 23	 add	 ecx, 35			; 00000023H

; 206  : 
; 207  :     // If the following asserts, it likely means that we are performing
; 208  :     // an aligned delete on memory coming from an unaligned allocation.
; 209  :     _STL_ASSERT(_Ptr_user[-2] == _Big_allocation_sentinel, "invalid argument");
; 210  : 
; 211  :     // Extra paranoia on aligned allocation/deallocation; ensure _Ptr_container is
; 212  :     // in range [_Min_back_shift, _Non_user_size]
; 213  : #ifdef _DEBUG
; 214  :     constexpr uintptr_t _Min_back_shift = 2 * sizeof(void*);
; 215  : #else // ^^^ defined(_DEBUG) / !defined(_DEBUG) vvv
; 216  :     constexpr uintptr_t _Min_back_shift = sizeof(void*);
; 217  : #endif // ^^^ !defined(_DEBUG) ^^^
; 218  :     const uintptr_t _Back_shift = reinterpret_cast<uintptr_t>(_Ptr) - _Ptr_container;

  00033	2b c2		 sub	 eax, edx

; 219  :     _STL_VERIFY(_Back_shift >= _Min_back_shift && _Back_shift <= _Non_user_size, "invalid argument");

  00035	83 c0 fc	 add	 eax, -4			; fffffffcH
  00038	83 f8 1f	 cmp	 eax, 31			; 0000001fH
  0003b	77 0e		 ja	 SHORT $LN14@Reallocati

; 220  :     _Ptr = reinterpret_cast<void*>(_Ptr_container);

  0003d	8b c2		 mov	 eax, edx
$LN15@Reallocati:

; 289  :         ::operator delete(_Ptr, _Bytes);

  0003f	51		 push	 ecx
  00040	50		 push	 eax
  00041	e8 00 00 00 00	 call	 ??3@YAXPAXI@Z		; operator delete
  00046	83 c4 08	 add	 esp, 8
$LN10@Reallocati:
  00049	5e		 pop	 esi
; File C:\Program Files\Microsoft Visual Studio\2022\Professional\VC\Tools\MSVC\14.44.35207\include\vector

; 625  :         }

  0004a	c3		 ret	 0
$LN14@Reallocati:
; File C:\Program Files\Microsoft Visual Studio\2022\Professional\VC\Tools\MSVC\14.44.35207\include\xmemory

; 219  :     _STL_VERIFY(_Back_shift >= _Min_back_shift && _Back_shift <= _Non_user_size, "invalid argument");

  0004b	6a 00		 push	 0
  0004d	6a 00		 push	 0
  0004f	6a 00		 push	 0
  00051	6a 00		 push	 0
  00053	6a 00		 push	 0
  00055	e8 00 00 00 00	 call	 __invoke_watson
$LN22@Reallocati:
  0005a	cc		 int	 3
??1_Reallocation_guard@?$vector@U_QUIZLIST@CQuiz@@V?$allocator@U_QUIZLIST@CQuiz@@@std@@@std@@QAE@XZ ENDP ; std::vector<CQuiz::_QUIZLIST,std::allocator<CQuiz::_QUIZLIST> >::_Reallocation_guard::~_Reallocation_guard
_TEXT	ENDS
; Function compile flags: /Ogtp
; File C:\Program Files\Microsoft Visual Studio\2022\Professional\VC\Tools\MSVC\14.44.35207\include\vector
; File C:\Program Files\Microsoft Visual Studio\2022\Professional\VC\Tools\MSVC\14.44.35207\include\xmemory
; File C:\Program Files\Microsoft Visual Studio\2022\Professional\VC\Tools\MSVC\14.44.35207\include\vector
; File C:\Program Files\Microsoft Visual Studio\2022\Professional\VC\Tools\MSVC\14.44.35207\include\xmemory
; File C:\Program Files\Microsoft Visual Studio\2022\Professional\VC\Tools\MSVC\14.44.35207\include\vector
; File C:\Program Files\Microsoft Visual Studio\2022\Professional\VC\Tools\MSVC\14.44.35207\include\xmemory
; File C:\Program Files\Microsoft Visual Studio\2022\Professional\VC\Tools\MSVC\14.44.35207\include\vector
; File C:\Program Files\Microsoft Visual Studio\2022\Professional\VC\Tools\MSVC\14.44.35207\include\xmemory
; File C:\Program Files\Microsoft Visual Studio\2022\Professional\VC\Tools\MSVC\14.44.35207\include\vector
; File C:\Program Files\Microsoft Visual Studio\2022\Professional\VC\Tools\MSVC\14.44.35207\include\xmemory
; File C:\Program Files\Microsoft Visual Studio\2022\Professional\VC\Tools\MSVC\14.44.35207\include\vector
; File C:\Program Files\Microsoft Visual Studio\2022\Professional\VC\Tools\MSVC\14.44.35207\include\xmemory
; File C:\Program Files\Microsoft Visual Studio\2022\Professional\VC\Tools\MSVC\14.44.35207\include\vector
; File C:\Program Files\Microsoft Visual Studio\2022\Professional\VC\Tools\MSVC\14.44.35207\include\xmemory
; File C:\Program Files\Microsoft Visual Studio\2022\Professional\VC\Tools\MSVC\14.44.35207\include\vector
; File C:\Program Files\Microsoft Visual Studio\2022\Professional\VC\Tools\MSVC\14.44.35207\include\xmemory
; File C:\Program Files\Microsoft Visual Studio\2022\Professional\VC\Tools\MSVC\14.44.35207\include\vector
;	COMDAT ??$_Emplace_reallocate@ABU_QUIZLIST@CQuiz@@@?$vector@U_QUIZLIST@CQuiz@@V?$allocator@U_QUIZLIST@CQuiz@@@std@@@std@@AAEPAU_QUIZLIST@CQuiz@@QAU23@ABU23@@Z
_TEXT	SEGMENT
__Guard$ = -64						; size = 20
__Backout$2 = -44					; size = 12
__Newsize$1$ = -32					; size = 4
_this$1$ = -28						; size = 4
__Whereoff$1$ = -24					; size = 4
tv706 = -24						; size = 4
tv696 = -20						; size = 4
$T3 = -16						; size = 4
__$EHRec$ = -12						; size = 12
__Whereptr$ = 8						; size = 4
_<_Val_0>$ = 12						; size = 4
__ULast$1$ = 12						; size = 4
??$_Emplace_reallocate@ABU_QUIZLIST@CQuiz@@@?$vector@U_QUIZLIST@CQuiz@@V?$allocator@U_QUIZLIST@CQuiz@@@std@@@std@@AAEPAU_QUIZLIST@CQuiz@@QAU23@ABU23@@Z PROC ; std::vector<CQuiz::_QUIZLIST,std::allocator<CQuiz::_QUIZLIST> >::_Emplace_reallocate<CQuiz::_QUIZLIST const &>, COMDAT
; _this$ = ecx

; 875  :     _CONSTEXPR20 pointer _Emplace_reallocate(const pointer _Whereptr, _Valty&&... _Val) {

  00000	55		 push	 ebp
  00001	8b ec		 mov	 ebp, esp
  00003	6a ff		 push	 -1
  00005	68 00 00 00 00	 push	 __ehhandler$??$_Emplace_reallocate@ABU_QUIZLIST@CQuiz@@@?$vector@U_QUIZLIST@CQuiz@@V?$allocator@U_QUIZLIST@CQuiz@@@std@@@std@@AAEPAU_QUIZLIST@CQuiz@@QAU23@ABU23@@Z
  0000a	64 a1 00 00 00
	00		 mov	 eax, DWORD PTR fs:0
  00010	50		 push	 eax
  00011	83 ec 34	 sub	 esp, 52			; 00000034H
  00014	53		 push	 ebx
  00015	56		 push	 esi
  00016	57		 push	 edi
  00017	a1 00 00 00 00	 mov	 eax, DWORD PTR ___security_cookie
  0001c	33 c5		 xor	 eax, ebp
  0001e	50		 push	 eax
  0001f	8d 45 f4	 lea	 eax, DWORD PTR __$EHRec$[ebp]
  00022	64 a3 00 00 00
	00		 mov	 DWORD PTR fs:0, eax
  00028	8b d9		 mov	 ebx, ecx
  0002a	89 5d e4	 mov	 DWORD PTR _this$1$[ebp], ebx

; 876  :         // reallocate and insert by perfectly forwarding _Val at _Whereptr
; 877  :         _Alty& _Al        = _Getal();
; 878  :         auto& _My_data    = _Mypair._Myval2;
; 879  :         pointer& _Myfirst = _My_data._Myfirst;
; 880  :         pointer& _Mylast  = _My_data._Mylast;
; 881  : 
; 882  :         _STL_INTERNAL_CHECK(_Mylast == _My_data._Myend); // check that we have no unused capacity
; 883  : 
; 884  :         const auto _Whereoff = static_cast<size_type>(_Whereptr - _Myfirst);

  0002d	8b 33		 mov	 esi, DWORD PTR [ebx]
  0002f	b8 67 66 66 66	 mov	 eax, 1717986919		; 66666667H
  00034	8b 55 08	 mov	 edx, DWORD PTR __Whereptr$[ebp]

; 885  :         const auto _Oldsize  = static_cast<size_type>(_Mylast - _Myfirst);

  00037	8b 4b 04	 mov	 ecx, DWORD PTR [ebx+4]
  0003a	2b d6		 sub	 edx, esi
  0003c	f7 ea		 imul	 edx
  0003e	2b ce		 sub	 ecx, esi
  00040	c1 fa 03	 sar	 edx, 3
  00043	8b c2		 mov	 eax, edx
  00045	c1 e8 1f	 shr	 eax, 31			; 0000001fH
  00048	03 c2		 add	 eax, edx
  0004a	89 45 e8	 mov	 DWORD PTR __Whereoff$1$[ebp], eax
  0004d	b8 67 66 66 66	 mov	 eax, 1717986919		; 66666667H
  00052	f7 e9		 imul	 ecx
  00054	c1 fa 03	 sar	 edx, 3
  00057	8b c2		 mov	 eax, edx
  00059	c1 e8 1f	 shr	 eax, 31			; 0000001fH
  0005c	03 c2		 add	 eax, edx

; 886  : 
; 887  :         if (_Oldsize == max_size()) {

  0005e	3d cc cc cc 0c	 cmp	 eax, 214748364		; 0cccccccH
  00063	0f 84 fe 01 00
	00		 je	 $LN100@Emplace_re

; 1924 :         return static_cast<size_type>(_My_data._Myend - _My_data._Myfirst);

  00069	8b 4b 08	 mov	 ecx, DWORD PTR [ebx+8]

; 889  :         }
; 890  : 
; 891  :         const size_type _Newsize = _Oldsize + 1;

  0006c	8d 78 01	 lea	 edi, DWORD PTR [eax+1]

; 1924 :         return static_cast<size_type>(_My_data._Myend - _My_data._Myfirst);

  0006f	2b ce		 sub	 ecx, esi

; 889  :         }
; 890  : 
; 891  :         const size_type _Newsize = _Oldsize + 1;

  00071	89 7d e0	 mov	 DWORD PTR __Newsize$1$[ebp], edi

; 1924 :         return static_cast<size_type>(_My_data._Myend - _My_data._Myfirst);

  00074	b8 67 66 66 66	 mov	 eax, 1717986919		; 66666667H
  00079	f7 e9		 imul	 ecx

; 2011 :         if (_Oldcapacity > _Max - _Oldcapacity / 2) {

  0007b	b8 cc cc cc 0c	 mov	 eax, 214748364		; 0cccccccH

; 1924 :         return static_cast<size_type>(_My_data._Myend - _My_data._Myfirst);

  00080	c1 fa 03	 sar	 edx, 3
  00083	8b ca		 mov	 ecx, edx
  00085	c1 e9 1f	 shr	 ecx, 31			; 0000001fH
  00088	03 ca		 add	 ecx, edx

; 2011 :         if (_Oldcapacity > _Max - _Oldcapacity / 2) {

  0008a	8b d1		 mov	 edx, ecx
  0008c	d1 ea		 shr	 edx, 1
  0008e	2b c2		 sub	 eax, edx
  00090	3b c8		 cmp	 ecx, eax
  00092	76 1e		 jbe	 SHORT $LN8@Emplace_re

; 2012 :             return _Max; // geometric growth would overflow

  00094	b8 f0 ff ff ff	 mov	 eax, -16		; fffffff0H
  00099	c7 45 ec f0 ff
	ff ff		 mov	 DWORD PTR tv696[ebp], -16 ; fffffff0H
; File C:\Program Files\Microsoft Visual Studio\2022\Professional\VC\Tools\MSVC\14.44.35207\include\xmemory

; 253  :             return _Allocate_manually_vector_aligned<_Traits>(_Bytes);

  000a0	50		 push	 eax
; File C:\Program Files\Microsoft Visual Studio\2022\Professional\VC\Tools\MSVC\14.44.35207\include\vector

; 2012 :             return _Max; // geometric growth would overflow

  000a1	be cc cc cc 0c	 mov	 esi, 214748364		; 0cccccccH
; File C:\Program Files\Microsoft Visual Studio\2022\Professional\VC\Tools\MSVC\14.44.35207\include\xmemory

; 253  :             return _Allocate_manually_vector_aligned<_Traits>(_Bytes);

  000a6	e8 00 00 00 00	 call	 ??$_Allocate_manually_vector_aligned@U_Default_allocate_traits@std@@@std@@YAPAXI@Z ; std::_Allocate_manually_vector_aligned<std::_Default_allocate_traits>
  000ab	8b c8		 mov	 ecx, eax
  000ad	89 4d f0	 mov	 DWORD PTR $T3[ebp], ecx
  000b0	eb 4b		 jmp	 SHORT $LN98@Emplace_re
$LN8@Emplace_re:
; File C:\Program Files\Microsoft Visual Studio\2022\Professional\VC\Tools\MSVC\14.44.35207\include\vector

; 2015 :         const size_type _Geometric = _Oldcapacity + _Oldcapacity / 2;

  000b2	8d 04 0a	 lea	 eax, DWORD PTR [edx+ecx]
; File C:\Program Files\Microsoft Visual Studio\2022\Professional\VC\Tools\MSVC\14.44.35207\include\xmemory

; 117  :         if (_Count > _Max_possible) {

  000b5	8b f7		 mov	 esi, edi
  000b7	3b c7		 cmp	 eax, edi
  000b9	0f 43 f0	 cmovae	 esi, eax
  000bc	81 fe cc cc cc
	0c		 cmp	 esi, 214748364		; 0cccccccH
  000c2	0f 87 a4 01 00
	00		 ja	 $LN101@Emplace_re

; 119  :         }
; 120  :     }
; 121  : 
; 122  :     return _Count * _Ty_size;

  000c8	8d 3c b6	 lea	 edi, DWORD PTR [esi+esi*4]
  000cb	c1 e7 02	 shl	 edi, 2

; 990  :         return static_cast<_Ty*>(_STD _Allocate<_New_alignof<_Ty>>(_Get_size_of_n<sizeof(_Ty)>(_Count)));

  000ce	8b c7		 mov	 eax, edi

; 122  :     return _Count * _Ty_size;

  000d0	89 7d ec	 mov	 DWORD PTR tv696[ebp], edi

; 227  :     if (_Bytes == 0) {

  000d3	85 c0		 test	 eax, eax
  000d5	75 07		 jne	 SHORT $LN23@Emplace_re

; 228  :         return nullptr;

  000d7	33 c9		 xor	 ecx, ecx
  000d9	89 4d f0	 mov	 DWORD PTR $T3[ebp], ecx
  000dc	eb 22		 jmp	 SHORT $LN22@Emplace_re
$LN23@Emplace_re:

; 229  :     }
; 230  : 
; 231  : #if _HAS_CXX20 // TRANSITION, GH-1532
; 232  :     if (_STD is_constant_evaluated()) {
; 233  :         return _Traits::_Allocate(_Bytes);
; 234  :     }
; 235  : #endif // _HAS_CXX20
; 236  : 
; 237  : #ifdef __cpp_aligned_new
; 238  :     if constexpr (_Align > __STDCPP_DEFAULT_NEW_ALIGNMENT__) {
; 239  :         size_t _Passed_align = _Align;
; 240  : #if defined(_M_IX86) || defined(_M_X64)
; 241  :         if (_Bytes >= _Big_allocation_threshold) {
; 242  :             // boost the alignment of big allocations to help autovectorization
; 243  :             _Passed_align = (_STD max)(_Align, _Big_allocation_alignment);
; 244  :         }
; 245  : #endif // defined(_M_IX86) || defined(_M_X64)
; 246  :         return _Traits::_Allocate_aligned(_Bytes, _Passed_align);
; 247  :     } else
; 248  : #endif // defined(__cpp_aligned_new)
; 249  :     {
; 250  : #if defined(_M_IX86) || defined(_M_X64)
; 251  :         if (_Bytes >= _Big_allocation_threshold) {

  000de	3d 00 10 00 00	 cmp	 eax, 4096		; 00001000H
  000e3	72 0d		 jb	 SHORT $LN24@Emplace_re

; 253  :             return _Allocate_manually_vector_aligned<_Traits>(_Bytes);

  000e5	50		 push	 eax
  000e6	e8 00 00 00 00	 call	 ??$_Allocate_manually_vector_aligned@U_Default_allocate_traits@std@@@std@@YAPAXI@Z ; std::_Allocate_manually_vector_aligned<std::_Default_allocate_traits>
  000eb	8b c8		 mov	 ecx, eax
  000ed	89 4d f0	 mov	 DWORD PTR $T3[ebp], ecx
  000f0	eb 0b		 jmp	 SHORT $LN98@Emplace_re
$LN24@Emplace_re:

; 136  :         return ::operator new(_Bytes);

  000f2	50		 push	 eax
  000f3	e8 00 00 00 00	 call	 ??2@YAPAXI@Z		; operator new

; 256  :         return _Traits::_Allocate(_Bytes);

  000f8	8b c8		 mov	 ecx, eax
  000fa	89 45 f0	 mov	 DWORD PTR $T3[ebp], eax
$LN98@Emplace_re:
; File C:\Program Files\Microsoft Visual Studio\2022\Professional\VC\Tools\MSVC\14.44.35207\include\vector

; 895  :         const pointer _Constructed_last = _Newvec + _Whereoff + 1;

  000fd	83 c4 04	 add	 esp, 4
$LN22@Emplace_re:
  00100	8b 45 e8	 mov	 eax, DWORD PTR __Whereoff$1$[ebp]

; 896  : 
; 897  :         _Reallocation_guard _Guard{_Al, _Newvec, _Newcapacity, _Constructed_last, _Constructed_last};

  00103	89 5d c0	 mov	 DWORD PTR __Guard$[ebp], ebx
  00106	89 4d c4	 mov	 DWORD PTR __Guard$[ebp+4], ecx
  00109	89 75 c8	 mov	 DWORD PTR __Guard$[ebp+8], esi
  0010c	8d 04 80	 lea	 eax, DWORD PTR [eax+eax*4]
  0010f	8d 3c 81	 lea	 edi, DWORD PTR [ecx+eax*4]
  00112	8d 47 14	 lea	 eax, DWORD PTR [edi+20]
  00115	89 7d e8	 mov	 DWORD PTR tv706[ebp], edi
  00118	89 45 cc	 mov	 DWORD PTR __Guard$[ebp+12], eax
  0011b	89 45 d0	 mov	 DWORD PTR __Guard$[ebp+16], eax
  0011e	8b 75 0c	 mov	 esi, DWORD PTR _<_Val_0>$[ebp]
  00121	8d 4f 04	 lea	 ecx, DWORD PTR [edi+4]
  00124	c7 45 fc 00 00
	00 00		 mov	 DWORD PTR __$EHRec$[ebp+8], 0
  0012b	8b 06		 mov	 eax, DWORD PTR [esi]
  0012d	89 07		 mov	 DWORD PTR [edi], eax
  0012f	8d 46 04	 lea	 eax, DWORD PTR [esi+4]
  00132	50		 push	 eax
  00133	e8 00 00 00 00	 call	 ??0?$CStringT@DV?$StrTraitMFC@DV?$ChTraitsCRT@D@ATL@@@@@ATL@@QAE@ABV01@@Z ; ATL::CStringT<char,StrTraitMFC<char,ATL::ChTraitsCRT<char> > >::CStringT<char,StrTraitMFC<char,ATL::ChTraitsCRT<char> > >
  00138	8b 46 08	 mov	 eax, DWORD PTR [esi+8]

; 898  :         auto& _Constructed_first = _Guard._Constructed_first;
; 899  : 
; 900  :         _Alty_traits::construct(_Al, _STD _Unfancy(_Newvec + _Whereoff), _STD forward<_Valty>(_Val)...);
; 901  :         _Constructed_first = _Newvec + _Whereoff;
; 902  : 
; 903  :         if (_Whereptr == _Mylast) { // at back, provide strong guarantee

  0013b	8b 4d 08	 mov	 ecx, DWORD PTR __Whereptr$[ebp]
  0013e	89 47 08	 mov	 DWORD PTR [edi+8], eax
  00141	8b 46 0c	 mov	 eax, DWORD PTR [esi+12]
  00144	89 47 0c	 mov	 DWORD PTR [edi+12], eax
  00147	8b 46 10	 mov	 eax, DWORD PTR [esi+16]
  0014a	8b 75 f0	 mov	 esi, DWORD PTR $T3[ebp]
  0014d	89 47 10	 mov	 DWORD PTR [edi+16], eax
  00150	8b 43 04	 mov	 eax, DWORD PTR [ebx+4]
  00153	89 7d cc	 mov	 DWORD PTR __Guard$[ebp+12], edi
  00156	8b 3b		 mov	 edi, DWORD PTR [ebx]
  00158	89 45 0c	 mov	 DWORD PTR __ULast$1$[ebp], eax
  0015b	3b c8		 cmp	 ecx, eax
  0015d	75 55		 jne	 SHORT $LN3@Emplace_re
; File C:\Program Files\Microsoft Visual Studio\2022\Professional\VC\Tools\MSVC\14.44.35207\include\xmemory

; 1833 :     _CONSTEXPR20 _Uninitialized_backout_al(pointer _Dest, _Alloc& _Al_) : _First(_Dest), _Last(_Dest), _Al(_Al_) {}

  0015f	89 75 d4	 mov	 DWORD PTR __Backout$2[ebp], esi
  00162	89 75 d8	 mov	 DWORD PTR __Backout$2[ebp+4], esi
  00165	89 5d dc	 mov	 DWORD PTR __Backout$2[ebp+8], ebx

; 1900 :     _Uninitialized_backout_al<_Alloc> _Backout{_Dest, _Al};

  00168	c6 45 fc 01	 mov	 BYTE PTR __$EHRec$[ebp+8], 1

; 1901 :     for (; _UFirst != _ULast; ++_UFirst) {

  0016c	3b f8		 cmp	 edi, eax
  0016e	74 34		 je	 SHORT $LN37@Emplace_re
  00170	8b d8		 mov	 ebx, eax
$LL38@Emplace_re:
  00172	8b 07		 mov	 eax, DWORD PTR [edi]
  00174	8d 4e 04	 lea	 ecx, DWORD PTR [esi+4]
  00177	89 06		 mov	 DWORD PTR [esi], eax
  00179	8d 47 04	 lea	 eax, DWORD PTR [edi+4]
  0017c	50		 push	 eax
  0017d	e8 00 00 00 00	 call	 ??0?$CStringT@DV?$StrTraitMFC@DV?$ChTraitsCRT@D@ATL@@@@@ATL@@QAE@ABV01@@Z ; ATL::CStringT<char,StrTraitMFC<char,ATL::ChTraitsCRT<char> > >::CStringT<char,StrTraitMFC<char,ATL::ChTraitsCRT<char> > >
  00182	8b 47 08	 mov	 eax, DWORD PTR [edi+8]
  00185	89 46 08	 mov	 DWORD PTR [esi+8], eax
  00188	8b 47 0c	 mov	 eax, DWORD PTR [edi+12]
  0018b	89 46 0c	 mov	 DWORD PTR [esi+12], eax
  0018e	8b 47 10	 mov	 eax, DWORD PTR [edi+16]
  00191	83 c7 14	 add	 edi, 20			; 00000014H
  00194	89 46 10	 mov	 DWORD PTR [esi+16], eax

; 1845 :         ++_Last;

  00197	83 c6 14	 add	 esi, 20			; 00000014H
  0019a	89 75 d8	 mov	 DWORD PTR __Backout$2[ebp+4], esi

; 1901 :     for (; _UFirst != _ULast; ++_UFirst) {

  0019d	3b fb		 cmp	 edi, ebx
  0019f	75 d1		 jne	 SHORT $LL38@Emplace_re
  001a1	8b 5d e4	 mov	 ebx, DWORD PTR _this$1$[ebp]
$LN37@Emplace_re:

; 1839 :         _STD _Destroy_range(_First, _Last, _Al);

  001a4	53		 push	 ebx
  001a5	56		 push	 esi
  001a6	56		 push	 esi
  001a7	e8 00 00 00 00	 call	 ??$_Destroy_range@V?$allocator@U_QUIZLIST@CQuiz@@@std@@@std@@YAXPAU_QUIZLIST@CQuiz@@QAU12@AAV?$allocator@U_QUIZLIST@CQuiz@@@0@@Z ; std::_Destroy_range<std::allocator<CQuiz::_QUIZLIST> >
; File C:\Program Files\Microsoft Visual Studio\2022\Professional\VC\Tools\MSVC\14.44.35207\include\vector

; 909  :         } else { // provide basic guarantee

  001ac	8b 75 f0	 mov	 esi, DWORD PTR $T3[ebp]
; File C:\Program Files\Microsoft Visual Studio\2022\Professional\VC\Tools\MSVC\14.44.35207\include\xmemory

; 1839 :         _STD _Destroy_range(_First, _Last, _Al);

  001af	83 c4 0c	 add	 esp, 12			; 0000000cH
; File C:\Program Files\Microsoft Visual Studio\2022\Professional\VC\Tools\MSVC\14.44.35207\include\vector

; 909  :         } else { // provide basic guarantee

  001b2	eb 22		 jmp	 SHORT $LN4@Emplace_re
$LN3@Emplace_re:

; 910  :             _STD _Uninitialized_move(_Myfirst, _Whereptr, _Newvec, _Al);

  001b4	53		 push	 ebx
  001b5	56		 push	 esi
  001b6	51		 push	 ecx
  001b7	57		 push	 edi
  001b8	e8 00 00 00 00	 call	 ??$_Uninitialized_move@PAU_QUIZLIST@CQuiz@@V?$allocator@U_QUIZLIST@CQuiz@@@std@@@std@@YAPAU_QUIZLIST@CQuiz@@QAU12@0PAU12@AAV?$allocator@U_QUIZLIST@CQuiz@@@0@@Z ; std::_Uninitialized_move<CQuiz::_QUIZLIST *,std::allocator<CQuiz::_QUIZLIST> >

; 911  :             _Constructed_first = _Newvec;
; 912  :             _STD _Uninitialized_move(_Whereptr, _Mylast, _Newvec + _Whereoff + 1, _Al);

  001bd	8b 45 e8	 mov	 eax, DWORD PTR tv706[ebp]
  001c0	53		 push	 ebx
  001c1	83 c0 14	 add	 eax, 20			; 00000014H
  001c4	89 75 cc	 mov	 DWORD PTR __Guard$[ebp+12], esi
  001c7	50		 push	 eax
  001c8	ff 73 04	 push	 DWORD PTR [ebx+4]
  001cb	ff 75 08	 push	 DWORD PTR __Whereptr$[ebp]
  001ce	e8 00 00 00 00	 call	 ??$_Uninitialized_move@PAU_QUIZLIST@CQuiz@@V?$allocator@U_QUIZLIST@CQuiz@@@std@@@std@@YAPAU_QUIZLIST@CQuiz@@QAU12@0PAU12@AAV?$allocator@U_QUIZLIST@CQuiz@@@0@@Z ; std::_Uninitialized_move<CQuiz::_QUIZLIST *,std::allocator<CQuiz::_QUIZLIST> >
  001d3	83 c4 20	 add	 esp, 32			; 00000020H
$LN4@Emplace_re:

; 2069 :         if (_Myfirst) { // destroy and deallocate old array

  001d6	8b 0b		 mov	 ecx, DWORD PTR [ebx]
  001d8	85 c9		 test	 ecx, ecx
  001da	74 4f		 je	 SHORT $LN64@Emplace_re

; 2070 :             _STD _Destroy_range(_Myfirst, _Mylast, _Al);

  001dc	53		 push	 ebx
  001dd	ff 73 04	 push	 DWORD PTR [ebx+4]
  001e0	51		 push	 ecx
  001e1	e8 00 00 00 00	 call	 ??$_Destroy_range@V?$allocator@U_QUIZLIST@CQuiz@@@std@@@std@@YAXPAU_QUIZLIST@CQuiz@@QAU12@AAV?$allocator@U_QUIZLIST@CQuiz@@@0@@Z ; std::_Destroy_range<std::allocator<CQuiz::_QUIZLIST> >

; 2071 :             _ASAN_VECTOR_REMOVE;
; 2072 :             _Al.deallocate(_Myfirst, static_cast<size_type>(_Myend - _Myfirst));

  001e6	8b 4b 08	 mov	 ecx, DWORD PTR [ebx+8]
  001e9	b8 67 66 66 66	 mov	 eax, 1717986919		; 66666667H
  001ee	8b 3b		 mov	 edi, DWORD PTR [ebx]
  001f0	83 c4 0c	 add	 esp, 12			; 0000000cH
  001f3	2b cf		 sub	 ecx, edi
  001f5	f7 e9		 imul	 ecx
  001f7	c1 fa 03	 sar	 edx, 3
  001fa	8b c2		 mov	 eax, edx
  001fc	c1 e8 1f	 shr	 eax, 31			; 0000001fH
  001ff	03 c2		 add	 eax, edx
; File C:\Program Files\Microsoft Visual Studio\2022\Professional\VC\Tools\MSVC\14.44.35207\include\xmemory

; 985  :         _STD _Deallocate<_New_alignof<_Ty>>(_Ptr, sizeof(_Ty) * _Count);

  00201	8d 0c 80	 lea	 ecx, DWORD PTR [eax+eax*4]
  00204	c1 e1 02	 shl	 ecx, 2

; 284  :         if (_Bytes >= _Big_allocation_threshold) {

  00207	81 f9 00 10 00
	00		 cmp	 ecx, 4096		; 00001000H
  0020d	72 12		 jb	 SHORT $LN69@Emplace_re

; 205  :     const uintptr_t _Ptr_container   = _Ptr_user[-1];

  0020f	8b 57 fc	 mov	 edx, DWORD PTR [edi-4]
  00212	83 c1 23	 add	 ecx, 35			; 00000023H

; 206  : 
; 207  :     // If the following asserts, it likely means that we are performing
; 208  :     // an aligned delete on memory coming from an unaligned allocation.
; 209  :     _STL_ASSERT(_Ptr_user[-2] == _Big_allocation_sentinel, "invalid argument");
; 210  : 
; 211  :     // Extra paranoia on aligned allocation/deallocation; ensure _Ptr_container is
; 212  :     // in range [_Min_back_shift, _Non_user_size]
; 213  : #ifdef _DEBUG
; 214  :     constexpr uintptr_t _Min_back_shift = 2 * sizeof(void*);
; 215  : #else // ^^^ defined(_DEBUG) / !defined(_DEBUG) vvv
; 216  :     constexpr uintptr_t _Min_back_shift = sizeof(void*);
; 217  : #endif // ^^^ !defined(_DEBUG) ^^^
; 218  :     const uintptr_t _Back_shift = reinterpret_cast<uintptr_t>(_Ptr) - _Ptr_container;

  00215	2b fa		 sub	 edi, edx

; 219  :     _STL_VERIFY(_Back_shift >= _Min_back_shift && _Back_shift <= _Non_user_size, "invalid argument");

  00217	8d 47 fc	 lea	 eax, DWORD PTR [edi-4]
  0021a	83 f8 1f	 cmp	 eax, 31			; 0000001fH
  0021d	77 39		 ja	 SHORT $LN68@Emplace_re

; 220  :     _Ptr = reinterpret_cast<void*>(_Ptr_container);

  0021f	8b fa		 mov	 edi, edx
$LN69@Emplace_re:

; 289  :         ::operator delete(_Ptr, _Bytes);

  00221	51		 push	 ecx
  00222	57		 push	 edi
  00223	e8 00 00 00 00	 call	 ??3@YAXPAXI@Z		; operator delete
  00228	83 c4 08	 add	 esp, 8
$LN64@Emplace_re:
; File C:\Program Files\Microsoft Visual Studio\2022\Professional\VC\Tools\MSVC\14.44.35207\include\vector

; 2076 :         _Mylast  = _Newvec + _Newsize;

  0022b	8b 4d e0	 mov	 ecx, DWORD PTR __Newsize$1$[ebp]

; 913  :         }
; 914  : 
; 915  :         _Guard._New_begin = nullptr;
; 916  :         _Change_array(_Newvec, _Newsize, _Newcapacity);
; 917  :         return _Newvec + _Whereoff;

  0022e	8b 45 e8	 mov	 eax, DWORD PTR tv706[ebp]

; 2075 :         _Myfirst = _Newvec;

  00231	89 33		 mov	 DWORD PTR [ebx], esi

; 2076 :         _Mylast  = _Newvec + _Newsize;

  00233	8d 0c 89	 lea	 ecx, DWORD PTR [ecx+ecx*4]
  00236	8d 0c 8e	 lea	 ecx, DWORD PTR [esi+ecx*4]
  00239	89 4b 04	 mov	 DWORD PTR [ebx+4], ecx

; 2077 :         _Myend   = _Newvec + _Newcapacity;

  0023c	8b 4d ec	 mov	 ecx, DWORD PTR tv696[ebp]
  0023f	03 ce		 add	 ecx, esi
  00241	89 4b 08	 mov	 DWORD PTR [ebx+8], ecx

; 918  :     }

  00244	8b 4d f4	 mov	 ecx, DWORD PTR __$EHRec$[ebp]
  00247	64 89 0d 00 00
	00 00		 mov	 DWORD PTR fs:0, ecx
  0024e	59		 pop	 ecx
  0024f	5f		 pop	 edi
  00250	5e		 pop	 esi
  00251	5b		 pop	 ebx
  00252	8b e5		 mov	 esp, ebp
  00254	5d		 pop	 ebp
  00255	c2 08 00	 ret	 8
$LN68@Emplace_re:
; File C:\Program Files\Microsoft Visual Studio\2022\Professional\VC\Tools\MSVC\14.44.35207\include\xmemory

; 219  :     _STL_VERIFY(_Back_shift >= _Min_back_shift && _Back_shift <= _Non_user_size, "invalid argument");

  00258	6a 00		 push	 0
  0025a	6a 00		 push	 0
  0025c	6a 00		 push	 0
  0025e	6a 00		 push	 0
  00260	6a 00		 push	 0
  00262	e8 00 00 00 00	 call	 __invoke_watson
$LN100@Emplace_re:
; File C:\Program Files\Microsoft Visual Studio\2022\Professional\VC\Tools\MSVC\14.44.35207\include\vector

; 888  :             _Xlength();

  00267	e8 00 00 00 00	 call	 ?_Xlength@?$vector@U_QUIZLIST@CQuiz@@V?$allocator@U_QUIZLIST@CQuiz@@@std@@@std@@CAXXZ ; std::vector<CQuiz::_QUIZLIST,std::allocator<CQuiz::_QUIZLIST> >::_Xlength
$LN101@Emplace_re:
; File C:\Program Files\Microsoft Visual Studio\2022\Professional\VC\Tools\MSVC\14.44.35207\include\xmemory

; 118  :             _Throw_bad_array_new_length(); // multiply overflow

  0026c	e8 00 00 00 00	 call	 ?_Throw_bad_array_new_length@std@@YAXXZ ; std::_Throw_bad_array_new_length
$LN97@Emplace_re:
  00271	cc		 int	 3
_TEXT	ENDS
;	COMDAT text$x
text$x	SEGMENT
__unwindfunclet$??$_Emplace_reallocate@ABU_QUIZLIST@CQuiz@@@?$vector@U_QUIZLIST@CQuiz@@V?$allocator@U_QUIZLIST@CQuiz@@@std@@@std@@AAEPAU_QUIZLIST@CQuiz@@QAU23@ABU23@@Z$0:
  00000	8d 4d c0	 lea	 ecx, DWORD PTR __Guard$[ebp]
  00003	e9 00 00 00 00	 jmp	 ??1_Reallocation_guard@?$vector@U_QUIZLIST@CQuiz@@V?$allocator@U_QUIZLIST@CQuiz@@@std@@@std@@QAE@XZ ; std::vector<CQuiz::_QUIZLIST,std::allocator<CQuiz::_QUIZLIST> >::_Reallocation_guard::~_Reallocation_guard
__unwindfunclet$??$_Emplace_reallocate@ABU_QUIZLIST@CQuiz@@@?$vector@U_QUIZLIST@CQuiz@@V?$allocator@U_QUIZLIST@CQuiz@@@std@@@std@@AAEPAU_QUIZLIST@CQuiz@@QAU23@ABU23@@Z$2:
  00008	8d 4d d4	 lea	 ecx, DWORD PTR __Backout$2[ebp]
  0000b	e9 00 00 00 00	 jmp	 ??1?$_Uninitialized_backout_al@V?$allocator@U_QUIZLIST@CQuiz@@@std@@@std@@QAE@XZ ; std::_Uninitialized_backout_al<std::allocator<CQuiz::_QUIZLIST> >::~_Uninitialized_backout_al<std::allocator<CQuiz::_QUIZLIST> >
  00010	cc		 int	 3
  00011	cc		 int	 3
  00012	cc		 int	 3
  00013	cc		 int	 3
  00014	cc		 int	 3
__ehhandler$??$_Emplace_reallocate@ABU_QUIZLIST@CQuiz@@@?$vector@U_QUIZLIST@CQuiz@@V?$allocator@U_QUIZLIST@CQuiz@@@std@@@std@@AAEPAU_QUIZLIST@CQuiz@@QAU23@ABU23@@Z:
  00015	90		 npad	 1
  00016	90		 npad	 1
  00017	8b 54 24 08	 mov	 edx, DWORD PTR [esp+8]
  0001b	8d 42 0c	 lea	 eax, DWORD PTR [edx+12]
  0001e	8b 4a bc	 mov	 ecx, DWORD PTR [edx-68]
  00021	33 c8		 xor	 ecx, eax
  00023	e8 00 00 00 00	 call	 @__security_check_cookie@4
  00028	b8 00 00 00 00	 mov	 eax, OFFSET __ehfuncinfo$??$_Emplace_reallocate@ABU_QUIZLIST@CQuiz@@@?$vector@U_QUIZLIST@CQuiz@@V?$allocator@U_QUIZLIST@CQuiz@@@std@@@std@@AAEPAU_QUIZLIST@CQuiz@@QAU23@ABU23@@Z
  0002d	e9 00 00 00 00	 jmp	 ___CxxFrameHandler3
text$x	ENDS
??$_Emplace_reallocate@ABU_QUIZLIST@CQuiz@@@?$vector@U_QUIZLIST@CQuiz@@V?$allocator@U_QUIZLIST@CQuiz@@@std@@@std@@AAEPAU_QUIZLIST@CQuiz@@QAU23@ABU23@@Z ENDP ; std::vector<CQuiz::_QUIZLIST,std::allocator<CQuiz::_QUIZLIST> >::_Emplace_reallocate<CQuiz::_QUIZLIST const &>
; Function compile flags: /Ogtp
; File C:\Program Files\Microsoft Visual Studio\2022\Professional\VC\Tools\MSVC\14.44.35207\include\xmemory
;	COMDAT ??1?$_Alloc_construct_ptr@V?$allocator@U?$_Tree_node@U?$pair@$$CBKU_WORLDDATA@CQuizDBCtrl@@@std@@PAX@std@@@std@@@std@@QAE@XZ
_TEXT	SEGMENT
??1?$_Alloc_construct_ptr@V?$allocator@U?$_Tree_node@U?$pair@$$CBKU_WORLDDATA@CQuizDBCtrl@@@std@@PAX@std@@@std@@@std@@QAE@XZ PROC ; std::_Alloc_construct_ptr<std::allocator<std::_Tree_node<std::pair<unsigned long const ,CQuizDBCtrl::_WORLDDATA>,void *> > >::~_Alloc_construct_ptr<std::allocator<std::_Tree_node<std::pair<unsigned long const ,CQuizDBCtrl::_WORLDDATA>,void *> > >, COMDAT
; _this$ = ecx

; 1172 :         if (_Ptr) {

  00000	8b 41 04	 mov	 eax, DWORD PTR [ecx+4]
  00003	85 c0		 test	 eax, eax
  00005	74 0b		 je	 SHORT $LN10@Alloc_cons

; 289  :         ::operator delete(_Ptr, _Bytes);

  00007	6a 30		 push	 48			; 00000030H
  00009	50		 push	 eax
  0000a	e8 00 00 00 00	 call	 ??3@YAXPAXI@Z		; operator delete
  0000f	83 c4 08	 add	 esp, 8
$LN10@Alloc_cons:

; 1173 :             _Al.deallocate(_Ptr, 1);
; 1174 :         }
; 1175 :     }

  00012	c3		 ret	 0
??1?$_Alloc_construct_ptr@V?$allocator@U?$_Tree_node@U?$pair@$$CBKU_WORLDDATA@CQuizDBCtrl@@@std@@PAX@std@@@std@@@std@@QAE@XZ ENDP ; std::_Alloc_construct_ptr<std::allocator<std::_Tree_node<std::pair<unsigned long const ,CQuizDBCtrl::_WORLDDATA>,void *> > >::~_Alloc_construct_ptr<std::allocator<std::_Tree_node<std::pair<unsigned long const ,CQuizDBCtrl::_WORLDDATA>,void *> > >
_TEXT	ENDS
; Function compile flags: /Ogtp
; File C:\Program Files\Microsoft Visual Studio\2022\Professional\VC\Tools\MSVC\14.44.35207\include\xtree
; File C:\Program Files\Microsoft Visual Studio\2022\Professional\VC\Tools\MSVC\14.44.35207\include\type_traits
; File C:\Program Files\Microsoft Visual Studio\2022\Professional\VC\Tools\MSVC\14.44.35207\include\xtree
; File C:\Program Files\Microsoft Visual Studio\2022\Professional\VC\Tools\MSVC\14.44.35207\include\type_traits
; File C:\Program Files\Microsoft Visual Studio\2022\Professional\VC\Tools\MSVC\14.44.35207\include\xtree
;	COMDAT ??$_Find_lower_bound@K@?$_Tree@V?$_Tmap_traits@KU_WORLDDATA@CQuizDBCtrl@@U?$less@K@std@@V?$allocator@U?$pair@$$CBKU_WORLDDATA@CQuizDBCtrl@@@std@@@4@$0A@@std@@@std@@IBE?AU?$_Tree_find_result@PAU?$_Tree_node@U?$pair@$$CBKU_WORLDDATA@CQuizDBCtrl@@@std@@PAX@std@@@1@ABK@Z
_TEXT	SEGMENT
___$ReturnUdt$ = 8					; size = 4
__Keyval$ = 12						; size = 4
??$_Find_lower_bound@K@?$_Tree@V?$_Tmap_traits@KU_WORLDDATA@CQuizDBCtrl@@U?$less@K@std@@V?$allocator@U?$pair@$$CBKU_WORLDDATA@CQuizDBCtrl@@@std@@@4@$0A@@std@@@std@@IBE?AU?$_Tree_find_result@PAU?$_Tree_node@U?$pair@$$CBKU_WORLDDATA@CQuizDBCtrl@@@std@@PAX@std@@@1@ABK@Z PROC ; std::_Tree<std::_Tmap_traits<unsigned long,CQuizDBCtrl::_WORLDDATA,std::less<unsigned long>,std::allocator<std::pair<unsigned long const ,CQuizDBCtrl::_WORLDDATA> >,0> >::_Find_lower_bound<unsigned long>, COMDAT
; _this$ = ecx

; 1628 :     _Tree_find_result<_Nodeptr> _Find_lower_bound(const _Keyty& _Keyval) const {

  00000	55		 push	 ebp
  00001	8b ec		 mov	 ebp, esp

; 1629 :         const auto _Scary = _Get_scary();
; 1630 :         _Tree_find_result<_Nodeptr> _Result{{_Scary->_Myhead->_Parent, _Tree_child::_Right}, _Scary->_Myhead};

  00003	8b 09		 mov	 ecx, DWORD PTR [ecx]
  00005	8b 55 08	 mov	 edx, DWORD PTR ___$ReturnUdt$[ebp]
  00008	8b 41 04	 mov	 eax, DWORD PTR [ecx+4]
  0000b	89 02		 mov	 DWORD PTR [edx], eax
  0000d	c7 42 04 00 00
	00 00		 mov	 DWORD PTR [edx+4], 0
  00014	89 4a 08	 mov	 DWORD PTR [edx+8], ecx

; 1631 :         _Nodeptr _Trynode = _Result._Location._Parent;
; 1632 :         while (!_Trynode->_Isnil) {

  00017	80 78 0d 00	 cmp	 BYTE PTR [eax+13], 0
  0001b	75 28		 jne	 SHORT $LN13@Find_lower
; File C:\Program Files\Microsoft Visual Studio\2022\Professional\VC\Tools\MSVC\14.44.35207\include\type_traits

; 2380 :         return _Left < _Right;

  0001d	8b 4d 0c	 mov	 ecx, DWORD PTR __Keyval$[ebp]
  00020	56		 push	 esi
  00021	8b 31		 mov	 esi, DWORD PTR [ecx]
$LL2@Find_lower:
; File C:\Program Files\Microsoft Visual Studio\2022\Professional\VC\Tools\MSVC\14.44.35207\include\xtree

; 1633 :             _Result._Location._Parent = _Trynode;

  00023	89 02		 mov	 DWORD PTR [edx], eax
; File C:\Program Files\Microsoft Visual Studio\2022\Professional\VC\Tools\MSVC\14.44.35207\include\type_traits

; 2380 :         return _Left < _Right;

  00025	39 70 10	 cmp	 DWORD PTR [eax+16], esi
; File C:\Program Files\Microsoft Visual Studio\2022\Professional\VC\Tools\MSVC\14.44.35207\include\xtree

; 1634 :             if (_DEBUG_LT_PRED(_Getcomp(), _Traits::_Kfn(_Trynode->_Myval), _Keyval)) {

  00028	73 07		 jae	 SHORT $LN4@Find_lower

; 1635 :                 _Result._Location._Child = _Tree_child::_Right;
; 1636 :                 _Trynode                 = _Trynode->_Right;

  0002a	8b 40 08	 mov	 eax, DWORD PTR [eax+8]
  0002d	33 c9		 xor	 ecx, ecx

; 1637 :             } else {

  0002f	eb 0a		 jmp	 SHORT $LN5@Find_lower
$LN4@Find_lower:

; 1638 :                 _Result._Location._Child = _Tree_child::_Left;
; 1639 :                 _Result._Bound           = _Trynode;

  00031	89 42 08	 mov	 DWORD PTR [edx+8], eax

; 1640 :                 _Trynode                 = _Trynode->_Left;

  00034	b9 01 00 00 00	 mov	 ecx, 1
  00039	8b 00		 mov	 eax, DWORD PTR [eax]
$LN5@Find_lower:

; 1631 :         _Nodeptr _Trynode = _Result._Location._Parent;
; 1632 :         while (!_Trynode->_Isnil) {

  0003b	89 4a 04	 mov	 DWORD PTR [edx+4], ecx
  0003e	80 78 0d 00	 cmp	 BYTE PTR [eax+13], 0
  00042	74 df		 je	 SHORT $LL2@Find_lower
  00044	5e		 pop	 esi
$LN13@Find_lower:

; 1641 :             }
; 1642 :         }
; 1643 : 
; 1644 :         return _Result;
; 1645 :     }

  00045	8b c2		 mov	 eax, edx
  00047	5d		 pop	 ebp
  00048	c2 08 00	 ret	 8
??$_Find_lower_bound@K@?$_Tree@V?$_Tmap_traits@KU_WORLDDATA@CQuizDBCtrl@@U?$less@K@std@@V?$allocator@U?$pair@$$CBKU_WORLDDATA@CQuizDBCtrl@@@std@@@4@$0A@@std@@@std@@IBE?AU?$_Tree_find_result@PAU?$_Tree_node@U?$pair@$$CBKU_WORLDDATA@CQuizDBCtrl@@@std@@PAX@std@@@1@ABK@Z ENDP ; std::_Tree<std::_Tmap_traits<unsigned long,CQuizDBCtrl::_WORLDDATA,std::less<unsigned long>,std::allocator<std::pair<unsigned long const ,CQuizDBCtrl::_WORLDDATA> >,0> >::_Find_lower_bound<unsigned long>
_TEXT	ENDS
; Function compile flags: /Ogtp
; File C:\Program Files\Microsoft Visual Studio\2022\Professional\VC\Tools\MSVC\14.44.35207\include\xtree
; File C:\Program Files\Microsoft Visual Studio\2022\Professional\VC\Tools\MSVC\14.44.35207\include\utility
; File C:\Program Files\Microsoft Visual Studio\2022\Professional\VC\Tools\MSVC\14.44.35207\include\xmemory
; File C:\Program Files\Microsoft Visual Studio\2022\Professional\VC\Tools\MSVC\14.44.35207\include\xtree
;	COMDAT ??$_Erase_tree@V?$allocator@U?$_Tree_node@U?$pair@$$CBKU_WORLDDATA@CQuizDBCtrl@@@std@@PAX@std@@@std@@@?$_Tree_val@U?$_Tree_simple_types@U?$pair@$$CBKU_WORLDDATA@CQuizDBCtrl@@@std@@@std@@@std@@QAEXAAV?$allocator@U?$_Tree_node@U?$pair@$$CBKU_WORLDDATA@CQuizDBCtrl@@@std@@PAX@std@@@1@PAU?$_Tree_node@U?$pair@$$CBKU_WORLDDATA@CQuizDBCtrl@@@std@@PAX@1@@Z
_TEXT	SEGMENT
__Al$ = 8						; size = 4
__Rootnode$ = 12					; size = 4
??$_Erase_tree@V?$allocator@U?$_Tree_node@U?$pair@$$CBKU_WORLDDATA@CQuizDBCtrl@@@std@@PAX@std@@@std@@@?$_Tree_val@U?$_Tree_simple_types@U?$pair@$$CBKU_WORLDDATA@CQuizDBCtrl@@@std@@@std@@@std@@QAEXAAV?$allocator@U?$_Tree_node@U?$pair@$$CBKU_WORLDDATA@CQuizDBCtrl@@@std@@PAX@std@@@1@PAU?$_Tree_node@U?$pair@$$CBKU_WORLDDATA@CQuizDBCtrl@@@std@@PAX@1@@Z PROC ; std::_Tree_val<std::_Tree_simple_types<std::pair<unsigned long const ,CQuizDBCtrl::_WORLDDATA> > >::_Erase_tree<std::allocator<std::_Tree_node<std::pair<unsigned long const ,CQuizDBCtrl::_WORLDDATA>,void *> > >, COMDAT
; _this$ = ecx

; 767  :     void _Erase_tree(_Alnode& _Al, _Nodeptr _Rootnode) noexcept {

  00000	55		 push	 ebp
  00001	8b ec		 mov	 ebp, esp
  00003	53		 push	 ebx
  00004	56		 push	 esi

; 768  :         while (!_Rootnode->_Isnil) { // free subtrees, then node

  00005	8b 75 0c	 mov	 esi, DWORD PTR __Rootnode$[ebp]
  00008	8b d9		 mov	 ebx, ecx
  0000a	80 7e 0d 00	 cmp	 BYTE PTR [esi+13], 0
  0000e	75 25		 jne	 SHORT $LN34@Erase_tree
  00010	57		 push	 edi
  00011	8b 7d 08	 mov	 edi, DWORD PTR __Al$[ebp]
$LL2@Erase_tree:

; 769  :             _Erase_tree(_Al, _Rootnode->_Right);

  00014	ff 76 08	 push	 DWORD PTR [esi+8]
  00017	8b cb		 mov	 ecx, ebx
  00019	57		 push	 edi
  0001a	e8 00 00 00 00	 call	 ??$_Erase_tree@V?$allocator@U?$_Tree_node@U?$pair@$$CBKU_WORLDDATA@CQuizDBCtrl@@@std@@PAX@std@@@std@@@?$_Tree_val@U?$_Tree_simple_types@U?$pair@$$CBKU_WORLDDATA@CQuizDBCtrl@@@std@@@std@@@std@@QAEXAAV?$allocator@U?$_Tree_node@U?$pair@$$CBKU_WORLDDATA@CQuizDBCtrl@@@std@@PAX@std@@@1@PAU?$_Tree_node@U?$pair@$$CBKU_WORLDDATA@CQuizDBCtrl@@@std@@PAX@1@@Z ; std::_Tree_val<std::_Tree_simple_types<std::pair<unsigned long const ,CQuizDBCtrl::_WORLDDATA> > >::_Erase_tree<std::allocator<std::_Tree_node<std::pair<unsigned long const ,CQuizDBCtrl::_WORLDDATA>,void *> > >
; File C:\Program Files\Microsoft Visual Studio\2022\Professional\VC\Tools\MSVC\14.44.35207\include\utility

; 773  :     _Ty _Old_val = static_cast<_Ty&&>(_Val);

  0001f	8b c6		 mov	 eax, esi

; 774  :     _Val         = static_cast<_Other&&>(_New_val);

  00021	8b 36		 mov	 esi, DWORD PTR [esi]
; File C:\Program Files\Microsoft Visual Studio\2022\Professional\VC\Tools\MSVC\14.44.35207\include\xmemory

; 289  :         ::operator delete(_Ptr, _Bytes);

  00023	6a 30		 push	 48			; 00000030H
  00025	50		 push	 eax
  00026	e8 00 00 00 00	 call	 ??3@YAXPAXI@Z		; operator delete
  0002b	83 c4 08	 add	 esp, 8
; File C:\Program Files\Microsoft Visual Studio\2022\Professional\VC\Tools\MSVC\14.44.35207\include\xtree

; 768  :         while (!_Rootnode->_Isnil) { // free subtrees, then node

  0002e	80 7e 0d 00	 cmp	 BYTE PTR [esi+13], 0
  00032	74 e0		 je	 SHORT $LL2@Erase_tree
  00034	5f		 pop	 edi
$LN34@Erase_tree:
  00035	5e		 pop	 esi

; 770  :             _Alnode::value_type::_Freenode(_Al, _STD exchange(_Rootnode, _Rootnode->_Left));
; 771  :         }
; 772  :     }

  00036	5b		 pop	 ebx
  00037	5d		 pop	 ebp
  00038	c2 08 00	 ret	 8
??$_Erase_tree@V?$allocator@U?$_Tree_node@U?$pair@$$CBKU_WORLDDATA@CQuizDBCtrl@@@std@@PAX@std@@@std@@@?$_Tree_val@U?$_Tree_simple_types@U?$pair@$$CBKU_WORLDDATA@CQuizDBCtrl@@@std@@@std@@@std@@QAEXAAV?$allocator@U?$_Tree_node@U?$pair@$$CBKU_WORLDDATA@CQuizDBCtrl@@@std@@PAX@std@@@1@PAU?$_Tree_node@U?$pair@$$CBKU_WORLDDATA@CQuizDBCtrl@@@std@@PAX@1@@Z ENDP ; std::_Tree_val<std::_Tree_simple_types<std::pair<unsigned long const ,CQuizDBCtrl::_WORLDDATA> > >::_Erase_tree<std::allocator<std::_Tree_node<std::pair<unsigned long const ,CQuizDBCtrl::_WORLDDATA>,void *> > >
_TEXT	ENDS
; Function compile flags: /Ogtp
; File C:\Program Files\Microsoft Visual Studio\2022\Professional\VC\Tools\MSVC\14.44.35207\include\xmemory
; File C:\Program Files\Microsoft Visual Studio\2022\Professional\VC\Tools\MSVC\14.44.35207\atlmfc\include\atlsimpstr.h
; File C:\Program Files\Microsoft Visual Studio\2022\Professional\VC\Tools\MSVC\14.44.35207\include\xmemory
;	COMDAT ??$_Destroy_range@V?$allocator@U_QUIZLIST@CQuiz@@@std@@@std@@YAXPAU_QUIZLIST@CQuiz@@QAU12@AAV?$allocator@U_QUIZLIST@CQuiz@@@0@@Z
_TEXT	SEGMENT
__$EHRec$ = -12						; size = 12
__First$ = 8						; size = 4
__Last$ = 12						; size = 4
__Al$ = 16						; size = 4
??$_Destroy_range@V?$allocator@U_QUIZLIST@CQuiz@@@std@@@std@@YAXPAU_QUIZLIST@CQuiz@@QAU12@AAV?$allocator@U_QUIZLIST@CQuiz@@@0@@Z PROC ; std::_Destroy_range<std::allocator<CQuiz::_QUIZLIST> >, COMDAT

; 1098 : _CONSTEXPR20 void _Destroy_range(_Alloc_ptr_t<_Alloc> _First, const _Alloc_ptr_t<_Alloc> _Last, _Alloc& _Al) noexcept {

  00000	55		 push	 ebp
  00001	8b ec		 mov	 ebp, esp
  00003	6a ff		 push	 -1
  00005	68 00 00 00 00	 push	 __ehhandler$??$_Destroy_range@V?$allocator@U_QUIZLIST@CQuiz@@@std@@@std@@YAXPAU_QUIZLIST@CQuiz@@QAU12@AAV?$allocator@U_QUIZLIST@CQuiz@@@0@@Z
  0000a	64 a1 00 00 00
	00		 mov	 eax, DWORD PTR fs:0
  00010	50		 push	 eax
  00011	56		 push	 esi
  00012	57		 push	 edi
  00013	a1 00 00 00 00	 mov	 eax, DWORD PTR ___security_cookie
  00018	33 c5		 xor	 eax, ebp
  0001a	50		 push	 eax
  0001b	8d 45 f4	 lea	 eax, DWORD PTR __$EHRec$[ebp]
  0001e	64 a3 00 00 00
	00		 mov	 DWORD PTR fs:0, eax

; 1102 :         for (; _First != _Last; ++_First) {

  00024	8b 75 08	 mov	 esi, DWORD PTR __First$[ebp]
  00027	8b 7d 0c	 mov	 edi, DWORD PTR __Last$[ebp]
  0002a	3b f7		 cmp	 esi, edi
  0002c	74 24		 je	 SHORT $LN3@Destroy_ra
  0002e	66 90		 npad	 2
$LL4@Destroy_ra:
; File C:\Program Files\Microsoft Visual Studio\2022\Professional\VC\Tools\MSVC\14.44.35207\atlmfc\include\atlsimpstr.h

; 804  : 		return( reinterpret_cast< CStringData* >( m_pszData )-1 );

  00030	8b 56 04	 mov	 edx, DWORD PTR [esi+4]

; 92   : 		if( _InterlockedDecrement( &nRefs ) <= 0 )

  00033	83 c8 ff	 or	 eax, -1

; 804  : 		return( reinterpret_cast< CStringData* >( m_pszData )-1 );

  00036	83 ea 10	 sub	 edx, 16			; 00000010H

; 92   : 		if( _InterlockedDecrement( &nRefs ) <= 0 )

  00039	f0 0f c1 42 0c	 lock	  xadd	 DWORD PTR [edx+12], eax
  0003e	48		 dec	 eax
  0003f	85 c0		 test	 eax, eax
  00041	7f 08		 jg	 SHORT $LN25@Destroy_ra

; 93   : 		{
; 94   : 			pStringMgr->Free( this );

  00043	8b 0a		 mov	 ecx, DWORD PTR [edx]
  00045	52		 push	 edx
  00046	8b 01		 mov	 eax, DWORD PTR [ecx]
  00048	ff 50 04	 call	 DWORD PTR [eax+4]
$LN25@Destroy_ra:
; File C:\Program Files\Microsoft Visual Studio\2022\Professional\VC\Tools\MSVC\14.44.35207\include\xmemory

; 1102 :         for (; _First != _Last; ++_First) {

  0004b	83 c6 14	 add	 esi, 20			; 00000014H
  0004e	3b f7		 cmp	 esi, edi
  00050	75 de		 jne	 SHORT $LL4@Destroy_ra
$LN3@Destroy_ra:

; 1103 :             allocator_traits<_Alloc>::destroy(_Al, _STD _Unfancy(_First));
; 1104 :         }
; 1105 :     }
; 1106 : }

  00052	8b 4d f4	 mov	 ecx, DWORD PTR __$EHRec$[ebp]
  00055	64 89 0d 00 00
	00 00		 mov	 DWORD PTR fs:0, ecx
  0005c	59		 pop	 ecx
  0005d	5f		 pop	 edi
  0005e	5e		 pop	 esi
  0005f	8b e5		 mov	 esp, ebp
  00061	5d		 pop	 ebp
  00062	c3		 ret	 0
  00063	cc		 int	 3
  00064	cc		 int	 3
  00065	cc		 int	 3
  00066	cc		 int	 3
  00067	cc		 int	 3
_TEXT	ENDS
;	COMDAT text$x
text$x	SEGMENT
__ehhandler$??$_Destroy_range@V?$allocator@U_QUIZLIST@CQuiz@@@std@@@std@@YAXPAU_QUIZLIST@CQuiz@@QAU12@AAV?$allocator@U_QUIZLIST@CQuiz@@@0@@Z:
  00000	90		 npad	 1
  00001	90		 npad	 1
  00002	8b 54 24 08	 mov	 edx, DWORD PTR [esp+8]
  00006	8d 42 0c	 lea	 eax, DWORD PTR [edx+12]
  00009	8b 4a f4	 mov	 ecx, DWORD PTR [edx-12]
  0000c	33 c8		 xor	 ecx, eax
  0000e	e8 00 00 00 00	 call	 @__security_check_cookie@4
  00013	b8 00 00 00 00	 mov	 eax, OFFSET __ehfuncinfo$??$_Destroy_range@V?$allocator@U_QUIZLIST@CQuiz@@@std@@@std@@YAXPAU_QUIZLIST@CQuiz@@QAU12@AAV?$allocator@U_QUIZLIST@CQuiz@@@0@@Z
  00018	e9 00 00 00 00	 jmp	 ___CxxFrameHandler3
text$x	ENDS
??$_Destroy_range@V?$allocator@U_QUIZLIST@CQuiz@@@std@@@std@@YAXPAU_QUIZLIST@CQuiz@@QAU12@AAV?$allocator@U_QUIZLIST@CQuiz@@@0@@Z ENDP ; std::_Destroy_range<std::allocator<CQuiz::_QUIZLIST> >
; Function compile flags: /Ogtp
;	COMDAT ??__FsQuizDBMng@?1??GetInstance@CQuizDBMng@@SAPAV1@XZ@YAXXZ
text$yd	SEGMENT
??__FsQuizDBMng@?1??GetInstance@CQuizDBMng@@SAPAV1@XZ@YAXXZ PROC ; `CQuizDBMng::GetInstance'::`2'::`dynamic atexit destructor for 'sQuizDBMng'', COMDAT
  00000	b9 00 00 00 00	 mov	 ecx, OFFSET ?sQuizDBMng@?1??GetInstance@CQuizDBMng@@SAPAV2@XZ@4V2@A
  00005	e9 00 00 00 00	 jmp	 ??1CQuizDBMng@@QAE@XZ	; CQuizDBMng::~CQuizDBMng
??__FsQuizDBMng@?1??GetInstance@CQuizDBMng@@SAPAV1@XZ@YAXXZ ENDP ; `CQuizDBMng::GetInstance'::`2'::`dynamic atexit destructor for 'sQuizDBMng''
text$yd	ENDS
; Function compile flags: /Ogtp
; File C:\Program Files\Microsoft Visual Studio\2022\Professional\VC\Tools\MSVC\14.44.35207\include\xtree
;	COMDAT ??E?$_Tree_unchecked_const_iterator@V?$_Tree_val@U?$_Tree_simple_types@U?$pair@$$CBKU_WORLDDATA@CQuizDBCtrl@@@std@@@std@@@std@@U_Iterator_base0@2@@std@@QAEAAV01@XZ
_TEXT	SEGMENT
??E?$_Tree_unchecked_const_iterator@V?$_Tree_val@U?$_Tree_simple_types@U?$pair@$$CBKU_WORLDDATA@CQuizDBCtrl@@@std@@@std@@@std@@U_Iterator_base0@2@@std@@QAEAAV01@XZ PROC ; std::_Tree_unchecked_const_iterator<std::_Tree_val<std::_Tree_simple_types<std::pair<unsigned long const ,CQuizDBCtrl::_WORLDDATA> > >,std::_Iterator_base0>::operator++, COMDAT
; _this$ = ecx

; 49   :     _Tree_unchecked_const_iterator& operator++() noexcept {

  00000	56		 push	 esi
  00001	8b f1		 mov	 esi, ecx
  00003	57		 push	 edi

; 50   :         if (_Ptr->_Right->_Isnil) { // climb looking for right subtree

  00004	8b 16		 mov	 edx, DWORD PTR [esi]
  00006	8b 7a 08	 mov	 edi, DWORD PTR [edx+8]
  00009	80 7f 0d 00	 cmp	 BYTE PTR [edi+13], 0
  0000d	74 22		 je	 SHORT $LN4@operator

; 51   :             _Nodeptr _Pnode;
; 52   :             while (!(_Pnode = _Ptr->_Parent)->_Isnil && _Ptr == _Pnode->_Right) {

  0000f	8b 42 04	 mov	 eax, DWORD PTR [edx+4]
  00012	80 78 0d 00	 cmp	 BYTE PTR [eax+13], 0
  00016	75 12		 jne	 SHORT $LN21@operator
$LL2@operator:
  00018	3b 50 08	 cmp	 edx, DWORD PTR [eax+8]
  0001b	75 0d		 jne	 SHORT $LN21@operator

; 53   :                 _Ptr = _Pnode; // ==> parent while right subtree

  0001d	89 06		 mov	 DWORD PTR [esi], eax
  0001f	8b d0		 mov	 edx, eax
  00021	8b 40 04	 mov	 eax, DWORD PTR [eax+4]
  00024	80 78 0d 00	 cmp	 BYTE PTR [eax+13], 0
  00028	74 ee		 je	 SHORT $LL2@operator
$LN21@operator:

; 54   :             }
; 55   : 
; 56   :             _Ptr = _Pnode; // ==> parent (head if end())
; 57   :         } else {
; 58   :             _Ptr = _Mytree::_Min(_Ptr->_Right); // ==> smallest of right subtree
; 59   :         }
; 60   : 
; 61   :         return *this;

  0002a	89 06		 mov	 DWORD PTR [esi], eax

; 62   :     }

  0002c	8b c6		 mov	 eax, esi
  0002e	5f		 pop	 edi
  0002f	5e		 pop	 esi
  00030	c3		 ret	 0
$LN4@operator:

; 476  :         while (!_Pnode->_Left->_Isnil) {

  00031	8b 0f		 mov	 ecx, DWORD PTR [edi]
  00033	80 79 0d 00	 cmp	 BYTE PTR [ecx+13], 0
  00037	75 13		 jne	 SHORT $LN10@operator
  00039	0f 1f 80 00 00
	00 00		 npad	 7
$LL9@operator:
  00040	8b 01		 mov	 eax, DWORD PTR [ecx]

; 477  :             _Pnode = _Pnode->_Left;

  00042	8b f9		 mov	 edi, ecx
  00044	8b c8		 mov	 ecx, eax
  00046	80 78 0d 00	 cmp	 BYTE PTR [eax+13], 0
  0004a	74 f4		 je	 SHORT $LL9@operator
$LN10@operator:

; 54   :             }
; 55   : 
; 56   :             _Ptr = _Pnode; // ==> parent (head if end())
; 57   :         } else {
; 58   :             _Ptr = _Mytree::_Min(_Ptr->_Right); // ==> smallest of right subtree
; 59   :         }
; 60   : 
; 61   :         return *this;

  0004c	89 3e		 mov	 DWORD PTR [esi], edi

; 62   :     }

  0004e	8b c6		 mov	 eax, esi
  00050	5f		 pop	 edi
  00051	5e		 pop	 esi
  00052	c3		 ret	 0
??E?$_Tree_unchecked_const_iterator@V?$_Tree_val@U?$_Tree_simple_types@U?$pair@$$CBKU_WORLDDATA@CQuizDBCtrl@@@std@@@std@@@std@@U_Iterator_base0@2@@std@@QAEAAV01@XZ ENDP ; std::_Tree_unchecked_const_iterator<std::_Tree_val<std::_Tree_simple_types<std::pair<unsigned long const ,CQuizDBCtrl::_WORLDDATA> > >,std::_Iterator_base0>::operator++
_TEXT	ENDS
; Function compile flags: /Ogtp
; File C:\Program Files\Microsoft Visual Studio\2022\Professional\VC\Tools\MSVC\14.44.35207\include\vector
;	COMDAT ?_Xlength@?$vector@U_QUIZLIST@CQuiz@@V?$allocator@U_QUIZLIST@CQuiz@@@std@@@std@@CAXXZ
_TEXT	SEGMENT
?_Xlength@?$vector@U_QUIZLIST@CQuiz@@V?$allocator@U_QUIZLIST@CQuiz@@@std@@@std@@CAXXZ PROC ; std::vector<CQuiz::_QUIZLIST,std::allocator<CQuiz::_QUIZLIST> >::_Xlength, COMDAT

; 2184 :         _Xlength_error("vector too long");

  00000	68 00 00 00 00	 push	 OFFSET ??_C@_0BA@FOIKENOD@vector?5too?5long@
  00005	e8 00 00 00 00	 call	 ?_Xlength_error@std@@YAXPBD@Z ; std::_Xlength_error
$LN3@Xlength:
  0000a	cc		 int	 3
?_Xlength@?$vector@U_QUIZLIST@CQuiz@@V?$allocator@U_QUIZLIST@CQuiz@@@std@@@std@@CAXXZ ENDP ; std::vector<CQuiz::_QUIZLIST,std::allocator<CQuiz::_QUIZLIST> >::_Xlength
_TEXT	ENDS
; Function compile flags: /Ogtp
; File C:\Program Files\Microsoft Visual Studio\2022\Professional\VC\Tools\MSVC\14.44.35207\atlmfc\include\atlsimpstr.h
;	COMDAT ??1_QUIZLIST@CQuiz@@QAE@XZ
_TEXT	SEGMENT
__$EHRec$ = -12						; size = 12
??1_QUIZLIST@CQuiz@@QAE@XZ PROC				; CQuiz::_QUIZLIST::~_QUIZLIST, COMDAT
; _this$ = ecx
  00000	55		 push	 ebp
  00001	8b ec		 mov	 ebp, esp
  00003	6a ff		 push	 -1
  00005	68 00 00 00 00	 push	 __ehhandler$??1_QUIZLIST@CQuiz@@QAE@XZ
  0000a	64 a1 00 00 00
	00		 mov	 eax, DWORD PTR fs:0
  00010	50		 push	 eax
  00011	a1 00 00 00 00	 mov	 eax, DWORD PTR ___security_cookie
  00016	33 c5		 xor	 eax, ebp
  00018	50		 push	 eax
  00019	8d 45 f4	 lea	 eax, DWORD PTR __$EHRec$[ebp]
  0001c	64 a3 00 00 00
	00		 mov	 DWORD PTR fs:0, eax

; 804  : 		return( reinterpret_cast< CStringData* >( m_pszData )-1 );

  00022	8b 51 04	 mov	 edx, DWORD PTR [ecx+4]

; 92   : 		if( _InterlockedDecrement( &nRefs ) <= 0 )

  00025	83 c8 ff	 or	 eax, -1

; 804  : 		return( reinterpret_cast< CStringData* >( m_pszData )-1 );

  00028	83 ea 10	 sub	 edx, 16			; 00000010H

; 92   : 		if( _InterlockedDecrement( &nRefs ) <= 0 )

  0002b	f0 0f c1 42 0c	 lock	  xadd	 DWORD PTR [edx+12], eax
  00030	48		 dec	 eax
  00031	85 c0		 test	 eax, eax
  00033	7f 08		 jg	 SHORT $LN11@QUIZLIST

; 93   : 		{
; 94   : 			pStringMgr->Free( this );

  00035	8b 0a		 mov	 ecx, DWORD PTR [edx]
  00037	52		 push	 edx
  00038	8b 01		 mov	 eax, DWORD PTR [ecx]
  0003a	ff 50 04	 call	 DWORD PTR [eax+4]
$LN11@QUIZLIST:
  0003d	8b 4d f4	 mov	 ecx, DWORD PTR __$EHRec$[ebp]
  00040	64 89 0d 00 00
	00 00		 mov	 DWORD PTR fs:0, ecx
  00047	59		 pop	 ecx
  00048	8b e5		 mov	 esp, ebp
  0004a	5d		 pop	 ebp
  0004b	c3		 ret	 0
  0004c	cc		 int	 3
  0004d	cc		 int	 3
  0004e	cc		 int	 3
  0004f	cc		 int	 3
  00050	cc		 int	 3
_TEXT	ENDS
;	COMDAT text$x
text$x	SEGMENT
__ehhandler$??1_QUIZLIST@CQuiz@@QAE@XZ:
  00000	90		 npad	 1
  00001	90		 npad	 1
  00002	8b 54 24 08	 mov	 edx, DWORD PTR [esp+8]
  00006	8d 42 0c	 lea	 eax, DWORD PTR [edx+12]
  00009	8b 4a fc	 mov	 ecx, DWORD PTR [edx-4]
  0000c	33 c8		 xor	 ecx, eax
  0000e	e8 00 00 00 00	 call	 @__security_check_cookie@4
  00013	b8 00 00 00 00	 mov	 eax, OFFSET __ehfuncinfo$??1_QUIZLIST@CQuiz@@QAE@XZ
  00018	e9 00 00 00 00	 jmp	 ___CxxFrameHandler3
text$x	ENDS
??1_QUIZLIST@CQuiz@@QAE@XZ ENDP				; CQuiz::_QUIZLIST::~_QUIZLIST
; Function compile flags: /Ogtp
; File C:\IAGOS\server\v18\Source\Source\_Network\Misc\Include\Ar.h
;	COMDAT ??$?5K@CAr@@QAEAAV0@AAK@Z
_TEXT	SEGMENT
_t$ = 8							; size = 4
??$?5K@CAr@@QAEAAV0@AAK@Z PROC				; CAr::operator>><unsigned long>, COMDAT
; _this$ = ecx

; 302  : {

  00000	55		 push	 ebp
  00001	8b ec		 mov	 ebp, esp
  00003	8b d1		 mov	 edx, ecx

; 303  : 	if (m_lpBufCur + sizeof(T) <= m_lpBufMax)

  00005	8b 4a 08	 mov	 ecx, DWORD PTR [edx+8]
  00008	8d 41 04	 lea	 eax, DWORD PTR [ecx+4]
  0000b	3b 42 0c	 cmp	 eax, DWORD PTR [edx+12]
  0000e	8b 45 08	 mov	 eax, DWORD PTR _t$[ebp]
  00011	77 0e		 ja	 SHORT $LN2@operator

; 304  : 	{
; 305  : 		t = *(UNALIGNED T*)m_lpBufCur;

  00013	8b 09		 mov	 ecx, DWORD PTR [ecx]
  00015	89 08		 mov	 DWORD PTR [eax], ecx

; 312  : 	}
; 313  : 	return *this;
; 314  : }

  00017	8b c2		 mov	 eax, edx
  00019	83 42 08 04	 add	 DWORD PTR [edx+8], 4
  0001d	5d		 pop	 ebp
  0001e	c2 04 00	 ret	 4
$LN2@operator:

; 306  : 		m_lpBufCur += sizeof(T);
; 307  : 	}
; 308  : 	else
; 309  : 	{
; 310  : 		t = T();

  00021	c7 00 00 00 00
	00		 mov	 DWORD PTR [eax], 0

; 311  : 		m_lpBufCur = m_lpBufMax;

  00027	8b 42 0c	 mov	 eax, DWORD PTR [edx+12]
  0002a	89 42 08	 mov	 DWORD PTR [edx+8], eax

; 312  : 	}
; 313  : 	return *this;
; 314  : }

  0002d	8b c2		 mov	 eax, edx
  0002f	5d		 pop	 ebp
  00030	c2 04 00	 ret	 4
??$?5K@CAr@@QAEAAV0@AAK@Z ENDP				; CAr::operator>><unsigned long>
_TEXT	ENDS
; Function compile flags: /Ogtp
; File C:\IAGOS\server\v18\Source\Source\_Network\Misc\Include\Ar.h
;	COMDAT ??$?5H@CAr@@QAEAAV0@AAH@Z
_TEXT	SEGMENT
_t$ = 8							; size = 4
??$?5H@CAr@@QAEAAV0@AAH@Z PROC				; CAr::operator>><int>, COMDAT
; _this$ = ecx

; 302  : {

  00000	55		 push	 ebp
  00001	8b ec		 mov	 ebp, esp
  00003	8b d1		 mov	 edx, ecx

; 303  : 	if (m_lpBufCur + sizeof(T) <= m_lpBufMax)

  00005	8b 4a 08	 mov	 ecx, DWORD PTR [edx+8]
  00008	8d 41 04	 lea	 eax, DWORD PTR [ecx+4]
  0000b	3b 42 0c	 cmp	 eax, DWORD PTR [edx+12]
  0000e	8b 45 08	 mov	 eax, DWORD PTR _t$[ebp]
  00011	77 0e		 ja	 SHORT $LN2@operator

; 304  : 	{
; 305  : 		t = *(UNALIGNED T*)m_lpBufCur;

  00013	8b 09		 mov	 ecx, DWORD PTR [ecx]
  00015	89 08		 mov	 DWORD PTR [eax], ecx

; 312  : 	}
; 313  : 	return *this;
; 314  : }

  00017	8b c2		 mov	 eax, edx
  00019	83 42 08 04	 add	 DWORD PTR [edx+8], 4
  0001d	5d		 pop	 ebp
  0001e	c2 04 00	 ret	 4
$LN2@operator:

; 306  : 		m_lpBufCur += sizeof(T);
; 307  : 	}
; 308  : 	else
; 309  : 	{
; 310  : 		t = T();

  00021	c7 00 00 00 00
	00		 mov	 DWORD PTR [eax], 0

; 311  : 		m_lpBufCur = m_lpBufMax;

  00027	8b 42 0c	 mov	 eax, DWORD PTR [edx+12]
  0002a	89 42 08	 mov	 DWORD PTR [edx+8], eax

; 312  : 	}
; 313  : 	return *this;
; 314  : }

  0002d	8b c2		 mov	 eax, edx
  0002f	5d		 pop	 ebp
  00030	c2 04 00	 ret	 4
??$?5H@CAr@@QAEAAV0@AAH@Z ENDP				; CAr::operator>><int>
_TEXT	ENDS
; Function compile flags: /Ogtp
; File C:\IAGOS\server\v18\Source\Source\DatabaseServer\QuizDBCtrl.cpp
;	COMDAT ?CreateLogQuery@CQuizDBMng@@QAEPAVCQuery@@XZ
_TEXT	SEGMENT
$T2 = -16						; size = 4
__$EHRec$ = -12						; size = 12
?CreateLogQuery@CQuizDBMng@@QAEPAVCQuery@@XZ PROC	; CQuizDBMng::CreateLogQuery, COMDAT
; _this$ = ecx

; 355  : {

  00000	55		 push	 ebp
  00001	8b ec		 mov	 ebp, esp
  00003	6a ff		 push	 -1
  00005	68 00 00 00 00	 push	 __ehhandler$?CreateLogQuery@CQuizDBMng@@QAEPAVCQuery@@XZ
  0000a	64 a1 00 00 00
	00		 mov	 eax, DWORD PTR fs:0
  00010	50		 push	 eax
  00011	51		 push	 ecx
  00012	56		 push	 esi
  00013	a1 00 00 00 00	 mov	 eax, DWORD PTR ___security_cookie
  00018	33 c5		 xor	 eax, ebp
  0001a	50		 push	 eax
  0001b	8d 45 f4	 lea	 eax, DWORD PTR __$EHRec$[ebp]
  0001e	64 a3 00 00 00
	00		 mov	 DWORD PTR fs:0, eax

; 356  : 	CQuery* pQuery = new CQuery;

  00024	68 10 3d 00 00	 push	 15632			; 00003d10H
  00029	e8 00 00 00 00	 call	 ??2@YAPAXI@Z		; operator new
  0002e	83 c4 04	 add	 esp, 4
  00031	89 45 f0	 mov	 DWORD PTR $T2[ebp], eax
  00034	c7 45 fc 00 00
	00 00		 mov	 DWORD PTR __$EHRec$[ebp+8], 0
  0003b	85 c0		 test	 eax, eax
  0003d	74 0b		 je	 SHORT $LN5@CreateLogQ
  0003f	8b c8		 mov	 ecx, eax
  00041	e8 00 00 00 00	 call	 ??0CQuery@@QAE@XZ	; CQuery::CQuery
  00046	8b f0		 mov	 esi, eax
  00048	eb 02		 jmp	 SHORT $LN6@CreateLogQ
$LN5@CreateLogQ:
  0004a	33 f6		 xor	 esi, esi
$LN6@CreateLogQ:
  0004c	c7 45 fc ff ff
	ff ff		 mov	 DWORD PTR __$EHRec$[ebp+8], -1

; 357  : 
; 358  : 	const char* pass	= CDbManager::GetInstance().DB_ADMIN_PASS_LOG;

  00053	e8 00 00 00 00	 call	 ?GetInstance@CDbManager@@SAAAV1@XZ ; CDbManager::GetInstance
  00058	05 98 03 00 00	 add	 eax, 920		; 00000398H

; 359  : 	if( FALSE == pQuery->Connect( 3, DSN_NAME_LOG, DB_ADMIN_ID_LOG, pass ) )

  0005d	8b ce		 mov	 ecx, esi
  0005f	50		 push	 eax
  00060	68 00 00 00 00	 push	 OFFSET ?DB_ADMIN_ID_LOG@@3PADA ; DB_ADMIN_ID_LOG
  00065	68 00 00 00 00	 push	 OFFSET ?DSN_NAME_LOG@@3PADA ; DSN_NAME_LOG
  0006a	6a 03		 push	 3
  0006c	e8 00 00 00 00	 call	 ?Connect@CQuery@@QAEHHPAD0PBD@Z ; CQuery::Connect
  00071	85 c0		 test	 eax, eax
  00073	75 37		 jne	 SHORT $LN15@CreateLogQ

; 360  : 	{
; 361  : 		::AfxMessageBox( "Can't connect db: CQuizDBCtrl.CreateLogQuery" );

  00075	50		 push	 eax
  00076	50		 push	 eax
  00077	68 00 00 00 00	 push	 OFFSET ??_C@_0CN@JDPLLBGJ@Can?8t?5connect?5db?3?5CQuizDBCtrl?4C@
  0007c	e8 00 00 00 00	 call	 ?AfxMessageBox@@YGHPBDII@Z ; AfxMessageBox

; 362  : 		SAFE_DELETE( pQuery );

  00081	85 f6		 test	 esi, esi
  00083	74 27		 je	 SHORT $LN15@CreateLogQ

; 363  : 	}
; 364  : 	return pQuery;

  00085	8b ce		 mov	 ecx, esi
  00087	e8 00 00 00 00	 call	 ??1CQuery@@QAE@XZ	; CQuery::~CQuery
  0008c	68 10 3d 00 00	 push	 15632			; 00003d10H
  00091	56		 push	 esi
  00092	e8 00 00 00 00	 call	 ??3@YAXPAXI@Z		; operator delete
  00097	83 c4 08	 add	 esp, 8
  0009a	33 c0		 xor	 eax, eax

; 365  : }

  0009c	8b 4d f4	 mov	 ecx, DWORD PTR __$EHRec$[ebp]
  0009f	64 89 0d 00 00
	00 00		 mov	 DWORD PTR fs:0, ecx
  000a6	59		 pop	 ecx
  000a7	5e		 pop	 esi
  000a8	8b e5		 mov	 esp, ebp
  000aa	5d		 pop	 ebp
  000ab	c3		 ret	 0
$LN15@CreateLogQ:
  000ac	8b c6		 mov	 eax, esi
  000ae	8b 4d f4	 mov	 ecx, DWORD PTR __$EHRec$[ebp]
  000b1	64 89 0d 00 00
	00 00		 mov	 DWORD PTR fs:0, ecx
  000b8	59		 pop	 ecx
  000b9	5e		 pop	 esi
  000ba	8b e5		 mov	 esp, ebp
  000bc	5d		 pop	 ebp
  000bd	c3		 ret	 0
_TEXT	ENDS
;	COMDAT text$x
text$x	SEGMENT
__unwindfunclet$?CreateLogQuery@CQuizDBMng@@QAEPAVCQuery@@XZ$0:
  00000	68 10 3d 00 00	 push	 15632			; 00003d10H
  00005	8b 45 f0	 mov	 eax, DWORD PTR $T2[ebp]
  00008	50		 push	 eax
  00009	e8 00 00 00 00	 call	 ??3@YAXPAXI@Z		; operator delete
  0000e	83 c4 08	 add	 esp, 8
  00011	c3		 ret	 0
  00012	cc		 int	 3
  00013	cc		 int	 3
  00014	cc		 int	 3
  00015	cc		 int	 3
  00016	cc		 int	 3
__ehhandler$?CreateLogQuery@CQuizDBMng@@QAEPAVCQuery@@XZ:
  00017	90		 npad	 1
  00018	90		 npad	 1
  00019	8b 54 24 08	 mov	 edx, DWORD PTR [esp+8]
  0001d	8d 42 0c	 lea	 eax, DWORD PTR [edx+12]
  00020	8b 4a f4	 mov	 ecx, DWORD PTR [edx-12]
  00023	33 c8		 xor	 ecx, eax
  00025	e8 00 00 00 00	 call	 @__security_check_cookie@4
  0002a	b8 00 00 00 00	 mov	 eax, OFFSET __ehfuncinfo$?CreateLogQuery@CQuizDBMng@@QAEPAVCQuery@@XZ
  0002f	e9 00 00 00 00	 jmp	 ___CxxFrameHandler3
text$x	ENDS
?CreateLogQuery@CQuizDBMng@@QAEPAVCQuery@@XZ ENDP	; CQuizDBMng::CreateLogQuery
; Function compile flags: /Ogtp
; File C:\IAGOS\server\v18\Source\Source\DatabaseServer\QuizDBCtrl.cpp
;	COMDAT ?InitQuizEventId@CQuizDBMng@@QAEHXZ
_TEXT	SEGMENT
?InitQuizEventId@CQuizDBMng@@QAEHXZ PROC		; CQuizDBMng::InitQuizEventId, COMDAT
; _this$ = ecx

; 368  : {

  00000	56		 push	 esi
  00001	8b f1		 mov	 esi, ecx

; 369  : 	m_QuizDBCtrl.m_pQuery = CreateLogQuery();

  00003	e8 00 00 00 00	 call	 ?CreateLogQuery@CQuizDBMng@@QAEPAVCQuery@@XZ ; CQuizDBMng::CreateLogQuery
  00008	89 46 14	 mov	 DWORD PTR [esi+20], eax

; 370  : 	if( !m_QuizDBCtrl.m_pQuery )

  0000b	85 c0		 test	 eax, eax
  0000d	74 0f		 je	 SHORT $LN5@InitQuizEv

; 371  : 		return FALSE;
; 372  : 	if( !m_QuizDBCtrl.LoadQuizEventId() )

  0000f	8b ce		 mov	 ecx, esi
  00011	e8 00 00 00 00	 call	 ?LoadQuizEventId@CQuizDBCtrl@@QAEHXZ ; CQuizDBCtrl::LoadQuizEventId
  00016	f7 d8		 neg	 eax
  00018	5e		 pop	 esi
  00019	1b c0		 sbb	 eax, eax
  0001b	f7 d8		 neg	 eax

; 374  : 	return TRUE;
; 375  : }

  0001d	c3		 ret	 0
$LN5@InitQuizEv:

; 373  : 		return FALSE;

  0001e	33 c0		 xor	 eax, eax
  00020	5e		 pop	 esi

; 374  : 	return TRUE;
; 375  : }

  00021	c3		 ret	 0
?InitQuizEventId@CQuizDBMng@@QAEHXZ ENDP		; CQuizDBMng::InitQuizEventId
_TEXT	ENDS
; Function compile flags: /Ogtp
; File C:\IAGOS\server\v18\Source\Source\DatabaseServer\QuizDBCtrl.cpp
;	COMDAT ?GetInstance@CQuizDBMng@@SAPAV1@XZ
_TEXT	SEGMENT
__$EHRec$ = -12						; size = 12
?GetInstance@CQuizDBMng@@SAPAV1@XZ PROC			; CQuizDBMng::GetInstance, COMDAT

; 349  : {

  00000	55		 push	 ebp
  00001	8b ec		 mov	 ebp, esp
  00003	6a ff		 push	 -1
  00005	68 00 00 00 00	 push	 __ehhandler$?GetInstance@CQuizDBMng@@SAPAV1@XZ
  0000a	64 a1 00 00 00
	00		 mov	 eax, DWORD PTR fs:0
  00010	50		 push	 eax
  00011	a1 00 00 00 00	 mov	 eax, DWORD PTR ___security_cookie
  00016	33 c5		 xor	 eax, ebp
  00018	50		 push	 eax
  00019	8d 45 f4	 lea	 eax, DWORD PTR __$EHRec$[ebp]
  0001c	64 a3 00 00 00
	00		 mov	 DWORD PTR fs:0, eax

; 350  : 	static CQuizDBMng sQuizDBMng;

  00022	64 a1 00 00 00
	00		 mov	 eax, DWORD PTR fs:__tls_array
  00028	8b 0d 00 00 00
	00		 mov	 ecx, DWORD PTR __tls_index
  0002e	8b 0c 88	 mov	 ecx, DWORD PTR [eax+ecx*4]
  00031	a1 00 00 00 00	 mov	 eax, DWORD PTR ?$TSS0@?1??GetInstance@CQuizDBMng@@SAPAV2@XZ@4HA
  00036	3b 81 00 00 00
	00		 cmp	 eax, DWORD PTR __Init_thread_epoch[ecx]
  0003c	7f 14		 jg	 SHORT $LN9@GetInstanc
$LN5@GetInstanc:

; 351  : 	return & sQuizDBMng;
; 352  : }

  0003e	b8 00 00 00 00	 mov	 eax, OFFSET ?sQuizDBMng@?1??GetInstance@CQuizDBMng@@SAPAV2@XZ@4V2@A
  00043	8b 4d f4	 mov	 ecx, DWORD PTR __$EHRec$[ebp]
  00046	64 89 0d 00 00
	00 00		 mov	 DWORD PTR fs:0, ecx
  0004d	59		 pop	 ecx
  0004e	8b e5		 mov	 esp, ebp
  00050	5d		 pop	 ebp
  00051	c3		 ret	 0
$LN9@GetInstanc:

; 350  : 	static CQuizDBMng sQuizDBMng;

  00052	68 00 00 00 00	 push	 OFFSET ?$TSS0@?1??GetInstance@CQuizDBMng@@SAPAV2@XZ@4HA
  00057	e8 00 00 00 00	 call	 __Init_thread_header
  0005c	83 c4 04	 add	 esp, 4
  0005f	83 3d 00 00 00
	00 ff		 cmp	 DWORD PTR ?$TSS0@?1??GetInstance@CQuizDBMng@@SAPAV2@XZ@4HA, -1
  00066	75 d6		 jne	 SHORT $LN5@GetInstanc
  00068	b9 00 00 00 00	 mov	 ecx, OFFSET ?sQuizDBMng@?1??GetInstance@CQuizDBMng@@SAPAV2@XZ@4V2@A
  0006d	c7 45 fc 00 00
	00 00		 mov	 DWORD PTR __$EHRec$[ebp+8], 0
  00074	e8 00 00 00 00	 call	 ??0CQuizDBMng@@QAE@XZ	; CQuizDBMng::CQuizDBMng
  00079	68 00 00 00 00	 push	 OFFSET ??__FsQuizDBMng@?1??GetInstance@CQuizDBMng@@SAPAV1@XZ@YAXXZ ; `CQuizDBMng::GetInstance'::`2'::`dynamic atexit destructor for 'sQuizDBMng''
  0007e	e8 00 00 00 00	 call	 _atexit
  00083	68 00 00 00 00	 push	 OFFSET ?$TSS0@?1??GetInstance@CQuizDBMng@@SAPAV2@XZ@4HA
  00088	e8 00 00 00 00	 call	 __Init_thread_footer
  0008d	83 c4 08	 add	 esp, 8
  00090	eb ac		 jmp	 SHORT $LN5@GetInstanc
_TEXT	ENDS
;	COMDAT text$x
text$x	SEGMENT
__unwindfunclet$?GetInstance@CQuizDBMng@@SAPAV1@XZ$0:
  00000	68 00 00 00 00	 push	 OFFSET ?$TSS0@?1??GetInstance@CQuizDBMng@@SAPAV2@XZ@4HA
  00005	e8 00 00 00 00	 call	 __Init_thread_abort
  0000a	59		 pop	 ecx
  0000b	c3		 ret	 0
  0000c	cc		 int	 3
  0000d	cc		 int	 3
  0000e	cc		 int	 3
  0000f	cc		 int	 3
  00010	cc		 int	 3
__ehhandler$?GetInstance@CQuizDBMng@@SAPAV1@XZ:
  00011	90		 npad	 1
  00012	90		 npad	 1
  00013	8b 54 24 08	 mov	 edx, DWORD PTR [esp+8]
  00017	8d 42 0c	 lea	 eax, DWORD PTR [edx+12]
  0001a	8b 4a fc	 mov	 ecx, DWORD PTR [edx-4]
  0001d	33 c8		 xor	 ecx, eax
  0001f	e8 00 00 00 00	 call	 @__security_check_cookie@4
  00024	b8 00 00 00 00	 mov	 eax, OFFSET __ehfuncinfo$?GetInstance@CQuizDBMng@@SAPAV1@XZ
  00029	e9 00 00 00 00	 jmp	 ___CxxFrameHandler3
text$x	ENDS
?GetInstance@CQuizDBMng@@SAPAV1@XZ ENDP			; CQuizDBMng::GetInstance
; Function compile flags: /Ogtp
; File C:\IAGOS\server\v18\Source\Source\DatabaseServer\QuizDBCtrl.cpp
;	COMDAT ??1CQuizDBMng@@QAE@XZ
_TEXT	SEGMENT
__$EHRec$ = -12						; size = 12
??1CQuizDBMng@@QAE@XZ PROC				; CQuizDBMng::~CQuizDBMng, COMDAT
; _this$ = ecx

; 344  : {

  00000	55		 push	 ebp
  00001	8b ec		 mov	 ebp, esp
  00003	6a ff		 push	 -1
  00005	68 00 00 00 00	 push	 __ehhandler$??1CQuizDBMng@@QAE@XZ
  0000a	64 a1 00 00 00
	00		 mov	 eax, DWORD PTR fs:0
  00010	50		 push	 eax
  00011	56		 push	 esi
  00012	a1 00 00 00 00	 mov	 eax, DWORD PTR ___security_cookie
  00017	33 c5		 xor	 eax, ebp
  00019	50		 push	 eax
  0001a	8d 45 f4	 lea	 eax, DWORD PTR __$EHRec$[ebp]
  0001d	64 a3 00 00 00
	00		 mov	 DWORD PTR fs:0, eax
  00023	8b f1		 mov	 esi, ecx

; 345  : 	m_QuizDBCtrl.CloseDbHandler();

  00025	e8 00 00 00 00	 call	 ?CloseDbHandler@CDbController@@QAEXXZ ; CDbController::CloseDbHandler

; 346  : }

  0002a	8b ce		 mov	 ecx, esi
  0002c	e8 00 00 00 00	 call	 ??1CQuizDBCtrl@@UAE@XZ	; CQuizDBCtrl::~CQuizDBCtrl
  00031	8b 4d f4	 mov	 ecx, DWORD PTR __$EHRec$[ebp]
  00034	64 89 0d 00 00
	00 00		 mov	 DWORD PTR fs:0, ecx
  0003b	59		 pop	 ecx
  0003c	5e		 pop	 esi
  0003d	8b e5		 mov	 esp, ebp
  0003f	5d		 pop	 ebp
  00040	c3		 ret	 0
  00041	cc		 int	 3
  00042	cc		 int	 3
  00043	cc		 int	 3
  00044	cc		 int	 3
  00045	cc		 int	 3
_TEXT	ENDS
;	COMDAT text$x
text$x	SEGMENT
__ehhandler$??1CQuizDBMng@@QAE@XZ:
  00000	90		 npad	 1
  00001	90		 npad	 1
  00002	8b 54 24 08	 mov	 edx, DWORD PTR [esp+8]
  00006	8d 42 0c	 lea	 eax, DWORD PTR [edx+12]
  00009	8b 4a f8	 mov	 ecx, DWORD PTR [edx-8]
  0000c	33 c8		 xor	 ecx, eax
  0000e	e8 00 00 00 00	 call	 @__security_check_cookie@4
  00013	b8 00 00 00 00	 mov	 eax, OFFSET __ehfuncinfo$??1CQuizDBMng@@QAE@XZ
  00018	e9 00 00 00 00	 jmp	 ___CxxFrameHandler3
text$x	ENDS
??1CQuizDBMng@@QAE@XZ ENDP				; CQuizDBMng::~CQuizDBMng
; Function compile flags: /Ogtp
; File C:\IAGOS\server\v18\Source\Source\DatabaseServer\QuizDBCtrl.cpp
;	COMDAT ??0CQuizDBMng@@QAE@XZ
_TEXT	SEGMENT
_this$ = -16						; size = 4
__$EHRec$ = -12						; size = 12
??0CQuizDBMng@@QAE@XZ PROC				; CQuizDBMng::CQuizDBMng, COMDAT
; _this$ = ecx

; 338  : {

  00000	55		 push	 ebp
  00001	8b ec		 mov	 ebp, esp
  00003	6a ff		 push	 -1
  00005	68 00 00 00 00	 push	 __ehhandler$??0CQuizDBMng@@QAE@XZ
  0000a	64 a1 00 00 00
	00		 mov	 eax, DWORD PTR fs:0
  00010	50		 push	 eax
  00011	51		 push	 ecx
  00012	56		 push	 esi
  00013	a1 00 00 00 00	 mov	 eax, DWORD PTR ___security_cookie
  00018	33 c5		 xor	 eax, ebp
  0001a	50		 push	 eax
  0001b	8d 45 f4	 lea	 eax, DWORD PTR __$EHRec$[ebp]
  0001e	64 a3 00 00 00
	00		 mov	 DWORD PTR fs:0, eax
  00024	8b f1		 mov	 esi, ecx
  00026	89 75 f0	 mov	 DWORD PTR _this$[ebp], esi
  00029	e8 00 00 00 00	 call	 ??0CQuizDBCtrl@@QAE@XZ	; CQuizDBCtrl::CQuizDBCtrl

; 339  : 	if( !m_QuizDBCtrl.CreateDbHandler( SEC(1) ) )

  0002e	68 e8 03 00 00	 push	 1000			; 000003e8H
  00033	8b ce		 mov	 ecx, esi
  00035	c7 45 fc 00 00
	00 00		 mov	 DWORD PTR __$EHRec$[ebp+8], 0
  0003c	e8 00 00 00 00	 call	 ?CreateDbHandler@CDbController@@QAEHK@Z ; CDbController::CreateDbHandler
  00041	85 c0		 test	 eax, eax
  00043	75 0d		 jne	 SHORT $LN5@CQuizDBMng

; 340  : 		Error( "CQuizDBMng - m_QuizDBCtrl.CreateDbHandler()" );

  00045	68 00 00 00 00	 push	 OFFSET ??_C@_0CM@LINHPGHC@CQuizDBMng?5?9?5m_QuizDBCtrl?4Creat@
  0004a	e8 00 00 00 00	 call	 ?Error@@YAPBDPBDZZ	; Error
  0004f	83 c4 04	 add	 esp, 4
$LN5@CQuizDBMng:

; 341  : }

  00052	8b c6		 mov	 eax, esi
  00054	8b 4d f4	 mov	 ecx, DWORD PTR __$EHRec$[ebp]
  00057	64 89 0d 00 00
	00 00		 mov	 DWORD PTR fs:0, ecx
  0005e	59		 pop	 ecx
  0005f	5e		 pop	 esi
  00060	8b e5		 mov	 esp, ebp
  00062	5d		 pop	 ebp
  00063	c3		 ret	 0
_TEXT	ENDS
;	COMDAT text$x
text$x	SEGMENT
__unwindfunclet$??0CQuizDBMng@@QAE@XZ$0:
  00000	8b 4d f0	 mov	 ecx, DWORD PTR _this$[ebp]
  00003	e9 00 00 00 00	 jmp	 ??1CQuizDBCtrl@@UAE@XZ	; CQuizDBCtrl::~CQuizDBCtrl
  00008	cc		 int	 3
  00009	cc		 int	 3
  0000a	cc		 int	 3
  0000b	cc		 int	 3
  0000c	cc		 int	 3
__ehhandler$??0CQuizDBMng@@QAE@XZ:
  0000d	90		 npad	 1
  0000e	90		 npad	 1
  0000f	8b 54 24 08	 mov	 edx, DWORD PTR [esp+8]
  00013	8d 42 0c	 lea	 eax, DWORD PTR [edx+12]
  00016	8b 4a f4	 mov	 ecx, DWORD PTR [edx-12]
  00019	33 c8		 xor	 ecx, eax
  0001b	e8 00 00 00 00	 call	 @__security_check_cookie@4
  00020	b8 00 00 00 00	 mov	 eax, OFFSET __ehfuncinfo$??0CQuizDBMng@@QAE@XZ
  00025	e9 00 00 00 00	 jmp	 ___CxxFrameHandler3
text$x	ENDS
??0CQuizDBMng@@QAE@XZ ENDP				; CQuizDBMng::CQuizDBMng
; Function compile flags: /Ogtp
;	COMDAT ??_GCQuizDBCtrl@@UAEPAXI@Z
_TEXT	SEGMENT
___flags$ = 8						; size = 4
??_GCQuizDBCtrl@@UAEPAXI@Z PROC				; CQuizDBCtrl::`scalar deleting destructor', COMDAT
; _this$ = ecx
  00000	55		 push	 ebp
  00001	8b ec		 mov	 ebp, esp
  00003	56		 push	 esi
  00004	8b f1		 mov	 esi, ecx
  00006	e8 00 00 00 00	 call	 ??1CQuizDBCtrl@@UAE@XZ	; CQuizDBCtrl::~CQuizDBCtrl
  0000b	f6 45 08 01	 test	 BYTE PTR ___flags$[ebp], 1
  0000f	74 0b		 je	 SHORT $LN5@scalar
  00011	6a 28		 push	 40			; 00000028H
  00013	56		 push	 esi
  00014	e8 00 00 00 00	 call	 ??3@YAXPAXI@Z		; operator delete
  00019	83 c4 08	 add	 esp, 8
$LN5@scalar:
  0001c	8b c6		 mov	 eax, esi
  0001e	5e		 pop	 esi
  0001f	5d		 pop	 ebp
  00020	c2 04 00	 ret	 4
??_GCQuizDBCtrl@@UAEPAXI@Z ENDP				; CQuizDBCtrl::`scalar deleting destructor'
_TEXT	ENDS
; Function compile flags: /Ogtp
; File C:\Program Files\Microsoft Visual Studio\2022\Professional\VC\Tools\MSVC\14.44.35207\include\xtree
;	COMDAT ?_Insert_node@?$_Tree_val@U?$_Tree_simple_types@U?$pair@$$CBKU_WORLDDATA@CQuizDBCtrl@@@std@@@std@@@std@@QAEPAU?$_Tree_node@U?$pair@$$CBKU_WORLDDATA@CQuizDBCtrl@@@std@@PAX@2@U?$_Tree_id@PAU?$_Tree_node@U?$pair@$$CBKU_WORLDDATA@CQuizDBCtrl@@@std@@PAX@std@@@2@QAU32@@Z
_TEXT	SEGMENT
__Head$1$ = -4						; size = 4
__Loc$ = 8						; size = 8
__Newnode$ = 16						; size = 4
?_Insert_node@?$_Tree_val@U?$_Tree_simple_types@U?$pair@$$CBKU_WORLDDATA@CQuizDBCtrl@@@std@@@std@@@std@@QAEPAU?$_Tree_node@U?$pair@$$CBKU_WORLDDATA@CQuizDBCtrl@@@std@@PAX@2@U?$_Tree_id@PAU?$_Tree_node@U?$pair@$$CBKU_WORLDDATA@CQuizDBCtrl@@@std@@PAX@std@@@2@QAU32@@Z PROC ; std::_Tree_val<std::_Tree_simple_types<std::pair<unsigned long const ,CQuizDBCtrl::_WORLDDATA> > >::_Insert_node, COMDAT
; _this$ = ecx

; 669  :     _Nodeptr _Insert_node(const _Tree_id<_Nodeptr> _Loc, const _Nodeptr _Newnode) noexcept {

  00000	55		 push	 ebp
  00001	8b ec		 mov	 ebp, esp
  00003	51		 push	 ecx

; 670  :         ++_Mysize;
; 671  :         const auto _Head  = _Myhead;
; 672  :         _Newnode->_Parent = _Loc._Parent;

  00004	8b 55 08	 mov	 edx, DWORD PTR __Loc$[ebp]
  00007	53		 push	 ebx
  00008	8b d9		 mov	 ebx, ecx
  0000a	57		 push	 edi
  0000b	8b 7d 10	 mov	 edi, DWORD PTR __Newnode$[ebp]
  0000e	8b 03		 mov	 eax, DWORD PTR [ebx]
  00010	ff 43 04	 inc	 DWORD PTR [ebx+4]
  00013	89 45 fc	 mov	 DWORD PTR __Head$1$[ebp], eax
  00016	89 57 04	 mov	 DWORD PTR [edi+4], edx

; 673  :         if (_Loc._Parent == _Head) { // first node in tree, just set head values

  00019	3b d0		 cmp	 edx, eax
  0001b	75 16		 jne	 SHORT $LN5@Insert_nod

; 674  :             _Head->_Left     = _Newnode;

  0001d	89 38		 mov	 DWORD PTR [eax], edi

; 675  :             _Head->_Parent   = _Newnode;

  0001f	89 78 04	 mov	 DWORD PTR [eax+4], edi

; 676  :             _Head->_Right    = _Newnode;

  00022	89 78 08	 mov	 DWORD PTR [eax+8], edi

; 735  :         return _Newnode;
; 736  :     }

  00025	8b c7		 mov	 eax, edi
  00027	c6 47 0c 01	 mov	 BYTE PTR [edi+12], 1
  0002b	5f		 pop	 edi
  0002c	5b		 pop	 ebx
  0002d	8b e5		 mov	 esp, ebp
  0002f	5d		 pop	 ebp
  00030	c2 0c 00	 ret	 12			; 0000000cH
$LN5@Insert_nod:

; 677  :             _Newnode->_Color = _Black; // the root is black
; 678  :             return _Newnode;
; 679  :         }
; 680  : 
; 681  :         _STL_INTERNAL_CHECK(_Loc._Child != _Tree_child::_Unused);
; 682  :         if (_Loc._Child == _Tree_child::_Right) { // add to right of _Loc._Parent

  00033	83 7d 0c 00	 cmp	 DWORD PTR __Loc$[ebp+4], 0
  00037	75 0d		 jne	 SHORT $LN6@Insert_nod

; 683  :             _STL_INTERNAL_CHECK(_Loc._Parent->_Right->_Isnil);
; 684  :             _Loc._Parent->_Right = _Newnode;

  00039	89 7a 08	 mov	 DWORD PTR [edx+8], edi

; 685  :             if (_Loc._Parent == _Head->_Right) { // remember rightmost node

  0003c	3b 50 08	 cmp	 edx, DWORD PTR [eax+8]
  0003f	75 0d		 jne	 SHORT $LN9@Insert_nod

; 686  :                 _Head->_Right = _Newnode;

  00041	89 78 08	 mov	 DWORD PTR [eax+8], edi

; 687  :             }
; 688  :         } else { // add to left of _Loc._Parent

  00044	eb 08		 jmp	 SHORT $LN9@Insert_nod
$LN6@Insert_nod:

; 689  :             _STL_INTERNAL_CHECK(_Loc._Parent->_Left->_Isnil);
; 690  :             _Loc._Parent->_Left = _Newnode;

  00046	89 3a		 mov	 DWORD PTR [edx], edi

; 691  :             if (_Loc._Parent == _Head->_Left) { // remember leftmost node

  00048	3b 10		 cmp	 edx, DWORD PTR [eax]
  0004a	75 02		 jne	 SHORT $LN9@Insert_nod

; 692  :                 _Head->_Left = _Newnode;

  0004c	89 38		 mov	 DWORD PTR [eax], edi
$LN9@Insert_nod:

; 693  :             }
; 694  :         }
; 695  : 
; 696  :         for (_Nodeptr _Pnode = _Newnode; _Pnode->_Parent->_Color == _Red;) {

  0004e	8b 4f 04	 mov	 ecx, DWORD PTR [edi+4]
  00051	8b c7		 mov	 eax, edi
  00053	80 79 0c 00	 cmp	 BYTE PTR [ecx+12], 0
  00057	0f 85 7d 01 00
	00		 jne	 $LN3@Insert_nod
  0005d	56		 push	 esi
  0005e	66 90		 npad	 2
$LL4@Insert_nod:

; 697  :             if (_Pnode->_Parent == _Pnode->_Parent->_Parent->_Left) { // fixup red-red in left subtree

  00060	8b 50 04	 mov	 edx, DWORD PTR [eax+4]
  00063	8b 72 04	 mov	 esi, DWORD PTR [edx+4]
  00066	8b 0e		 mov	 ecx, DWORD PTR [esi]
  00068	3b d1		 cmp	 edx, ecx
  0006a	0f 85 aa 00 00
	00		 jne	 $LN10@Insert_nod

; 698  :                 const auto _Parent_sibling = _Pnode->_Parent->_Parent->_Right;

  00070	8b 4e 08	 mov	 ecx, DWORD PTR [esi+8]

; 699  :                 if (_Parent_sibling->_Color == _Red) { // parent's sibling has two red children, blacken both

  00073	80 79 0c 00	 cmp	 BYTE PTR [ecx+12], 0
  00077	0f 84 a3 00 00
	00		 je	 $LN82@Insert_nod

; 700  :                     _Pnode->_Parent->_Color          = _Black;
; 701  :                     _Parent_sibling->_Color          = _Black;
; 702  :                     _Pnode->_Parent->_Parent->_Color = _Red;
; 703  :                     _Pnode                           = _Pnode->_Parent->_Parent;
; 704  :                 } else { // parent's sibling has red and black children
; 705  :                     if (_Pnode == _Pnode->_Parent->_Right) { // rotate right child to left

  0007d	8b 72 08	 mov	 esi, DWORD PTR [edx+8]
  00080	3b c6		 cmp	 eax, esi
  00082	75 37		 jne	 SHORT $LN57@Insert_nod

; 485  :         _Wherenode->_Right = _Pnode->_Left;

  00084	8b 0e		 mov	 ecx, DWORD PTR [esi]

; 706  :                         _Pnode = _Pnode->_Parent;

  00086	8b c2		 mov	 eax, edx

; 485  :         _Wherenode->_Right = _Pnode->_Left;

  00088	89 4a 08	 mov	 DWORD PTR [edx+8], ecx

; 486  : 
; 487  :         if (!_Pnode->_Left->_Isnil) {

  0008b	8b 0e		 mov	 ecx, DWORD PTR [esi]
  0008d	80 79 0d 00	 cmp	 BYTE PTR [ecx+13], 0
  00091	75 03		 jne	 SHORT $LN21@Insert_nod

; 488  :             _Pnode->_Left->_Parent = _Wherenode;

  00093	89 41 04	 mov	 DWORD PTR [ecx+4], eax
$LN21@Insert_nod:

; 489  :         }
; 490  : 
; 491  :         _Pnode->_Parent = _Wherenode->_Parent;

  00096	8b 4a 04	 mov	 ecx, DWORD PTR [edx+4]
  00099	89 4e 04	 mov	 DWORD PTR [esi+4], ecx

; 492  : 
; 493  :         if (_Wherenode == _Myhead->_Parent) {

  0009c	8b 0b		 mov	 ecx, DWORD PTR [ebx]
  0009e	3b 41 04	 cmp	 eax, DWORD PTR [ecx+4]
  000a1	75 05		 jne	 SHORT $LN22@Insert_nod

; 494  :             _Myhead->_Parent = _Pnode;

  000a3	89 71 04	 mov	 DWORD PTR [ecx+4], esi
  000a6	eb 0e		 jmp	 SHORT $LN25@Insert_nod
$LN22@Insert_nod:

; 495  :         } else if (_Wherenode == _Wherenode->_Parent->_Left) {

  000a8	8b 4a 04	 mov	 ecx, DWORD PTR [edx+4]
  000ab	3b 01		 cmp	 eax, DWORD PTR [ecx]
  000ad	75 04		 jne	 SHORT $LN24@Insert_nod

; 496  :             _Wherenode->_Parent->_Left = _Pnode;

  000af	89 31		 mov	 DWORD PTR [ecx], esi

; 497  :         } else {

  000b1	eb 03		 jmp	 SHORT $LN25@Insert_nod
$LN24@Insert_nod:

; 498  :             _Wherenode->_Parent->_Right = _Pnode;

  000b3	89 71 08	 mov	 DWORD PTR [ecx+8], esi
$LN25@Insert_nod:

; 499  :         }
; 500  : 
; 501  :         _Pnode->_Left       = _Wherenode;

  000b6	89 06		 mov	 DWORD PTR [esi], eax

; 502  :         _Wherenode->_Parent = _Pnode;

  000b8	89 70 04	 mov	 DWORD PTR [eax+4], esi
$LN57@Insert_nod:

; 707  :                         _Lrotate(_Pnode);
; 708  :                     }
; 709  : 
; 710  :                     _Pnode->_Parent->_Color          = _Black; // propagate red up

  000bb	8b 48 04	 mov	 ecx, DWORD PTR [eax+4]
  000be	c6 41 0c 01	 mov	 BYTE PTR [ecx+12], 1

; 711  :                     _Pnode->_Parent->_Parent->_Color = _Red;

  000c2	8b 48 04	 mov	 ecx, DWORD PTR [eax+4]
  000c5	8b 49 04	 mov	 ecx, DWORD PTR [ecx+4]
  000c8	c6 41 0c 00	 mov	 BYTE PTR [ecx+12], 0

; 712  :                     _Rrotate(_Pnode->_Parent->_Parent);

  000cc	8b 48 04	 mov	 ecx, DWORD PTR [eax+4]
  000cf	8b 51 04	 mov	 edx, DWORD PTR [ecx+4]

; 506  :         _Nodeptr _Pnode   = _Wherenode->_Left;

  000d2	8b 32		 mov	 esi, DWORD PTR [edx]

; 507  :         _Wherenode->_Left = _Pnode->_Right;

  000d4	8b 4e 08	 mov	 ecx, DWORD PTR [esi+8]
  000d7	89 0a		 mov	 DWORD PTR [edx], ecx

; 508  : 
; 509  :         if (!_Pnode->_Right->_Isnil) {

  000d9	8b 4e 08	 mov	 ecx, DWORD PTR [esi+8]
  000dc	80 79 0d 00	 cmp	 BYTE PTR [ecx+13], 0
  000e0	75 03		 jne	 SHORT $LN29@Insert_nod

; 510  :             _Pnode->_Right->_Parent = _Wherenode;

  000e2	89 51 04	 mov	 DWORD PTR [ecx+4], edx
$LN29@Insert_nod:

; 511  :         }
; 512  : 
; 513  :         _Pnode->_Parent = _Wherenode->_Parent;

  000e5	8b 4a 04	 mov	 ecx, DWORD PTR [edx+4]
  000e8	89 4e 04	 mov	 DWORD PTR [esi+4], ecx

; 514  : 
; 515  :         if (_Wherenode == _Myhead->_Parent) {

  000eb	8b 0b		 mov	 ecx, DWORD PTR [ebx]
  000ed	3b 51 04	 cmp	 edx, DWORD PTR [ecx+4]
  000f0	75 0b		 jne	 SHORT $LN30@Insert_nod

; 516  :             _Myhead->_Parent = _Pnode;

  000f2	89 71 04	 mov	 DWORD PTR [ecx+4], esi

; 521  :         }
; 522  : 
; 523  :         _Pnode->_Right      = _Wherenode;

  000f5	89 56 08	 mov	 DWORD PTR [esi+8], edx

; 713  :                 }
; 714  :             } else { // fixup red-red in right subtree

  000f8	e9 cc 00 00 00	 jmp	 $LN81@Insert_nod
$LN30@Insert_nod:

; 517  :         } else if (_Wherenode == _Wherenode->_Parent->_Right) {

  000fd	8b 4a 04	 mov	 ecx, DWORD PTR [edx+4]
  00100	3b 51 08	 cmp	 edx, DWORD PTR [ecx+8]
  00103	75 0b		 jne	 SHORT $LN32@Insert_nod

; 518  :             _Wherenode->_Parent->_Right = _Pnode;

  00105	89 71 08	 mov	 DWORD PTR [ecx+8], esi

; 521  :         }
; 522  : 
; 523  :         _Pnode->_Right      = _Wherenode;

  00108	89 56 08	 mov	 DWORD PTR [esi+8], edx

; 713  :                 }
; 714  :             } else { // fixup red-red in right subtree

  0010b	e9 b9 00 00 00	 jmp	 $LN81@Insert_nod
$LN32@Insert_nod:

; 520  :             _Wherenode->_Parent->_Left = _Pnode;

  00110	89 31		 mov	 DWORD PTR [ecx], esi

; 521  :         }
; 522  : 
; 523  :         _Pnode->_Right      = _Wherenode;

  00112	89 56 08	 mov	 DWORD PTR [esi+8], edx

; 713  :                 }
; 714  :             } else { // fixup red-red in right subtree

  00115	e9 af 00 00 00	 jmp	 $LN81@Insert_nod
$LN10@Insert_nod:

; 715  :                 const auto _Parent_sibling = _Pnode->_Parent->_Parent->_Left;
; 716  :                 if (_Parent_sibling->_Color == _Red) { // parent's sibling has two red children, blacken both

  0011a	80 79 0c 00	 cmp	 BYTE PTR [ecx+12], 0
  0011e	75 1d		 jne	 SHORT $LN15@Insert_nod
$LN82@Insert_nod:

; 693  :             }
; 694  :         }
; 695  : 
; 696  :         for (_Nodeptr _Pnode = _Newnode; _Pnode->_Parent->_Color == _Red;) {

  00120	c6 42 0c 01	 mov	 BYTE PTR [edx+12], 1
  00124	c6 41 0c 01	 mov	 BYTE PTR [ecx+12], 1
  00128	8b 48 04	 mov	 ecx, DWORD PTR [eax+4]
  0012b	8b 49 04	 mov	 ecx, DWORD PTR [ecx+4]
  0012e	c6 41 0c 00	 mov	 BYTE PTR [ecx+12], 0
  00132	8b 48 04	 mov	 ecx, DWORD PTR [eax+4]
  00135	8b 41 04	 mov	 eax, DWORD PTR [ecx+4]
  00138	e9 8f 00 00 00	 jmp	 $LN2@Insert_nod
$LN15@Insert_nod:

; 717  :                     _Pnode->_Parent->_Color          = _Black;
; 718  :                     _Parent_sibling->_Color          = _Black;
; 719  :                     _Pnode->_Parent->_Parent->_Color = _Red;
; 720  :                     _Pnode                           = _Pnode->_Parent->_Parent;
; 721  :                 } else { // parent's sibling has red and black children
; 722  :                     if (_Pnode == _Pnode->_Parent->_Left) { // rotate left child to right

  0013d	8b 32		 mov	 esi, DWORD PTR [edx]
  0013f	3b c6		 cmp	 eax, esi
  00141	75 3a		 jne	 SHORT $LN42@Insert_nod

; 507  :         _Wherenode->_Left = _Pnode->_Right;

  00143	8b 4e 08	 mov	 ecx, DWORD PTR [esi+8]

; 723  :                         _Pnode = _Pnode->_Parent;

  00146	8b c2		 mov	 eax, edx

; 507  :         _Wherenode->_Left = _Pnode->_Right;

  00148	89 08		 mov	 DWORD PTR [eax], ecx

; 508  : 
; 509  :         if (!_Pnode->_Right->_Isnil) {

  0014a	8b 4e 08	 mov	 ecx, DWORD PTR [esi+8]
  0014d	80 79 0d 00	 cmp	 BYTE PTR [ecx+13], 0
  00151	75 03		 jne	 SHORT $LN37@Insert_nod

; 510  :             _Pnode->_Right->_Parent = _Wherenode;

  00153	89 41 04	 mov	 DWORD PTR [ecx+4], eax
$LN37@Insert_nod:

; 511  :         }
; 512  : 
; 513  :         _Pnode->_Parent = _Wherenode->_Parent;

  00156	8b 4a 04	 mov	 ecx, DWORD PTR [edx+4]
  00159	89 4e 04	 mov	 DWORD PTR [esi+4], ecx

; 514  : 
; 515  :         if (_Wherenode == _Myhead->_Parent) {

  0015c	8b 0b		 mov	 ecx, DWORD PTR [ebx]
  0015e	3b 41 04	 cmp	 eax, DWORD PTR [ecx+4]
  00161	75 05		 jne	 SHORT $LN38@Insert_nod

; 516  :             _Myhead->_Parent = _Pnode;

  00163	89 71 04	 mov	 DWORD PTR [ecx+4], esi
  00166	eb 0f		 jmp	 SHORT $LN41@Insert_nod
$LN38@Insert_nod:

; 517  :         } else if (_Wherenode == _Wherenode->_Parent->_Right) {

  00168	8b 4a 04	 mov	 ecx, DWORD PTR [edx+4]
  0016b	3b 41 08	 cmp	 eax, DWORD PTR [ecx+8]
  0016e	75 05		 jne	 SHORT $LN40@Insert_nod

; 518  :             _Wherenode->_Parent->_Right = _Pnode;

  00170	89 71 08	 mov	 DWORD PTR [ecx+8], esi

; 519  :         } else {

  00173	eb 02		 jmp	 SHORT $LN41@Insert_nod
$LN40@Insert_nod:

; 520  :             _Wherenode->_Parent->_Left = _Pnode;

  00175	89 31		 mov	 DWORD PTR [ecx], esi
$LN41@Insert_nod:

; 521  :         }
; 522  : 
; 523  :         _Pnode->_Right      = _Wherenode;

  00177	89 46 08	 mov	 DWORD PTR [esi+8], eax

; 524  :         _Wherenode->_Parent = _Pnode;

  0017a	89 70 04	 mov	 DWORD PTR [eax+4], esi
$LN42@Insert_nod:

; 724  :                         _Rrotate(_Pnode);
; 725  :                     }
; 726  : 
; 727  :                     _Pnode->_Parent->_Color          = _Black; // propagate red up

  0017d	8b 48 04	 mov	 ecx, DWORD PTR [eax+4]
  00180	c6 41 0c 01	 mov	 BYTE PTR [ecx+12], 1

; 728  :                     _Pnode->_Parent->_Parent->_Color = _Red;

  00184	8b 48 04	 mov	 ecx, DWORD PTR [eax+4]
  00187	8b 49 04	 mov	 ecx, DWORD PTR [ecx+4]
  0018a	c6 41 0c 00	 mov	 BYTE PTR [ecx+12], 0

; 729  :                     _Lrotate(_Pnode->_Parent->_Parent);

  0018e	8b 48 04	 mov	 ecx, DWORD PTR [eax+4]
  00191	8b 51 04	 mov	 edx, DWORD PTR [ecx+4]

; 484  :         _Nodeptr _Pnode    = _Wherenode->_Right;

  00194	8b 72 08	 mov	 esi, DWORD PTR [edx+8]

; 485  :         _Wherenode->_Right = _Pnode->_Left;

  00197	8b 0e		 mov	 ecx, DWORD PTR [esi]
  00199	89 4a 08	 mov	 DWORD PTR [edx+8], ecx

; 486  : 
; 487  :         if (!_Pnode->_Left->_Isnil) {

  0019c	8b 0e		 mov	 ecx, DWORD PTR [esi]
  0019e	80 79 0d 00	 cmp	 BYTE PTR [ecx+13], 0
  001a2	75 03		 jne	 SHORT $LN45@Insert_nod

; 488  :             _Pnode->_Left->_Parent = _Wherenode;

  001a4	89 51 04	 mov	 DWORD PTR [ecx+4], edx
$LN45@Insert_nod:

; 489  :         }
; 490  : 
; 491  :         _Pnode->_Parent = _Wherenode->_Parent;

  001a7	8b 4a 04	 mov	 ecx, DWORD PTR [edx+4]
  001aa	89 4e 04	 mov	 DWORD PTR [esi+4], ecx

; 492  : 
; 493  :         if (_Wherenode == _Myhead->_Parent) {

  001ad	8b 0b		 mov	 ecx, DWORD PTR [ebx]
  001af	3b 51 04	 cmp	 edx, DWORD PTR [ecx+4]
  001b2	75 05		 jne	 SHORT $LN46@Insert_nod

; 494  :             _Myhead->_Parent = _Pnode;

  001b4	89 71 04	 mov	 DWORD PTR [ecx+4], esi
  001b7	eb 0e		 jmp	 SHORT $LN49@Insert_nod
$LN46@Insert_nod:

; 495  :         } else if (_Wherenode == _Wherenode->_Parent->_Left) {

  001b9	8b 4a 04	 mov	 ecx, DWORD PTR [edx+4]
  001bc	3b 11		 cmp	 edx, DWORD PTR [ecx]
  001be	75 04		 jne	 SHORT $LN48@Insert_nod

; 496  :             _Wherenode->_Parent->_Left = _Pnode;

  001c0	89 31		 mov	 DWORD PTR [ecx], esi

; 497  :         } else {

  001c2	eb 03		 jmp	 SHORT $LN49@Insert_nod
$LN48@Insert_nod:

; 498  :             _Wherenode->_Parent->_Right = _Pnode;

  001c4	89 71 08	 mov	 DWORD PTR [ecx+8], esi
$LN49@Insert_nod:

; 499  :         }
; 500  : 
; 501  :         _Pnode->_Left       = _Wherenode;

  001c7	89 16		 mov	 DWORD PTR [esi], edx
$LN81@Insert_nod:

; 693  :             }
; 694  :         }
; 695  : 
; 696  :         for (_Nodeptr _Pnode = _Newnode; _Pnode->_Parent->_Color == _Red;) {

  001c9	89 72 04	 mov	 DWORD PTR [edx+4], esi
$LN2@Insert_nod:
  001cc	8b 48 04	 mov	 ecx, DWORD PTR [eax+4]
  001cf	80 79 0c 00	 cmp	 BYTE PTR [ecx+12], 0
  001d3	0f 84 87 fe ff
	ff		 je	 $LL4@Insert_nod
  001d9	5e		 pop	 esi
$LN3@Insert_nod:

; 730  :                 }
; 731  :             }
; 732  :         }
; 733  : 
; 734  :         _Head->_Parent->_Color = _Black; // root is always black

  001da	8b 45 fc	 mov	 eax, DWORD PTR __Head$1$[ebp]
  001dd	8b 40 04	 mov	 eax, DWORD PTR [eax+4]
  001e0	c6 40 0c 01	 mov	 BYTE PTR [eax+12], 1

; 735  :         return _Newnode;
; 736  :     }

  001e4	8b c7		 mov	 eax, edi
  001e6	5f		 pop	 edi
  001e7	5b		 pop	 ebx
  001e8	8b e5		 mov	 esp, ebp
  001ea	5d		 pop	 ebp
  001eb	c2 0c 00	 ret	 12			; 0000000cH
?_Insert_node@?$_Tree_val@U?$_Tree_simple_types@U?$pair@$$CBKU_WORLDDATA@CQuizDBCtrl@@@std@@@std@@@std@@QAEPAU?$_Tree_node@U?$pair@$$CBKU_WORLDDATA@CQuizDBCtrl@@@std@@PAX@2@U?$_Tree_id@PAU?$_Tree_node@U?$pair@$$CBKU_WORLDDATA@CQuizDBCtrl@@@std@@PAX@std@@@2@QAU32@@Z ENDP ; std::_Tree_val<std::_Tree_simple_types<std::pair<unsigned long const ,CQuizDBCtrl::_WORLDDATA> > >::_Insert_node
_TEXT	ENDS
; Function compile flags: /Ogtp
; File C:\Program Files\Microsoft Visual Studio\2022\Professional\VC\Tools\MSVC\14.44.35207\include\xtree
; File C:\Program Files\Microsoft Visual Studio\2022\Professional\VC\Tools\MSVC\14.44.35207\include\utility
; File C:\Program Files\Microsoft Visual Studio\2022\Professional\VC\Tools\MSVC\14.44.35207\include\xtree
;	COMDAT ?_Extract@?$_Tree_val@U?$_Tree_simple_types@U?$pair@$$CBKU_WORLDDATA@CQuizDBCtrl@@@std@@@std@@@std@@QAEPAU?$_Tree_node@U?$pair@$$CBKU_WORLDDATA@CQuizDBCtrl@@@std@@PAX@2@V?$_Tree_unchecked_const_iterator@V?$_Tree_val@U?$_Tree_simple_types@U?$pair@$$CBKU_WORLDDATA@CQuizDBCtrl@@@std@@@std@@@std@@U_Iterator_base0@2@@2@@Z
_TEXT	SEGMENT
tv1039 = -16						; size = 4
tv1073 = -12						; size = 4
tv1093 = -12						; size = 4
$T1 = -12						; size = 4
__Erasednode$1$ = -8					; size = 4
_this$1$ = -4						; size = 4
__Where$ = 8						; size = 4
?_Extract@?$_Tree_val@U?$_Tree_simple_types@U?$pair@$$CBKU_WORLDDATA@CQuizDBCtrl@@@std@@@std@@@std@@QAEPAU?$_Tree_node@U?$pair@$$CBKU_WORLDDATA@CQuizDBCtrl@@@std@@PAX@2@V?$_Tree_unchecked_const_iterator@V?$_Tree_val@U?$_Tree_simple_types@U?$pair@$$CBKU_WORLDDATA@CQuizDBCtrl@@@std@@@std@@@std@@U_Iterator_base0@2@@2@@Z PROC ; std::_Tree_val<std::_Tree_simple_types<std::pair<unsigned long const ,CQuizDBCtrl::_WORLDDATA> > >::_Extract, COMDAT
; _this$ = ecx

; 527  :     _Nodeptr _Extract(_Unchecked_const_iterator _Where) noexcept {

  00000	55		 push	 ebp
  00001	8b ec		 mov	 ebp, esp
  00003	83 ec 10	 sub	 esp, 16			; 00000010H

; 528  :         _Nodeptr _Erasednode = _Where._Ptr; // node to erase

  00006	8b 45 08	 mov	 eax, DWORD PTR __Where$[ebp]
  00009	53		 push	 ebx
  0000a	56		 push	 esi
  0000b	8b d9		 mov	 ebx, ecx
  0000d	89 45 f8	 mov	 DWORD PTR __Erasednode$1$[ebp], eax
  00010	57		 push	 edi

; 529  :         ++_Where; // save successor iterator for return

  00011	8d 4d 08	 lea	 ecx, DWORD PTR __Where$[ebp]
  00014	89 5d fc	 mov	 DWORD PTR _this$1$[ebp], ebx
  00017	e8 00 00 00 00	 call	 ??E?$_Tree_unchecked_const_iterator@V?$_Tree_val@U?$_Tree_simple_types@U?$pair@$$CBKU_WORLDDATA@CQuizDBCtrl@@@std@@@std@@@std@@U_Iterator_base0@2@@std@@QAEAAV01@XZ ; std::_Tree_unchecked_const_iterator<std::_Tree_val<std::_Tree_simple_types<std::pair<unsigned long const ,CQuizDBCtrl::_WORLDDATA> > >,std::_Iterator_base0>::operator++

; 530  : 
; 531  :         _Nodeptr _Fixnode; // the node to recolor as needed
; 532  :         _Nodeptr _Fixnodeparent; // parent of _Fixnode (which may be nil)
; 533  :         _Nodeptr _Pnode = _Erasednode;
; 534  : 
; 535  :         if (_Pnode->_Left->_Isnil) {

  0001c	8b 4d f8	 mov	 ecx, DWORD PTR __Erasednode$1$[ebp]
  0001f	8b 01		 mov	 eax, DWORD PTR [ecx]
  00021	8b 79 08	 mov	 edi, DWORD PTR [ecx+8]
  00024	80 78 0d 00	 cmp	 BYTE PTR [eax+13], 0
  00028	75 18		 jne	 SHORT $LN94@Extract

; 536  :             _Fixnode = _Pnode->_Right; // stitch up right subtree
; 537  :         } else if (_Pnode->_Right->_Isnil) {

  0002a	80 7f 0d 00	 cmp	 BYTE PTR [edi+13], 0
  0002e	74 04		 je	 SHORT $LN7@Extract

; 538  :             _Fixnode = _Pnode->_Left; // stitch up left subtree

  00030	8b f8		 mov	 edi, eax

; 539  :         } else { // two subtrees, must lift successor node to replace erased

  00032	eb 0e		 jmp	 SHORT $LN94@Extract
$LN7@Extract:

; 540  :             _Pnode   = _Where._Ptr; // _Pnode is successor node

  00034	8b 55 08	 mov	 edx, DWORD PTR __Where$[ebp]

; 541  :             _Fixnode = _Pnode->_Right; // _Fixnode is only subtree

  00037	8b 7a 08	 mov	 edi, DWORD PTR [edx+8]
  0003a	3b d1		 cmp	 edx, ecx

; 542  :         }
; 543  : 
; 544  :         if (_Pnode == _Erasednode) { // at most one subtree, relink it

  0003c	0f 85 91 00 00
	00		 jne	 $LN9@Extract
$LN94@Extract:

; 545  :             _Fixnodeparent = _Erasednode->_Parent;
; 546  :             if (!_Fixnode->_Isnil) {

  00042	80 7f 0d 00	 cmp	 BYTE PTR [edi+13], 0
  00046	8b 71 04	 mov	 esi, DWORD PTR [ecx+4]
  00049	75 03		 jne	 SHORT $LN11@Extract

; 547  :                 _Fixnode->_Parent = _Fixnodeparent; // link up

  0004b	89 77 04	 mov	 DWORD PTR [edi+4], esi
$LN11@Extract:

; 548  :             }
; 549  : 
; 550  :             if (_Myhead->_Parent == _Erasednode) {

  0004e	8b 03		 mov	 eax, DWORD PTR [ebx]
  00050	39 48 04	 cmp	 DWORD PTR [eax+4], ecx
  00053	75 05		 jne	 SHORT $LN12@Extract

; 551  :                 _Myhead->_Parent = _Fixnode; // link down from root

  00055	89 78 04	 mov	 DWORD PTR [eax+4], edi
  00058	eb 0b		 jmp	 SHORT $LN15@Extract
$LN12@Extract:

; 552  :             } else if (_Fixnodeparent->_Left == _Erasednode) {

  0005a	39 0e		 cmp	 DWORD PTR [esi], ecx
  0005c	75 04		 jne	 SHORT $LN14@Extract

; 553  :                 _Fixnodeparent->_Left = _Fixnode; // link down to left

  0005e	89 3e		 mov	 DWORD PTR [esi], edi

; 554  :             } else {

  00060	eb 03		 jmp	 SHORT $LN15@Extract
$LN14@Extract:

; 555  :                 _Fixnodeparent->_Right = _Fixnode; // link down to right

  00062	89 7e 08	 mov	 DWORD PTR [esi+8], edi
$LN15@Extract:

; 556  :             }
; 557  : 
; 558  :             if (_Myhead->_Left == _Erasednode) {

  00065	8b 03		 mov	 eax, DWORD PTR [ebx]
  00067	39 08		 cmp	 DWORD PTR [eax], ecx
  00069	75 28		 jne	 SHORT $LN16@Extract

; 559  :                 _Myhead->_Left = _Fixnode->_Isnil ? _Fixnodeparent // smallest is parent of erased node

  0006b	80 7f 0d 00	 cmp	 BYTE PTR [edi+13], 0
  0006f	74 04		 je	 SHORT $LN42@Extract
  00071	8b d6		 mov	 edx, esi
  00073	eb 1c		 jmp	 SHORT $LN43@Extract
$LN42@Extract:

; 476  :         while (!_Pnode->_Left->_Isnil) {

  00075	8b 0f		 mov	 ecx, DWORD PTR [edi]

; 559  :                 _Myhead->_Left = _Fixnode->_Isnil ? _Fixnodeparent // smallest is parent of erased node

  00077	8b d7		 mov	 edx, edi

; 476  :         while (!_Pnode->_Left->_Isnil) {

  00079	80 79 0d 00	 cmp	 BYTE PTR [ecx+13], 0
  0007d	75 0f		 jne	 SHORT $LN49@Extract
  0007f	90		 npad	 1
$LL48@Extract:
  00080	8b 01		 mov	 eax, DWORD PTR [ecx]

; 477  :             _Pnode = _Pnode->_Left;

  00082	8b d1		 mov	 edx, ecx
  00084	8b c8		 mov	 ecx, eax
  00086	80 78 0d 00	 cmp	 BYTE PTR [eax+13], 0
  0008a	74 f4		 je	 SHORT $LL48@Extract
  0008c	8b 03		 mov	 eax, DWORD PTR [ebx]
$LN49@Extract:
  0008e	8b 4d f8	 mov	 ecx, DWORD PTR __Erasednode$1$[ebp]
$LN43@Extract:

; 559  :                 _Myhead->_Left = _Fixnode->_Isnil ? _Fixnodeparent // smallest is parent of erased node

  00091	89 10		 mov	 DWORD PTR [eax], edx
$LN16@Extract:

; 560  :                                                   : _Min(_Fixnode); // smallest in relinked subtree
; 561  :             }
; 562  : 
; 563  :             if (_Myhead->_Right == _Erasednode) {

  00093	8b 13		 mov	 edx, DWORD PTR [ebx]
  00095	39 4a 08	 cmp	 DWORD PTR [edx+8], ecx
  00098	75 34		 jne	 SHORT $LN17@Extract

; 564  :                 _Myhead->_Right = _Fixnode->_Isnil ? _Fixnodeparent // largest is parent of erased node

  0009a	80 7f 0d 00	 cmp	 BYTE PTR [edi+13], 0
  0009e	74 0d		 je	 SHORT $LN44@Extract

; 565  :                                                    : _Max(_Fixnode); // largest in relinked subtree
; 566  :             }
; 567  :         } else { // erased has two subtrees, _Pnode is successor to erased

  000a0	8b 45 f8	 mov	 eax, DWORD PTR __Erasednode$1$[ebp]
  000a3	8b ce		 mov	 ecx, esi
  000a5	89 4a 08	 mov	 DWORD PTR [edx+8], ecx
  000a8	e9 94 00 00 00	 jmp	 $LN58@Extract
$LN44@Extract:

; 468  :         while (!_Pnode->_Right->_Isnil) {

  000ad	8b 47 08	 mov	 eax, DWORD PTR [edi+8]

; 564  :                 _Myhead->_Right = _Fixnode->_Isnil ? _Fixnodeparent // largest is parent of erased node

  000b0	8b cf		 mov	 ecx, edi

; 468  :         while (!_Pnode->_Right->_Isnil) {

  000b2	80 78 0d 00	 cmp	 BYTE PTR [eax+13], 0
  000b6	75 13		 jne	 SHORT $LN54@Extract
  000b8	0f 1f 84 00 00
	00 00 00	 npad	 8
$LL53@Extract:

; 469  :             _Pnode = _Pnode->_Right;

  000c0	8b c8		 mov	 ecx, eax
  000c2	8b 41 08	 mov	 eax, DWORD PTR [ecx+8]
  000c5	80 78 0d 00	 cmp	 BYTE PTR [eax+13], 0
  000c9	74 f5		 je	 SHORT $LL53@Extract
$LN54@Extract:

; 564  :                 _Myhead->_Right = _Fixnode->_Isnil ? _Fixnodeparent // largest is parent of erased node

  000cb	89 4a 08	 mov	 DWORD PTR [edx+8], ecx
$LN17@Extract:

; 565  :                                                    : _Max(_Fixnode); // largest in relinked subtree
; 566  :             }
; 567  :         } else { // erased has two subtrees, _Pnode is successor to erased

  000ce	8b 45 f8	 mov	 eax, DWORD PTR __Erasednode$1$[ebp]
  000d1	eb 6e		 jmp	 SHORT $LN58@Extract
$LN9@Extract:

; 568  :             _Erasednode->_Left->_Parent = _Pnode; // link left up

  000d3	89 50 04	 mov	 DWORD PTR [eax+4], edx

; 569  :             _Pnode->_Left               = _Erasednode->_Left; // link successor down

  000d6	8b 01		 mov	 eax, DWORD PTR [ecx]
  000d8	89 02		 mov	 DWORD PTR [edx], eax

; 570  : 
; 571  :             if (_Pnode == _Erasednode->_Right) {

  000da	8d 42 04	 lea	 eax, DWORD PTR [edx+4]
  000dd	89 45 f4	 mov	 DWORD PTR $T1[ebp], eax
  000e0	3b 51 08	 cmp	 edx, DWORD PTR [ecx+8]
  000e3	75 04		 jne	 SHORT $LN18@Extract

; 572  :                 _Fixnodeparent = _Pnode; // successor is next to erased

  000e5	8b f2		 mov	 esi, edx

; 573  :             } else { // successor further down, link in place of erased

  000e7	eb 1f		 jmp	 SHORT $LN19@Extract
$LN18@Extract:

; 574  :                 _Fixnodeparent = _Pnode->_Parent; // parent is successor's
; 575  :                 if (!_Fixnode->_Isnil) {

  000e9	80 7f 0d 00	 cmp	 BYTE PTR [edi+13], 0
  000ed	8b 30		 mov	 esi, DWORD PTR [eax]
  000ef	75 03		 jne	 SHORT $LN20@Extract

; 576  :                     _Fixnode->_Parent = _Fixnodeparent; // link fix up

  000f1	89 77 04	 mov	 DWORD PTR [edi+4], esi
$LN20@Extract:

; 577  :                 }
; 578  : 
; 579  :                 _Fixnodeparent->_Left        = _Fixnode; // link fix down

  000f4	89 3e		 mov	 DWORD PTR [esi], edi

; 580  :                 _Pnode->_Right               = _Erasednode->_Right; // link next down

  000f6	8b 41 08	 mov	 eax, DWORD PTR [ecx+8]
  000f9	89 42 08	 mov	 DWORD PTR [edx+8], eax

; 581  :                 _Erasednode->_Right->_Parent = _Pnode; // right up

  000fc	8b 41 08	 mov	 eax, DWORD PTR [ecx+8]
  000ff	89 50 04	 mov	 DWORD PTR [eax+4], edx
  00102	8d 42 04	 lea	 eax, DWORD PTR [edx+4]
  00105	89 45 f4	 mov	 DWORD PTR $T1[ebp], eax
$LN19@Extract:

; 582  :             }
; 583  : 
; 584  :             if (_Myhead->_Parent == _Erasednode) {

  00108	8b 03		 mov	 eax, DWORD PTR [ebx]
  0010a	39 48 04	 cmp	 DWORD PTR [eax+4], ecx
  0010d	75 05		 jne	 SHORT $LN21@Extract

; 585  :                 _Myhead->_Parent = _Pnode; // link down from root

  0010f	89 50 04	 mov	 DWORD PTR [eax+4], edx
  00112	eb 0e		 jmp	 SHORT $LN141@Extract
$LN21@Extract:

; 586  :             } else if (_Erasednode->_Parent->_Left == _Erasednode) {

  00114	8b 41 04	 mov	 eax, DWORD PTR [ecx+4]
  00117	39 08		 cmp	 DWORD PTR [eax], ecx
  00119	75 04		 jne	 SHORT $LN23@Extract

; 587  :                 _Erasednode->_Parent->_Left = _Pnode; // link down to left

  0011b	89 10		 mov	 DWORD PTR [eax], edx

; 588  :             } else {

  0011d	eb 03		 jmp	 SHORT $LN141@Extract
$LN23@Extract:

; 589  :                 _Erasednode->_Parent->_Right = _Pnode; // link down to right

  0011f	89 50 08	 mov	 DWORD PTR [eax+8], edx
$LN141@Extract:

; 590  :             }
; 591  : 
; 592  :             _Pnode->_Parent = _Erasednode->_Parent; // link successor up

  00122	b8 04 00 00 00	 mov	 eax, 4
  00127	8b 04 08	 mov	 eax, DWORD PTR [eax+ecx]
  0012a	8b 4d f4	 mov	 ecx, DWORD PTR $T1[ebp]
  0012d	89 01		 mov	 DWORD PTR [ecx], eax
; File C:\Program Files\Microsoft Visual Studio\2022\Professional\VC\Tools\MSVC\14.44.35207\include\utility

; 140  :     _Left    = _STD move(_Right);

  0012f	8b 45 f8	 mov	 eax, DWORD PTR __Erasednode$1$[ebp]
  00132	8a 4a 0c	 mov	 cl, BYTE PTR [edx+12]
  00135	8a 40 0c	 mov	 al, BYTE PTR [eax+12]
  00138	88 42 0c	 mov	 BYTE PTR [edx+12], al

; 141  :     _Right   = _STD move(_Tmp);

  0013b	8b 45 f8	 mov	 eax, DWORD PTR __Erasednode$1$[ebp]
  0013e	88 48 0c	 mov	 BYTE PTR [eax+12], cl
$LN58@Extract:
; File C:\Program Files\Microsoft Visual Studio\2022\Professional\VC\Tools\MSVC\14.44.35207\include\xtree

; 596  :         if (_Erasednode->_Color == _Black) { // erasing black link, must recolor/rebalance tree

  00141	80 78 0c 01	 cmp	 BYTE PTR [eax+12], 1
  00145	0f 85 ba 01 00
	00		 jne	 $LN25@Extract

; 597  :             for (; _Fixnode != _Myhead->_Parent && _Fixnode->_Color == _Black; _Fixnodeparent = _Fixnode->_Parent) {

  0014b	8b 03		 mov	 eax, DWORD PTR [ebx]
  0014d	3b 78 04	 cmp	 edi, DWORD PTR [eax+4]
  00150	0f 84 a8 01 00
	00		 je	 $LN3@Extract
  00156	80 7f 0c 01	 cmp	 BYTE PTR [edi+12], 1
  0015a	89 75 f4	 mov	 DWORD PTR tv1093[ebp], esi
  0015d	0f 85 9b 01 00
	00		 jne	 $LN3@Extract
$LL4@Extract:

; 598  :                 if (_Fixnode == _Fixnodeparent->_Left) { // fixup left subtree

  00163	8b 0e		 mov	 ecx, DWORD PTR [esi]
  00165	3b f9		 cmp	 edi, ecx
  00167	0f 85 be 00 00
	00		 jne	 $LN26@Extract

; 599  :                     _Pnode = _Fixnodeparent->_Right;

  0016d	8b 4e 08	 mov	 ecx, DWORD PTR [esi+8]

; 600  :                     if (_Pnode->_Color == _Red) { // rotate red up from right subtree

  00170	80 79 0c 00	 cmp	 BYTE PTR [ecx+12], 0
  00174	75 54		 jne	 SHORT $LN95@Extract

; 601  :                         _Pnode->_Color         = _Black;

  00176	c6 41 0c 01	 mov	 BYTE PTR [ecx+12], 1

; 484  :         _Nodeptr _Pnode    = _Wherenode->_Right;

  0017a	8b 4e 08	 mov	 ecx, DWORD PTR [esi+8]

; 602  :                         _Fixnodeparent->_Color = _Red;

  0017d	c6 46 0c 00	 mov	 BYTE PTR [esi+12], 0

; 485  :         _Wherenode->_Right = _Pnode->_Left;

  00181	8b 01		 mov	 eax, DWORD PTR [ecx]
  00183	89 46 08	 mov	 DWORD PTR [esi+8], eax

; 486  : 
; 487  :         if (!_Pnode->_Left->_Isnil) {

  00186	8b 01		 mov	 eax, DWORD PTR [ecx]
  00188	80 78 0d 00	 cmp	 BYTE PTR [eax+13], 0
  0018c	75 03		 jne	 SHORT $LN61@Extract

; 488  :             _Pnode->_Left->_Parent = _Wherenode;

  0018e	89 70 04	 mov	 DWORD PTR [eax+4], esi
$LN61@Extract:

; 489  :         }
; 490  : 
; 491  :         _Pnode->_Parent = _Wherenode->_Parent;

  00191	8b 46 04	 mov	 eax, DWORD PTR [esi+4]
  00194	8d 56 04	 lea	 edx, DWORD PTR [esi+4]
  00197	89 41 04	 mov	 DWORD PTR [ecx+4], eax

; 492  : 
; 493  :         if (_Wherenode == _Myhead->_Parent) {

  0019a	8b 03		 mov	 eax, DWORD PTR [ebx]
  0019c	3b 70 04	 cmp	 esi, DWORD PTR [eax+4]
  0019f	75 0c		 jne	 SHORT $LN62@Extract

; 494  :             _Myhead->_Parent = _Pnode;

  001a1	89 48 04	 mov	 DWORD PTR [eax+4], ecx

; 499  :         }
; 500  : 
; 501  :         _Pnode->_Left       = _Wherenode;

  001a4	89 31		 mov	 DWORD PTR [ecx], esi

; 502  :         _Wherenode->_Parent = _Pnode;

  001a6	89 0a		 mov	 DWORD PTR [edx], ecx

; 603  :                         _Lrotate(_Fixnodeparent);
; 604  :                         _Pnode = _Fixnodeparent->_Right;

  001a8	8b 4e 08	 mov	 ecx, DWORD PTR [esi+8]
  001ab	eb 20		 jmp	 SHORT $LN87@Extract
$LN62@Extract:

; 495  :         } else if (_Wherenode == _Wherenode->_Parent->_Left) {

  001ad	8b 02		 mov	 eax, DWORD PTR [edx]
  001af	3b 30		 cmp	 esi, DWORD PTR [eax]
  001b1	75 0b		 jne	 SHORT $LN64@Extract

; 496  :             _Wherenode->_Parent->_Left = _Pnode;

  001b3	89 08		 mov	 DWORD PTR [eax], ecx

; 499  :         }
; 500  : 
; 501  :         _Pnode->_Left       = _Wherenode;

  001b5	89 31		 mov	 DWORD PTR [ecx], esi

; 502  :         _Wherenode->_Parent = _Pnode;

  001b7	89 0a		 mov	 DWORD PTR [edx], ecx

; 603  :                         _Lrotate(_Fixnodeparent);
; 604  :                         _Pnode = _Fixnodeparent->_Right;

  001b9	8b 4e 08	 mov	 ecx, DWORD PTR [esi+8]
  001bc	eb 0f		 jmp	 SHORT $LN87@Extract
$LN64@Extract:

; 498  :             _Wherenode->_Parent->_Right = _Pnode;

  001be	89 48 08	 mov	 DWORD PTR [eax+8], ecx

; 499  :         }
; 500  : 
; 501  :         _Pnode->_Left       = _Wherenode;

  001c1	89 31		 mov	 DWORD PTR [ecx], esi

; 502  :         _Wherenode->_Parent = _Pnode;

  001c3	89 0a		 mov	 DWORD PTR [edx], ecx

; 603  :                         _Lrotate(_Fixnodeparent);
; 604  :                         _Pnode = _Fixnodeparent->_Right;

  001c5	8b 4e 08	 mov	 ecx, DWORD PTR [esi+8]
  001c8	eb 03		 jmp	 SHORT $LN87@Extract
$LN95@Extract:
  001ca	8d 56 04	 lea	 edx, DWORD PTR [esi+4]
$LN87@Extract:

; 605  :                     }
; 606  : 
; 607  :                     if (_Pnode->_Isnil) {

  001cd	80 79 0d 00	 cmp	 BYTE PTR [ecx+13], 0
  001d1	0f 85 d0 00 00
	00		 jne	 $LN2@Extract

; 608  :                         _Fixnode = _Fixnodeparent; // shouldn't happen
; 609  :                     } else if (_Pnode->_Left->_Color == _Black
; 610  :                                && _Pnode->_Right->_Color == _Black) { // redden right subtree with black children

  001d7	8b 01		 mov	 eax, DWORD PTR [ecx]
  001d9	80 78 0c 01	 cmp	 BYTE PTR [eax+12], 1
  001dd	75 0d		 jne	 SHORT $LN97@Extract
  001df	8b 41 08	 mov	 eax, DWORD PTR [ecx+8]
  001e2	80 78 0c 01	 cmp	 BYTE PTR [eax+12], 1
  001e6	0f 84 b4 00 00
	00		 je	 $LN142@Extract
$LN97@Extract:

; 611  :                         _Pnode->_Color = _Red;
; 612  :                         _Fixnode       = _Fixnodeparent;
; 613  :                     } else { // must rearrange right subtree
; 614  :                         if (_Pnode->_Right->_Color == _Black) { // rotate red up from left sub-subtree

  001ec	8b 41 08	 mov	 eax, DWORD PTR [ecx+8]
  001ef	8b 5d fc	 mov	 ebx, DWORD PTR _this$1$[ebp]
  001f2	80 78 0c 01	 cmp	 BYTE PTR [eax+12], 1
  001f6	75 15		 jne	 SHORT $LN33@Extract

; 615  :                             _Pnode->_Left->_Color = _Black;

  001f8	8b 01		 mov	 eax, DWORD PTR [ecx]

; 616  :                             _Pnode->_Color        = _Red;
; 617  :                             _Rrotate(_Pnode);

  001fa	51		 push	 ecx
  001fb	c6 40 0c 01	 mov	 BYTE PTR [eax+12], 1
  001ff	c6 41 0c 00	 mov	 BYTE PTR [ecx+12], 0
  00203	8b cb		 mov	 ecx, ebx
  00205	e8 00 00 00 00	 call	 ?_Rrotate@?$_Tree_val@U?$_Tree_simple_types@U?$pair@$$CBKU_WORLDDATA@CQuizDBCtrl@@@std@@@std@@@std@@QAEXPAU?$_Tree_node@U?$pair@$$CBKU_WORLDDATA@CQuizDBCtrl@@@std@@PAX@2@@Z ; std::_Tree_val<std::_Tree_simple_types<std::pair<unsigned long const ,CQuizDBCtrl::_WORLDDATA> > >::_Rrotate

; 618  :                             _Pnode = _Fixnodeparent->_Right;

  0020a	8b 4e 08	 mov	 ecx, DWORD PTR [esi+8]
$LN33@Extract:

; 619  :                         }
; 620  : 
; 621  :                         _Pnode->_Color         = _Fixnodeparent->_Color;

  0020d	8a 46 0c	 mov	 al, BYTE PTR [esi+12]
  00210	88 41 0c	 mov	 BYTE PTR [ecx+12], al

; 622  :                         _Fixnodeparent->_Color = _Black;

  00213	c6 46 0c 01	 mov	 BYTE PTR [esi+12], 1

; 623  :                         _Pnode->_Right->_Color = _Black;

  00217	8b 41 08	 mov	 eax, DWORD PTR [ecx+8]

; 624  :                         _Lrotate(_Fixnodeparent);

  0021a	8b cb		 mov	 ecx, ebx
  0021c	56		 push	 esi
  0021d	c6 40 0c 01	 mov	 BYTE PTR [eax+12], 1
  00221	e8 00 00 00 00	 call	 ?_Lrotate@?$_Tree_val@U?$_Tree_simple_types@U?$pair@$$CBKU_WORLDDATA@CQuizDBCtrl@@@std@@@std@@@std@@QAEXPAU?$_Tree_node@U?$pair@$$CBKU_WORLDDATA@CQuizDBCtrl@@@std@@PAX@2@@Z ; std::_Tree_val<std::_Tree_simple_types<std::pair<unsigned long const ,CQuizDBCtrl::_WORLDDATA> > >::_Lrotate

; 625  :                         break; // tree now recolored/rebalanced

  00226	e9 d3 00 00 00	 jmp	 $LN3@Extract
$LN26@Extract:

; 626  :                     }
; 627  :                 } else { // fixup right subtree
; 628  :                     _Pnode = _Fixnodeparent->_Left;
; 629  :                     if (_Pnode->_Color == _Red) { // rotate red up from left subtree

  0022b	80 79 0c 00	 cmp	 BYTE PTR [ecx+12], 0
  0022f	75 55		 jne	 SHORT $LN96@Extract

; 630  :                         _Pnode->_Color         = _Black;

  00231	c6 41 0c 01	 mov	 BYTE PTR [ecx+12], 1

; 506  :         _Nodeptr _Pnode   = _Wherenode->_Left;

  00235	8b 0e		 mov	 ecx, DWORD PTR [esi]

; 631  :                         _Fixnodeparent->_Color = _Red;

  00237	c6 46 0c 00	 mov	 BYTE PTR [esi+12], 0

; 507  :         _Wherenode->_Left = _Pnode->_Right;

  0023b	8b 41 08	 mov	 eax, DWORD PTR [ecx+8]
  0023e	89 06		 mov	 DWORD PTR [esi], eax

; 508  : 
; 509  :         if (!_Pnode->_Right->_Isnil) {

  00240	8b 41 08	 mov	 eax, DWORD PTR [ecx+8]
  00243	80 78 0d 00	 cmp	 BYTE PTR [eax+13], 0
  00247	75 03		 jne	 SHORT $LN69@Extract

; 510  :             _Pnode->_Right->_Parent = _Wherenode;

  00249	89 70 04	 mov	 DWORD PTR [eax+4], esi
$LN69@Extract:

; 511  :         }
; 512  : 
; 513  :         _Pnode->_Parent = _Wherenode->_Parent;

  0024c	8b 46 04	 mov	 eax, DWORD PTR [esi+4]
  0024f	8d 56 04	 lea	 edx, DWORD PTR [esi+4]
  00252	89 41 04	 mov	 DWORD PTR [ecx+4], eax

; 514  : 
; 515  :         if (_Wherenode == _Myhead->_Parent) {

  00255	8b 03		 mov	 eax, DWORD PTR [ebx]
  00257	3b 70 04	 cmp	 esi, DWORD PTR [eax+4]
  0025a	75 0c		 jne	 SHORT $LN70@Extract

; 516  :             _Myhead->_Parent = _Pnode;

  0025c	89 48 04	 mov	 DWORD PTR [eax+4], ecx

; 521  :         }
; 522  : 
; 523  :         _Pnode->_Right      = _Wherenode;

  0025f	89 71 08	 mov	 DWORD PTR [ecx+8], esi

; 524  :         _Wherenode->_Parent = _Pnode;

  00262	89 0a		 mov	 DWORD PTR [edx], ecx

; 632  :                         _Rrotate(_Fixnodeparent);
; 633  :                         _Pnode = _Fixnodeparent->_Left;

  00264	8b 0e		 mov	 ecx, DWORD PTR [esi]
  00266	eb 21		 jmp	 SHORT $LN86@Extract
$LN70@Extract:

; 517  :         } else if (_Wherenode == _Wherenode->_Parent->_Right) {

  00268	8b 02		 mov	 eax, DWORD PTR [edx]
  0026a	3b 70 08	 cmp	 esi, DWORD PTR [eax+8]
  0026d	75 0c		 jne	 SHORT $LN72@Extract

; 518  :             _Wherenode->_Parent->_Right = _Pnode;

  0026f	89 48 08	 mov	 DWORD PTR [eax+8], ecx

; 521  :         }
; 522  : 
; 523  :         _Pnode->_Right      = _Wherenode;

  00272	89 71 08	 mov	 DWORD PTR [ecx+8], esi

; 524  :         _Wherenode->_Parent = _Pnode;

  00275	89 0a		 mov	 DWORD PTR [edx], ecx

; 632  :                         _Rrotate(_Fixnodeparent);
; 633  :                         _Pnode = _Fixnodeparent->_Left;

  00277	8b 0e		 mov	 ecx, DWORD PTR [esi]
  00279	eb 0e		 jmp	 SHORT $LN86@Extract
$LN72@Extract:

; 520  :             _Wherenode->_Parent->_Left = _Pnode;

  0027b	89 08		 mov	 DWORD PTR [eax], ecx

; 521  :         }
; 522  : 
; 523  :         _Pnode->_Right      = _Wherenode;

  0027d	89 71 08	 mov	 DWORD PTR [ecx+8], esi

; 524  :         _Wherenode->_Parent = _Pnode;

  00280	89 0a		 mov	 DWORD PTR [edx], ecx

; 632  :                         _Rrotate(_Fixnodeparent);
; 633  :                         _Pnode = _Fixnodeparent->_Left;

  00282	8b 0e		 mov	 ecx, DWORD PTR [esi]
  00284	eb 03		 jmp	 SHORT $LN86@Extract
$LN96@Extract:
  00286	8d 56 04	 lea	 edx, DWORD PTR [esi+4]
$LN86@Extract:

; 634  :                     }
; 635  : 
; 636  :                     if (_Pnode->_Isnil) {

  00289	80 79 0d 00	 cmp	 BYTE PTR [ecx+13], 0
  0028d	75 18		 jne	 SHORT $LN2@Extract

; 637  :                         _Fixnode = _Fixnodeparent; // shouldn't happen
; 638  :                     } else if (_Pnode->_Right->_Color == _Black
; 639  :                                && _Pnode->_Left->_Color == _Black) { // redden left subtree with black children

  0028f	8b 59 08	 mov	 ebx, DWORD PTR [ecx+8]
  00292	80 7b 0c 01	 cmp	 BYTE PTR [ebx+12], 1
  00296	75 2c		 jne	 SHORT $LN98@Extract
  00298	8b 01		 mov	 eax, DWORD PTR [ecx]
  0029a	80 78 0c 01	 cmp	 BYTE PTR [eax+12], 1
  0029e	75 24		 jne	 SHORT $LN98@Extract
$LN142@Extract:

; 597  :             for (; _Fixnode != _Myhead->_Parent && _Fixnode->_Color == _Black; _Fixnodeparent = _Fixnode->_Parent) {

  002a0	8b 5d fc	 mov	 ebx, DWORD PTR _this$1$[ebp]
  002a3	c6 41 0c 00	 mov	 BYTE PTR [ecx+12], 0
$LN2@Extract:
  002a7	8b 03		 mov	 eax, DWORD PTR [ebx]
  002a9	8b 4d f4	 mov	 ecx, DWORD PTR tv1093[ebp]
  002ac	8b f9		 mov	 edi, ecx
  002ae	8b 32		 mov	 esi, DWORD PTR [edx]
  002b0	3b 48 04	 cmp	 ecx, DWORD PTR [eax+4]
  002b3	74 49		 je	 SHORT $LN3@Extract
  002b5	80 7f 0c 01	 cmp	 BYTE PTR [edi+12], 1
  002b9	89 75 f4	 mov	 DWORD PTR tv1093[ebp], esi
  002bc	0f 84 a1 fe ff
	ff		 je	 $LL4@Extract
  002c2	eb 3a		 jmp	 SHORT $LN3@Extract
$LN98@Extract:

; 640  :                         _Pnode->_Color = _Red;
; 641  :                         _Fixnode       = _Fixnodeparent;
; 642  :                     } else { // must rearrange left subtree
; 643  :                         if (_Pnode->_Left->_Color == _Black) { // rotate red up from right sub-subtree

  002c4	8b 01		 mov	 eax, DWORD PTR [ecx]
  002c6	80 78 0c 01	 cmp	 BYTE PTR [eax+12], 1
  002ca	75 17		 jne	 SHORT $LN101@Extract

; 644  :                             _Pnode->_Right->_Color = _Black;

  002cc	c6 43 0c 01	 mov	 BYTE PTR [ebx+12], 1

; 645  :                             _Pnode->_Color         = _Red;
; 646  :                             _Lrotate(_Pnode);

  002d0	8b 5d fc	 mov	 ebx, DWORD PTR _this$1$[ebp]
  002d3	c6 41 0c 00	 mov	 BYTE PTR [ecx+12], 0
  002d7	51		 push	 ecx
  002d8	8b cb		 mov	 ecx, ebx
  002da	e8 00 00 00 00	 call	 ?_Lrotate@?$_Tree_val@U?$_Tree_simple_types@U?$pair@$$CBKU_WORLDDATA@CQuizDBCtrl@@@std@@@std@@@std@@QAEXPAU?$_Tree_node@U?$pair@$$CBKU_WORLDDATA@CQuizDBCtrl@@@std@@PAX@2@@Z ; std::_Tree_val<std::_Tree_simple_types<std::pair<unsigned long const ,CQuizDBCtrl::_WORLDDATA> > >::_Lrotate

; 647  :                             _Pnode = _Fixnodeparent->_Left;

  002df	8b 0e		 mov	 ecx, DWORD PTR [esi]
  002e1	eb 03		 jmp	 SHORT $LN39@Extract
$LN101@Extract:

; 640  :                         _Pnode->_Color = _Red;
; 641  :                         _Fixnode       = _Fixnodeparent;
; 642  :                     } else { // must rearrange left subtree
; 643  :                         if (_Pnode->_Left->_Color == _Black) { // rotate red up from right sub-subtree

  002e3	8b 5d fc	 mov	 ebx, DWORD PTR _this$1$[ebp]
$LN39@Extract:

; 648  :                         }
; 649  : 
; 650  :                         _Pnode->_Color         = _Fixnodeparent->_Color;

  002e6	8a 46 0c	 mov	 al, BYTE PTR [esi+12]
  002e9	88 41 0c	 mov	 BYTE PTR [ecx+12], al

; 651  :                         _Fixnodeparent->_Color = _Black;

  002ec	c6 46 0c 01	 mov	 BYTE PTR [esi+12], 1

; 652  :                         _Pnode->_Left->_Color  = _Black;

  002f0	8b 01		 mov	 eax, DWORD PTR [ecx]

; 653  :                         _Rrotate(_Fixnodeparent);

  002f2	8b cb		 mov	 ecx, ebx
  002f4	56		 push	 esi
  002f5	c6 40 0c 01	 mov	 BYTE PTR [eax+12], 1
  002f9	e8 00 00 00 00	 call	 ?_Rrotate@?$_Tree_val@U?$_Tree_simple_types@U?$pair@$$CBKU_WORLDDATA@CQuizDBCtrl@@@std@@@std@@@std@@QAEXPAU?$_Tree_node@U?$pair@$$CBKU_WORLDDATA@CQuizDBCtrl@@@std@@PAX@2@@Z ; std::_Tree_val<std::_Tree_simple_types<std::pair<unsigned long const ,CQuizDBCtrl::_WORLDDATA> > >::_Rrotate
$LN3@Extract:

; 654  :                         break; // tree now recolored/rebalanced
; 655  :                     }
; 656  :                 }
; 657  :             }
; 658  : 
; 659  :             _Fixnode->_Color = _Black; // stopping node is black

  002fe	8b 45 f8	 mov	 eax, DWORD PTR __Erasednode$1$[ebp]
  00301	c6 47 0c 01	 mov	 BYTE PTR [edi+12], 1
$LN25@Extract:

; 660  :         }
; 661  : 
; 662  :         if (0 < _Mysize) {

  00305	8b 4b 04	 mov	 ecx, DWORD PTR [ebx+4]
  00308	85 c9		 test	 ecx, ecx
  0030a	74 04		 je	 SHORT $LN40@Extract

; 663  :             --_Mysize;

  0030c	49		 dec	 ecx
  0030d	89 4b 04	 mov	 DWORD PTR [ebx+4], ecx
$LN40@Extract:

; 664  :         }
; 665  : 
; 666  :         return _Erasednode;
; 667  :     }

  00310	5f		 pop	 edi
  00311	5e		 pop	 esi
  00312	5b		 pop	 ebx
  00313	8b e5		 mov	 esp, ebp
  00315	5d		 pop	 ebp
  00316	c2 04 00	 ret	 4
?_Extract@?$_Tree_val@U?$_Tree_simple_types@U?$pair@$$CBKU_WORLDDATA@CQuizDBCtrl@@@std@@@std@@@std@@QAEPAU?$_Tree_node@U?$pair@$$CBKU_WORLDDATA@CQuizDBCtrl@@@std@@PAX@2@V?$_Tree_unchecked_const_iterator@V?$_Tree_val@U?$_Tree_simple_types@U?$pair@$$CBKU_WORLDDATA@CQuizDBCtrl@@@std@@@std@@@std@@U_Iterator_base0@2@@2@@Z ENDP ; std::_Tree_val<std::_Tree_simple_types<std::pair<unsigned long const ,CQuizDBCtrl::_WORLDDATA> > >::_Extract
_TEXT	ENDS
; Function compile flags: /Ogtp
; File C:\Program Files\Microsoft Visual Studio\2022\Professional\VC\Tools\MSVC\14.44.35207\include\xtree
;	COMDAT ?_Rrotate@?$_Tree_val@U?$_Tree_simple_types@U?$pair@$$CBKU_WORLDDATA@CQuizDBCtrl@@@std@@@std@@@std@@QAEXPAU?$_Tree_node@U?$pair@$$CBKU_WORLDDATA@CQuizDBCtrl@@@std@@PAX@2@@Z
_TEXT	SEGMENT
__Wherenode$ = 8					; size = 4
?_Rrotate@?$_Tree_val@U?$_Tree_simple_types@U?$pair@$$CBKU_WORLDDATA@CQuizDBCtrl@@@std@@@std@@@std@@QAEXPAU?$_Tree_node@U?$pair@$$CBKU_WORLDDATA@CQuizDBCtrl@@@std@@PAX@2@@Z PROC ; std::_Tree_val<std::_Tree_simple_types<std::pair<unsigned long const ,CQuizDBCtrl::_WORLDDATA> > >::_Rrotate, COMDAT
; _this$ = ecx

; 505  :     void _Rrotate(_Nodeptr _Wherenode) noexcept { // promote left node to root of subtree

  00000	55		 push	 ebp
  00001	8b ec		 mov	 ebp, esp

; 506  :         _Nodeptr _Pnode   = _Wherenode->_Left;

  00003	8b 55 08	 mov	 edx, DWORD PTR __Wherenode$[ebp]
  00006	56		 push	 esi
  00007	8b 32		 mov	 esi, DWORD PTR [edx]

; 507  :         _Wherenode->_Left = _Pnode->_Right;

  00009	8b 46 08	 mov	 eax, DWORD PTR [esi+8]
  0000c	89 02		 mov	 DWORD PTR [edx], eax

; 508  : 
; 509  :         if (!_Pnode->_Right->_Isnil) {

  0000e	8b 46 08	 mov	 eax, DWORD PTR [esi+8]
  00011	80 78 0d 00	 cmp	 BYTE PTR [eax+13], 0
  00015	75 03		 jne	 SHORT $LN2@Rrotate

; 510  :             _Pnode->_Right->_Parent = _Wherenode;

  00017	89 50 04	 mov	 DWORD PTR [eax+4], edx
$LN2@Rrotate:

; 511  :         }
; 512  : 
; 513  :         _Pnode->_Parent = _Wherenode->_Parent;

  0001a	8b 42 04	 mov	 eax, DWORD PTR [edx+4]
  0001d	89 46 04	 mov	 DWORD PTR [esi+4], eax

; 514  : 
; 515  :         if (_Wherenode == _Myhead->_Parent) {

  00020	8b 01		 mov	 eax, DWORD PTR [ecx]
  00022	3b 50 04	 cmp	 edx, DWORD PTR [eax+4]
  00025	75 0e		 jne	 SHORT $LN3@Rrotate

; 516  :             _Myhead->_Parent = _Pnode;

  00027	89 70 04	 mov	 DWORD PTR [eax+4], esi

; 521  :         }
; 522  : 
; 523  :         _Pnode->_Right      = _Wherenode;
; 524  :         _Wherenode->_Parent = _Pnode;
; 525  :     }

  0002a	89 56 08	 mov	 DWORD PTR [esi+8], edx
  0002d	89 72 04	 mov	 DWORD PTR [edx+4], esi
  00030	5e		 pop	 esi
  00031	5d		 pop	 ebp
  00032	c2 04 00	 ret	 4
$LN3@Rrotate:

; 517  :         } else if (_Wherenode == _Wherenode->_Parent->_Right) {

  00035	8b 42 04	 mov	 eax, DWORD PTR [edx+4]
  00038	3b 50 08	 cmp	 edx, DWORD PTR [eax+8]
  0003b	75 0e		 jne	 SHORT $LN5@Rrotate

; 518  :             _Wherenode->_Parent->_Right = _Pnode;

  0003d	89 70 08	 mov	 DWORD PTR [eax+8], esi

; 521  :         }
; 522  : 
; 523  :         _Pnode->_Right      = _Wherenode;
; 524  :         _Wherenode->_Parent = _Pnode;
; 525  :     }

  00040	89 56 08	 mov	 DWORD PTR [esi+8], edx
  00043	89 72 04	 mov	 DWORD PTR [edx+4], esi
  00046	5e		 pop	 esi
  00047	5d		 pop	 ebp
  00048	c2 04 00	 ret	 4
$LN5@Rrotate:

; 519  :         } else {
; 520  :             _Wherenode->_Parent->_Left = _Pnode;

  0004b	89 30		 mov	 DWORD PTR [eax], esi

; 521  :         }
; 522  : 
; 523  :         _Pnode->_Right      = _Wherenode;
; 524  :         _Wherenode->_Parent = _Pnode;
; 525  :     }

  0004d	89 56 08	 mov	 DWORD PTR [esi+8], edx
  00050	89 72 04	 mov	 DWORD PTR [edx+4], esi
  00053	5e		 pop	 esi
  00054	5d		 pop	 ebp
  00055	c2 04 00	 ret	 4
?_Rrotate@?$_Tree_val@U?$_Tree_simple_types@U?$pair@$$CBKU_WORLDDATA@CQuizDBCtrl@@@std@@@std@@@std@@QAEXPAU?$_Tree_node@U?$pair@$$CBKU_WORLDDATA@CQuizDBCtrl@@@std@@PAX@2@@Z ENDP ; std::_Tree_val<std::_Tree_simple_types<std::pair<unsigned long const ,CQuizDBCtrl::_WORLDDATA> > >::_Rrotate
_TEXT	ENDS
; Function compile flags: /Ogtp
; File C:\Program Files\Microsoft Visual Studio\2022\Professional\VC\Tools\MSVC\14.44.35207\include\xtree
;	COMDAT ?_Lrotate@?$_Tree_val@U?$_Tree_simple_types@U?$pair@$$CBKU_WORLDDATA@CQuizDBCtrl@@@std@@@std@@@std@@QAEXPAU?$_Tree_node@U?$pair@$$CBKU_WORLDDATA@CQuizDBCtrl@@@std@@PAX@2@@Z
_TEXT	SEGMENT
__Wherenode$ = 8					; size = 4
?_Lrotate@?$_Tree_val@U?$_Tree_simple_types@U?$pair@$$CBKU_WORLDDATA@CQuizDBCtrl@@@std@@@std@@@std@@QAEXPAU?$_Tree_node@U?$pair@$$CBKU_WORLDDATA@CQuizDBCtrl@@@std@@PAX@2@@Z PROC ; std::_Tree_val<std::_Tree_simple_types<std::pair<unsigned long const ,CQuizDBCtrl::_WORLDDATA> > >::_Lrotate, COMDAT
; _this$ = ecx

; 483  :     void _Lrotate(_Nodeptr _Wherenode) noexcept { // promote right node to root of subtree

  00000	55		 push	 ebp
  00001	8b ec		 mov	 ebp, esp

; 484  :         _Nodeptr _Pnode    = _Wherenode->_Right;

  00003	8b 55 08	 mov	 edx, DWORD PTR __Wherenode$[ebp]
  00006	56		 push	 esi
  00007	8b 72 08	 mov	 esi, DWORD PTR [edx+8]

; 485  :         _Wherenode->_Right = _Pnode->_Left;

  0000a	8b 06		 mov	 eax, DWORD PTR [esi]
  0000c	89 42 08	 mov	 DWORD PTR [edx+8], eax

; 486  : 
; 487  :         if (!_Pnode->_Left->_Isnil) {

  0000f	8b 06		 mov	 eax, DWORD PTR [esi]
  00011	80 78 0d 00	 cmp	 BYTE PTR [eax+13], 0
  00015	75 03		 jne	 SHORT $LN2@Lrotate

; 488  :             _Pnode->_Left->_Parent = _Wherenode;

  00017	89 50 04	 mov	 DWORD PTR [eax+4], edx
$LN2@Lrotate:

; 489  :         }
; 490  : 
; 491  :         _Pnode->_Parent = _Wherenode->_Parent;

  0001a	8b 42 04	 mov	 eax, DWORD PTR [edx+4]
  0001d	89 46 04	 mov	 DWORD PTR [esi+4], eax

; 492  : 
; 493  :         if (_Wherenode == _Myhead->_Parent) {

  00020	8b 01		 mov	 eax, DWORD PTR [ecx]
  00022	3b 50 04	 cmp	 edx, DWORD PTR [eax+4]
  00025	75 0d		 jne	 SHORT $LN3@Lrotate

; 494  :             _Myhead->_Parent = _Pnode;

  00027	89 70 04	 mov	 DWORD PTR [eax+4], esi

; 499  :         }
; 500  : 
; 501  :         _Pnode->_Left       = _Wherenode;
; 502  :         _Wherenode->_Parent = _Pnode;
; 503  :     }

  0002a	89 16		 mov	 DWORD PTR [esi], edx
  0002c	89 72 04	 mov	 DWORD PTR [edx+4], esi
  0002f	5e		 pop	 esi
  00030	5d		 pop	 ebp
  00031	c2 04 00	 ret	 4
$LN3@Lrotate:

; 495  :         } else if (_Wherenode == _Wherenode->_Parent->_Left) {

  00034	8b 42 04	 mov	 eax, DWORD PTR [edx+4]
  00037	3b 10		 cmp	 edx, DWORD PTR [eax]
  00039	75 0c		 jne	 SHORT $LN5@Lrotate

; 496  :             _Wherenode->_Parent->_Left = _Pnode;

  0003b	89 30		 mov	 DWORD PTR [eax], esi

; 499  :         }
; 500  : 
; 501  :         _Pnode->_Left       = _Wherenode;
; 502  :         _Wherenode->_Parent = _Pnode;
; 503  :     }

  0003d	89 16		 mov	 DWORD PTR [esi], edx
  0003f	89 72 04	 mov	 DWORD PTR [edx+4], esi
  00042	5e		 pop	 esi
  00043	5d		 pop	 ebp
  00044	c2 04 00	 ret	 4
$LN5@Lrotate:

; 497  :         } else {
; 498  :             _Wherenode->_Parent->_Right = _Pnode;

  00047	89 70 08	 mov	 DWORD PTR [eax+8], esi

; 499  :         }
; 500  : 
; 501  :         _Pnode->_Left       = _Wherenode;
; 502  :         _Wherenode->_Parent = _Pnode;
; 503  :     }

  0004a	89 16		 mov	 DWORD PTR [esi], edx
  0004c	89 72 04	 mov	 DWORD PTR [edx+4], esi
  0004f	5e		 pop	 esi
  00050	5d		 pop	 ebp
  00051	c2 04 00	 ret	 4
?_Lrotate@?$_Tree_val@U?$_Tree_simple_types@U?$pair@$$CBKU_WORLDDATA@CQuizDBCtrl@@@std@@@std@@@std@@QAEXPAU?$_Tree_node@U?$pair@$$CBKU_WORLDDATA@CQuizDBCtrl@@@std@@PAX@2@@Z ENDP ; std::_Tree_val<std::_Tree_simple_types<std::pair<unsigned long const ,CQuizDBCtrl::_WORLDDATA> > >::_Lrotate
_TEXT	ENDS
; Function compile flags: /Ogtp
; File C:\Program Files\Microsoft Visual Studio\2022\Professional\VC\Tools\MSVC\14.44.35207\include\xtree
; File C:\Program Files\Microsoft Visual Studio\2022\Professional\VC\Tools\MSVC\14.44.35207\include\utility
; File C:\Program Files\Microsoft Visual Studio\2022\Professional\VC\Tools\MSVC\14.44.35207\include\xmemory
; File C:\Program Files\Microsoft Visual Studio\2022\Professional\VC\Tools\MSVC\14.44.35207\include\xtree
; File C:\Program Files\Microsoft Visual Studio\2022\Professional\VC\Tools\MSVC\14.44.35207\include\xmemory
; File C:\Program Files\Microsoft Visual Studio\2022\Professional\VC\Tools\MSVC\14.44.35207\include\xtree
;	COMDAT ??1?$_Tree@V?$_Tmap_traits@KU_WORLDDATA@CQuizDBCtrl@@U?$less@K@std@@V?$allocator@U?$pair@$$CBKU_WORLDDATA@CQuizDBCtrl@@@std@@@4@$0A@@std@@@std@@QAE@XZ
_TEXT	SEGMENT
??1?$_Tree@V?$_Tmap_traits@KU_WORLDDATA@CQuizDBCtrl@@U?$less@K@std@@V?$allocator@U?$pair@$$CBKU_WORLDDATA@CQuizDBCtrl@@@std@@@4@$0A@@std@@@std@@QAE@XZ PROC ; std::_Tree<std::_Tmap_traits<unsigned long,CQuizDBCtrl::_WORLDDATA,std::less<unsigned long>,std::allocator<std::pair<unsigned long const ,CQuizDBCtrl::_WORLDDATA> >,0> >::~_Tree<std::_Tmap_traits<unsigned long,CQuizDBCtrl::_WORLDDATA,std::less<unsigned long>,std::allocator<std::pair<unsigned long const ,CQuizDBCtrl::_WORLDDATA> >,0> >, COMDAT
; _this$ = ecx

; 1095 :     ~_Tree() noexcept {

  00000	56		 push	 esi
  00001	57		 push	 edi
  00002	8b f9		 mov	 edi, ecx

; 777  :         _Erase_tree(_Al, _Myhead->_Parent);

  00004	8b 37		 mov	 esi, DWORD PTR [edi]
  00006	8b 76 04	 mov	 esi, DWORD PTR [esi+4]

; 768  :         while (!_Rootnode->_Isnil) { // free subtrees, then node

  00009	80 7e 0d 00	 cmp	 BYTE PTR [esi+13], 0
  0000d	75 21		 jne	 SHORT $LN61@Tree
  0000f	90		 npad	 1
$LL8@Tree:

; 769  :             _Erase_tree(_Al, _Rootnode->_Right);

  00010	ff 76 08	 push	 DWORD PTR [esi+8]
  00013	8b cf		 mov	 ecx, edi
  00015	57		 push	 edi
  00016	e8 00 00 00 00	 call	 ??$_Erase_tree@V?$allocator@U?$_Tree_node@U?$pair@$$CBKU_WORLDDATA@CQuizDBCtrl@@@std@@PAX@std@@@std@@@?$_Tree_val@U?$_Tree_simple_types@U?$pair@$$CBKU_WORLDDATA@CQuizDBCtrl@@@std@@@std@@@std@@QAEXAAV?$allocator@U?$_Tree_node@U?$pair@$$CBKU_WORLDDATA@CQuizDBCtrl@@@std@@PAX@std@@@1@PAU?$_Tree_node@U?$pair@$$CBKU_WORLDDATA@CQuizDBCtrl@@@std@@PAX@1@@Z ; std::_Tree_val<std::_Tree_simple_types<std::pair<unsigned long const ,CQuizDBCtrl::_WORLDDATA> > >::_Erase_tree<std::allocator<std::_Tree_node<std::pair<unsigned long const ,CQuizDBCtrl::_WORLDDATA>,void *> > >
; File C:\Program Files\Microsoft Visual Studio\2022\Professional\VC\Tools\MSVC\14.44.35207\include\utility

; 773  :     _Ty _Old_val = static_cast<_Ty&&>(_Val);

  0001b	8b c6		 mov	 eax, esi

; 774  :     _Val         = static_cast<_Other&&>(_New_val);

  0001d	8b 36		 mov	 esi, DWORD PTR [esi]
; File C:\Program Files\Microsoft Visual Studio\2022\Professional\VC\Tools\MSVC\14.44.35207\include\xmemory

; 289  :         ::operator delete(_Ptr, _Bytes);

  0001f	6a 30		 push	 48			; 00000030H
  00021	50		 push	 eax
  00022	e8 00 00 00 00	 call	 ??3@YAXPAXI@Z		; operator delete
  00027	83 c4 08	 add	 esp, 8
; File C:\Program Files\Microsoft Visual Studio\2022\Professional\VC\Tools\MSVC\14.44.35207\include\xtree

; 768  :         while (!_Rootnode->_Isnil) { // free subtrees, then node

  0002a	80 7e 0d 00	 cmp	 BYTE PTR [esi+13], 0
  0002e	74 e0		 je	 SHORT $LL8@Tree
$LN61@Tree:
; File C:\Program Files\Microsoft Visual Studio\2022\Professional\VC\Tools\MSVC\14.44.35207\include\xmemory

; 289  :         ::operator delete(_Ptr, _Bytes);

  00030	6a 30		 push	 48			; 00000030H
  00032	ff 37		 push	 DWORD PTR [edi]
  00034	e8 00 00 00 00	 call	 ??3@YAXPAXI@Z		; operator delete
  00039	83 c4 08	 add	 esp, 8
  0003c	5f		 pop	 edi
  0003d	5e		 pop	 esi
; File C:\Program Files\Microsoft Visual Studio\2022\Professional\VC\Tools\MSVC\14.44.35207\include\xtree

; 1102 :     }

  0003e	c3		 ret	 0
??1?$_Tree@V?$_Tmap_traits@KU_WORLDDATA@CQuizDBCtrl@@U?$less@K@std@@V?$allocator@U?$pair@$$CBKU_WORLDDATA@CQuizDBCtrl@@@std@@@4@$0A@@std@@@std@@QAE@XZ ENDP ; std::_Tree<std::_Tmap_traits<unsigned long,CQuizDBCtrl::_WORLDDATA,std::less<unsigned long>,std::allocator<std::pair<unsigned long const ,CQuizDBCtrl::_WORLDDATA> >,0> >::~_Tree<std::_Tmap_traits<unsigned long,CQuizDBCtrl::_WORLDDATA,std::less<unsigned long>,std::allocator<std::pair<unsigned long const ,CQuizDBCtrl::_WORLDDATA> >,0> >
_TEXT	ENDS
; Function compile flags: /Ogtp
; File C:\IAGOS\server\v18\Source\Source\DatabaseServer\QuizDBCtrl.cpp
; File C:\Program Files (x86)\Windows Kits\10\Include\10.0.26100.0\ucrt\time.h
; File C:\IAGOS\server\v18\Source\Source\DatabaseServer\QuizDBCtrl.cpp
; File C:\Program Files (x86)\Windows Kits\10\Include\10.0.26100.0\ucrt\time.h
; File C:\IAGOS\server\v18\Source\Source\DatabaseServer\QuizDBCtrl.cpp
; File C:\IAGOS\server\v18\Source\Source\_Common\Data.h
; File C:\IAGOS\server\v18\Source\Source\DatabaseServer\Project.h
; File C:\IAGOS\server\v18\Source\Source\DatabaseServer\QuizDBCtrl.cpp
; File C:\IAGOS\server\v18\Source\Source\_Common\Data.h
; File C:\IAGOS\server\v18\Source\Source\DatabaseServer\Project.h
; File C:\IAGOS\server\v18\Source\Source\DatabaseServer\QuizDBCtrl.cpp
; File C:\IAGOS\server\v18\Source\Source\_Common\xutil.h
; File C:\IAGOS\server\v18\Source\Source\DatabaseServer\QuizDBCtrl.cpp
;	COMDAT ?PostPrizeItem@CQuizDBCtrl@@AAEXKKH@Z
_TEXT	SEGMENT
$T2 = -16						; size = 4
$T3 = -16						; size = 4
__$EHRec$ = -12						; size = 12
_idPlayer$ = 8						; size = 4
_dwItemId$ = 12						; size = 4
_nItemNum$ = 16						; size = 4
?PostPrizeItem@CQuizDBCtrl@@AAEXKKH@Z PROC		; CQuizDBCtrl::PostPrizeItem, COMDAT
; _this$ = ecx

; 318  : {

  00000	55		 push	 ebp
  00001	8b ec		 mov	 ebp, esp
  00003	6a ff		 push	 -1
  00005	68 00 00 00 00	 push	 __ehhandler$?PostPrizeItem@CQuizDBCtrl@@AAEXKKH@Z
  0000a	64 a1 00 00 00
	00		 mov	 eax, DWORD PTR fs:0
  00010	50		 push	 eax
  00011	51		 push	 ecx
  00012	56		 push	 esi
  00013	57		 push	 edi
  00014	a1 00 00 00 00	 mov	 eax, DWORD PTR ___security_cookie
  00019	33 c5		 xor	 eax, ebp
  0001b	50		 push	 eax
  0001c	8d 45 f4	 lea	 eax, DWORD PTR __$EHRec$[ebp]
  0001f	64 a3 00 00 00
	00		 mov	 DWORD PTR fs:0, eax
  00025	8b f9		 mov	 edi, ecx

; 319  : 	CMail* pMail	= new CMail;

  00027	68 40 01 00 00	 push	 320			; 00000140H
  0002c	e8 00 00 00 00	 call	 ??2@YAPAXI@Z		; operator new
  00031	83 c4 04	 add	 esp, 4
  00034	89 45 f0	 mov	 DWORD PTR $T2[ebp], eax
  00037	c7 45 fc 00 00
	00 00		 mov	 DWORD PTR __$EHRec$[ebp+8], 0
  0003e	85 c0		 test	 eax, eax
  00040	74 0b		 je	 SHORT $LN3@PostPrizeI
  00042	8b c8		 mov	 ecx, eax
  00044	e8 00 00 00 00	 call	 ??0CMail@@QAE@XZ	; CMail::CMail
  00049	8b f0		 mov	 esi, eax
  0004b	eb 02		 jmp	 SHORT $LN4@PostPrizeI
$LN3@PostPrizeI:
  0004d	33 f6		 xor	 esi, esi
$LN4@PostPrizeI:
; File C:\Program Files (x86)\Windows Kits\10\Include\10.0.26100.0\ucrt\time.h

; 428  :             return _time32(_Time);

  0004f	6a 00		 push	 0
; File C:\IAGOS\server\v18\Source\Source\DatabaseServer\QuizDBCtrl.cpp

; 319  : 	CMail* pMail	= new CMail;

  00051	c7 45 fc ff ff
	ff ff		 mov	 DWORD PTR __$EHRec$[ebp+8], -1
; File C:\Program Files (x86)\Windows Kits\10\Include\10.0.26100.0\ucrt\time.h

; 428  :             return _time32(_Time);

  00058	e8 00 00 00 00	 call	 __time32
  0005d	83 c4 04	 add	 esp, 4
; File C:\IAGOS\server\v18\Source\Source\DatabaseServer\QuizDBCtrl.cpp

; 320  : 	pMail->m_tmCreate	= ::time_null();

  00060	89 46 14	 mov	 DWORD PTR [esi+20], eax

; 321  : 	pMail->m_idSender	= 0;

  00063	c7 46 08 00 00
	00 00		 mov	 DWORD PTR [esi+8], 0
; File C:\IAGOS\server\v18\Source\Source\_Common\Data.h

; 270  : 	if( dwIndex >= (DWORD)m_nMaxIndex )

  0006a	81 3d 78 00 00
	00 79 10 00 00	 cmp	 DWORD PTR ?prj@@3VCProject@@A+120, 4217 ; 00001079H
  00074	76 14		 jbe	 SHORT $LN33@PostPrizeI

; 271  : 		return NULL;
; 272  : 	return (T*) m_apOffset[ dwIndex ];

  00076	a1 68 00 00 00	 mov	 eax, DWORD PTR ?prj@@3VCProject@@A+104
  0007b	8b 80 e4 41 00
	00		 mov	 eax, DWORD PTR [eax+16868]
; File C:\IAGOS\server\v18\Source\Source\DatabaseServer\Project.h

; 184  : 		if( m_colorText.GetAt( dwIndex ) == NULL )

  00081	85 c0		 test	 eax, eax
  00083	74 05		 je	 SHORT $LN33@PostPrizeI

; 186  : 		return m_colorText.GetAt( dwIndex )->lpszData; 

  00085	8b 40 04	 mov	 eax, DWORD PTR [eax+4]
  00088	eb 05		 jmp	 SHORT $LN13@PostPrizeI
$LN33@PostPrizeI:

; 185  : 			return "";

  0008a	b8 00 00 00 00	 mov	 eax, OFFSET ??_C@_00CNPNBAHC@@
$LN13@PostPrizeI:
; File C:\IAGOS\server\v18\Source\Source\DatabaseServer\QuizDBCtrl.cpp

; 322  : 	sprintf( pMail->m_szTitle, prj.GetText( TID_GAME_QUIZ_PRIZEITEM_TITLE ) );

  0008f	50		 push	 eax
  00090	8d 46 19	 lea	 eax, DWORD PTR [esi+25]
  00093	50		 push	 eax
  00094	e8 00 00 00 00	 call	 _sprintf
  00099	83 c4 08	 add	 esp, 8
; File C:\IAGOS\server\v18\Source\Source\_Common\Data.h

; 270  : 	if( dwIndex >= (DWORD)m_nMaxIndex )

  0009c	81 3d 78 00 00
	00 7a 10 00 00	 cmp	 DWORD PTR ?prj@@3VCProject@@A+120, 4218 ; 0000107aH
  000a6	76 14		 jbe	 SHORT $LN34@PostPrizeI

; 271  : 		return NULL;
; 272  : 	return (T*) m_apOffset[ dwIndex ];

  000a8	a1 68 00 00 00	 mov	 eax, DWORD PTR ?prj@@3VCProject@@A+104
  000ad	8b 80 e8 41 00
	00		 mov	 eax, DWORD PTR [eax+16872]
; File C:\IAGOS\server\v18\Source\Source\DatabaseServer\Project.h

; 184  : 		if( m_colorText.GetAt( dwIndex ) == NULL )

  000b3	85 c0		 test	 eax, eax
  000b5	74 05		 je	 SHORT $LN34@PostPrizeI

; 186  : 		return m_colorText.GetAt( dwIndex )->lpszData; 

  000b7	8b 40 04	 mov	 eax, DWORD PTR [eax+4]
  000ba	eb 05		 jmp	 SHORT $LN22@PostPrizeI
$LN34@PostPrizeI:

; 185  : 			return "";

  000bc	b8 00 00 00 00	 mov	 eax, OFFSET ??_C@_00CNPNBAHC@@
$LN22@PostPrizeI:
; File C:\IAGOS\server\v18\Source\Source\DatabaseServer\QuizDBCtrl.cpp

; 323  : 	sprintf( pMail->m_szText, prj.GetText( TID_GAME_QUIZ_PRIZEITEM_TEXT ) );

  000c1	50		 push	 eax
  000c2	8d 46 39	 lea	 eax, DWORD PTR [esi+57]
  000c5	50		 push	 eax
  000c6	e8 00 00 00 00	 call	 _sprintf

; 324  : 	pMail->m_pItemElem	= new CItemElem;

  000cb	68 98 00 00 00	 push	 152			; 00000098H
  000d0	e8 00 00 00 00	 call	 ??2@YAPAXI@Z		; operator new
  000d5	83 c4 0c	 add	 esp, 12			; 0000000cH
  000d8	89 45 f0	 mov	 DWORD PTR $T3[ebp], eax
  000db	c7 45 fc 01 00
	00 00		 mov	 DWORD PTR __$EHRec$[ebp+8], 1
  000e2	85 c0		 test	 eax, eax
  000e4	74 0b		 je	 SHORT $LN5@PostPrizeI
  000e6	8b c8		 mov	 ecx, eax
  000e8	e8 00 00 00 00	 call	 ??0CItemElem@@QAE@XZ	; CItemElem::CItemElem
  000ed	8b c8		 mov	 ecx, eax
  000ef	eb 02		 jmp	 SHORT $LN6@PostPrizeI
$LN5@PostPrizeI:
  000f1	33 c9		 xor	 ecx, ecx
$LN6@PostPrizeI:

; 325  : 	pMail->m_pItemElem->m_dwItemId	= dwItemId;

  000f3	8b 45 0c	 mov	 eax, DWORD PTR _dwItemId$[ebp]
  000f6	89 4e 0c	 mov	 DWORD PTR [esi+12], ecx
  000f9	89 41 08	 mov	 DWORD PTR [ecx+8], eax

; 326  : 	pMail->m_pItemElem->m_nItemNum	= nItemNum;

  000fc	8b 4e 0c	 mov	 ecx, DWORD PTR [esi+12]
  000ff	66 8b 45 10	 mov	 ax, WORD PTR _nItemNum$[ebp]
  00103	c7 45 fc ff ff
	ff ff		 mov	 DWORD PTR __$EHRec$[ebp+8], -1
  0010a	66 89 41 66	 mov	 WORD PTR [ecx+102], ax

; 327  : 	pMail->m_pItemElem->m_dwKeepTime	=	0;

  0010e	8b 46 0c	 mov	 eax, DWORD PTR [esi+12]
  00111	c7 80 80 00 00
	00 00 00 00 00	 mov	 DWORD PTR [eax+128], 0
; File C:\IAGOS\server\v18\Source\Source\_Common\xutil.h

; 16   : 	g_next = g_next * 1103515245 + 12345;// + nRandomSeed[ i++ ];

  0011b	69 0d 00 00 00
	00 6d 4e c6 41	 imul	 ecx, DWORD PTR ?g_next@@3KA, 1103515245 ; g_next
  00125	81 c1 39 30 00
	00		 add	 ecx, 12345		; 00003039H
  0012b	89 0d 00 00 00
	00		 mov	 DWORD PTR ?g_next@@3KA, ecx ; g_next
; File C:\IAGOS\server\v18\Source\Source\DatabaseServer\QuizDBCtrl.cpp

; 328  : 	pMail->m_pItemElem->SetSerialNumber( xRand() );

  00131	8b 46 0c	 mov	 eax, DWORD PTR [esi+12]
  00134	89 48 30	 mov	 DWORD PTR [eax+48], ecx

; 329  : 	post::Post( idPlayer, pMail, GetQueryObject() );

  00137	ff 77 0c	 push	 DWORD PTR [edi+12]
  0013a	56		 push	 esi
  0013b	ff 75 08	 push	 DWORD PTR _idPlayer$[ebp]
  0013e	e8 00 00 00 00	 call	 ?Post@post@@YAXKPAVCMail@@PAVCQuery@@@Z ; post::Post
  00143	83 c4 0c	 add	 esp, 12			; 0000000cH

; 330  : }

  00146	8b 4d f4	 mov	 ecx, DWORD PTR __$EHRec$[ebp]
  00149	64 89 0d 00 00
	00 00		 mov	 DWORD PTR fs:0, ecx
  00150	59		 pop	 ecx
  00151	5f		 pop	 edi
  00152	5e		 pop	 esi
  00153	8b e5		 mov	 esp, ebp
  00155	5d		 pop	 ebp
  00156	c2 0c 00	 ret	 12			; 0000000cH
_TEXT	ENDS
;	COMDAT text$x
text$x	SEGMENT
__unwindfunclet$?PostPrizeItem@CQuizDBCtrl@@AAEXKKH@Z$0:
  00000	68 40 01 00 00	 push	 320			; 00000140H
  00005	8b 45 f0	 mov	 eax, DWORD PTR $T2[ebp]
  00008	50		 push	 eax
  00009	e8 00 00 00 00	 call	 ??3@YAXPAXI@Z		; operator delete
  0000e	83 c4 08	 add	 esp, 8
  00011	c3		 ret	 0
__unwindfunclet$?PostPrizeItem@CQuizDBCtrl@@AAEXKKH@Z$1:
  00012	68 98 00 00 00	 push	 152			; 00000098H
  00017	8b 45 f0	 mov	 eax, DWORD PTR $T3[ebp]
  0001a	50		 push	 eax
  0001b	e8 00 00 00 00	 call	 ??3@YAXPAXI@Z		; operator delete
  00020	83 c4 08	 add	 esp, 8
  00023	c3		 ret	 0
  00024	cc		 int	 3
  00025	cc		 int	 3
  00026	cc		 int	 3
  00027	cc		 int	 3
  00028	cc		 int	 3
__ehhandler$?PostPrizeItem@CQuizDBCtrl@@AAEXKKH@Z:
  00029	90		 npad	 1
  0002a	90		 npad	 1
  0002b	8b 54 24 08	 mov	 edx, DWORD PTR [esp+8]
  0002f	8d 42 0c	 lea	 eax, DWORD PTR [edx+12]
  00032	8b 4a f0	 mov	 ecx, DWORD PTR [edx-16]
  00035	33 c8		 xor	 ecx, eax
  00037	e8 00 00 00 00	 call	 @__security_check_cookie@4
  0003c	b8 00 00 00 00	 mov	 eax, OFFSET __ehfuncinfo$?PostPrizeItem@CQuizDBCtrl@@AAEXKKH@Z
  00041	e9 00 00 00 00	 jmp	 ___CxxFrameHandler3
text$x	ENDS
?PostPrizeItem@CQuizDBCtrl@@AAEXKKH@Z ENDP		; CQuizDBCtrl::PostPrizeItem
; Function compile flags: /Ogtp
; File C:\IAGOS\server\v18\Source\Source\DatabaseServer\QuizDBCtrl.cpp
;	COMDAT ?SelectQuizExample@CQuizDBCtrl@@AAEXKKHHHH@Z
_TEXT	SEGMENT
_szQuery$ = -40964					; size = 40960
__$ArrayPad$ = -4					; size = 4
_dpId$ = 8						; size = 4
_idPlayer$ = 12						; size = 4
_nChannel$ = 16						; size = 4
_nQuizId$ = 20						; size = 4
_nSelect$ = 24						; size = 4
_nAnswer$ = 28						; size = 4
?SelectQuizExample@CQuizDBCtrl@@AAEXKKHHHH@Z PROC	; CQuizDBCtrl::SelectQuizExample, COMDAT
; _this$ = ecx

; 301  : {

  00000	55		 push	 ebp
  00001	8b ec		 mov	 ebp, esp
  00003	b8 04 a0 00 00	 mov	 eax, 40964		; 0000a004H
  00008	e8 00 00 00 00	 call	 __chkstk
  0000d	a1 00 00 00 00	 mov	 eax, DWORD PTR ___security_cookie
  00012	33 c5		 xor	 eax, ebp
  00014	89 45 fc	 mov	 DWORD PTR __$ArrayPad$[ebp], eax
  00017	56		 push	 esi
  00018	8b f1		 mov	 esi, ecx

; 302  : 	if( !CQuiz::GetInstance()->IsRun() )

  0001a	e8 00 00 00 00	 call	 ?GetInstance@CQuiz@@SAPAV1@XZ ; CQuiz::GetInstance
  0001f	83 78 08 00	 cmp	 DWORD PTR [eax+8], 0
  00023	0f 84 80 00 00
	00		 je	 $LN4@SelectQuiz

; 303  : 		return;
; 304  : 	
; 305  : 	int nId = GetQuizEventId( dpId );

  00029	57		 push	 edi
  0002a	ff 75 08	 push	 DWORD PTR _dpId$[ebp]
  0002d	8b ce		 mov	 ecx, esi
  0002f	e8 00 00 00 00	 call	 ?GetQuizEventId@CQuizDBCtrl@@AAEHK@Z ; CQuizDBCtrl::GetQuizEventId
  00034	8b f8		 mov	 edi, eax

; 306  : 	if( nId == 0 )

  00036	85 ff		 test	 edi, edi
  00038	74 6e		 je	 SHORT $LN11@SelectQuiz

; 307  : 		return;
; 308  : 
; 309  : 	char szQuery[QUERY_SIZE] = {0, };

  0003a	68 00 a0 00 00	 push	 40960			; 0000a000H
  0003f	8d 85 fc 5f ff
	ff		 lea	 eax, DWORD PTR _szQuery$[ebp]
  00045	6a 00		 push	 0
  00047	50		 push	 eax
  00048	e8 00 00 00 00	 call	 _memset

; 310  : 	
; 311  : 	sprintf( szQuery, "usp_QuizAnswerLog_Insert @m_idQuizEvent = %d, @m_idPlayer = '%07d', @serverindex = '%02d', @m_nChannel = %d, @m_nQuizNum = %d, @m_nSelect = %d, @m_nAnswer = %d", 

  0004d	ff 75 1c	 push	 DWORD PTR _nAnswer$[ebp]
  00050	8d 85 fc 5f ff
	ff		 lea	 eax, DWORD PTR _szQuery$[ebp]
  00056	ff 75 18	 push	 DWORD PTR _nSelect$[ebp]
  00059	ff 75 14	 push	 DWORD PTR _nQuizId$[ebp]
  0005c	ff 75 10	 push	 DWORD PTR _nChannel$[ebp]
  0005f	ff 35 00 00 00
	00		 push	 DWORD PTR ?g_appInfo@@3UAppInfo@@A
  00065	ff 75 0c	 push	 DWORD PTR _idPlayer$[ebp]
  00068	57		 push	 edi
  00069	68 00 00 00 00	 push	 OFFSET ??_C@_0KA@MEAEOFMI@usp_QuizAnswerLog_Insert?5?$EAm_idQ@
  0006e	50		 push	 eax
  0006f	e8 00 00 00 00	 call	 _sprintf

; 312  : 		nId, idPlayer, g_appInfo.dwSys, nChannel, nQuizId, nSelect, nAnswer );
; 313  : 	if( m_pQuery->Exec( szQuery ) == FALSE )

  00074	8b 4e 14	 mov	 ecx, DWORD PTR [esi+20]
  00077	8d 85 fc 5f ff
	ff		 lea	 eax, DWORD PTR _szQuery$[ebp]
  0007d	83 c4 30	 add	 esp, 48			; 00000030H
  00080	50		 push	 eax
  00081	e8 00 00 00 00	 call	 ?Exec@CQuery@@QAEHPBD@Z	; CQuery::Exec
  00086	85 c0		 test	 eax, eax
  00088	75 1e		 jne	 SHORT $LN11@SelectQuiz

; 314  : 	{ WriteLog( "%s, %d\t%s", __FILE__, __LINE__, szQuery ); return; }

  0008a	8d 85 fc 5f ff
	ff		 lea	 eax, DWORD PTR _szQuery$[ebp]
  00090	50		 push	 eax
  00091	68 3a 01 00 00	 push	 314			; 0000013aH
  00096	68 00 00 00 00	 push	 OFFSET ??_C@_0EA@POJBDFAK@C?3?2IAGOS?2server?2v18?2Source?2Sour@
  0009b	68 00 00 00 00	 push	 OFFSET ??_C@_09GBAEEKDE@?$CFs?0?5?$CFd?7?$CFs@
  000a0	e8 00 00 00 00	 call	 ?WriteLog@@YAXPBDZZ	; WriteLog
  000a5	83 c4 10	 add	 esp, 16			; 00000010H
$LN11@SelectQuiz:
  000a8	5f		 pop	 edi
$LN4@SelectQuiz:

; 315  : }

  000a9	8b 4d fc	 mov	 ecx, DWORD PTR __$ArrayPad$[ebp]
  000ac	33 cd		 xor	 ecx, ebp
  000ae	5e		 pop	 esi
  000af	e8 00 00 00 00	 call	 @__security_check_cookie@4
  000b4	8b e5		 mov	 esp, ebp
  000b6	5d		 pop	 ebp
  000b7	c2 18 00	 ret	 24			; 00000018H
?SelectQuizExample@CQuizDBCtrl@@AAEXKKHHHH@Z ENDP	; CQuizDBCtrl::SelectQuizExample
_TEXT	ENDS
; Function compile flags: /Ogtp
; File C:\IAGOS\server\v18\Source\Source\DatabaseServer\QuizDBCtrl.cpp
;	COMDAT ?EntranceQuizEvent@CQuizDBCtrl@@AAEXKKH@Z
_TEXT	SEGMENT
_szQuery$ = -40964					; size = 40960
__$ArrayPad$ = -4					; size = 4
_dpId$ = 8						; size = 4
_idPlayer$ = 12						; size = 4
_nChannel$ = 16						; size = 4
?EntranceQuizEvent@CQuizDBCtrl@@AAEXKKH@Z PROC		; CQuizDBCtrl::EntranceQuizEvent, COMDAT
; _this$ = ecx

; 284  : {

  00000	55		 push	 ebp
  00001	8b ec		 mov	 ebp, esp
  00003	b8 04 a0 00 00	 mov	 eax, 40964		; 0000a004H
  00008	e8 00 00 00 00	 call	 __chkstk
  0000d	a1 00 00 00 00	 mov	 eax, DWORD PTR ___security_cookie
  00012	33 c5		 xor	 eax, ebp
  00014	89 45 fc	 mov	 DWORD PTR __$ArrayPad$[ebp], eax
  00017	56		 push	 esi
  00018	8b f1		 mov	 esi, ecx

; 285  : 	if( !CQuiz::GetInstance()->IsRun() )

  0001a	e8 00 00 00 00	 call	 ?GetInstance@CQuiz@@SAPAV1@XZ ; CQuiz::GetInstance
  0001f	83 78 08 00	 cmp	 DWORD PTR [eax+8], 0
  00023	74 77		 je	 SHORT $LN4@EntranceQu

; 286  : 		return;
; 287  : 	
; 288  : 	int nId = GetQuizEventId( dpId );

  00025	57		 push	 edi
  00026	ff 75 08	 push	 DWORD PTR _dpId$[ebp]
  00029	8b ce		 mov	 ecx, esi
  0002b	e8 00 00 00 00	 call	 ?GetQuizEventId@CQuizDBCtrl@@AAEHK@Z ; CQuizDBCtrl::GetQuizEventId
  00030	8b f8		 mov	 edi, eax

; 289  : 	if( nId == 0 )

  00032	85 ff		 test	 edi, edi
  00034	74 65		 je	 SHORT $LN11@EntranceQu

; 290  : 		return;
; 291  : 
; 292  : 	char szQuery[QUERY_SIZE] = {0, };

  00036	68 00 a0 00 00	 push	 40960			; 0000a000H
  0003b	8d 85 fc 5f ff
	ff		 lea	 eax, DWORD PTR _szQuery$[ebp]
  00041	6a 00		 push	 0
  00043	50		 push	 eax
  00044	e8 00 00 00 00	 call	 _memset

; 293  : 	
; 294  : 	sprintf( szQuery, "usp_QuizUserLog_Insert @m_idQuizEvent = %d, @m_idPlayer = '%07d', @serverindex = '%02d', @m_nChannel = %d", 

  00049	ff 75 10	 push	 DWORD PTR _nChannel$[ebp]
  0004c	8d 85 fc 5f ff
	ff		 lea	 eax, DWORD PTR _szQuery$[ebp]
  00052	ff 35 00 00 00
	00		 push	 DWORD PTR ?g_appInfo@@3UAppInfo@@A
  00058	ff 75 0c	 push	 DWORD PTR _idPlayer$[ebp]
  0005b	57		 push	 edi
  0005c	68 00 00 00 00	 push	 OFFSET ??_C@_0GK@INLLFENK@usp_QuizUserLog_Insert?5?$EAm_idQui@
  00061	50		 push	 eax
  00062	e8 00 00 00 00	 call	 _sprintf

; 295  : 		nId, idPlayer, g_appInfo.dwSys, nChannel );
; 296  : 	if( m_pQuery->Exec( szQuery ) == FALSE )

  00067	8b 4e 14	 mov	 ecx, DWORD PTR [esi+20]
  0006a	8d 85 fc 5f ff
	ff		 lea	 eax, DWORD PTR _szQuery$[ebp]
  00070	83 c4 24	 add	 esp, 36			; 00000024H
  00073	50		 push	 eax
  00074	e8 00 00 00 00	 call	 ?Exec@CQuery@@QAEHPBD@Z	; CQuery::Exec
  00079	85 c0		 test	 eax, eax
  0007b	75 1e		 jne	 SHORT $LN11@EntranceQu

; 297  : 	{ WriteLog( "%s, %d\t%s", __FILE__, __LINE__, szQuery ); return; }

  0007d	8d 85 fc 5f ff
	ff		 lea	 eax, DWORD PTR _szQuery$[ebp]
  00083	50		 push	 eax
  00084	68 29 01 00 00	 push	 297			; 00000129H
  00089	68 00 00 00 00	 push	 OFFSET ??_C@_0EA@POJBDFAK@C?3?2IAGOS?2server?2v18?2Source?2Sour@
  0008e	68 00 00 00 00	 push	 OFFSET ??_C@_09GBAEEKDE@?$CFs?0?5?$CFd?7?$CFs@
  00093	e8 00 00 00 00	 call	 ?WriteLog@@YAXPBDZZ	; WriteLog
  00098	83 c4 10	 add	 esp, 16			; 00000010H
$LN11@EntranceQu:
  0009b	5f		 pop	 edi
$LN4@EntranceQu:

; 298  : }

  0009c	8b 4d fc	 mov	 ecx, DWORD PTR __$ArrayPad$[ebp]
  0009f	33 cd		 xor	 ecx, ebp
  000a1	5e		 pop	 esi
  000a2	e8 00 00 00 00	 call	 @__security_check_cookie@4
  000a7	8b e5		 mov	 esp, ebp
  000a9	5d		 pop	 ebp
  000aa	c2 0c 00	 ret	 12			; 0000000cH
?EntranceQuizEvent@CQuizDBCtrl@@AAEXKKH@Z ENDP		; CQuizDBCtrl::EntranceQuizEvent
_TEXT	ENDS
; Function compile flags: /Ogtp
; File C:\IAGOS\server\v18\Source\Source\DatabaseServer\QuizDBCtrl.cpp
; File C:\Program Files\Microsoft Visual Studio\2022\Professional\VC\Tools\MSVC\14.44.35207\include\vector
; File C:\IAGOS\server\v18\Source\Source\DatabaseServer\QuizDBCtrl.cpp
; File C:\Program Files\Microsoft Visual Studio\2022\Professional\VC\Tools\MSVC\14.44.35207\atlmfc\include\afxstr.h
; File C:\Program Files\Microsoft Visual Studio\2022\Professional\VC\Tools\MSVC\14.44.35207\atlmfc\include\atlsimpstr.h
; File C:\IAGOS\server\v18\Source\Source\DatabaseServer\QuizDBCtrl.cpp
; File C:\Program Files\Microsoft Visual Studio\2022\Professional\VC\Tools\MSVC\14.44.35207\atlmfc\include\atlsimpstr.h
; File C:\IAGOS\server\v18\Source\Source\DatabaseServer\QuizDBCtrl.cpp
; File C:\Program Files\Microsoft Visual Studio\2022\Professional\VC\Tools\MSVC\14.44.35207\include\vector
; File C:\IAGOS\server\v18\Source\Source\DatabaseServer\QuizDBCtrl.cpp
; File C:\Program Files\Microsoft Visual Studio\2022\Professional\VC\Tools\MSVC\14.44.35207\include\vector
; File C:\IAGOS\server\v18\Source\Source\DatabaseServer\QuizDBCtrl.cpp
; File C:\Program Files\Microsoft Visual Studio\2022\Professional\VC\Tools\MSVC\14.44.35207\include\vector
; File C:\IAGOS\server\v18\Source\Source\DatabaseServer\QuizDBCtrl.cpp
; File C:\IAGOS\server\v18\Source\Source\_Common\Quiz.h
; File C:\IAGOS\server\v18\Source\Source\DatabaseServer\QuizDBCtrl.cpp
; File C:\Program Files\Microsoft Visual Studio\2022\Professional\VC\Tools\MSVC\14.44.35207\atlmfc\include\atlsimpstr.h
; File C:\IAGOS\server\v18\Source\Source\DatabaseServer\QuizDBCtrl.cpp
; File C:\Program Files\Microsoft Visual Studio\2022\Professional\VC\Tools\MSVC\14.44.35207\atlmfc\include\atlsimpstr.h
; File C:\IAGOS\server\v18\Source\Source\DatabaseServer\QuizDBCtrl.cpp
;	COMDAT ?LoadQuizList@CQuizDBCtrl@@AAEXK@Z
_TEXT	SEGMENT
_this$GSCopy$1$ = -42024				; size = 4
_QL$2 = -42020						; size = 20
_szQuery$3 = -42000					; size = 40960
_szQuestion$4 = -1040					; size = 1024
__$ArrayPad$ = -16					; size = 4
__$EHRec$ = -12						; size = 12
_dpId$ = 8						; size = 4
?LoadQuizList@CQuizDBCtrl@@AAEXK@Z PROC			; CQuizDBCtrl::LoadQuizList, COMDAT
; _this$ = ecx

; 251  : {

  00000	55		 push	 ebp
  00001	8b ec		 mov	 ebp, esp
  00003	6a ff		 push	 -1
  00005	68 00 00 00 00	 push	 __ehhandler$?LoadQuizList@CQuizDBCtrl@@AAEXK@Z
  0000a	64 a1 00 00 00
	00		 mov	 eax, DWORD PTR fs:0
  00010	50		 push	 eax
  00011	b8 1c a4 00 00	 mov	 eax, 42012		; 0000a41cH
  00016	e8 00 00 00 00	 call	 __chkstk
  0001b	a1 00 00 00 00	 mov	 eax, DWORD PTR ___security_cookie
  00020	33 c5		 xor	 eax, ebp
  00022	89 45 f0	 mov	 DWORD PTR __$ArrayPad$[ebp], eax
  00025	53		 push	 ebx
  00026	56		 push	 esi
  00027	57		 push	 edi
  00028	50		 push	 eax
  00029	8d 45 f4	 lea	 eax, DWORD PTR __$EHRec$[ebp]
  0002c	64 a3 00 00 00
	00		 mov	 DWORD PTR fs:0, eax
  00032	8b d9		 mov	 ebx, ecx
  00034	89 9d d8 5b ff
	ff		 mov	 DWORD PTR _this$GSCopy$1$[ebp], ebx

; 252  : 	if( CQuiz::GetInstance()->IsRun() && CQuiz::GetInstance()->m_vecQuizList.size() == 0 )

  0003a	e8 00 00 00 00	 call	 ?GetInstance@CQuiz@@SAPAV1@XZ ; CQuiz::GetInstance
  0003f	83 78 08 00	 cmp	 DWORD PTR [eax+8], 0
  00043	0f 84 53 02 00
	00		 je	 $LN79@LoadQuizLi
  00049	e8 00 00 00 00	 call	 ?GetInstance@CQuiz@@SAPAV1@XZ ; CQuiz::GetInstance
; File C:\Program Files\Microsoft Visual Studio\2022\Professional\VC\Tools\MSVC\14.44.35207\include\vector

; 1915 :         return static_cast<size_type>(_My_data._Mylast - _My_data._Myfirst);

  0004e	8b 48 18	 mov	 ecx, DWORD PTR [eax+24]
  00051	2b 48 14	 sub	 ecx, DWORD PTR [eax+20]
  00054	b8 67 66 66 66	 mov	 eax, 1717986919		; 66666667H
  00059	f7 e9		 imul	 ecx
  0005b	c1 fa 03	 sar	 edx, 3
  0005e	8b c2		 mov	 eax, edx
  00060	c1 e8 1f	 shr	 eax, 31			; 0000001fH
  00063	03 c2		 add	 eax, edx
; File C:\IAGOS\server\v18\Source\Source\DatabaseServer\QuizDBCtrl.cpp

; 252  : 	if( CQuiz::GetInstance()->IsRun() && CQuiz::GetInstance()->m_vecQuizList.size() == 0 )

  00065	0f 85 31 02 00
	00		 jne	 $LN79@LoadQuizLi

; 253  : 	{
; 254  : 		CQuery* pQuery = GetQueryObject();

  0006b	8b 7b 0c	 mov	 edi, DWORD PTR [ebx+12]

; 255  : 		char szQuery[QUERY_SIZE] = {0, };

  0006e	68 00 a0 00 00	 push	 40960			; 0000a000H
  00073	50		 push	 eax
  00074	8d 85 f0 5b ff
	ff		 lea	 eax, DWORD PTR _szQuery$3[ebp]
  0007a	50		 push	 eax
  0007b	e8 00 00 00 00	 call	 _memset

; 256  : 		
; 257  : 		sprintf( szQuery, "usp_Quiz_Load @serverindex = '%02d', @m_nQuizType = %d", g_appInfo.dwSys, CQuiz::GetInstance()->GetType() );

  00080	e8 00 00 00 00	 call	 ?GetInstance@CQuiz@@SAPAV1@XZ ; CQuiz::GetInstance
  00085	ff 30		 push	 DWORD PTR [eax]
  00087	8d 85 f0 5b ff
	ff		 lea	 eax, DWORD PTR _szQuery$3[ebp]
  0008d	ff 35 00 00 00
	00		 push	 DWORD PTR ?g_appInfo@@3UAppInfo@@A
  00093	68 00 00 00 00	 push	 OFFSET ??_C@_0DH@POLKCAKJ@usp_Quiz_Load?5?$EAserverindex?5?$DN?5?8?$CF@
  00098	50		 push	 eax
  00099	e8 00 00 00 00	 call	 _sprintf
  0009e	83 c4 1c	 add	 esp, 28			; 0000001cH

; 258  : 		if( pQuery->Exec( szQuery ) == FALSE )

  000a1	8d 85 f0 5b ff
	ff		 lea	 eax, DWORD PTR _szQuery$3[ebp]
  000a7	8b cf		 mov	 ecx, edi
  000a9	50		 push	 eax
  000aa	e8 00 00 00 00	 call	 ?Exec@CQuery@@QAEHPBD@Z	; CQuery::Exec
  000af	85 c0		 test	 eax, eax
  000b1	75 23		 jne	 SHORT $LN5@LoadQuizLi

; 259  : 		{ WriteLog( "%s, %d\t%s", __FILE__, __LINE__, szQuery ); return; }

  000b3	8d 85 f0 5b ff
	ff		 lea	 eax, DWORD PTR _szQuery$3[ebp]
  000b9	50		 push	 eax
  000ba	68 03 01 00 00	 push	 259			; 00000103H
  000bf	68 00 00 00 00	 push	 OFFSET ??_C@_0EA@POJBDFAK@C?3?2IAGOS?2server?2v18?2Source?2Sour@
  000c4	68 00 00 00 00	 push	 OFFSET ??_C@_09GBAEEKDE@?$CFs?0?5?$CFd?7?$CFs@
  000c9	e8 00 00 00 00	 call	 ?WriteLog@@YAXPBDZZ	; WriteLog
  000ce	83 c4 10	 add	 esp, 16			; 00000010H
  000d1	e9 c6 01 00 00	 jmp	 $LN79@LoadQuizLi
$LN5@LoadQuizLi:
; File C:\Program Files\Microsoft Visual Studio\2022\Professional\VC\Tools\MSVC\14.44.35207\atlmfc\include\afxstr.h

; 56   : 		return( AfxGetStringManager() );

  000d6	e8 00 00 00 00	 call	 ?AfxGetStringManager@@YGPAUIAtlStringMgr@ATL@@XZ ; AfxGetStringManager
  000db	8b c8		 mov	 ecx, eax
; File C:\Program Files\Microsoft Visual Studio\2022\Professional\VC\Tools\MSVC\14.44.35207\atlmfc\include\atlsimpstr.h

; 209  : 		ATLENSURE( pStringMgr != NULL );

  000dd	85 c9		 test	 ecx, ecx
  000df	0f 84 d5 01 00
	00		 je	 $LN88@LoadQuizLi

; 210  : 		CStringData* pData = pStringMgr->GetNilString();

  000e5	8b 01		 mov	 eax, DWORD PTR [ecx]
  000e7	ff 50 0c	 call	 DWORD PTR [eax+12]

; 211  : 		Attach( pData );

  000ea	8d 58 10	 lea	 ebx, DWORD PTR [eax+16]
  000ed	89 9d e0 5b ff
	ff		 mov	 DWORD PTR _QL$2[ebp+4], ebx
; File C:\IAGOS\server\v18\Source\Source\DatabaseServer\QuizDBCtrl.cpp

; 262  : 		char szQuestion[MAX_QUIZ_SIZE] = {0, };

  000f3	68 00 04 00 00	 push	 1024			; 00000400H
  000f8	8d 85 f0 fb ff
	ff		 lea	 eax, DWORD PTR _szQuestion$4[ebp]
  000fe	c7 45 fc 00 00
	00 00		 mov	 DWORD PTR __$EHRec$[ebp+8], 0
  00105	6a 00		 push	 0
  00107	50		 push	 eax
  00108	e8 00 00 00 00	 call	 _memset
  0010d	83 c4 0c	 add	 esp, 12			; 0000000cH

; 263  : 		while( pQuery->Fetch() )

  00110	8b cf		 mov	 ecx, edi
  00112	e8 00 00 00 00	 call	 ?Fetch@CQuery@@QAEHXZ	; CQuery::Fetch
  00117	85 c0		 test	 eax, eax
  00119	0f 84 ed 00 00
	00		 je	 $LN3@LoadQuizLi
  0011f	90		 npad	 1
$LL2@LoadQuizLi:

; 264  : 		{
; 265  : 			QL.nQuizId = pQuery->GetInt( "m_nIndex" );

  00120	68 00 00 00 00	 push	 OFFSET ??_C@_08PALOFDJJ@m_nIndex@
  00125	8b cf		 mov	 ecx, edi
  00127	e8 00 00 00 00	 call	 ?GetInt@CQuery@@QAEHPAD@Z ; CQuery::GetInt

; 266  : 			QL.nCorrect = pQuery->GetInt( "m_nAnswer" );

  0012c	68 00 00 00 00	 push	 OFFSET ??_C@_09JLOLCEAF@m_nAnswer@
  00131	8b cf		 mov	 ecx, edi
  00133	89 85 dc 5b ff
	ff		 mov	 DWORD PTR _QL$2[ebp], eax
  00139	e8 00 00 00 00	 call	 ?GetInt@CQuery@@QAEHPAD@Z ; CQuery::GetInt
  0013e	89 85 e4 5b ff
	ff		 mov	 DWORD PTR _QL$2[ebp+8], eax

; 267  : 			pQuery->GetStr( "m_szQuestion", szQuestion );

  00144	8b cf		 mov	 ecx, edi
  00146	8d 85 f0 fb ff
	ff		 lea	 eax, DWORD PTR _szQuestion$4[ebp]
  0014c	50		 push	 eax
  0014d	68 00 00 00 00	 push	 OFFSET ??_C@_0N@FGDIAFNN@m_szQuestion@
  00152	e8 00 00 00 00	 call	 ?GetStr@CQuery@@QAEXPAD0@Z ; CQuery::GetStr
; File C:\Program Files\Microsoft Visual Studio\2022\Professional\VC\Tools\MSVC\14.44.35207\atlmfc\include\atlsimpstr.h

; 730  : 		return( int( strlen( psz ) ) );

  00157	8d 85 f0 fb ff
	ff		 lea	 eax, DWORD PTR _szQuestion$4[ebp]
  0015d	8d 50 01	 lea	 edx, DWORD PTR [eax+1]
$LL84@LoadQuizLi:
  00160	8a 08		 mov	 cl, BYTE PTR [eax]
  00162	40		 inc	 eax
  00163	84 c9		 test	 cl, cl
  00165	75 f9		 jne	 SHORT $LL84@LoadQuizLi
  00167	2b c2		 sub	 eax, edx

; 606  : 		SetString( pszSrc, StringLength( pszSrc ) );

  00169	8d 8d e0 5b ff
	ff		 lea	 ecx, DWORD PTR _QL$2[ebp+4]
  0016f	50		 push	 eax
  00170	8d 85 f0 fb ff
	ff		 lea	 eax, DWORD PTR _szQuestion$4[ebp]
  00176	50		 push	 eax
  00177	e8 00 00 00 00	 call	 ?SetString@?$CSimpleStringT@D$0A@@ATL@@QAEXPBDH@Z ; ATL::CSimpleStringT<char,0>::SetString
; File C:\IAGOS\server\v18\Source\Source\DatabaseServer\QuizDBCtrl.cpp

; 269  : 			QL.nItemId = pQuery->GetInt( "m_Item" );

  0017c	68 00 00 00 00	 push	 OFFSET ??_C@_06FKNLKGFE@m_Item@
  00181	8b cf		 mov	 ecx, edi
  00183	e8 00 00 00 00	 call	 ?GetInt@CQuery@@QAEHPAD@Z ; CQuery::GetInt

; 270  : 			QL.nItemNum = pQuery->GetInt( "m_ItemCount" );

  00188	68 00 00 00 00	 push	 OFFSET ??_C@_0M@KDEONCPF@m_ItemCount@
  0018d	8b cf		 mov	 ecx, edi
  0018f	89 85 e8 5b ff
	ff		 mov	 DWORD PTR _QL$2[ebp+12], eax
  00195	e8 00 00 00 00	 call	 ?GetInt@CQuery@@QAEHPAD@Z ; CQuery::GetInt
  0019a	89 85 ec 5b ff
	ff		 mov	 DWORD PTR _QL$2[ebp+16], eax

; 271  : 			CQuiz::GetInstance()->m_vecQuizList.push_back( QL );

  001a0	e8 00 00 00 00	 call	 ?GetInstance@CQuiz@@SAPAV1@XZ ; CQuiz::GetInstance
  001a5	8b d8		 mov	 ebx, eax
; File C:\Program Files\Microsoft Visual Studio\2022\Professional\VC\Tools\MSVC\14.44.35207\include\vector

; 844  :         if (_Mylast != _My_data._Myend) {

  001a7	8b 73 18	 mov	 esi, DWORD PTR [ebx+24]
  001aa	3b 73 1c	 cmp	 esi, DWORD PTR [ebx+28]
  001ad	74 38		 je	 SHORT $LN50@LoadQuizLi
  001af	8b 85 dc 5b ff
	ff		 mov	 eax, DWORD PTR _QL$2[ebp]
  001b5	8d 4e 04	 lea	 ecx, DWORD PTR [esi+4]
  001b8	89 06		 mov	 DWORD PTR [esi], eax
  001ba	8d 85 e0 5b ff
	ff		 lea	 eax, DWORD PTR _QL$2[ebp+4]
  001c0	50		 push	 eax
  001c1	e8 00 00 00 00	 call	 ??0?$CStringT@DV?$StrTraitMFC@DV?$ChTraitsCRT@D@ATL@@@@@ATL@@QAE@ABV01@@Z ; ATL::CStringT<char,StrTraitMFC<char,ATL::ChTraitsCRT<char> > >::CStringT<char,StrTraitMFC<char,ATL::ChTraitsCRT<char> > >
  001c6	8b 85 e4 5b ff
	ff		 mov	 eax, DWORD PTR _QL$2[ebp+8]
  001cc	89 46 08	 mov	 DWORD PTR [esi+8], eax
  001cf	8b 85 e8 5b ff
	ff		 mov	 eax, DWORD PTR _QL$2[ebp+12]
  001d5	89 46 0c	 mov	 DWORD PTR [esi+12], eax
  001d8	8b 85 ec 5b ff
	ff		 mov	 eax, DWORD PTR _QL$2[ebp+16]
  001de	89 46 10	 mov	 DWORD PTR [esi+16], eax

; 869  :         ++_Mylast;

  001e1	83 43 18 14	 add	 DWORD PTR [ebx+24], 20	; 00000014H

; 845  :             return _Emplace_back_with_unused_capacity(_STD forward<_Valty>(_Val)...);

  001e5	eb 10		 jmp	 SHORT $LN49@LoadQuizLi
$LN50@LoadQuizLi:

; 846  :         }
; 847  : 
; 848  :         return *_Emplace_reallocate(_Mylast, _STD forward<_Valty>(_Val)...);

  001e7	8d 85 dc 5b ff
	ff		 lea	 eax, DWORD PTR _QL$2[ebp]
  001ed	50		 push	 eax
  001ee	56		 push	 esi
  001ef	8d 4b 14	 lea	 ecx, DWORD PTR [ebx+20]
  001f2	e8 00 00 00 00	 call	 ??$_Emplace_reallocate@ABU_QUIZLIST@CQuiz@@@?$vector@U_QUIZLIST@CQuiz@@V?$allocator@U_QUIZLIST@CQuiz@@@std@@@std@@AAEPAU_QUIZLIST@CQuiz@@QAU23@ABU23@@Z ; std::vector<CQuiz::_QUIZLIST,std::allocator<CQuiz::_QUIZLIST> >::_Emplace_reallocate<CQuiz::_QUIZLIST const &>
$LN49@LoadQuizLi:
; File C:\IAGOS\server\v18\Source\Source\DatabaseServer\QuizDBCtrl.cpp

; 263  : 		while( pQuery->Fetch() )

  001f7	8b cf		 mov	 ecx, edi
  001f9	e8 00 00 00 00	 call	 ?Fetch@CQuery@@QAEHXZ	; CQuery::Fetch
  001fe	85 c0		 test	 eax, eax
  00200	0f 85 1a ff ff
	ff		 jne	 $LL2@LoadQuizLi
  00206	8b 9d e0 5b ff
	ff		 mov	 ebx, DWORD PTR _QL$2[ebp+4]
$LN3@LoadQuizLi:

; 273  : 		if( CQuiz::GetInstance()->m_vecQuizList.size() > 0 )

  0020c	e8 00 00 00 00	 call	 ?GetInstance@CQuiz@@SAPAV1@XZ ; CQuiz::GetInstance
; File C:\Program Files\Microsoft Visual Studio\2022\Professional\VC\Tools\MSVC\14.44.35207\include\vector

; 1915 :         return static_cast<size_type>(_My_data._Mylast - _My_data._Myfirst);

  00211	8b 48 18	 mov	 ecx, DWORD PTR [eax+24]
  00214	2b 48 14	 sub	 ecx, DWORD PTR [eax+20]
  00217	b8 67 66 66 66	 mov	 eax, 1717986919		; 66666667H
  0021c	f7 e9		 imul	 ecx
  0021e	c1 fa 03	 sar	 edx, 3
  00221	8b c2		 mov	 eax, edx
  00223	c1 e8 1f	 shr	 eax, 31			; 0000001fH
  00226	03 c2		 add	 eax, edx
; File C:\IAGOS\server\v18\Source\Source\DatabaseServer\QuizDBCtrl.cpp

; 273  : 		if( CQuiz::GetInstance()->m_vecQuizList.size() > 0 )

  00228	74 53		 je	 SHORT $LN7@LoadQuizLi

; 275  : 			CQuiz::GetInstance()->m_nQuizSize = CQuiz::GetInstance()->m_vecQuizList.size();

  0022a	e8 00 00 00 00	 call	 ?GetInstance@CQuiz@@SAPAV1@XZ ; CQuiz::GetInstance
; File C:\Program Files\Microsoft Visual Studio\2022\Professional\VC\Tools\MSVC\14.44.35207\include\vector

; 1915 :         return static_cast<size_type>(_My_data._Mylast - _My_data._Myfirst);

  0022f	8b 48 18	 mov	 ecx, DWORD PTR [eax+24]
  00232	2b 48 14	 sub	 ecx, DWORD PTR [eax+20]
  00235	b8 67 66 66 66	 mov	 eax, 1717986919		; 66666667H
  0023a	f7 e9		 imul	 ecx
  0023c	c1 fa 03	 sar	 edx, 3
  0023f	8b f2		 mov	 esi, edx
  00241	c1 ee 1f	 shr	 esi, 31			; 0000001fH
  00244	03 f2		 add	 esi, edx
; File C:\IAGOS\server\v18\Source\Source\DatabaseServer\QuizDBCtrl.cpp

; 275  : 			CQuiz::GetInstance()->m_nQuizSize = CQuiz::GetInstance()->m_vecQuizList.size();

  00246	e8 00 00 00 00	 call	 ?GetInstance@CQuiz@@SAPAV1@XZ ; CQuiz::GetInstance
  0024b	89 70 10	 mov	 DWORD PTR [eax+16], esi

; 276  : 			m_dwQuizSendTick = ( CQuiz::GetInstance()->GetEntranceTime() / 2 ) / CQuiz::GetInstance()->m_nQuizSize;

  0024e	e8 00 00 00 00	 call	 ?GetInstance@CQuiz@@SAPAV1@XZ ; CQuiz::GetInstance
; File C:\IAGOS\server\v18\Source\Source\_Common\Quiz.h

; 79   : 	DWORD	GetEntranceTime()	{	return m_dwEntranceTime;	}

  00253	8b 70 0c	 mov	 esi, DWORD PTR [eax+12]
; File C:\IAGOS\server\v18\Source\Source\DatabaseServer\QuizDBCtrl.cpp

; 276  : 			m_dwQuizSendTick = ( CQuiz::GetInstance()->GetEntranceTime() / 2 ) / CQuiz::GetInstance()->m_nQuizSize;

  00256	e8 00 00 00 00	 call	 ?GetInstance@CQuiz@@SAPAV1@XZ ; CQuiz::GetInstance
  0025b	8b c8		 mov	 ecx, eax
  0025d	d1 ee		 shr	 esi, 1
  0025f	33 d2		 xor	 edx, edx
  00261	8b c6		 mov	 eax, esi
  00263	f7 71 10	 div	 DWORD PTR [ecx+16]
  00266	8b 8d d8 5b ff
	ff		 mov	 ecx, DWORD PTR _this$GSCopy$1$[ebp]
  0026c	89 41 1c	 mov	 DWORD PTR [ecx+28], eax

; 277  : 			if( m_dwQuizSendTick < 1000 )

  0026f	3d e8 03 00 00	 cmp	 eax, 1000		; 000003e8H
  00274	73 07		 jae	 SHORT $LN7@LoadQuizLi

; 278  : 				m_dwQuizSendTick = 1000;

  00276	c7 41 1c e8 03
	00 00		 mov	 DWORD PTR [ecx+28], 1000 ; 000003e8H
$LN7@LoadQuizLi:

; 279  : 		}
; 280  : 	}

  0027d	c7 45 fc ff ff
	ff ff		 mov	 DWORD PTR __$EHRec$[ebp+8], -1
; File C:\Program Files\Microsoft Visual Studio\2022\Professional\VC\Tools\MSVC\14.44.35207\atlmfc\include\atlsimpstr.h

; 804  : 		return( reinterpret_cast< CStringData* >( m_pszData )-1 );

  00284	8d 53 f0	 lea	 edx, DWORD PTR [ebx-16]

; 92   : 		if( _InterlockedDecrement( &nRefs ) <= 0 )

  00287	83 c8 ff	 or	 eax, -1
  0028a	f0 0f c1 42 0c	 lock	  xadd	 DWORD PTR [edx+12], eax
  0028f	48		 dec	 eax
  00290	85 c0		 test	 eax, eax
  00292	7f 08		 jg	 SHORT $LN79@LoadQuizLi

; 93   : 		{
; 94   : 			pStringMgr->Free( this );

  00294	8b 0a		 mov	 ecx, DWORD PTR [edx]
  00296	52		 push	 edx
  00297	8b 01		 mov	 eax, DWORD PTR [ecx]
  00299	ff 50 04	 call	 DWORD PTR [eax+4]
$LN79@LoadQuizLi:
; File C:\IAGOS\server\v18\Source\Source\DatabaseServer\QuizDBCtrl.cpp

; 281  : }

  0029c	8b 4d f4	 mov	 ecx, DWORD PTR __$EHRec$[ebp]
  0029f	64 89 0d 00 00
	00 00		 mov	 DWORD PTR fs:0, ecx
  002a6	59		 pop	 ecx
  002a7	5f		 pop	 edi
  002a8	5e		 pop	 esi
  002a9	5b		 pop	 ebx
  002aa	8b 4d f0	 mov	 ecx, DWORD PTR __$ArrayPad$[ebp]
  002ad	33 cd		 xor	 ecx, ebp
  002af	e8 00 00 00 00	 call	 @__security_check_cookie@4
  002b4	8b e5		 mov	 esp, ebp
  002b6	5d		 pop	 ebp
  002b7	c2 04 00	 ret	 4
$LN88@LoadQuizLi:
; File C:\Program Files\Microsoft Visual Studio\2022\Professional\VC\Tools\MSVC\14.44.35207\atlmfc\include\atlsimpstr.h

; 209  : 		ATLENSURE( pStringMgr != NULL );

  002ba	68 05 40 00 80	 push	 -2147467259		; 80004005H
  002bf	e8 00 00 00 00	 call	 ?AtlThrowImpl@ATL@@YGXJ@Z ; ATL::AtlThrowImpl
$LN86@LoadQuizLi:
  002c4	cc		 int	 3
_TEXT	ENDS
;	COMDAT text$x
text$x	SEGMENT
__unwindfunclet$?LoadQuizList@CQuizDBCtrl@@AAEXK@Z$0:
  00000	8d 8d dc 5b ff
	ff		 lea	 ecx, DWORD PTR _QL$2[ebp]
  00006	e9 00 00 00 00	 jmp	 ??1_QUIZLIST@CQuiz@@QAE@XZ
  0000b	cc		 int	 3
  0000c	cc		 int	 3
  0000d	cc		 int	 3
  0000e	cc		 int	 3
  0000f	cc		 int	 3
__ehhandler$?LoadQuizList@CQuizDBCtrl@@AAEXK@Z:
  00010	90		 npad	 1
  00011	90		 npad	 1
  00012	8b 54 24 08	 mov	 edx, DWORD PTR [esp+8]
  00016	8d 42 0c	 lea	 eax, DWORD PTR [edx+12]
  00019	8b 8a d4 5b ff
	ff		 mov	 ecx, DWORD PTR [edx-42028]
  0001f	33 c8		 xor	 ecx, eax
  00021	e8 00 00 00 00	 call	 @__security_check_cookie@4
  00026	8b 4a fc	 mov	 ecx, DWORD PTR [edx-4]
  00029	33 c8		 xor	 ecx, eax
  0002b	e8 00 00 00 00	 call	 @__security_check_cookie@4
  00030	b8 00 00 00 00	 mov	 eax, OFFSET __ehfuncinfo$?LoadQuizList@CQuizDBCtrl@@AAEXK@Z
  00035	e9 00 00 00 00	 jmp	 ___CxxFrameHandler3
text$x	ENDS
?LoadQuizList@CQuizDBCtrl@@AAEXK@Z ENDP			; CQuizDBCtrl::LoadQuizList
; Function compile flags: /Ogtp
; File C:\IAGOS\server\v18\Source\Source\DatabaseServer\QuizDBCtrl.cpp
;	COMDAT ?UpdateQuizEvent@CQuizDBCtrl@@AAEXKHHH@Z
_TEXT	SEGMENT
_szQuery$ = -40964					; size = 40960
__$ArrayPad$ = -4					; size = 4
_dpId$ = 8						; size = 4
_nChannel$ = 12						; size = 4
_nWinnerCount$ = 16					; size = 4
_nQuizCount$ = 20					; size = 4
?UpdateQuizEvent@CQuizDBCtrl@@AAEXKHHH@Z PROC		; CQuizDBCtrl::UpdateQuizEvent, COMDAT
; _this$ = ecx

; 234  : {

  00000	55		 push	 ebp
  00001	8b ec		 mov	 ebp, esp
  00003	b8 04 a0 00 00	 mov	 eax, 40964		; 0000a004H
  00008	e8 00 00 00 00	 call	 __chkstk
  0000d	a1 00 00 00 00	 mov	 eax, DWORD PTR ___security_cookie
  00012	33 c5		 xor	 eax, ebp
  00014	89 45 fc	 mov	 DWORD PTR __$ArrayPad$[ebp], eax
  00017	56		 push	 esi
  00018	8b f1		 mov	 esi, ecx

; 235  : 	if( !CQuiz::GetInstance()->IsRun() )

  0001a	e8 00 00 00 00	 call	 ?GetInstance@CQuiz@@SAPAV1@XZ ; CQuiz::GetInstance
  0001f	83 78 08 00	 cmp	 DWORD PTR [eax+8], 0
  00023	74 7a		 je	 SHORT $LN4@UpdateQuiz

; 236  : 		return;
; 237  : 	
; 238  : 	int nId = GetQuizEventId( dpId );

  00025	57		 push	 edi
  00026	ff 75 08	 push	 DWORD PTR _dpId$[ebp]
  00029	8b ce		 mov	 ecx, esi
  0002b	e8 00 00 00 00	 call	 ?GetQuizEventId@CQuizDBCtrl@@AAEHK@Z ; CQuizDBCtrl::GetQuizEventId
  00030	8b f8		 mov	 edi, eax

; 239  : 	if( nId == 0 )

  00032	85 ff		 test	 edi, edi
  00034	74 68		 je	 SHORT $LN11@UpdateQuiz

; 240  : 		return;
; 241  : 
; 242  : 	char szQuery[QUERY_SIZE] = {0, };

  00036	68 00 a0 00 00	 push	 40960			; 0000a000H
  0003b	8d 85 fc 5f ff
	ff		 lea	 eax, DWORD PTR _szQuery$[ebp]
  00041	6a 00		 push	 0
  00043	50		 push	 eax
  00044	e8 00 00 00 00	 call	 _memset

; 243  : 	
; 244  : 	sprintf( szQuery, "usp_QuizLog_Update @idQuizEvent = %d, @serverindex = '%02d', @nChannel = %d, @nWinnerCount = %d, @nQuizCount = %d", 

  00049	ff 75 14	 push	 DWORD PTR _nQuizCount$[ebp]
  0004c	8d 85 fc 5f ff
	ff		 lea	 eax, DWORD PTR _szQuery$[ebp]
  00052	ff 75 10	 push	 DWORD PTR _nWinnerCount$[ebp]
  00055	ff 75 0c	 push	 DWORD PTR _nChannel$[ebp]
  00058	ff 35 00 00 00
	00		 push	 DWORD PTR ?g_appInfo@@3UAppInfo@@A
  0005e	57		 push	 edi
  0005f	68 00 00 00 00	 push	 OFFSET ??_C@_0HC@EIMMABOA@usp_QuizLog_Update?5?$EAidQuizEvent@
  00064	50		 push	 eax
  00065	e8 00 00 00 00	 call	 _sprintf

; 245  : 		nId, g_appInfo.dwSys, nChannel, nWinnerCount, nQuizCount );
; 246  : 	if( m_pQuery->Exec( szQuery ) == FALSE )

  0006a	8b 4e 14	 mov	 ecx, DWORD PTR [esi+20]
  0006d	8d 85 fc 5f ff
	ff		 lea	 eax, DWORD PTR _szQuery$[ebp]
  00073	83 c4 28	 add	 esp, 40			; 00000028H
  00076	50		 push	 eax
  00077	e8 00 00 00 00	 call	 ?Exec@CQuery@@QAEHPBD@Z	; CQuery::Exec
  0007c	85 c0		 test	 eax, eax
  0007e	75 1e		 jne	 SHORT $LN11@UpdateQuiz

; 247  : 	{ WriteLog( "%s, %d\t%s", __FILE__, __LINE__, szQuery ); return; }

  00080	8d 85 fc 5f ff
	ff		 lea	 eax, DWORD PTR _szQuery$[ebp]
  00086	50		 push	 eax
  00087	68 f7 00 00 00	 push	 247			; 000000f7H
  0008c	68 00 00 00 00	 push	 OFFSET ??_C@_0EA@POJBDFAK@C?3?2IAGOS?2server?2v18?2Source?2Sour@
  00091	68 00 00 00 00	 push	 OFFSET ??_C@_09GBAEEKDE@?$CFs?0?5?$CFd?7?$CFs@
  00096	e8 00 00 00 00	 call	 ?WriteLog@@YAXPBDZZ	; WriteLog
  0009b	83 c4 10	 add	 esp, 16			; 00000010H
$LN11@UpdateQuiz:
  0009e	5f		 pop	 edi
$LN4@UpdateQuiz:

; 248  : }

  0009f	8b 4d fc	 mov	 ecx, DWORD PTR __$ArrayPad$[ebp]
  000a2	33 cd		 xor	 ecx, ebp
  000a4	5e		 pop	 esi
  000a5	e8 00 00 00 00	 call	 @__security_check_cookie@4
  000aa	8b e5		 mov	 esp, ebp
  000ac	5d		 pop	 ebp
  000ad	c2 10 00	 ret	 16			; 00000010H
?UpdateQuizEvent@CQuizDBCtrl@@AAEXKHHH@Z ENDP		; CQuizDBCtrl::UpdateQuizEvent
_TEXT	ENDS
; Function compile flags: /Ogtp
; File C:\IAGOS\server\v18\Source\Source\DatabaseServer\QuizDBCtrl.cpp
;	COMDAT ?InsertQuizEvent@CQuizDBCtrl@@AAEXKH@Z
_TEXT	SEGMENT
_szQuery$ = -40964					; size = 40960
__$ArrayPad$ = -4					; size = 4
_dpId$ = 8						; size = 4
_nChannel$ = 12						; size = 4
?InsertQuizEvent@CQuizDBCtrl@@AAEXKH@Z PROC		; CQuizDBCtrl::InsertQuizEvent, COMDAT
; _this$ = ecx

; 217  : {

  00000	55		 push	 ebp
  00001	8b ec		 mov	 ebp, esp
  00003	b8 04 a0 00 00	 mov	 eax, 40964		; 0000a004H
  00008	e8 00 00 00 00	 call	 __chkstk
  0000d	a1 00 00 00 00	 mov	 eax, DWORD PTR ___security_cookie
  00012	33 c5		 xor	 eax, ebp
  00014	89 45 fc	 mov	 DWORD PTR __$ArrayPad$[ebp], eax
  00017	56		 push	 esi
  00018	8b f1		 mov	 esi, ecx

; 218  : 	if( !CQuiz::GetInstance()->IsRun() )

  0001a	e8 00 00 00 00	 call	 ?GetInstance@CQuiz@@SAPAV1@XZ ; CQuiz::GetInstance
  0001f	83 78 08 00	 cmp	 DWORD PTR [eax+8], 0
  00023	74 7b		 je	 SHORT $LN4@InsertQuiz

; 219  : 		return;
; 220  : 	
; 221  : 	int nId = GetQuizEventId( dpId );

  00025	57		 push	 edi
  00026	ff 75 08	 push	 DWORD PTR _dpId$[ebp]
  00029	8b ce		 mov	 ecx, esi
  0002b	e8 00 00 00 00	 call	 ?GetQuizEventId@CQuizDBCtrl@@AAEHK@Z ; CQuizDBCtrl::GetQuizEventId
  00030	8b f8		 mov	 edi, eax

; 222  : 	if( nId == 0 )

  00032	85 ff		 test	 edi, edi
  00034	74 69		 je	 SHORT $LN13@InsertQuiz

; 223  : 		return;
; 224  : 
; 225  : 	char szQuery[QUERY_SIZE] = {0, };

  00036	68 00 a0 00 00	 push	 40960			; 0000a000H
  0003b	8d 85 fc 5f ff
	ff		 lea	 eax, DWORD PTR _szQuery$[ebp]
  00041	6a 00		 push	 0
  00043	50		 push	 eax
  00044	e8 00 00 00 00	 call	 _memset

; 226  : 	
; 227  : 	sprintf( szQuery, "usp_QuizLog_Insert @idQuizEvent = %d, @serverindex = '%02d', @nChannel = %d, @nQuizType = %d", 

  00049	e8 00 00 00 00	 call	 ?GetInstance@CQuiz@@SAPAV1@XZ ; CQuiz::GetInstance
  0004e	ff 30		 push	 DWORD PTR [eax]
  00050	8d 85 fc 5f ff
	ff		 lea	 eax, DWORD PTR _szQuery$[ebp]
  00056	ff 75 0c	 push	 DWORD PTR _nChannel$[ebp]
  00059	ff 35 00 00 00
	00		 push	 DWORD PTR ?g_appInfo@@3UAppInfo@@A
  0005f	57		 push	 edi
  00060	68 00 00 00 00	 push	 OFFSET ??_C@_0FN@CPHHLGOP@usp_QuizLog_Insert?5?$EAidQuizEvent@
  00065	50		 push	 eax
  00066	e8 00 00 00 00	 call	 _sprintf

; 228  : 		nId, g_appInfo.dwSys, nChannel, CQuiz::GetInstance()->GetType() );
; 229  : 	if( m_pQuery->Exec( szQuery ) == FALSE )

  0006b	8b 4e 14	 mov	 ecx, DWORD PTR [esi+20]
  0006e	8d 85 fc 5f ff
	ff		 lea	 eax, DWORD PTR _szQuery$[ebp]
  00074	83 c4 24	 add	 esp, 36			; 00000024H
  00077	50		 push	 eax
  00078	e8 00 00 00 00	 call	 ?Exec@CQuery@@QAEHPBD@Z	; CQuery::Exec
  0007d	85 c0		 test	 eax, eax
  0007f	75 1e		 jne	 SHORT $LN13@InsertQuiz

; 230  : 	{ WriteLog( "%s, %d\t%s", __FILE__, __LINE__, szQuery ); return; }

  00081	8d 85 fc 5f ff
	ff		 lea	 eax, DWORD PTR _szQuery$[ebp]
  00087	50		 push	 eax
  00088	68 e6 00 00 00	 push	 230			; 000000e6H
  0008d	68 00 00 00 00	 push	 OFFSET ??_C@_0EA@POJBDFAK@C?3?2IAGOS?2server?2v18?2Source?2Sour@
  00092	68 00 00 00 00	 push	 OFFSET ??_C@_09GBAEEKDE@?$CFs?0?5?$CFd?7?$CFs@
  00097	e8 00 00 00 00	 call	 ?WriteLog@@YAXPBDZZ	; WriteLog
  0009c	83 c4 10	 add	 esp, 16			; 00000010H
$LN13@InsertQuiz:
  0009f	5f		 pop	 edi
$LN4@InsertQuiz:

; 231  : }

  000a0	8b 4d fc	 mov	 ecx, DWORD PTR __$ArrayPad$[ebp]
  000a3	33 cd		 xor	 ecx, ebp
  000a5	5e		 pop	 esi
  000a6	e8 00 00 00 00	 call	 @__security_check_cookie@4
  000ab	8b e5		 mov	 esp, ebp
  000ad	5d		 pop	 ebp
  000ae	c2 08 00	 ret	 8
?InsertQuizEvent@CQuizDBCtrl@@AAEXKH@Z ENDP		; CQuizDBCtrl::InsertQuizEvent
_TEXT	ENDS
; Function compile flags: /Ogtp
; File C:\IAGOS\server\v18\Source\Source\DatabaseServer\QuizDBCtrl.cpp
; File C:\Program Files\Microsoft Visual Studio\2022\Professional\VC\Tools\MSVC\14.44.35207\include\xtree
; File C:\IAGOS\server\v18\Source\Source\DatabaseServer\QuizDBCtrl.cpp
; File C:\Program Files\Microsoft Visual Studio\2022\Professional\VC\Tools\MSVC\14.44.35207\include\xtree
; File C:\Program Files\Microsoft Visual Studio\2022\Professional\VC\Tools\MSVC\14.44.35207\include\type_traits
; File C:\Program Files\Microsoft Visual Studio\2022\Professional\VC\Tools\MSVC\14.44.35207\include\xtree
; File C:\IAGOS\server\v18\Source\Source\DatabaseServer\QuizDBCtrl.cpp
;	COMDAT ?GetQuizEventId@CQuizDBCtrl@@AAEHK@Z
_TEXT	SEGMENT
__Loc$1 = -12						; size = 12
_dpId$ = 8						; size = 4
?GetQuizEventId@CQuizDBCtrl@@AAEHK@Z PROC		; CQuizDBCtrl::GetQuizEventId, COMDAT
; _this$ = ecx

; 208  : {

  00000	55		 push	 ebp
  00001	8b ec		 mov	 ebp, esp
  00003	83 ec 0c	 sub	 esp, 12			; 0000000cH
  00006	56		 push	 esi
; File C:\Program Files\Microsoft Visual Studio\2022\Professional\VC\Tools\MSVC\14.44.35207\include\xtree

; 1384 :         const _Tree_find_result<_Nodeptr> _Loc = _Find_lower_bound(_Keyval);

  00007	8d 45 08	 lea	 eax, DWORD PTR _dpId$[ebp]
  0000a	50		 push	 eax
; File C:\IAGOS\server\v18\Source\Source\DatabaseServer\QuizDBCtrl.cpp

; 209  : 	map<DPID, WORLDDATA>::iterator it = m_mapWorldData.find( dpId );

  0000b	8d 71 20	 lea	 esi, DWORD PTR [ecx+32]
; File C:\Program Files\Microsoft Visual Studio\2022\Professional\VC\Tools\MSVC\14.44.35207\include\xtree

; 1384 :         const _Tree_find_result<_Nodeptr> _Loc = _Find_lower_bound(_Keyval);

  0000e	8d 45 f4	 lea	 eax, DWORD PTR __Loc$1[ebp]
  00011	8b ce		 mov	 ecx, esi
  00013	50		 push	 eax
  00014	e8 00 00 00 00	 call	 ??$_Find_lower_bound@K@?$_Tree@V?$_Tmap_traits@KU_WORLDDATA@CQuizDBCtrl@@U?$less@K@std@@V?$allocator@U?$pair@$$CBKU_WORLDDATA@CQuizDBCtrl@@@std@@@4@$0A@@std@@@std@@IBE?AU?$_Tree_find_result@PAU?$_Tree_node@U?$pair@$$CBKU_WORLDDATA@CQuizDBCtrl@@@std@@PAX@std@@@1@ABK@Z ; std::_Tree<std::_Tmap_traits<unsigned long,CQuizDBCtrl::_WORLDDATA,std::less<unsigned long>,std::allocator<std::pair<unsigned long const ,CQuizDBCtrl::_WORLDDATA> >,0> >::_Find_lower_bound<unsigned long>

; 1624 :         return !_Bound->_Isnil && !_DEBUG_LT_PRED(_Getcomp(), _Keyval, _Traits::_Kfn(_Bound->_Myval));

  00019	8b 45 fc	 mov	 eax, DWORD PTR __Loc$1[ebp+8]
  0001c	80 78 0d 00	 cmp	 BYTE PTR [eax+13], 0
  00020	75 16		 jne	 SHORT $LN2@GetQuizEve
; File C:\Program Files\Microsoft Visual Studio\2022\Professional\VC\Tools\MSVC\14.44.35207\include\type_traits

; 2380 :         return _Left < _Right;

  00022	8b 4d 08	 mov	 ecx, DWORD PTR _dpId$[ebp]
  00025	3b 48 10	 cmp	 ecx, DWORD PTR [eax+16]
; File C:\Program Files\Microsoft Visual Studio\2022\Professional\VC\Tools\MSVC\14.44.35207\include\xtree

; 1624 :         return !_Bound->_Isnil && !_DEBUG_LT_PRED(_Getcomp(), _Keyval, _Traits::_Kfn(_Bound->_Myval));

  00028	72 0e		 jb	 SHORT $LN2@GetQuizEve

; 37   :     _Tree_unchecked_const_iterator(_Nodeptr _Pnode, const _Mytree* _Plist) noexcept : _Ptr(_Pnode) {

  0002a	3b 06		 cmp	 eax, DWORD PTR [esi]
; File C:\IAGOS\server\v18\Source\Source\DatabaseServer\QuizDBCtrl.cpp

; 210  : 	if( it != m_mapWorldData.end() )

  0002c	74 0a		 je	 SHORT $LN2@GetQuizEve

; 211  : 		return it->second.nQuizEventId;

  0002e	8b 40 18	 mov	 eax, DWORD PTR [eax+24]
  00031	5e		 pop	 esi

; 214  : }

  00032	8b e5		 mov	 esp, ebp
  00034	5d		 pop	 ebp
  00035	c2 04 00	 ret	 4
$LN2@GetQuizEve:

; 212  : 
; 213  : 	return 0;

  00038	33 c0		 xor	 eax, eax
  0003a	5e		 pop	 esi

; 214  : }

  0003b	8b e5		 mov	 esp, ebp
  0003d	5d		 pop	 ebp
  0003e	c2 04 00	 ret	 4
?GetQuizEventId@CQuizDBCtrl@@AAEHK@Z ENDP		; CQuizDBCtrl::GetQuizEventId
_TEXT	ENDS
; Function compile flags: /Ogtp
; File C:\IAGOS\server\v18\Source\Source\DatabaseServer\QuizDBCtrl.cpp
; File C:\Program Files\Microsoft Visual Studio\2022\Professional\VC\Tools\MSVC\14.44.35207\include\xtree
; File C:\IAGOS\server\v18\Source\Source\DatabaseServer\QuizDBCtrl.cpp
; File C:\Program Files\Microsoft Visual Studio\2022\Professional\VC\Tools\MSVC\14.44.35207\include\xtree
; File C:\Program Files\Microsoft Visual Studio\2022\Professional\VC\Tools\MSVC\14.44.35207\include\type_traits
; File C:\Program Files\Microsoft Visual Studio\2022\Professional\VC\Tools\MSVC\14.44.35207\include\xtree
; File C:\IAGOS\server\v18\Source\Source\DatabaseServer\QuizDBCtrl.cpp
;	COMDAT ?SetState@CQuizDBCtrl@@AAEXKH@Z
_TEXT	SEGMENT
__Loc$1 = -12						; size = 12
_dpId$ = 8						; size = 4
_nState$ = 12						; size = 4
?SetState@CQuizDBCtrl@@AAEXKH@Z PROC			; CQuizDBCtrl::SetState, COMDAT
; _this$ = ecx

; 187  : {

  00000	55		 push	 ebp
  00001	8b ec		 mov	 ebp, esp
  00003	83 ec 0c	 sub	 esp, 12			; 0000000cH
  00006	56		 push	 esi
; File C:\Program Files\Microsoft Visual Studio\2022\Professional\VC\Tools\MSVC\14.44.35207\include\xtree

; 1384 :         const _Tree_find_result<_Nodeptr> _Loc = _Find_lower_bound(_Keyval);

  00007	8d 45 08	 lea	 eax, DWORD PTR _dpId$[ebp]
  0000a	50		 push	 eax
; File C:\IAGOS\server\v18\Source\Source\DatabaseServer\QuizDBCtrl.cpp

; 188  : 	map<DPID, WORLDDATA>::iterator it = m_mapWorldData.find( dpId );

  0000b	8d 71 20	 lea	 esi, DWORD PTR [ecx+32]
; File C:\Program Files\Microsoft Visual Studio\2022\Professional\VC\Tools\MSVC\14.44.35207\include\xtree

; 1384 :         const _Tree_find_result<_Nodeptr> _Loc = _Find_lower_bound(_Keyval);

  0000e	8d 45 f4	 lea	 eax, DWORD PTR __Loc$1[ebp]
  00011	8b ce		 mov	 ecx, esi
  00013	50		 push	 eax
  00014	e8 00 00 00 00	 call	 ??$_Find_lower_bound@K@?$_Tree@V?$_Tmap_traits@KU_WORLDDATA@CQuizDBCtrl@@U?$less@K@std@@V?$allocator@U?$pair@$$CBKU_WORLDDATA@CQuizDBCtrl@@@std@@@4@$0A@@std@@@std@@IBE?AU?$_Tree_find_result@PAU?$_Tree_node@U?$pair@$$CBKU_WORLDDATA@CQuizDBCtrl@@@std@@PAX@std@@@1@ABK@Z ; std::_Tree<std::_Tmap_traits<unsigned long,CQuizDBCtrl::_WORLDDATA,std::less<unsigned long>,std::allocator<std::pair<unsigned long const ,CQuizDBCtrl::_WORLDDATA> >,0> >::_Find_lower_bound<unsigned long>

; 1624 :         return !_Bound->_Isnil && !_DEBUG_LT_PRED(_Getcomp(), _Keyval, _Traits::_Kfn(_Bound->_Myval));

  00019	8b 4d fc	 mov	 ecx, DWORD PTR __Loc$1[ebp+8]
  0001c	80 79 0d 00	 cmp	 BYTE PTR [ecx+13], 0
  00020	75 12		 jne	 SHORT $LN2@SetState
; File C:\Program Files\Microsoft Visual Studio\2022\Professional\VC\Tools\MSVC\14.44.35207\include\type_traits

; 2380 :         return _Left < _Right;

  00022	8b 45 08	 mov	 eax, DWORD PTR _dpId$[ebp]
  00025	3b 41 10	 cmp	 eax, DWORD PTR [ecx+16]
; File C:\Program Files\Microsoft Visual Studio\2022\Professional\VC\Tools\MSVC\14.44.35207\include\xtree

; 1624 :         return !_Bound->_Isnil && !_DEBUG_LT_PRED(_Getcomp(), _Keyval, _Traits::_Kfn(_Bound->_Myval));

  00028	72 0a		 jb	 SHORT $LN2@SetState

; 37   :     _Tree_unchecked_const_iterator(_Nodeptr _Pnode, const _Mytree* _Plist) noexcept : _Ptr(_Pnode) {

  0002a	3b 0e		 cmp	 ecx, DWORD PTR [esi]
; File C:\IAGOS\server\v18\Source\Source\DatabaseServer\QuizDBCtrl.cpp

; 189  : 	if( it != m_mapWorldData.end() )

  0002c	74 06		 je	 SHORT $LN2@SetState

; 190  : 		it->second.nState = nState;

  0002e	8b 45 0c	 mov	 eax, DWORD PTR _nState$[ebp]
  00031	89 41 20	 mov	 DWORD PTR [ecx+32], eax
$LN2@SetState:
  00034	5e		 pop	 esi

; 191  : }

  00035	8b e5		 mov	 esp, ebp
  00037	5d		 pop	 ebp
  00038	c2 08 00	 ret	 8
?SetState@CQuizDBCtrl@@AAEXKH@Z ENDP			; CQuizDBCtrl::SetState
_TEXT	ENDS
; Function compile flags: /Ogtp
; File C:\IAGOS\server\v18\Source\Source\DatabaseServer\QuizDBCtrl.cpp
; File C:\Program Files\Microsoft Visual Studio\2022\Professional\VC\Tools\MSVC\14.44.35207\include\xtree
; File C:\IAGOS\server\v18\Source\Source\DatabaseServer\QuizDBCtrl.cpp
; File C:\Program Files\Microsoft Visual Studio\2022\Professional\VC\Tools\MSVC\14.44.35207\include\xtree
; File C:\Program Files\Microsoft Visual Studio\2022\Professional\VC\Tools\MSVC\14.44.35207\include\type_traits
; File C:\Program Files\Microsoft Visual Studio\2022\Professional\VC\Tools\MSVC\14.44.35207\include\xtree
; File C:\IAGOS\server\v18\Source\Source\DatabaseServer\QuizDBCtrl.cpp
;	COMDAT ?GetWorldData@CQuizDBCtrl@@AAEPAU_WORLDDATA@1@K@Z
_TEXT	SEGMENT
__Loc$1 = -12						; size = 12
_dpId$ = 8						; size = 4
?GetWorldData@CQuizDBCtrl@@AAEPAU_WORLDDATA@1@K@Z PROC	; CQuizDBCtrl::GetWorldData, COMDAT
; _this$ = ecx

; 179  : {

  00000	55		 push	 ebp
  00001	8b ec		 mov	 ebp, esp
  00003	83 ec 0c	 sub	 esp, 12			; 0000000cH
  00006	56		 push	 esi
; File C:\Program Files\Microsoft Visual Studio\2022\Professional\VC\Tools\MSVC\14.44.35207\include\xtree

; 1384 :         const _Tree_find_result<_Nodeptr> _Loc = _Find_lower_bound(_Keyval);

  00007	8d 45 08	 lea	 eax, DWORD PTR _dpId$[ebp]
  0000a	50		 push	 eax
; File C:\IAGOS\server\v18\Source\Source\DatabaseServer\QuizDBCtrl.cpp

; 180  : 	map<DPID, WORLDDATA>::iterator it = m_mapWorldData.find( dpId );

  0000b	8d 71 20	 lea	 esi, DWORD PTR [ecx+32]
; File C:\Program Files\Microsoft Visual Studio\2022\Professional\VC\Tools\MSVC\14.44.35207\include\xtree

; 1384 :         const _Tree_find_result<_Nodeptr> _Loc = _Find_lower_bound(_Keyval);

  0000e	8d 45 f4	 lea	 eax, DWORD PTR __Loc$1[ebp]
  00011	8b ce		 mov	 ecx, esi
  00013	50		 push	 eax
  00014	e8 00 00 00 00	 call	 ??$_Find_lower_bound@K@?$_Tree@V?$_Tmap_traits@KU_WORLDDATA@CQuizDBCtrl@@U?$less@K@std@@V?$allocator@U?$pair@$$CBKU_WORLDDATA@CQuizDBCtrl@@@std@@@4@$0A@@std@@@std@@IBE?AU?$_Tree_find_result@PAU?$_Tree_node@U?$pair@$$CBKU_WORLDDATA@CQuizDBCtrl@@@std@@PAX@std@@@1@ABK@Z ; std::_Tree<std::_Tmap_traits<unsigned long,CQuizDBCtrl::_WORLDDATA,std::less<unsigned long>,std::allocator<std::pair<unsigned long const ,CQuizDBCtrl::_WORLDDATA> >,0> >::_Find_lower_bound<unsigned long>

; 1624 :         return !_Bound->_Isnil && !_DEBUG_LT_PRED(_Getcomp(), _Keyval, _Traits::_Kfn(_Bound->_Myval));

  00019	8b 55 fc	 mov	 edx, DWORD PTR __Loc$1[ebp+8]
  0001c	80 7a 0d 00	 cmp	 BYTE PTR [edx+13], 0
  00020	75 19		 jne	 SHORT $LN2@GetWorldDa
; File C:\Program Files\Microsoft Visual Studio\2022\Professional\VC\Tools\MSVC\14.44.35207\include\type_traits

; 2380 :         return _Left < _Right;

  00022	8b 45 08	 mov	 eax, DWORD PTR _dpId$[ebp]
  00025	3b 42 10	 cmp	 eax, DWORD PTR [edx+16]
; File C:\Program Files\Microsoft Visual Studio\2022\Professional\VC\Tools\MSVC\14.44.35207\include\xtree

; 1624 :         return !_Bound->_Isnil && !_DEBUG_LT_PRED(_Getcomp(), _Keyval, _Traits::_Kfn(_Bound->_Myval));

  00028	72 11		 jb	 SHORT $LN2@GetWorldDa

; 37   :     _Tree_unchecked_const_iterator(_Nodeptr _Pnode, const _Mytree* _Plist) noexcept : _Ptr(_Pnode) {

  0002a	33 c0		 xor	 eax, eax
  0002c	8d 4a 14	 lea	 ecx, DWORD PTR [edx+20]
  0002f	3b 16		 cmp	 edx, DWORD PTR [esi]
  00031	5e		 pop	 esi
  00032	0f 45 c1	 cmovne	 eax, ecx
; File C:\IAGOS\server\v18\Source\Source\DatabaseServer\QuizDBCtrl.cpp

; 184  : }

  00035	8b e5		 mov	 esp, ebp
  00037	5d		 pop	 ebp
  00038	c2 04 00	 ret	 4
$LN2@GetWorldDa:

; 181  : 	if( it != m_mapWorldData.end() )
; 182  : 		return &it->second;
; 183  : 	return NULL;

  0003b	33 c0		 xor	 eax, eax
  0003d	5e		 pop	 esi

; 184  : }

  0003e	8b e5		 mov	 esp, ebp
  00040	5d		 pop	 ebp
  00041	c2 04 00	 ret	 4
?GetWorldData@CQuizDBCtrl@@AAEPAU_WORLDDATA@1@K@Z ENDP	; CQuizDBCtrl::GetWorldData
_TEXT	ENDS
; Function compile flags: /Ogtp
; File C:\IAGOS\server\v18\Source\Source\DatabaseServer\QuizDBCtrl.cpp
; File C:\Program Files\Microsoft Visual Studio\2022\Professional\VC\Tools\MSVC\14.44.35207\include\xtree
; File C:\Program Files\Microsoft Visual Studio\2022\Professional\VC\Tools\MSVC\14.44.35207\include\type_traits
; File C:\Program Files\Microsoft Visual Studio\2022\Professional\VC\Tools\MSVC\14.44.35207\include\xtree
; File C:\IAGOS\server\v18\Source\Source\DatabaseServer\QuizDBCtrl.cpp
; File C:\Program Files\Microsoft Visual Studio\2022\Professional\VC\Tools\MSVC\14.44.35207\include\xtree
; File C:\Program Files\Microsoft Visual Studio\2022\Professional\VC\Tools\MSVC\14.44.35207\include\xmemory
; File C:\IAGOS\server\v18\Source\Source\DatabaseServer\QuizDBCtrl.cpp
; File C:\IAGOS\server\v18\Source\Source\_Common\Quiz.h
; File C:\IAGOS\server\v18\Source\Source\DatabaseServer\QuizDBCtrl.cpp
; File C:\Program Files\Microsoft Visual Studio\2022\Professional\VC\Tools\MSVC\14.44.35207\include\vector
; File C:\IAGOS\server\v18\Source\Source\DatabaseServer\QuizDBCtrl.cpp
; File C:\Program Files\Microsoft Visual Studio\2022\Professional\VC\Tools\MSVC\14.44.35207\include\vector
; File C:\IAGOS\server\v18\Source\Source\DatabaseServer\QuizDBCtrl.cpp
;	COMDAT ?DeleteWorldData@CQuizDBCtrl@@AAEXKH@Z
_TEXT	SEGMENT
__Loc$1 = -40976					; size = 12
_szQuery$2 = -40964					; size = 40960
__$ArrayPad$ = -4					; size = 4
_dpId$ = 8						; size = 4
_nState$ = 12						; size = 4
?DeleteWorldData@CQuizDBCtrl@@AAEXKH@Z PROC		; CQuizDBCtrl::DeleteWorldData, COMDAT
; _this$ = ecx

; 159  : {

  00000	55		 push	 ebp
  00001	8b ec		 mov	 ebp, esp
  00003	b8 10 a0 00 00	 mov	 eax, 40976		; 0000a010H
  00008	e8 00 00 00 00	 call	 __chkstk
  0000d	a1 00 00 00 00	 mov	 eax, DWORD PTR ___security_cookie
  00012	33 c5		 xor	 eax, ebp
  00014	89 45 fc	 mov	 DWORD PTR __$ArrayPad$[ebp], eax
  00017	56		 push	 esi
  00018	57		 push	 edi
  00019	8b f9		 mov	 edi, ecx
; File C:\Program Files\Microsoft Visual Studio\2022\Professional\VC\Tools\MSVC\14.44.35207\include\xtree

; 1384 :         const _Tree_find_result<_Nodeptr> _Loc = _Find_lower_bound(_Keyval);

  0001b	8d 45 08	 lea	 eax, DWORD PTR _dpId$[ebp]
  0001e	50		 push	 eax
  0001f	8d 85 f0 5f ff
	ff		 lea	 eax, DWORD PTR __Loc$1[ebp]
  00025	50		 push	 eax
  00026	8d 4f 20	 lea	 ecx, DWORD PTR [edi+32]
  00029	e8 00 00 00 00	 call	 ??$_Find_lower_bound@K@?$_Tree@V?$_Tmap_traits@KU_WORLDDATA@CQuizDBCtrl@@U?$less@K@std@@V?$allocator@U?$pair@$$CBKU_WORLDDATA@CQuizDBCtrl@@@std@@@4@$0A@@std@@@std@@IBE?AU?$_Tree_find_result@PAU?$_Tree_node@U?$pair@$$CBKU_WORLDDATA@CQuizDBCtrl@@@std@@PAX@std@@@1@ABK@Z ; std::_Tree<std::_Tmap_traits<unsigned long,CQuizDBCtrl::_WORLDDATA,std::less<unsigned long>,std::allocator<std::pair<unsigned long const ,CQuizDBCtrl::_WORLDDATA> >,0> >::_Find_lower_bound<unsigned long>

; 1624 :         return !_Bound->_Isnil && !_DEBUG_LT_PRED(_Getcomp(), _Keyval, _Traits::_Kfn(_Bound->_Myval));

  0002e	8b 8d f8 5f ff
	ff		 mov	 ecx, DWORD PTR __Loc$1[ebp+8]
  00034	80 79 0d 00	 cmp	 BYTE PTR [ecx+13], 0
  00038	75 21		 jne	 SHORT $LN90@DeleteWorl
; File C:\Program Files\Microsoft Visual Studio\2022\Professional\VC\Tools\MSVC\14.44.35207\include\type_traits

; 2380 :         return _Left < _Right;

  0003a	8b 45 08	 mov	 eax, DWORD PTR _dpId$[ebp]
  0003d	3b 41 10	 cmp	 eax, DWORD PTR [ecx+16]
; File C:\Program Files\Microsoft Visual Studio\2022\Professional\VC\Tools\MSVC\14.44.35207\include\xtree

; 1624 :         return !_Bound->_Isnil && !_DEBUG_LT_PRED(_Getcomp(), _Keyval, _Traits::_Kfn(_Bound->_Myval));

  00040	72 19		 jb	 SHORT $LN90@DeleteWorl

; 37   :     _Tree_unchecked_const_iterator(_Nodeptr _Pnode, const _Mytree* _Plist) noexcept : _Ptr(_Pnode) {

  00042	3b 4f 20	 cmp	 ecx, DWORD PTR [edi+32]
; File C:\IAGOS\server\v18\Source\Source\DatabaseServer\QuizDBCtrl.cpp

; 161  : 	if( it != m_mapWorldData.end() )

  00045	74 14		 je	 SHORT $LN90@DeleteWorl
; File C:\Program Files\Microsoft Visual Studio\2022\Professional\VC\Tools\MSVC\14.44.35207\include\xtree

; 1303 :         _Nodeptr _Erasednode = _Scary->_Extract(_Where); // node to erase

  00047	51		 push	 ecx
  00048	8d 4f 20	 lea	 ecx, DWORD PTR [edi+32]
  0004b	e8 00 00 00 00	 call	 ?_Extract@?$_Tree_val@U?$_Tree_simple_types@U?$pair@$$CBKU_WORLDDATA@CQuizDBCtrl@@@std@@@std@@@std@@QAEPAU?$_Tree_node@U?$pair@$$CBKU_WORLDDATA@CQuizDBCtrl@@@std@@PAX@2@V?$_Tree_unchecked_const_iterator@V?$_Tree_val@U?$_Tree_simple_types@U?$pair@$$CBKU_WORLDDATA@CQuizDBCtrl@@@std@@@std@@@std@@U_Iterator_base0@2@@2@@Z ; std::_Tree_val<std::_Tree_simple_types<std::pair<unsigned long const ,CQuizDBCtrl::_WORLDDATA> > >::_Extract
; File C:\Program Files\Microsoft Visual Studio\2022\Professional\VC\Tools\MSVC\14.44.35207\include\xmemory

; 289  :         ::operator delete(_Ptr, _Bytes);

  00050	6a 30		 push	 48			; 00000030H
  00052	50		 push	 eax
  00053	e8 00 00 00 00	 call	 ??3@YAXPAXI@Z		; operator delete
  00058	83 c4 08	 add	 esp, 8
$LN90@DeleteWorl:
; File C:\IAGOS\server\v18\Source\Source\DatabaseServer\QuizDBCtrl.cpp

; 163  : 	if( !m_mapWorldData.size() && nState == CQuiz::QE_CLOSE )

  0005b	83 7f 24 00	 cmp	 DWORD PTR [edi+36], 0
  0005f	0f 85 aa 00 00
	00		 jne	 $LN4@DeleteWorl
  00065	83 7d 0c 00	 cmp	 DWORD PTR _nState$[ebp], 0
  00069	0f 85 a0 00 00
	00		 jne	 $LN4@DeleteWorl

; 164  : 	{
; 165  : 		CQuiz::GetInstance()->SetRun( FALSE );

  0006f	e8 00 00 00 00	 call	 ?GetInstance@CQuiz@@SAPAV1@XZ ; CQuiz::GetInstance
; File C:\IAGOS\server\v18\Source\Source\_Common\Quiz.h

; 77   : 	void	SetRun( BOOL bRun )		{	m_bRun = bRun;	}

  00074	c7 40 08 00 00
	00 00		 mov	 DWORD PTR [eax+8], 0
; File C:\IAGOS\server\v18\Source\Source\DatabaseServer\QuizDBCtrl.cpp

; 166  : 		CQuiz::GetInstance()->m_vecQuizList.clear();

  0007b	e8 00 00 00 00	 call	 ?GetInstance@CQuiz@@SAPAV1@XZ ; CQuiz::GetInstance
; File C:\Program Files\Microsoft Visual Studio\2022\Professional\VC\Tools\MSVC\14.44.35207\include\vector

; 1812 :         if (_Myfirst == _Mylast) { // already empty, nothing to do

  00080	8b 48 18	 mov	 ecx, DWORD PTR [eax+24]
; File C:\IAGOS\server\v18\Source\Source\DatabaseServer\QuizDBCtrl.cpp

; 166  : 		CQuiz::GetInstance()->m_vecQuizList.clear();

  00083	8d 70 14	 lea	 esi, DWORD PTR [eax+20]
; File C:\Program Files\Microsoft Visual Studio\2022\Professional\VC\Tools\MSVC\14.44.35207\include\vector

; 1812 :         if (_Myfirst == _Mylast) { // already empty, nothing to do

  00086	8b 06		 mov	 eax, DWORD PTR [esi]
  00088	3b c1		 cmp	 eax, ecx
  0008a	74 10		 je	 SHORT $LN95@DeleteWorl

; 1813 :             // This is an optimization for debug mode: we can avoid taking the debug lock to invalidate iterators.
; 1814 :             // Note that when clearing an empty vector, this will preserve past-the-end iterators, which is allowed by
; 1815 :             // N4950 [sequence.reqmts]/54 "a.clear() [...] may invalidate the past-the-end iterator".
; 1816 :             return;
; 1817 :         }
; 1818 : 
; 1819 :         _My_data._Orphan_all();
; 1820 :         _Destroy_range(_Myfirst, _Mylast, _Getal());

  0008c	56		 push	 esi
  0008d	51		 push	 ecx
  0008e	50		 push	 eax
  0008f	e8 00 00 00 00	 call	 ??$_Destroy_range@V?$allocator@U_QUIZLIST@CQuiz@@@std@@@std@@YAXPAU_QUIZLIST@CQuiz@@QAU12@AAV?$allocator@U_QUIZLIST@CQuiz@@@0@@Z ; std::_Destroy_range<std::allocator<CQuiz::_QUIZLIST> >

; 1821 :         _ASAN_VECTOR_MODIFY(static_cast<difference_type>(_Myfirst - _Mylast)); // negative when destroying elements
; 1822 :         _Mylast = _Myfirst;

  00094	8b 06		 mov	 eax, DWORD PTR [esi]
  00096	83 c4 0c	 add	 esp, 12			; 0000000cH
  00099	89 46 04	 mov	 DWORD PTR [esi+4], eax
$LN95@DeleteWorl:
; File C:\IAGOS\server\v18\Source\Source\DatabaseServer\QuizDBCtrl.cpp

; 167  : 		CQuiz::GetInstance()->m_nQuizSize = 0;

  0009c	e8 00 00 00 00	 call	 ?GetInstance@CQuiz@@SAPAV1@XZ ; CQuiz::GetInstance

; 168  : 		// ÄűÁî ą®Á¦ »çżë ľČÇÔ ľ÷µĄŔĚĆ®
; 169  : 		CQuery* pQuery = GetQueryObject();
; 170  : 		char szQuery[QUERY_SIZE] = {0, };

  000a1	68 00 a0 00 00	 push	 40960			; 0000a000H
  000a6	6a 00		 push	 0
  000a8	c7 40 10 00 00
	00 00		 mov	 DWORD PTR [eax+16], 0
  000af	8d 85 fc 5f ff
	ff		 lea	 eax, DWORD PTR _szQuery$2[ebp]
  000b5	8b 77 0c	 mov	 esi, DWORD PTR [edi+12]
  000b8	50		 push	 eax
  000b9	e8 00 00 00 00	 call	 _memset

; 171  : 		
; 172  : 		sprintf( szQuery, "usp_Quiz_Update @serverindex = '%02d', @m_nQuizType = %d", g_appInfo.dwSys, CQuiz::GetInstance()->GetType() );

  000be	e8 00 00 00 00	 call	 ?GetInstance@CQuiz@@SAPAV1@XZ ; CQuiz::GetInstance
  000c3	ff 30		 push	 DWORD PTR [eax]
  000c5	8d 85 fc 5f ff
	ff		 lea	 eax, DWORD PTR _szQuery$2[ebp]
  000cb	ff 35 00 00 00
	00		 push	 DWORD PTR ?g_appInfo@@3UAppInfo@@A
  000d1	68 00 00 00 00	 push	 OFFSET ??_C@_0DJ@FAECAJIA@usp_Quiz_Update?5?$EAserverindex?5?$DN?5@
  000d6	50		 push	 eax
  000d7	e8 00 00 00 00	 call	 _sprintf
  000dc	83 c4 1c	 add	 esp, 28			; 0000001cH

; 173  : 		if( pQuery->Exec( szQuery ) == FALSE )

  000df	8d 85 fc 5f ff
	ff		 lea	 eax, DWORD PTR _szQuery$2[ebp]
  000e5	8b ce		 mov	 ecx, esi
  000e7	50		 push	 eax
  000e8	e8 00 00 00 00	 call	 ?Exec@CQuery@@QAEHPBD@Z	; CQuery::Exec
  000ed	85 c0		 test	 eax, eax
  000ef	75 1e		 jne	 SHORT $LN4@DeleteWorl

; 174  : 		{ WriteLog( "%s, %d\t%s", __FILE__, __LINE__, szQuery ); return; }

  000f1	8d 85 fc 5f ff
	ff		 lea	 eax, DWORD PTR _szQuery$2[ebp]
  000f7	50		 push	 eax
  000f8	68 ae 00 00 00	 push	 174			; 000000aeH
  000fd	68 00 00 00 00	 push	 OFFSET ??_C@_0EA@POJBDFAK@C?3?2IAGOS?2server?2v18?2Source?2Sour@
  00102	68 00 00 00 00	 push	 OFFSET ??_C@_09GBAEEKDE@?$CFs?0?5?$CFd?7?$CFs@
  00107	e8 00 00 00 00	 call	 ?WriteLog@@YAXPBDZZ	; WriteLog
  0010c	83 c4 10	 add	 esp, 16			; 00000010H
$LN4@DeleteWorl:

; 175  : 	}
; 176  : }

  0010f	8b 4d fc	 mov	 ecx, DWORD PTR __$ArrayPad$[ebp]
  00112	5f		 pop	 edi
  00113	33 cd		 xor	 ecx, ebp
  00115	5e		 pop	 esi
  00116	e8 00 00 00 00	 call	 @__security_check_cookie@4
  0011b	8b e5		 mov	 esp, ebp
  0011d	5d		 pop	 ebp
  0011e	c2 08 00	 ret	 8
?DeleteWorldData@CQuizDBCtrl@@AAEXKH@Z ENDP		; CQuizDBCtrl::DeleteWorldData
_TEXT	ENDS
; Function compile flags: /Ogtp
; File C:\IAGOS\server\v18\Source\Source\DatabaseServer\QuizDBCtrl.cpp
; File C:\IAGOS\server\v18\Source\Source\DatabaseServer\QuizDBCtrl.h
; File C:\IAGOS\server\v18\Source\Source\DatabaseServer\QuizDBCtrl.cpp
; File C:\Program Files\Microsoft Visual Studio\2022\Professional\VC\Tools\MSVC\14.44.35207\include\utility
; File C:\IAGOS\server\v18\Source\Source\DatabaseServer\QuizDBCtrl.h
; File C:\Program Files\Microsoft Visual Studio\2022\Professional\VC\Tools\MSVC\14.44.35207\include\utility
; File C:\IAGOS\server\v18\Source\Source\DatabaseServer\QuizDBCtrl.h
; File C:\Program Files\Microsoft Visual Studio\2022\Professional\VC\Tools\MSVC\14.44.35207\include\utility
; File C:\IAGOS\server\v18\Source\Source\DatabaseServer\QuizDBCtrl.h
; File C:\Program Files\Microsoft Visual Studio\2022\Professional\VC\Tools\MSVC\14.44.35207\include\xtree
; File C:\IAGOS\server\v18\Source\Source\DatabaseServer\QuizDBCtrl.h
; File C:\Program Files\Microsoft Visual Studio\2022\Professional\VC\Tools\MSVC\14.44.35207\include\utility
; File C:\Program Files\Microsoft Visual Studio\2022\Professional\VC\Tools\MSVC\14.44.35207\include\xtree
; File C:\Program Files\Microsoft Visual Studio\2022\Professional\VC\Tools\MSVC\14.44.35207\include\utility
; File C:\Program Files\Microsoft Visual Studio\2022\Professional\VC\Tools\MSVC\14.44.35207\include\xtree
; File C:\Program Files\Microsoft Visual Studio\2022\Professional\VC\Tools\MSVC\14.44.35207\include\utility
; File C:\Program Files\Microsoft Visual Studio\2022\Professional\VC\Tools\MSVC\14.44.35207\include\xtree
; File C:\Program Files\Microsoft Visual Studio\2022\Professional\VC\Tools\MSVC\14.44.35207\include\type_traits
; File C:\Program Files\Microsoft Visual Studio\2022\Professional\VC\Tools\MSVC\14.44.35207\include\xtree
; File C:\Program Files\Microsoft Visual Studio\2022\Professional\VC\Tools\MSVC\14.44.35207\include\xmemory
; File C:\Program Files\Microsoft Visual Studio\2022\Professional\VC\Tools\MSVC\14.44.35207\include\xtree
; File C:\Program Files\Microsoft Visual Studio\2022\Professional\VC\Tools\MSVC\14.44.35207\include\xmemory
; File C:\Program Files\Microsoft Visual Studio\2022\Professional\VC\Tools\MSVC\14.44.35207\include\xtree
; File C:\Program Files\Microsoft Visual Studio\2022\Professional\VC\Tools\MSVC\14.44.35207\include\xmemory
; File C:\Program Files\Microsoft Visual Studio\2022\Professional\VC\Tools\MSVC\14.44.35207\include\xtree
; File C:\IAGOS\server\v18\Source\Source\DatabaseServer\QuizDBCtrl.cpp
; File C:\Program Files\Microsoft Visual Studio\2022\Professional\VC\Tools\MSVC\14.44.35207\include\xtree
; File C:\IAGOS\server\v18\Source\Source\DatabaseServer\QuizDBCtrl.cpp
;	COMDAT ?InitWorldData@CQuizDBCtrl@@AAEXKHH@Z
_TEXT	SEGMENT
$T2 = -72						; size = 32
__Loc$3 = -40						; size = 12
$T4 = -28						; size = 12
$T5 = -24						; size = 8
tv704 = -16						; size = 4
__$EHRec$ = -12						; size = 12
_dpId$ = 8						; size = 4
_nChannel$ = 12						; size = 4
_nState$ = 16						; size = 4
tv703 = 16						; size = 4
?InitWorldData@CQuizDBCtrl@@AAEXKHH@Z PROC		; CQuizDBCtrl::InitWorldData, COMDAT
; _this$ = ecx

; 149  : {

  00000	55		 push	 ebp
  00001	8b ec		 mov	 ebp, esp
  00003	6a ff		 push	 -1
  00005	68 00 00 00 00	 push	 __ehhandler$?InitWorldData@CQuizDBCtrl@@AAEXKHH@Z
  0000a	64 a1 00 00 00
	00		 mov	 eax, DWORD PTR fs:0
  00010	50		 push	 eax
  00011	83 ec 3c	 sub	 esp, 60			; 0000003cH
  00014	53		 push	 ebx
  00015	56		 push	 esi
  00016	57		 push	 edi
  00017	a1 00 00 00 00	 mov	 eax, DWORD PTR ___security_cookie
  0001c	33 c5		 xor	 eax, ebp
  0001e	50		 push	 eax
  0001f	8d 45 f4	 lea	 eax, DWORD PTR __$EHRec$[ebp]
  00022	64 a3 00 00 00
	00		 mov	 DWORD PTR fs:0, eax
; File C:\IAGOS\server\v18\Source\Source\DatabaseServer\QuizDBCtrl.h

; 55   : 	int			SetQuizEventId()	{	return ++m_nQuizEventId;	}

  00028	8b 41 18	 mov	 eax, DWORD PTR [ecx+24]
; File C:\IAGOS\server\v18\Source\Source\DatabaseServer\QuizDBCtrl.cpp

; 155  : 	m_mapWorldData.insert( map<DPID, WORLDDATA>::value_type( dpId, WD ) );

  0002b	8d 79 20	 lea	 edi, DWORD PTR [ecx+32]
; File C:\Program Files\Microsoft Visual Studio\2022\Professional\VC\Tools\MSVC\14.44.35207\include\utility

; 274  :         : first(_STD forward<_Other1>(_Val1)), second(_STD forward<_Other2>(_Val2)) {

  0002e	8b 5d 08	 mov	 ebx, DWORD PTR _dpId$[ebp]
; File C:\IAGOS\server\v18\Source\Source\DatabaseServer\QuizDBCtrl.h

; 55   : 	int			SetQuizEventId()	{	return ++m_nQuizEventId;	}

  00031	33 d2		 xor	 edx, edx
  00033	83 7d 10 01	 cmp	 DWORD PTR _nState$[ebp], 1
; File C:\Program Files\Microsoft Visual Studio\2022\Professional\VC\Tools\MSVC\14.44.35207\include\utility

; 274  :         : first(_STD forward<_Other1>(_Val1)), second(_STD forward<_Other2>(_Val2)) {

  00037	89 5d b8	 mov	 DWORD PTR $T2[ebp], ebx
; File C:\IAGOS\server\v18\Source\Source\DatabaseServer\QuizDBCtrl.h

; 55   : 	int			SetQuizEventId()	{	return ++m_nQuizEventId;	}

  0003a	0f 94 c2	 sete	 dl
; File C:\Program Files\Microsoft Visual Studio\2022\Professional\VC\Tools\MSVC\14.44.35207\include\utility

; 274  :         : first(_STD forward<_Other1>(_Val1)), second(_STD forward<_Other2>(_Val2)) {

  0003d	c7 45 c8 00 00
	00 00		 mov	 DWORD PTR $T2[ebp+16], 0
; File C:\IAGOS\server\v18\Source\Source\DatabaseServer\QuizDBCtrl.h

; 55   : 	int			SetQuizEventId()	{	return ++m_nQuizEventId;	}

  00044	40		 inc	 eax
  00045	89 55 10	 mov	 DWORD PTR tv703[ebp], edx
  00048	89 41 18	 mov	 DWORD PTR [ecx+24], eax
; File C:\Program Files\Microsoft Visual Studio\2022\Professional\VC\Tools\MSVC\14.44.35207\include\xtree

; 1017 :             _Loc                = _Find_lower_bound(_Keyval);

  0004b	8b cf		 mov	 ecx, edi
; File C:\IAGOS\server\v18\Source\Source\DatabaseServer\QuizDBCtrl.h

; 55   : 	int			SetQuizEventId()	{	return ++m_nQuizEventId;	}

  0004d	89 45 f0	 mov	 DWORD PTR tv704[ebp], eax
; File C:\Program Files\Microsoft Visual Studio\2022\Professional\VC\Tools\MSVC\14.44.35207\include\utility

; 274  :         : first(_STD forward<_Other1>(_Val1)), second(_STD forward<_Other2>(_Val2)) {

  00050	89 45 c0	 mov	 DWORD PTR $T2[ebp+8], eax
  00053	8b 45 0c	 mov	 eax, DWORD PTR _nChannel$[ebp]
  00056	89 45 c4	 mov	 DWORD PTR $T2[ebp+12], eax
; File C:\Program Files\Microsoft Visual Studio\2022\Professional\VC\Tools\MSVC\14.44.35207\include\xtree

; 1017 :             _Loc                = _Find_lower_bound(_Keyval);

  00059	8d 45 b8	 lea	 eax, DWORD PTR $T2[ebp]
  0005c	50		 push	 eax
  0005d	8d 45 e4	 lea	 eax, DWORD PTR $T4[ebp]
; File C:\Program Files\Microsoft Visual Studio\2022\Professional\VC\Tools\MSVC\14.44.35207\include\utility

; 274  :         : first(_STD forward<_Other1>(_Val1)), second(_STD forward<_Other2>(_Val2)) {

  00060	89 55 bc	 mov	 DWORD PTR $T2[ebp+4], edx
; File C:\Program Files\Microsoft Visual Studio\2022\Professional\VC\Tools\MSVC\14.44.35207\include\xtree

; 1017 :             _Loc                = _Find_lower_bound(_Keyval);

  00063	50		 push	 eax
; File C:\Program Files\Microsoft Visual Studio\2022\Professional\VC\Tools\MSVC\14.44.35207\include\utility

; 274  :         : first(_STD forward<_Other1>(_Val1)), second(_STD forward<_Other2>(_Val2)) {

  00064	c7 45 cc 00 00
	00 00		 mov	 DWORD PTR $T2[ebp+20], 0
  0006b	c7 45 d0 00 00
	00 00		 mov	 DWORD PTR $T2[ebp+24], 0
  00072	c7 45 d4 00 00
	00 00		 mov	 DWORD PTR $T2[ebp+28], 0
; File C:\Program Files\Microsoft Visual Studio\2022\Professional\VC\Tools\MSVC\14.44.35207\include\xtree

; 1017 :             _Loc                = _Find_lower_bound(_Keyval);

  00079	e8 00 00 00 00	 call	 ??$_Find_lower_bound@K@?$_Tree@V?$_Tmap_traits@KU_WORLDDATA@CQuizDBCtrl@@U?$less@K@std@@V?$allocator@U?$pair@$$CBKU_WORLDDATA@CQuizDBCtrl@@@std@@@4@$0A@@std@@@std@@IBE?AU?$_Tree_find_result@PAU?$_Tree_node@U?$pair@$$CBKU_WORLDDATA@CQuizDBCtrl@@@std@@PAX@std@@@1@ABK@Z ; std::_Tree<std::_Tmap_traits<unsigned long,CQuizDBCtrl::_WORLDDATA,std::less<unsigned long>,std::allocator<std::pair<unsigned long const ,CQuizDBCtrl::_WORLDDATA> >,0> >::_Find_lower_bound<unsigned long>
  0007e	f3 0f 7e 00	 movq	 xmm0, QWORD PTR [eax]
  00082	8b 40 08	 mov	 eax, DWORD PTR [eax+8]
  00085	66 0f d6 45 d8	 movq	 QWORD PTR __Loc$3[ebp], xmm0

; 1624 :         return !_Bound->_Isnil && !_DEBUG_LT_PRED(_Getcomp(), _Keyval, _Traits::_Kfn(_Bound->_Myval));

  0008a	80 78 0d 00	 cmp	 BYTE PTR [eax+13], 0
  0008e	75 05		 jne	 SHORT $LN112@InitWorldD
; File C:\Program Files\Microsoft Visual Studio\2022\Professional\VC\Tools\MSVC\14.44.35207\include\type_traits

; 2380 :         return _Left < _Right;

  00090	3b 58 10	 cmp	 ebx, DWORD PTR [eax+16]
; File C:\Program Files\Microsoft Visual Studio\2022\Professional\VC\Tools\MSVC\14.44.35207\include\xtree

; 1624 :         return !_Bound->_Isnil && !_DEBUG_LT_PRED(_Getcomp(), _Keyval, _Traits::_Kfn(_Bound->_Myval));

  00093	73 73		 jae	 SHORT $LN96@InitWorldD
$LN112@InitWorldD:

; 1648 :         if (max_size() == _Get_scary()->_Mysize) {

  00095	81 7f 04 55 55
	55 05		 cmp	 DWORD PTR [edi+4], 89478485 ; 05555555H
  0009c	74 7e		 je	 SHORT $LN116@InitWorldD

; 1023 :             _Inserted = _Tree_temp_node<_Alnode>(_Getal(), _Scary->_Myhead, _STD forward<_Valtys>(_Vals)...)._Release();

  0009e	8b 37		 mov	 esi, DWORD PTR [edi]
; File C:\Program Files\Microsoft Visual Studio\2022\Professional\VC\Tools\MSVC\14.44.35207\include\xmemory

; 1160 :     _CONSTEXPR20 explicit _Alloc_construct_ptr(_Alloc& _Al_) : _Al(_Al_), _Ptr(nullptr) {}

  000a0	89 7d e8	 mov	 DWORD PTR $T5[ebp], edi

; 136  :         return ::operator new(_Bytes);

  000a3	6a 30		 push	 48			; 00000030H
; File C:\Program Files\Microsoft Visual Studio\2022\Professional\VC\Tools\MSVC\14.44.35207\include\xtree

; 808  :     explicit _Tree_temp_node_alloc(_Alnode& _Al_) : _Alloc_construct_ptr<_Alnode>(_Al_) {

  000a5	c7 45 fc 00 00
	00 00		 mov	 DWORD PTR __$EHRec$[ebp+8], 0
; File C:\Program Files\Microsoft Visual Studio\2022\Professional\VC\Tools\MSVC\14.44.35207\include\xmemory

; 1167 :         _Ptr = nullptr; // if allocate throws, prevents double-free

  000ac	c7 45 ec 00 00
	00 00		 mov	 DWORD PTR $T5[ebp+4], 0

; 136  :         return ::operator new(_Bytes);

  000b3	e8 00 00 00 00	 call	 ??2@YAPAXI@Z		; operator new

; 732  :         ::new (const_cast<void*>(static_cast<const volatile void*>(_Ptr))) _Objty(_STD forward<_Types>(_Args)...);

  000b8	8b 4d 10	 mov	 ecx, DWORD PTR tv703[ebp]

; 136  :         return ::operator new(_Bytes);

  000bb	83 c4 04	 add	 esp, 4

; 732  :         ::new (const_cast<void*>(static_cast<const volatile void*>(_Ptr))) _Objty(_STD forward<_Types>(_Args)...);

  000be	89 58 10	 mov	 DWORD PTR [eax+16], ebx
  000c1	89 48 14	 mov	 DWORD PTR [eax+20], ecx
  000c4	8b 4d f0	 mov	 ecx, DWORD PTR tv704[ebp]
  000c7	89 48 18	 mov	 DWORD PTR [eax+24], ecx
  000ca	8b 4d 0c	 mov	 ecx, DWORD PTR _nChannel$[ebp]
  000cd	89 48 1c	 mov	 DWORD PTR [eax+28], ecx
; File C:\Program Files\Microsoft Visual Studio\2022\Professional\VC\Tools\MSVC\14.44.35207\include\xtree

; 1042 :         return {_Scary->_Insert_node(_Loc._Location, _Inserted), true};

  000d0	8b cf		 mov	 ecx, edi
; File C:\Program Files\Microsoft Visual Studio\2022\Professional\VC\Tools\MSVC\14.44.35207\include\xmemory

; 732  :         ::new (const_cast<void*>(static_cast<const volatile void*>(_Ptr))) _Objty(_STD forward<_Types>(_Args)...);

  000d2	c7 40 20 00 00
	00 00		 mov	 DWORD PTR [eax+32], 0
  000d9	c7 40 24 00 00
	00 00		 mov	 DWORD PTR [eax+36], 0
  000e0	c7 40 28 00 00
	00 00		 mov	 DWORD PTR [eax+40], 0
  000e7	c7 40 2c 00 00
	00 00		 mov	 DWORD PTR [eax+44], 0
; File C:\Program Files\Microsoft Visual Studio\2022\Professional\VC\Tools\MSVC\14.44.35207\include\xtree

; 1042 :         return {_Scary->_Insert_node(_Loc._Location, _Inserted), true};

  000ee	50		 push	 eax
  000ef	ff 75 dc	 push	 DWORD PTR __Loc$3[ebp+4]

; 831  :         _Construct_in_place(this->_Ptr->_Left, _Myhead);

  000f2	89 30		 mov	 DWORD PTR [eax], esi

; 1042 :         return {_Scary->_Insert_node(_Loc._Location, _Inserted), true};

  000f4	ff 75 d8	 push	 DWORD PTR __Loc$3[ebp]

; 832  :         _Construct_in_place(this->_Ptr->_Parent, _Myhead);

  000f7	89 70 04	 mov	 DWORD PTR [eax+4], esi

; 833  :         _Construct_in_place(this->_Ptr->_Right, _Myhead);

  000fa	89 70 08	 mov	 DWORD PTR [eax+8], esi

; 834  :         this->_Ptr->_Color = _Red;

  000fd	66 c7 40 0c 00
	00		 mov	 WORD PTR [eax+12], 0

; 1042 :         return {_Scary->_Insert_node(_Loc._Location, _Inserted), true};

  00103	e8 00 00 00 00	 call	 ?_Insert_node@?$_Tree_val@U?$_Tree_simple_types@U?$pair@$$CBKU_WORLDDATA@CQuizDBCtrl@@@std@@@std@@@std@@QAEPAU?$_Tree_node@U?$pair@$$CBKU_WORLDDATA@CQuizDBCtrl@@@std@@PAX@2@U?$_Tree_id@PAU?$_Tree_node@U?$pair@$$CBKU_WORLDDATA@CQuizDBCtrl@@@std@@PAX@std@@@2@QAU32@@Z ; std::_Tree_val<std::_Tree_simple_types<std::pair<unsigned long const ,CQuizDBCtrl::_WORLDDATA> > >::_Insert_node
$LN96@InitWorldD:
; File C:\IAGOS\server\v18\Source\Source\DatabaseServer\QuizDBCtrl.cpp

; 156  : }

  00108	8b 4d f4	 mov	 ecx, DWORD PTR __$EHRec$[ebp]
  0010b	64 89 0d 00 00
	00 00		 mov	 DWORD PTR fs:0, ecx
  00112	59		 pop	 ecx
  00113	5f		 pop	 edi
  00114	5e		 pop	 esi
  00115	5b		 pop	 ebx
  00116	8b e5		 mov	 esp, ebp
  00118	5d		 pop	 ebp
  00119	c2 0c 00	 ret	 12			; 0000000cH
$LN116@InitWorldD:
; File C:\Program Files\Microsoft Visual Studio\2022\Professional\VC\Tools\MSVC\14.44.35207\include\xtree

; 1649 :             _Throw_tree_length_error();

  0011c	e8 00 00 00 00	 call	 ?_Throw_tree_length_error@std@@YAXXZ ; std::_Throw_tree_length_error
$LN114@InitWorldD:
  00121	cc		 int	 3
_TEXT	ENDS
;	COMDAT text$x
text$x	SEGMENT
__unwindfunclet$?InitWorldData@CQuizDBCtrl@@AAEXKHH@Z$2:
  00000	8d 4d e8	 lea	 ecx, DWORD PTR $T5[ebp]
  00003	e9 00 00 00 00	 jmp	 ??1?$_Alloc_construct_ptr@V?$allocator@U?$_Tree_node@U?$pair@$$CBKU_WORLDDATA@CQuizDBCtrl@@@std@@PAX@std@@@std@@@std@@QAE@XZ ; std::_Alloc_construct_ptr<std::allocator<std::_Tree_node<std::pair<unsigned long const ,CQuizDBCtrl::_WORLDDATA>,void *> > >::~_Alloc_construct_ptr<std::allocator<std::_Tree_node<std::pair<unsigned long const ,CQuizDBCtrl::_WORLDDATA>,void *> > >
  00008	cc		 int	 3
  00009	cc		 int	 3
  0000a	cc		 int	 3
  0000b	cc		 int	 3
  0000c	cc		 int	 3
__ehhandler$?InitWorldData@CQuizDBCtrl@@AAEXKHH@Z:
  0000d	90		 npad	 1
  0000e	90		 npad	 1
  0000f	8b 54 24 08	 mov	 edx, DWORD PTR [esp+8]
  00013	8d 42 0c	 lea	 eax, DWORD PTR [edx+12]
  00016	8b 4a b4	 mov	 ecx, DWORD PTR [edx-76]
  00019	33 c8		 xor	 ecx, eax
  0001b	e8 00 00 00 00	 call	 @__security_check_cookie@4
  00020	b8 00 00 00 00	 mov	 eax, OFFSET __ehfuncinfo$?InitWorldData@CQuizDBCtrl@@AAEXKHH@Z
  00025	e9 00 00 00 00	 jmp	 ___CxxFrameHandler3
text$x	ENDS
?InitWorldData@CQuizDBCtrl@@AAEXKHH@Z ENDP		; CQuizDBCtrl::InitWorldData
; Function compile flags: /Ogtp
; File C:\IAGOS\server\v18\Source\Source\DatabaseServer\QuizDBCtrl.cpp
; File C:\IAGOS\server\v18\Source\Source\DatabaseServer\QuizDBCtrl.h
; File C:\IAGOS\server\v18\Source\Source\DatabaseServer\QuizDBCtrl.cpp
;	COMDAT ?LoadQuizEventId@CQuizDBCtrl@@QAEHXZ
_TEXT	SEGMENT
_szQuery$ = -40964					; size = 40960
__$ArrayPad$ = -4					; size = 4
?LoadQuizEventId@CQuizDBCtrl@@QAEHXZ PROC		; CQuizDBCtrl::LoadQuizEventId, COMDAT
; _this$ = ecx

; 194  : {

  00000	55		 push	 ebp
  00001	8b ec		 mov	 ebp, esp
  00003	b8 04 a0 00 00	 mov	 eax, 40964		; 0000a004H
  00008	e8 00 00 00 00	 call	 __chkstk
  0000d	a1 00 00 00 00	 mov	 eax, DWORD PTR ___security_cookie
  00012	33 c5		 xor	 eax, ebp
  00014	89 45 fc	 mov	 DWORD PTR __$ArrayPad$[ebp], eax
  00017	56		 push	 esi

; 195  : 	char szQuery[QUERY_SIZE] = {0, };

  00018	68 00 a0 00 00	 push	 40960			; 0000a000H
  0001d	8d 85 fc 5f ff
	ff		 lea	 eax, DWORD PTR _szQuery$[ebp]
  00023	8b f1		 mov	 esi, ecx
  00025	6a 00		 push	 0
  00027	50		 push	 eax
  00028	e8 00 00 00 00	 call	 _memset

; 196  : 	sprintf( szQuery, "usp_QuizID_Select @serverindex = '%02d'", g_appInfo.dwSys );

  0002d	ff 35 00 00 00
	00		 push	 DWORD PTR ?g_appInfo@@3UAppInfo@@A
  00033	8d 85 fc 5f ff
	ff		 lea	 eax, DWORD PTR _szQuery$[ebp]
  00039	68 00 00 00 00	 push	 OFFSET ??_C@_0CI@FLDMMNNC@usp_QuizID_Select?5?$EAserverindex?5@
  0003e	50		 push	 eax
  0003f	e8 00 00 00 00	 call	 _sprintf

; 197  : 	if( m_pQuery->Exec( szQuery ) == FALSE )

  00044	8b 4e 14	 mov	 ecx, DWORD PTR [esi+20]
  00047	8d 85 fc 5f ff
	ff		 lea	 eax, DWORD PTR _szQuery$[ebp]
  0004d	83 c4 18	 add	 esp, 24			; 00000018H
  00050	50		 push	 eax
  00051	e8 00 00 00 00	 call	 ?Exec@CQuery@@QAEHPBD@Z	; CQuery::Exec
  00056	85 c0		 test	 eax, eax
  00058	75 2f		 jne	 SHORT $LN2@LoadQuizEv

; 198  : 	{ WriteLog( "%s, %d\t%s", __FILE__, __LINE__, szQuery ); return FALSE; }

  0005a	8d 85 fc 5f ff
	ff		 lea	 eax, DWORD PTR _szQuery$[ebp]
  00060	50		 push	 eax
  00061	68 c6 00 00 00	 push	 198			; 000000c6H
  00066	68 00 00 00 00	 push	 OFFSET ??_C@_0EA@POJBDFAK@C?3?2IAGOS?2server?2v18?2Source?2Sour@
  0006b	68 00 00 00 00	 push	 OFFSET ??_C@_09GBAEEKDE@?$CFs?0?5?$CFd?7?$CFs@
  00070	e8 00 00 00 00	 call	 ?WriteLog@@YAXPBDZZ	; WriteLog
  00075	83 c4 10	 add	 esp, 16			; 00000010H
$LN3@LoadQuizEv:

; 205  : }

  00078	33 c0		 xor	 eax, eax
  0007a	5e		 pop	 esi
  0007b	8b 4d fc	 mov	 ecx, DWORD PTR __$ArrayPad$[ebp]
  0007e	33 cd		 xor	 ecx, ebp
  00080	e8 00 00 00 00	 call	 @__security_check_cookie@4
  00085	8b e5		 mov	 esp, ebp
  00087	5d		 pop	 ebp
  00088	c3		 ret	 0
$LN2@LoadQuizEv:

; 199  : 	if( m_pQuery->Fetch() )

  00089	8b 4e 14	 mov	 ecx, DWORD PTR [esi+20]
  0008c	e8 00 00 00 00	 call	 ?Fetch@CQuery@@QAEHXZ	; CQuery::Fetch
  00091	85 c0		 test	 eax, eax
  00093	74 e3		 je	 SHORT $LN3@LoadQuizEv

; 200  : 	{
; 201  : 		InitQuizEventId( m_pQuery->GetInt( "QuizID" ) );

  00095	8b 4e 14	 mov	 ecx, DWORD PTR [esi+20]
  00098	68 00 00 00 00	 push	 OFFSET ??_C@_06MHCADHHK@QuizID@
  0009d	e8 00 00 00 00	 call	 ?GetInt@CQuery@@QAEHPAD@Z ; CQuery::GetInt

; 205  : }

  000a2	8b 4d fc	 mov	 ecx, DWORD PTR __$ArrayPad$[ebp]
; File C:\IAGOS\server\v18\Source\Source\DatabaseServer\QuizDBCtrl.h

; 54   : 	void		InitQuizEventId( int nId )	{	m_nQuizEventId = nId;	}

  000a5	89 46 18	 mov	 DWORD PTR [esi+24], eax
; File C:\IAGOS\server\v18\Source\Source\DatabaseServer\QuizDBCtrl.cpp

; 205  : }

  000a8	33 cd		 xor	 ecx, ebp
  000aa	b8 01 00 00 00	 mov	 eax, 1
  000af	5e		 pop	 esi
  000b0	e8 00 00 00 00	 call	 @__security_check_cookie@4
  000b5	8b e5		 mov	 esp, ebp
  000b7	5d		 pop	 ebp
  000b8	c3		 ret	 0
?LoadQuizEventId@CQuizDBCtrl@@QAEHXZ ENDP		; CQuizDBCtrl::LoadQuizEventId
_TEXT	ENDS
; Function compile flags: /Ogtp
; File C:\IAGOS\server\v18\Source\Source\DatabaseServer\QuizDBCtrl.cpp
; File C:\Program Files\Microsoft Visual Studio\2022\Professional\VC\Tools\MSVC\14.44.35207\include\xtree
; File C:\IAGOS\server\v18\Source\Source\DatabaseServer\QuizDBCtrl.cpp
; File C:\Program Files\Microsoft Visual Studio\2022\Professional\VC\Tools\MSVC\14.44.35207\include\vector
; File C:\IAGOS\server\v18\Source\Source\DatabaseServer\QuizDBCtrl.cpp
; File C:\Program Files\Microsoft Visual Studio\2022\Professional\VC\Tools\MSVC\14.44.35207\include\xtree
; File C:\IAGOS\server\v18\Source\Source\DatabaseServer\QuizDBCtrl.cpp
;	COMDAT ?OnTimer@CQuizDBCtrl@@UAEXXZ
_TEXT	SEGMENT
_this$1$ = -8						; size = 4
_it$1 = -4						; size = 4
?OnTimer@CQuizDBCtrl@@UAEXXZ PROC			; CQuizDBCtrl::OnTimer, COMDAT
; _this$ = ecx

; 123  : {

  00000	55		 push	 ebp
  00001	8b ec		 mov	 ebp, esp
  00003	83 ec 08	 sub	 esp, 8
  00006	56		 push	 esi
  00007	8b f1		 mov	 esi, ecx
  00009	89 75 f8	 mov	 DWORD PTR _this$1$[ebp], esi

; 124  : 	if( !CQuiz::GetInstance()->IsRun() )

  0000c	e8 00 00 00 00	 call	 ?GetInstance@CQuiz@@SAPAV1@XZ ; CQuiz::GetInstance
  00011	83 78 08 00	 cmp	 DWORD PTR [eax+8], 0
  00015	0f 84 bf 00 00
	00		 je	 $LN3@OnTimer

; 125  : 		return;
; 126  : 
; 127  : 	DWORD dwTick = GetTickCount();

  0001b	57		 push	 edi
  0001c	ff 15 00 00 00
	00		 call	 DWORD PTR __imp__GetTickCount@0
  00022	8b f8		 mov	 edi, eax
; File C:\Program Files\Microsoft Visual Studio\2022\Professional\VC\Tools\MSVC\14.44.35207\include\xtree

; 1142 :         return iterator(_Scary->_Myhead->_Left, _Scary);

  00024	8b 46 20	 mov	 eax, DWORD PTR [esi+32]

; 37   :     _Tree_unchecked_const_iterator(_Nodeptr _Pnode, const _Mytree* _Plist) noexcept : _Ptr(_Pnode) {

  00027	8b 30		 mov	 esi, DWORD PTR [eax]
  00029	89 75 fc	 mov	 DWORD PTR _it$1[ebp], esi

; 237  :         return !(*this == _Right);

  0002c	3b f0		 cmp	 esi, eax
; File C:\IAGOS\server\v18\Source\Source\DatabaseServer\QuizDBCtrl.cpp

; 129  : 	for( map<DPID, WORLDDATA>::iterator it = m_mapWorldData.begin(); it != m_mapWorldData.end(); ++it )

  0002e	0f 84 a5 00 00
	00		 je	 $LN172@OnTimer
  00034	53		 push	 ebx
$LL4@OnTimer:

; 130  : 	{
; 131  : 		// notice send
; 132  : 		if( dwTick > it->second.dwNoticeCycle && ( it->second.nState == CQuiz::QE_OPEN || it->second.nState == CQuiz::QE_WATCHINGZONE_OPEN ) )

  00035	3b 7e 2c	 cmp	 edi, DWORD PTR [esi+44]
  00038	76 25		 jbe	 SHORT $LN6@OnTimer
  0003a	8b 46 20	 mov	 eax, DWORD PTR [esi+32]
  0003d	83 f8 01	 cmp	 eax, 1
  00040	74 05		 je	 SHORT $LN7@OnTimer
  00042	83 f8 03	 cmp	 eax, 3
  00045	75 18		 jne	 SHORT $LN6@OnTimer
$LN7@OnTimer:

; 133  : 		{
; 134  : 			CDPTrans::GetInstance()->SendQuizEventNotice( it->first );

  00047	ff 76 10	 push	 DWORD PTR [esi+16]
  0004a	e8 00 00 00 00	 call	 ?GetInstance@CDPTrans@@SAPAV1@XZ ; CDPTrans::GetInstance
  0004f	8b c8		 mov	 ecx, eax
  00051	e8 00 00 00 00	 call	 ?SendQuizEventNotice@CDPTrans@@QAEXK@Z ; CDPTrans::SendQuizEventNotice

; 135  : 			it->second.dwNoticeCycle = dwTick + MIN( 1 );

  00056	8d 87 60 ea 00
	00		 lea	 eax, DWORD PTR [edi+60000]
  0005c	89 46 2c	 mov	 DWORD PTR [esi+44], eax
$LN6@OnTimer:

; 136  : 		}
; 137  : 		// Quiz list send
; 138  : 		if( it->second.bQuizSend && dwTick > it->second.dwQuizSendCycle && CQuiz::GetInstance()->m_nQuizSize != 0 )

  0005f	83 7e 14 00	 cmp	 DWORD PTR [esi+20], 0
  00063	74 5c		 je	 SHORT $LN2@OnTimer
  00065	3b 7e 28	 cmp	 edi, DWORD PTR [esi+40]
  00068	76 57		 jbe	 SHORT $LN2@OnTimer
  0006a	e8 00 00 00 00	 call	 ?GetInstance@CQuiz@@SAPAV1@XZ ; CQuiz::GetInstance
  0006f	83 78 10 00	 cmp	 DWORD PTR [eax+16], 0
  00073	74 4c		 je	 SHORT $LN2@OnTimer

; 140  : 			CDPTrans::GetInstance()->SendQuizList( it->first, CQuiz::GetInstance()->m_vecQuizList[it->second.nCount], CQuiz::GetInstance()->m_nQuizSize );

  00075	8b 5e 24	 mov	 ebx, DWORD PTR [esi+36]
  00078	e8 00 00 00 00	 call	 ?GetInstance@CQuiz@@SAPAV1@XZ ; CQuiz::GetInstance
; File C:\Program Files\Microsoft Visual Studio\2022\Professional\VC\Tools\MSVC\14.44.35207\include\vector

; 1934 :         return _My_data._Myfirst[_Pos];

  0007d	8d 0c 9b	 lea	 ecx, DWORD PTR [ebx+ebx*4]
  00080	8b 40 14	 mov	 eax, DWORD PTR [eax+20]
  00083	8d 1c 88	 lea	 ebx, DWORD PTR [eax+ecx*4]
; File C:\IAGOS\server\v18\Source\Source\DatabaseServer\QuizDBCtrl.cpp

; 140  : 			CDPTrans::GetInstance()->SendQuizList( it->first, CQuiz::GetInstance()->m_vecQuizList[it->second.nCount], CQuiz::GetInstance()->m_nQuizSize );

  00086	e8 00 00 00 00	 call	 ?GetInstance@CQuiz@@SAPAV1@XZ ; CQuiz::GetInstance
  0008b	8b 40 10	 mov	 eax, DWORD PTR [eax+16]
  0008e	50		 push	 eax
  0008f	53		 push	 ebx
  00090	ff 76 10	 push	 DWORD PTR [esi+16]
  00093	e8 00 00 00 00	 call	 ?GetInstance@CDPTrans@@SAPAV1@XZ ; CDPTrans::GetInstance
  00098	8b c8		 mov	 ecx, eax
  0009a	e8 00 00 00 00	 call	 ?SendQuizList@CDPTrans@@QAEXKAAU_QUIZLIST@CQuiz@@H@Z ; CDPTrans::SendQuizList

; 141  : 			it->second.dwQuizSendCycle = dwTick + m_dwQuizSendTick;

  0009f	8b 4d f8	 mov	 ecx, DWORD PTR _this$1$[ebp]
  000a2	8b 41 1c	 mov	 eax, DWORD PTR [ecx+28]
  000a5	03 c7		 add	 eax, edi
  000a7	89 46 28	 mov	 DWORD PTR [esi+40], eax

; 142  : 			if( ++it->second.nCount >= CQuiz::GetInstance()->m_nQuizSize )

  000aa	ff 46 24	 inc	 DWORD PTR [esi+36]
  000ad	e8 00 00 00 00	 call	 ?GetInstance@CQuiz@@SAPAV1@XZ ; CQuiz::GetInstance
  000b2	8b 4e 24	 mov	 ecx, DWORD PTR [esi+36]
  000b5	3b 48 10	 cmp	 ecx, DWORD PTR [eax+16]
  000b8	7c 07		 jl	 SHORT $LN2@OnTimer

; 143  : 				it->second.bQuizSend = FALSE;

  000ba	c7 46 14 00 00
	00 00		 mov	 DWORD PTR [esi+20], 0
$LN2@OnTimer:
; File C:\Program Files\Microsoft Visual Studio\2022\Professional\VC\Tools\MSVC\14.44.35207\include\xtree

; 198  :         _Mybase::operator++();

  000c1	8d 4d fc	 lea	 ecx, DWORD PTR _it$1[ebp]
  000c4	e8 00 00 00 00	 call	 ??E?$_Tree_unchecked_const_iterator@V?$_Tree_val@U?$_Tree_simple_types@U?$pair@$$CBKU_WORLDDATA@CQuizDBCtrl@@@std@@@std@@@std@@U_Iterator_base0@2@@std@@QAEAAV01@XZ ; std::_Tree_unchecked_const_iterator<std::_Tree_val<std::_Tree_simple_types<std::pair<unsigned long const ,CQuizDBCtrl::_WORLDDATA> > >,std::_Iterator_base0>::operator++

; 237  :         return !(*this == _Right);

  000c9	8b 45 f8	 mov	 eax, DWORD PTR _this$1$[ebp]
  000cc	8b 75 fc	 mov	 esi, DWORD PTR _it$1[ebp]
  000cf	3b 70 20	 cmp	 esi, DWORD PTR [eax+32]
; File C:\IAGOS\server\v18\Source\Source\DatabaseServer\QuizDBCtrl.cpp

; 129  : 	for( map<DPID, WORLDDATA>::iterator it = m_mapWorldData.begin(); it != m_mapWorldData.end(); ++it )

  000d2	0f 85 5d ff ff
	ff		 jne	 $LL4@OnTimer
  000d8	5b		 pop	 ebx
$LN172@OnTimer:
  000d9	5f		 pop	 edi
$LN3@OnTimer:
  000da	5e		 pop	 esi

; 144  : 		}
; 145  : 	}
; 146  : }

  000db	8b e5		 mov	 esp, ebp
  000dd	5d		 pop	 ebp
  000de	c3		 ret	 0
?OnTimer@CQuizDBCtrl@@UAEXXZ ENDP			; CQuizDBCtrl::OnTimer
_TEXT	ENDS
; Function compile flags: /Ogtp
; File C:\IAGOS\server\v18\Source\Source\DatabaseServer\QuizDBCtrl.cpp
; File C:\IAGOS\server\v18\Source\Source\_Common\Quiz.h
; File C:\IAGOS\server\v18\Source\Source\DatabaseServer\QuizDBCtrl.cpp
;	COMDAT ?Handler@CQuizDBCtrl@@UAEXPAUtagDB_OVERLAPPED_PLUS@@K@Z
_TEXT	SEGMENT
_idPlayer$2 = -32844					; size = 4
_nItemNum$3 = -32844					; size = 4
_nState$4 = -32840					; size = 4
_nChannel$5 = -32840					; size = 4
_nType$6 = -32836					; size = 4
_nChannel$7 = -32836					; size = 4
_nQuizId$8 = -32836					; size = 4
_nWinnerCount$9 = -32832				; size = 4
_nChannel$10 = -32832					; size = 4
_nAnswer$11 = -32832					; size = 4
_dwItemId$12 = -32832					; size = 4
_nQuizCount$13 = -32828					; size = 4
_idPlayer$14 = -32828					; size = 4
_nSelect$15 = -32828					; size = 4
_idPlayer$16 = -32828					; size = 4
_ar$ = -32824						; size = 16404
_ar$17 = -16420						; size = 16404
_ar$18 = -16420						; size = 16404
_ar$19 = -16420						; size = 16404
_ar$20 = -16420						; size = 16404
_ar$21 = -16420						; size = 16404
__$ArrayPad$ = -16					; size = 4
__$EHRec$ = -12						; size = 12
_pov$ = 8						; size = 4
_dwCompletionKey$ = 12					; size = 4
?Handler@CQuizDBCtrl@@UAEXPAUtagDB_OVERLAPPED_PLUS@@K@Z PROC ; CQuizDBCtrl::Handler, COMDAT
; _this$ = ecx

; 32   : {

  00000	55		 push	 ebp
  00001	8b ec		 mov	 ebp, esp
  00003	6a ff		 push	 -1
  00005	68 00 00 00 00	 push	 __ehhandler$?Handler@CQuizDBCtrl@@UAEXPAUtagDB_OVERLAPPED_PLUS@@K@Z
  0000a	64 a1 00 00 00
	00		 mov	 eax, DWORD PTR fs:0
  00010	50		 push	 eax
  00011	b8 40 80 00 00	 mov	 eax, 32832		; 00008040H
  00016	e8 00 00 00 00	 call	 __chkstk
  0001b	a1 00 00 00 00	 mov	 eax, DWORD PTR ___security_cookie
  00020	33 c5		 xor	 eax, ebp
  00022	89 45 f0	 mov	 DWORD PTR __$ArrayPad$[ebp], eax
  00025	53		 push	 ebx
  00026	56		 push	 esi
  00027	57		 push	 edi
  00028	50		 push	 eax
  00029	8d 45 f4	 lea	 eax, DWORD PTR __$EHRec$[ebp]
  0002c	64 a3 00 00 00
	00		 mov	 DWORD PTR fs:0, eax
  00032	8b d9		 mov	 ebx, ecx
  00034	8b 75 08	 mov	 esi, DWORD PTR _pov$[ebp]

; 33   : 	CAr ar( pov->lpBuf, pov->uBufSize );

  00037	8d 8d c8 7f ff
	ff		 lea	 ecx, DWORD PTR _ar$[ebp]
  0003d	8b 7d 0c	 mov	 edi, DWORD PTR _dwCompletionKey$[ebp]
  00040	ff 76 1c	 push	 DWORD PTR [esi+28]
  00043	ff 76 18	 push	 DWORD PTR [esi+24]
  00046	e8 00 00 00 00	 call	 ??0CAr@@QAE@PAXI@Z	; CAr::CAr

; 34   : 	
; 35   : 	switch( pov->nQueryMode )

  0004b	8b 46 14	 mov	 eax, DWORD PTR [esi+20]
  0004e	c7 45 fc 00 00
	00 00		 mov	 DWORD PTR __$EHRec$[ebp+8], 0
  00055	83 f8 05	 cmp	 eax, 5
  00058	0f 87 ef 02 00
	00		 ja	 $LN20@Handler
  0005e	ff 24 85 00 00
	00 00		 jmp	 DWORD PTR $LN34@Handler[eax*4]
$LN4@Handler:

; 36   : 	{
; 37   : 	case QUERY_QUIZ_OPEN:
; 38   : 		{
; 39   : 			CAr ar( pov->lpBuf, pov->uBufSize );

  00065	ff 76 1c	 push	 DWORD PTR [esi+28]
  00068	8d 8d dc bf ff
	ff		 lea	 ecx, DWORD PTR _ar$17[ebp]
  0006e	ff 76 18	 push	 DWORD PTR [esi+24]
  00071	e8 00 00 00 00	 call	 ??0CAr@@QAE@PAXI@Z	; CAr::CAr

; 40   : 			int nType;
; 41   : 			ar >> nType;

  00076	8d 85 bc 7f ff
	ff		 lea	 eax, DWORD PTR _nType$6[ebp]
  0007c	c6 45 fc 01	 mov	 BYTE PTR __$EHRec$[ebp+8], 1
  00080	50		 push	 eax
  00081	8d 8d dc bf ff
	ff		 lea	 ecx, DWORD PTR _ar$17[ebp]
  00087	e8 00 00 00 00	 call	 ??$?5H@CAr@@QAEAAV0@AAH@Z ; CAr::operator>><int>

; 42   : 			if( nType == CQuiz::GetInstance()->GetType() )

  0008c	e8 00 00 00 00	 call	 ?GetInstance@CQuiz@@SAPAV1@XZ ; CQuiz::GetInstance
  00091	8b 8d bc 7f ff
	ff		 mov	 ecx, DWORD PTR _nType$6[ebp]
  00097	3b 08		 cmp	 ecx, DWORD PTR [eax]
  00099	75 1c		 jne	 SHORT $LN7@Handler

; 43   : 			{
; 44   : 				if( CQuiz::GetInstance()->IsAutoMode() )

  0009b	e8 00 00 00 00	 call	 ?GetInstance@CQuiz@@SAPAV1@XZ ; CQuiz::GetInstance
  000a0	83 78 04 00	 cmp	 DWORD PTR [eax+4], 0
  000a4	74 04		 je	 SHORT $LN6@Handler

; 45   : 					CDPTrans::GetInstance()->SendQuizEventOpen( DPID_ALLPLAYERS );

  000a6	6a 00		 push	 0
  000a8	eb 01		 jmp	 SHORT $LN36@Handler
$LN6@Handler:

; 46   : 				else
; 47   : 					CDPTrans::GetInstance()->SendQuizEventOpen( dwCompletionKey );

  000aa	57		 push	 edi
$LN36@Handler:

; 48   : 			}
; 49   : 		}

  000ab	e8 00 00 00 00	 call	 ?GetInstance@CDPTrans@@SAPAV1@XZ ; CDPTrans::GetInstance
  000b0	8b c8		 mov	 ecx, eax
  000b2	e8 00 00 00 00	 call	 ?SendQuizEventOpen@CDPTrans@@QAEXK@Z ; CDPTrans::SendQuizEventOpen
$LN7@Handler:
  000b7	8d 8d dc bf ff
	ff		 lea	 ecx, DWORD PTR _ar$17[ebp]
  000bd	e8 00 00 00 00	 call	 ??1CAr@@QAE@XZ		; CAr::~CAr

; 50   : 		break;

  000c2	e9 86 02 00 00	 jmp	 $LN20@Handler
$LN8@Handler:

; 51   : 
; 52   : 	case QUERY_QUIZ_STATE:
; 53   : 		{
; 54   : 			CAr ar( pov->lpBuf, pov->uBufSize );

  000c7	ff 76 1c	 push	 DWORD PTR [esi+28]
  000ca	8d 8d dc bf ff
	ff		 lea	 ecx, DWORD PTR _ar$18[ebp]
  000d0	ff 76 18	 push	 DWORD PTR [esi+24]
  000d3	e8 00 00 00 00	 call	 ??0CAr@@QAE@PAXI@Z	; CAr::CAr

; 55   : 			int nState, nChannel, nWinnerCount, nQuizCount;
; 56   : 			ar >> nState >> nChannel >> nWinnerCount >> nQuizCount;

  000d8	8d 85 c4 7f ff
	ff		 lea	 eax, DWORD PTR _nQuizCount$13[ebp]
  000de	c6 45 fc 02	 mov	 BYTE PTR __$EHRec$[ebp+8], 2
  000e2	50		 push	 eax
  000e3	8d 85 c0 7f ff
	ff		 lea	 eax, DWORD PTR _nWinnerCount$9[ebp]
  000e9	50		 push	 eax
  000ea	8d 85 bc 7f ff
	ff		 lea	 eax, DWORD PTR _nChannel$7[ebp]
  000f0	50		 push	 eax
  000f1	8d 85 b8 7f ff
	ff		 lea	 eax, DWORD PTR _nState$4[ebp]
  000f7	50		 push	 eax
  000f8	8d 8d dc bf ff
	ff		 lea	 ecx, DWORD PTR _ar$18[ebp]
  000fe	e8 00 00 00 00	 call	 ??$?5H@CAr@@QAEAAV0@AAH@Z ; CAr::operator>><int>
  00103	8b c8		 mov	 ecx, eax
  00105	e8 00 00 00 00	 call	 ??$?5H@CAr@@QAEAAV0@AAH@Z ; CAr::operator>><int>
  0010a	8b c8		 mov	 ecx, eax
  0010c	e8 00 00 00 00	 call	 ??$?5H@CAr@@QAEAAV0@AAH@Z ; CAr::operator>><int>
  00111	8b c8		 mov	 ecx, eax
  00113	e8 00 00 00 00	 call	 ??$?5H@CAr@@QAEAAV0@AAH@Z ; CAr::operator>><int>

; 57   : 			if( nState == CQuiz::QE_OPEN || nState == CQuiz::QE_WATCHINGZONE_OPEN )

  00118	8b b5 b8 7f ff
	ff		 mov	 esi, DWORD PTR _nState$4[ebp]
  0011e	83 fe 01	 cmp	 esi, 1
  00121	74 5a		 je	 SHORT $LN11@Handler
  00123	83 fe 03	 cmp	 esi, 3
  00126	74 55		 je	 SHORT $LN11@Handler

; 65   : 			}
; 66   : 			else if( nState == CQuiz::QE_CLOSE || nState == CQuiz::QE_WINNER )

  00128	85 f6		 test	 esi, esi
  0012a	74 1e		 je	 SHORT $LN15@Handler
  0012c	83 fe 07	 cmp	 esi, 7
  0012f	74 19		 je	 SHORT $LN15@Handler

; 70   : 			}
; 71   : 			else
; 72   : 				SetState( dwCompletionKey, nState );

  00131	56		 push	 esi
  00132	57		 push	 edi
  00133	8b cb		 mov	 ecx, ebx
  00135	e8 00 00 00 00	 call	 ?SetState@CQuizDBCtrl@@AAEXKH@Z ; CQuizDBCtrl::SetState

; 73   : 		}

  0013a	8d 8d dc bf ff
	ff		 lea	 ecx, DWORD PTR _ar$18[ebp]
  00140	e8 00 00 00 00	 call	 ??1CAr@@QAE@XZ		; CAr::~CAr

; 74   : 		break;

  00145	e9 03 02 00 00	 jmp	 $LN20@Handler
$LN15@Handler:

; 67   : 			{
; 68   : 				UpdateQuizEvent( dwCompletionKey, nChannel, nWinnerCount, nQuizCount );

  0014a	ff b5 c4 7f ff
	ff		 push	 DWORD PTR _nQuizCount$13[ebp]
  00150	8b cb		 mov	 ecx, ebx
  00152	ff b5 c0 7f ff
	ff		 push	 DWORD PTR _nWinnerCount$9[ebp]
  00158	ff b5 bc 7f ff
	ff		 push	 DWORD PTR _nChannel$7[ebp]
  0015e	57		 push	 edi
  0015f	e8 00 00 00 00	 call	 ?UpdateQuizEvent@CQuizDBCtrl@@AAEXKHHH@Z ; CQuizDBCtrl::UpdateQuizEvent

; 69   : 				DeleteWorldData( dwCompletionKey, nState );

  00164	56		 push	 esi
  00165	57		 push	 edi
  00166	8b cb		 mov	 ecx, ebx
  00168	e8 00 00 00 00	 call	 ?DeleteWorldData@CQuizDBCtrl@@AAEXKH@Z ; CQuizDBCtrl::DeleteWorldData

; 73   : 		}

  0016d	8d 8d dc bf ff
	ff		 lea	 ecx, DWORD PTR _ar$18[ebp]
  00173	e8 00 00 00 00	 call	 ??1CAr@@QAE@XZ		; CAr::~CAr

; 74   : 		break;

  00178	e9 d0 01 00 00	 jmp	 $LN20@Handler
$LN11@Handler:

; 58   : 			{
; 59   : 				InitWorldData( dwCompletionKey, nChannel, nState );

  0017d	56		 push	 esi
  0017e	8b b5 bc 7f ff
	ff		 mov	 esi, DWORD PTR _nChannel$7[ebp]
  00184	8b cb		 mov	 ecx, ebx
  00186	56		 push	 esi
  00187	57		 push	 edi
  00188	e8 00 00 00 00	 call	 ?InitWorldData@CQuizDBCtrl@@AAEXKHH@Z ; CQuizDBCtrl::InitWorldData

; 60   : 				SetState( dwCompletionKey, nState );

  0018d	ff b5 b8 7f ff
	ff		 push	 DWORD PTR _nState$4[ebp]
  00193	8b cb		 mov	 ecx, ebx
  00195	57		 push	 edi
  00196	e8 00 00 00 00	 call	 ?SetState@CQuizDBCtrl@@AAEXKH@Z ; CQuizDBCtrl::SetState

; 61   : 				CQuiz::GetInstance()->SetRun( TRUE );

  0019b	e8 00 00 00 00	 call	 ?GetInstance@CQuiz@@SAPAV1@XZ ; CQuiz::GetInstance

; 62   : 				InsertQuizEvent( dwCompletionKey, nChannel );

  001a0	56		 push	 esi
  001a1	57		 push	 edi
  001a2	8b cb		 mov	 ecx, ebx
; File C:\IAGOS\server\v18\Source\Source\_Common\Quiz.h

; 77   : 	void	SetRun( BOOL bRun )		{	m_bRun = bRun;	}

  001a4	c7 40 08 01 00
	00 00		 mov	 DWORD PTR [eax+8], 1
; File C:\IAGOS\server\v18\Source\Source\DatabaseServer\QuizDBCtrl.cpp

; 62   : 				InsertQuizEvent( dwCompletionKey, nChannel );

  001ab	e8 00 00 00 00	 call	 ?InsertQuizEvent@CQuizDBCtrl@@AAEXKH@Z ; CQuizDBCtrl::InsertQuizEvent

; 63   : 				if( nState == CQuiz::QE_OPEN )

  001b0	83 bd b8 7f ff
	ff 01		 cmp	 DWORD PTR _nState$4[ebp], 1
  001b7	75 08		 jne	 SHORT $LN12@Handler

; 64   : 					LoadQuizList( dwCompletionKey );

  001b9	57		 push	 edi
  001ba	8b cb		 mov	 ecx, ebx
  001bc	e8 00 00 00 00	 call	 ?LoadQuizList@CQuizDBCtrl@@AAEXK@Z ; CQuizDBCtrl::LoadQuizList
$LN12@Handler:

; 73   : 		}

  001c1	8d 8d dc bf ff
	ff		 lea	 ecx, DWORD PTR _ar$18[ebp]
  001c7	e8 00 00 00 00	 call	 ??1CAr@@QAE@XZ		; CAr::~CAr

; 74   : 		break;

  001cc	e9 7c 01 00 00	 jmp	 $LN20@Handler
$LN16@Handler:

; 75   : 		
; 76   : 	case QUERY_QUIZ_ENTRANCE:
; 77   : 		{
; 78   : 			CAr ar( pov->lpBuf, pov->uBufSize );

  001d1	ff 76 1c	 push	 DWORD PTR [esi+28]
  001d4	8d 8d dc bf ff
	ff		 lea	 ecx, DWORD PTR _ar$19[ebp]
  001da	ff 76 18	 push	 DWORD PTR [esi+24]
  001dd	e8 00 00 00 00	 call	 ??0CAr@@QAE@PAXI@Z	; CAr::CAr

; 79   : 			u_long idPlayer;
; 80   : 			int nChannel;
; 81   : 			ar >> idPlayer >> nChannel;

  001e2	8d 85 c0 7f ff
	ff		 lea	 eax, DWORD PTR _nChannel$10[ebp]
  001e8	c6 45 fc 03	 mov	 BYTE PTR __$EHRec$[ebp+8], 3
  001ec	50		 push	 eax
  001ed	8d 85 c4 7f ff
	ff		 lea	 eax, DWORD PTR _idPlayer$14[ebp]
  001f3	50		 push	 eax
  001f4	8d 8d dc bf ff
	ff		 lea	 ecx, DWORD PTR _ar$19[ebp]
  001fa	e8 00 00 00 00	 call	 ??$?5K@CAr@@QAEAAV0@AAK@Z ; CAr::operator>><unsigned long>
  001ff	8b c8		 mov	 ecx, eax
  00201	e8 00 00 00 00	 call	 ??$?5H@CAr@@QAEAAV0@AAH@Z ; CAr::operator>><int>

; 82   : 			EntranceQuizEvent( dwCompletionKey, idPlayer, nChannel );

  00206	ff b5 c0 7f ff
	ff		 push	 DWORD PTR _nChannel$10[ebp]
  0020c	8b cb		 mov	 ecx, ebx
  0020e	ff b5 c4 7f ff
	ff		 push	 DWORD PTR _idPlayer$14[ebp]
  00214	57		 push	 edi
  00215	e8 00 00 00 00	 call	 ?EntranceQuizEvent@CQuizDBCtrl@@AAEXKKH@Z ; CQuizDBCtrl::EntranceQuizEvent

; 83   : 		}

  0021a	8d 8d dc bf ff
	ff		 lea	 ecx, DWORD PTR _ar$19[ebp]
  00220	e8 00 00 00 00	 call	 ??1CAr@@QAE@XZ		; CAr::~CAr

; 84   : 		break;

  00225	e9 23 01 00 00	 jmp	 $LN20@Handler
$LN17@Handler:

; 85   : 
; 86   : 	case QUERY_QUIZ_SELECT:
; 87   : 		{
; 88   : 			CAr ar( pov->lpBuf, pov->uBufSize );

  0022a	ff 76 1c	 push	 DWORD PTR [esi+28]
  0022d	8d 8d dc bf ff
	ff		 lea	 ecx, DWORD PTR _ar$20[ebp]
  00233	ff 76 18	 push	 DWORD PTR [esi+24]
  00236	e8 00 00 00 00	 call	 ??0CAr@@QAE@PAXI@Z	; CAr::CAr

; 89   : 			u_long idPlayer;
; 90   : 			int nChannel, nQuizId, nSelect, nAnswer;
; 91   : 			ar >> idPlayer >> nChannel >> nQuizId >> nSelect >> nAnswer;

  0023b	8d 85 c0 7f ff
	ff		 lea	 eax, DWORD PTR _nAnswer$11[ebp]
  00241	c6 45 fc 04	 mov	 BYTE PTR __$EHRec$[ebp+8], 4
  00245	50		 push	 eax
  00246	8d 85 c4 7f ff
	ff		 lea	 eax, DWORD PTR _nSelect$15[ebp]
  0024c	50		 push	 eax
  0024d	8d 85 bc 7f ff
	ff		 lea	 eax, DWORD PTR _nQuizId$8[ebp]
  00253	50		 push	 eax
  00254	8d 85 b8 7f ff
	ff		 lea	 eax, DWORD PTR _nChannel$5[ebp]
  0025a	50		 push	 eax
  0025b	8d 85 b4 7f ff
	ff		 lea	 eax, DWORD PTR _idPlayer$2[ebp]
  00261	50		 push	 eax
  00262	8d 8d dc bf ff
	ff		 lea	 ecx, DWORD PTR _ar$20[ebp]
  00268	e8 00 00 00 00	 call	 ??$?5K@CAr@@QAEAAV0@AAK@Z ; CAr::operator>><unsigned long>
  0026d	8b c8		 mov	 ecx, eax
  0026f	e8 00 00 00 00	 call	 ??$?5H@CAr@@QAEAAV0@AAH@Z ; CAr::operator>><int>
  00274	8b c8		 mov	 ecx, eax
  00276	e8 00 00 00 00	 call	 ??$?5H@CAr@@QAEAAV0@AAH@Z ; CAr::operator>><int>
  0027b	8b c8		 mov	 ecx, eax
  0027d	e8 00 00 00 00	 call	 ??$?5H@CAr@@QAEAAV0@AAH@Z ; CAr::operator>><int>
  00282	8b c8		 mov	 ecx, eax
  00284	e8 00 00 00 00	 call	 ??$?5H@CAr@@QAEAAV0@AAH@Z ; CAr::operator>><int>

; 92   : 			SelectQuizExample( dwCompletionKey, idPlayer, nChannel, nQuizId, nSelect, nAnswer );

  00289	ff b5 c0 7f ff
	ff		 push	 DWORD PTR _nAnswer$11[ebp]
  0028f	8b cb		 mov	 ecx, ebx
  00291	ff b5 c4 7f ff
	ff		 push	 DWORD PTR _nSelect$15[ebp]
  00297	ff b5 bc 7f ff
	ff		 push	 DWORD PTR _nQuizId$8[ebp]
  0029d	ff b5 b8 7f ff
	ff		 push	 DWORD PTR _nChannel$5[ebp]
  002a3	ff b5 b4 7f ff
	ff		 push	 DWORD PTR _idPlayer$2[ebp]
  002a9	57		 push	 edi
  002aa	e8 00 00 00 00	 call	 ?SelectQuizExample@CQuizDBCtrl@@AAEXKKHHHH@Z ; CQuizDBCtrl::SelectQuizExample

; 93   : 		}

  002af	8d 8d dc bf ff
	ff		 lea	 ecx, DWORD PTR _ar$20[ebp]
  002b5	e8 00 00 00 00	 call	 ??1CAr@@QAE@XZ		; CAr::~CAr

; 94   : 		break;

  002ba	e9 8e 00 00 00	 jmp	 $LN20@Handler
$LN18@Handler:

; 95   : 		
; 96   : 	case QUERY_QUIZ_POST_PRIZE:
; 97   : 		{
; 98   : 			CAr ar( pov->lpBuf, pov->uBufSize );

  002bf	ff 76 1c	 push	 DWORD PTR [esi+28]
  002c2	8d 8d dc bf ff
	ff		 lea	 ecx, DWORD PTR _ar$21[ebp]
  002c8	ff 76 18	 push	 DWORD PTR [esi+24]
  002cb	e8 00 00 00 00	 call	 ??0CAr@@QAE@PAXI@Z	; CAr::CAr

; 99   : 			u_long idPlayer;
; 100  : 			DWORD dwItemId;
; 101  : 			int nItemNum;
; 102  : 			ar >> idPlayer >> dwItemId >> nItemNum;

  002d0	8d 85 b4 7f ff
	ff		 lea	 eax, DWORD PTR _nItemNum$3[ebp]
  002d6	c6 45 fc 05	 mov	 BYTE PTR __$EHRec$[ebp+8], 5
  002da	50		 push	 eax
  002db	8d 85 c0 7f ff
	ff		 lea	 eax, DWORD PTR _dwItemId$12[ebp]
  002e1	50		 push	 eax
  002e2	8d 85 c4 7f ff
	ff		 lea	 eax, DWORD PTR _idPlayer$16[ebp]
  002e8	50		 push	 eax
  002e9	8d 8d dc bf ff
	ff		 lea	 ecx, DWORD PTR _ar$21[ebp]
  002ef	e8 00 00 00 00	 call	 ??$?5K@CAr@@QAEAAV0@AAK@Z ; CAr::operator>><unsigned long>
  002f4	8b c8		 mov	 ecx, eax
  002f6	e8 00 00 00 00	 call	 ??$?5K@CAr@@QAEAAV0@AAK@Z ; CAr::operator>><unsigned long>
  002fb	8b c8		 mov	 ecx, eax
  002fd	e8 00 00 00 00	 call	 ??$?5H@CAr@@QAEAAV0@AAH@Z ; CAr::operator>><int>

; 103  : 			PostPrizeItem( idPlayer, dwItemId, nItemNum );

  00302	ff b5 b4 7f ff
	ff		 push	 DWORD PTR _nItemNum$3[ebp]
  00308	8b cb		 mov	 ecx, ebx
  0030a	ff b5 c0 7f ff
	ff		 push	 DWORD PTR _dwItemId$12[ebp]
  00310	ff b5 c4 7f ff
	ff		 push	 DWORD PTR _idPlayer$16[ebp]
  00316	e8 00 00 00 00	 call	 ?PostPrizeItem@CQuizDBCtrl@@AAEXKKH@Z ; CQuizDBCtrl::PostPrizeItem

; 104  : 		}

  0031b	8d 8d dc bf ff
	ff		 lea	 ecx, DWORD PTR _ar$21[ebp]
  00321	e8 00 00 00 00	 call	 ??1CAr@@QAE@XZ		; CAr::~CAr

; 105  : 		break;

  00326	eb 25		 jmp	 SHORT $LN20@Handler
$LN19@Handler:

; 106  : 		
; 107  : 	case QUERY_QUIZ_CLOSE:
; 108  : 		{
; 109  : 			int nChannel = 0;
; 110  : 			WORLDDATA* pWD = GetWorldData( dwCompletionKey );

  00328	57		 push	 edi
  00329	8b cb		 mov	 ecx, ebx
  0032b	e8 00 00 00 00	 call	 ?GetWorldData@CQuizDBCtrl@@AAEPAU_WORLDDATA@1@K@Z ; CQuizDBCtrl::GetWorldData

; 111  : 			if( pWD )

  00330	85 c0		 test	 eax, eax
  00332	74 19		 je	 SHORT $LN20@Handler

; 112  : 			{
; 113  : 				nChannel = pWD->nChannel;
; 114  : 				UpdateQuizEvent( dwCompletionKey, nChannel, 0, 0 );

  00334	6a 00		 push	 0
  00336	6a 00		 push	 0
  00338	ff 70 08	 push	 DWORD PTR [eax+8]
  0033b	8b cb		 mov	 ecx, ebx
  0033d	57		 push	 edi
  0033e	e8 00 00 00 00	 call	 ?UpdateQuizEvent@CQuizDBCtrl@@AAEXKHHH@Z ; CQuizDBCtrl::UpdateQuizEvent

; 115  : 				DeleteWorldData( dwCompletionKey, CQuiz::QE_CLOSE );

  00343	6a 00		 push	 0
  00345	57		 push	 edi
  00346	8b cb		 mov	 ecx, ebx
  00348	e8 00 00 00 00	 call	 ?DeleteWorldData@CQuizDBCtrl@@AAEXKH@Z ; CQuizDBCtrl::DeleteWorldData
$LN20@Handler:

; 116  : 			}
; 117  : 		}
; 118  : 		break;
; 119  : 	}
; 120  : }

  0034d	8d 8d c8 7f ff
	ff		 lea	 ecx, DWORD PTR _ar$[ebp]
  00353	e8 00 00 00 00	 call	 ??1CAr@@QAE@XZ		; CAr::~CAr
  00358	8b 4d f4	 mov	 ecx, DWORD PTR __$EHRec$[ebp]
  0035b	64 89 0d 00 00
	00 00		 mov	 DWORD PTR fs:0, ecx
  00362	59		 pop	 ecx
  00363	5f		 pop	 edi
  00364	5e		 pop	 esi
  00365	5b		 pop	 ebx
  00366	8b 4d f0	 mov	 ecx, DWORD PTR __$ArrayPad$[ebp]
  00369	33 cd		 xor	 ecx, ebp
  0036b	e8 00 00 00 00	 call	 @__security_check_cookie@4
  00370	8b e5		 mov	 esp, ebp
  00372	5d		 pop	 ebp
  00373	c2 08 00	 ret	 8
  00376	66 90		 npad	 2
$LN34@Handler:
  00378	00 00 00 00	 DD	 $LN4@Handler
  0037c	00 00 00 00	 DD	 $LN8@Handler
  00380	00 00 00 00	 DD	 $LN16@Handler
  00384	00 00 00 00	 DD	 $LN17@Handler
  00388	00 00 00 00	 DD	 $LN18@Handler
  0038c	00 00 00 00	 DD	 $LN19@Handler
_TEXT	ENDS
;	COMDAT text$x
text$x	SEGMENT
__unwindfunclet$?Handler@CQuizDBCtrl@@UAEXPAUtagDB_OVERLAPPED_PLUS@@K@Z$0:
  00000	8d 8d c8 7f ff
	ff		 lea	 ecx, DWORD PTR _ar$[ebp]
  00006	e9 00 00 00 00	 jmp	 ??1CAr@@QAE@XZ		; CAr::~CAr
__unwindfunclet$?Handler@CQuizDBCtrl@@UAEXPAUtagDB_OVERLAPPED_PLUS@@K@Z$1:
  0000b	8d 8d dc bf ff
	ff		 lea	 ecx, DWORD PTR _ar$17[ebp]
  00011	e9 00 00 00 00	 jmp	 ??1CAr@@QAE@XZ		; CAr::~CAr
__unwindfunclet$?Handler@CQuizDBCtrl@@UAEXPAUtagDB_OVERLAPPED_PLUS@@K@Z$2:
  00016	8d 8d dc bf ff
	ff		 lea	 ecx, DWORD PTR _ar$18[ebp]
  0001c	e9 00 00 00 00	 jmp	 ??1CAr@@QAE@XZ		; CAr::~CAr
__unwindfunclet$?Handler@CQuizDBCtrl@@UAEXPAUtagDB_OVERLAPPED_PLUS@@K@Z$3:
  00021	8d 8d dc bf ff
	ff		 lea	 ecx, DWORD PTR _ar$19[ebp]
  00027	e9 00 00 00 00	 jmp	 ??1CAr@@QAE@XZ		; CAr::~CAr
__unwindfunclet$?Handler@CQuizDBCtrl@@UAEXPAUtagDB_OVERLAPPED_PLUS@@K@Z$4:
  0002c	8d 8d dc bf ff
	ff		 lea	 ecx, DWORD PTR _ar$20[ebp]
  00032	e9 00 00 00 00	 jmp	 ??1CAr@@QAE@XZ		; CAr::~CAr
__unwindfunclet$?Handler@CQuizDBCtrl@@UAEXPAUtagDB_OVERLAPPED_PLUS@@K@Z$5:
  00037	8d 8d dc bf ff
	ff		 lea	 ecx, DWORD PTR _ar$21[ebp]
  0003d	e9 00 00 00 00	 jmp	 ??1CAr@@QAE@XZ		; CAr::~CAr
  00042	cc		 int	 3
  00043	cc		 int	 3
  00044	cc		 int	 3
  00045	cc		 int	 3
  00046	cc		 int	 3
__ehhandler$?Handler@CQuizDBCtrl@@UAEXPAUtagDB_OVERLAPPED_PLUS@@K@Z:
  00047	90		 npad	 1
  00048	90		 npad	 1
  00049	8b 54 24 08	 mov	 edx, DWORD PTR [esp+8]
  0004d	8d 42 0c	 lea	 eax, DWORD PTR [edx+12]
  00050	8b 8a b0 7f ff
	ff		 mov	 ecx, DWORD PTR [edx-32848]
  00056	33 c8		 xor	 ecx, eax
  00058	e8 00 00 00 00	 call	 @__security_check_cookie@4
  0005d	8b 4a fc	 mov	 ecx, DWORD PTR [edx-4]
  00060	33 c8		 xor	 ecx, eax
  00062	e8 00 00 00 00	 call	 @__security_check_cookie@4
  00067	b8 00 00 00 00	 mov	 eax, OFFSET __ehfuncinfo$?Handler@CQuizDBCtrl@@UAEXPAUtagDB_OVERLAPPED_PLUS@@K@Z
  0006c	e9 00 00 00 00	 jmp	 ___CxxFrameHandler3
text$x	ENDS
?Handler@CQuizDBCtrl@@UAEXPAUtagDB_OVERLAPPED_PLUS@@K@Z ENDP ; CQuizDBCtrl::Handler
; Function compile flags: /Ogtp
; File C:\IAGOS\server\v18\Source\Source\DatabaseServer\QuizDBCtrl.cpp
; File C:\Program Files\Microsoft Visual Studio\2022\Professional\VC\Tools\MSVC\14.44.35207\include\xtree
; File C:\Program Files\Microsoft Visual Studio\2022\Professional\VC\Tools\MSVC\14.44.35207\include\utility
; File C:\Program Files\Microsoft Visual Studio\2022\Professional\VC\Tools\MSVC\14.44.35207\include\xmemory
; File C:\Program Files\Microsoft Visual Studio\2022\Professional\VC\Tools\MSVC\14.44.35207\include\xtree
; File C:\IAGOS\server\v18\Source\Source\DatabaseServer\QuizDBCtrl.cpp
;	COMDAT ??1CQuizDBCtrl@@UAE@XZ
_TEXT	SEGMENT
_this$1$ = -4						; size = 4
??1CQuizDBCtrl@@UAE@XZ PROC				; CQuizDBCtrl::~CQuizDBCtrl, COMDAT
; _this$ = ecx

; 26   : {

  00000	55		 push	 ebp
  00001	8b ec		 mov	 ebp, esp
  00003	51		 push	 ecx
  00004	53		 push	 ebx
  00005	8b c1		 mov	 eax, ecx
  00007	56		 push	 esi
  00008	57		 push	 edi

; 27   : 	m_mapWorldData.clear();

  00009	8d 78 20	 lea	 edi, DWORD PTR [eax+32]
  0000c	89 45 fc	 mov	 DWORD PTR _this$1$[ebp], eax
  0000f	c7 00 00 00 00
	00		 mov	 DWORD PTR [eax], OFFSET ??_7CQuizDBCtrl@@6B@
; File C:\Program Files\Microsoft Visual Studio\2022\Professional\VC\Tools\MSVC\14.44.35207\include\xtree

; 1373 :         auto _Head = _Scary->_Myhead;

  00015	8b 1f		 mov	 ebx, DWORD PTR [edi]

; 1374 :         _Scary->_Erase_tree(_Getal(), _Head->_Parent);

  00017	8b 73 04	 mov	 esi, DWORD PTR [ebx+4]

; 768  :         while (!_Rootnode->_Isnil) { // free subtrees, then node

  0001a	80 7e 0d 00	 cmp	 BYTE PTR [esi+13], 0
  0001e	75 23		 jne	 SHORT $LN54@CQuizDBCtr
$LL11@CQuizDBCtr:

; 769  :             _Erase_tree(_Al, _Rootnode->_Right);

  00020	ff 76 08	 push	 DWORD PTR [esi+8]
  00023	8b cf		 mov	 ecx, edi
  00025	57		 push	 edi
  00026	e8 00 00 00 00	 call	 ??$_Erase_tree@V?$allocator@U?$_Tree_node@U?$pair@$$CBKU_WORLDDATA@CQuizDBCtrl@@@std@@PAX@std@@@std@@@?$_Tree_val@U?$_Tree_simple_types@U?$pair@$$CBKU_WORLDDATA@CQuizDBCtrl@@@std@@@std@@@std@@QAEXAAV?$allocator@U?$_Tree_node@U?$pair@$$CBKU_WORLDDATA@CQuizDBCtrl@@@std@@PAX@std@@@1@PAU?$_Tree_node@U?$pair@$$CBKU_WORLDDATA@CQuizDBCtrl@@@std@@PAX@1@@Z ; std::_Tree_val<std::_Tree_simple_types<std::pair<unsigned long const ,CQuizDBCtrl::_WORLDDATA> > >::_Erase_tree<std::allocator<std::_Tree_node<std::pair<unsigned long const ,CQuizDBCtrl::_WORLDDATA>,void *> > >
; File C:\Program Files\Microsoft Visual Studio\2022\Professional\VC\Tools\MSVC\14.44.35207\include\utility

; 773  :     _Ty _Old_val = static_cast<_Ty&&>(_Val);

  0002b	8b c6		 mov	 eax, esi

; 774  :     _Val         = static_cast<_Other&&>(_New_val);

  0002d	8b 36		 mov	 esi, DWORD PTR [esi]
; File C:\Program Files\Microsoft Visual Studio\2022\Professional\VC\Tools\MSVC\14.44.35207\include\xmemory

; 289  :         ::operator delete(_Ptr, _Bytes);

  0002f	6a 30		 push	 48			; 00000030H
  00031	50		 push	 eax
  00032	e8 00 00 00 00	 call	 ??3@YAXPAXI@Z		; operator delete
  00037	83 c4 08	 add	 esp, 8
; File C:\Program Files\Microsoft Visual Studio\2022\Professional\VC\Tools\MSVC\14.44.35207\include\xtree

; 768  :         while (!_Rootnode->_Isnil) { // free subtrees, then node

  0003a	80 7e 0d 00	 cmp	 BYTE PTR [esi+13], 0
  0003e	74 e0		 je	 SHORT $LL11@CQuizDBCtr
  00040	8b 45 fc	 mov	 eax, DWORD PTR _this$1$[ebp]
$LN54@CQuizDBCtr:

; 1375 :         _Head->_Parent  = _Head;

  00043	89 5b 04	 mov	 DWORD PTR [ebx+4], ebx

; 1376 :         _Head->_Left    = _Head;

  00046	89 1b		 mov	 DWORD PTR [ebx], ebx

; 1377 :         _Head->_Right   = _Head;

  00048	89 5b 08	 mov	 DWORD PTR [ebx+8], ebx

; 1378 :         _Scary->_Mysize = 0;

  0004b	c7 47 04 00 00
	00 00		 mov	 DWORD PTR [edi+4], 0
; File C:\IAGOS\server\v18\Source\Source\DatabaseServer\QuizDBCtrl.cpp

; 28   : 	SAFE_DELETE( m_pQuery );

  00052	8b 70 14	 mov	 esi, DWORD PTR [eax+20]
  00055	85 f6		 test	 esi, esi
  00057	74 21		 je	 SHORT $LN57@CQuizDBCtr
  00059	8b ce		 mov	 ecx, esi
  0005b	e8 00 00 00 00	 call	 ??1CQuery@@QAE@XZ	; CQuery::~CQuery
  00060	68 10 3d 00 00	 push	 15632			; 00003d10H
  00065	56		 push	 esi
  00066	e8 00 00 00 00	 call	 ??3@YAXPAXI@Z		; operator delete
  0006b	8b 75 fc	 mov	 esi, DWORD PTR _this$1$[ebp]
  0006e	83 c4 08	 add	 esp, 8
  00071	c7 46 14 00 00
	00 00		 mov	 DWORD PTR [esi+20], 0
  00078	eb 03		 jmp	 SHORT $LN2@CQuizDBCtr
$LN57@CQuizDBCtr:
  0007a	8b 75 fc	 mov	 esi, DWORD PTR _this$1$[ebp]
$LN2@CQuizDBCtr:
  0007d	8b cf		 mov	 ecx, edi
  0007f	e8 00 00 00 00	 call	 ??1?$_Tree@V?$_Tmap_traits@KU_WORLDDATA@CQuizDBCtrl@@U?$less@K@std@@V?$allocator@U?$pair@$$CBKU_WORLDDATA@CQuizDBCtrl@@@std@@@4@$0A@@std@@@std@@QAE@XZ ; std::_Tree<std::_Tmap_traits<unsigned long,CQuizDBCtrl::_WORLDDATA,std::less<unsigned long>,std::allocator<std::pair<unsigned long const ,CQuizDBCtrl::_WORLDDATA> >,0> >::~_Tree<std::_Tmap_traits<unsigned long,CQuizDBCtrl::_WORLDDATA,std::less<unsigned long>,std::allocator<std::pair<unsigned long const ,CQuizDBCtrl::_WORLDDATA> >,0> >

; 29   : }

  00084	8b ce		 mov	 ecx, esi
  00086	e8 00 00 00 00	 call	 ??1CDbController@@UAE@XZ ; CDbController::~CDbController
  0008b	5f		 pop	 edi
  0008c	5e		 pop	 esi
  0008d	5b		 pop	 ebx
  0008e	8b e5		 mov	 esp, ebp
  00090	5d		 pop	 ebp
  00091	c3		 ret	 0
??1CQuizDBCtrl@@UAE@XZ ENDP				; CQuizDBCtrl::~CQuizDBCtrl
_TEXT	ENDS
; Function compile flags: /Ogtp
; File C:\IAGOS\server\v18\Source\Source\DatabaseServer\QuizDBCtrl.cpp
; File C:\Program Files\Microsoft Visual Studio\2022\Professional\VC\Tools\MSVC\14.44.35207\include\xmemory
; File C:\IAGOS\server\v18\Source\Source\DatabaseServer\QuizDBCtrl.cpp
; File C:\Program Files\Microsoft Visual Studio\2022\Professional\VC\Tools\MSVC\14.44.35207\include\xtree
; File C:\Program Files\Microsoft Visual Studio\2022\Professional\VC\Tools\MSVC\14.44.35207\include\xmemory
; File C:\Program Files\Microsoft Visual Studio\2022\Professional\VC\Tools\MSVC\14.44.35207\include\xtree
; File C:\IAGOS\server\v18\Source\Source\DatabaseServer\QuizDBCtrl.cpp
;	COMDAT ??0CQuizDBCtrl@@QAE@XZ
_TEXT	SEGMENT
_this$ = -20						; size = 4
_this$ = -16						; size = 4
__$EHRec$ = -12						; size = 12
??0CQuizDBCtrl@@QAE@XZ PROC				; CQuizDBCtrl::CQuizDBCtrl, COMDAT
; _this$ = ecx

; 21   : {

  00000	55		 push	 ebp
  00001	8b ec		 mov	 ebp, esp
  00003	6a ff		 push	 -1
  00005	68 00 00 00 00	 push	 __ehhandler$??0CQuizDBCtrl@@QAE@XZ
  0000a	64 a1 00 00 00
	00		 mov	 eax, DWORD PTR fs:0
  00010	50		 push	 eax
  00011	83 ec 08	 sub	 esp, 8
  00014	56		 push	 esi
  00015	57		 push	 edi
  00016	a1 00 00 00 00	 mov	 eax, DWORD PTR ___security_cookie
  0001b	33 c5		 xor	 eax, ebp
  0001d	50		 push	 eax
  0001e	8d 45 f4	 lea	 eax, DWORD PTR __$EHRec$[ebp]
  00021	64 a3 00 00 00
	00		 mov	 DWORD PTR fs:0, eax
  00027	8b f9		 mov	 edi, ecx
  00029	89 7d f0	 mov	 DWORD PTR _this$[ebp], edi
  0002c	e8 00 00 00 00	 call	 ??0CDbController@@QAE@XZ ; CDbController::CDbController
  00031	8d 77 20	 lea	 esi, DWORD PTR [edi+32]
  00034	c7 07 00 00 00
	00		 mov	 DWORD PTR [edi], OFFSET ??_7CQuizDBCtrl@@6B@
  0003a	c7 47 14 00 00
	00 00		 mov	 DWORD PTR [edi+20], 0
  00041	c7 47 18 00 00
	00 00		 mov	 DWORD PTR [edi+24], 0
; File C:\Program Files\Microsoft Visual Studio\2022\Professional\VC\Tools\MSVC\14.44.35207\include\xmemory

; 136  :         return ::operator new(_Bytes);

  00048	6a 30		 push	 48			; 00000030H
; File C:\IAGOS\server\v18\Source\Source\DatabaseServer\QuizDBCtrl.cpp

; 21   : {

  0004a	c7 45 fc 00 00
	00 00		 mov	 DWORD PTR __$EHRec$[ebp+8], 0
  00051	89 75 ec	 mov	 DWORD PTR _this$[ebp], esi
; File C:\Program Files\Microsoft Visual Studio\2022\Professional\VC\Tools\MSVC\14.44.35207\include\xtree

; 450  :     _Tree_val() noexcept : _Myhead(), _Mysize(0) {}

  00054	c7 06 00 00 00
	00		 mov	 DWORD PTR [esi], 0
  0005a	c7 46 04 00 00
	00 00		 mov	 DWORD PTR [esi+4], 0
; File C:\Program Files\Microsoft Visual Studio\2022\Professional\VC\Tools\MSVC\14.44.35207\include\xmemory

; 136  :         return ::operator new(_Bytes);

  00061	e8 00 00 00 00	 call	 ??2@YAPAXI@Z		; operator new
  00066	83 c4 04	 add	 esp, 4
; File C:\Program Files\Microsoft Visual Studio\2022\Professional\VC\Tools\MSVC\14.44.35207\include\xtree

; 346  :         _Construct_in_place(_Pnode->_Left, _Pnode);

  00069	89 00		 mov	 DWORD PTR [eax], eax

; 347  :         _Construct_in_place(_Pnode->_Parent, _Pnode);

  0006b	89 40 04	 mov	 DWORD PTR [eax+4], eax

; 348  :         _Construct_in_place(_Pnode->_Right, _Pnode);

  0006e	89 40 08	 mov	 DWORD PTR [eax+8], eax

; 349  :         _Pnode->_Color = _Black;

  00071	66 c7 40 0c 01
	01		 mov	 WORD PTR [eax+12], 257	; 00000101H

; 1957 :         _Scary->_Myhead = _Node::_Buyheadnode(_Getal());

  00077	89 06		 mov	 DWORD PTR [esi], eax
; File C:\IAGOS\server\v18\Source\Source\DatabaseServer\QuizDBCtrl.cpp

; 23   : }

  00079	8b c7		 mov	 eax, edi
  0007b	8b 4d f4	 mov	 ecx, DWORD PTR __$EHRec$[ebp]
  0007e	64 89 0d 00 00
	00 00		 mov	 DWORD PTR fs:0, ecx
  00085	59		 pop	 ecx
  00086	5f		 pop	 edi
  00087	5e		 pop	 esi
  00088	8b e5		 mov	 esp, ebp
  0008a	5d		 pop	 ebp
  0008b	c3		 ret	 0
_TEXT	ENDS
;	COMDAT text$x
text$x	SEGMENT
__unwindfunclet$??0CQuizDBCtrl@@QAE@XZ$0:
  00000	8b 4d f0	 mov	 ecx, DWORD PTR _this$[ebp]
  00003	e9 00 00 00 00	 jmp	 ??1CDbController@@UAE@XZ ; CDbController::~CDbController
  00008	cc		 int	 3
  00009	cc		 int	 3
  0000a	cc		 int	 3
  0000b	cc		 int	 3
  0000c	cc		 int	 3
__ehhandler$??0CQuizDBCtrl@@QAE@XZ:
  0000d	90		 npad	 1
  0000e	90		 npad	 1
  0000f	8b 54 24 08	 mov	 edx, DWORD PTR [esp+8]
  00013	8d 42 0c	 lea	 eax, DWORD PTR [edx+12]
  00016	8b 4a ec	 mov	 ecx, DWORD PTR [edx-20]
  00019	33 c8		 xor	 ecx, eax
  0001b	e8 00 00 00 00	 call	 @__security_check_cookie@4
  00020	b8 00 00 00 00	 mov	 eax, OFFSET __ehfuncinfo$??0CQuizDBCtrl@@QAE@XZ
  00025	e9 00 00 00 00	 jmp	 ___CxxFrameHandler3
text$x	ENDS
??0CQuizDBCtrl@@QAE@XZ ENDP				; CQuizDBCtrl::CQuizDBCtrl
; Function compile flags: /Ogtp
; File C:\Program Files\Microsoft Visual Studio\2022\Professional\VC\Tools\MSVC\14.44.35207\include\xmemory
;	COMDAT ??$_Allocate_manually_vector_aligned@U_Default_allocate_traits@std@@@std@@YAPAXI@Z
_TEXT	SEGMENT
__Bytes$ = 8						; size = 4
??$_Allocate_manually_vector_aligned@U_Default_allocate_traits@std@@@std@@YAPAXI@Z PROC ; std::_Allocate_manually_vector_aligned<std::_Default_allocate_traits>, COMDAT

; 182  : __declspec(allocator) void* _Allocate_manually_vector_aligned(const size_t _Bytes) {

  00000	55		 push	 ebp
  00001	8b ec		 mov	 ebp, esp

; 183  :     // allocate _Bytes manually aligned to at least _Big_allocation_alignment
; 184  :     const size_t _Block_size = _Non_user_size + _Bytes;

  00003	8b 45 08	 mov	 eax, DWORD PTR __Bytes$[ebp]
  00006	8d 48 23	 lea	 ecx, DWORD PTR [eax+35]

; 185  :     if (_Block_size <= _Bytes) {

  00009	3b c8		 cmp	 ecx, eax
  0000b	0f 86 00 00 00
	00		 jbe	 ?_Throw_bad_array_new_length@std@@YAXXZ ; std::_Throw_bad_array_new_length

; 136  :         return ::operator new(_Bytes);

  00011	51		 push	 ecx
  00012	e8 00 00 00 00	 call	 ??2@YAPAXI@Z		; operator new

; 186  :         _Throw_bad_array_new_length(); // add overflow
; 187  :     }
; 188  : 
; 189  :     const uintptr_t _Ptr_container = reinterpret_cast<uintptr_t>(_Traits::_Allocate(_Block_size));

  00017	8b c8		 mov	 ecx, eax

; 136  :         return ::operator new(_Bytes);

  00019	83 c4 04	 add	 esp, 4

; 190  :     _STL_VERIFY(_Ptr_container != 0, "invalid argument"); // validate even in release since we're doing p[-1]

  0001c	85 c9		 test	 ecx, ecx
  0001e	74 0b		 je	 SHORT $LN9@Allocate_m

; 191  :     void* const _Ptr = reinterpret_cast<void*>((_Ptr_container + _Non_user_size) & ~(_Big_allocation_alignment - 1));

  00020	8d 41 23	 lea	 eax, DWORD PTR [ecx+35]
  00023	83 e0 e0	 and	 eax, -32		; ffffffe0H

; 192  :     static_cast<uintptr_t*>(_Ptr)[-1] = _Ptr_container;

  00026	89 48 fc	 mov	 DWORD PTR [eax-4], ecx

; 193  : 
; 194  : #ifdef _DEBUG
; 195  :     static_cast<uintptr_t*>(_Ptr)[-2] = _Big_allocation_sentinel;
; 196  : #endif // defined(_DEBUG)
; 197  :     return _Ptr;
; 198  : }

  00029	5d		 pop	 ebp
  0002a	c3		 ret	 0
$LN9@Allocate_m:

; 190  :     _STL_VERIFY(_Ptr_container != 0, "invalid argument"); // validate even in release since we're doing p[-1]

  0002b	6a 00		 push	 0
  0002d	6a 00		 push	 0
  0002f	6a 00		 push	 0
  00031	6a 00		 push	 0
  00033	6a 00		 push	 0
  00035	e8 00 00 00 00	 call	 __invoke_watson
$LN7@Allocate_m:
  0003a	cc		 int	 3
??$_Allocate_manually_vector_aligned@U_Default_allocate_traits@std@@@std@@YAPAXI@Z ENDP ; std::_Allocate_manually_vector_aligned<std::_Default_allocate_traits>
_TEXT	ENDS
; Function compile flags: /Ogtp
; File C:\Program Files\Microsoft Visual Studio\2022\Professional\VC\Tools\MSVC\14.44.35207\include\xtree
;	COMDAT ?_Throw_tree_length_error@std@@YAXXZ
_TEXT	SEGMENT
?_Throw_tree_length_error@std@@YAXXZ PROC		; std::_Throw_tree_length_error, COMDAT

; 417  :     _Xlength_error("map/set too long");

  00000	68 00 00 00 00	 push	 OFFSET ??_C@_0BB@GCADKGJO@map?1set?5too?5long@
  00005	e8 00 00 00 00	 call	 ?_Xlength_error@std@@YAXPBD@Z ; std::_Xlength_error
$LN3@Throw_tree:
  0000a	cc		 int	 3
?_Throw_tree_length_error@std@@YAXXZ ENDP		; std::_Throw_tree_length_error
_TEXT	ENDS
; Function compile flags: /Ogtp
; File C:\Program Files\Microsoft Visual Studio\2022\Professional\VC\Tools\MSVC\14.44.35207\include\xmemory
;	COMDAT ?_Throw_bad_array_new_length@std@@YAXXZ
_TEXT	SEGMENT
$T1 = -12						; size = 12
?_Throw_bad_array_new_length@std@@YAXXZ PROC		; std::_Throw_bad_array_new_length, COMDAT

; 107  : [[noreturn]] inline void _Throw_bad_array_new_length() {

  00000	55		 push	 ebp
  00001	8b ec		 mov	 ebp, esp
  00003	83 ec 0c	 sub	 esp, 12			; 0000000cH

; 108  :     _THROW(bad_array_new_length{});

  00006	8d 4d f4	 lea	 ecx, DWORD PTR $T1[ebp]
  00009	e8 00 00 00 00	 call	 ??0bad_array_new_length@std@@QAE@XZ ; std::bad_array_new_length::bad_array_new_length
  0000e	68 00 00 00 00	 push	 OFFSET __TI3?AVbad_array_new_length@std@@
  00013	8d 45 f4	 lea	 eax, DWORD PTR $T1[ebp]
  00016	50		 push	 eax
  00017	e8 00 00 00 00	 call	 __CxxThrowException@8
$LN3@Throw_bad_:
  0001c	cc		 int	 3
?_Throw_bad_array_new_length@std@@YAXXZ ENDP		; std::_Throw_bad_array_new_length
_TEXT	ENDS
; Function compile flags: /Ogtp
; File C:\Program Files\Microsoft Visual Studio\2022\Professional\VC\Tools\MSVC\14.44.35207\include\vcruntime_exception.h
;	COMDAT ??_Gbad_array_new_length@std@@UAEPAXI@Z
_TEXT	SEGMENT
___flags$ = 8						; size = 4
??_Gbad_array_new_length@std@@UAEPAXI@Z PROC		; std::bad_array_new_length::`scalar deleting destructor', COMDAT
; _this$ = ecx
  00000	55		 push	 ebp
  00001	8b ec		 mov	 ebp, esp

; 90   :     {

  00003	56		 push	 esi
  00004	8b f1		 mov	 esi, ecx

; 91   :         __std_exception_destroy(&_Data);

  00006	8d 46 04	 lea	 eax, DWORD PTR [esi+4]
  00009	c7 06 00 00 00
	00		 mov	 DWORD PTR [esi], OFFSET ??_7exception@std@@6B@
  0000f	50		 push	 eax
  00010	e8 00 00 00 00	 call	 ___std_exception_destroy
  00015	83 c4 04	 add	 esp, 4
  00018	f6 45 08 01	 test	 BYTE PTR ___flags$[ebp], 1
  0001c	74 0b		 je	 SHORT $LN18@scalar
  0001e	6a 0c		 push	 12			; 0000000cH
  00020	56		 push	 esi
  00021	e8 00 00 00 00	 call	 ??3@YAXPAXI@Z		; operator delete
  00026	83 c4 08	 add	 esp, 8
$LN18@scalar:
  00029	8b c6		 mov	 eax, esi
  0002b	5e		 pop	 esi
  0002c	5d		 pop	 ebp
  0002d	c2 04 00	 ret	 4
??_Gbad_array_new_length@std@@UAEPAXI@Z ENDP		; std::bad_array_new_length::`scalar deleting destructor'
_TEXT	ENDS
; Function compile flags: /Ogtp
; File C:\Program Files\Microsoft Visual Studio\2022\Professional\VC\Tools\MSVC\14.44.35207\include\vcruntime_exception.h
;	COMDAT ??0bad_array_new_length@std@@QAE@ABV01@@Z
_TEXT	SEGMENT
___that$ = 8						; size = 4
??0bad_array_new_length@std@@QAE@ABV01@@Z PROC		; std::bad_array_new_length::bad_array_new_length, COMDAT
; _this$ = ecx
  00000	55		 push	 ebp
  00001	8b ec		 mov	 ebp, esp

; 73   :     {

  00003	56		 push	 esi
  00004	8b f1		 mov	 esi, ecx
  00006	0f 57 c0	 xorps	 xmm0, xmm0

; 72   :         : _Data()

  00009	8d 46 04	 lea	 eax, DWORD PTR [esi+4]

; 74   :         __std_exception_copy(&_Other._Data, &_Data);

  0000c	50		 push	 eax
  0000d	c7 06 00 00 00
	00		 mov	 DWORD PTR [esi], OFFSET ??_7exception@std@@6B@
  00013	66 0f d6 00	 movq	 QWORD PTR [eax], xmm0
  00017	8b 45 08	 mov	 eax, DWORD PTR ___that$[ebp]
  0001a	83 c0 04	 add	 eax, 4
  0001d	50		 push	 eax
  0001e	e8 00 00 00 00	 call	 ___std_exception_copy
  00023	83 c4 08	 add	 esp, 8
  00026	c7 06 00 00 00
	00		 mov	 DWORD PTR [esi], OFFSET ??_7bad_array_new_length@std@@6B@
  0002c	8b c6		 mov	 eax, esi
  0002e	5e		 pop	 esi
  0002f	5d		 pop	 ebp
  00030	c2 04 00	 ret	 4
??0bad_array_new_length@std@@QAE@ABV01@@Z ENDP		; std::bad_array_new_length::bad_array_new_length
_TEXT	ENDS
; Function compile flags: /Ogtp
; File C:\Program Files\Microsoft Visual Studio\2022\Professional\VC\Tools\MSVC\14.44.35207\include\vcruntime_exception.h
;	COMDAT ??1bad_array_new_length@std@@UAE@XZ
_TEXT	SEGMENT
??1bad_array_new_length@std@@UAE@XZ PROC		; std::bad_array_new_length::~bad_array_new_length, COMDAT
; _this$ = ecx

; 91   :         __std_exception_destroy(&_Data);

  00000	8d 41 04	 lea	 eax, DWORD PTR [ecx+4]
  00003	c7 01 00 00 00
	00		 mov	 DWORD PTR [ecx], OFFSET ??_7exception@std@@6B@
  00009	50		 push	 eax
  0000a	e8 00 00 00 00	 call	 ___std_exception_destroy
  0000f	59		 pop	 ecx
  00010	c3		 ret	 0
??1bad_array_new_length@std@@UAE@XZ ENDP		; std::bad_array_new_length::~bad_array_new_length
_TEXT	ENDS
; Function compile flags: /Ogtp
; File C:\Program Files\Microsoft Visual Studio\2022\Professional\VC\Tools\MSVC\14.44.35207\include\vcruntime_exception.h
;	COMDAT ??0bad_array_new_length@std@@QAE@XZ
_TEXT	SEGMENT
??0bad_array_new_length@std@@QAE@XZ PROC		; std::bad_array_new_length::bad_array_new_length, COMDAT
; _this$ = ecx

; 144  :     {

  00000	0f 57 c0	 xorps	 xmm0, xmm0

; 145  :     }

  00003	8b c1		 mov	 eax, ecx

; 66   :         : _Data()

  00005	66 0f d6 41 04	 movq	 QWORD PTR [ecx+4], xmm0

; 67   :     {
; 68   :         _Data._What = _Message;

  0000a	c7 41 04 00 00
	00 00		 mov	 DWORD PTR [ecx+4], OFFSET ??_C@_0BF@KINCDENJ@bad?5array?5new?5length@

; 144  :     {

  00011	c7 01 00 00 00
	00		 mov	 DWORD PTR [ecx], OFFSET ??_7bad_array_new_length@std@@6B@

; 145  :     }

  00017	c3		 ret	 0
??0bad_array_new_length@std@@QAE@XZ ENDP		; std::bad_array_new_length::bad_array_new_length
_TEXT	ENDS
; Function compile flags: /Ogtp
; File C:\Program Files\Microsoft Visual Studio\2022\Professional\VC\Tools\MSVC\14.44.35207\include\vcruntime_exception.h
;	COMDAT ??_Gbad_alloc@std@@UAEPAXI@Z
_TEXT	SEGMENT
___flags$ = 8						; size = 4
??_Gbad_alloc@std@@UAEPAXI@Z PROC			; std::bad_alloc::`scalar deleting destructor', COMDAT
; _this$ = ecx
  00000	55		 push	 ebp
  00001	8b ec		 mov	 ebp, esp

; 90   :     {

  00003	56		 push	 esi
  00004	8b f1		 mov	 esi, ecx

; 91   :         __std_exception_destroy(&_Data);

  00006	8d 46 04	 lea	 eax, DWORD PTR [esi+4]
  00009	c7 06 00 00 00
	00		 mov	 DWORD PTR [esi], OFFSET ??_7exception@std@@6B@
  0000f	50		 push	 eax
  00010	e8 00 00 00 00	 call	 ___std_exception_destroy
  00015	83 c4 04	 add	 esp, 4
  00018	f6 45 08 01	 test	 BYTE PTR ___flags$[ebp], 1
  0001c	74 0b		 je	 SHORT $LN13@scalar
  0001e	6a 0c		 push	 12			; 0000000cH
  00020	56		 push	 esi
  00021	e8 00 00 00 00	 call	 ??3@YAXPAXI@Z		; operator delete
  00026	83 c4 08	 add	 esp, 8
$LN13@scalar:
  00029	8b c6		 mov	 eax, esi
  0002b	5e		 pop	 esi
  0002c	5d		 pop	 ebp
  0002d	c2 04 00	 ret	 4
??_Gbad_alloc@std@@UAEPAXI@Z ENDP			; std::bad_alloc::`scalar deleting destructor'
_TEXT	ENDS
; Function compile flags: /Ogtp
; File C:\Program Files\Microsoft Visual Studio\2022\Professional\VC\Tools\MSVC\14.44.35207\include\vcruntime_exception.h
;	COMDAT ??0bad_alloc@std@@QAE@ABV01@@Z
_TEXT	SEGMENT
___that$ = 8						; size = 4
??0bad_alloc@std@@QAE@ABV01@@Z PROC			; std::bad_alloc::bad_alloc, COMDAT
; _this$ = ecx
  00000	55		 push	 ebp
  00001	8b ec		 mov	 ebp, esp

; 73   :     {

  00003	56		 push	 esi
  00004	8b f1		 mov	 esi, ecx
  00006	0f 57 c0	 xorps	 xmm0, xmm0

; 72   :         : _Data()

  00009	8d 46 04	 lea	 eax, DWORD PTR [esi+4]

; 74   :         __std_exception_copy(&_Other._Data, &_Data);

  0000c	50		 push	 eax
  0000d	c7 06 00 00 00
	00		 mov	 DWORD PTR [esi], OFFSET ??_7exception@std@@6B@
  00013	66 0f d6 00	 movq	 QWORD PTR [eax], xmm0
  00017	8b 45 08	 mov	 eax, DWORD PTR ___that$[ebp]
  0001a	83 c0 04	 add	 eax, 4
  0001d	50		 push	 eax
  0001e	e8 00 00 00 00	 call	 ___std_exception_copy
  00023	83 c4 08	 add	 esp, 8
  00026	c7 06 00 00 00
	00		 mov	 DWORD PTR [esi], OFFSET ??_7bad_alloc@std@@6B@
  0002c	8b c6		 mov	 eax, esi
  0002e	5e		 pop	 esi
  0002f	5d		 pop	 ebp
  00030	c2 04 00	 ret	 4
??0bad_alloc@std@@QAE@ABV01@@Z ENDP			; std::bad_alloc::bad_alloc
_TEXT	ENDS
; Function compile flags: /Ogtp
; File C:\Program Files\Microsoft Visual Studio\2022\Professional\VC\Tools\MSVC\14.44.35207\include\vcruntime_exception.h
;	COMDAT ??_Gexception@std@@UAEPAXI@Z
_TEXT	SEGMENT
___flags$ = 8						; size = 4
??_Gexception@std@@UAEPAXI@Z PROC			; std::exception::`scalar deleting destructor', COMDAT
; _this$ = ecx
  00000	55		 push	 ebp
  00001	8b ec		 mov	 ebp, esp

; 90   :     {

  00003	56		 push	 esi
  00004	8b f1		 mov	 esi, ecx

; 91   :         __std_exception_destroy(&_Data);

  00006	8d 46 04	 lea	 eax, DWORD PTR [esi+4]
  00009	c7 06 00 00 00
	00		 mov	 DWORD PTR [esi], OFFSET ??_7exception@std@@6B@
  0000f	50		 push	 eax
  00010	e8 00 00 00 00	 call	 ___std_exception_destroy
  00015	83 c4 04	 add	 esp, 4
  00018	f6 45 08 01	 test	 BYTE PTR ___flags$[ebp], 1
  0001c	74 0b		 je	 SHORT $LN8@scalar
  0001e	6a 0c		 push	 12			; 0000000cH
  00020	56		 push	 esi
  00021	e8 00 00 00 00	 call	 ??3@YAXPAXI@Z		; operator delete
  00026	83 c4 08	 add	 esp, 8
$LN8@scalar:
  00029	8b c6		 mov	 eax, esi
  0002b	5e		 pop	 esi
  0002c	5d		 pop	 ebp
  0002d	c2 04 00	 ret	 4
??_Gexception@std@@UAEPAXI@Z ENDP			; std::exception::`scalar deleting destructor'
_TEXT	ENDS
; Function compile flags: /Ogtp
; File C:\Program Files\Microsoft Visual Studio\2022\Professional\VC\Tools\MSVC\14.44.35207\include\vcruntime_exception.h
;	COMDAT ?what@exception@std@@UBEPBDXZ
_TEXT	SEGMENT
?what@exception@std@@UBEPBDXZ PROC			; std::exception::what, COMDAT
; _this$ = ecx

; 96   :         return _Data._What ? _Data._What : "Unknown exception";

  00000	8b 49 04	 mov	 ecx, DWORD PTR [ecx+4]
  00003	b8 00 00 00 00	 mov	 eax, OFFSET ??_C@_0BC@EOODALEL@Unknown?5exception@
  00008	85 c9		 test	 ecx, ecx
  0000a	0f 45 c1	 cmovne	 eax, ecx

; 97   :     }

  0000d	c3		 ret	 0
?what@exception@std@@UBEPBDXZ ENDP			; std::exception::what
_TEXT	ENDS
; Function compile flags: /Ogtp
; File C:\Program Files\Microsoft Visual Studio\2022\Professional\VC\Tools\MSVC\14.44.35207\include\vcruntime_exception.h
;	COMDAT ??1exception@std@@UAE@XZ
_TEXT	SEGMENT
??1exception@std@@UAE@XZ PROC				; std::exception::~exception, COMDAT
; _this$ = ecx

; 91   :         __std_exception_destroy(&_Data);

  00000	8d 41 04	 lea	 eax, DWORD PTR [ecx+4]
  00003	c7 01 00 00 00
	00		 mov	 DWORD PTR [ecx], OFFSET ??_7exception@std@@6B@
  00009	50		 push	 eax
  0000a	e8 00 00 00 00	 call	 ___std_exception_destroy
  0000f	59		 pop	 ecx

; 92   :     }

  00010	c3		 ret	 0
??1exception@std@@UAE@XZ ENDP				; std::exception::~exception
_TEXT	ENDS
; Function compile flags: /Ogtp
; File C:\Program Files\Microsoft Visual Studio\2022\Professional\VC\Tools\MSVC\14.44.35207\include\vcruntime_exception.h
;	COMDAT ??0exception@std@@QAE@ABV01@@Z
_TEXT	SEGMENT
__Other$ = 8						; size = 4
??0exception@std@@QAE@ABV01@@Z PROC			; std::exception::exception, COMDAT
; _this$ = ecx

; 73   :     {

  00000	55		 push	 ebp
  00001	8b ec		 mov	 ebp, esp
  00003	56		 push	 esi
  00004	8b f1		 mov	 esi, ecx
  00006	0f 57 c0	 xorps	 xmm0, xmm0
  00009	8d 46 04	 lea	 eax, DWORD PTR [esi+4]

; 74   :         __std_exception_copy(&_Other._Data, &_Data);

  0000c	50		 push	 eax
  0000d	c7 06 00 00 00
	00		 mov	 DWORD PTR [esi], OFFSET ??_7exception@std@@6B@
  00013	66 0f d6 00	 movq	 QWORD PTR [eax], xmm0
  00017	8b 45 08	 mov	 eax, DWORD PTR __Other$[ebp]
  0001a	83 c0 04	 add	 eax, 4
  0001d	50		 push	 eax
  0001e	e8 00 00 00 00	 call	 ___std_exception_copy
  00023	83 c4 08	 add	 esp, 8

; 75   :     }

  00026	8b c6		 mov	 eax, esi
  00028	5e		 pop	 esi
  00029	5d		 pop	 ebp
  0002a	c2 04 00	 ret	 4
??0exception@std@@QAE@ABV01@@Z ENDP			; std::exception::exception
_TEXT	ENDS
; Function compile flags: /Ogtp
; File C:\Program Files\Microsoft Visual Studio\2022\Professional\VC\Tools\MSVC\14.44.35207\atlmfc\include\cstringt.h
; File C:\Program Files\Microsoft Visual Studio\2022\Professional\VC\Tools\MSVC\14.44.35207\atlmfc\include\atlsimpstr.h
; File C:\Program Files\Microsoft Visual Studio\2022\Professional\VC\Tools\MSVC\14.44.35207\atlmfc\include\cstringt.h
;	COMDAT ??1?$CStringT@DV?$StrTraitMFC@DV?$ChTraitsCRT@D@ATL@@@@@ATL@@QAE@XZ
_TEXT	SEGMENT
??1?$CStringT@DV?$StrTraitMFC@DV?$ChTraitsCRT@D@ATL@@@@@ATL@@QAE@XZ PROC ; ATL::CStringT<char,StrTraitMFC<char,ATL::ChTraitsCRT<char> > >::~CStringT<char,StrTraitMFC<char,ATL::ChTraitsCRT<char> > >, COMDAT
; _this$ = ecx
; File C:\Program Files\Microsoft Visual Studio\2022\Professional\VC\Tools\MSVC\14.44.35207\atlmfc\include\atlsimpstr.h

; 804  : 		return( reinterpret_cast< CStringData* >( m_pszData )-1 );

  00000	8b 11		 mov	 edx, DWORD PTR [ecx]

; 92   : 		if( _InterlockedDecrement( &nRefs ) <= 0 )

  00002	83 c8 ff	 or	 eax, -1

; 804  : 		return( reinterpret_cast< CStringData* >( m_pszData )-1 );

  00005	83 ea 10	 sub	 edx, 16			; 00000010H

; 92   : 		if( _InterlockedDecrement( &nRefs ) <= 0 )

  00008	f0 0f c1 42 0c	 lock	  xadd	 DWORD PTR [edx+12], eax
  0000d	48		 dec	 eax
  0000e	85 c0		 test	 eax, eax
  00010	7f 08		 jg	 SHORT $LN8@CStringT

; 93   : 		{
; 94   : 			pStringMgr->Free( this );

  00012	8b 0a		 mov	 ecx, DWORD PTR [edx]
  00014	52		 push	 edx
  00015	8b 01		 mov	 eax, DWORD PTR [ecx]
  00017	ff 50 04	 call	 DWORD PTR [eax+4]
$LN8@CStringT:
; File C:\Program Files\Microsoft Visual Studio\2022\Professional\VC\Tools\MSVC\14.44.35207\atlmfc\include\cstringt.h

; 1303 : 	}

  0001a	c3		 ret	 0
??1?$CStringT@DV?$StrTraitMFC@DV?$ChTraitsCRT@D@ATL@@@@@ATL@@QAE@XZ ENDP ; ATL::CStringT<char,StrTraitMFC<char,ATL::ChTraitsCRT<char> > >::~CStringT<char,StrTraitMFC<char,ATL::ChTraitsCRT<char> > >
_TEXT	ENDS
; Function compile flags: /Ogtp
; File C:\Program Files\Microsoft Visual Studio\2022\Professional\VC\Tools\MSVC\14.44.35207\atlmfc\include\cstringt.h
; File C:\Program Files\Microsoft Visual Studio\2022\Professional\VC\Tools\MSVC\14.44.35207\atlmfc\include\atlsimpstr.h
; File C:\Program Files\Microsoft Visual Studio\2022\Professional\VC\Tools\MSVC\14.44.35207\atlmfc\include\cstringt.h
; File C:\Program Files\Microsoft Visual Studio\2022\Professional\VC\Tools\MSVC\14.44.35207\atlmfc\include\atlsimpstr.h
; File C:\Program Files\Microsoft Visual Studio\2022\Professional\VC\Tools\MSVC\14.44.35207\atlmfc\include\cstringt.h
; File C:\Program Files\Microsoft Visual Studio\2022\Professional\VC\Tools\MSVC\14.44.35207\atlmfc\include\atlsimpstr.h
; File C:\Program Files (x86)\Windows Kits\10\Include\10.0.26100.0\ucrt\corecrt_memcpy_s.h
; File C:\Program Files\Microsoft Visual Studio\2022\Professional\VC\Tools\MSVC\14.44.35207\atlmfc\include\atlsimpstr.h
; File C:\Program Files (x86)\Windows Kits\10\Include\10.0.26100.0\ucrt\corecrt_memcpy_s.h
; File C:\Program Files\Microsoft Visual Studio\2022\Professional\VC\Tools\MSVC\14.44.35207\atlmfc\include\atlsimpstr.h
; File C:\Program Files\Microsoft Visual Studio\2022\Professional\VC\Tools\MSVC\14.44.35207\atlmfc\include\cstringt.h
; File C:\Program Files (x86)\Windows Kits\10\Include\10.0.26100.0\ucrt\corecrt_memcpy_s.h
; File C:\Program Files\Microsoft Visual Studio\2022\Professional\VC\Tools\MSVC\14.44.35207\atlmfc\include\atlsimpstr.h
; File C:\Program Files\Microsoft Visual Studio\2022\Professional\VC\Tools\MSVC\14.44.35207\atlmfc\include\cstringt.h
; File C:\Program Files\Microsoft Visual Studio\2022\Professional\VC\Tools\MSVC\14.44.35207\atlmfc\include\atlsimpstr.h
; File C:\Program Files\Microsoft Visual Studio\2022\Professional\VC\Tools\MSVC\14.44.35207\atlmfc\include\cstringt.h
; File C:\Program Files\Microsoft Visual Studio\2022\Professional\VC\Tools\MSVC\14.44.35207\atlmfc\include\atlsimpstr.h
; File C:\Program Files\Microsoft Visual Studio\2022\Professional\VC\Tools\MSVC\14.44.35207\atlmfc\include\cstringt.h
;	COMDAT ??0?$CStringT@DV?$StrTraitMFC@DV?$ChTraitsCRT@D@ATL@@@@@ATL@@QAE@ABV01@@Z
_TEXT	SEGMENT
_this$ = -4						; size = 4
_strSrc$ = 8						; size = 4
__Source$1$ = 8						; size = 4
??0?$CStringT@DV?$StrTraitMFC@DV?$ChTraitsCRT@D@ATL@@@@@ATL@@QAE@ABV01@@Z PROC ; ATL::CStringT<char,StrTraitMFC<char,ATL::ChTraitsCRT<char> > >::CStringT<char,StrTraitMFC<char,ATL::ChTraitsCRT<char> > >, COMDAT
; _this$ = ecx

; 1036 : 	{

  00000	55		 push	 ebp
  00001	8b ec		 mov	 ebp, esp
  00003	51		 push	 ecx
; File C:\Program Files\Microsoft Visual Studio\2022\Professional\VC\Tools\MSVC\14.44.35207\atlmfc\include\atlsimpstr.h

; 804  : 		return( reinterpret_cast< CStringData* >( m_pszData )-1 );

  00004	8b 45 08	 mov	 eax, DWORD PTR _strSrc$[ebp]
; File C:\Program Files\Microsoft Visual Studio\2022\Professional\VC\Tools\MSVC\14.44.35207\atlmfc\include\cstringt.h

; 1036 : 	{

  00007	56		 push	 esi
  00008	89 4d fc	 mov	 DWORD PTR _this$[ebp], ecx
; File C:\Program Files\Microsoft Visual Studio\2022\Professional\VC\Tools\MSVC\14.44.35207\atlmfc\include\atlsimpstr.h

; 804  : 		return( reinterpret_cast< CStringData* >( m_pszData )-1 );

  0000b	8b 00		 mov	 eax, DWORD PTR [eax]

; 886  : 		IAtlStringMgr* pNewStringMgr = pData->pStringMgr->Clone();

  0000d	8b 48 f0	 mov	 ecx, DWORD PTR [eax-16]

; 804  : 		return( reinterpret_cast< CStringData* >( m_pszData )-1 );

  00010	8d 70 f0	 lea	 esi, DWORD PTR [eax-16]
  00013	89 45 08	 mov	 DWORD PTR __Source$1$[ebp], eax

; 886  : 		IAtlStringMgr* pNewStringMgr = pData->pStringMgr->Clone();

  00016	8b 01		 mov	 eax, DWORD PTR [ecx]
  00018	ff 50 10	 call	 DWORD PTR [eax+16]

; 73   : 		return nRefs < 0;

  0001b	83 7e 0c 00	 cmp	 DWORD PTR [esi+12], 0

; 886  : 		IAtlStringMgr* pNewStringMgr = pData->pStringMgr->Clone();

  0001f	8b c8		 mov	 ecx, eax

; 73   : 		return nRefs < 0;

  00021	8d 46 0c	 lea	 eax, DWORD PTR [esi+12]

; 887  : 		if( !pData->IsLocked() && (pNewStringMgr == pData->pStringMgr) )

  00024	7c 18		 jl	 SHORT $LN9@CStringT
  00026	3b 0e		 cmp	 ecx, DWORD PTR [esi]
  00028	75 14		 jne	 SHORT $LN9@CStringT

; 69   : 		_InterlockedIncrement(&nRefs);

  0002a	f0 ff 00	 lock	  inc	 DWORD PTR [eax]

; 218  : 		Attach( pNewData );

  0002d	8b 4d fc	 mov	 ecx, DWORD PTR _this$[ebp]
  00030	8d 46 10	 lea	 eax, DWORD PTR [esi+16]
  00033	89 01		 mov	 DWORD PTR [ecx], eax
; File C:\Program Files\Microsoft Visual Studio\2022\Professional\VC\Tools\MSVC\14.44.35207\atlmfc\include\cstringt.h

; 1037 : 	}

  00035	8b c1		 mov	 eax, ecx
  00037	5e		 pop	 esi
  00038	8b e5		 mov	 esp, ebp
  0003a	5d		 pop	 ebp
  0003b	c2 04 00	 ret	 4
$LN9@CStringT:
; File C:\Program Files\Microsoft Visual Studio\2022\Professional\VC\Tools\MSVC\14.44.35207\atlmfc\include\atlsimpstr.h

; 894  : 			pNewData = pNewStringMgr->Allocate( pData->nDataLength, sizeof( XCHAR ) );

  0003e	8b 01		 mov	 eax, DWORD PTR [ecx]
  00040	57		 push	 edi
  00041	6a 01		 push	 1
  00043	ff 76 04	 push	 DWORD PTR [esi+4]
  00046	8d 7e 04	 lea	 edi, DWORD PTR [esi+4]
  00049	ff 10		 call	 DWORD PTR [eax]
  0004b	8b f0		 mov	 esi, eax

; 895  : 			if( pNewData == NULL )

  0004d	85 f6		 test	 esi, esi
  0004f	0f 84 86 00 00
	00		 je	 $LN42@CStringT

; 898  : 			}
; 899  : 			pNewData->nDataLength = pData->nDataLength;

  00055	8b 07		 mov	 eax, DWORD PTR [edi]
  00057	89 46 04	 mov	 DWORD PTR [esi+4], eax

; 900  : 			memcpy_s( PXSTR( pNewData->data() ), (pNewData->nDataLength+1) * sizeof( XCHAR ),

  0005a	8b 3f		 mov	 edi, DWORD PTR [edi]
  0005c	53		 push	 ebx
  0005d	8d 58 01	 lea	 ebx, DWORD PTR [eax+1]
  00060	8d 46 10	 lea	 eax, DWORD PTR [esi+16]
  00063	83 c7 01	 add	 edi, 1
; File C:\Program Files (x86)\Windows Kits\10\Include\10.0.26100.0\ucrt\corecrt_memcpy_s.h

; 47   :         if (_SourceSize == 0)

  00066	74 60		 je	 SHORT $LN37@CStringT

; 48   :         {
; 49   :             return 0;
; 50   :         }
; 51   : 
; 52   :         _CRT_MEMCPY_S_VALIDATE_RETURN_ERRCODE(_Destination != NULL, EINVAL);

  00068	85 c0		 test	 eax, eax
  0006a	75 0d		 jne	 SHORT $LN19@CStringT
$LN40@CStringT:

; 58   :             _CRT_MEMCPY_S_VALIDATE_RETURN_ERRCODE(_DestinationSize >= _SourceSize, ERANGE);

  0006c	e8 00 00 00 00	 call	 __errno
  00071	c7 00 16 00 00
	00		 mov	 DWORD PTR [eax], 22	; 00000016H
  00077	eb 4a		 jmp	 SHORT $LN39@CStringT
$LN19@CStringT:

; 53   :         if (_Source == NULL || _DestinationSize < _SourceSize)

  00079	8b 4d 08	 mov	 ecx, DWORD PTR __Source$1$[ebp]
  0007c	85 c9		 test	 ecx, ecx
  0007e	74 22		 je	 SHORT $LN21@CStringT
  00080	3b df		 cmp	 ebx, edi
  00082	72 1e		 jb	 SHORT $LN21@CStringT

; 63   :         memcpy(_Destination, _Source, _SourceSize);

  00084	57		 push	 edi
  00085	51		 push	 ecx
  00086	50		 push	 eax
  00087	e8 00 00 00 00	 call	 _memcpy
; File C:\Program Files\Microsoft Visual Studio\2022\Professional\VC\Tools\MSVC\14.44.35207\atlmfc\include\atlsimpstr.h

; 218  : 		Attach( pNewData );

  0008c	8b 4d fc	 mov	 ecx, DWORD PTR _this$[ebp]
  0008f	8d 46 10	 lea	 eax, DWORD PTR [esi+16]
; File C:\Program Files (x86)\Windows Kits\10\Include\10.0.26100.0\ucrt\corecrt_memcpy_s.h

; 63   :         memcpy(_Destination, _Source, _SourceSize);

  00092	83 c4 0c	 add	 esp, 12			; 0000000cH
; File C:\Program Files\Microsoft Visual Studio\2022\Professional\VC\Tools\MSVC\14.44.35207\atlmfc\include\atlsimpstr.h

; 218  : 		Attach( pNewData );

  00095	89 01		 mov	 DWORD PTR [ecx], eax
; File C:\Program Files\Microsoft Visual Studio\2022\Professional\VC\Tools\MSVC\14.44.35207\atlmfc\include\cstringt.h

; 1037 : 	}

  00097	8b c1		 mov	 eax, ecx
  00099	5b		 pop	 ebx
  0009a	5f		 pop	 edi
  0009b	5e		 pop	 esi
  0009c	8b e5		 mov	 esp, ebp
  0009e	5d		 pop	 ebp
  0009f	c2 04 00	 ret	 4
$LN21@CStringT:
; File C:\Program Files (x86)\Windows Kits\10\Include\10.0.26100.0\ucrt\corecrt_memcpy_s.h

; 55   :             memset(_Destination, 0, _DestinationSize);

  000a2	53		 push	 ebx
  000a3	6a 00		 push	 0
  000a5	50		 push	 eax
  000a6	e8 00 00 00 00	 call	 _memset
  000ab	83 c4 0c	 add	 esp, 12			; 0000000cH

; 56   : 
; 57   :             _CRT_MEMCPY_S_VALIDATE_RETURN_ERRCODE(_Source != NULL,                 EINVAL);

  000ae	83 7d 08 00	 cmp	 DWORD PTR __Source$1$[ebp], 0
  000b2	74 b8		 je	 SHORT $LN40@CStringT

; 58   :             _CRT_MEMCPY_S_VALIDATE_RETURN_ERRCODE(_DestinationSize >= _SourceSize, ERANGE);

  000b4	3b df		 cmp	 ebx, edi
  000b6	73 10		 jae	 SHORT $LN37@CStringT
  000b8	e8 00 00 00 00	 call	 __errno
  000bd	c7 00 22 00 00
	00		 mov	 DWORD PTR [eax], 34	; 00000022H
$LN39@CStringT:
  000c3	e8 00 00 00 00	 call	 __invalid_parameter_noinfo
$LN37@CStringT:
; File C:\Program Files\Microsoft Visual Studio\2022\Professional\VC\Tools\MSVC\14.44.35207\atlmfc\include\atlsimpstr.h

; 218  : 		Attach( pNewData );

  000c8	8b 4d fc	 mov	 ecx, DWORD PTR _this$[ebp]
  000cb	8d 46 10	 lea	 eax, DWORD PTR [esi+16]
  000ce	5b		 pop	 ebx
  000cf	5f		 pop	 edi
; File C:\Program Files\Microsoft Visual Studio\2022\Professional\VC\Tools\MSVC\14.44.35207\atlmfc\include\cstringt.h

; 1037 : 	}

  000d0	5e		 pop	 esi
; File C:\Program Files\Microsoft Visual Studio\2022\Professional\VC\Tools\MSVC\14.44.35207\atlmfc\include\atlsimpstr.h

; 218  : 		Attach( pNewData );

  000d1	89 01		 mov	 DWORD PTR [ecx], eax
; File C:\Program Files\Microsoft Visual Studio\2022\Professional\VC\Tools\MSVC\14.44.35207\atlmfc\include\cstringt.h

; 1037 : 	}

  000d3	8b c1		 mov	 eax, ecx
  000d5	8b e5		 mov	 esp, ebp
  000d7	5d		 pop	 ebp
  000d8	c2 04 00	 ret	 4
$LN42@CStringT:
; File C:\Program Files\Microsoft Visual Studio\2022\Professional\VC\Tools\MSVC\14.44.35207\atlmfc\include\atlsimpstr.h

; 897  : 				ThrowMemoryException();

  000db	e8 00 00 00 00	 call	 ?ThrowMemoryException@?$CSimpleStringT@D$0A@@ATL@@KAXXZ ; ATL::CSimpleStringT<char,0>::ThrowMemoryException
$LN38@CStringT:
  000e0	cc		 int	 3
??0?$CStringT@DV?$StrTraitMFC@DV?$ChTraitsCRT@D@ATL@@@@@ATL@@QAE@ABV01@@Z ENDP ; ATL::CStringT<char,StrTraitMFC<char,ATL::ChTraitsCRT<char> > >::CStringT<char,StrTraitMFC<char,ATL::ChTraitsCRT<char> > >
_TEXT	ENDS
; Function compile flags: /Ogtp
; File C:\Program Files\Microsoft Visual Studio\2022\Professional\VC\Tools\MSVC\14.44.35207\atlmfc\include\atlsimpstr.h
;	COMDAT ?Reallocate@?$CSimpleStringT@D$0A@@ATL@@AAEXH@Z
_TEXT	SEGMENT
_nLength$ = 8						; size = 4
?Reallocate@?$CSimpleStringT@D$0A@@ATL@@AAEXH@Z PROC	; ATL::CSimpleStringT<char,0>::Reallocate, COMDAT
; _this$ = ecx

; 853  : 	{

  00000	55		 push	 ebp
  00001	8b ec		 mov	 ebp, esp
  00003	56		 push	 esi

; 854  : 		CStringData* pOldData = GetData();
; 855  : 		ATLASSERT( pOldData->nAllocLength < nLength );
; 856  : 		IAtlStringMgr* pStringMgr = pOldData->pStringMgr;
; 857  : 		if ( pOldData->nAllocLength >= nLength || nLength <= 0)

  00004	8b 75 08	 mov	 esi, DWORD PTR _nLength$[ebp]
  00007	57		 push	 edi
  00008	8b f9		 mov	 edi, ecx

; 804  : 		return( reinterpret_cast< CStringData* >( m_pszData )-1 );

  0000a	8b 17		 mov	 edx, DWORD PTR [edi]
  0000c	83 ea 10	 sub	 edx, 16			; 00000010H

; 854  : 		CStringData* pOldData = GetData();
; 855  : 		ATLASSERT( pOldData->nAllocLength < nLength );
; 856  : 		IAtlStringMgr* pStringMgr = pOldData->pStringMgr;
; 857  : 		if ( pOldData->nAllocLength >= nLength || nLength <= 0)

  0000f	39 72 08	 cmp	 DWORD PTR [edx+8], esi
  00012	7d 1e		 jge	 SHORT $LN3@Reallocate
  00014	85 f6		 test	 esi, esi
  00016	7e 1a		 jle	 SHORT $LN3@Reallocate

; 860  : 			return;
; 861  : 		}
; 862  : 		CStringData* pNewData = pStringMgr->Reallocate( pOldData, nLength, sizeof( XCHAR ) );

  00018	8b 0a		 mov	 ecx, DWORD PTR [edx]
  0001a	6a 01		 push	 1
  0001c	56		 push	 esi
  0001d	52		 push	 edx
  0001e	8b 01		 mov	 eax, DWORD PTR [ecx]
  00020	ff 50 08	 call	 DWORD PTR [eax+8]

; 863  : 		if( pNewData == NULL )

  00023	85 c0		 test	 eax, eax
  00025	74 0b		 je	 SHORT $LN3@Reallocate

; 864  : 		{
; 865  : 			ThrowMemoryException();
; 866  : 		}
; 867  : 		Attach( pNewData );

  00027	83 c0 10	 add	 eax, 16			; 00000010H
  0002a	89 07		 mov	 DWORD PTR [edi], eax
  0002c	5f		 pop	 edi
  0002d	5e		 pop	 esi

; 868  : 	}

  0002e	5d		 pop	 ebp
  0002f	c2 04 00	 ret	 4
$LN3@Reallocate:

; 858  : 		{
; 859  : 			ThrowMemoryException();

  00032	e8 00 00 00 00	 call	 ?ThrowMemoryException@?$CSimpleStringT@D$0A@@ATL@@KAXXZ ; ATL::CSimpleStringT<char,0>::ThrowMemoryException
$LN12@Reallocate:
  00037	cc		 int	 3
?Reallocate@?$CSimpleStringT@D$0A@@ATL@@AAEXH@Z ENDP	; ATL::CSimpleStringT<char,0>::Reallocate
_TEXT	ENDS
; Function compile flags: /Ogtp
; File C:\Program Files\Microsoft Visual Studio\2022\Professional\VC\Tools\MSVC\14.44.35207\atlmfc\include\atlsimpstr.h
;	COMDAT ?PrepareWrite2@?$CSimpleStringT@D$0A@@ATL@@AAEXH@Z
_TEXT	SEGMENT
_nLength$ = 8						; size = 4
?PrepareWrite2@?$CSimpleStringT@D$0A@@ATL@@AAEXH@Z PROC	; ATL::CSimpleStringT<char,0>::PrepareWrite2, COMDAT
; _this$ = ecx

; 822  : 	{

  00000	55		 push	 ebp
  00001	8b ec		 mov	 ebp, esp
  00003	56		 push	 esi

; 823  : 		CStringData* pOldData = GetData();
; 824  : 		if( pOldData->nDataLength > nLength )

  00004	8b 75 08	 mov	 esi, DWORD PTR _nLength$[ebp]
  00007	57		 push	 edi
  00008	8b f9		 mov	 edi, ecx

; 804  : 		return( reinterpret_cast< CStringData* >( m_pszData )-1 );

  0000a	8b 0f		 mov	 ecx, DWORD PTR [edi]

; 823  : 		CStringData* pOldData = GetData();
; 824  : 		if( pOldData->nDataLength > nLength )

  0000c	39 71 f4	 cmp	 DWORD PTR [ecx-12], esi
  0000f	0f 4f 71 f4	 cmovg	 esi, DWORD PTR [ecx-12]

; 77   : 		return( nRefs > 1 );

  00013	83 79 fc 01	 cmp	 DWORD PTR [ecx-4], 1

; 825  : 		{
; 826  : 			nLength = pOldData->nDataLength;
; 827  : 		}
; 828  : 		if( pOldData->IsShared() )

  00017	7e 0e		 jle	 SHORT $LN3@PrepareWri

; 829  : 		{
; 830  : 			Fork( nLength );

  00019	56		 push	 esi
  0001a	8b cf		 mov	 ecx, edi
  0001c	e8 00 00 00 00	 call	 ?Fork@?$CSimpleStringT@D$0A@@ATL@@AAEXH@Z ; ATL::CSimpleStringT<char,0>::Fork
  00021	5f		 pop	 edi

; 850  : 		}
; 851  : 	}

  00022	5e		 pop	 esi
  00023	5d		 pop	 ebp
  00024	c2 04 00	 ret	 4
$LN3@PrepareWri:

; 831  : 		}
; 832  : 		else if( pOldData->nAllocLength < nLength )

  00027	8b 49 f8	 mov	 ecx, DWORD PTR [ecx-8]
  0002a	3b ce		 cmp	 ecx, esi
  0002c	7d 25		 jge	 SHORT $LN5@PrepareWri

; 833  : 		{
; 834  : 			// Grow exponentially, until we hit 1G, then by 1M thereafter.
; 835  : 			int nNewLength = pOldData->nAllocLength;
; 836  : 			if( nNewLength > 1024 * 1024 * 1024 )

  0002e	81 f9 00 00 00
	40		 cmp	 ecx, 1073741824		; 40000000H
  00034	7e 07		 jle	 SHORT $LN6@PrepareWri

; 837  : 			{
; 838  : 				nNewLength += 1024 * 1024;

  00036	b8 00 00 10 00	 mov	 eax, 1048576		; 00100000H

; 839  : 			}

  0003b	eb 07		 jmp	 SHORT $LN7@PrepareWri
$LN6@PrepareWri:

; 840  : 			else
; 841  : 			{
; 842  : 				// Exponential growth factor is 1.5.
; 843  : 				nNewLength = nNewLength + nNewLength / 2;

  0003d	8b c1		 mov	 eax, ecx
  0003f	99		 cdq
  00040	2b c2		 sub	 eax, edx
  00042	d1 f8		 sar	 eax, 1
$LN7@PrepareWri:

; 844  : 			}
; 845  : 			if( nNewLength < nLength )

  00044	03 c1		 add	 eax, ecx

; 846  : 			{
; 847  : 				nNewLength = nLength;
; 848  : 			}
; 849  : 			Reallocate( nNewLength );

  00046	8b cf		 mov	 ecx, edi
  00048	3b c6		 cmp	 eax, esi
  0004a	0f 4d f0	 cmovge	 esi, eax
  0004d	56		 push	 esi
  0004e	e8 00 00 00 00	 call	 ?Reallocate@?$CSimpleStringT@D$0A@@ATL@@AAEXH@Z ; ATL::CSimpleStringT<char,0>::Reallocate
$LN5@PrepareWri:

; 850  : 		}
; 851  : 	}

  00053	5f		 pop	 edi
  00054	5e		 pop	 esi
  00055	5d		 pop	 ebp
  00056	c2 04 00	 ret	 4
?PrepareWrite2@?$CSimpleStringT@D$0A@@ATL@@AAEXH@Z ENDP	; ATL::CSimpleStringT<char,0>::PrepareWrite2
_TEXT	ENDS
; Function compile flags: /Ogtp
; File C:\Program Files\Microsoft Visual Studio\2022\Professional\VC\Tools\MSVC\14.44.35207\atlmfc\include\atlsimpstr.h
; File C:\Program Files (x86)\Windows Kits\10\Include\10.0.26100.0\ucrt\corecrt_memcpy_s.h
; File C:\Program Files\Microsoft Visual Studio\2022\Professional\VC\Tools\MSVC\14.44.35207\atlmfc\include\atlsimpstr.h
;	COMDAT ?Fork@?$CSimpleStringT@D$0A@@ATL@@AAEXH@Z
_TEXT	SEGMENT
_this$1$ = -12						; size = 4
_nOldLength$1$ = -8					; size = 4
__Source$1$ = -4					; size = 4
_nLength$ = 8						; size = 4
_pNewData$1$ = 8					; size = 4
?Fork@?$CSimpleStringT@D$0A@@ATL@@AAEXH@Z PROC		; ATL::CSimpleStringT<char,0>::Fork, COMDAT
; _this$ = ecx

; 787  : 	{

  00000	55		 push	 ebp
  00001	8b ec		 mov	 ebp, esp
  00003	83 ec 0c	 sub	 esp, 12			; 0000000cH
  00006	8b c1		 mov	 eax, ecx
  00008	89 45 f4	 mov	 DWORD PTR _this$1$[ebp], eax
  0000b	53		 push	 ebx
  0000c	56		 push	 esi

; 804  : 		return( reinterpret_cast< CStringData* >( m_pszData )-1 );

  0000d	8b 00		 mov	 eax, DWORD PTR [eax]

; 790  : 		CStringData* pNewData = pOldData->pStringMgr->Clone()->Allocate( nLength, sizeof( XCHAR ) );

  0000f	8b 48 f0	 mov	 ecx, DWORD PTR [eax-16]

; 804  : 		return( reinterpret_cast< CStringData* >( m_pszData )-1 );

  00012	8d 58 f0	 lea	 ebx, DWORD PTR [eax-16]
  00015	89 45 fc	 mov	 DWORD PTR __Source$1$[ebp], eax

; 787  : 	{

  00018	57		 push	 edi

; 788  : 		CStringData* pOldData = GetData();
; 789  : 		int nOldLength = pOldData->nDataLength;

  00019	8b 7b 04	 mov	 edi, DWORD PTR [ebx+4]

; 790  : 		CStringData* pNewData = pOldData->pStringMgr->Clone()->Allocate( nLength, sizeof( XCHAR ) );

  0001c	8b 01		 mov	 eax, DWORD PTR [ecx]
  0001e	89 7d f8	 mov	 DWORD PTR _nOldLength$1$[ebp], edi
  00021	ff 50 10	 call	 DWORD PTR [eax+16]
  00024	8b 75 08	 mov	 esi, DWORD PTR _nLength$[ebp]
  00027	8b c8		 mov	 ecx, eax
  00029	6a 01		 push	 1
  0002b	56		 push	 esi
  0002c	8b 10		 mov	 edx, DWORD PTR [eax]
  0002e	ff 12		 call	 DWORD PTR [edx]
  00030	89 45 08	 mov	 DWORD PTR _pNewData$1$[ebp], eax

; 791  : 		if( pNewData == NULL )

  00033	85 c0		 test	 eax, eax
  00035	74 6c		 je	 SHORT $LN25@Fork

; 794  : 		}
; 795  : 		int nCharsToCopy = ((nOldLength < nLength) ? nOldLength : nLength)+1;  // Copy '\0'

  00037	3b fe		 cmp	 edi, esi
  00039	0f 4c f7	 cmovl	 esi, edi

; 796  : 		memcpy_s( PXSTR( pNewData->data() ), nCharsToCopy * sizeof( XCHAR ),

  0003c	8d 78 10	 lea	 edi, DWORD PTR [eax+16]
  0003f	83 c6 01	 add	 esi, 1
; File C:\Program Files (x86)\Windows Kits\10\Include\10.0.26100.0\ucrt\corecrt_memcpy_s.h

; 47   :         if (_SourceSize == 0)

  00042	74 33		 je	 SHORT $LN11@Fork

; 48   :         {
; 49   :             return 0;
; 50   :         }
; 51   : 
; 52   :         _CRT_MEMCPY_S_VALIDATE_RETURN_ERRCODE(_Destination != NULL, EINVAL);

  00044	85 ff		 test	 edi, edi
  00046	74 1f		 je	 SHORT $LN23@Fork

; 53   :         if (_Source == NULL || _DestinationSize < _SourceSize)

  00048	8b 45 fc	 mov	 eax, DWORD PTR __Source$1$[ebp]
  0004b	56		 push	 esi
  0004c	85 c0		 test	 eax, eax
  0004e	74 0c		 je	 SHORT $LN10@Fork

; 56   : 
; 57   :             _CRT_MEMCPY_S_VALIDATE_RETURN_ERRCODE(_Source != NULL,                 EINVAL);
; 58   :             _CRT_MEMCPY_S_VALIDATE_RETURN_ERRCODE(_DestinationSize >= _SourceSize, ERANGE);
; 59   : 
; 60   :             // Unreachable, but required to suppress /analyze warnings:
; 61   :             return EINVAL;
; 62   :         }
; 63   :         memcpy(_Destination, _Source, _SourceSize);

  00050	50		 push	 eax
  00051	57		 push	 edi
  00052	e8 00 00 00 00	 call	 _memcpy
  00057	83 c4 0c	 add	 esp, 12			; 0000000cH
  0005a	eb 1b		 jmp	 SHORT $LN11@Fork
$LN10@Fork:

; 54   :         {
; 55   :             memset(_Destination, 0, _DestinationSize);

  0005c	6a 00		 push	 0
  0005e	57		 push	 edi
  0005f	e8 00 00 00 00	 call	 _memset
  00064	83 c4 0c	 add	 esp, 12			; 0000000cH
$LN23@Fork:
; File C:\Program Files\Microsoft Visual Studio\2022\Professional\VC\Tools\MSVC\14.44.35207\atlmfc\include\atlsimpstr.h

; 798  : 		pNewData->nDataLength = nOldLength;

  00067	e8 00 00 00 00	 call	 __errno
  0006c	c7 00 16 00 00
	00		 mov	 DWORD PTR [eax], 22	; 00000016H
  00072	e8 00 00 00 00	 call	 __invalid_parameter_noinfo
$LN11@Fork:
  00077	8b 4d 08	 mov	 ecx, DWORD PTR _pNewData$1$[ebp]
  0007a	8b 45 f8	 mov	 eax, DWORD PTR _nOldLength$1$[ebp]
  0007d	89 41 04	 mov	 DWORD PTR [ecx+4], eax

; 92   : 		if( _InterlockedDecrement( &nRefs ) <= 0 )

  00080	83 c8 ff	 or	 eax, -1
  00083	f0 0f c1 43 0c	 lock	  xadd	 DWORD PTR [ebx+12], eax
  00088	48		 dec	 eax
  00089	85 c0		 test	 eax, eax
  0008b	7f 08		 jg	 SHORT $LN15@Fork

; 93   : 		{
; 94   : 			pStringMgr->Free( this );

  0008d	8b 0b		 mov	 ecx, DWORD PTR [ebx]
  0008f	53		 push	 ebx
  00090	8b 01		 mov	 eax, DWORD PTR [ecx]
  00092	ff 50 04	 call	 DWORD PTR [eax+4]
$LN15@Fork:

; 799  : 		pOldData->Release();
; 800  : 		Attach( pNewData );

  00095	8b 45 f4	 mov	 eax, DWORD PTR _this$1$[ebp]
  00098	89 38		 mov	 DWORD PTR [eax], edi

; 801  : 	}

  0009a	5f		 pop	 edi
  0009b	5e		 pop	 esi
  0009c	5b		 pop	 ebx
  0009d	8b e5		 mov	 esp, ebp
  0009f	5d		 pop	 ebp
  000a0	c2 04 00	 ret	 4
$LN25@Fork:

; 792  : 		{
; 793  : 			ThrowMemoryException();

  000a3	e8 00 00 00 00	 call	 ?ThrowMemoryException@?$CSimpleStringT@D$0A@@ATL@@KAXXZ ; ATL::CSimpleStringT<char,0>::ThrowMemoryException
$LN22@Fork:
  000a8	cc		 int	 3
?Fork@?$CSimpleStringT@D$0A@@ATL@@AAEXH@Z ENDP		; ATL::CSimpleStringT<char,0>::Fork
_TEXT	ENDS
; Function compile flags: /Ogtp
; File C:\Program Files\Microsoft Visual Studio\2022\Professional\VC\Tools\MSVC\14.44.35207\atlmfc\include\atlsimpstr.h
;	COMDAT ?ThrowMemoryException@?$CSimpleStringT@D$0A@@ATL@@KAXXZ
_TEXT	SEGMENT
?ThrowMemoryException@?$CSimpleStringT@D$0A@@ATL@@KAXXZ PROC ; ATL::CSimpleStringT<char,0>::ThrowMemoryException, COMDAT

; 777  : 		AtlThrow( E_OUTOFMEMORY );

  00000	68 0e 00 07 80	 push	 -2147024882		; 8007000eH
  00005	e8 00 00 00 00	 call	 ?AtlThrowImpl@ATL@@YGXJ@Z ; ATL::AtlThrowImpl
$LN3@ThrowMemor:
  0000a	cc		 int	 3
?ThrowMemoryException@?$CSimpleStringT@D$0A@@ATL@@KAXXZ ENDP ; ATL::CSimpleStringT<char,0>::ThrowMemoryException
_TEXT	ENDS
; Function compile flags: /Ogtp
; File C:\Program Files\Microsoft Visual Studio\2022\Professional\VC\Tools\MSVC\14.44.35207\atlmfc\include\atlsimpstr.h
; File C:\Program Files (x86)\Windows Kits\10\Include\10.0.26100.0\ucrt\corecrt_memcpy_s.h
; File C:\Program Files\Microsoft Visual Studio\2022\Professional\VC\Tools\MSVC\14.44.35207\atlmfc\include\atlsimpstr.h
; File C:\Program Files (x86)\Windows Kits\10\Include\10.0.26100.0\ucrt\corecrt_memcpy_s.h
; File C:\Program Files\Microsoft Visual Studio\2022\Professional\VC\Tools\MSVC\14.44.35207\atlmfc\include\atlsimpstr.h
;	COMDAT ?SetString@?$CSimpleStringT@D$0A@@ATL@@QAEXPBDH@Z
_TEXT	SEGMENT
_pszSrc$ = 8						; size = 4
_nOldLength$1$ = 8					; size = 4
_nLength$ = 12						; size = 4
_nOffset$1$ = 12					; size = 4
?SetString@?$CSimpleStringT@D$0A@@ATL@@QAEXPBDH@Z PROC	; ATL::CSimpleStringT<char,0>::SetString, COMDAT
; _this$ = ecx

; 611  : 	{

  00000	55		 push	 ebp
  00001	8b ec		 mov	 ebp, esp
  00003	56		 push	 esi

; 612  : 		if( nLength == 0 )

  00004	8b 75 0c	 mov	 esi, DWORD PTR _nLength$[ebp]
  00007	57		 push	 edi
  00008	8b f9		 mov	 edi, ecx
  0000a	85 f6		 test	 esi, esi
  0000c	75 58		 jne	 SHORT $LN2@SetString

; 804  : 		return( reinterpret_cast< CStringData* >( m_pszData )-1 );

  0000e	8b 07		 mov	 eax, DWORD PTR [edi]

; 443  : 		if( pOldData->nDataLength == 0 )

  00010	83 78 f4 00	 cmp	 DWORD PTR [eax-12], 0

; 804  : 		return( reinterpret_cast< CStringData* >( m_pszData )-1 );

  00014	8d 50 f0	 lea	 edx, DWORD PTR [eax-16]

; 442  : 		IAtlStringMgr* pStringMgr = pOldData->pStringMgr;

  00017	8b 32		 mov	 esi, DWORD PTR [edx]

; 443  : 		if( pOldData->nDataLength == 0 )

  00019	74 1f		 je	 SHORT $LN72@SetString

; 73   : 		return nRefs < 0;

  0001b	83 7a 0c 00	 cmp	 DWORD PTR [edx+12], 0
  0001f	8d 4a 0c	 lea	 ecx, DWORD PTR [edx+12]

; 448  : 		if( pOldData->IsLocked() )

  00022	7d 1c		 jge	 SHORT $LN10@SetString

; 875  : 		if( nLength < 0 || nLength > GetData()->nAllocLength)

  00024	83 78 f8 00	 cmp	 DWORD PTR [eax-8], 0
  00028	0f 8c 0b 01 00
	00		 jl	 $LN71@SetString

; 877  : 
; 878  : 		GetData()->nDataLength = nLength;

  0002e	c7 40 f4 00 00
	00 00		 mov	 DWORD PTR [eax-12], 0

; 879  : 		m_pszData[nLength] = 0;

  00035	8b 07		 mov	 eax, DWORD PTR [edi]
  00037	c6 00 00	 mov	 BYTE PTR [eax], 0
$LN72@SetString:
  0003a	5f		 pop	 edi

; 638  : 			else
; 639  : 			{
; 640  : 				memcpy_s( pszBuffer, GetAllocLength() * sizeof( XCHAR ), pszSrc, nLength * sizeof( XCHAR ));
; 641  : 			}
; 642  : 			ReleaseBufferSetLength( nLength );
; 643  : 		}
; 644  : 	}

  0003b	5e		 pop	 esi
  0003c	5d		 pop	 ebp
  0003d	c2 08 00	 ret	 8
$LN10@SetString:

; 92   : 		if( _InterlockedDecrement( &nRefs ) <= 0 )

  00040	83 c8 ff	 or	 eax, -1
  00043	f0 0f c1 01	 lock	  xadd	 DWORD PTR [ecx], eax
  00047	48		 dec	 eax
  00048	85 c0		 test	 eax, eax
  0004a	7f 08		 jg	 SHORT $LN27@SetString

; 93   : 		{
; 94   : 			pStringMgr->Free( this );

  0004c	8b 0a		 mov	 ecx, DWORD PTR [edx]
  0004e	52		 push	 edx
  0004f	8b 01		 mov	 eax, DWORD PTR [ecx]
  00051	ff 50 04	 call	 DWORD PTR [eax+4]
$LN27@SetString:

; 456  : 			CStringData* pNewData = pStringMgr->GetNilString();

  00054	8b 06		 mov	 eax, DWORD PTR [esi]
  00056	8b ce		 mov	 ecx, esi
  00058	ff 50 0c	 call	 DWORD PTR [eax+12]

; 457  : 			Attach( pNewData );

  0005b	83 c0 10	 add	 eax, 16			; 00000010H
  0005e	89 07		 mov	 DWORD PTR [edi], eax
  00060	5f		 pop	 edi

; 638  : 			else
; 639  : 			{
; 640  : 				memcpy_s( pszBuffer, GetAllocLength() * sizeof( XCHAR ), pszSrc, nLength * sizeof( XCHAR ));
; 641  : 			}
; 642  : 			ReleaseBufferSetLength( nLength );
; 643  : 		}
; 644  : 	}

  00061	5e		 pop	 esi
  00062	5d		 pop	 ebp
  00063	c2 08 00	 ret	 8
$LN2@SetString:
  00066	53		 push	 ebx

; 613  : 		{
; 614  : 			Empty();
; 615  : 		}
; 616  : 		else
; 617  : 		{
; 618  : 			// It is possible that pszSrc points to a location inside of our
; 619  : 			// buffer.  GetBuffer() might change m_pszData if (1) the buffer
; 620  : 			// is shared or (2) the buffer is too small to hold the new
; 621  : 			// string.  We detect this aliasing, and modify pszSrc to point
; 622  : 			// into the newly allocated buffer instead.
; 623  : 
; 624  : 			if(pszSrc == NULL)

  00067	8b 5d 08	 mov	 ebx, DWORD PTR _pszSrc$[ebp]
  0006a	85 db		 test	 ebx, ebx
  0006c	0f 84 c7 00 00
	00		 je	 $LN71@SetString

; 523  : 		return( GetData()->nDataLength );

  00072	8b 07		 mov	 eax, DWORD PTR [edi]

; 625  : 				AtlThrow(E_INVALIDARG);
; 626  : 
; 627  : 			UINT nOldLength = GetLength();
; 628  : 			UINT_PTR nOffset = pszSrc-GetString();

  00074	8b d3		 mov	 edx, ebx
  00076	2b d0		 sub	 edx, eax
  00078	89 55 0c	 mov	 DWORD PTR _nOffset$1$[ebp], edx
  0007b	8b 48 f4	 mov	 ecx, DWORD PTR [eax-12]
  0007e	89 4d 08	 mov	 DWORD PTR _nOldLength$1$[ebp], ecx

; 808  : 		if (nLength < 0)

  00081	85 f6		 test	 esi, esi
  00083	0f 88 b0 00 00
	00		 js	 $LN71@SetString

; 809  : 			AtlThrow(E_INVALIDARG);
; 810  : 
; 811  : 		CStringData* pOldData = GetData();
; 812  : 		int nShared = 1-pOldData->nRefs;  // nShared < 0 means true, >= 0 means false

  00089	b9 01 00 00 00	 mov	 ecx, 1
  0008e	2b 48 fc	 sub	 ecx, DWORD PTR [eax-4]

; 813  : 		int nTooShort = pOldData->nAllocLength-nLength;  // nTooShort < 0 means true, >= 0 means false

  00091	8b 40 f8	 mov	 eax, DWORD PTR [eax-8]
  00094	2b c6		 sub	 eax, esi

; 814  : 		if( (nShared|nTooShort) < 0 )  // If either sign bit is set (i.e. either is less than zero), we need to copy data

  00096	0b c8		 or	 ecx, eax
  00098	7d 0b		 jge	 SHORT $LN38@SetString

; 815  : 		{
; 816  : 			PrepareWrite2( nLength );

  0009a	56		 push	 esi
  0009b	8b cf		 mov	 ecx, edi
  0009d	e8 00 00 00 00	 call	 ?PrepareWrite2@?$CSimpleStringT@D$0A@@ATL@@AAEXH@Z ; ATL::CSimpleStringT<char,0>::PrepareWrite2
  000a2	8b 55 0c	 mov	 edx, DWORD PTR _nOffset$1$[ebp]
$LN38@SetString:

; 629  : 			// If 0 <= nOffset <= nOldLength, then pszSrc points into our
; 630  : 			// buffer
; 631  : 
; 632  : 			PXSTR pszBuffer = GetBuffer( nLength );

  000a5	8b 07		 mov	 eax, DWORD PTR [edi]
  000a7	8b 48 f8	 mov	 ecx, DWORD PTR [eax-8]

; 633  : 			if( nOffset <= nOldLength )

  000aa	3b 55 08	 cmp	 edx, DWORD PTR _nOldLength$1$[ebp]
  000ad	77 35		 ja	 SHORT $LN5@SetString

; 634  : 			{
; 635  : 				CopyCharsOverlapped( pszBuffer, GetAllocLength(),

  000af	03 d0		 add	 edx, eax
; File C:\Program Files (x86)\Windows Kits\10\Include\10.0.26100.0\ucrt\corecrt_memcpy_s.h

; 81   :         _CRT_MEMCPY_S_VALIDATE_RETURN_ERRCODE(_Destination != NULL,            EINVAL);

  000b1	85 c0		 test	 eax, eax
  000b3	75 0d		 jne	 SHORT $LN51@SetString
  000b5	e8 00 00 00 00	 call	 __errno
  000ba	c7 00 16 00 00
	00		 mov	 DWORD PTR [eax], 22	; 00000016H
  000c0	eb 5b		 jmp	 SHORT $LN97@SetString
$LN51@SetString:

; 82   :         _CRT_MEMCPY_S_VALIDATE_RETURN_ERRCODE(_Source != NULL,                 EINVAL);

  000c2	85 d2		 test	 edx, edx
  000c4	75 0d		 jne	 SHORT $LN52@SetString
  000c6	e8 00 00 00 00	 call	 __errno
  000cb	c7 00 16 00 00
	00		 mov	 DWORD PTR [eax], 22	; 00000016H
  000d1	eb 4a		 jmp	 SHORT $LN97@SetString
$LN52@SetString:

; 83   :         _CRT_MEMCPY_S_VALIDATE_RETURN_ERRCODE(_DestinationSize >= _SourceSize, ERANGE);

  000d3	3b ce		 cmp	 ecx, esi
  000d5	72 3b		 jb	 SHORT $LN98@SetString

; 84   : 
; 85   :         memmove(_Destination, _Source, _SourceSize);

  000d7	56		 push	 esi
  000d8	52		 push	 edx
  000d9	50		 push	 eax
  000da	e8 00 00 00 00	 call	 _memmove
  000df	83 c4 0c	 add	 esp, 12			; 0000000cH
; File C:\Program Files\Microsoft Visual Studio\2022\Professional\VC\Tools\MSVC\14.44.35207\atlmfc\include\atlsimpstr.h

; 637  : 			}

  000e2	eb 3e		 jmp	 SHORT $LN65@SetString
$LN5@SetString:
; File C:\Program Files (x86)\Windows Kits\10\Include\10.0.26100.0\ucrt\corecrt_memcpy_s.h

; 52   :         _CRT_MEMCPY_S_VALIDATE_RETURN_ERRCODE(_Destination != NULL, EINVAL);

  000e4	85 c0		 test	 eax, eax
  000e6	75 0d		 jne	 SHORT $LN61@SetString
  000e8	e8 00 00 00 00	 call	 __errno
  000ed	c7 00 16 00 00
	00		 mov	 DWORD PTR [eax], 22	; 00000016H
  000f3	eb 28		 jmp	 SHORT $LN97@SetString
$LN61@SetString:

; 53   :         if (_Source == NULL || _DestinationSize < _SourceSize)

  000f5	3b ce		 cmp	 ecx, esi
  000f7	72 0d		 jb	 SHORT $LN63@SetString

; 56   : 
; 57   :             _CRT_MEMCPY_S_VALIDATE_RETURN_ERRCODE(_Source != NULL,                 EINVAL);
; 58   :             _CRT_MEMCPY_S_VALIDATE_RETURN_ERRCODE(_DestinationSize >= _SourceSize, ERANGE);
; 59   : 
; 60   :             // Unreachable, but required to suppress /analyze warnings:
; 61   :             return EINVAL;
; 62   :         }
; 63   :         memcpy(_Destination, _Source, _SourceSize);

  000f9	56		 push	 esi
  000fa	53		 push	 ebx
  000fb	50		 push	 eax
  000fc	e8 00 00 00 00	 call	 _memcpy
  00101	83 c4 0c	 add	 esp, 12			; 0000000cH
  00104	eb 1c		 jmp	 SHORT $LN65@SetString
$LN63@SetString:

; 54   :         {
; 55   :             memset(_Destination, 0, _DestinationSize);

  00106	51		 push	 ecx
  00107	6a 00		 push	 0
  00109	50		 push	 eax
  0010a	e8 00 00 00 00	 call	 _memset
  0010f	83 c4 0c	 add	 esp, 12			; 0000000cH
$LN98@SetString:
; File C:\Program Files\Microsoft Visual Studio\2022\Professional\VC\Tools\MSVC\14.44.35207\atlmfc\include\atlsimpstr.h

; 875  : 		if( nLength < 0 || nLength > GetData()->nAllocLength)

  00112	e8 00 00 00 00	 call	 __errno
  00117	c7 00 22 00 00
	00		 mov	 DWORD PTR [eax], 34	; 00000022H
$LN97@SetString:
  0011d	e8 00 00 00 00	 call	 __invalid_parameter_noinfo
$LN65@SetString:
  00122	8b 07		 mov	 eax, DWORD PTR [edi]
  00124	5b		 pop	 ebx
  00125	3b 70 f8	 cmp	 esi, DWORD PTR [eax-8]
  00128	7f 0f		 jg	 SHORT $LN71@SetString

; 877  : 
; 878  : 		GetData()->nDataLength = nLength;

  0012a	89 70 f4	 mov	 DWORD PTR [eax-12], esi

; 879  : 		m_pszData[nLength] = 0;

  0012d	8b 07		 mov	 eax, DWORD PTR [edi]
  0012f	5f		 pop	 edi
  00130	c6 04 06 00	 mov	 BYTE PTR [esi+eax], 0

; 638  : 			else
; 639  : 			{
; 640  : 				memcpy_s( pszBuffer, GetAllocLength() * sizeof( XCHAR ), pszSrc, nLength * sizeof( XCHAR ));
; 641  : 			}
; 642  : 			ReleaseBufferSetLength( nLength );
; 643  : 		}
; 644  : 	}

  00134	5e		 pop	 esi
  00135	5d		 pop	 ebp
  00136	c2 08 00	 ret	 8
$LN71@SetString:

; 876  : 			AtlThrow(E_INVALIDARG);

  00139	68 57 00 07 80	 push	 -2147024809		; 80070057H
  0013e	e8 00 00 00 00	 call	 ?AtlThrowImpl@ATL@@YGXJ@Z ; ATL::AtlThrowImpl
$LN96@SetString:
  00143	cc		 int	 3
?SetString@?$CSimpleStringT@D$0A@@ATL@@QAEXPBDH@Z ENDP	; ATL::CSimpleStringT<char,0>::SetString
_TEXT	ENDS
; Function compile flags: /Ogtp
; File C:\Program Files\Microsoft Visual Studio\2022\Professional\VC\Tools\MSVC\14.44.35207\atlmfc\include\atlexcept.h
;	COMDAT ?AtlThrowImpl@ATL@@YGXJ@Z
_TEXT	SEGMENT
_hr$ = 8						; size = 4
?AtlThrowImpl@ATL@@YGXJ@Z PROC				; ATL::AtlThrowImpl, COMDAT

; 69   : {

  00000	55		 push	 ebp
  00001	8b ec		 mov	 ebp, esp

; 70   : 	ATLTRACE(atlTraceException, 0, _T("AtlThrow: hr = 0x%x\n"), hr );
; 71   : #ifdef _AFX
; 72   : 	if( hr == E_OUTOFMEMORY )

  00003	8b 45 08	 mov	 eax, DWORD PTR _hr$[ebp]
  00006	3d 0e 00 07 80	 cmp	 eax, -2147024882	; 8007000eH
  0000b	75 05		 jne	 SHORT $LN2@AtlThrowIm

; 73   : 	{
; 74   : 		AfxThrowMemoryException();

  0000d	e8 00 00 00 00	 call	 ?AfxThrowMemoryException@@YGXXZ ; AfxThrowMemoryException
$LN2@AtlThrowIm:

; 75   : 	}
; 76   : 	else
; 77   : 	{
; 78   : 		AfxThrowOleException( hr );

  00012	50		 push	 eax
  00013	e8 00 00 00 00	 call	 ?AfxThrowOleException@@YGXJ@Z ; AfxThrowOleException
$LN5@AtlThrowIm:
  00018	cc		 int	 3
?AtlThrowImpl@ATL@@YGXJ@Z ENDP				; ATL::AtlThrowImpl
_TEXT	ENDS
; Function compile flags: /Ogtp
; File C:\Program Files (x86)\Windows Kits\10\Include\10.0.26100.0\ucrt\stdio.h
;	COMDAT _sprintf
_TEXT	SEGMENT
__Buffer$ = 8						; size = 4
__Format$ = 12						; size = 4
_sprintf PROC						; COMDAT

; 1771 :     {

  00000	55		 push	 ebp
  00001	8b ec		 mov	 ebp, esp

; 1392 :         int const _Result = __stdio_common_vsprintf(

  00003	8d 45 10	 lea	 eax, DWORD PTR __Format$[ebp+4]
  00006	50		 push	 eax
  00007	6a 00		 push	 0
  00009	ff 75 0c	 push	 DWORD PTR __Format$[ebp]
  0000c	6a ff		 push	 -1
  0000e	ff 75 08	 push	 DWORD PTR __Buffer$[ebp]
  00011	e8 00 00 00 00	 call	 ___local_stdio_printf_options
  00016	8b 08		 mov	 ecx, DWORD PTR [eax]
  00018	ff 70 04	 push	 DWORD PTR [eax+4]
  0001b	83 c9 01	 or	 ecx, 1
  0001e	51		 push	 ecx
  0001f	e8 00 00 00 00	 call	 ___stdio_common_vsprintf

; 1393 :             _CRT_INTERNAL_LOCAL_PRINTF_OPTIONS | _CRT_INTERNAL_PRINTF_LEGACY_VSPRINTF_NULL_TERMINATION,
; 1394 :             _Buffer, _BufferCount, _Format, _Locale, _ArgList);
; 1395 : 
; 1396 :         return _Result < 0 ? -1 : _Result;

  00024	83 c9 ff	 or	 ecx, -1
  00027	83 c4 1c	 add	 esp, 28			; 0000001cH
  0002a	85 c0		 test	 eax, eax
  0002c	0f 48 c1	 cmovs	 eax, ecx

; 1772 :         int _Result;
; 1773 :         va_list _ArgList;
; 1774 :         __crt_va_start(_ArgList, _Format);
; 1775 : 
; 1776 :         _Result = _vsprintf_l(_Buffer, _Format, NULL, _ArgList);
; 1777 : 
; 1778 :         __crt_va_end(_ArgList);
; 1779 :         return _Result;
; 1780 :     }

  0002f	5d		 pop	 ebp
  00030	c3		 ret	 0
_sprintf ENDP
_TEXT	ENDS
; Function compile flags: /Ogtp
; File C:\Program Files (x86)\Windows Kits\10\Include\10.0.26100.0\ucrt\corecrt_stdio_config.h
;	COMDAT ___local_stdio_printf_options
_TEXT	SEGMENT
___local_stdio_printf_options PROC			; COMDAT

; 91   :         static unsigned __int64 _OptionsStorage;
; 92   :         return &_OptionsStorage;

  00000	b8 00 00 00 00	 mov	 eax, OFFSET ?_OptionsStorage@?1??__local_stdio_printf_options@@9@4_KA ; `__local_stdio_printf_options'::`2'::_OptionsStorage

; 93   :     }

  00005	c3		 ret	 0
___local_stdio_printf_options ENDP
_TEXT	ENDS
; Function compile flags: /Ogtp
; File C:\IAGOS\server\v18\Source\Source\DatabaseServer\QuizDBCtrl.cpp
;	COMDAT ?__empty_global_delete@@YAXPAXI@Z
_TEXT	SEGMENT
___formal$ = 8						; size = 4
___formal$ = 12						; size = 4
?__empty_global_delete@@YAXPAXI@Z PROC			; __empty_global_delete, COMDAT

  00000	c2 00 00	 ret	 0
?__empty_global_delete@@YAXPAXI@Z ENDP			; __empty_global_delete
_TEXT	ENDS
; Function compile flags: /Ogtp
; File C:\IAGOS\server\v18\Source\Source\DatabaseServer\QuizDBCtrl.cpp
;	COMDAT ?__empty_global_delete@@YAXPAX@Z
_TEXT	SEGMENT
___formal$ = 8						; size = 4
?__empty_global_delete@@YAXPAX@Z PROC			; __empty_global_delete, COMDAT

  00000	c2 00 00	 ret	 0
?__empty_global_delete@@YAXPAX@Z ENDP			; __empty_global_delete
_TEXT	ENDS
END
