; Listing generated by Microsoft (R) Optimizing Compiler Version 19.44.35225.0 

	TITLE	C:\IAGOS\server\v18\Source\Output\DatabaseServer\Release\RainbowRaceDBCtrl.obj
	.686P
	.XMM
	include listing.inc
	.model	flat

INCLUDELIB LIBCMT
INCLUDELIB OLDNAMES

PUBLIC	?__empty_global_delete@@YAXPAX@Z		; __empty_global_delete
PUBLIC	?__empty_global_delete@@YAXPAXI@Z		; __empty_global_delete
PUBLIC	___local_stdio_printf_options
PUBLIC	_sprintf
PUBLIC	??0exception@std@@QAE@ABV01@@Z			; std::exception::exception
PUBLIC	??1exception@std@@UAE@XZ			; std::exception::~exception
PUBLIC	?what@exception@std@@UBEPBDXZ			; std::exception::what
PUBLIC	??_Gexception@std@@UAEPAXI@Z			; std::exception::`scalar deleting destructor'
PUBLIC	??0bad_alloc@std@@QAE@ABV01@@Z			; std::bad_alloc::bad_alloc
PUBLIC	??_Gbad_alloc@std@@UAEPAXI@Z			; std::bad_alloc::`scalar deleting destructor'
PUBLIC	??0bad_array_new_length@std@@QAE@XZ		; std::bad_array_new_length::bad_array_new_length
PUBLIC	??1bad_array_new_length@std@@UAE@XZ		; std::bad_array_new_length::~bad_array_new_length
PUBLIC	??0bad_array_new_length@std@@QAE@ABV01@@Z	; std::bad_array_new_length::bad_array_new_length
PUBLIC	??_Gbad_array_new_length@std@@UAEPAXI@Z		; std::bad_array_new_length::`scalar deleting destructor'
PUBLIC	?_Throw_bad_array_new_length@std@@YAXXZ		; std::_Throw_bad_array_new_length
PUBLIC	??1?$vector@KV?$allocator@K@std@@@std@@QAE@XZ	; std::vector<unsigned long,std::allocator<unsigned long> >::~vector<unsigned long,std::allocator<unsigned long> >
PUBLIC	?_Xlength@?$vector@KV?$allocator@K@std@@@std@@CAXXZ ; std::vector<unsigned long,std::allocator<unsigned long> >::_Xlength
PUBLIC	??$_Allocate_manually_vector_aligned@U_Default_allocate_traits@std@@@std@@YAPAXI@Z ; std::_Allocate_manually_vector_aligned<std::_Default_allocate_traits>
PUBLIC	?OnTimer@CDbController@@UAEXXZ			; CDbController::OnTimer
PUBLIC	??0CRainbowRaceDBCtrl@@QAE@XZ			; CRainbowRaceDBCtrl::CRainbowRaceDBCtrl
PUBLIC	??1CRainbowRaceDBCtrl@@UAE@XZ			; CRainbowRaceDBCtrl::~CRainbowRaceDBCtrl
PUBLIC	?Handler@CRainbowRaceDBCtrl@@UAEXPAUtagDB_OVERLAPPED_PLUS@@K@Z ; CRainbowRaceDBCtrl::Handler
PUBLIC	?LoadRainbowRace@CRainbowRaceDBCtrl@@AAEXK@Z	; CRainbowRaceDBCtrl::LoadRainbowRace
PUBLIC	?Application@CRainbowRaceDBCtrl@@AAEXK@Z	; CRainbowRaceDBCtrl::Application
PUBLIC	?FailedUser@CRainbowRaceDBCtrl@@AAEXK@Z		; CRainbowRaceDBCtrl::FailedUser
PUBLIC	?UpdateRanking@CRainbowRaceDBCtrl@@AAEXKH@Z	; CRainbowRaceDBCtrl::UpdateRanking
PUBLIC	?UpdateWinnersLosers@CRainbowRaceDBCtrl@@AAEXXZ	; CRainbowRaceDBCtrl::UpdateWinnersLosers
PUBLIC	??_GCRainbowRaceDBCtrl@@UAEPAXI@Z		; CRainbowRaceDBCtrl::`scalar deleting destructor'
PUBLIC	??0CRainbowRaceDBMng@@QAE@XZ			; CRainbowRaceDBMng::CRainbowRaceDBMng
PUBLIC	??1CRainbowRaceDBMng@@QAE@XZ			; CRainbowRaceDBMng::~CRainbowRaceDBMng
PUBLIC	?GetInstance@CRainbowRaceDBMng@@SAPAV1@XZ	; CRainbowRaceDBMng::GetInstance
PUBLIC	??$?5H@CAr@@QAEAAV0@AAH@Z			; CAr::operator>><int>
PUBLIC	??$?5K@CAr@@QAEAAV0@AAK@Z			; CAr::operator>><unsigned long>
PUBLIC	??$_Emplace_reallocate@K@?$vector@KV?$allocator@K@std@@@std@@AAEPAKQAK$$QAK@Z ; std::vector<unsigned long,std::allocator<unsigned long> >::_Emplace_reallocate<unsigned long>
PUBLIC	??$_Copy_memmove@PAKPAK@std@@YAPAKPAK00@Z	; std::_Copy_memmove<unsigned long *,unsigned long *>
PUBLIC	??$_Copy_memmove_tail@PAK@std@@YAPAKQBDQAKII@Z	; std::_Copy_memmove_tail<unsigned long *>
PUBLIC	?_OptionsStorage@?1??__local_stdio_printf_options@@9@4_KA ; `__local_stdio_printf_options'::`2'::_OptionsStorage
PUBLIC	??_7exception@std@@6B@				; std::exception::`vftable'
PUBLIC	??_C@_0BC@EOODALEL@Unknown?5exception@		; `string'
PUBLIC	??_7bad_alloc@std@@6B@				; std::bad_alloc::`vftable'
PUBLIC	??_7bad_array_new_length@std@@6B@		; std::bad_array_new_length::`vftable'
PUBLIC	??_C@_0BF@KINCDENJ@bad?5array?5new?5length@	; `string'
PUBLIC	??_R0?AVexception@std@@@8			; std::exception `RTTI Type Descriptor'
PUBLIC	__CT??_R0?AVexception@std@@@8??0exception@std@@QAE@ABV01@@Z12
PUBLIC	__TI3?AVbad_array_new_length@std@@
PUBLIC	__CTA3?AVbad_array_new_length@std@@
PUBLIC	??_R0?AVbad_array_new_length@std@@@8		; std::bad_array_new_length `RTTI Type Descriptor'
PUBLIC	__CT??_R0?AVbad_array_new_length@std@@@8??0bad_array_new_length@std@@QAE@ABV01@@Z12
PUBLIC	??_R0?AVbad_alloc@std@@@8			; std::bad_alloc `RTTI Type Descriptor'
PUBLIC	__CT??_R0?AVbad_alloc@std@@@8??0bad_alloc@std@@QAE@ABV01@@Z12
PUBLIC	??_C@_09GBAEEKDE@?$CFs?0?5?$CFd?7?$CFs@		; `string'
PUBLIC	??_C@_0BA@FOIKENOD@vector?5too?5long@		; `string'
PUBLIC	??_R4exception@std@@6B@				; std::exception::`RTTI Complete Object Locator'
PUBLIC	??_R3exception@std@@8				; std::exception::`RTTI Class Hierarchy Descriptor'
PUBLIC	??_R2exception@std@@8				; std::exception::`RTTI Base Class Array'
PUBLIC	??_R1A@?0A@EA@exception@std@@8			; std::exception::`RTTI Base Class Descriptor at (0,-1,0,64)'
PUBLIC	??_R4bad_array_new_length@std@@6B@		; std::bad_array_new_length::`RTTI Complete Object Locator'
PUBLIC	??_R3bad_array_new_length@std@@8		; std::bad_array_new_length::`RTTI Class Hierarchy Descriptor'
PUBLIC	??_R2bad_array_new_length@std@@8		; std::bad_array_new_length::`RTTI Base Class Array'
PUBLIC	??_R1A@?0A@EA@bad_array_new_length@std@@8	; std::bad_array_new_length::`RTTI Base Class Descriptor at (0,-1,0,64)'
PUBLIC	??_R1A@?0A@EA@bad_alloc@std@@8			; std::bad_alloc::`RTTI Base Class Descriptor at (0,-1,0,64)'
PUBLIC	??_R3bad_alloc@std@@8				; std::bad_alloc::`RTTI Class Hierarchy Descriptor'
PUBLIC	??_R2bad_alloc@std@@8				; std::bad_alloc::`RTTI Base Class Array'
PUBLIC	??_R4bad_alloc@std@@6B@				; std::bad_alloc::`RTTI Complete Object Locator'
PUBLIC	??_7CRainbowRaceDBCtrl@@6B@			; CRainbowRaceDBCtrl::`vftable'
PUBLIC	??_C@_0CO@BONCMNCH@RAINBOWRACE_STR?5?8S1?8?0?5?8?$CF02d?8?0?50@ ; `string'
PUBLIC	??_C@_0EH@KIFOPPJD@C?3?2IAGOS?2server?2v18?2Source?2Sour@ ; `string'
PUBLIC	??_C@_06DJGFEEME@nTimes@			; `string'
PUBLIC	??_C@_0CP@LHHHJKCB@RAINBOWRACE_STR?5?8S2?8?0?5?8?$CF02d?8?0?5?$CF@ ; `string'
PUBLIC	??_C@_0L@FONFFEJF@m_idPlayer@			; `string'
PUBLIC	??_C@_0CP@NEHAEDAF@RAINBOWRACE_STR?5?8S3?8?0?5?8?$CF02d?8?0?5?$CF@ ; `string'
PUBLIC	??_C@_0CM@OADPELKK@RAINBOWRACE_STR?5?8I1?8?0?5?8?$CF02d?8?0?5?$CF@ ; `string'
PUBLIC	??_C@_0CM@IMCBGFP@RAINBOWRACE_STR?5?8U3?8?0?5?8?$CF02d?8?0?5?$CF@ ; `string'
PUBLIC	??_C@_0CN@DNLIHHMJ@RAINBOWRACE_STR?5?8U1?8?0?5?8?$CF02d?8?0?5?$CF@ ; `string'
PUBLIC	??_C@_0CP@DODFNABB@RAINBOWRACE_STR?5?8U2?8?0?5?8?$CF02d?8?0?5?$CF@ ; `string'
PUBLIC	??_C@_0DB@CEBHCKG@CRainbowRaceDBMng?5?9?5m_RRDbCtrl?4@ ; `string'
PUBLIC	??_R4CRainbowRaceDBCtrl@@6B@			; CRainbowRaceDBCtrl::`RTTI Complete Object Locator'
PUBLIC	??_R0?AVCRainbowRaceDBCtrl@@@8			; CRainbowRaceDBCtrl `RTTI Type Descriptor'
PUBLIC	??_R3CRainbowRaceDBCtrl@@8			; CRainbowRaceDBCtrl::`RTTI Class Hierarchy Descriptor'
PUBLIC	??_R2CRainbowRaceDBCtrl@@8			; CRainbowRaceDBCtrl::`RTTI Base Class Array'
PUBLIC	??_R1A@?0A@EA@CRainbowRaceDBCtrl@@8		; CRainbowRaceDBCtrl::`RTTI Base Class Descriptor at (0,-1,0,64)'
PUBLIC	??_R1A@?0A@EA@CDbController@@8			; CDbController::`RTTI Base Class Descriptor at (0,-1,0,64)'
PUBLIC	??_R0?AVCDbController@@@8			; CDbController `RTTI Type Descriptor'
PUBLIC	??_R3CDbController@@8				; CDbController::`RTTI Class Hierarchy Descriptor'
PUBLIC	??_R2CDbController@@8				; CDbController::`RTTI Base Class Array'
EXTRN	??2@YAPAXI@Z:PROC				; operator new
EXTRN	??3@YAXPAXI@Z:PROC				; operator delete
EXTRN	_atexit:PROC
EXTRN	__Init_thread_header:PROC
EXTRN	__Init_thread_abort:PROC
EXTRN	__Init_thread_footer:PROC
EXTRN	__invoke_watson:PROC
EXTRN	___stdio_common_vsprintf:PROC
EXTRN	?_Xlength_error@std@@YAXPBD@Z:PROC		; std::_Xlength_error
EXTRN	___std_exception_copy:PROC
EXTRN	___std_exception_destroy:PROC
EXTRN	??_Eexception@std@@UAEPAXI@Z:PROC		; std::exception::`vector deleting destructor'
EXTRN	??_Ebad_alloc@std@@UAEPAXI@Z:PROC		; std::bad_alloc::`vector deleting destructor'
EXTRN	??_Ebad_array_new_length@std@@UAEPAXI@Z:PROC	; std::bad_array_new_length::`vector deleting destructor'
EXTRN	?Error@@YAPBDPBDZZ:PROC				; Error
EXTRN	?WriteLog@@YAXPBDZZ:PROC			; WriteLog
EXTRN	?Exec@CQuery@@QAEHPBD@Z:PROC			; CQuery::Exec
EXTRN	?Fetch@CQuery@@QAEHXZ:PROC			; CQuery::Fetch
EXTRN	?GetInt@CQuery@@QAEHPAD@Z:PROC			; CQuery::GetInt
EXTRN	??0CAr@@QAE@PAXI@Z:PROC				; CAr::CAr
EXTRN	??1CAr@@QAE@XZ:PROC				; CAr::~CAr
EXTRN	??0CDbController@@QAE@XZ:PROC			; CDbController::CDbController
EXTRN	??1CDbController@@UAE@XZ:PROC			; CDbController::~CDbController
EXTRN	?CreateDbHandler@CDbController@@QAEHK@Z:PROC	; CDbController::CreateDbHandler
EXTRN	?CloseDbHandler@CDbController@@QAEXXZ:PROC	; CDbController::CloseDbHandler
EXTRN	??_ECRainbowRaceDBCtrl@@UAEPAXI@Z:PROC		; CRainbowRaceDBCtrl::`vector deleting destructor'
EXTRN	?GetInstance@CDPTrans@@SAPAV1@XZ:PROC		; CDPTrans::GetInstance
EXTRN	?SendRainbowRaceInfo@CDPTrans@@QAEXAAV?$vector@KV?$allocator@K@std@@@std@@0K@Z:PROC ; CDPTrans::SendRainbowRaceInfo
EXTRN	@__security_check_cookie@4:PROC
EXTRN	__CxxThrowException@8:PROC
EXTRN	___CxxFrameHandler3:PROC
EXTRN	__chkstk:PROC
EXTRN	_memmove:PROC
EXTRN	_memset:PROC
EXTRN	__Init_thread_epoch:DWORD
EXTRN	??_7type_info@@6B@:QWORD			; type_info::`vftable'
EXTRN	?g_appInfo@@3UAppInfo@@A:QWORD			; g_appInfo
EXTRN	___security_cookie:DWORD
EXTRN	__tls_array:DWORD
EXTRN	__tls_index:DWORD
;	COMDAT ?_OptionsStorage@?1??__local_stdio_printf_options@@9@4_KA
_BSS	SEGMENT
?_OptionsStorage@?1??__local_stdio_printf_options@@9@4_KA DQ 01H DUP (?) ; `__local_stdio_printf_options'::`2'::_OptionsStorage
_BSS	ENDS
;	COMDAT ?sRainbowRaceDBMng@?1??GetInstance@CRainbowRaceDBMng@@SAPAV2@XZ@4V2@A
_BSS	SEGMENT
?sRainbowRaceDBMng@?1??GetInstance@CRainbowRaceDBMng@@SAPAV2@XZ@4V2@A DB 018H DUP (?) ; `CRainbowRaceDBMng::GetInstance'::`2'::sRainbowRaceDBMng
_BSS	ENDS
;	COMDAT ?$TSS0@?1??GetInstance@CRainbowRaceDBMng@@SAPAV2@XZ@4HA
_BSS	SEGMENT
?$TSS0@?1??GetInstance@CRainbowRaceDBMng@@SAPAV2@XZ@4HA DD 01H DUP (?) ; `CRainbowRaceDBMng::GetInstance'::`2'::$TSS0
_BSS	ENDS
;	COMDAT ??_R2CDbController@@8
rdata$r	SEGMENT
??_R2CDbController@@8 DD FLAT:??_R1A@?0A@EA@CDbController@@8 ; CDbController::`RTTI Base Class Array'
rdata$r	ENDS
;	COMDAT ??_R3CDbController@@8
rdata$r	SEGMENT
??_R3CDbController@@8 DD 00H				; CDbController::`RTTI Class Hierarchy Descriptor'
	DD	00H
	DD	01H
	DD	FLAT:??_R2CDbController@@8
rdata$r	ENDS
;	COMDAT ??_R0?AVCDbController@@@8
data$rs	SEGMENT
??_R0?AVCDbController@@@8 DD FLAT:??_7type_info@@6B@	; CDbController `RTTI Type Descriptor'
	DD	00H
	DB	'.?AVCDbController@@', 00H
data$rs	ENDS
;	COMDAT ??_R1A@?0A@EA@CDbController@@8
rdata$r	SEGMENT
??_R1A@?0A@EA@CDbController@@8 DD FLAT:??_R0?AVCDbController@@@8 ; CDbController::`RTTI Base Class Descriptor at (0,-1,0,64)'
	DD	00H
	DD	00H
	DD	0ffffffffH
	DD	00H
	DD	040H
	DD	FLAT:??_R3CDbController@@8
rdata$r	ENDS
;	COMDAT ??_R1A@?0A@EA@CRainbowRaceDBCtrl@@8
rdata$r	SEGMENT
??_R1A@?0A@EA@CRainbowRaceDBCtrl@@8 DD FLAT:??_R0?AVCRainbowRaceDBCtrl@@@8 ; CRainbowRaceDBCtrl::`RTTI Base Class Descriptor at (0,-1,0,64)'
	DD	01H
	DD	00H
	DD	0ffffffffH
	DD	00H
	DD	040H
	DD	FLAT:??_R3CRainbowRaceDBCtrl@@8
rdata$r	ENDS
;	COMDAT ??_R2CRainbowRaceDBCtrl@@8
rdata$r	SEGMENT
??_R2CRainbowRaceDBCtrl@@8 DD FLAT:??_R1A@?0A@EA@CRainbowRaceDBCtrl@@8 ; CRainbowRaceDBCtrl::`RTTI Base Class Array'
	DD	FLAT:??_R1A@?0A@EA@CDbController@@8
rdata$r	ENDS
;	COMDAT ??_R3CRainbowRaceDBCtrl@@8
rdata$r	SEGMENT
??_R3CRainbowRaceDBCtrl@@8 DD 00H			; CRainbowRaceDBCtrl::`RTTI Class Hierarchy Descriptor'
	DD	00H
	DD	02H
	DD	FLAT:??_R2CRainbowRaceDBCtrl@@8
rdata$r	ENDS
;	COMDAT ??_R0?AVCRainbowRaceDBCtrl@@@8
data$rs	SEGMENT
??_R0?AVCRainbowRaceDBCtrl@@@8 DD FLAT:??_7type_info@@6B@ ; CRainbowRaceDBCtrl `RTTI Type Descriptor'
	DD	00H
	DB	'.?AVCRainbowRaceDBCtrl@@', 00H
data$rs	ENDS
;	COMDAT ??_R4CRainbowRaceDBCtrl@@6B@
rdata$r	SEGMENT
??_R4CRainbowRaceDBCtrl@@6B@ DD 00H			; CRainbowRaceDBCtrl::`RTTI Complete Object Locator'
	DD	00H
	DD	00H
	DD	FLAT:??_R0?AVCRainbowRaceDBCtrl@@@8
	DD	FLAT:??_R3CRainbowRaceDBCtrl@@8
rdata$r	ENDS
;	COMDAT ??_C@_0DB@CEBHCKG@CRainbowRaceDBMng?5?9?5m_RRDbCtrl?4@
CONST	SEGMENT
??_C@_0DB@CEBHCKG@CRainbowRaceDBMng?5?9?5m_RRDbCtrl?4@ DB 'CRainbowRaceDB'
	DB	'Mng - m_RRDbCtrl.CreateDbHandler()', 00H	; `string'
CONST	ENDS
;	COMDAT ??_C@_0CP@DODFNABB@RAINBOWRACE_STR?5?8U2?8?0?5?8?$CF02d?8?0?5?$CF@
CONST	SEGMENT
??_C@_0CP@DODFNABB@RAINBOWRACE_STR?5?8U2?8?0?5?8?$CF02d?8?0?5?$CF@ DB 'RA'
	DB	'INBOWRACE_STR ''U2'', ''%02d'', %d, ''0000000'', 0', 00H ; `string'
CONST	ENDS
;	COMDAT ??_C@_0CN@DNLIHHMJ@RAINBOWRACE_STR?5?8U1?8?0?5?8?$CF02d?8?0?5?$CF@
CONST	SEGMENT
??_C@_0CN@DNLIHHMJ@RAINBOWRACE_STR?5?8U1?8?0?5?8?$CF02d?8?0?5?$CF@ DB 'RA'
	DB	'INBOWRACE_STR ''U1'', ''%02d'', %d, ''%07d'', %d', 00H ; `string'
CONST	ENDS
;	COMDAT ??_C@_0CM@IMCBGFP@RAINBOWRACE_STR?5?8U3?8?0?5?8?$CF02d?8?0?5?$CF@
CONST	SEGMENT
??_C@_0CM@IMCBGFP@RAINBOWRACE_STR?5?8U3?8?0?5?8?$CF02d?8?0?5?$CF@ DB 'RAI'
	DB	'NBOWRACE_STR ''U3'', ''%02d'', %d, ''%07d'', 0', 00H ; `string'
CONST	ENDS
;	COMDAT ??_C@_0CM@OADPELKK@RAINBOWRACE_STR?5?8I1?8?0?5?8?$CF02d?8?0?5?$CF@
CONST	SEGMENT
??_C@_0CM@OADPELKK@RAINBOWRACE_STR?5?8I1?8?0?5?8?$CF02d?8?0?5?$CF@ DB 'RA'
	DB	'INBOWRACE_STR ''I1'', ''%02d'', %d, ''%07d'', 0', 00H ; `string'
CONST	ENDS
;	COMDAT ??_C@_0CP@NEHAEDAF@RAINBOWRACE_STR?5?8S3?8?0?5?8?$CF02d?8?0?5?$CF@
CONST	SEGMENT
??_C@_0CP@NEHAEDAF@RAINBOWRACE_STR?5?8S3?8?0?5?8?$CF02d?8?0?5?$CF@ DB 'RA'
	DB	'INBOWRACE_STR ''S3'', ''%02d'', %d, ''0000000'', 0', 00H ; `string'
CONST	ENDS
;	COMDAT ??_C@_0L@FONFFEJF@m_idPlayer@
CONST	SEGMENT
??_C@_0L@FONFFEJF@m_idPlayer@ DB 'm_idPlayer', 00H	; `string'
CONST	ENDS
;	COMDAT ??_C@_0CP@LHHHJKCB@RAINBOWRACE_STR?5?8S2?8?0?5?8?$CF02d?8?0?5?$CF@
CONST	SEGMENT
??_C@_0CP@LHHHJKCB@RAINBOWRACE_STR?5?8S2?8?0?5?8?$CF02d?8?0?5?$CF@ DB 'RA'
	DB	'INBOWRACE_STR ''S2'', ''%02d'', %d, ''0000000'', 0', 00H ; `string'
CONST	ENDS
;	COMDAT ??_C@_06DJGFEEME@nTimes@
CONST	SEGMENT
??_C@_06DJGFEEME@nTimes@ DB 'nTimes', 00H		; `string'
CONST	ENDS
;	COMDAT ??_C@_0EH@KIFOPPJD@C?3?2IAGOS?2server?2v18?2Source?2Sour@
CONST	SEGMENT
??_C@_0EH@KIFOPPJD@C?3?2IAGOS?2server?2v18?2Source?2Sour@ DB 'C:\IAGOS\se'
	DB	'rver\v18\Source\Source\DatabaseServer\RainbowRaceDBCtrl.cpp', 00H ; `string'
CONST	ENDS
;	COMDAT ??_C@_0CO@BONCMNCH@RAINBOWRACE_STR?5?8S1?8?0?5?8?$CF02d?8?0?50@
CONST	SEGMENT
??_C@_0CO@BONCMNCH@RAINBOWRACE_STR?5?8S1?8?0?5?8?$CF02d?8?0?50@ DB 'RAINB'
	DB	'OWRACE_STR ''S1'', ''%02d'', 0, ''0000000'', 0', 00H ; `string'
CONST	ENDS
;	COMDAT ??_7CRainbowRaceDBCtrl@@6B@
CONST	SEGMENT
??_7CRainbowRaceDBCtrl@@6B@ DD FLAT:??_R4CRainbowRaceDBCtrl@@6B@ ; CRainbowRaceDBCtrl::`vftable'
	DD	FLAT:??_ECRainbowRaceDBCtrl@@UAEPAXI@Z
	DD	FLAT:?Handler@CRainbowRaceDBCtrl@@UAEXPAUtagDB_OVERLAPPED_PLUS@@K@Z
	DD	FLAT:?OnTimer@CDbController@@UAEXXZ
CONST	ENDS
;	COMDAT ??_R4bad_alloc@std@@6B@
rdata$r	SEGMENT
??_R4bad_alloc@std@@6B@ DD 00H				; std::bad_alloc::`RTTI Complete Object Locator'
	DD	00H
	DD	00H
	DD	FLAT:??_R0?AVbad_alloc@std@@@8
	DD	FLAT:??_R3bad_alloc@std@@8
rdata$r	ENDS
;	COMDAT ??_R2bad_alloc@std@@8
rdata$r	SEGMENT
??_R2bad_alloc@std@@8 DD FLAT:??_R1A@?0A@EA@bad_alloc@std@@8 ; std::bad_alloc::`RTTI Base Class Array'
	DD	FLAT:??_R1A@?0A@EA@exception@std@@8
rdata$r	ENDS
;	COMDAT ??_R3bad_alloc@std@@8
rdata$r	SEGMENT
??_R3bad_alloc@std@@8 DD 00H				; std::bad_alloc::`RTTI Class Hierarchy Descriptor'
	DD	00H
	DD	02H
	DD	FLAT:??_R2bad_alloc@std@@8
rdata$r	ENDS
;	COMDAT ??_R1A@?0A@EA@bad_alloc@std@@8
rdata$r	SEGMENT
??_R1A@?0A@EA@bad_alloc@std@@8 DD FLAT:??_R0?AVbad_alloc@std@@@8 ; std::bad_alloc::`RTTI Base Class Descriptor at (0,-1,0,64)'
	DD	01H
	DD	00H
	DD	0ffffffffH
	DD	00H
	DD	040H
	DD	FLAT:??_R3bad_alloc@std@@8
rdata$r	ENDS
;	COMDAT ??_R1A@?0A@EA@bad_array_new_length@std@@8
rdata$r	SEGMENT
??_R1A@?0A@EA@bad_array_new_length@std@@8 DD FLAT:??_R0?AVbad_array_new_length@std@@@8 ; std::bad_array_new_length::`RTTI Base Class Descriptor at (0,-1,0,64)'
	DD	02H
	DD	00H
	DD	0ffffffffH
	DD	00H
	DD	040H
	DD	FLAT:??_R3bad_array_new_length@std@@8
rdata$r	ENDS
;	COMDAT ??_R2bad_array_new_length@std@@8
rdata$r	SEGMENT
??_R2bad_array_new_length@std@@8 DD FLAT:??_R1A@?0A@EA@bad_array_new_length@std@@8 ; std::bad_array_new_length::`RTTI Base Class Array'
	DD	FLAT:??_R1A@?0A@EA@bad_alloc@std@@8
	DD	FLAT:??_R1A@?0A@EA@exception@std@@8
rdata$r	ENDS
;	COMDAT ??_R3bad_array_new_length@std@@8
rdata$r	SEGMENT
??_R3bad_array_new_length@std@@8 DD 00H			; std::bad_array_new_length::`RTTI Class Hierarchy Descriptor'
	DD	00H
	DD	03H
	DD	FLAT:??_R2bad_array_new_length@std@@8
rdata$r	ENDS
;	COMDAT ??_R4bad_array_new_length@std@@6B@
rdata$r	SEGMENT
??_R4bad_array_new_length@std@@6B@ DD 00H		; std::bad_array_new_length::`RTTI Complete Object Locator'
	DD	00H
	DD	00H
	DD	FLAT:??_R0?AVbad_array_new_length@std@@@8
	DD	FLAT:??_R3bad_array_new_length@std@@8
rdata$r	ENDS
;	COMDAT ??_R1A@?0A@EA@exception@std@@8
rdata$r	SEGMENT
??_R1A@?0A@EA@exception@std@@8 DD FLAT:??_R0?AVexception@std@@@8 ; std::exception::`RTTI Base Class Descriptor at (0,-1,0,64)'
	DD	00H
	DD	00H
	DD	0ffffffffH
	DD	00H
	DD	040H
	DD	FLAT:??_R3exception@std@@8
rdata$r	ENDS
;	COMDAT ??_R2exception@std@@8
rdata$r	SEGMENT
??_R2exception@std@@8 DD FLAT:??_R1A@?0A@EA@exception@std@@8 ; std::exception::`RTTI Base Class Array'
rdata$r	ENDS
;	COMDAT ??_R3exception@std@@8
rdata$r	SEGMENT
??_R3exception@std@@8 DD 00H				; std::exception::`RTTI Class Hierarchy Descriptor'
	DD	00H
	DD	01H
	DD	FLAT:??_R2exception@std@@8
rdata$r	ENDS
;	COMDAT ??_R4exception@std@@6B@
rdata$r	SEGMENT
??_R4exception@std@@6B@ DD 00H				; std::exception::`RTTI Complete Object Locator'
	DD	00H
	DD	00H
	DD	FLAT:??_R0?AVexception@std@@@8
	DD	FLAT:??_R3exception@std@@8
rdata$r	ENDS
;	COMDAT ??_C@_0BA@FOIKENOD@vector?5too?5long@
CONST	SEGMENT
??_C@_0BA@FOIKENOD@vector?5too?5long@ DB 'vector too long', 00H ; `string'
CONST	ENDS
;	COMDAT ??_C@_09GBAEEKDE@?$CFs?0?5?$CFd?7?$CFs@
CONST	SEGMENT
??_C@_09GBAEEKDE@?$CFs?0?5?$CFd?7?$CFs@ DB '%s, %d', 09H, '%s', 00H ; `string'
CONST	ENDS
;	COMDAT __CT??_R0?AVbad_alloc@std@@@8??0bad_alloc@std@@QAE@ABV01@@Z12
xdata$x	SEGMENT
__CT??_R0?AVbad_alloc@std@@@8??0bad_alloc@std@@QAE@ABV01@@Z12 DD 010H
	DD	FLAT:??_R0?AVbad_alloc@std@@@8
	DD	00H
	DD	0ffffffffH
	ORG $+4
	DD	0cH
	DD	FLAT:??0bad_alloc@std@@QAE@ABV01@@Z
xdata$x	ENDS
;	COMDAT ??_R0?AVbad_alloc@std@@@8
data$r	SEGMENT
??_R0?AVbad_alloc@std@@@8 DD FLAT:??_7type_info@@6B@	; std::bad_alloc `RTTI Type Descriptor'
	DD	00H
	DB	'.?AVbad_alloc@std@@', 00H
data$r	ENDS
;	COMDAT __CT??_R0?AVbad_array_new_length@std@@@8??0bad_array_new_length@std@@QAE@ABV01@@Z12
xdata$x	SEGMENT
__CT??_R0?AVbad_array_new_length@std@@@8??0bad_array_new_length@std@@QAE@ABV01@@Z12 DD 00H
	DD	FLAT:??_R0?AVbad_array_new_length@std@@@8
	DD	00H
	DD	0ffffffffH
	ORG $+4
	DD	0cH
	DD	FLAT:??0bad_array_new_length@std@@QAE@ABV01@@Z
xdata$x	ENDS
;	COMDAT ??_R0?AVbad_array_new_length@std@@@8
data$r	SEGMENT
??_R0?AVbad_array_new_length@std@@@8 DD FLAT:??_7type_info@@6B@ ; std::bad_array_new_length `RTTI Type Descriptor'
	DD	00H
	DB	'.?AVbad_array_new_length@std@@', 00H
data$r	ENDS
;	COMDAT __CTA3?AVbad_array_new_length@std@@
xdata$x	SEGMENT
__CTA3?AVbad_array_new_length@std@@ DD 03H
	DD	FLAT:__CT??_R0?AVbad_array_new_length@std@@@8??0bad_array_new_length@std@@QAE@ABV01@@Z12
	DD	FLAT:__CT??_R0?AVbad_alloc@std@@@8??0bad_alloc@std@@QAE@ABV01@@Z12
	DD	FLAT:__CT??_R0?AVexception@std@@@8??0exception@std@@QAE@ABV01@@Z12
xdata$x	ENDS
;	COMDAT __TI3?AVbad_array_new_length@std@@
xdata$x	SEGMENT
__TI3?AVbad_array_new_length@std@@ DD 00H
	DD	FLAT:??1bad_array_new_length@std@@UAE@XZ
	DD	00H
	DD	FLAT:__CTA3?AVbad_array_new_length@std@@
xdata$x	ENDS
;	COMDAT __CT??_R0?AVexception@std@@@8??0exception@std@@QAE@ABV01@@Z12
xdata$x	SEGMENT
__CT??_R0?AVexception@std@@@8??0exception@std@@QAE@ABV01@@Z12 DD 00H
	DD	FLAT:??_R0?AVexception@std@@@8
	DD	00H
	DD	0ffffffffH
	ORG $+4
	DD	0cH
	DD	FLAT:??0exception@std@@QAE@ABV01@@Z
xdata$x	ENDS
;	COMDAT ??_R0?AVexception@std@@@8
data$r	SEGMENT
??_R0?AVexception@std@@@8 DD FLAT:??_7type_info@@6B@	; std::exception `RTTI Type Descriptor'
	DD	00H
	DB	'.?AVexception@std@@', 00H
data$r	ENDS
;	COMDAT ??_C@_0BF@KINCDENJ@bad?5array?5new?5length@
CONST	SEGMENT
??_C@_0BF@KINCDENJ@bad?5array?5new?5length@ DB 'bad array new length', 00H ; `string'
CONST	ENDS
;	COMDAT ??_7bad_array_new_length@std@@6B@
CONST	SEGMENT
??_7bad_array_new_length@std@@6B@ DD FLAT:??_R4bad_array_new_length@std@@6B@ ; std::bad_array_new_length::`vftable'
	DD	FLAT:??_Ebad_array_new_length@std@@UAEPAXI@Z
	DD	FLAT:?what@exception@std@@UBEPBDXZ
CONST	ENDS
;	COMDAT ??_7bad_alloc@std@@6B@
CONST	SEGMENT
??_7bad_alloc@std@@6B@ DD FLAT:??_R4bad_alloc@std@@6B@	; std::bad_alloc::`vftable'
	DD	FLAT:??_Ebad_alloc@std@@UAEPAXI@Z
	DD	FLAT:?what@exception@std@@UBEPBDXZ
CONST	ENDS
;	COMDAT ??_C@_0BC@EOODALEL@Unknown?5exception@
CONST	SEGMENT
??_C@_0BC@EOODALEL@Unknown?5exception@ DB 'Unknown exception', 00H ; `string'
CONST	ENDS
;	COMDAT ??_7exception@std@@6B@
CONST	SEGMENT
??_7exception@std@@6B@ DD FLAT:??_R4exception@std@@6B@	; std::exception::`vftable'
	DD	FLAT:??_Eexception@std@@UAEPAXI@Z
	DD	FLAT:?what@exception@std@@UBEPBDXZ
CONST	ENDS
;	COMDAT xdata$x
xdata$x	SEGMENT
__unwindtable$?GetInstance@CRainbowRaceDBMng@@SAPAV1@XZ DD 0ffffffffH
	DD	FLAT:__unwindfunclet$?GetInstance@CRainbowRaceDBMng@@SAPAV1@XZ$0
__ehfuncinfo$?GetInstance@CRainbowRaceDBMng@@SAPAV1@XZ DD 019930522H
	DD	01H
	DD	FLAT:__unwindtable$?GetInstance@CRainbowRaceDBMng@@SAPAV1@XZ
	DD	2 DUP(00H)
	DD	2 DUP(00H)
	DD	00H
	DD	01H
xdata$x	ENDS
;	COMDAT xdata$x
xdata$x	SEGMENT
__ehfuncinfo$??1CRainbowRaceDBMng@@QAE@XZ DD 019930522H
	DD	00H
	DD	00H
	DD	2 DUP(00H)
	DD	2 DUP(00H)
	DD	00H
	DD	05H
xdata$x	ENDS
;	COMDAT xdata$x
xdata$x	SEGMENT
__unwindtable$??0CRainbowRaceDBMng@@QAE@XZ DD 0ffffffffH
	DD	FLAT:__unwindfunclet$??0CRainbowRaceDBMng@@QAE@XZ$0
__ehfuncinfo$??0CRainbowRaceDBMng@@QAE@XZ DD 019930522H
	DD	01H
	DD	FLAT:__unwindtable$??0CRainbowRaceDBMng@@QAE@XZ
	DD	2 DUP(00H)
	DD	2 DUP(00H)
	DD	00H
	DD	01H
xdata$x	ENDS
;	COMDAT xdata$x
xdata$x	SEGMENT
__unwindtable$?LoadRainbowRace@CRainbowRaceDBCtrl@@AAEXK@Z DD 0ffffffffH
	DD	FLAT:__unwindfunclet$?LoadRainbowRace@CRainbowRaceDBCtrl@@AAEXK@Z$0
	DD	00H
	DD	FLAT:__unwindfunclet$?LoadRainbowRace@CRainbowRaceDBCtrl@@AAEXK@Z$1
__ehfuncinfo$?LoadRainbowRace@CRainbowRaceDBCtrl@@AAEXK@Z DD 019930522H
	DD	02H
	DD	FLAT:__unwindtable$?LoadRainbowRace@CRainbowRaceDBCtrl@@AAEXK@Z
	DD	2 DUP(00H)
	DD	2 DUP(00H)
	DD	00H
	DD	01H
xdata$x	ENDS
;	COMDAT xdata$x
xdata$x	SEGMENT
__unwindtable$?Handler@CRainbowRaceDBCtrl@@UAEXPAUtagDB_OVERLAPPED_PLUS@@K@Z DD 0ffffffffH
	DD	FLAT:__unwindfunclet$?Handler@CRainbowRaceDBCtrl@@UAEXPAUtagDB_OVERLAPPED_PLUS@@K@Z$0
	DD	0ffffffffH
	DD	FLAT:__unwindfunclet$?Handler@CRainbowRaceDBCtrl@@UAEXPAUtagDB_OVERLAPPED_PLUS@@K@Z$1
	DD	0ffffffffH
	DD	FLAT:__unwindfunclet$?Handler@CRainbowRaceDBCtrl@@UAEXPAUtagDB_OVERLAPPED_PLUS@@K@Z$2
__ehfuncinfo$?Handler@CRainbowRaceDBCtrl@@UAEXPAUtagDB_OVERLAPPED_PLUS@@K@Z DD 019930522H
	DD	03H
	DD	FLAT:__unwindtable$?Handler@CRainbowRaceDBCtrl@@UAEXPAUtagDB_OVERLAPPED_PLUS@@K@Z
	DD	2 DUP(00H)
	DD	2 DUP(00H)
	DD	00H
	DD	01H
xdata$x	ENDS
; Function compile flags: /Ogtp
; File C:\Program Files\Microsoft Visual Studio\2022\Professional\VC\Tools\MSVC\14.44.35207\include\xutility
;	COMDAT ??$_Copy_memmove_tail@PAK@std@@YAPAKQBDQAKII@Z
_TEXT	SEGMENT
__First_ch$ = 8						; size = 4
__Dest$ = 12						; size = 4
__Byte_count$ = 16					; size = 4
__Object_count$ = 20					; size = 4
??$_Copy_memmove_tail@PAK@std@@YAPAKQBDQAKII@Z PROC	; std::_Copy_memmove_tail<unsigned long *>, COMDAT

; 4747 :     const char* const _First_ch, const _OutCtgIt _Dest, const size_t _Byte_count, const size_t _Object_count) {

  00000	55		 push	 ebp
  00001	8b ec		 mov	 ebp, esp
  00003	56		 push	 esi

; 4748 :     _STL_INTERNAL_CHECK(_Byte_count == _Object_count * sizeof(*_Dest));
; 4749 :     const auto _Dest_ptr = _STD _To_address(_Dest);
; 4750 :     const auto _Dest_ch  = const_cast<char*>(reinterpret_cast<const volatile char*>(_Dest_ptr));
; 4751 :     _CSTD memmove(_Dest_ch, _First_ch, _Byte_count);

  00004	8b 75 0c	 mov	 esi, DWORD PTR __Dest$[ebp]
  00007	57		 push	 edi
  00008	8b 7d 10	 mov	 edi, DWORD PTR __Byte_count$[ebp]
  0000b	57		 push	 edi
  0000c	ff 75 08	 push	 DWORD PTR __First_ch$[ebp]
  0000f	56		 push	 esi
  00010	e8 00 00 00 00	 call	 _memmove
  00015	83 c4 0c	 add	 esp, 12			; 0000000cH

; 4752 :     if constexpr (is_pointer_v<_OutCtgIt>) {
; 4753 :         (void) _Object_count;
; 4754 :         // CodeQL [SM02986] This cast is correct: we're bypassing pointer arithmetic for performance.
; 4755 :         return reinterpret_cast<_OutCtgIt>(_Dest_ch + _Byte_count);

  00018	8d 04 3e	 lea	 eax, DWORD PTR [esi+edi]
  0001b	5f		 pop	 edi
  0001c	5e		 pop	 esi

; 4756 :     } else {
; 4757 :         return _Dest + static_cast<_Iter_diff_t<_OutCtgIt>>(_Object_count);
; 4758 :     }
; 4759 : }

  0001d	5d		 pop	 ebp
  0001e	c3		 ret	 0
??$_Copy_memmove_tail@PAK@std@@YAPAKQBDQAKII@Z ENDP	; std::_Copy_memmove_tail<unsigned long *>
_TEXT	ENDS
; Function compile flags: /Ogtp
; File C:\Program Files\Microsoft Visual Studio\2022\Professional\VC\Tools\MSVC\14.44.35207\include\xutility
;	COMDAT ??$_Copy_memmove@PAKPAK@std@@YAPAKPAK00@Z
_TEXT	SEGMENT
__First$ = 8						; size = 4
__Last$ = 12						; size = 4
__Dest$ = 16						; size = 4
??$_Copy_memmove@PAKPAK@std@@YAPAKPAK00@Z PROC		; std::_Copy_memmove<unsigned long *,unsigned long *>, COMDAT

; 4762 : _OutCtgIt _Copy_memmove(_CtgIt _First, _CtgIt _Last, _OutCtgIt _Dest) {

  00000	55		 push	 ebp
  00001	8b ec		 mov	 ebp, esp

; 4763 :     _STL_INTERNAL_CHECK(_First <= _Last);
; 4764 :     const auto _First_ptr    = _STD _To_address(_First);
; 4765 :     const auto _Last_ptr     = _STD _To_address(_Last);
; 4766 :     const auto _Object_count = static_cast<size_t>(_Last_ptr - _First_ptr);

  00003	8b 55 08	 mov	 edx, DWORD PTR __First$[ebp]
  00006	8b 4d 0c	 mov	 ecx, DWORD PTR __Last$[ebp]
  00009	2b ca		 sub	 ecx, edx
  0000b	8b c1		 mov	 eax, ecx
  0000d	c1 f8 02	 sar	 eax, 2

; 4767 :     const auto _First_ch     = const_cast<const char*>(reinterpret_cast<const volatile char*>(_First_ptr));
; 4768 :     const auto _Last_ch      = const_cast<const char*>(reinterpret_cast<const volatile char*>(_Last_ptr));
; 4769 :     const auto _Byte_count   = static_cast<size_t>(_Last_ch - _First_ch);
; 4770 :     return _STD _Copy_memmove_tail(_First_ch, _STD move(_Dest), _Byte_count, _Object_count);

  00010	50		 push	 eax
  00011	51		 push	 ecx
  00012	ff 75 10	 push	 DWORD PTR __Dest$[ebp]
  00015	52		 push	 edx
  00016	e8 00 00 00 00	 call	 ??$_Copy_memmove_tail@PAK@std@@YAPAKQBDQAKII@Z ; std::_Copy_memmove_tail<unsigned long *>
  0001b	83 c4 10	 add	 esp, 16			; 00000010H

; 4771 : }

  0001e	5d		 pop	 ebp
  0001f	c3		 ret	 0
??$_Copy_memmove@PAKPAK@std@@YAPAKPAK00@Z ENDP		; std::_Copy_memmove<unsigned long *,unsigned long *>
_TEXT	ENDS
; Function compile flags: /Ogtp
; File C:\Program Files\Microsoft Visual Studio\2022\Professional\VC\Tools\MSVC\14.44.35207\include\vector
; File C:\Program Files\Microsoft Visual Studio\2022\Professional\VC\Tools\MSVC\14.44.35207\include\xmemory
; File C:\Program Files\Microsoft Visual Studio\2022\Professional\VC\Tools\MSVC\14.44.35207\include\vector
; File C:\Program Files\Microsoft Visual Studio\2022\Professional\VC\Tools\MSVC\14.44.35207\include\xmemory
; File C:\Program Files\Microsoft Visual Studio\2022\Professional\VC\Tools\MSVC\14.44.35207\include\vector
; File C:\Program Files\Microsoft Visual Studio\2022\Professional\VC\Tools\MSVC\14.44.35207\include\xmemory
; File C:\Program Files\Microsoft Visual Studio\2022\Professional\VC\Tools\MSVC\14.44.35207\include\vector
; File C:\Program Files\Microsoft Visual Studio\2022\Professional\VC\Tools\MSVC\14.44.35207\include\xmemory
; File C:\Program Files\Microsoft Visual Studio\2022\Professional\VC\Tools\MSVC\14.44.35207\include\vector
; File C:\Program Files\Microsoft Visual Studio\2022\Professional\VC\Tools\MSVC\14.44.35207\include\xmemory
; File C:\Program Files\Microsoft Visual Studio\2022\Professional\VC\Tools\MSVC\14.44.35207\include\vector
; File C:\Program Files\Microsoft Visual Studio\2022\Professional\VC\Tools\MSVC\14.44.35207\include\xmemory
; File C:\Program Files\Microsoft Visual Studio\2022\Professional\VC\Tools\MSVC\14.44.35207\include\vector
; File C:\Program Files\Microsoft Visual Studio\2022\Professional\VC\Tools\MSVC\14.44.35207\include\xmemory
; File C:\Program Files\Microsoft Visual Studio\2022\Professional\VC\Tools\MSVC\14.44.35207\include\vector
; File C:\Program Files\Microsoft Visual Studio\2022\Professional\VC\Tools\MSVC\14.44.35207\include\xmemory
; File C:\Program Files\Microsoft Visual Studio\2022\Professional\VC\Tools\MSVC\14.44.35207\include\vector
;	COMDAT ??$_Emplace_reallocate@K@?$vector@KV?$allocator@K@std@@@std@@AAEPAKQAK$$QAK@Z
_TEXT	SEGMENT
__Newsize$1$ = -12					; size = 4
tv652 = -8						; size = 4
tv650 = -4						; size = 4
__Whereptr$ = 8						; size = 4
_<_Val_0>$ = 12						; size = 4
??$_Emplace_reallocate@K@?$vector@KV?$allocator@K@std@@@std@@AAEPAKQAK$$QAK@Z PROC ; std::vector<unsigned long,std::allocator<unsigned long> >::_Emplace_reallocate<unsigned long>, COMDAT
; _this$ = ecx

; 875  :     _CONSTEXPR20 pointer _Emplace_reallocate(const pointer _Whereptr, _Valty&&... _Val) {

  00000	55		 push	 ebp
  00001	8b ec		 mov	 ebp, esp
  00003	83 ec 0c	 sub	 esp, 12			; 0000000cH
  00006	53		 push	 ebx

; 876  :         // reallocate and insert by perfectly forwarding _Val at _Whereptr
; 877  :         _Alty& _Al        = _Getal();
; 878  :         auto& _My_data    = _Mypair._Myval2;
; 879  :         pointer& _Myfirst = _My_data._Myfirst;
; 880  :         pointer& _Mylast  = _My_data._Mylast;
; 881  : 
; 882  :         _STL_INTERNAL_CHECK(_Mylast == _My_data._Myend); // check that we have no unused capacity
; 883  : 
; 884  :         const auto _Whereoff = static_cast<size_type>(_Whereptr - _Myfirst);

  00007	8b 5d 08	 mov	 ebx, DWORD PTR __Whereptr$[ebp]
  0000a	56		 push	 esi
  0000b	8b f1		 mov	 esi, ecx
  0000d	57		 push	 edi
  0000e	8b 0e		 mov	 ecx, DWORD PTR [esi]
  00010	2b d9		 sub	 ebx, ecx

; 885  :         const auto _Oldsize  = static_cast<size_type>(_Mylast - _Myfirst);

  00012	8b 46 04	 mov	 eax, DWORD PTR [esi+4]
  00015	2b c1		 sub	 eax, ecx
  00017	c1 fb 02	 sar	 ebx, 2
  0001a	c1 f8 02	 sar	 eax, 2

; 886  : 
; 887  :         if (_Oldsize == max_size()) {

  0001d	3d ff ff ff 3f	 cmp	 eax, 1073741823		; 3fffffffH
  00022	0f 84 13 01 00
	00		 je	 $LN111@Emplace_re

; 1924 :         return static_cast<size_type>(_My_data._Myend - _My_data._Myfirst);

  00028	8b 56 08	 mov	 edx, DWORD PTR [esi+8]

; 889  :         }
; 890  : 
; 891  :         const size_type _Newsize = _Oldsize + 1;

  0002b	8d 78 01	 lea	 edi, DWORD PTR [eax+1]

; 1924 :         return static_cast<size_type>(_My_data._Myend - _My_data._Myfirst);

  0002e	2b d1		 sub	 edx, ecx

; 889  :         }
; 890  : 
; 891  :         const size_type _Newsize = _Oldsize + 1;

  00030	89 7d f4	 mov	 DWORD PTR __Newsize$1$[ebp], edi

; 1924 :         return static_cast<size_type>(_My_data._Myend - _My_data._Myfirst);

  00033	c1 fa 02	 sar	 edx, 2

; 2011 :         if (_Oldcapacity > _Max - _Oldcapacity / 2) {

  00036	b8 ff ff ff 3f	 mov	 eax, 1073741823		; 3fffffffH
  0003b	8b ca		 mov	 ecx, edx
  0003d	d1 e9		 shr	 ecx, 1
  0003f	2b c1		 sub	 eax, ecx
  00041	3b d0		 cmp	 edx, eax
  00043	76 14		 jbe	 SHORT $LN8@Emplace_re

; 2012 :             return _Max; // geometric growth would overflow

  00045	b8 fc ff ff ff	 mov	 eax, -4			; fffffffcH
  0004a	c7 45 f8 fc ff
	ff ff		 mov	 DWORD PTR tv652[ebp], -4 ; fffffffcH
; File C:\Program Files\Microsoft Visual Studio\2022\Professional\VC\Tools\MSVC\14.44.35207\include\xmemory

; 253  :             return _Allocate_manually_vector_aligned<_Traits>(_Bytes);

  00051	50		 push	 eax
  00052	e8 00 00 00 00	 call	 ??$_Allocate_manually_vector_aligned@U_Default_allocate_traits@std@@@std@@YAPAXI@Z ; std::_Allocate_manually_vector_aligned<std::_Default_allocate_traits>
  00057	eb 3d		 jmp	 SHORT $LN109@Emplace_re
$LN8@Emplace_re:
; File C:\Program Files\Microsoft Visual Studio\2022\Professional\VC\Tools\MSVC\14.44.35207\include\vector

; 2015 :         const size_type _Geometric = _Oldcapacity + _Oldcapacity / 2;

  00059	8d 04 11	 lea	 eax, DWORD PTR [ecx+edx]
; File C:\Program Files\Microsoft Visual Studio\2022\Professional\VC\Tools\MSVC\14.44.35207\include\xmemory

; 117  :         if (_Count > _Max_possible) {

  0005c	8b cf		 mov	 ecx, edi
  0005e	3b c7		 cmp	 eax, edi
  00060	0f 43 c8	 cmovae	 ecx, eax
  00063	81 f9 ff ff ff
	3f		 cmp	 ecx, 1073741823		; 3fffffffH
  00069	0f 87 d1 00 00
	00		 ja	 $LN112@Emplace_re

; 119  :         }
; 120  :     }
; 121  : 
; 122  :     return _Count * _Ty_size;

  0006f	8d 04 8d 00 00
	00 00		 lea	 eax, DWORD PTR [ecx*4]
  00076	89 45 f8	 mov	 DWORD PTR tv652[ebp], eax

; 227  :     if (_Bytes == 0) {

  00079	85 c0		 test	 eax, eax
  0007b	75 04		 jne	 SHORT $LN23@Emplace_re

; 228  :         return nullptr;

  0007d	33 ff		 xor	 edi, edi
  0007f	eb 1a		 jmp	 SHORT $LN22@Emplace_re
$LN23@Emplace_re:

; 229  :     }
; 230  : 
; 231  : #if _HAS_CXX20 // TRANSITION, GH-1532
; 232  :     if (_STD is_constant_evaluated()) {
; 233  :         return _Traits::_Allocate(_Bytes);
; 234  :     }
; 235  : #endif // _HAS_CXX20
; 236  : 
; 237  : #ifdef __cpp_aligned_new
; 238  :     if constexpr (_Align > __STDCPP_DEFAULT_NEW_ALIGNMENT__) {
; 239  :         size_t _Passed_align = _Align;
; 240  : #if defined(_M_IX86) || defined(_M_X64)
; 241  :         if (_Bytes >= _Big_allocation_threshold) {
; 242  :             // boost the alignment of big allocations to help autovectorization
; 243  :             _Passed_align = (_STD max)(_Align, _Big_allocation_alignment);
; 244  :         }
; 245  : #endif // defined(_M_IX86) || defined(_M_X64)
; 246  :         return _Traits::_Allocate_aligned(_Bytes, _Passed_align);
; 247  :     } else
; 248  : #endif // defined(__cpp_aligned_new)
; 249  :     {
; 250  : #if defined(_M_IX86) || defined(_M_X64)
; 251  :         if (_Bytes >= _Big_allocation_threshold) {

  00081	3d 00 10 00 00	 cmp	 eax, 4096		; 00001000H
  00086	72 08		 jb	 SHORT $LN24@Emplace_re

; 253  :             return _Allocate_manually_vector_aligned<_Traits>(_Bytes);

  00088	50		 push	 eax
  00089	e8 00 00 00 00	 call	 ??$_Allocate_manually_vector_aligned@U_Default_allocate_traits@std@@@std@@YAPAXI@Z ; std::_Allocate_manually_vector_aligned<std::_Default_allocate_traits>
  0008e	eb 06		 jmp	 SHORT $LN109@Emplace_re
$LN24@Emplace_re:

; 136  :         return ::operator new(_Bytes);

  00090	50		 push	 eax
  00091	e8 00 00 00 00	 call	 ??2@YAPAXI@Z		; operator new
$LN109@Emplace_re:
; File C:\Program Files\Microsoft Visual Studio\2022\Professional\VC\Tools\MSVC\14.44.35207\include\vector

; 900  :         _Alty_traits::construct(_Al, _STD _Unfancy(_Newvec + _Whereoff), _STD forward<_Valty>(_Val)...);

  00096	8b f8		 mov	 edi, eax
  00098	83 c4 04	 add	 esp, 4
$LN22@Emplace_re:
  0009b	8b 45 0c	 mov	 eax, DWORD PTR _<_Val_0>$[ebp]
  0009e	8d 0c 9f	 lea	 ecx, DWORD PTR [edi+ebx*4]

; 901  :         _Constructed_first = _Newvec + _Whereoff;
; 902  : 
; 903  :         if (_Whereptr == _Mylast) { // at back, provide strong guarantee

  000a1	8b 5d 08	 mov	 ebx, DWORD PTR __Whereptr$[ebp]
  000a4	89 4d fc	 mov	 DWORD PTR tv650[ebp], ecx
  000a7	8b 00		 mov	 eax, DWORD PTR [eax]
  000a9	89 01		 mov	 DWORD PTR [ecx], eax
  000ab	8b 46 04	 mov	 eax, DWORD PTR [esi+4]
  000ae	8b 0e		 mov	 ecx, DWORD PTR [esi]
  000b0	3b d8		 cmp	 ebx, eax
  000b2	75 07		 jne	 SHORT $LN3@Emplace_re

; 909  :         } else { // provide basic guarantee

  000b4	8b 5d fc	 mov	 ebx, DWORD PTR tv650[ebp]
; File C:\Program Files\Microsoft Visual Studio\2022\Professional\VC\Tools\MSVC\14.44.35207\include\xmemory

; 1992 :             _STD _Copy_memmove(_UFirst, _ULast, _STD _Unfancy(_Dest));

  000b7	8b d7		 mov	 edx, edi
; File C:\Program Files\Microsoft Visual Studio\2022\Professional\VC\Tools\MSVC\14.44.35207\include\vector

; 909  :         } else { // provide basic guarantee

  000b9	eb 16		 jmp	 SHORT $LN52@Emplace_re
$LN3@Emplace_re:
; File C:\Program Files\Microsoft Visual Studio\2022\Professional\VC\Tools\MSVC\14.44.35207\include\xmemory

; 1992 :             _STD _Copy_memmove(_UFirst, _ULast, _STD _Unfancy(_Dest));

  000bb	57		 push	 edi
  000bc	53		 push	 ebx
  000bd	51		 push	 ecx
  000be	e8 00 00 00 00	 call	 ??$_Copy_memmove@PAKPAK@std@@YAPAKPAK00@Z ; std::_Copy_memmove<unsigned long *,unsigned long *>
  000c3	8b 46 04	 mov	 eax, DWORD PTR [esi+4]
  000c6	8b cb		 mov	 ecx, ebx
; File C:\Program Files\Microsoft Visual Studio\2022\Professional\VC\Tools\MSVC\14.44.35207\include\vector

; 912  :             _STD _Uninitialized_move(_Whereptr, _Mylast, _Newvec + _Whereoff + 1, _Al);

  000c8	8b 5d fc	 mov	 ebx, DWORD PTR tv650[ebp]
; File C:\Program Files\Microsoft Visual Studio\2022\Professional\VC\Tools\MSVC\14.44.35207\include\xmemory

; 1992 :             _STD _Copy_memmove(_UFirst, _ULast, _STD _Unfancy(_Dest));

  000cb	83 c4 0c	 add	 esp, 12			; 0000000cH
; File C:\Program Files\Microsoft Visual Studio\2022\Professional\VC\Tools\MSVC\14.44.35207\include\vector

; 912  :             _STD _Uninitialized_move(_Whereptr, _Mylast, _Newvec + _Whereoff + 1, _Al);

  000ce	8d 53 04	 lea	 edx, DWORD PTR [ebx+4]
$LN52@Emplace_re:

; 913  :         }
; 914  : 
; 915  :         _Guard._New_begin = nullptr;

  000d1	52		 push	 edx
  000d2	50		 push	 eax
  000d3	51		 push	 ecx
  000d4	e8 00 00 00 00	 call	 ??$_Copy_memmove@PAKPAK@std@@YAPAKPAK00@Z ; std::_Copy_memmove<unsigned long *,unsigned long *>

; 2069 :         if (_Myfirst) { // destroy and deallocate old array

  000d9	8b 06		 mov	 eax, DWORD PTR [esi]

; 913  :         }
; 914  : 
; 915  :         _Guard._New_begin = nullptr;

  000db	83 c4 0c	 add	 esp, 12			; 0000000cH

; 2069 :         if (_Myfirst) { // destroy and deallocate old array

  000de	85 c0		 test	 eax, eax
  000e0	74 2c		 je	 SHORT $LN72@Emplace_re

; 2070 :             _STD _Destroy_range(_Myfirst, _Mylast, _Al);
; 2071 :             _ASAN_VECTOR_REMOVE;
; 2072 :             _Al.deallocate(_Myfirst, static_cast<size_type>(_Myend - _Myfirst));

  000e2	8b 4e 08	 mov	 ecx, DWORD PTR [esi+8]
  000e5	2b c8		 sub	 ecx, eax
; File C:\Program Files\Microsoft Visual Studio\2022\Professional\VC\Tools\MSVC\14.44.35207\include\xmemory

; 985  :         _STD _Deallocate<_New_alignof<_Ty>>(_Ptr, sizeof(_Ty) * _Count);

  000e7	83 e1 fc	 and	 ecx, -4			; fffffffcH

; 284  :         if (_Bytes >= _Big_allocation_threshold) {

  000ea	81 f9 00 10 00
	00		 cmp	 ecx, 4096		; 00001000H
  000f0	72 12		 jb	 SHORT $LN77@Emplace_re

; 205  :     const uintptr_t _Ptr_container   = _Ptr_user[-1];

  000f2	8b 50 fc	 mov	 edx, DWORD PTR [eax-4]
  000f5	83 c1 23	 add	 ecx, 35			; 00000023H

; 206  : 
; 207  :     // If the following asserts, it likely means that we are performing
; 208  :     // an aligned delete on memory coming from an unaligned allocation.
; 209  :     _STL_ASSERT(_Ptr_user[-2] == _Big_allocation_sentinel, "invalid argument");
; 210  : 
; 211  :     // Extra paranoia on aligned allocation/deallocation; ensure _Ptr_container is
; 212  :     // in range [_Min_back_shift, _Non_user_size]
; 213  : #ifdef _DEBUG
; 214  :     constexpr uintptr_t _Min_back_shift = 2 * sizeof(void*);
; 215  : #else // ^^^ defined(_DEBUG) / !defined(_DEBUG) vvv
; 216  :     constexpr uintptr_t _Min_back_shift = sizeof(void*);
; 217  : #endif // ^^^ !defined(_DEBUG) ^^^
; 218  :     const uintptr_t _Back_shift = reinterpret_cast<uintptr_t>(_Ptr) - _Ptr_container;

  000f8	2b c2		 sub	 eax, edx

; 219  :     _STL_VERIFY(_Back_shift >= _Min_back_shift && _Back_shift <= _Non_user_size, "invalid argument");

  000fa	83 c0 fc	 add	 eax, -4			; fffffffcH
  000fd	83 f8 1f	 cmp	 eax, 31			; 0000001fH
  00100	77 2a		 ja	 SHORT $LN76@Emplace_re

; 220  :     _Ptr = reinterpret_cast<void*>(_Ptr_container);

  00102	8b c2		 mov	 eax, edx
$LN77@Emplace_re:

; 289  :         ::operator delete(_Ptr, _Bytes);

  00104	51		 push	 ecx
  00105	50		 push	 eax
  00106	e8 00 00 00 00	 call	 ??3@YAXPAXI@Z		; operator delete
  0010b	83 c4 08	 add	 esp, 8
$LN72@Emplace_re:
; File C:\Program Files\Microsoft Visual Studio\2022\Professional\VC\Tools\MSVC\14.44.35207\include\vector

; 2076 :         _Mylast  = _Newvec + _Newsize;

  0010e	8b 45 f4	 mov	 eax, DWORD PTR __Newsize$1$[ebp]
  00111	89 3e		 mov	 DWORD PTR [esi], edi
  00113	8d 0c 87	 lea	 ecx, DWORD PTR [edi+eax*4]

; 916  :         _Change_array(_Newvec, _Newsize, _Newcapacity);
; 917  :         return _Newvec + _Whereoff;

  00116	8b c3		 mov	 eax, ebx

; 2076 :         _Mylast  = _Newvec + _Newsize;

  00118	89 4e 04	 mov	 DWORD PTR [esi+4], ecx

; 2077 :         _Myend   = _Newvec + _Newcapacity;

  0011b	8b 4d f8	 mov	 ecx, DWORD PTR tv652[ebp]
  0011e	03 cf		 add	 ecx, edi

; 918  :     }

  00120	5f		 pop	 edi

; 2077 :         _Myend   = _Newvec + _Newcapacity;

  00121	89 4e 08	 mov	 DWORD PTR [esi+8], ecx

; 918  :     }

  00124	5e		 pop	 esi
  00125	5b		 pop	 ebx
  00126	8b e5		 mov	 esp, ebp
  00128	5d		 pop	 ebp
  00129	c2 08 00	 ret	 8
$LN76@Emplace_re:
; File C:\Program Files\Microsoft Visual Studio\2022\Professional\VC\Tools\MSVC\14.44.35207\include\xmemory

; 219  :     _STL_VERIFY(_Back_shift >= _Min_back_shift && _Back_shift <= _Non_user_size, "invalid argument");

  0012c	6a 00		 push	 0
  0012e	6a 00		 push	 0
  00130	6a 00		 push	 0
  00132	6a 00		 push	 0
  00134	6a 00		 push	 0
  00136	e8 00 00 00 00	 call	 __invoke_watson
$LN111@Emplace_re:
; File C:\Program Files\Microsoft Visual Studio\2022\Professional\VC\Tools\MSVC\14.44.35207\include\vector

; 888  :             _Xlength();

  0013b	e8 00 00 00 00	 call	 ?_Xlength@?$vector@KV?$allocator@K@std@@@std@@CAXXZ ; std::vector<unsigned long,std::allocator<unsigned long> >::_Xlength
$LN112@Emplace_re:
; File C:\Program Files\Microsoft Visual Studio\2022\Professional\VC\Tools\MSVC\14.44.35207\include\xmemory

; 118  :             _Throw_bad_array_new_length(); // multiply overflow

  00140	e8 00 00 00 00	 call	 ?_Throw_bad_array_new_length@std@@YAXXZ ; std::_Throw_bad_array_new_length
$LN108@Emplace_re:
  00145	cc		 int	 3
??$_Emplace_reallocate@K@?$vector@KV?$allocator@K@std@@@std@@AAEPAKQAK$$QAK@Z ENDP ; std::vector<unsigned long,std::allocator<unsigned long> >::_Emplace_reallocate<unsigned long>
_TEXT	ENDS
; Function compile flags: /Ogtp
;	COMDAT ??__FsRainbowRaceDBMng@?1??GetInstance@CRainbowRaceDBMng@@SAPAV1@XZ@YAXXZ
text$yd	SEGMENT
??__FsRainbowRaceDBMng@?1??GetInstance@CRainbowRaceDBMng@@SAPAV1@XZ@YAXXZ PROC ; `CRainbowRaceDBMng::GetInstance'::`2'::`dynamic atexit destructor for 'sRainbowRaceDBMng'', COMDAT
  00000	b9 00 00 00 00	 mov	 ecx, OFFSET ?sRainbowRaceDBMng@?1??GetInstance@CRainbowRaceDBMng@@SAPAV2@XZ@4V2@A
  00005	e9 00 00 00 00	 jmp	 ??1CRainbowRaceDBMng@@QAE@XZ ; CRainbowRaceDBMng::~CRainbowRaceDBMng
??__FsRainbowRaceDBMng@?1??GetInstance@CRainbowRaceDBMng@@SAPAV1@XZ@YAXXZ ENDP ; `CRainbowRaceDBMng::GetInstance'::`2'::`dynamic atexit destructor for 'sRainbowRaceDBMng''
text$yd	ENDS
; Function compile flags: /Ogtp
; File C:\IAGOS\server\v18\Source\Source\_Network\Misc\Include\Ar.h
;	COMDAT ??$?5K@CAr@@QAEAAV0@AAK@Z
_TEXT	SEGMENT
_t$ = 8							; size = 4
??$?5K@CAr@@QAEAAV0@AAK@Z PROC				; CAr::operator>><unsigned long>, COMDAT
; _this$ = ecx

; 302  : {

  00000	55		 push	 ebp
  00001	8b ec		 mov	 ebp, esp
  00003	8b d1		 mov	 edx, ecx

; 303  : 	if (m_lpBufCur + sizeof(T) <= m_lpBufMax)

  00005	8b 4a 08	 mov	 ecx, DWORD PTR [edx+8]
  00008	8d 41 04	 lea	 eax, DWORD PTR [ecx+4]
  0000b	3b 42 0c	 cmp	 eax, DWORD PTR [edx+12]
  0000e	8b 45 08	 mov	 eax, DWORD PTR _t$[ebp]
  00011	77 0e		 ja	 SHORT $LN2@operator

; 304  : 	{
; 305  : 		t = *(UNALIGNED T*)m_lpBufCur;

  00013	8b 09		 mov	 ecx, DWORD PTR [ecx]
  00015	89 08		 mov	 DWORD PTR [eax], ecx

; 312  : 	}
; 313  : 	return *this;
; 314  : }

  00017	8b c2		 mov	 eax, edx
  00019	83 42 08 04	 add	 DWORD PTR [edx+8], 4
  0001d	5d		 pop	 ebp
  0001e	c2 04 00	 ret	 4
$LN2@operator:

; 306  : 		m_lpBufCur += sizeof(T);
; 307  : 	}
; 308  : 	else
; 309  : 	{
; 310  : 		t = T();

  00021	c7 00 00 00 00
	00		 mov	 DWORD PTR [eax], 0

; 311  : 		m_lpBufCur = m_lpBufMax;

  00027	8b 42 0c	 mov	 eax, DWORD PTR [edx+12]
  0002a	89 42 08	 mov	 DWORD PTR [edx+8], eax

; 312  : 	}
; 313  : 	return *this;
; 314  : }

  0002d	8b c2		 mov	 eax, edx
  0002f	5d		 pop	 ebp
  00030	c2 04 00	 ret	 4
??$?5K@CAr@@QAEAAV0@AAK@Z ENDP				; CAr::operator>><unsigned long>
_TEXT	ENDS
; Function compile flags: /Ogtp
; File C:\IAGOS\server\v18\Source\Source\_Network\Misc\Include\Ar.h
;	COMDAT ??$?5H@CAr@@QAEAAV0@AAH@Z
_TEXT	SEGMENT
_t$ = 8							; size = 4
??$?5H@CAr@@QAEAAV0@AAH@Z PROC				; CAr::operator>><int>, COMDAT
; _this$ = ecx

; 302  : {

  00000	55		 push	 ebp
  00001	8b ec		 mov	 ebp, esp
  00003	8b d1		 mov	 edx, ecx

; 303  : 	if (m_lpBufCur + sizeof(T) <= m_lpBufMax)

  00005	8b 4a 08	 mov	 ecx, DWORD PTR [edx+8]
  00008	8d 41 04	 lea	 eax, DWORD PTR [ecx+4]
  0000b	3b 42 0c	 cmp	 eax, DWORD PTR [edx+12]
  0000e	8b 45 08	 mov	 eax, DWORD PTR _t$[ebp]
  00011	77 0e		 ja	 SHORT $LN2@operator

; 304  : 	{
; 305  : 		t = *(UNALIGNED T*)m_lpBufCur;

  00013	8b 09		 mov	 ecx, DWORD PTR [ecx]
  00015	89 08		 mov	 DWORD PTR [eax], ecx

; 312  : 	}
; 313  : 	return *this;
; 314  : }

  00017	8b c2		 mov	 eax, edx
  00019	83 42 08 04	 add	 DWORD PTR [edx+8], 4
  0001d	5d		 pop	 ebp
  0001e	c2 04 00	 ret	 4
$LN2@operator:

; 306  : 		m_lpBufCur += sizeof(T);
; 307  : 	}
; 308  : 	else
; 309  : 	{
; 310  : 		t = T();

  00021	c7 00 00 00 00
	00		 mov	 DWORD PTR [eax], 0

; 311  : 		m_lpBufCur = m_lpBufMax;

  00027	8b 42 0c	 mov	 eax, DWORD PTR [edx+12]
  0002a	89 42 08	 mov	 DWORD PTR [edx+8], eax

; 312  : 	}
; 313  : 	return *this;
; 314  : }

  0002d	8b c2		 mov	 eax, edx
  0002f	5d		 pop	 ebp
  00030	c2 04 00	 ret	 4
??$?5H@CAr@@QAEAAV0@AAH@Z ENDP				; CAr::operator>><int>
_TEXT	ENDS
; Function compile flags: /Ogtp
; File C:\IAGOS\server\v18\Source\Source\DatabaseServer\RainbowRaceDBCtrl.cpp
;	COMDAT ?GetInstance@CRainbowRaceDBMng@@SAPAV1@XZ
_TEXT	SEGMENT
__$EHRec$ = -12						; size = 12
?GetInstance@CRainbowRaceDBMng@@SAPAV1@XZ PROC		; CRainbowRaceDBMng::GetInstance, COMDAT

; 171  : {

  00000	55		 push	 ebp
  00001	8b ec		 mov	 ebp, esp
  00003	6a ff		 push	 -1
  00005	68 00 00 00 00	 push	 __ehhandler$?GetInstance@CRainbowRaceDBMng@@SAPAV1@XZ
  0000a	64 a1 00 00 00
	00		 mov	 eax, DWORD PTR fs:0
  00010	50		 push	 eax
  00011	a1 00 00 00 00	 mov	 eax, DWORD PTR ___security_cookie
  00016	33 c5		 xor	 eax, ebp
  00018	50		 push	 eax
  00019	8d 45 f4	 lea	 eax, DWORD PTR __$EHRec$[ebp]
  0001c	64 a3 00 00 00
	00		 mov	 DWORD PTR fs:0, eax

; 172  : 	static CRainbowRaceDBMng sRainbowRaceDBMng;

  00022	64 a1 00 00 00
	00		 mov	 eax, DWORD PTR fs:__tls_array
  00028	8b 0d 00 00 00
	00		 mov	 ecx, DWORD PTR __tls_index
  0002e	8b 0c 88	 mov	 ecx, DWORD PTR [eax+ecx*4]
  00031	a1 00 00 00 00	 mov	 eax, DWORD PTR ?$TSS0@?1??GetInstance@CRainbowRaceDBMng@@SAPAV2@XZ@4HA
  00036	3b 81 00 00 00
	00		 cmp	 eax, DWORD PTR __Init_thread_epoch[ecx]
  0003c	7f 14		 jg	 SHORT $LN9@GetInstanc
$LN5@GetInstanc:

; 173  : 	return & sRainbowRaceDBMng;
; 174  : }

  0003e	b8 00 00 00 00	 mov	 eax, OFFSET ?sRainbowRaceDBMng@?1??GetInstance@CRainbowRaceDBMng@@SAPAV2@XZ@4V2@A
  00043	8b 4d f4	 mov	 ecx, DWORD PTR __$EHRec$[ebp]
  00046	64 89 0d 00 00
	00 00		 mov	 DWORD PTR fs:0, ecx
  0004d	59		 pop	 ecx
  0004e	8b e5		 mov	 esp, ebp
  00050	5d		 pop	 ebp
  00051	c3		 ret	 0
$LN9@GetInstanc:

; 172  : 	static CRainbowRaceDBMng sRainbowRaceDBMng;

  00052	68 00 00 00 00	 push	 OFFSET ?$TSS0@?1??GetInstance@CRainbowRaceDBMng@@SAPAV2@XZ@4HA
  00057	e8 00 00 00 00	 call	 __Init_thread_header
  0005c	83 c4 04	 add	 esp, 4
  0005f	83 3d 00 00 00
	00 ff		 cmp	 DWORD PTR ?$TSS0@?1??GetInstance@CRainbowRaceDBMng@@SAPAV2@XZ@4HA, -1
  00066	75 d6		 jne	 SHORT $LN5@GetInstanc
  00068	b9 00 00 00 00	 mov	 ecx, OFFSET ?sRainbowRaceDBMng@?1??GetInstance@CRainbowRaceDBMng@@SAPAV2@XZ@4V2@A
  0006d	c7 45 fc 00 00
	00 00		 mov	 DWORD PTR __$EHRec$[ebp+8], 0
  00074	e8 00 00 00 00	 call	 ??0CRainbowRaceDBMng@@QAE@XZ ; CRainbowRaceDBMng::CRainbowRaceDBMng
  00079	68 00 00 00 00	 push	 OFFSET ??__FsRainbowRaceDBMng@?1??GetInstance@CRainbowRaceDBMng@@SAPAV1@XZ@YAXXZ ; `CRainbowRaceDBMng::GetInstance'::`2'::`dynamic atexit destructor for 'sRainbowRaceDBMng''
  0007e	e8 00 00 00 00	 call	 _atexit
  00083	68 00 00 00 00	 push	 OFFSET ?$TSS0@?1??GetInstance@CRainbowRaceDBMng@@SAPAV2@XZ@4HA
  00088	e8 00 00 00 00	 call	 __Init_thread_footer
  0008d	83 c4 08	 add	 esp, 8
  00090	eb ac		 jmp	 SHORT $LN5@GetInstanc
_TEXT	ENDS
;	COMDAT text$x
text$x	SEGMENT
__unwindfunclet$?GetInstance@CRainbowRaceDBMng@@SAPAV1@XZ$0:
  00000	68 00 00 00 00	 push	 OFFSET ?$TSS0@?1??GetInstance@CRainbowRaceDBMng@@SAPAV2@XZ@4HA
  00005	e8 00 00 00 00	 call	 __Init_thread_abort
  0000a	59		 pop	 ecx
  0000b	c3		 ret	 0
  0000c	cc		 int	 3
  0000d	cc		 int	 3
  0000e	cc		 int	 3
  0000f	cc		 int	 3
  00010	cc		 int	 3
__ehhandler$?GetInstance@CRainbowRaceDBMng@@SAPAV1@XZ:
  00011	90		 npad	 1
  00012	90		 npad	 1
  00013	8b 54 24 08	 mov	 edx, DWORD PTR [esp+8]
  00017	8d 42 0c	 lea	 eax, DWORD PTR [edx+12]
  0001a	8b 4a fc	 mov	 ecx, DWORD PTR [edx-4]
  0001d	33 c8		 xor	 ecx, eax
  0001f	e8 00 00 00 00	 call	 @__security_check_cookie@4
  00024	b8 00 00 00 00	 mov	 eax, OFFSET __ehfuncinfo$?GetInstance@CRainbowRaceDBMng@@SAPAV1@XZ
  00029	e9 00 00 00 00	 jmp	 ___CxxFrameHandler3
text$x	ENDS
?GetInstance@CRainbowRaceDBMng@@SAPAV1@XZ ENDP		; CRainbowRaceDBMng::GetInstance
; Function compile flags: /Ogtp
; File C:\IAGOS\server\v18\Source\Source\DatabaseServer\RainbowRaceDBCtrl.cpp
;	COMDAT ??1CRainbowRaceDBMng@@QAE@XZ
_TEXT	SEGMENT
__$EHRec$ = -12						; size = 12
??1CRainbowRaceDBMng@@QAE@XZ PROC			; CRainbowRaceDBMng::~CRainbowRaceDBMng, COMDAT
; _this$ = ecx

; 166  : {

  00000	55		 push	 ebp
  00001	8b ec		 mov	 ebp, esp
  00003	6a ff		 push	 -1
  00005	68 00 00 00 00	 push	 __ehhandler$??1CRainbowRaceDBMng@@QAE@XZ
  0000a	64 a1 00 00 00
	00		 mov	 eax, DWORD PTR fs:0
  00010	50		 push	 eax
  00011	56		 push	 esi
  00012	a1 00 00 00 00	 mov	 eax, DWORD PTR ___security_cookie
  00017	33 c5		 xor	 eax, ebp
  00019	50		 push	 eax
  0001a	8d 45 f4	 lea	 eax, DWORD PTR __$EHRec$[ebp]
  0001d	64 a3 00 00 00
	00		 mov	 DWORD PTR fs:0, eax
  00023	8b f1		 mov	 esi, ecx

; 167  : 	m_RRDbCtrl.CloseDbHandler();

  00025	e8 00 00 00 00	 call	 ?CloseDbHandler@CDbController@@QAEXXZ ; CDbController::CloseDbHandler

; 168  : }

  0002a	8b ce		 mov	 ecx, esi
  0002c	e8 00 00 00 00	 call	 ??1CRainbowRaceDBCtrl@@UAE@XZ ; CRainbowRaceDBCtrl::~CRainbowRaceDBCtrl
  00031	8b 4d f4	 mov	 ecx, DWORD PTR __$EHRec$[ebp]
  00034	64 89 0d 00 00
	00 00		 mov	 DWORD PTR fs:0, ecx
  0003b	59		 pop	 ecx
  0003c	5e		 pop	 esi
  0003d	8b e5		 mov	 esp, ebp
  0003f	5d		 pop	 ebp
  00040	c3		 ret	 0
  00041	cc		 int	 3
  00042	cc		 int	 3
  00043	cc		 int	 3
  00044	cc		 int	 3
  00045	cc		 int	 3
_TEXT	ENDS
;	COMDAT text$x
text$x	SEGMENT
__ehhandler$??1CRainbowRaceDBMng@@QAE@XZ:
  00000	90		 npad	 1
  00001	90		 npad	 1
  00002	8b 54 24 08	 mov	 edx, DWORD PTR [esp+8]
  00006	8d 42 0c	 lea	 eax, DWORD PTR [edx+12]
  00009	8b 4a f8	 mov	 ecx, DWORD PTR [edx-8]
  0000c	33 c8		 xor	 ecx, eax
  0000e	e8 00 00 00 00	 call	 @__security_check_cookie@4
  00013	b8 00 00 00 00	 mov	 eax, OFFSET __ehfuncinfo$??1CRainbowRaceDBMng@@QAE@XZ
  00018	e9 00 00 00 00	 jmp	 ___CxxFrameHandler3
text$x	ENDS
??1CRainbowRaceDBMng@@QAE@XZ ENDP			; CRainbowRaceDBMng::~CRainbowRaceDBMng
; Function compile flags: /Ogtp
; File C:\IAGOS\server\v18\Source\Source\DatabaseServer\RainbowRaceDBCtrl.cpp
;	COMDAT ??0CRainbowRaceDBMng@@QAE@XZ
_TEXT	SEGMENT
_this$ = -16						; size = 4
__$EHRec$ = -12						; size = 12
??0CRainbowRaceDBMng@@QAE@XZ PROC			; CRainbowRaceDBMng::CRainbowRaceDBMng, COMDAT
; _this$ = ecx

; 160  : {

  00000	55		 push	 ebp
  00001	8b ec		 mov	 ebp, esp
  00003	6a ff		 push	 -1
  00005	68 00 00 00 00	 push	 __ehhandler$??0CRainbowRaceDBMng@@QAE@XZ
  0000a	64 a1 00 00 00
	00		 mov	 eax, DWORD PTR fs:0
  00010	50		 push	 eax
  00011	51		 push	 ecx
  00012	56		 push	 esi
  00013	a1 00 00 00 00	 mov	 eax, DWORD PTR ___security_cookie
  00018	33 c5		 xor	 eax, ebp
  0001a	50		 push	 eax
  0001b	8d 45 f4	 lea	 eax, DWORD PTR __$EHRec$[ebp]
  0001e	64 a3 00 00 00
	00		 mov	 DWORD PTR fs:0, eax
  00024	8b f1		 mov	 esi, ecx
  00026	89 75 f0	 mov	 DWORD PTR _this$[ebp], esi
  00029	e8 00 00 00 00	 call	 ??0CRainbowRaceDBCtrl@@QAE@XZ ; CRainbowRaceDBCtrl::CRainbowRaceDBCtrl

; 161  : 	if( !m_RRDbCtrl.CreateDbHandler() )

  0002e	6a ff		 push	 -1
  00030	8b ce		 mov	 ecx, esi
  00032	c7 45 fc 00 00
	00 00		 mov	 DWORD PTR __$EHRec$[ebp+8], 0
  00039	e8 00 00 00 00	 call	 ?CreateDbHandler@CDbController@@QAEHK@Z ; CDbController::CreateDbHandler
  0003e	85 c0		 test	 eax, eax
  00040	75 0d		 jne	 SHORT $LN5@CRainbowRa

; 162  : 		Error( "CRainbowRaceDBMng - m_RRDbCtrl.CreateDbHandler()" );

  00042	68 00 00 00 00	 push	 OFFSET ??_C@_0DB@CEBHCKG@CRainbowRaceDBMng?5?9?5m_RRDbCtrl?4@
  00047	e8 00 00 00 00	 call	 ?Error@@YAPBDPBDZZ	; Error
  0004c	83 c4 04	 add	 esp, 4
$LN5@CRainbowRa:

; 163  : }

  0004f	8b c6		 mov	 eax, esi
  00051	8b 4d f4	 mov	 ecx, DWORD PTR __$EHRec$[ebp]
  00054	64 89 0d 00 00
	00 00		 mov	 DWORD PTR fs:0, ecx
  0005b	59		 pop	 ecx
  0005c	5e		 pop	 esi
  0005d	8b e5		 mov	 esp, ebp
  0005f	5d		 pop	 ebp
  00060	c3		 ret	 0
_TEXT	ENDS
;	COMDAT text$x
text$x	SEGMENT
__unwindfunclet$??0CRainbowRaceDBMng@@QAE@XZ$0:
  00000	8b 4d f0	 mov	 ecx, DWORD PTR _this$[ebp]
  00003	e9 00 00 00 00	 jmp	 ??1CRainbowRaceDBCtrl@@UAE@XZ ; CRainbowRaceDBCtrl::~CRainbowRaceDBCtrl
  00008	cc		 int	 3
  00009	cc		 int	 3
  0000a	cc		 int	 3
  0000b	cc		 int	 3
  0000c	cc		 int	 3
__ehhandler$??0CRainbowRaceDBMng@@QAE@XZ:
  0000d	90		 npad	 1
  0000e	90		 npad	 1
  0000f	8b 54 24 08	 mov	 edx, DWORD PTR [esp+8]
  00013	8d 42 0c	 lea	 eax, DWORD PTR [edx+12]
  00016	8b 4a f4	 mov	 ecx, DWORD PTR [edx-12]
  00019	33 c8		 xor	 ecx, eax
  0001b	e8 00 00 00 00	 call	 @__security_check_cookie@4
  00020	b8 00 00 00 00	 mov	 eax, OFFSET __ehfuncinfo$??0CRainbowRaceDBMng@@QAE@XZ
  00025	e9 00 00 00 00	 jmp	 ___CxxFrameHandler3
text$x	ENDS
??0CRainbowRaceDBMng@@QAE@XZ ENDP			; CRainbowRaceDBMng::CRainbowRaceDBMng
; Function compile flags: /Ogtp
;	COMDAT ??_GCRainbowRaceDBCtrl@@UAEPAXI@Z
_TEXT	SEGMENT
___flags$ = 8						; size = 4
??_GCRainbowRaceDBCtrl@@UAEPAXI@Z PROC			; CRainbowRaceDBCtrl::`scalar deleting destructor', COMDAT
; _this$ = ecx
  00000	55		 push	 ebp
  00001	8b ec		 mov	 ebp, esp
  00003	56		 push	 esi
  00004	8b f1		 mov	 esi, ecx
  00006	e8 00 00 00 00	 call	 ??1CRainbowRaceDBCtrl@@UAE@XZ ; CRainbowRaceDBCtrl::~CRainbowRaceDBCtrl
  0000b	f6 45 08 01	 test	 BYTE PTR ___flags$[ebp], 1
  0000f	74 0b		 je	 SHORT $LN5@scalar
  00011	6a 18		 push	 24			; 00000018H
  00013	56		 push	 esi
  00014	e8 00 00 00 00	 call	 ??3@YAXPAXI@Z		; operator delete
  00019	83 c4 08	 add	 esp, 8
$LN5@scalar:
  0001c	8b c6		 mov	 eax, esi
  0001e	5e		 pop	 esi
  0001f	5d		 pop	 ebp
  00020	c2 04 00	 ret	 4
??_GCRainbowRaceDBCtrl@@UAEPAXI@Z ENDP			; CRainbowRaceDBCtrl::`scalar deleting destructor'
_TEXT	ENDS
; Function compile flags: /Ogtp
; File C:\IAGOS\server\v18\Source\Source\DatabaseServer\RainbowRaceDBCtrl.cpp
;	COMDAT ?UpdateWinnersLosers@CRainbowRaceDBCtrl@@AAEXXZ
_TEXT	SEGMENT
_szQuery$ = -40964					; size = 40960
__$ArrayPad$ = -4					; size = 4
?UpdateWinnersLosers@CRainbowRaceDBCtrl@@AAEXXZ PROC	; CRainbowRaceDBCtrl::UpdateWinnersLosers, COMDAT
; _this$ = ecx

; 145  : {

  00000	55		 push	 ebp
  00001	8b ec		 mov	 ebp, esp
  00003	b8 04 a0 00 00	 mov	 eax, 40964		; 0000a004H
  00008	e8 00 00 00 00	 call	 __chkstk
  0000d	a1 00 00 00 00	 mov	 eax, DWORD PTR ___security_cookie
  00012	33 c5		 xor	 eax, ebp
  00014	89 45 fc	 mov	 DWORD PTR __$ArrayPad$[ebp], eax
  00017	56		 push	 esi
  00018	57		 push	 edi
  00019	8b f1		 mov	 esi, ecx

; 146  : 	CQuery* pQuery = GetQueryObject();
; 147  : 	char szQuery[QUERY_SIZE] = {0,};

  0001b	8d 85 fc 5f ff
	ff		 lea	 eax, DWORD PTR _szQuery$[ebp]
  00021	68 00 a0 00 00	 push	 40960			; 0000a000H
  00026	6a 00		 push	 0
  00028	50		 push	 eax
  00029	8b 7e 0c	 mov	 edi, DWORD PTR [esi+12]
  0002c	e8 00 00 00 00	 call	 _memset

; 148  : 
; 149  : 	// ·©Ĺ·żąľŕŔÚżÍ żĎÁÖ˝ÇĆĐŔÚ¸¦ ŔúŔĺÇŃ´Ů.
; 150  : 	sprintf( szQuery, "RAINBOWRACE_STR 'U2', '%02d', %d, '0000000', 0", g_appInfo.dwSys, m_nTimes );

  00031	ff 76 14	 push	 DWORD PTR [esi+20]
  00034	8d 85 fc 5f ff
	ff		 lea	 eax, DWORD PTR _szQuery$[ebp]
  0003a	ff 35 00 00 00
	00		 push	 DWORD PTR ?g_appInfo@@3UAppInfo@@A
  00040	68 00 00 00 00	 push	 OFFSET ??_C@_0CP@DODFNABB@RAINBOWRACE_STR?5?8U2?8?0?5?8?$CF02d?8?0?5?$CF@
  00045	50		 push	 eax
  00046	e8 00 00 00 00	 call	 _sprintf
  0004b	83 c4 1c	 add	 esp, 28			; 0000001cH

; 151  : 	if( pQuery->Exec( szQuery ) == FALSE )

  0004e	8d 85 fc 5f ff
	ff		 lea	 eax, DWORD PTR _szQuery$[ebp]
  00054	8b cf		 mov	 ecx, edi
  00056	50		 push	 eax
  00057	e8 00 00 00 00	 call	 ?Exec@CQuery@@QAEHPBD@Z	; CQuery::Exec
  0005c	5f		 pop	 edi
  0005d	5e		 pop	 esi
  0005e	85 c0		 test	 eax, eax
  00060	75 1e		 jne	 SHORT $LN2@UpdateWinn

; 152  : 	{ WriteLog( "%s, %d\t%s", __FILE__, __LINE__, szQuery ); return; }

  00062	8d 85 fc 5f ff
	ff		 lea	 eax, DWORD PTR _szQuery$[ebp]
  00068	50		 push	 eax
  00069	68 98 00 00 00	 push	 152			; 00000098H
  0006e	68 00 00 00 00	 push	 OFFSET ??_C@_0EH@KIFOPPJD@C?3?2IAGOS?2server?2v18?2Source?2Sour@
  00073	68 00 00 00 00	 push	 OFFSET ??_C@_09GBAEEKDE@?$CFs?0?5?$CFd?7?$CFs@
  00078	e8 00 00 00 00	 call	 ?WriteLog@@YAXPBDZZ	; WriteLog
  0007d	83 c4 10	 add	 esp, 16			; 00000010H
$LN2@UpdateWinn:

; 153  : }

  00080	8b 4d fc	 mov	 ecx, DWORD PTR __$ArrayPad$[ebp]
  00083	33 cd		 xor	 ecx, ebp
  00085	e8 00 00 00 00	 call	 @__security_check_cookie@4
  0008a	8b e5		 mov	 esp, ebp
  0008c	5d		 pop	 ebp
  0008d	c3		 ret	 0
?UpdateWinnersLosers@CRainbowRaceDBCtrl@@AAEXXZ ENDP	; CRainbowRaceDBCtrl::UpdateWinnersLosers
_TEXT	ENDS
; Function compile flags: /Ogtp
; File C:\IAGOS\server\v18\Source\Source\DatabaseServer\RainbowRaceDBCtrl.cpp
;	COMDAT ?UpdateRanking@CRainbowRaceDBCtrl@@AAEXKH@Z
_TEXT	SEGMENT
_szQuery$ = -40964					; size = 40960
__$ArrayPad$ = -4					; size = 4
_dwPlayerId$ = 8					; size = 4
_nRanking$ = 12						; size = 4
?UpdateRanking@CRainbowRaceDBCtrl@@AAEXKH@Z PROC	; CRainbowRaceDBCtrl::UpdateRanking, COMDAT
; _this$ = ecx

; 134  : {

  00000	55		 push	 ebp
  00001	8b ec		 mov	 ebp, esp
  00003	b8 04 a0 00 00	 mov	 eax, 40964		; 0000a004H
  00008	e8 00 00 00 00	 call	 __chkstk
  0000d	a1 00 00 00 00	 mov	 eax, DWORD PTR ___security_cookie
  00012	33 c5		 xor	 eax, ebp
  00014	89 45 fc	 mov	 DWORD PTR __$ArrayPad$[ebp], eax
  00017	56		 push	 esi
  00018	57		 push	 edi
  00019	8b f1		 mov	 esi, ecx

; 135  : 	CQuery* pQuery = GetQueryObject();
; 136  : 	char szQuery[QUERY_SIZE] = {0,};

  0001b	8d 85 fc 5f ff
	ff		 lea	 eax, DWORD PTR _szQuery$[ebp]
  00021	68 00 a0 00 00	 push	 40960			; 0000a000H
  00026	6a 00		 push	 0
  00028	50		 push	 eax
  00029	8b 7e 0c	 mov	 edi, DWORD PTR [esi+12]
  0002c	e8 00 00 00 00	 call	 _memset

; 137  : 
; 138  : 	// żĎÁÖÇŃ ŔŻŔú¸¦ ·©Ĺ· żąľŕÇŃ´Ů.
; 139  : 	sprintf( szQuery, "RAINBOWRACE_STR 'U1', '%02d', %d, '%07d', %d", g_appInfo.dwSys, m_nTimes, dwPlayerId, nRanking );

  00031	ff 75 0c	 push	 DWORD PTR _nRanking$[ebp]
  00034	8d 85 fc 5f ff
	ff		 lea	 eax, DWORD PTR _szQuery$[ebp]
  0003a	ff 75 08	 push	 DWORD PTR _dwPlayerId$[ebp]
  0003d	ff 76 14	 push	 DWORD PTR [esi+20]
  00040	ff 35 00 00 00
	00		 push	 DWORD PTR ?g_appInfo@@3UAppInfo@@A
  00046	68 00 00 00 00	 push	 OFFSET ??_C@_0CN@DNLIHHMJ@RAINBOWRACE_STR?5?8U1?8?0?5?8?$CF02d?8?0?5?$CF@
  0004b	50		 push	 eax
  0004c	e8 00 00 00 00	 call	 _sprintf
  00051	83 c4 24	 add	 esp, 36			; 00000024H

; 140  : 	if( pQuery->Exec( szQuery ) == FALSE )

  00054	8d 85 fc 5f ff
	ff		 lea	 eax, DWORD PTR _szQuery$[ebp]
  0005a	8b cf		 mov	 ecx, edi
  0005c	50		 push	 eax
  0005d	e8 00 00 00 00	 call	 ?Exec@CQuery@@QAEHPBD@Z	; CQuery::Exec
  00062	5f		 pop	 edi
  00063	5e		 pop	 esi
  00064	85 c0		 test	 eax, eax
  00066	75 1e		 jne	 SHORT $LN2@UpdateRank

; 141  : 	{ WriteLog( "%s, %d\t%s", __FILE__, __LINE__, szQuery ); return; }

  00068	8d 85 fc 5f ff
	ff		 lea	 eax, DWORD PTR _szQuery$[ebp]
  0006e	50		 push	 eax
  0006f	68 8d 00 00 00	 push	 141			; 0000008dH
  00074	68 00 00 00 00	 push	 OFFSET ??_C@_0EH@KIFOPPJD@C?3?2IAGOS?2server?2v18?2Source?2Sour@
  00079	68 00 00 00 00	 push	 OFFSET ??_C@_09GBAEEKDE@?$CFs?0?5?$CFd?7?$CFs@
  0007e	e8 00 00 00 00	 call	 ?WriteLog@@YAXPBDZZ	; WriteLog
  00083	83 c4 10	 add	 esp, 16			; 00000010H
$LN2@UpdateRank:

; 142  : }

  00086	8b 4d fc	 mov	 ecx, DWORD PTR __$ArrayPad$[ebp]
  00089	33 cd		 xor	 ecx, ebp
  0008b	e8 00 00 00 00	 call	 @__security_check_cookie@4
  00090	8b e5		 mov	 esp, ebp
  00092	5d		 pop	 ebp
  00093	c2 08 00	 ret	 8
?UpdateRanking@CRainbowRaceDBCtrl@@AAEXKH@Z ENDP	; CRainbowRaceDBCtrl::UpdateRanking
_TEXT	ENDS
; Function compile flags: /Ogtp
; File C:\IAGOS\server\v18\Source\Source\DatabaseServer\RainbowRaceDBCtrl.cpp
;	COMDAT ?FailedUser@CRainbowRaceDBCtrl@@AAEXK@Z
_TEXT	SEGMENT
_szQuery$ = -40964					; size = 40960
__$ArrayPad$ = -4					; size = 4
_dwPlayerId$ = 8					; size = 4
?FailedUser@CRainbowRaceDBCtrl@@AAEXK@Z PROC		; CRainbowRaceDBCtrl::FailedUser, COMDAT
; _this$ = ecx

; 122  : {

  00000	55		 push	 ebp
  00001	8b ec		 mov	 ebp, esp
  00003	b8 04 a0 00 00	 mov	 eax, 40964		; 0000a004H
  00008	e8 00 00 00 00	 call	 __chkstk
  0000d	a1 00 00 00 00	 mov	 eax, DWORD PTR ___security_cookie
  00012	33 c5		 xor	 eax, ebp
  00014	89 45 fc	 mov	 DWORD PTR __$ArrayPad$[ebp], eax
  00017	56		 push	 esi
  00018	57		 push	 edi
  00019	8b f1		 mov	 esi, ecx

; 123  : 	CQuery* pQuery = GetQueryObject();
; 124  : 	char szQuery[QUERY_SIZE] = {0,};

  0001b	8d 85 fc 5f ff
	ff		 lea	 eax, DWORD PTR _szQuery$[ebp]
  00021	68 00 a0 00 00	 push	 40960			; 0000a000H
  00026	6a 00		 push	 0
  00028	50		 push	 eax
  00029	8b 7e 0c	 mov	 edi, DWORD PTR [esi+12]
  0002c	e8 00 00 00 00	 call	 _memset

; 125  : 
; 126  : 	// ·ąŔÎş¸żě·ąŔĚ˝ş ˝ĂŔŰ˝Ă Á˘ĽÓľČÇŃ ŔŻŔú ˝ÇĆĐĂł¸®
; 127  : 	sprintf( szQuery, "RAINBOWRACE_STR 'U3', '%02d', %d, '%07d', 0", g_appInfo.dwSys, m_nTimes, dwPlayerId );

  00031	ff 75 08	 push	 DWORD PTR _dwPlayerId$[ebp]
  00034	8d 85 fc 5f ff
	ff		 lea	 eax, DWORD PTR _szQuery$[ebp]
  0003a	ff 76 14	 push	 DWORD PTR [esi+20]
  0003d	ff 35 00 00 00
	00		 push	 DWORD PTR ?g_appInfo@@3UAppInfo@@A
  00043	68 00 00 00 00	 push	 OFFSET ??_C@_0CM@IMCBGFP@RAINBOWRACE_STR?5?8U3?8?0?5?8?$CF02d?8?0?5?$CF@
  00048	50		 push	 eax
  00049	e8 00 00 00 00	 call	 _sprintf
  0004e	83 c4 20	 add	 esp, 32			; 00000020H

; 128  : 	if( pQuery->Exec( szQuery ) == FALSE )

  00051	8d 85 fc 5f ff
	ff		 lea	 eax, DWORD PTR _szQuery$[ebp]
  00057	8b cf		 mov	 ecx, edi
  00059	50		 push	 eax
  0005a	e8 00 00 00 00	 call	 ?Exec@CQuery@@QAEHPBD@Z	; CQuery::Exec
  0005f	5f		 pop	 edi
  00060	5e		 pop	 esi
  00061	85 c0		 test	 eax, eax
  00063	75 1e		 jne	 SHORT $LN2@FailedUser

; 129  : 	{ WriteLog( "%s, %d\t%s", __FILE__, __LINE__, szQuery ); return; }

  00065	8d 85 fc 5f ff
	ff		 lea	 eax, DWORD PTR _szQuery$[ebp]
  0006b	50		 push	 eax
  0006c	68 81 00 00 00	 push	 129			; 00000081H
  00071	68 00 00 00 00	 push	 OFFSET ??_C@_0EH@KIFOPPJD@C?3?2IAGOS?2server?2v18?2Source?2Sour@
  00076	68 00 00 00 00	 push	 OFFSET ??_C@_09GBAEEKDE@?$CFs?0?5?$CFd?7?$CFs@
  0007b	e8 00 00 00 00	 call	 ?WriteLog@@YAXPBDZZ	; WriteLog
  00080	83 c4 10	 add	 esp, 16			; 00000010H
$LN2@FailedUser:

; 130  : }

  00083	8b 4d fc	 mov	 ecx, DWORD PTR __$ArrayPad$[ebp]
  00086	33 cd		 xor	 ecx, ebp
  00088	e8 00 00 00 00	 call	 @__security_check_cookie@4
  0008d	8b e5		 mov	 esp, ebp
  0008f	5d		 pop	 ebp
  00090	c2 04 00	 ret	 4
?FailedUser@CRainbowRaceDBCtrl@@AAEXK@Z ENDP		; CRainbowRaceDBCtrl::FailedUser
_TEXT	ENDS
; Function compile flags: /Ogtp
; File C:\IAGOS\server\v18\Source\Source\DatabaseServer\RainbowRaceDBCtrl.cpp
;	COMDAT ?Application@CRainbowRaceDBCtrl@@AAEXK@Z
_TEXT	SEGMENT
_szQuery$ = -40964					; size = 40960
__$ArrayPad$ = -4					; size = 4
_dwPlayerId$ = 8					; size = 4
?Application@CRainbowRaceDBCtrl@@AAEXK@Z PROC		; CRainbowRaceDBCtrl::Application, COMDAT
; _this$ = ecx

; 111  : {

  00000	55		 push	 ebp
  00001	8b ec		 mov	 ebp, esp
  00003	b8 04 a0 00 00	 mov	 eax, 40964		; 0000a004H
  00008	e8 00 00 00 00	 call	 __chkstk
  0000d	a1 00 00 00 00	 mov	 eax, DWORD PTR ___security_cookie
  00012	33 c5		 xor	 eax, ebp
  00014	89 45 fc	 mov	 DWORD PTR __$ArrayPad$[ebp], eax
  00017	56		 push	 esi
  00018	57		 push	 edi
  00019	8b f1		 mov	 esi, ecx

; 112  : 	CQuery* pQuery = GetQueryObject();
; 113  : 	char szQuery[QUERY_SIZE] = {0,};

  0001b	8d 85 fc 5f ff
	ff		 lea	 eax, DWORD PTR _szQuery$[ebp]
  00021	68 00 a0 00 00	 push	 40960			; 0000a000H
  00026	6a 00		 push	 0
  00028	50		 push	 eax
  00029	8b 7e 0c	 mov	 edi, DWORD PTR [esi+12]
  0002c	e8 00 00 00 00	 call	 _memset

; 114  : 
; 115  : 	// µî·ĎÇŃ ˝ĹĂ»ŔÚ¸¦ DBżˇ ŔúŔĺÇŃ´Ů.
; 116  : 	sprintf( szQuery, "RAINBOWRACE_STR 'I1', '%02d', %d, '%07d', 0", g_appInfo.dwSys, m_nTimes, dwPlayerId );

  00031	ff 75 08	 push	 DWORD PTR _dwPlayerId$[ebp]
  00034	8d 85 fc 5f ff
	ff		 lea	 eax, DWORD PTR _szQuery$[ebp]
  0003a	ff 76 14	 push	 DWORD PTR [esi+20]
  0003d	ff 35 00 00 00
	00		 push	 DWORD PTR ?g_appInfo@@3UAppInfo@@A
  00043	68 00 00 00 00	 push	 OFFSET ??_C@_0CM@OADPELKK@RAINBOWRACE_STR?5?8I1?8?0?5?8?$CF02d?8?0?5?$CF@
  00048	50		 push	 eax
  00049	e8 00 00 00 00	 call	 _sprintf
  0004e	83 c4 20	 add	 esp, 32			; 00000020H

; 117  : 	if( pQuery->Exec( szQuery ) == FALSE )

  00051	8d 85 fc 5f ff
	ff		 lea	 eax, DWORD PTR _szQuery$[ebp]
  00057	8b cf		 mov	 ecx, edi
  00059	50		 push	 eax
  0005a	e8 00 00 00 00	 call	 ?Exec@CQuery@@QAEHPBD@Z	; CQuery::Exec
  0005f	5f		 pop	 edi
  00060	5e		 pop	 esi
  00061	85 c0		 test	 eax, eax
  00063	75 1b		 jne	 SHORT $LN2@Applicatio

; 118  : 	{ WriteLog( "%s, %d\t%s", __FILE__, __LINE__, szQuery ); return; }

  00065	8d 85 fc 5f ff
	ff		 lea	 eax, DWORD PTR _szQuery$[ebp]
  0006b	50		 push	 eax
  0006c	6a 76		 push	 118			; 00000076H
  0006e	68 00 00 00 00	 push	 OFFSET ??_C@_0EH@KIFOPPJD@C?3?2IAGOS?2server?2v18?2Source?2Sour@
  00073	68 00 00 00 00	 push	 OFFSET ??_C@_09GBAEEKDE@?$CFs?0?5?$CFd?7?$CFs@
  00078	e8 00 00 00 00	 call	 ?WriteLog@@YAXPBDZZ	; WriteLog
  0007d	83 c4 10	 add	 esp, 16			; 00000010H
$LN2@Applicatio:

; 119  : }

  00080	8b 4d fc	 mov	 ecx, DWORD PTR __$ArrayPad$[ebp]
  00083	33 cd		 xor	 ecx, ebp
  00085	e8 00 00 00 00	 call	 @__security_check_cookie@4
  0008a	8b e5		 mov	 esp, ebp
  0008c	5d		 pop	 ebp
  0008d	c2 04 00	 ret	 4
?Application@CRainbowRaceDBCtrl@@AAEXK@Z ENDP		; CRainbowRaceDBCtrl::Application
_TEXT	ENDS
; Function compile flags: /Ogtp
; File C:\IAGOS\server\v18\Source\Source\DatabaseServer\RainbowRaceDBCtrl.cpp
; File C:\Program Files\Microsoft Visual Studio\2022\Professional\VC\Tools\MSVC\14.44.35207\include\vector
; File C:\IAGOS\server\v18\Source\Source\DatabaseServer\RainbowRaceDBCtrl.cpp
; File C:\Program Files\Microsoft Visual Studio\2022\Professional\VC\Tools\MSVC\14.44.35207\include\vector
; File C:\IAGOS\server\v18\Source\Source\DatabaseServer\RainbowRaceDBCtrl.cpp
; File C:\Program Files\Microsoft Visual Studio\2022\Professional\VC\Tools\MSVC\14.44.35207\include\vector
; File C:\IAGOS\server\v18\Source\Source\DatabaseServer\RainbowRaceDBCtrl.cpp
; File C:\Program Files\Microsoft Visual Studio\2022\Professional\VC\Tools\MSVC\14.44.35207\include\vector
; File C:\IAGOS\server\v18\Source\Source\DatabaseServer\RainbowRaceDBCtrl.cpp
; File C:\Program Files\Microsoft Visual Studio\2022\Professional\VC\Tools\MSVC\14.44.35207\include\vector
; File C:\IAGOS\server\v18\Source\Source\DatabaseServer\RainbowRaceDBCtrl.cpp
; File C:\Program Files\Microsoft Visual Studio\2022\Professional\VC\Tools\MSVC\14.44.35207\include\vector
; File C:\IAGOS\server\v18\Source\Source\DatabaseServer\RainbowRaceDBCtrl.cpp
; File C:\Program Files\Microsoft Visual Studio\2022\Professional\VC\Tools\MSVC\14.44.35207\include\vector
; File C:\IAGOS\server\v18\Source\Source\DatabaseServer\RainbowRaceDBCtrl.cpp
; File C:\Program Files\Microsoft Visual Studio\2022\Professional\VC\Tools\MSVC\14.44.35207\include\vector
; File C:\Program Files\Microsoft Visual Studio\2022\Professional\VC\Tools\MSVC\14.44.35207\include\xmemory
; File C:\Program Files\Microsoft Visual Studio\2022\Professional\VC\Tools\MSVC\14.44.35207\include\vector
; File C:\Program Files\Microsoft Visual Studio\2022\Professional\VC\Tools\MSVC\14.44.35207\include\xmemory
; File C:\Program Files\Microsoft Visual Studio\2022\Professional\VC\Tools\MSVC\14.44.35207\include\vector
; File C:\Program Files\Microsoft Visual Studio\2022\Professional\VC\Tools\MSVC\14.44.35207\include\xmemory
; File C:\Program Files\Microsoft Visual Studio\2022\Professional\VC\Tools\MSVC\14.44.35207\include\vector
; File C:\Program Files\Microsoft Visual Studio\2022\Professional\VC\Tools\MSVC\14.44.35207\include\xmemory
; File C:\IAGOS\server\v18\Source\Source\DatabaseServer\RainbowRaceDBCtrl.cpp
; File C:\Program Files\Microsoft Visual Studio\2022\Professional\VC\Tools\MSVC\14.44.35207\include\xmemory
; File C:\IAGOS\server\v18\Source\Source\DatabaseServer\RainbowRaceDBCtrl.cpp
;	COMDAT ?LoadRainbowRace@CRainbowRaceDBCtrl@@AAEXK@Z
_TEXT	SEGMENT
$T2 = -41004						; size = 4
$T3 = -41004						; size = 4
_vec_dwNowPlayerId$ = -41000				; size = 12
_vec_dwPrevRanking$ = -40988				; size = 12
_szQuery$ = -40976					; size = 40960
__$ArrayPad$ = -16					; size = 4
__$EHRec$ = -12						; size = 12
_dpId$ = 8						; size = 4
?LoadRainbowRace@CRainbowRaceDBCtrl@@AAEXK@Z PROC	; CRainbowRaceDBCtrl::LoadRainbowRace, COMDAT
; _this$ = ecx

; 66   : {

  00000	55		 push	 ebp
  00001	8b ec		 mov	 ebp, esp
  00003	6a ff		 push	 -1
  00005	68 00 00 00 00	 push	 __ehhandler$?LoadRainbowRace@CRainbowRaceDBCtrl@@AAEXK@Z
  0000a	64 a1 00 00 00
	00		 mov	 eax, DWORD PTR fs:0
  00010	50		 push	 eax
  00011	b8 20 a0 00 00	 mov	 eax, 40992		; 0000a020H
  00016	e8 00 00 00 00	 call	 __chkstk
  0001b	a1 00 00 00 00	 mov	 eax, DWORD PTR ___security_cookie
  00020	33 c5		 xor	 eax, ebp
  00022	89 45 f0	 mov	 DWORD PTR __$ArrayPad$[ebp], eax
  00025	53		 push	 ebx
  00026	56		 push	 esi
  00027	57		 push	 edi
  00028	50		 push	 eax
  00029	8d 45 f4	 lea	 eax, DWORD PTR __$EHRec$[ebp]
  0002c	64 a3 00 00 00
	00		 mov	 DWORD PTR fs:0, eax
  00032	8b d9		 mov	 ebx, ecx

; 67   : 	CQuery* pQuery = GetQueryObject();

  00034	8b 73 0c	 mov	 esi, DWORD PTR [ebx+12]

; 68   : 	char szQuery[QUERY_SIZE] = {0,};

  00037	8d 85 f0 5f ff
	ff		 lea	 eax, DWORD PTR _szQuery$[ebp]
  0003d	68 00 a0 00 00	 push	 40960			; 0000a000H
  00042	6a 00		 push	 0
  00044	50		 push	 eax
  00045	e8 00 00 00 00	 call	 _memset

; 69   : 
; 70   : 	// m_nTimes Á¤ş¸ °ˇÁ®żŔ±â.. ľřŔ¸¸é 0
; 71   : 	sprintf( szQuery, "RAINBOWRACE_STR 'S1', '%02d', 0, '0000000', 0", g_appInfo.dwSys );

  0004a	ff 35 00 00 00
	00		 push	 DWORD PTR ?g_appInfo@@3UAppInfo@@A
  00050	8d 85 f0 5f ff
	ff		 lea	 eax, DWORD PTR _szQuery$[ebp]
  00056	68 00 00 00 00	 push	 OFFSET ??_C@_0CO@BONCMNCH@RAINBOWRACE_STR?5?8S1?8?0?5?8?$CF02d?8?0?50@
  0005b	50		 push	 eax
  0005c	e8 00 00 00 00	 call	 _sprintf
  00061	83 c4 18	 add	 esp, 24			; 00000018H

; 72   : 	if( pQuery->Exec( szQuery ) == FALSE )

  00064	8d 85 f0 5f ff
	ff		 lea	 eax, DWORD PTR _szQuery$[ebp]
  0006a	8b ce		 mov	 ecx, esi
  0006c	50		 push	 eax
  0006d	e8 00 00 00 00	 call	 ?Exec@CQuery@@QAEHPBD@Z	; CQuery::Exec
  00072	85 c0		 test	 eax, eax
  00074	75 20		 jne	 SHORT $LN6@LoadRainbo

; 73   : 	{ WriteLog( "%s, %d\t%s", __FILE__, __LINE__, szQuery ); return; }

  00076	8d 85 f0 5f ff
	ff		 lea	 eax, DWORD PTR _szQuery$[ebp]
  0007c	50		 push	 eax
  0007d	6a 49		 push	 73			; 00000049H
  0007f	68 00 00 00 00	 push	 OFFSET ??_C@_0EH@KIFOPPJD@C?3?2IAGOS?2server?2v18?2Source?2Sour@
  00084	68 00 00 00 00	 push	 OFFSET ??_C@_09GBAEEKDE@?$CFs?0?5?$CFd?7?$CFs@
  00089	e8 00 00 00 00	 call	 ?WriteLog@@YAXPBDZZ	; WriteLog
  0008e	83 c4 10	 add	 esp, 16			; 00000010H
  00091	e9 86 02 00 00	 jmp	 $LN101@LoadRainbo
$LN6@LoadRainbo:

; 74   : 
; 75   : 	if( pQuery->Fetch() )

  00096	8b ce		 mov	 ecx, esi
  00098	e8 00 00 00 00	 call	 ?Fetch@CQuery@@QAEHXZ	; CQuery::Fetch
  0009d	85 c0		 test	 eax, eax
  0009f	74 0f		 je	 SHORT $LN127@LoadRainbo

; 76   : 		m_nTimes = pQuery->GetInt( "nTimes" );

  000a1	68 00 00 00 00	 push	 OFFSET ??_C@_06DJGFEEME@nTimes@
  000a6	8b ce		 mov	 ecx, esi
  000a8	e8 00 00 00 00	 call	 ?GetInt@CQuery@@QAEHPAD@Z ; CQuery::GetInt
  000ad	89 43 14	 mov	 DWORD PTR [ebx+20], eax
$LN127@LoadRainbo:

; 77   : 	if( m_nTimes == 0 )

  000b0	8b 43 14	 mov	 eax, DWORD PTR [ebx+20]
  000b3	85 c0		 test	 eax, eax
  000b5	75 0c		 jne	 SHORT $LN8@LoadRainbo

; 78   : 	{
; 79   : 		m_nTimes = 1;

  000b7	c7 43 14 01 00
	00 00		 mov	 DWORD PTR [ebx+20], 1

; 80   : 		return;

  000be	e9 59 02 00 00	 jmp	 $LN101@LoadRainbo
$LN8@LoadRainbo:
; File C:\Program Files\Microsoft Visual Studio\2022\Professional\VC\Tools\MSVC\14.44.35207\include\vector

; 400  :     _CONSTEXPR20 _Vector_val() noexcept : _Myfirst(), _Mylast(), _Myend() {}

  000c3	c7 85 d8 5f ff
	ff 00 00 00 00	 mov	 DWORD PTR _vec_dwNowPlayerId$[ebp], 0
  000cd	c7 85 dc 5f ff
	ff 00 00 00 00	 mov	 DWORD PTR _vec_dwNowPlayerId$[ebp+4], 0
  000d7	c7 85 e0 5f ff
	ff 00 00 00 00	 mov	 DWORD PTR _vec_dwNowPlayerId$[ebp+8], 0
; File C:\IAGOS\server\v18\Source\Source\DatabaseServer\RainbowRaceDBCtrl.cpp

; 85   : 	sprintf( szQuery, "RAINBOWRACE_STR 'S2', '%02d', %d, '0000000', 0", g_appInfo.dwSys, m_nTimes );

  000e1	50		 push	 eax
  000e2	ff 35 00 00 00
	00		 push	 DWORD PTR ?g_appInfo@@3UAppInfo@@A
  000e8	8d 85 f0 5f ff
	ff		 lea	 eax, DWORD PTR _szQuery$[ebp]
  000ee	c7 45 fc 00 00
	00 00		 mov	 DWORD PTR __$EHRec$[ebp+8], 0
  000f5	68 00 00 00 00	 push	 OFFSET ??_C@_0CP@LHHHJKCB@RAINBOWRACE_STR?5?8S2?8?0?5?8?$CF02d?8?0?5?$CF@
  000fa	50		 push	 eax
  000fb	e8 00 00 00 00	 call	 _sprintf
  00100	83 c4 10	 add	 esp, 16			; 00000010H

; 86   : 	if( pQuery->Exec( szQuery ) == FALSE )

  00103	8d 85 f0 5f ff
	ff		 lea	 eax, DWORD PTR _szQuery$[ebp]
  00109	8b ce		 mov	 ecx, esi
  0010b	50		 push	 eax
  0010c	e8 00 00 00 00	 call	 ?Exec@CQuery@@QAEHPBD@Z	; CQuery::Exec
  00111	85 c0		 test	 eax, eax
  00113	75 20		 jne	 SHORT $LN119@LoadRainbo

; 87   : 	{ WriteLog( "%s, %d\t%s", __FILE__, __LINE__, szQuery ); return; }

  00115	8d 85 f0 5f ff
	ff		 lea	 eax, DWORD PTR _szQuery$[ebp]
  0011b	50		 push	 eax
  0011c	6a 57		 push	 87			; 00000057H
  0011e	68 00 00 00 00	 push	 OFFSET ??_C@_0EH@KIFOPPJD@C?3?2IAGOS?2server?2v18?2Source?2Sour@
  00123	68 00 00 00 00	 push	 OFFSET ??_C@_09GBAEEKDE@?$CFs?0?5?$CFd?7?$CFs@
  00128	e8 00 00 00 00	 call	 ?WriteLog@@YAXPBDZZ	; WriteLog
  0012d	83 c4 10	 add	 esp, 16			; 00000010H
  00130	e9 ae 01 00 00	 jmp	 $LN78@LoadRainbo
$LN119@LoadRainbo:

; 89   : 	while( pQuery->Fetch() )

  00135	8b ce		 mov	 ecx, esi
  00137	e8 00 00 00 00	 call	 ?Fetch@CQuery@@QAEHXZ	; CQuery::Fetch
  0013c	85 c0		 test	 eax, eax
  0013e	74 49		 je	 SHORT $LN3@LoadRainbo
$LL2@LoadRainbo:

; 90   : 		vec_dwNowPlayerId.push_back( static_cast<DWORD>( pQuery->GetInt( "m_idPlayer" ) ) );

  00140	68 00 00 00 00	 push	 OFFSET ??_C@_0L@FONFFEJF@m_idPlayer@
  00145	8b ce		 mov	 ecx, esi
  00147	e8 00 00 00 00	 call	 ?GetInt@CQuery@@QAEHPAD@Z ; CQuery::GetInt
; File C:\Program Files\Microsoft Visual Studio\2022\Professional\VC\Tools\MSVC\14.44.35207\include\vector

; 844  :         if (_Mylast != _My_data._Myend) {

  0014c	8b 8d dc 5f ff
	ff		 mov	 ecx, DWORD PTR _vec_dwNowPlayerId$[ebp+4]
; File C:\IAGOS\server\v18\Source\Source\DatabaseServer\RainbowRaceDBCtrl.cpp

; 90   : 		vec_dwNowPlayerId.push_back( static_cast<DWORD>( pQuery->GetInt( "m_idPlayer" ) ) );

  00152	89 85 d4 5f ff
	ff		 mov	 DWORD PTR $T2[ebp], eax
; File C:\Program Files\Microsoft Visual Studio\2022\Professional\VC\Tools\MSVC\14.44.35207\include\vector

; 844  :         if (_Mylast != _My_data._Myend) {

  00158	3b 8d e0 5f ff
	ff		 cmp	 ecx, DWORD PTR _vec_dwNowPlayerId$[ebp+8]
  0015e	74 0b		 je	 SHORT $LN37@LoadRainbo

; 860  :             _STD _Construct_in_place(*_Mylast, _STD forward<_Valty>(_Val)...);

  00160	89 01		 mov	 DWORD PTR [ecx], eax

; 861  :         } else {
; 862  :             _ASAN_VECTOR_EXTEND_GUARD(static_cast<size_type>(_Mylast - _My_data._Myfirst) + 1);
; 863  :             _Alty_traits::construct(_Getal(), _Unfancy(_Mylast), _STD forward<_Valty>(_Val)...);
; 864  :             _ASAN_VECTOR_RELEASE_GUARD;
; 865  :         }
; 866  : 
; 867  :         _Orphan_range(_Mylast, _Mylast);
; 868  :         _Ty& _Result = *_Mylast;
; 869  :         ++_Mylast;

  00162	83 85 dc 5f ff
	ff 04		 add	 DWORD PTR _vec_dwNowPlayerId$[ebp+4], 4

; 845  :             return _Emplace_back_with_unused_capacity(_STD forward<_Valty>(_Val)...);

  00169	eb 13		 jmp	 SHORT $LN36@LoadRainbo
$LN37@LoadRainbo:

; 846  :         }
; 847  : 
; 848  :         return *_Emplace_reallocate(_Mylast, _STD forward<_Valty>(_Val)...);

  0016b	8d 85 d4 5f ff
	ff		 lea	 eax, DWORD PTR $T2[ebp]
  00171	50		 push	 eax
  00172	51		 push	 ecx
  00173	8d 8d d8 5f ff
	ff		 lea	 ecx, DWORD PTR _vec_dwNowPlayerId$[ebp]
  00179	e8 00 00 00 00	 call	 ??$_Emplace_reallocate@K@?$vector@KV?$allocator@K@std@@@std@@AAEPAKQAK$$QAK@Z ; std::vector<unsigned long,std::allocator<unsigned long> >::_Emplace_reallocate<unsigned long>
$LN36@LoadRainbo:
; File C:\IAGOS\server\v18\Source\Source\DatabaseServer\RainbowRaceDBCtrl.cpp

; 89   : 	while( pQuery->Fetch() )

  0017e	8b ce		 mov	 ecx, esi
  00180	e8 00 00 00 00	 call	 ?Fetch@CQuery@@QAEHXZ	; CQuery::Fetch
  00185	85 c0		 test	 eax, eax
  00187	75 b7		 jne	 SHORT $LL2@LoadRainbo
$LN3@LoadRainbo:
; File C:\Program Files\Microsoft Visual Studio\2022\Professional\VC\Tools\MSVC\14.44.35207\include\vector

; 1915 :         return static_cast<size_type>(_My_data._Mylast - _My_data._Myfirst);

  00189	8b 85 dc 5f ff
	ff		 mov	 eax, DWORD PTR _vec_dwNowPlayerId$[ebp+4]
  0018f	2b 85 d8 5f ff
	ff		 sub	 eax, DWORD PTR _vec_dwNowPlayerId$[ebp]
; File C:\IAGOS\server\v18\Source\Source\DatabaseServer\RainbowRaceDBCtrl.cpp

; 92   : 	if( vec_dwNowPlayerId.size() == 0 )		// ÇöŔç ˝ĹĂ»ŔÚ°ˇ ľřŔ¸¸é ´ŮŔ˝ Č¸ ÁřÇŕ...

  00195	a9 fc ff ff ff	 test	 eax, -4			; fffffffcH
  0019a	75 03		 jne	 SHORT $LN128@LoadRainbo

; 93   : 		m_nTimes++;

  0019c	ff 43 14	 inc	 DWORD PTR [ebx+20]
$LN128@LoadRainbo:
; File C:\Program Files\Microsoft Visual Studio\2022\Professional\VC\Tools\MSVC\14.44.35207\include\vector

; 400  :     _CONSTEXPR20 _Vector_val() noexcept : _Myfirst(), _Mylast(), _Myend() {}

  0019f	c7 85 e4 5f ff
	ff 00 00 00 00	 mov	 DWORD PTR _vec_dwPrevRanking$[ebp], 0
  001a9	c7 85 e8 5f ff
	ff 00 00 00 00	 mov	 DWORD PTR _vec_dwPrevRanking$[ebp+4], 0
  001b3	c7 85 ec 5f ff
	ff 00 00 00 00	 mov	 DWORD PTR _vec_dwPrevRanking$[ebp+8], 0
; File C:\IAGOS\server\v18\Source\Source\DatabaseServer\RainbowRaceDBCtrl.cpp

; 97   : 	if( m_nTimes > 1 )	// ÇöŔç°ˇ 2Č¸ ŔĚ»óŔĎ¶§¸¸..( 1Č¸ ŔĚ»ó ÁřÇŕÇßŔ» °ćżě )

  001bd	8b 43 14	 mov	 eax, DWORD PTR [ebx+20]
  001c0	c6 45 fc 01	 mov	 BYTE PTR __$EHRec$[ebp+8], 1
  001c4	83 f8 01	 cmp	 eax, 1
  001c7	0f 8e 9e 00 00
	00		 jle	 $LN5@LoadRainbo

; 98   : 	{
; 99   : 		sprintf( szQuery, "RAINBOWRACE_STR 'S3', '%02d', %d, '0000000', 0", g_appInfo.dwSys, m_nTimes );

  001cd	50		 push	 eax
  001ce	ff 35 00 00 00
	00		 push	 DWORD PTR ?g_appInfo@@3UAppInfo@@A
  001d4	8d 85 f0 5f ff
	ff		 lea	 eax, DWORD PTR _szQuery$[ebp]
  001da	68 00 00 00 00	 push	 OFFSET ??_C@_0CP@NEHAEDAF@RAINBOWRACE_STR?5?8S3?8?0?5?8?$CF02d?8?0?5?$CF@
  001df	50		 push	 eax
  001e0	e8 00 00 00 00	 call	 _sprintf
  001e5	83 c4 10	 add	 esp, 16			; 00000010H

; 100  : 		if( pQuery->Exec( szQuery ) == FALSE )

  001e8	8d 85 f0 5f ff
	ff		 lea	 eax, DWORD PTR _szQuery$[ebp]
  001ee	8b ce		 mov	 ecx, esi
  001f0	50		 push	 eax
  001f1	e8 00 00 00 00	 call	 ?Exec@CQuery@@QAEHPBD@Z	; CQuery::Exec
  001f6	85 c0		 test	 eax, eax
  001f8	75 1d		 jne	 SHORT $LN120@LoadRainbo

; 101  : 		{ WriteLog( "%s, %d\t%s", __FILE__, __LINE__, szQuery ); return; }

  001fa	8d 85 f0 5f ff
	ff		 lea	 eax, DWORD PTR _szQuery$[ebp]
  00200	50		 push	 eax
  00201	6a 65		 push	 101			; 00000065H
  00203	68 00 00 00 00	 push	 OFFSET ??_C@_0EH@KIFOPPJD@C?3?2IAGOS?2server?2v18?2Source?2Sour@
  00208	68 00 00 00 00	 push	 OFFSET ??_C@_09GBAEEKDE@?$CFs?0?5?$CFd?7?$CFs@
  0020d	e8 00 00 00 00	 call	 ?WriteLog@@YAXPBDZZ	; WriteLog
  00212	83 c4 10	 add	 esp, 16			; 00000010H
  00215	eb 71		 jmp	 SHORT $LN17@LoadRainbo
$LN120@LoadRainbo:

; 103  : 		while( pQuery->Fetch() )

  00217	8b ce		 mov	 ecx, esi
  00219	e8 00 00 00 00	 call	 ?Fetch@CQuery@@QAEHXZ	; CQuery::Fetch
  0021e	85 c0		 test	 eax, eax
  00220	74 49		 je	 SHORT $LN5@LoadRainbo
$LL4@LoadRainbo:

; 104  : 			vec_dwPrevRanking.push_back( static_cast<DWORD>( pQuery->GetInt( "m_idPlayer" ) ) );

  00222	68 00 00 00 00	 push	 OFFSET ??_C@_0L@FONFFEJF@m_idPlayer@
  00227	8b ce		 mov	 ecx, esi
  00229	e8 00 00 00 00	 call	 ?GetInt@CQuery@@QAEHPAD@Z ; CQuery::GetInt
; File C:\Program Files\Microsoft Visual Studio\2022\Professional\VC\Tools\MSVC\14.44.35207\include\vector

; 844  :         if (_Mylast != _My_data._Myend) {

  0022e	8b 8d e8 5f ff
	ff		 mov	 ecx, DWORD PTR _vec_dwPrevRanking$[ebp+4]
; File C:\IAGOS\server\v18\Source\Source\DatabaseServer\RainbowRaceDBCtrl.cpp

; 104  : 			vec_dwPrevRanking.push_back( static_cast<DWORD>( pQuery->GetInt( "m_idPlayer" ) ) );

  00234	89 85 d4 5f ff
	ff		 mov	 DWORD PTR $T3[ebp], eax
; File C:\Program Files\Microsoft Visual Studio\2022\Professional\VC\Tools\MSVC\14.44.35207\include\vector

; 844  :         if (_Mylast != _My_data._Myend) {

  0023a	3b 8d ec 5f ff
	ff		 cmp	 ecx, DWORD PTR _vec_dwPrevRanking$[ebp+8]
  00240	74 0b		 je	 SHORT $LN70@LoadRainbo

; 860  :             _STD _Construct_in_place(*_Mylast, _STD forward<_Valty>(_Val)...);

  00242	89 01		 mov	 DWORD PTR [ecx], eax

; 861  :         } else {
; 862  :             _ASAN_VECTOR_EXTEND_GUARD(static_cast<size_type>(_Mylast - _My_data._Myfirst) + 1);
; 863  :             _Alty_traits::construct(_Getal(), _Unfancy(_Mylast), _STD forward<_Valty>(_Val)...);
; 864  :             _ASAN_VECTOR_RELEASE_GUARD;
; 865  :         }
; 866  : 
; 867  :         _Orphan_range(_Mylast, _Mylast);
; 868  :         _Ty& _Result = *_Mylast;
; 869  :         ++_Mylast;

  00244	83 85 e8 5f ff
	ff 04		 add	 DWORD PTR _vec_dwPrevRanking$[ebp+4], 4

; 845  :             return _Emplace_back_with_unused_capacity(_STD forward<_Valty>(_Val)...);

  0024b	eb 13		 jmp	 SHORT $LN69@LoadRainbo
$LN70@LoadRainbo:

; 846  :         }
; 847  : 
; 848  :         return *_Emplace_reallocate(_Mylast, _STD forward<_Valty>(_Val)...);

  0024d	8d 85 d4 5f ff
	ff		 lea	 eax, DWORD PTR $T3[ebp]
  00253	50		 push	 eax
  00254	51		 push	 ecx
  00255	8d 8d e4 5f ff
	ff		 lea	 ecx, DWORD PTR _vec_dwPrevRanking$[ebp]
  0025b	e8 00 00 00 00	 call	 ??$_Emplace_reallocate@K@?$vector@KV?$allocator@K@std@@@std@@AAEPAKQAK$$QAK@Z ; std::vector<unsigned long,std::allocator<unsigned long> >::_Emplace_reallocate<unsigned long>
$LN69@LoadRainbo:
; File C:\IAGOS\server\v18\Source\Source\DatabaseServer\RainbowRaceDBCtrl.cpp

; 103  : 		while( pQuery->Fetch() )

  00260	8b ce		 mov	 ecx, esi
  00262	e8 00 00 00 00	 call	 ?Fetch@CQuery@@QAEHXZ	; CQuery::Fetch
  00267	85 c0		 test	 eax, eax
  00269	75 b7		 jne	 SHORT $LL4@LoadRainbo
$LN5@LoadRainbo:

; 105  : 	}
; 106  : 
; 107  : 	CDPTrans::GetInstance()->SendRainbowRaceInfo( vec_dwNowPlayerId, vec_dwPrevRanking, dpId );

  0026b	ff 75 08	 push	 DWORD PTR _dpId$[ebp]
  0026e	8d 85 e4 5f ff
	ff		 lea	 eax, DWORD PTR _vec_dwPrevRanking$[ebp]
  00274	50		 push	 eax
  00275	8d 85 d8 5f ff
	ff		 lea	 eax, DWORD PTR _vec_dwNowPlayerId$[ebp]
  0027b	50		 push	 eax
  0027c	e8 00 00 00 00	 call	 ?GetInstance@CDPTrans@@SAPAV1@XZ ; CDPTrans::GetInstance
  00281	8b c8		 mov	 ecx, eax
  00283	e8 00 00 00 00	 call	 ?SendRainbowRaceInfo@CDPTrans@@QAEXAAV?$vector@KV?$allocator@K@std@@@std@@0K@Z ; CDPTrans::SendRainbowRaceInfo
$LN17@LoadRainbo:
; File C:\Program Files\Microsoft Visual Studio\2022\Professional\VC\Tools\MSVC\14.44.35207\include\vector

; 2090 :         if (_Myfirst) { // destroy and deallocate old array

  00288	8b 95 e4 5f ff
	ff		 mov	 edx, DWORD PTR _vec_dwPrevRanking$[ebp]
  0028e	85 d2		 test	 edx, edx
  00290	74 51		 je	 SHORT $LN78@LoadRainbo

; 2093 :             _Al.deallocate(_Myfirst, static_cast<size_type>(_Myend - _Myfirst));

  00292	8b 8d ec 5f ff
	ff		 mov	 ecx, DWORD PTR _vec_dwPrevRanking$[ebp+8]
; File C:\Program Files\Microsoft Visual Studio\2022\Professional\VC\Tools\MSVC\14.44.35207\include\xmemory

; 985  :         _STD _Deallocate<_New_alignof<_Ty>>(_Ptr, sizeof(_Ty) * _Count);

  00298	8b c2		 mov	 eax, edx
; File C:\Program Files\Microsoft Visual Studio\2022\Professional\VC\Tools\MSVC\14.44.35207\include\vector

; 2093 :             _Al.deallocate(_Myfirst, static_cast<size_type>(_Myend - _Myfirst));

  0029a	2b ca		 sub	 ecx, edx
; File C:\Program Files\Microsoft Visual Studio\2022\Professional\VC\Tools\MSVC\14.44.35207\include\xmemory

; 985  :         _STD _Deallocate<_New_alignof<_Ty>>(_Ptr, sizeof(_Ty) * _Count);

  0029c	83 e1 fc	 and	 ecx, -4			; fffffffcH

; 284  :         if (_Bytes >= _Big_allocation_threshold) {

  0029f	81 f9 00 10 00
	00		 cmp	 ecx, 4096		; 00001000H
  002a5	72 14		 jb	 SHORT $LN91@LoadRainbo

; 205  :     const uintptr_t _Ptr_container   = _Ptr_user[-1];

  002a7	8b 50 fc	 mov	 edx, DWORD PTR [eax-4]
  002aa	83 c1 23	 add	 ecx, 35			; 00000023H
  002ad	2b c2		 sub	 eax, edx

; 219  :     _STL_VERIFY(_Back_shift >= _Min_back_shift && _Back_shift <= _Non_user_size, "invalid argument");

  002af	83 c0 fc	 add	 eax, -4			; fffffffcH
  002b2	83 f8 1f	 cmp	 eax, 31			; 0000001fH
  002b5	0f 87 7f 00 00
	00		 ja	 $LN113@LoadRainbo
$LN91@LoadRainbo:

; 289  :         ::operator delete(_Ptr, _Bytes);

  002bb	51		 push	 ecx
  002bc	52		 push	 edx
  002bd	e8 00 00 00 00	 call	 ??3@YAXPAXI@Z		; operator delete
  002c2	83 c4 08	 add	 esp, 8
; File C:\Program Files\Microsoft Visual Studio\2022\Professional\VC\Tools\MSVC\14.44.35207\include\vector

; 2095 :             _Myfirst = nullptr;

  002c5	c7 85 e4 5f ff
	ff 00 00 00 00	 mov	 DWORD PTR _vec_dwPrevRanking$[ebp], 0

; 2096 :             _Mylast  = nullptr;

  002cf	c7 85 e8 5f ff
	ff 00 00 00 00	 mov	 DWORD PTR _vec_dwPrevRanking$[ebp+4], 0

; 2097 :             _Myend   = nullptr;

  002d9	c7 85 ec 5f ff
	ff 00 00 00 00	 mov	 DWORD PTR _vec_dwPrevRanking$[ebp+8], 0
$LN78@LoadRainbo:

; 2090 :         if (_Myfirst) { // destroy and deallocate old array

  002e3	8b 95 d8 5f ff
	ff		 mov	 edx, DWORD PTR _vec_dwNowPlayerId$[ebp]
  002e9	85 d2		 test	 edx, edx
  002eb	74 2f		 je	 SHORT $LN101@LoadRainbo

; 2093 :             _Al.deallocate(_Myfirst, static_cast<size_type>(_Myend - _Myfirst));

  002ed	8b 8d e0 5f ff
	ff		 mov	 ecx, DWORD PTR _vec_dwNowPlayerId$[ebp+8]
; File C:\Program Files\Microsoft Visual Studio\2022\Professional\VC\Tools\MSVC\14.44.35207\include\xmemory

; 985  :         _STD _Deallocate<_New_alignof<_Ty>>(_Ptr, sizeof(_Ty) * _Count);

  002f3	8b c2		 mov	 eax, edx
; File C:\Program Files\Microsoft Visual Studio\2022\Professional\VC\Tools\MSVC\14.44.35207\include\vector

; 2093 :             _Al.deallocate(_Myfirst, static_cast<size_type>(_Myend - _Myfirst));

  002f5	2b ca		 sub	 ecx, edx
; File C:\Program Files\Microsoft Visual Studio\2022\Professional\VC\Tools\MSVC\14.44.35207\include\xmemory

; 985  :         _STD _Deallocate<_New_alignof<_Ty>>(_Ptr, sizeof(_Ty) * _Count);

  002f7	83 e1 fc	 and	 ecx, -4			; fffffffcH

; 284  :         if (_Bytes >= _Big_allocation_threshold) {

  002fa	81 f9 00 10 00
	00		 cmp	 ecx, 4096		; 00001000H
  00300	72 10		 jb	 SHORT $LN114@LoadRainbo

; 205  :     const uintptr_t _Ptr_container   = _Ptr_user[-1];

  00302	8b 50 fc	 mov	 edx, DWORD PTR [eax-4]
  00305	83 c1 23	 add	 ecx, 35			; 00000023H
  00308	2b c2		 sub	 eax, edx

; 219  :     _STL_VERIFY(_Back_shift >= _Min_back_shift && _Back_shift <= _Non_user_size, "invalid argument");

  0030a	83 c0 fc	 add	 eax, -4			; fffffffcH
  0030d	83 f8 1f	 cmp	 eax, 31			; 0000001fH
  00310	77 28		 ja	 SHORT $LN113@LoadRainbo
$LN114@LoadRainbo:

; 289  :         ::operator delete(_Ptr, _Bytes);

  00312	51		 push	 ecx
  00313	52		 push	 edx
  00314	e8 00 00 00 00	 call	 ??3@YAXPAXI@Z		; operator delete
  00319	83 c4 08	 add	 esp, 8
$LN101@LoadRainbo:
; File C:\IAGOS\server\v18\Source\Source\DatabaseServer\RainbowRaceDBCtrl.cpp

; 108  : }

  0031c	8b 4d f4	 mov	 ecx, DWORD PTR __$EHRec$[ebp]
  0031f	64 89 0d 00 00
	00 00		 mov	 DWORD PTR fs:0, ecx
  00326	59		 pop	 ecx
  00327	5f		 pop	 edi
  00328	5e		 pop	 esi
  00329	5b		 pop	 ebx
  0032a	8b 4d f0	 mov	 ecx, DWORD PTR __$ArrayPad$[ebp]
  0032d	33 cd		 xor	 ecx, ebp
  0032f	e8 00 00 00 00	 call	 @__security_check_cookie@4
  00334	8b e5		 mov	 esp, ebp
  00336	5d		 pop	 ebp
  00337	c2 04 00	 ret	 4
$LN113@LoadRainbo:
; File C:\Program Files\Microsoft Visual Studio\2022\Professional\VC\Tools\MSVC\14.44.35207\include\xmemory

; 219  :     _STL_VERIFY(_Back_shift >= _Min_back_shift && _Back_shift <= _Non_user_size, "invalid argument");

  0033a	6a 00		 push	 0
  0033c	6a 00		 push	 0
  0033e	6a 00		 push	 0
  00340	6a 00		 push	 0
  00342	6a 00		 push	 0
  00344	e8 00 00 00 00	 call	 __invoke_watson
$LN130@LoadRainbo:
  00349	cc		 int	 3
_TEXT	ENDS
;	COMDAT text$x
text$x	SEGMENT
__unwindfunclet$?LoadRainbowRace@CRainbowRaceDBCtrl@@AAEXK@Z$0:
  00000	8d 8d d8 5f ff
	ff		 lea	 ecx, DWORD PTR _vec_dwNowPlayerId$[ebp]
  00006	e9 00 00 00 00	 jmp	 ??1?$vector@KV?$allocator@K@std@@@std@@QAE@XZ ; std::vector<unsigned long,std::allocator<unsigned long> >::~vector<unsigned long,std::allocator<unsigned long> >
__unwindfunclet$?LoadRainbowRace@CRainbowRaceDBCtrl@@AAEXK@Z$1:
  0000b	8d 8d e4 5f ff
	ff		 lea	 ecx, DWORD PTR _vec_dwPrevRanking$[ebp]
  00011	e9 00 00 00 00	 jmp	 ??1?$vector@KV?$allocator@K@std@@@std@@QAE@XZ ; std::vector<unsigned long,std::allocator<unsigned long> >::~vector<unsigned long,std::allocator<unsigned long> >
  00016	cc		 int	 3
  00017	cc		 int	 3
  00018	cc		 int	 3
  00019	cc		 int	 3
  0001a	cc		 int	 3
__ehhandler$?LoadRainbowRace@CRainbowRaceDBCtrl@@AAEXK@Z:
  0001b	90		 npad	 1
  0001c	90		 npad	 1
  0001d	8b 54 24 08	 mov	 edx, DWORD PTR [esp+8]
  00021	8d 42 0c	 lea	 eax, DWORD PTR [edx+12]
  00024	8b 8a d0 5f ff
	ff		 mov	 ecx, DWORD PTR [edx-41008]
  0002a	33 c8		 xor	 ecx, eax
  0002c	e8 00 00 00 00	 call	 @__security_check_cookie@4
  00031	8b 4a fc	 mov	 ecx, DWORD PTR [edx-4]
  00034	33 c8		 xor	 ecx, eax
  00036	e8 00 00 00 00	 call	 @__security_check_cookie@4
  0003b	b8 00 00 00 00	 mov	 eax, OFFSET __ehfuncinfo$?LoadRainbowRace@CRainbowRaceDBCtrl@@AAEXK@Z
  00040	e9 00 00 00 00	 jmp	 ___CxxFrameHandler3
text$x	ENDS
?LoadRainbowRace@CRainbowRaceDBCtrl@@AAEXK@Z ENDP	; CRainbowRaceDBCtrl::LoadRainbowRace
; Function compile flags: /Ogtp
; File C:\IAGOS\server\v18\Source\Source\DatabaseServer\RainbowRaceDBCtrl.cpp
;	COMDAT ?Handler@CRainbowRaceDBCtrl@@UAEXPAUtagDB_OVERLAPPED_PLUS@@K@Z
_TEXT	SEGMENT
_nRanking$2 = -32832					; size = 4
_dwPlayerId$3 = -32828					; size = 4
_dwPlayerId$4 = -32828					; size = 4
_dwPlayerId$5 = -32828					; size = 4
_ar$6 = -32824						; size = 16404
_ar$7 = -16420						; size = 16404
_ar$8 = -16420						; size = 16404
__$ArrayPad$ = -16					; size = 4
__$EHRec$ = -12						; size = 12
_pov$ = 8						; size = 4
_dwCompletionKey$ = 12					; size = 4
?Handler@CRainbowRaceDBCtrl@@UAEXPAUtagDB_OVERLAPPED_PLUS@@K@Z PROC ; CRainbowRaceDBCtrl::Handler, COMDAT
; _this$ = ecx

; 20   : {

  00000	55		 push	 ebp
  00001	8b ec		 mov	 ebp, esp
  00003	6a ff		 push	 -1
  00005	68 00 00 00 00	 push	 __ehhandler$?Handler@CRainbowRaceDBCtrl@@UAEXPAUtagDB_OVERLAPPED_PLUS@@K@Z
  0000a	64 a1 00 00 00
	00		 mov	 eax, DWORD PTR fs:0
  00010	50		 push	 eax
  00011	b8 34 80 00 00	 mov	 eax, 32820		; 00008034H
  00016	e8 00 00 00 00	 call	 __chkstk
  0001b	a1 00 00 00 00	 mov	 eax, DWORD PTR ___security_cookie
  00020	33 c5		 xor	 eax, ebp
  00022	89 45 f0	 mov	 DWORD PTR __$ArrayPad$[ebp], eax
  00025	56		 push	 esi
  00026	50		 push	 eax
  00027	8d 45 f4	 lea	 eax, DWORD PTR __$EHRec$[ebp]
  0002a	64 a3 00 00 00
	00		 mov	 DWORD PTR fs:0, eax
  00030	8b f1		 mov	 esi, ecx
  00032	8b 45 08	 mov	 eax, DWORD PTR _pov$[ebp]

; 21   : 	switch( pov->nQueryMode )

  00035	8b 48 14	 mov	 ecx, DWORD PTR [eax+20]
  00038	83 f9 03	 cmp	 ecx, 3
  0003b	0f 87 fd 00 00
	00		 ja	 $LN2@Handler
  00041	ff 24 8d 00 00
	00 00		 jmp	 DWORD PTR $LN14@Handler[ecx*4]
$LN4@Handler:

; 22   : 	{
; 23   : 		case QUERY_RR_LOAD :
; 24   : 			{
; 25   : 				LoadRainbowRace( dwCompletionKey );

  00048	ff 75 0c	 push	 DWORD PTR _dwCompletionKey$[ebp]
  0004b	8b ce		 mov	 ecx, esi
  0004d	e8 00 00 00 00	 call	 ?LoadRainbowRace@CRainbowRaceDBCtrl@@AAEXK@Z ; CRainbowRaceDBCtrl::LoadRainbowRace

; 26   : 				break;

  00052	e9 e7 00 00 00	 jmp	 $LN2@Handler
$LN5@Handler:

; 27   : 			}
; 28   : 
; 29   : 		case QUERY_RR_APPLICATION : 
; 30   : 			{
; 31   : 				CAr ar( pov->lpBuf, pov->uBufSize );

  00057	ff 70 1c	 push	 DWORD PTR [eax+28]
  0005a	8d 8d dc bf ff
	ff		 lea	 ecx, DWORD PTR _ar$7[ebp]
  00060	ff 70 18	 push	 DWORD PTR [eax+24]
  00063	e8 00 00 00 00	 call	 ??0CAr@@QAE@PAXI@Z	; CAr::CAr

; 32   : 				DWORD dwPlayerId;
; 33   : 				ar >> dwPlayerId;

  00068	8d 85 c4 7f ff
	ff		 lea	 eax, DWORD PTR _dwPlayerId$3[ebp]
  0006e	c7 45 fc 00 00
	00 00		 mov	 DWORD PTR __$EHRec$[ebp+8], 0
  00075	50		 push	 eax
  00076	8d 8d dc bf ff
	ff		 lea	 ecx, DWORD PTR _ar$7[ebp]
  0007c	e8 00 00 00 00	 call	 ??$?5K@CAr@@QAEAAV0@AAK@Z ; CAr::operator>><unsigned long>

; 34   : 				Application( dwPlayerId );

  00081	ff b5 c4 7f ff
	ff		 push	 DWORD PTR _dwPlayerId$3[ebp]
  00087	8b ce		 mov	 ecx, esi
  00089	e8 00 00 00 00	 call	 ?Application@CRainbowRaceDBCtrl@@AAEXK@Z ; CRainbowRaceDBCtrl::Application

; 35   : 				break;

  0008e	8d 8d dc bf ff
	ff		 lea	 ecx, DWORD PTR _ar$7[ebp]
  00094	e9 a0 00 00 00	 jmp	 $LN16@Handler
$LN6@Handler:

; 36   : 			}
; 37   : 
; 38   : 		case QUERY_RR_FAILEDUSER : 
; 39   : 			{
; 40   : 				CAr ar( pov->lpBuf, pov->uBufSize );

  00099	ff 70 1c	 push	 DWORD PTR [eax+28]
  0009c	8d 8d dc bf ff
	ff		 lea	 ecx, DWORD PTR _ar$8[ebp]
  000a2	ff 70 18	 push	 DWORD PTR [eax+24]
  000a5	e8 00 00 00 00	 call	 ??0CAr@@QAE@PAXI@Z	; CAr::CAr

; 41   : 				DWORD dwPlayerId;
; 42   : 				ar >> dwPlayerId;

  000aa	8d 85 c4 7f ff
	ff		 lea	 eax, DWORD PTR _dwPlayerId$4[ebp]
  000b0	c7 45 fc 01 00
	00 00		 mov	 DWORD PTR __$EHRec$[ebp+8], 1
  000b7	50		 push	 eax
  000b8	8d 8d dc bf ff
	ff		 lea	 ecx, DWORD PTR _ar$8[ebp]
  000be	e8 00 00 00 00	 call	 ??$?5K@CAr@@QAEAAV0@AAK@Z ; CAr::operator>><unsigned long>

; 43   : 				FailedUser( dwPlayerId );

  000c3	ff b5 c4 7f ff
	ff		 push	 DWORD PTR _dwPlayerId$4[ebp]
  000c9	8b ce		 mov	 ecx, esi
  000cb	e8 00 00 00 00	 call	 ?FailedUser@CRainbowRaceDBCtrl@@AAEXK@Z ; CRainbowRaceDBCtrl::FailedUser

; 44   : 				break;

  000d0	8d 8d dc bf ff
	ff		 lea	 ecx, DWORD PTR _ar$8[ebp]
  000d6	eb 61		 jmp	 SHORT $LN16@Handler
$LN7@Handler:

; 45   : 			}
; 46   : 
; 47   : 		case QUERY_RR_RANKING :
; 48   : 			{
; 49   : 				CAr ar( pov->lpBuf, pov->uBufSize );

  000d8	ff 70 1c	 push	 DWORD PTR [eax+28]
  000db	8d 8d c8 7f ff
	ff		 lea	 ecx, DWORD PTR _ar$6[ebp]
  000e1	ff 70 18	 push	 DWORD PTR [eax+24]
  000e4	e8 00 00 00 00	 call	 ??0CAr@@QAE@PAXI@Z	; CAr::CAr

; 50   : 				DWORD dwPlayerId;
; 51   : 				int nRanking;
; 52   : 				ar >> dwPlayerId >> nRanking;

  000e9	8d 85 c0 7f ff
	ff		 lea	 eax, DWORD PTR _nRanking$2[ebp]
  000ef	c7 45 fc 02 00
	00 00		 mov	 DWORD PTR __$EHRec$[ebp+8], 2
  000f6	50		 push	 eax
  000f7	8d 85 c4 7f ff
	ff		 lea	 eax, DWORD PTR _dwPlayerId$5[ebp]
  000fd	50		 push	 eax
  000fe	8d 8d c8 7f ff
	ff		 lea	 ecx, DWORD PTR _ar$6[ebp]
  00104	e8 00 00 00 00	 call	 ??$?5K@CAr@@QAEAAV0@AAK@Z ; CAr::operator>><unsigned long>
  00109	8b c8		 mov	 ecx, eax
  0010b	e8 00 00 00 00	 call	 ??$?5H@CAr@@QAEAAV0@AAH@Z ; CAr::operator>><int>

; 53   : 				if( dwPlayerId != NULL_ID )

  00110	8b 85 c4 7f ff
	ff		 mov	 eax, DWORD PTR _dwPlayerId$5[ebp]
  00116	8b ce		 mov	 ecx, esi
  00118	83 f8 ff	 cmp	 eax, -1
  0011b	74 0e		 je	 SHORT $LN8@Handler

; 54   : 					UpdateRanking( dwPlayerId, nRanking );

  0011d	ff b5 c0 7f ff
	ff		 push	 DWORD PTR _nRanking$2[ebp]
  00123	50		 push	 eax
  00124	e8 00 00 00 00	 call	 ?UpdateRanking@CRainbowRaceDBCtrl@@AAEXKH@Z ; CRainbowRaceDBCtrl::UpdateRanking
  00129	eb 08		 jmp	 SHORT $LN9@Handler
$LN8@Handler:

; 55   : 				else
; 56   : 				{
; 57   : 					UpdateWinnersLosers();

  0012b	e8 00 00 00 00	 call	 ?UpdateWinnersLosers@CRainbowRaceDBCtrl@@AAEXXZ ; CRainbowRaceDBCtrl::UpdateWinnersLosers

; 58   : 					m_nTimes++;

  00130	ff 46 14	 inc	 DWORD PTR [esi+20]
$LN9@Handler:

; 59   : 				}
; 60   : 				break;

  00133	8d 8d c8 7f ff
	ff		 lea	 ecx, DWORD PTR _ar$6[ebp]
$LN16@Handler:

; 61   : 			}
; 62   : 	}
; 63   : }

  00139	e8 00 00 00 00	 call	 ??1CAr@@QAE@XZ		; CAr::~CAr
$LN2@Handler:
  0013e	8b 4d f4	 mov	 ecx, DWORD PTR __$EHRec$[ebp]
  00141	64 89 0d 00 00
	00 00		 mov	 DWORD PTR fs:0, ecx
  00148	59		 pop	 ecx
  00149	5e		 pop	 esi
  0014a	8b 4d f0	 mov	 ecx, DWORD PTR __$ArrayPad$[ebp]
  0014d	33 cd		 xor	 ecx, ebp
  0014f	e8 00 00 00 00	 call	 @__security_check_cookie@4
  00154	8b e5		 mov	 esp, ebp
  00156	5d		 pop	 ebp
  00157	c2 08 00	 ret	 8
  0015a	66 90		 npad	 2
$LN14@Handler:
  0015c	00 00 00 00	 DD	 $LN4@Handler
  00160	00 00 00 00	 DD	 $LN5@Handler
  00164	00 00 00 00	 DD	 $LN6@Handler
  00168	00 00 00 00	 DD	 $LN7@Handler
_TEXT	ENDS
;	COMDAT text$x
text$x	SEGMENT
__unwindfunclet$?Handler@CRainbowRaceDBCtrl@@UAEXPAUtagDB_OVERLAPPED_PLUS@@K@Z$0:
  00000	8d 8d dc bf ff
	ff		 lea	 ecx, DWORD PTR _ar$7[ebp]
  00006	e9 00 00 00 00	 jmp	 ??1CAr@@QAE@XZ		; CAr::~CAr
__unwindfunclet$?Handler@CRainbowRaceDBCtrl@@UAEXPAUtagDB_OVERLAPPED_PLUS@@K@Z$1:
  0000b	8d 8d dc bf ff
	ff		 lea	 ecx, DWORD PTR _ar$8[ebp]
  00011	e9 00 00 00 00	 jmp	 ??1CAr@@QAE@XZ		; CAr::~CAr
__unwindfunclet$?Handler@CRainbowRaceDBCtrl@@UAEXPAUtagDB_OVERLAPPED_PLUS@@K@Z$2:
  00016	8d 8d c8 7f ff
	ff		 lea	 ecx, DWORD PTR _ar$6[ebp]
  0001c	e9 00 00 00 00	 jmp	 ??1CAr@@QAE@XZ		; CAr::~CAr
  00021	cc		 int	 3
  00022	cc		 int	 3
  00023	cc		 int	 3
  00024	cc		 int	 3
  00025	cc		 int	 3
__ehhandler$?Handler@CRainbowRaceDBCtrl@@UAEXPAUtagDB_OVERLAPPED_PLUS@@K@Z:
  00026	90		 npad	 1
  00027	90		 npad	 1
  00028	8b 54 24 08	 mov	 edx, DWORD PTR [esp+8]
  0002c	8d 42 0c	 lea	 eax, DWORD PTR [edx+12]
  0002f	8b 8a c4 7f ff
	ff		 mov	 ecx, DWORD PTR [edx-32828]
  00035	33 c8		 xor	 ecx, eax
  00037	e8 00 00 00 00	 call	 @__security_check_cookie@4
  0003c	8b 4a fc	 mov	 ecx, DWORD PTR [edx-4]
  0003f	33 c8		 xor	 ecx, eax
  00041	e8 00 00 00 00	 call	 @__security_check_cookie@4
  00046	b8 00 00 00 00	 mov	 eax, OFFSET __ehfuncinfo$?Handler@CRainbowRaceDBCtrl@@UAEXPAUtagDB_OVERLAPPED_PLUS@@K@Z
  0004b	e9 00 00 00 00	 jmp	 ___CxxFrameHandler3
text$x	ENDS
?Handler@CRainbowRaceDBCtrl@@UAEXPAUtagDB_OVERLAPPED_PLUS@@K@Z ENDP ; CRainbowRaceDBCtrl::Handler
; Function compile flags: /Ogtp
; File C:\IAGOS\server\v18\Source\Source\DatabaseServer\RainbowRaceDBCtrl.cpp
;	COMDAT ??1CRainbowRaceDBCtrl@@UAE@XZ
_TEXT	SEGMENT
??1CRainbowRaceDBCtrl@@UAE@XZ PROC			; CRainbowRaceDBCtrl::~CRainbowRaceDBCtrl, COMDAT
; _this$ = ecx

; 16   : {

  00000	c7 01 00 00 00
	00		 mov	 DWORD PTR [ecx], OFFSET ??_7CRainbowRaceDBCtrl@@6B@

; 17   : }

  00006	e9 00 00 00 00	 jmp	 ??1CDbController@@UAE@XZ ; CDbController::~CDbController
??1CRainbowRaceDBCtrl@@UAE@XZ ENDP			; CRainbowRaceDBCtrl::~CRainbowRaceDBCtrl
_TEXT	ENDS
; Function compile flags: /Ogtp
; File C:\IAGOS\server\v18\Source\Source\DatabaseServer\RainbowRaceDBCtrl.cpp
;	COMDAT ??0CRainbowRaceDBCtrl@@QAE@XZ
_TEXT	SEGMENT
_this$ = -4						; size = 4
??0CRainbowRaceDBCtrl@@QAE@XZ PROC			; CRainbowRaceDBCtrl::CRainbowRaceDBCtrl, COMDAT
; _this$ = ecx

; 13   : {

  00000	55		 push	 ebp
  00001	8b ec		 mov	 ebp, esp
  00003	51		 push	 ecx
  00004	56		 push	 esi
  00005	8b f1		 mov	 esi, ecx
  00007	89 75 fc	 mov	 DWORD PTR _this$[ebp], esi
  0000a	e8 00 00 00 00	 call	 ??0CDbController@@QAE@XZ ; CDbController::CDbController
  0000f	c7 06 00 00 00
	00		 mov	 DWORD PTR [esi], OFFSET ??_7CRainbowRaceDBCtrl@@6B@

; 14   : }

  00015	8b c6		 mov	 eax, esi
  00017	c7 46 14 00 00
	00 00		 mov	 DWORD PTR [esi+20], 0
  0001e	5e		 pop	 esi
  0001f	8b e5		 mov	 esp, ebp
  00021	5d		 pop	 ebp
  00022	c3		 ret	 0
??0CRainbowRaceDBCtrl@@QAE@XZ ENDP			; CRainbowRaceDBCtrl::CRainbowRaceDBCtrl
_TEXT	ENDS
; Function compile flags: /Ogtp
; File C:\IAGOS\server\v18\Source\Source\DatabaseServer\dbcontroller.h
;	COMDAT ?OnTimer@CDbController@@UAEXXZ
_TEXT	SEGMENT
?OnTimer@CDbController@@UAEXXZ PROC			; CDbController::OnTimer, COMDAT
; _this$ = ecx

; 26   : 	virtual void	OnTimer()	{}

  00000	c2 00 00	 ret	 0
?OnTimer@CDbController@@UAEXXZ ENDP			; CDbController::OnTimer
_TEXT	ENDS
; Function compile flags: /Ogtp
; File C:\Program Files\Microsoft Visual Studio\2022\Professional\VC\Tools\MSVC\14.44.35207\include\xmemory
;	COMDAT ??$_Allocate_manually_vector_aligned@U_Default_allocate_traits@std@@@std@@YAPAXI@Z
_TEXT	SEGMENT
__Bytes$ = 8						; size = 4
??$_Allocate_manually_vector_aligned@U_Default_allocate_traits@std@@@std@@YAPAXI@Z PROC ; std::_Allocate_manually_vector_aligned<std::_Default_allocate_traits>, COMDAT

; 182  : __declspec(allocator) void* _Allocate_manually_vector_aligned(const size_t _Bytes) {

  00000	55		 push	 ebp
  00001	8b ec		 mov	 ebp, esp

; 183  :     // allocate _Bytes manually aligned to at least _Big_allocation_alignment
; 184  :     const size_t _Block_size = _Non_user_size + _Bytes;

  00003	8b 45 08	 mov	 eax, DWORD PTR __Bytes$[ebp]
  00006	8d 48 23	 lea	 ecx, DWORD PTR [eax+35]

; 185  :     if (_Block_size <= _Bytes) {

  00009	3b c8		 cmp	 ecx, eax
  0000b	0f 86 00 00 00
	00		 jbe	 ?_Throw_bad_array_new_length@std@@YAXXZ ; std::_Throw_bad_array_new_length

; 136  :         return ::operator new(_Bytes);

  00011	51		 push	 ecx
  00012	e8 00 00 00 00	 call	 ??2@YAPAXI@Z		; operator new

; 186  :         _Throw_bad_array_new_length(); // add overflow
; 187  :     }
; 188  : 
; 189  :     const uintptr_t _Ptr_container = reinterpret_cast<uintptr_t>(_Traits::_Allocate(_Block_size));

  00017	8b c8		 mov	 ecx, eax

; 136  :         return ::operator new(_Bytes);

  00019	83 c4 04	 add	 esp, 4

; 190  :     _STL_VERIFY(_Ptr_container != 0, "invalid argument"); // validate even in release since we're doing p[-1]

  0001c	85 c9		 test	 ecx, ecx
  0001e	74 0b		 je	 SHORT $LN9@Allocate_m

; 191  :     void* const _Ptr = reinterpret_cast<void*>((_Ptr_container + _Non_user_size) & ~(_Big_allocation_alignment - 1));

  00020	8d 41 23	 lea	 eax, DWORD PTR [ecx+35]
  00023	83 e0 e0	 and	 eax, -32		; ffffffe0H

; 192  :     static_cast<uintptr_t*>(_Ptr)[-1] = _Ptr_container;

  00026	89 48 fc	 mov	 DWORD PTR [eax-4], ecx

; 193  : 
; 194  : #ifdef _DEBUG
; 195  :     static_cast<uintptr_t*>(_Ptr)[-2] = _Big_allocation_sentinel;
; 196  : #endif // defined(_DEBUG)
; 197  :     return _Ptr;
; 198  : }

  00029	5d		 pop	 ebp
  0002a	c3		 ret	 0
$LN9@Allocate_m:

; 190  :     _STL_VERIFY(_Ptr_container != 0, "invalid argument"); // validate even in release since we're doing p[-1]

  0002b	6a 00		 push	 0
  0002d	6a 00		 push	 0
  0002f	6a 00		 push	 0
  00031	6a 00		 push	 0
  00033	6a 00		 push	 0
  00035	e8 00 00 00 00	 call	 __invoke_watson
$LN7@Allocate_m:
  0003a	cc		 int	 3
??$_Allocate_manually_vector_aligned@U_Default_allocate_traits@std@@@std@@YAPAXI@Z ENDP ; std::_Allocate_manually_vector_aligned<std::_Default_allocate_traits>
_TEXT	ENDS
; Function compile flags: /Ogtp
; File C:\Program Files\Microsoft Visual Studio\2022\Professional\VC\Tools\MSVC\14.44.35207\include\vector
;	COMDAT ?_Xlength@?$vector@KV?$allocator@K@std@@@std@@CAXXZ
_TEXT	SEGMENT
?_Xlength@?$vector@KV?$allocator@K@std@@@std@@CAXXZ PROC ; std::vector<unsigned long,std::allocator<unsigned long> >::_Xlength, COMDAT

; 2184 :         _Xlength_error("vector too long");

  00000	68 00 00 00 00	 push	 OFFSET ??_C@_0BA@FOIKENOD@vector?5too?5long@
  00005	e8 00 00 00 00	 call	 ?_Xlength_error@std@@YAXPBD@Z ; std::_Xlength_error
$LN3@Xlength:
  0000a	cc		 int	 3
?_Xlength@?$vector@KV?$allocator@K@std@@@std@@CAXXZ ENDP ; std::vector<unsigned long,std::allocator<unsigned long> >::_Xlength
_TEXT	ENDS
; Function compile flags: /Ogtp
; File C:\Program Files\Microsoft Visual Studio\2022\Professional\VC\Tools\MSVC\14.44.35207\include\vector
; File C:\Program Files\Microsoft Visual Studio\2022\Professional\VC\Tools\MSVC\14.44.35207\include\xmemory
; File C:\Program Files\Microsoft Visual Studio\2022\Professional\VC\Tools\MSVC\14.44.35207\include\vector
; File C:\Program Files\Microsoft Visual Studio\2022\Professional\VC\Tools\MSVC\14.44.35207\include\xmemory
; File C:\Program Files\Microsoft Visual Studio\2022\Professional\VC\Tools\MSVC\14.44.35207\include\vector
; File C:\Program Files\Microsoft Visual Studio\2022\Professional\VC\Tools\MSVC\14.44.35207\include\xmemory
; File C:\Program Files\Microsoft Visual Studio\2022\Professional\VC\Tools\MSVC\14.44.35207\include\vector
;	COMDAT ??1?$vector@KV?$allocator@K@std@@@std@@QAE@XZ
_TEXT	SEGMENT
??1?$vector@KV?$allocator@K@std@@@std@@QAE@XZ PROC	; std::vector<unsigned long,std::allocator<unsigned long> >::~vector<unsigned long,std::allocator<unsigned long> >, COMDAT
; _this$ = ecx

; 829  :     _CONSTEXPR20 ~vector() noexcept {

  00000	56		 push	 esi
  00001	8b f1		 mov	 esi, ecx

; 2090 :         if (_Myfirst) { // destroy and deallocate old array

  00003	8b 06		 mov	 eax, DWORD PTR [esi]
  00005	85 c0		 test	 eax, eax
  00007	74 40		 je	 SHORT $LN5@vector

; 2091 :             _STD _Destroy_range(_Myfirst, _Mylast, _Al);
; 2092 :             _ASAN_VECTOR_REMOVE;
; 2093 :             _Al.deallocate(_Myfirst, static_cast<size_type>(_Myend - _Myfirst));

  00009	8b 4e 08	 mov	 ecx, DWORD PTR [esi+8]
  0000c	2b c8		 sub	 ecx, eax
; File C:\Program Files\Microsoft Visual Studio\2022\Professional\VC\Tools\MSVC\14.44.35207\include\xmemory

; 985  :         _STD _Deallocate<_New_alignof<_Ty>>(_Ptr, sizeof(_Ty) * _Count);

  0000e	83 e1 fc	 and	 ecx, -4			; fffffffcH

; 284  :         if (_Bytes >= _Big_allocation_threshold) {

  00011	81 f9 00 10 00
	00		 cmp	 ecx, 4096		; 00001000H
  00017	72 12		 jb	 SHORT $LN18@vector

; 205  :     const uintptr_t _Ptr_container   = _Ptr_user[-1];

  00019	8b 50 fc	 mov	 edx, DWORD PTR [eax-4]
  0001c	83 c1 23	 add	 ecx, 35			; 00000023H

; 206  : 
; 207  :     // If the following asserts, it likely means that we are performing
; 208  :     // an aligned delete on memory coming from an unaligned allocation.
; 209  :     _STL_ASSERT(_Ptr_user[-2] == _Big_allocation_sentinel, "invalid argument");
; 210  : 
; 211  :     // Extra paranoia on aligned allocation/deallocation; ensure _Ptr_container is
; 212  :     // in range [_Min_back_shift, _Non_user_size]
; 213  : #ifdef _DEBUG
; 214  :     constexpr uintptr_t _Min_back_shift = 2 * sizeof(void*);
; 215  : #else // ^^^ defined(_DEBUG) / !defined(_DEBUG) vvv
; 216  :     constexpr uintptr_t _Min_back_shift = sizeof(void*);
; 217  : #endif // ^^^ !defined(_DEBUG) ^^^
; 218  :     const uintptr_t _Back_shift = reinterpret_cast<uintptr_t>(_Ptr) - _Ptr_container;

  0001f	2b c2		 sub	 eax, edx

; 219  :     _STL_VERIFY(_Back_shift >= _Min_back_shift && _Back_shift <= _Non_user_size, "invalid argument");

  00021	83 c0 fc	 add	 eax, -4			; fffffffcH
  00024	83 f8 1f	 cmp	 eax, 31			; 0000001fH
  00027	77 22		 ja	 SHORT $LN17@vector

; 220  :     _Ptr = reinterpret_cast<void*>(_Ptr_container);

  00029	8b c2		 mov	 eax, edx
$LN18@vector:

; 289  :         ::operator delete(_Ptr, _Bytes);

  0002b	51		 push	 ecx
  0002c	50		 push	 eax
  0002d	e8 00 00 00 00	 call	 ??3@YAXPAXI@Z		; operator delete
; File C:\Program Files\Microsoft Visual Studio\2022\Professional\VC\Tools\MSVC\14.44.35207\include\vector

; 2095 :             _Myfirst = nullptr;

  00032	c7 06 00 00 00
	00		 mov	 DWORD PTR [esi], 0
; File C:\Program Files\Microsoft Visual Studio\2022\Professional\VC\Tools\MSVC\14.44.35207\include\xmemory

; 289  :         ::operator delete(_Ptr, _Bytes);

  00038	83 c4 08	 add	 esp, 8
; File C:\Program Files\Microsoft Visual Studio\2022\Professional\VC\Tools\MSVC\14.44.35207\include\vector

; 2096 :             _Mylast  = nullptr;

  0003b	c7 46 04 00 00
	00 00		 mov	 DWORD PTR [esi+4], 0

; 2097 :             _Myend   = nullptr;

  00042	c7 46 08 00 00
	00 00		 mov	 DWORD PTR [esi+8], 0
$LN5@vector:
  00049	5e		 pop	 esi

; 835  :     }

  0004a	c3		 ret	 0
$LN17@vector:
; File C:\Program Files\Microsoft Visual Studio\2022\Professional\VC\Tools\MSVC\14.44.35207\include\xmemory

; 219  :     _STL_VERIFY(_Back_shift >= _Min_back_shift && _Back_shift <= _Non_user_size, "invalid argument");

  0004b	6a 00		 push	 0
  0004d	6a 00		 push	 0
  0004f	6a 00		 push	 0
  00051	6a 00		 push	 0
  00053	6a 00		 push	 0
  00055	e8 00 00 00 00	 call	 __invoke_watson
$LN26@vector:
  0005a	cc		 int	 3
??1?$vector@KV?$allocator@K@std@@@std@@QAE@XZ ENDP	; std::vector<unsigned long,std::allocator<unsigned long> >::~vector<unsigned long,std::allocator<unsigned long> >
_TEXT	ENDS
; Function compile flags: /Ogtp
; File C:\Program Files\Microsoft Visual Studio\2022\Professional\VC\Tools\MSVC\14.44.35207\include\xmemory
;	COMDAT ?_Throw_bad_array_new_length@std@@YAXXZ
_TEXT	SEGMENT
$T1 = -12						; size = 12
?_Throw_bad_array_new_length@std@@YAXXZ PROC		; std::_Throw_bad_array_new_length, COMDAT

; 107  : [[noreturn]] inline void _Throw_bad_array_new_length() {

  00000	55		 push	 ebp
  00001	8b ec		 mov	 ebp, esp
  00003	83 ec 0c	 sub	 esp, 12			; 0000000cH

; 108  :     _THROW(bad_array_new_length{});

  00006	8d 4d f4	 lea	 ecx, DWORD PTR $T1[ebp]
  00009	e8 00 00 00 00	 call	 ??0bad_array_new_length@std@@QAE@XZ ; std::bad_array_new_length::bad_array_new_length
  0000e	68 00 00 00 00	 push	 OFFSET __TI3?AVbad_array_new_length@std@@
  00013	8d 45 f4	 lea	 eax, DWORD PTR $T1[ebp]
  00016	50		 push	 eax
  00017	e8 00 00 00 00	 call	 __CxxThrowException@8
$LN3@Throw_bad_:
  0001c	cc		 int	 3
?_Throw_bad_array_new_length@std@@YAXXZ ENDP		; std::_Throw_bad_array_new_length
_TEXT	ENDS
; Function compile flags: /Ogtp
; File C:\Program Files\Microsoft Visual Studio\2022\Professional\VC\Tools\MSVC\14.44.35207\include\vcruntime_exception.h
;	COMDAT ??_Gbad_array_new_length@std@@UAEPAXI@Z
_TEXT	SEGMENT
___flags$ = 8						; size = 4
??_Gbad_array_new_length@std@@UAEPAXI@Z PROC		; std::bad_array_new_length::`scalar deleting destructor', COMDAT
; _this$ = ecx
  00000	55		 push	 ebp
  00001	8b ec		 mov	 ebp, esp

; 90   :     {

  00003	56		 push	 esi
  00004	8b f1		 mov	 esi, ecx

; 91   :         __std_exception_destroy(&_Data);

  00006	8d 46 04	 lea	 eax, DWORD PTR [esi+4]
  00009	c7 06 00 00 00
	00		 mov	 DWORD PTR [esi], OFFSET ??_7exception@std@@6B@
  0000f	50		 push	 eax
  00010	e8 00 00 00 00	 call	 ___std_exception_destroy
  00015	83 c4 04	 add	 esp, 4
  00018	f6 45 08 01	 test	 BYTE PTR ___flags$[ebp], 1
  0001c	74 0b		 je	 SHORT $LN18@scalar
  0001e	6a 0c		 push	 12			; 0000000cH
  00020	56		 push	 esi
  00021	e8 00 00 00 00	 call	 ??3@YAXPAXI@Z		; operator delete
  00026	83 c4 08	 add	 esp, 8
$LN18@scalar:
  00029	8b c6		 mov	 eax, esi
  0002b	5e		 pop	 esi
  0002c	5d		 pop	 ebp
  0002d	c2 04 00	 ret	 4
??_Gbad_array_new_length@std@@UAEPAXI@Z ENDP		; std::bad_array_new_length::`scalar deleting destructor'
_TEXT	ENDS
; Function compile flags: /Ogtp
; File C:\Program Files\Microsoft Visual Studio\2022\Professional\VC\Tools\MSVC\14.44.35207\include\vcruntime_exception.h
;	COMDAT ??0bad_array_new_length@std@@QAE@ABV01@@Z
_TEXT	SEGMENT
___that$ = 8						; size = 4
??0bad_array_new_length@std@@QAE@ABV01@@Z PROC		; std::bad_array_new_length::bad_array_new_length, COMDAT
; _this$ = ecx
  00000	55		 push	 ebp
  00001	8b ec		 mov	 ebp, esp

; 73   :     {

  00003	56		 push	 esi
  00004	8b f1		 mov	 esi, ecx
  00006	0f 57 c0	 xorps	 xmm0, xmm0

; 72   :         : _Data()

  00009	8d 46 04	 lea	 eax, DWORD PTR [esi+4]

; 74   :         __std_exception_copy(&_Other._Data, &_Data);

  0000c	50		 push	 eax
  0000d	c7 06 00 00 00
	00		 mov	 DWORD PTR [esi], OFFSET ??_7exception@std@@6B@
  00013	66 0f d6 00	 movq	 QWORD PTR [eax], xmm0
  00017	8b 45 08	 mov	 eax, DWORD PTR ___that$[ebp]
  0001a	83 c0 04	 add	 eax, 4
  0001d	50		 push	 eax
  0001e	e8 00 00 00 00	 call	 ___std_exception_copy
  00023	83 c4 08	 add	 esp, 8
  00026	c7 06 00 00 00
	00		 mov	 DWORD PTR [esi], OFFSET ??_7bad_array_new_length@std@@6B@
  0002c	8b c6		 mov	 eax, esi
  0002e	5e		 pop	 esi
  0002f	5d		 pop	 ebp
  00030	c2 04 00	 ret	 4
??0bad_array_new_length@std@@QAE@ABV01@@Z ENDP		; std::bad_array_new_length::bad_array_new_length
_TEXT	ENDS
; Function compile flags: /Ogtp
; File C:\Program Files\Microsoft Visual Studio\2022\Professional\VC\Tools\MSVC\14.44.35207\include\vcruntime_exception.h
;	COMDAT ??1bad_array_new_length@std@@UAE@XZ
_TEXT	SEGMENT
??1bad_array_new_length@std@@UAE@XZ PROC		; std::bad_array_new_length::~bad_array_new_length, COMDAT
; _this$ = ecx

; 91   :         __std_exception_destroy(&_Data);

  00000	8d 41 04	 lea	 eax, DWORD PTR [ecx+4]
  00003	c7 01 00 00 00
	00		 mov	 DWORD PTR [ecx], OFFSET ??_7exception@std@@6B@
  00009	50		 push	 eax
  0000a	e8 00 00 00 00	 call	 ___std_exception_destroy
  0000f	59		 pop	 ecx
  00010	c3		 ret	 0
??1bad_array_new_length@std@@UAE@XZ ENDP		; std::bad_array_new_length::~bad_array_new_length
_TEXT	ENDS
; Function compile flags: /Ogtp
; File C:\Program Files\Microsoft Visual Studio\2022\Professional\VC\Tools\MSVC\14.44.35207\include\vcruntime_exception.h
;	COMDAT ??0bad_array_new_length@std@@QAE@XZ
_TEXT	SEGMENT
??0bad_array_new_length@std@@QAE@XZ PROC		; std::bad_array_new_length::bad_array_new_length, COMDAT
; _this$ = ecx

; 144  :     {

  00000	0f 57 c0	 xorps	 xmm0, xmm0

; 145  :     }

  00003	8b c1		 mov	 eax, ecx

; 66   :         : _Data()

  00005	66 0f d6 41 04	 movq	 QWORD PTR [ecx+4], xmm0

; 67   :     {
; 68   :         _Data._What = _Message;

  0000a	c7 41 04 00 00
	00 00		 mov	 DWORD PTR [ecx+4], OFFSET ??_C@_0BF@KINCDENJ@bad?5array?5new?5length@

; 144  :     {

  00011	c7 01 00 00 00
	00		 mov	 DWORD PTR [ecx], OFFSET ??_7bad_array_new_length@std@@6B@

; 145  :     }

  00017	c3		 ret	 0
??0bad_array_new_length@std@@QAE@XZ ENDP		; std::bad_array_new_length::bad_array_new_length
_TEXT	ENDS
; Function compile flags: /Ogtp
; File C:\Program Files\Microsoft Visual Studio\2022\Professional\VC\Tools\MSVC\14.44.35207\include\vcruntime_exception.h
;	COMDAT ??_Gbad_alloc@std@@UAEPAXI@Z
_TEXT	SEGMENT
___flags$ = 8						; size = 4
??_Gbad_alloc@std@@UAEPAXI@Z PROC			; std::bad_alloc::`scalar deleting destructor', COMDAT
; _this$ = ecx
  00000	55		 push	 ebp
  00001	8b ec		 mov	 ebp, esp

; 90   :     {

  00003	56		 push	 esi
  00004	8b f1		 mov	 esi, ecx

; 91   :         __std_exception_destroy(&_Data);

  00006	8d 46 04	 lea	 eax, DWORD PTR [esi+4]
  00009	c7 06 00 00 00
	00		 mov	 DWORD PTR [esi], OFFSET ??_7exception@std@@6B@
  0000f	50		 push	 eax
  00010	e8 00 00 00 00	 call	 ___std_exception_destroy
  00015	83 c4 04	 add	 esp, 4
  00018	f6 45 08 01	 test	 BYTE PTR ___flags$[ebp], 1
  0001c	74 0b		 je	 SHORT $LN13@scalar
  0001e	6a 0c		 push	 12			; 0000000cH
  00020	56		 push	 esi
  00021	e8 00 00 00 00	 call	 ??3@YAXPAXI@Z		; operator delete
  00026	83 c4 08	 add	 esp, 8
$LN13@scalar:
  00029	8b c6		 mov	 eax, esi
  0002b	5e		 pop	 esi
  0002c	5d		 pop	 ebp
  0002d	c2 04 00	 ret	 4
??_Gbad_alloc@std@@UAEPAXI@Z ENDP			; std::bad_alloc::`scalar deleting destructor'
_TEXT	ENDS
; Function compile flags: /Ogtp
; File C:\Program Files\Microsoft Visual Studio\2022\Professional\VC\Tools\MSVC\14.44.35207\include\vcruntime_exception.h
;	COMDAT ??0bad_alloc@std@@QAE@ABV01@@Z
_TEXT	SEGMENT
___that$ = 8						; size = 4
??0bad_alloc@std@@QAE@ABV01@@Z PROC			; std::bad_alloc::bad_alloc, COMDAT
; _this$ = ecx
  00000	55		 push	 ebp
  00001	8b ec		 mov	 ebp, esp

; 73   :     {

  00003	56		 push	 esi
  00004	8b f1		 mov	 esi, ecx
  00006	0f 57 c0	 xorps	 xmm0, xmm0

; 72   :         : _Data()

  00009	8d 46 04	 lea	 eax, DWORD PTR [esi+4]

; 74   :         __std_exception_copy(&_Other._Data, &_Data);

  0000c	50		 push	 eax
  0000d	c7 06 00 00 00
	00		 mov	 DWORD PTR [esi], OFFSET ??_7exception@std@@6B@
  00013	66 0f d6 00	 movq	 QWORD PTR [eax], xmm0
  00017	8b 45 08	 mov	 eax, DWORD PTR ___that$[ebp]
  0001a	83 c0 04	 add	 eax, 4
  0001d	50		 push	 eax
  0001e	e8 00 00 00 00	 call	 ___std_exception_copy
  00023	83 c4 08	 add	 esp, 8
  00026	c7 06 00 00 00
	00		 mov	 DWORD PTR [esi], OFFSET ??_7bad_alloc@std@@6B@
  0002c	8b c6		 mov	 eax, esi
  0002e	5e		 pop	 esi
  0002f	5d		 pop	 ebp
  00030	c2 04 00	 ret	 4
??0bad_alloc@std@@QAE@ABV01@@Z ENDP			; std::bad_alloc::bad_alloc
_TEXT	ENDS
; Function compile flags: /Ogtp
; File C:\Program Files\Microsoft Visual Studio\2022\Professional\VC\Tools\MSVC\14.44.35207\include\vcruntime_exception.h
;	COMDAT ??_Gexception@std@@UAEPAXI@Z
_TEXT	SEGMENT
___flags$ = 8						; size = 4
??_Gexception@std@@UAEPAXI@Z PROC			; std::exception::`scalar deleting destructor', COMDAT
; _this$ = ecx
  00000	55		 push	 ebp
  00001	8b ec		 mov	 ebp, esp

; 90   :     {

  00003	56		 push	 esi
  00004	8b f1		 mov	 esi, ecx

; 91   :         __std_exception_destroy(&_Data);

  00006	8d 46 04	 lea	 eax, DWORD PTR [esi+4]
  00009	c7 06 00 00 00
	00		 mov	 DWORD PTR [esi], OFFSET ??_7exception@std@@6B@
  0000f	50		 push	 eax
  00010	e8 00 00 00 00	 call	 ___std_exception_destroy
  00015	83 c4 04	 add	 esp, 4
  00018	f6 45 08 01	 test	 BYTE PTR ___flags$[ebp], 1
  0001c	74 0b		 je	 SHORT $LN8@scalar
  0001e	6a 0c		 push	 12			; 0000000cH
  00020	56		 push	 esi
  00021	e8 00 00 00 00	 call	 ??3@YAXPAXI@Z		; operator delete
  00026	83 c4 08	 add	 esp, 8
$LN8@scalar:
  00029	8b c6		 mov	 eax, esi
  0002b	5e		 pop	 esi
  0002c	5d		 pop	 ebp
  0002d	c2 04 00	 ret	 4
??_Gexception@std@@UAEPAXI@Z ENDP			; std::exception::`scalar deleting destructor'
_TEXT	ENDS
; Function compile flags: /Ogtp
; File C:\Program Files\Microsoft Visual Studio\2022\Professional\VC\Tools\MSVC\14.44.35207\include\vcruntime_exception.h
;	COMDAT ?what@exception@std@@UBEPBDXZ
_TEXT	SEGMENT
?what@exception@std@@UBEPBDXZ PROC			; std::exception::what, COMDAT
; _this$ = ecx

; 96   :         return _Data._What ? _Data._What : "Unknown exception";

  00000	8b 49 04	 mov	 ecx, DWORD PTR [ecx+4]
  00003	b8 00 00 00 00	 mov	 eax, OFFSET ??_C@_0BC@EOODALEL@Unknown?5exception@
  00008	85 c9		 test	 ecx, ecx
  0000a	0f 45 c1	 cmovne	 eax, ecx

; 97   :     }

  0000d	c3		 ret	 0
?what@exception@std@@UBEPBDXZ ENDP			; std::exception::what
_TEXT	ENDS
; Function compile flags: /Ogtp
; File C:\Program Files\Microsoft Visual Studio\2022\Professional\VC\Tools\MSVC\14.44.35207\include\vcruntime_exception.h
;	COMDAT ??1exception@std@@UAE@XZ
_TEXT	SEGMENT
??1exception@std@@UAE@XZ PROC				; std::exception::~exception, COMDAT
; _this$ = ecx

; 91   :         __std_exception_destroy(&_Data);

  00000	8d 41 04	 lea	 eax, DWORD PTR [ecx+4]
  00003	c7 01 00 00 00
	00		 mov	 DWORD PTR [ecx], OFFSET ??_7exception@std@@6B@
  00009	50		 push	 eax
  0000a	e8 00 00 00 00	 call	 ___std_exception_destroy
  0000f	59		 pop	 ecx

; 92   :     }

  00010	c3		 ret	 0
??1exception@std@@UAE@XZ ENDP				; std::exception::~exception
_TEXT	ENDS
; Function compile flags: /Ogtp
; File C:\Program Files\Microsoft Visual Studio\2022\Professional\VC\Tools\MSVC\14.44.35207\include\vcruntime_exception.h
;	COMDAT ??0exception@std@@QAE@ABV01@@Z
_TEXT	SEGMENT
__Other$ = 8						; size = 4
??0exception@std@@QAE@ABV01@@Z PROC			; std::exception::exception, COMDAT
; _this$ = ecx

; 73   :     {

  00000	55		 push	 ebp
  00001	8b ec		 mov	 ebp, esp
  00003	56		 push	 esi
  00004	8b f1		 mov	 esi, ecx
  00006	0f 57 c0	 xorps	 xmm0, xmm0
  00009	8d 46 04	 lea	 eax, DWORD PTR [esi+4]

; 74   :         __std_exception_copy(&_Other._Data, &_Data);

  0000c	50		 push	 eax
  0000d	c7 06 00 00 00
	00		 mov	 DWORD PTR [esi], OFFSET ??_7exception@std@@6B@
  00013	66 0f d6 00	 movq	 QWORD PTR [eax], xmm0
  00017	8b 45 08	 mov	 eax, DWORD PTR __Other$[ebp]
  0001a	83 c0 04	 add	 eax, 4
  0001d	50		 push	 eax
  0001e	e8 00 00 00 00	 call	 ___std_exception_copy
  00023	83 c4 08	 add	 esp, 8

; 75   :     }

  00026	8b c6		 mov	 eax, esi
  00028	5e		 pop	 esi
  00029	5d		 pop	 ebp
  0002a	c2 04 00	 ret	 4
??0exception@std@@QAE@ABV01@@Z ENDP			; std::exception::exception
_TEXT	ENDS
; Function compile flags: /Ogtp
; File C:\Program Files (x86)\Windows Kits\10\Include\10.0.26100.0\ucrt\stdio.h
;	COMDAT _sprintf
_TEXT	SEGMENT
__Buffer$ = 8						; size = 4
__Format$ = 12						; size = 4
_sprintf PROC						; COMDAT

; 1771 :     {

  00000	55		 push	 ebp
  00001	8b ec		 mov	 ebp, esp

; 1392 :         int const _Result = __stdio_common_vsprintf(

  00003	8d 45 10	 lea	 eax, DWORD PTR __Format$[ebp+4]
  00006	50		 push	 eax
  00007	6a 00		 push	 0
  00009	ff 75 0c	 push	 DWORD PTR __Format$[ebp]
  0000c	6a ff		 push	 -1
  0000e	ff 75 08	 push	 DWORD PTR __Buffer$[ebp]
  00011	e8 00 00 00 00	 call	 ___local_stdio_printf_options
  00016	8b 08		 mov	 ecx, DWORD PTR [eax]
  00018	ff 70 04	 push	 DWORD PTR [eax+4]
  0001b	83 c9 01	 or	 ecx, 1
  0001e	51		 push	 ecx
  0001f	e8 00 00 00 00	 call	 ___stdio_common_vsprintf

; 1393 :             _CRT_INTERNAL_LOCAL_PRINTF_OPTIONS | _CRT_INTERNAL_PRINTF_LEGACY_VSPRINTF_NULL_TERMINATION,
; 1394 :             _Buffer, _BufferCount, _Format, _Locale, _ArgList);
; 1395 : 
; 1396 :         return _Result < 0 ? -1 : _Result;

  00024	83 c9 ff	 or	 ecx, -1
  00027	83 c4 1c	 add	 esp, 28			; 0000001cH
  0002a	85 c0		 test	 eax, eax
  0002c	0f 48 c1	 cmovs	 eax, ecx

; 1772 :         int _Result;
; 1773 :         va_list _ArgList;
; 1774 :         __crt_va_start(_ArgList, _Format);
; 1775 : 
; 1776 :         _Result = _vsprintf_l(_Buffer, _Format, NULL, _ArgList);
; 1777 : 
; 1778 :         __crt_va_end(_ArgList);
; 1779 :         return _Result;
; 1780 :     }

  0002f	5d		 pop	 ebp
  00030	c3		 ret	 0
_sprintf ENDP
_TEXT	ENDS
; Function compile flags: /Ogtp
; File C:\Program Files (x86)\Windows Kits\10\Include\10.0.26100.0\ucrt\corecrt_stdio_config.h
;	COMDAT ___local_stdio_printf_options
_TEXT	SEGMENT
___local_stdio_printf_options PROC			; COMDAT

; 91   :         static unsigned __int64 _OptionsStorage;
; 92   :         return &_OptionsStorage;

  00000	b8 00 00 00 00	 mov	 eax, OFFSET ?_OptionsStorage@?1??__local_stdio_printf_options@@9@4_KA ; `__local_stdio_printf_options'::`2'::_OptionsStorage

; 93   :     }

  00005	c3		 ret	 0
___local_stdio_printf_options ENDP
_TEXT	ENDS
; Function compile flags: /Ogtp
; File C:\IAGOS\server\v18\Source\Source\DatabaseServer\RainbowRaceDBCtrl.cpp
;	COMDAT ?__empty_global_delete@@YAXPAXI@Z
_TEXT	SEGMENT
___formal$ = 8						; size = 4
___formal$ = 12						; size = 4
?__empty_global_delete@@YAXPAXI@Z PROC			; __empty_global_delete, COMDAT

  00000	c2 00 00	 ret	 0
?__empty_global_delete@@YAXPAXI@Z ENDP			; __empty_global_delete
_TEXT	ENDS
; Function compile flags: /Ogtp
; File C:\IAGOS\server\v18\Source\Source\DatabaseServer\RainbowRaceDBCtrl.cpp
;	COMDAT ?__empty_global_delete@@YAXPAX@Z
_TEXT	SEGMENT
___formal$ = 8						; size = 4
?__empty_global_delete@@YAXPAX@Z PROC			; __empty_global_delete, COMDAT

  00000	c2 00 00	 ret	 0
?__empty_global_delete@@YAXPAX@Z ENDP			; __empty_global_delete
_TEXT	ENDS
END
