; Listing generated by Microsoft (R) Optimizing Compiler Version 19.44.35225.0 

	TITLE	C:\IAGOS\server\v18\Source\Output\DatabaseServer\Release\scanner.obj
	.686P
	.XMM
	include listing.inc
	.model	flat

INCLUDELIB LIBCMT
INCLUDELIB OLDNAMES

PUBLIC	?g_codePage@@3GA				; g_codePage
PUBLIC	?CLASS_TABLE@THAI@@3PAW4CLASS@1@A		; THAI::CLASS_TABLE
PUBLIC	?COMPOSIBLE@INPUT@THAI@@3PAY04_NA		; THAI::INPUT::COMPOSIBLE
PUBLIC	?STATE_CHECK@INPUT@THAI@@3PAY0BB@W4TYPE@12@A	; THAI::INPUT::STATE_CHECK
PUBLIC	?STATE_CHECK@OUTPUT@THAI@@3PAY0BB@W4TYPE@12@A	; THAI::OUTPUT::STATE_CHECK
PUBLIC	?wVTNToneChar@VTN@@3PAY05_WA			; VTN::wVTNToneChar
PUBLIC	?wVTNCombiningDia@VTN@@3PA_WA			; VTN::wVTNCombiningDia
_BSS	SEGMENT
?g_codePage@@3GA DW 01H DUP (?)				; g_codePage
_BSS	ENDS
_DATA	SEGMENT
?CLASS_TABLE@THAI@@3PAW4CLASS@1@A DD 00H		; THAI::CLASS_TABLE
	DD	00H
	DD	00H
	DD	00H
	DD	00H
	DD	00H
	DD	00H
	DD	00H
	DD	00H
	DD	00H
	DD	00H
	DD	00H
	DD	00H
	DD	00H
	DD	00H
	DD	00H
	DD	00H
	DD	00H
	DD	00H
	DD	00H
	DD	00H
	DD	00H
	DD	00H
	DD	00H
	DD	00H
	DD	00H
	DD	00H
	DD	00H
	DD	00H
	DD	00H
	DD	00H
	DD	00H
	DD	01H
	DD	01H
	DD	01H
	DD	01H
	DD	01H
	DD	01H
	DD	01H
	DD	01H
	DD	01H
	DD	01H
	DD	01H
	DD	01H
	DD	01H
	DD	01H
	DD	01H
	DD	01H
	DD	01H
	DD	01H
	DD	01H
	DD	01H
	DD	01H
	DD	01H
	DD	01H
	DD	01H
	DD	01H
	DD	01H
	DD	01H
	DD	01H
	DD	01H
	DD	01H
	DD	01H
	DD	01H
	DD	01H
	DD	01H
	DD	01H
	DD	01H
	DD	01H
	DD	01H
	DD	01H
	DD	01H
	DD	01H
	DD	01H
	DD	01H
	DD	01H
	DD	01H
	DD	01H
	DD	01H
	DD	01H
	DD	01H
	DD	01H
	DD	01H
	DD	01H
	DD	01H
	DD	01H
	DD	01H
	DD	01H
	DD	01H
	DD	01H
	DD	01H
	DD	01H
	DD	01H
	DD	01H
	DD	01H
	DD	01H
	DD	01H
	DD	01H
	DD	01H
	DD	01H
	DD	01H
	DD	01H
	DD	01H
	DD	01H
	DD	01H
	DD	01H
	DD	01H
	DD	01H
	DD	01H
	DD	01H
	DD	01H
	DD	01H
	DD	01H
	DD	01H
	DD	01H
	DD	01H
	DD	01H
	DD	01H
	DD	01H
	DD	01H
	DD	01H
	DD	01H
	DD	01H
	DD	01H
	DD	01H
	DD	01H
	DD	01H
	DD	00H
	DD	00H
	DD	00H
	DD	00H
	DD	00H
	DD	00H
	DD	00H
	DD	00H
	DD	00H
	DD	00H
	DD	00H
	DD	00H
	DD	00H
	DD	00H
	DD	00H
	DD	00H
	DD	00H
	DD	00H
	DD	00H
	DD	00H
	DD	00H
	DD	00H
	DD	00H
	DD	00H
	DD	00H
	DD	00H
	DD	00H
	DD	00H
	DD	00H
	DD	00H
	DD	00H
	DD	00H
	DD	00H
	DD	01H
	DD	02H
	DD	02H
	DD	02H
	DD	02H
	DD	02H
	DD	02H
	DD	02H
	DD	02H
	DD	02H
	DD	02H
	DD	02H
	DD	02H
	DD	02H
	DD	02H
	DD	02H
	DD	02H
	DD	02H
	DD	02H
	DD	02H
	DD	02H
	DD	02H
	DD	02H
	DD	02H
	DD	02H
	DD	02H
	DD	02H
	DD	02H
	DD	02H
	DD	02H
	DD	02H
	DD	02H
	DD	02H
	DD	02H
	DD	02H
	DD	02H
	DD	06H
	DD	02H
	DD	06H
	DD	02H
	DD	02H
	DD	02H
	DD	02H
	DD	02H
	DD	02H
	DD	02H
	DD	02H
	DD	01H
	DD	04H
	DD	0fH
	DD	04H
	DD	04H
	DD	0eH
	DD	010H
	DD	0fH
	DD	010H
	DD	07H
	DD	08H
	DD	09H
	DD	01H
	DD	01H
	DD	01H
	DD	01H
	DD	01H
	DD	03H
	DD	03H
	DD	03H
	DD	03H
	DD	03H
	DD	05H
	DD	01H
	DD	0cH
	DD	0aH
	DD	0aH
	DD	0aH
	DD	0aH
	DD	0bH
	DD	0bH
	DD	0dH
	DD	01H
	DD	01H
	DD	01H
	DD	01H
	DD	01H
	DD	01H
	DD	01H
	DD	01H
	DD	01H
	DD	01H
	DD	01H
	DD	01H
	DD	01H
	DD	01H
	DD	01H
	DD	01H
	DD	00H
?COMPOSIBLE@INPUT@THAI@@3PAY04_NA DB 01H		; THAI::INPUT::COMPOSIBLE
	DB	01H
	DB	01H
	DB	01H
	DB	01H
	DB	01H
	DB	01H
	DB	01H
	DB	00H
	DB	01H
	DB	01H
	DB	01H
	DB	00H
	DB	00H
	DB	01H
	ORG $+1
?STATE_CHECK@INPUT@THAI@@3PAY0BB@W4TYPE@12@A DD 04H	; THAI::INPUT::STATE_CHECK
	DD	00H
	DD	00H
	DD	00H
	DD	00H
	DD	00H
	DD	00H
	DD	03H
	DD	03H
	DD	03H
	DD	03H
	DD	03H
	DD	03H
	DD	03H
	DD	03H
	DD	03H
	DD	03H
	DD	04H
	DD	00H
	DD	00H
	DD	00H
	DD	02H
	DD	02H
	DD	00H
	DD	03H
	DD	03H
	DD	03H
	DD	03H
	DD	03H
	DD	03H
	DD	03H
	DD	03H
	DD	03H
	DD	03H
	DD	04H
	DD	00H
	DD	00H
	DD	00H
	DD	00H
	DD	02H
	DD	00H
	DD	01H
	DD	01H
	DD	01H
	DD	01H
	DD	01H
	DD	01H
	DD	01H
	DD	01H
	DD	01H
	DD	01H
	DD	04H
	DD	02H
	DD	00H
	DD	02H
	DD	02H
	DD	02H
	DD	02H
	DD	03H
	DD	03H
	DD	03H
	DD	03H
	DD	03H
	DD	03H
	DD	03H
	DD	03H
	DD	03H
	DD	03H
	DD	04H
	DD	02H
	DD	00H
	DD	02H
	DD	00H
	DD	02H
	DD	00H
	DD	03H
	DD	03H
	DD	03H
	DD	03H
	DD	03H
	DD	03H
	DD	03H
	DD	03H
	DD	03H
	DD	03H
	DD	04H
	DD	00H
	DD	00H
	DD	00H
	DD	00H
	DD	02H
	DD	00H
	DD	03H
	DD	03H
	DD	03H
	DD	03H
	DD	03H
	DD	03H
	DD	03H
	DD	03H
	DD	03H
	DD	03H
	DD	04H
	DD	00H
	DD	00H
	DD	00H
	DD	02H
	DD	00H
	DD	02H
	DD	03H
	DD	03H
	DD	03H
	DD	03H
	DD	03H
	DD	03H
	DD	03H
	DD	03H
	DD	03H
	DD	03H
	DD	04H
	DD	00H
	DD	00H
	DD	00H
	DD	00H
	DD	02H
	DD	00H
	DD	03H
	DD	03H
	DD	03H
	DD	01H
	DD	01H
	DD	03H
	DD	03H
	DD	03H
	DD	03H
	DD	03H
	DD	04H
	DD	00H
	DD	00H
	DD	00H
	DD	02H
	DD	02H
	DD	00H
	DD	03H
	DD	03H
	DD	03H
	DD	01H
	DD	03H
	DD	03H
	DD	03H
	DD	03H
	DD	03H
	DD	03H
	DD	04H
	DD	00H
	DD	00H
	DD	00H
	DD	02H
	DD	02H
	DD	00H
	DD	03H
	DD	03H
	DD	03H
	DD	03H
	DD	03H
	DD	03H
	DD	03H
	DD	03H
	DD	03H
	DD	03H
	DD	04H
	DD	00H
	DD	00H
	DD	00H
	DD	00H
	DD	00H
	DD	00H
	DD	03H
	DD	03H
	DD	03H
	DD	03H
	DD	03H
	DD	03H
	DD	03H
	DD	03H
	DD	03H
	DD	03H
	DD	04H
	DD	00H
	DD	00H
	DD	00H
	DD	02H
	DD	02H
	DD	00H
	DD	03H
	DD	03H
	DD	03H
	DD	03H
	DD	03H
	DD	03H
	DD	03H
	DD	03H
	DD	03H
	DD	03H
	DD	04H
	DD	00H
	DD	00H
	DD	00H
	DD	02H
	DD	02H
	DD	00H
	DD	03H
	DD	03H
	DD	03H
	DD	03H
	DD	03H
	DD	03H
	DD	03H
	DD	03H
	DD	03H
	DD	03H
	DD	04H
	DD	00H
	DD	00H
	DD	00H
	DD	02H
	DD	02H
	DD	00H
	DD	03H
	DD	03H
	DD	03H
	DD	03H
	DD	03H
	DD	03H
	DD	03H
	DD	03H
	DD	03H
	DD	03H
	DD	04H
	DD	00H
	DD	00H
	DD	00H
	DD	02H
	DD	02H
	DD	00H
	DD	03H
	DD	03H
	DD	03H
	DD	01H
	DD	01H
	DD	03H
	DD	03H
	DD	03H
	DD	03H
	DD	03H
	DD	04H
	DD	00H
	DD	00H
	DD	00H
	DD	02H
	DD	02H
	DD	00H
	DD	03H
	DD	03H
	DD	03H
	DD	01H
	DD	03H
	DD	03H
	DD	03H
	DD	03H
	DD	03H
	DD	03H
	DD	04H
	DD	00H
	DD	00H
	DD	00H
	DD	02H
	DD	02H
	DD	00H
	DD	03H
	DD	03H
	DD	03H
	DD	01H
	DD	03H
	DD	01H
	DD	03H
	DD	03H
	DD	03H
	DD	03H
	ORG $+4
?STATE_CHECK@OUTPUT@THAI@@3PAY0BB@W4TYPE@12@A DD 02H	; THAI::OUTPUT::STATE_CHECK
	DD	00H
	DD	00H
	DD	00H
	DD	00H
	DD	00H
	DD	00H
	DD	00H
	DD	00H
	DD	00H
	DD	00H
	DD	00H
	DD	00H
	DD	00H
	DD	00H
	DD	00H
	DD	00H
	DD	02H
	DD	00H
	DD	00H
	DD	00H
	DD	00H
	DD	00H
	DD	00H
	DD	00H
	DD	00H
	DD	00H
	DD	00H
	DD	00H
	DD	00H
	DD	00H
	DD	00H
	DD	00H
	DD	00H
	DD	02H
	DD	00H
	DD	00H
	DD	00H
	DD	00H
	DD	00H
	DD	00H
	DD	01H
	DD	01H
	DD	01H
	DD	01H
	DD	01H
	DD	01H
	DD	01H
	DD	01H
	DD	01H
	DD	01H
	DD	02H
	DD	00H
	DD	00H
	DD	00H
	DD	00H
	DD	00H
	DD	00H
	DD	00H
	DD	00H
	DD	00H
	DD	00H
	DD	00H
	DD	00H
	DD	00H
	DD	00H
	DD	00H
	DD	00H
	DD	02H
	DD	00H
	DD	00H
	DD	00H
	DD	00H
	DD	00H
	DD	00H
	DD	00H
	DD	00H
	DD	00H
	DD	00H
	DD	00H
	DD	00H
	DD	00H
	DD	00H
	DD	00H
	DD	00H
	DD	02H
	DD	00H
	DD	00H
	DD	00H
	DD	00H
	DD	00H
	DD	00H
	DD	00H
	DD	00H
	DD	00H
	DD	00H
	DD	00H
	DD	00H
	DD	00H
	DD	00H
	DD	00H
	DD	00H
	DD	02H
	DD	00H
	DD	00H
	DD	00H
	DD	00H
	DD	00H
	DD	00H
	DD	00H
	DD	00H
	DD	00H
	DD	00H
	DD	00H
	DD	00H
	DD	00H
	DD	00H
	DD	00H
	DD	00H
	DD	02H
	DD	00H
	DD	00H
	DD	00H
	DD	00H
	DD	00H
	DD	00H
	DD	00H
	DD	00H
	DD	00H
	DD	01H
	DD	01H
	DD	00H
	DD	00H
	DD	00H
	DD	00H
	DD	00H
	DD	02H
	DD	00H
	DD	00H
	DD	00H
	DD	00H
	DD	00H
	DD	00H
	DD	00H
	DD	00H
	DD	00H
	DD	01H
	DD	00H
	DD	00H
	DD	00H
	DD	00H
	DD	00H
	DD	00H
	DD	02H
	DD	00H
	DD	00H
	DD	00H
	DD	00H
	DD	00H
	DD	00H
	DD	00H
	DD	00H
	DD	00H
	DD	00H
	DD	00H
	DD	00H
	DD	00H
	DD	00H
	DD	00H
	DD	00H
	DD	02H
	DD	00H
	DD	00H
	DD	00H
	DD	00H
	DD	00H
	DD	00H
	DD	00H
	DD	00H
	DD	00H
	DD	00H
	DD	00H
	DD	00H
	DD	00H
	DD	00H
	DD	00H
	DD	00H
	DD	02H
	DD	00H
	DD	00H
	DD	00H
	DD	00H
	DD	00H
	DD	00H
	DD	00H
	DD	00H
	DD	00H
	DD	00H
	DD	00H
	DD	00H
	DD	00H
	DD	00H
	DD	00H
	DD	00H
	DD	02H
	DD	00H
	DD	00H
	DD	00H
	DD	00H
	DD	00H
	DD	00H
	DD	00H
	DD	00H
	DD	00H
	DD	00H
	DD	00H
	DD	00H
	DD	00H
	DD	00H
	DD	00H
	DD	00H
	DD	02H
	DD	00H
	DD	00H
	DD	00H
	DD	00H
	DD	00H
	DD	00H
	DD	00H
	DD	00H
	DD	00H
	DD	00H
	DD	00H
	DD	00H
	DD	00H
	DD	00H
	DD	00H
	DD	00H
	DD	02H
	DD	00H
	DD	00H
	DD	00H
	DD	00H
	DD	00H
	DD	00H
	DD	00H
	DD	00H
	DD	00H
	DD	01H
	DD	01H
	DD	00H
	DD	00H
	DD	00H
	DD	00H
	DD	00H
	DD	02H
	DD	00H
	DD	00H
	DD	00H
	DD	00H
	DD	00H
	DD	00H
	DD	00H
	DD	00H
	DD	00H
	DD	01H
	DD	00H
	DD	00H
	DD	00H
	DD	00H
	DD	00H
	DD	00H
	DD	02H
	DD	00H
	DD	00H
	DD	00H
	DD	00H
	DD	00H
	DD	00H
	DD	00H
	DD	00H
	DD	00H
	DD	01H
	DD	00H
	DD	01H
	DD	00H
	DD	00H
	DD	00H
	DD	00H
	ORG $+4
?wVTNToneChar@VTN@@3PAY05_WA DW 0c1H			; VTN::wVTNToneChar
	DW	0c0H
	DW	01ea2H
	DW	0c3H
	DW	01ea0H
	DW	041H
	DW	0e1H
	DW	0e0H
	DW	01ea3H
	DW	0e3H
	DW	01ea1H
	DW	061H
	DW	01eaeH
	DW	01eb0H
	DW	01eb2H
	DW	01eb4H
	DW	01eb6H
	DW	0102H
	DW	01eafH
	DW	01eb1H
	DW	01eb3H
	DW	01eb5H
	DW	01eb7H
	DW	0103H
	DW	01ea4H
	DW	01ea6H
	DW	01ea8H
	DW	01eaaH
	DW	01eacH
	DW	0c2H
	DW	01ea5H
	DW	01ea7H
	DW	01ea9H
	DW	01eabH
	DW	01eadH
	DW	0e2H
	DW	0c9H
	DW	0c8H
	DW	01ebaH
	DW	01ebcH
	DW	01eb8H
	DW	045H
	DW	0e9H
	DW	0e8H
	DW	01ebbH
	DW	01ebdH
	DW	01eb9H
	DW	065H
	DW	01ebeH
	DW	01ec0H
	DW	01ec2H
	DW	01ec4H
	DW	01ec6H
	DW	0caH
	DW	01ebfH
	DW	01ec1H
	DW	01ec3H
	DW	01ec5H
	DW	01ec7H
	DW	0eaH
	DW	0cdH
	DW	0ccH
	DW	01ec8H
	DW	0128H
	DW	01ecaH
	DW	049H
	DW	0edH
	DW	0ecH
	DW	01ec9H
	DW	0129H
	DW	01ecbH
	DW	069H
	DW	0d3H
	DW	0d2H
	DW	01eceH
	DW	0d5H
	DW	01eccH
	DW	04fH
	DW	0f3H
	DW	0f2H
	DW	01ecfH
	DW	0f5H
	DW	01ecdH
	DW	06fH
	DW	01ed0H
	DW	01ed2H
	DW	01ed4H
	DW	01ed6H
	DW	01ed8H
	DW	0d4H
	DW	01ed1H
	DW	01ed3H
	DW	01ed5H
	DW	01ed7H
	DW	01ed9H
	DW	0f4H
	DW	01edaH
	DW	01edcH
	DW	01edeH
	DW	01ee0H
	DW	01ee2H
	DW	01a0H
	DW	01edbH
	DW	01eddH
	DW	01edfH
	DW	01ee1H
	DW	01ee3H
	DW	01a1H
	DW	0daH
	DW	0d9H
	DW	01ee6H
	DW	0168H
	DW	01ee4H
	DW	055H
	DW	0faH
	DW	0f9H
	DW	01ee7H
	DW	0169H
	DW	01ee5H
	DW	075H
	DW	01ee8H
	DW	01eeaH
	DW	01eecH
	DW	01eeeH
	DW	01ef0H
	DW	01afH
	DW	01ee9H
	DW	01eebH
	DW	01eedH
	DW	01eefH
	DW	01ef1H
	DW	01b0H
	DW	01ef2H
	DW	0ddH
	DW	01ef6H
	DW	01ef8H
	DW	01ef4H
	DW	059H
	DW	01ef3H
	DW	0fdH
	DW	01ef7H
	DW	01ef9H
	DW	01ef5H
	DW	079H
?wVTNCombiningDia@VTN@@3PA_WA DW 0301H			; VTN::wVTNCombiningDia
	DW	0300H
	DW	0309H
	DW	0303H
	DW	0323H
_DATA	ENDS
PUBLIC	?__empty_global_delete@@YAXPAX@Z		; __empty_global_delete
PUBLIC	?__empty_global_delete@@YAXPAXI@Z		; __empty_global_delete
PUBLIC	___local_stdio_printf_options
PUBLIC	?AfxCrtErrorCheck@@YAHH@Z			; AfxCrtErrorCheck
PUBLIC	?AtlThrowImpl@ATL@@YGXJ@Z			; ATL::AtlThrowImpl
PUBLIC	??1?$CSimpleStringT@D$0A@@ATL@@QAE@XZ		; ATL::CSimpleStringT<char,0>::~CSimpleStringT<char,0>
PUBLIC	?SetString@?$CSimpleStringT@D$0A@@ATL@@QAEXPBDH@Z ; ATL::CSimpleStringT<char,0>::SetString
PUBLIC	?ThrowMemoryException@?$CSimpleStringT@D$0A@@ATL@@KAXXZ ; ATL::CSimpleStringT<char,0>::ThrowMemoryException
PUBLIC	?Fork@?$CSimpleStringT@D$0A@@ATL@@AAEXH@Z	; ATL::CSimpleStringT<char,0>::Fork
PUBLIC	?PrepareWrite2@?$CSimpleStringT@D$0A@@ATL@@AAEXH@Z ; ATL::CSimpleStringT<char,0>::PrepareWrite2
PUBLIC	?Reallocate@?$CSimpleStringT@D$0A@@ATL@@AAEXH@Z	; ATL::CSimpleStringT<char,0>::Reallocate
PUBLIC	??0?$CStringT@DV?$StrTraitMFC@DV?$ChTraitsCRT@D@ATL@@@@@ATL@@QAE@XZ ; ATL::CStringT<char,StrTraitMFC<char,ATL::ChTraitsCRT<char> > >::CStringT<char,StrTraitMFC<char,ATL::ChTraitsCRT<char> > >
PUBLIC	??1?$CStringT@DV?$StrTraitMFC@DV?$ChTraitsCRT@D@ATL@@@@@ATL@@QAE@XZ ; ATL::CStringT<char,StrTraitMFC<char,ATL::ChTraitsCRT<char> > >::~CStringT<char,StrTraitMFC<char,ATL::ChTraitsCRT<char> > >
PUBLIC	?MakeLower@?$CStringT@DV?$StrTraitMFC@DV?$ChTraitsCRT@D@ATL@@@@@ATL@@QAEAAV12@XZ ; ATL::CStringT<char,StrTraitMFC<char,ATL::ChTraitsCRT<char> > >::MakeLower
PUBLIC	?Format@?$CStringT@DV?$StrTraitMFC@DV?$ChTraitsCRT@D@ATL@@@@@ATL@@QAAXPBDZZ ; ATL::CStringT<char,StrTraitMFC<char,ATL::ChTraitsCRT<char> > >::Format
PUBLIC	?FormatV@?$CStringT@DV?$StrTraitMFC@DV?$ChTraitsCRT@D@ATL@@@@@ATL@@QAEXPBDPAD@Z ; ATL::CStringT<char,StrTraitMFC<char,ATL::ChTraitsCRT<char> > >::FormatV
PUBLIC	?LoadStringA@?$CStringT@DV?$StrTraitMFC@DV?$ChTraitsCRT@D@ATL@@@@@ATL@@QAEHI@Z ; ATL::CStringT<char,StrTraitMFC<char,ATL::ChTraitsCRT<char> > >::LoadStringA
PUBLIC	??0exception@std@@QAE@ABV01@@Z			; std::exception::exception
PUBLIC	??1exception@std@@UAE@XZ			; std::exception::~exception
PUBLIC	?what@exception@std@@UBEPBDXZ			; std::exception::what
PUBLIC	??_Gexception@std@@UAEPAXI@Z			; std::exception::`scalar deleting destructor'
PUBLIC	??0bad_alloc@std@@QAE@ABV01@@Z			; std::bad_alloc::bad_alloc
PUBLIC	??_Gbad_alloc@std@@UAEPAXI@Z			; std::bad_alloc::`scalar deleting destructor'
PUBLIC	??0bad_array_new_length@std@@QAE@XZ		; std::bad_array_new_length::bad_array_new_length
PUBLIC	??1bad_array_new_length@std@@UAE@XZ		; std::bad_array_new_length::~bad_array_new_length
PUBLIC	??0bad_array_new_length@std@@QAE@ABV01@@Z	; std::bad_array_new_length::bad_array_new_length
PUBLIC	??_Gbad_array_new_length@std@@UAEPAXI@Z		; std::bad_array_new_length::`scalar deleting destructor'
PUBLIC	?_Throw_bad_array_new_length@std@@YAXXZ		; std::_Throw_bad_array_new_length
PUBLIC	?_Xlen_string@std@@YAXXZ			; std::_Xlen_string
PUBLIC	??0?$basic_string@DU?$char_traits@D@std@@V?$allocator@D@2@@std@@QAE@QBD@Z ; std::basic_string<char,std::char_traits<char>,std::allocator<char> >::basic_string<char,std::char_traits<char>,std::allocator<char> >
PUBLIC	??1?$basic_string@DU?$char_traits@D@std@@V?$allocator@D@2@@std@@QAE@XZ ; std::basic_string<char,std::char_traits<char>,std::allocator<char> >::~basic_string<char,std::char_traits<char>,std::allocator<char> >
PUBLIC	??1CFileIO@@UAE@XZ				; CFileIO::~CFileIO
PUBLIC	?Flush@CFileIO@@UAEHXZ				; CFileIO::Flush
PUBLIC	?GetC@CFileIO@@UAEDXZ				; CFileIO::GetC
PUBLIC	?GetW@CFileIO@@UAEGXZ				; CFileIO::GetW
PUBLIC	?GetDW@CFileIO@@UAEKXZ				; CFileIO::GetDW
PUBLIC	?Tell@CFileIO@@UAEJXZ				; CFileIO::Tell
PUBLIC	?Seek@CFileIO@@UAEHJH@Z				; CFileIO::Seek
PUBLIC	?GetLength@CFileIO@@UAEJXZ			; CFileIO::GetLength
PUBLIC	?Read@CFileIO@@UAEIPAXII@Z			; CFileIO::Read
PUBLIC	??_GCFileIO@@UAEPAXI@Z				; CFileIO::`scalar deleting destructor'
PUBLIC	??0CScanner@@QAE@H@Z				; CScanner::CScanner
PUBLIC	??0CScanner@@QAE@PAXH@Z				; CScanner::CScanner
PUBLIC	??1CScanner@@UAE@XZ				; CScanner::~CScanner
PUBLIC	?Read@CScanner@@IAEHPAVCFileIO@@H@Z		; CScanner::Read
PUBLIC	?SetMark@CScanner@@UAEXXZ			; CScanner::SetMark
PUBLIC	?GoMark@CScanner@@UAEXXZ			; CScanner::GoMark
PUBLIC	?GetLineNum@CScanner@@UAEHPAX@Z			; CScanner::GetLineNum
PUBLIC	?PutBack@CScanner@@UAEXXZ			; CScanner::PutBack
PUBLIC	?GetToken@CScanner@@UAEHH@Z			; CScanner::GetToken
PUBLIC	?GetLastFull@CScanner@@QAEXXZ			; CScanner::GetLastFull
PUBLIC	?Free@CScanner@@QAEXXZ				; CScanner::Free
PUBLIC	?Load@CScanner@@QAEHPBDH@Z			; CScanner::Load
PUBLIC	?Load_FileIO@CScanner@@QAEHPBDH@Z		; CScanner::Load_FileIO
PUBLIC	?SetProg@CScanner@@QAEXPAX@Z			; CScanner::SetProg
PUBLIC	?GetNumber@CScanner@@QAEHH@Z			; CScanner::GetNumber
PUBLIC	?GetInt64@CScanner@@QAE_JH@Z			; CScanner::GetInt64
PUBLIC	?GetFloat@CScanner@@QAEMH@Z			; CScanner::GetFloat
PUBLIC	?GetHex@CScanner@@QAEKH@Z			; CScanner::GetHex
PUBLIC	?GetSerialNumber@CScanner@@QAEKH@Z		; CScanner::GetSerialNumber
PUBLIC	??_GCScanner@@UAEPAXI@Z				; CScanner::`scalar deleting destructor'
PUBLIC	??0?$CA2AEX@$0IA@@ATL@@QAE@PBD@Z		; ATL::CA2AEX<128>::CA2AEX<128>
PUBLIC	??1?$CA2AEX@$0IA@@ATL@@QAE@XZ			; ATL::CA2AEX<128>::~CA2AEX<128>
PUBLIC	?IsComposibleTh@@YA_NEEH@Z			; IsComposibleTh
PUBLIC	?CharNextEx@@YAPBDPBDG@Z			; CharNextEx
PUBLIC	?WideCharToMultiByteEx@@YAHIKPB_WHPADHPBDPAH@Z	; WideCharToMultiByteEx
PUBLIC	?MultiByteToWideCharEx@@YAHIKPBDHPA_WH@Z	; MultiByteToWideCharEx
PUBLIC	?IsCyrillic@@YAHD@Z				; IsCyrillic
PUBLIC	??$_Allocate_manually_vector_aligned@U_Default_allocate_traits@std@@@std@@YAPAXI@Z ; std::_Allocate_manually_vector_aligned<std::_Default_allocate_traits>
PUBLIC	?CharNextTh@@YAPBDPBD@Z				; CharNextTh
PUBLIC	?CharNextVt@@YAPBDPBD@Z				; CharNextVt
PUBLIC	?IsTone@@YAH_W@Z				; IsTone
PUBLIC	?ComposeTone@@YA_W_WH@Z				; ComposeTone
PUBLIC	?GetTone@@YA_N_WPAH1@Z				; GetTone
PUBLIC	?ComposeString@@YAXPA_W0H@Z			; ComposeString
PUBLIC	?DecomposeString@@YAXPA_W0H@Z			; DecomposeString
PUBLIC	?_OptionsStorage@?1??__local_stdio_printf_options@@9@4_KA ; `__local_stdio_printf_options'::`2'::_OptionsStorage
PUBLIC	??_7exception@std@@6B@				; std::exception::`vftable'
PUBLIC	??_C@_0BC@EOODALEL@Unknown?5exception@		; `string'
PUBLIC	??_7bad_alloc@std@@6B@				; std::bad_alloc::`vftable'
PUBLIC	??_7bad_array_new_length@std@@6B@		; std::bad_array_new_length::`vftable'
PUBLIC	??_C@_0BF@KINCDENJ@bad?5array?5new?5length@	; `string'
PUBLIC	??_R0?AVexception@std@@@8			; std::exception `RTTI Type Descriptor'
PUBLIC	__CT??_R0?AVexception@std@@@8??0exception@std@@QAE@ABV01@@Z12
PUBLIC	__TI3?AVbad_array_new_length@std@@
PUBLIC	__CTA3?AVbad_array_new_length@std@@
PUBLIC	??_R0?AVbad_array_new_length@std@@@8		; std::bad_array_new_length `RTTI Type Descriptor'
PUBLIC	__CT??_R0?AVbad_array_new_length@std@@@8??0bad_array_new_length@std@@QAE@ABV01@@Z12
PUBLIC	??_R0?AVbad_alloc@std@@@8			; std::bad_alloc `RTTI Type Descriptor'
PUBLIC	__CT??_R0?AVbad_alloc@std@@@8??0bad_alloc@std@@QAE@ABV01@@Z12
PUBLIC	??_C@_0BA@JFNIOLAK@string?5too?5long@		; `string'
PUBLIC	??_7CFileIO@@6B@				; CFileIO::`vftable'
PUBLIC	??_7CScanner@@6B@				; CScanner::`vftable'
PUBLIC	??_R4exception@std@@6B@				; std::exception::`RTTI Complete Object Locator'
PUBLIC	??_R3exception@std@@8				; std::exception::`RTTI Class Hierarchy Descriptor'
PUBLIC	??_R2exception@std@@8				; std::exception::`RTTI Base Class Array'
PUBLIC	??_R1A@?0A@EA@exception@std@@8			; std::exception::`RTTI Base Class Descriptor at (0,-1,0,64)'
PUBLIC	??_R4bad_array_new_length@std@@6B@		; std::bad_array_new_length::`RTTI Complete Object Locator'
PUBLIC	??_R3bad_array_new_length@std@@8		; std::bad_array_new_length::`RTTI Class Hierarchy Descriptor'
PUBLIC	??_R2bad_array_new_length@std@@8		; std::bad_array_new_length::`RTTI Base Class Array'
PUBLIC	??_R1A@?0A@EA@bad_array_new_length@std@@8	; std::bad_array_new_length::`RTTI Base Class Descriptor at (0,-1,0,64)'
PUBLIC	??_R1A@?0A@EA@bad_alloc@std@@8			; std::bad_alloc::`RTTI Base Class Descriptor at (0,-1,0,64)'
PUBLIC	??_R3bad_alloc@std@@8				; std::bad_alloc::`RTTI Class Hierarchy Descriptor'
PUBLIC	??_R2bad_alloc@std@@8				; std::bad_alloc::`RTTI Base Class Array'
PUBLIC	??_R4bad_alloc@std@@6B@				; std::bad_alloc::`RTTI Complete Object Locator'
PUBLIC	??_R4CFileIO@@6B@				; CFileIO::`RTTI Complete Object Locator'
PUBLIC	??_R0?AVCFileIO@@@8				; CFileIO `RTTI Type Descriptor'
PUBLIC	??_R3CFileIO@@8					; CFileIO::`RTTI Class Hierarchy Descriptor'
PUBLIC	??_R2CFileIO@@8					; CFileIO::`RTTI Base Class Array'
PUBLIC	??_R1A@?0A@EA@CFileIO@@8			; CFileIO::`RTTI Base Class Descriptor at (0,-1,0,64)'
PUBLIC	??_R1A@?0A@EA@CScanner@@8			; CScanner::`RTTI Base Class Descriptor at (0,-1,0,64)'
PUBLIC	??_R0?AVCScanner@@@8				; CScanner `RTTI Type Descriptor'
PUBLIC	??_R3CScanner@@8				; CScanner::`RTTI Class Hierarchy Descriptor'
PUBLIC	??_R2CScanner@@8				; CScanner::`RTTI Base Class Array'
PUBLIC	??_C@_0BH@PMNGKJFP@?5?$CB?3?$DL?0?$CL?9?$DM?$DO?8?1?$CK?$CF?$FO?$DN?$CI?$CJ?$CG?$HM?$CC?$HL?$HN@ ; `string'
PUBLIC	??_C@_02JDPG@rb@				; `string'
PUBLIC	??_C@_0BB@BKECMLNK@?$CL?9?$CK?$FO?1?$CF?$DN?$DL?$CI?$CJ?0?8?3?$HL?$HN?4@ ; `string'
PUBLIC	??_C@_0DN@LFHNMKPA@line?$CI?$CFd?$CJ?5?F?D?$MA?O?5?$CFs?$LP?$KB?$LM?$KN?5?$CC?$CFs?$CC?5?$LN?$LK?F?$KO?$LI@ ; `string'
PUBLIC	??_C@_0DJ@HNOCKBIP@line?$CI?$CFd?$CJ?5?F?D?$MA?O?5?$CFs?$LP?$KB?$LM?$KN?5?$CC?$CFs?$CC?5?$LN?$LK?F?$KO?$LI@ ; `string'
PUBLIC	??_R4CScanner@@6B@				; CScanner::`RTTI Complete Object Locator'
PUBLIC	__real@00000000
PUBLIC	__real@bf800000
PUBLIC	__xmm@80000000000000008000000000000000
EXTRN	??2@YAPAXI@Z:PROC				; operator new
EXTRN	??3@YAXPAXI@Z:PROC				; operator delete
EXTRN	??_U@YAPAXI@Z:PROC				; operator new[]
EXTRN	??_V@YAXPAX@Z:PROC				; operator delete[]
EXTRN	___std_terminate:PROC
EXTRN	__invalid_parameter_noinfo:PROC
EXTRN	__invoke_watson:PROC
EXTRN	_iswalpha:PROC
EXTRN	__errno:PROC
EXTRN	_strchr:PROC
EXTRN	__imp__LoadResource@8:PROC
EXTRN	__imp__LockResource@4:PROC
EXTRN	__imp__SizeofResource@8:PROC
EXTRN	__imp__FindResourceW@12:PROC
EXTRN	__imp__lstrlenA@4:PROC
EXTRN	__imp__CharNextExA@12:PROC
EXTRN	__imp__MultiByteToWideChar@24:PROC
EXTRN	__imp__WideCharToMultiByte@32:PROC
EXTRN	__mbslwr_s:PROC
EXTRN	_getwc:PROC
EXTRN	_fflush:PROC
EXTRN	_fread:PROC
EXTRN	_fseek:PROC
EXTRN	_ftell:PROC
EXTRN	_getc:PROC
EXTRN	___stdio_common_vsprintf:PROC
EXTRN	___stdio_common_vsprintf_s:PROC
EXTRN	_fileno:PROC
EXTRN	_calloc:PROC
EXTRN	_free:PROC
EXTRN	__recalloc:PROC
EXTRN	_atof:PROC
EXTRN	_atoi:PROC
EXTRN	__atoi64:PROC
EXTRN	?AfxThrowMemoryException@@YGXXZ:PROC		; AfxThrowMemoryException
EXTRN	?AfxThrowInvalidArgException@@YGXXZ:PROC	; AfxThrowInvalidArgException
EXTRN	?AfxThrowOleException@@YGXJ@Z:PROC		; AfxThrowOleException
EXTRN	?AfxFindStringResourceHandle@@YGPAUHINSTANCE__@@I@Z:PROC ; AfxFindStringResourceHandle
EXTRN	?AfxGetStringManager@@YGPAUIAtlStringMgr@ATL@@XZ:PROC ; AfxGetStringManager
EXTRN	?_Xlength_error@std@@YAXPBD@Z:PROC		; std::_Xlength_error
EXTRN	___std_exception_copy:PROC
EXTRN	___std_exception_destroy:PROC
EXTRN	??_Eexception@std@@UAEPAXI@Z:PROC		; std::exception::`vector deleting destructor'
EXTRN	??_Ebad_alloc@std@@UAEPAXI@Z:PROC		; std::bad_alloc::`vector deleting destructor'
EXTRN	??_Ebad_array_new_length@std@@UAEPAXI@Z:PROC	; std::bad_array_new_length::`vector deleting destructor'
EXTRN	?CopyChar@@YAHPBDPAD@Z:PROC			; CopyChar
EXTRN	?IsMultiByte@@YAHPBD@Z:PROC			; IsMultiByte
EXTRN	?Error@@YAPBDPBDZZ:PROC				; Error
EXTRN	?GetLanguage@@YAHXZ:PROC			; GetLanguage
EXTRN	__filelength:PROC
EXTRN	?Open@CFileIO@@UAEHPBDPAD@Z:PROC		; CFileIO::Open
EXTRN	?Close@CFileIO@@UAEHXZ:PROC			; CFileIO::Close
EXTRN	?Read@CFileIO@@UAEPAXXZ:PROC			; CFileIO::Read
EXTRN	??_ECFileIO@@UAEPAXI@Z:PROC			; CFileIO::`vector deleting destructor'
EXTRN	??_ECScanner@@UAEPAXI@Z:PROC			; CScanner::`vector deleting destructor'
EXTRN	@__security_check_cookie@4:PROC
EXTRN	__CxxThrowException@8:PROC
EXTRN	___CxxFrameHandler3:PROC
EXTRN	__allshl:PROC
EXTRN	_memcpy:PROC
EXTRN	_memmove:PROC
EXTRN	_memset:PROC
EXTRN	??_7type_info@@6B@:QWORD			; type_info::`vftable'
EXTRN	___security_cookie:DWORD
EXTRN	__fltused:DWORD
;	COMDAT ?_OptionsStorage@?1??__local_stdio_printf_options@@9@4_KA
_BSS	SEGMENT
?_OptionsStorage@?1??__local_stdio_printf_options@@9@4_KA DQ 01H DUP (?) ; `__local_stdio_printf_options'::`2'::_OptionsStorage
_BSS	ENDS
;	COMDAT __xmm@80000000000000008000000000000000
CONST	SEGMENT
__xmm@80000000000000008000000000000000 DB 00H, 00H, 00H, 00H, 00H, 00H, 00H
	DB	080H, 00H, 00H, 00H, 00H, 00H, 00H, 00H, 080H
CONST	ENDS
;	COMDAT __real@bf800000
CONST	SEGMENT
__real@bf800000 DD 0bf800000r			; -1
CONST	ENDS
;	COMDAT __real@00000000
CONST	SEGMENT
__real@00000000 DD 000000000r			; 0
CONST	ENDS
;	COMDAT ??_R4CScanner@@6B@
rdata$r	SEGMENT
??_R4CScanner@@6B@ DD 00H				; CScanner::`RTTI Complete Object Locator'
	DD	00H
	DD	00H
	DD	FLAT:??_R0?AVCScanner@@@8
	DD	FLAT:??_R3CScanner@@8
rdata$r	ENDS
;	COMDAT ??_C@_0DJ@HNOCKBIP@line?$CI?$CFd?$CJ?5?F?D?$MA?O?5?$CFs?$LP?$KB?$LM?$KN?5?$CC?$CFs?$CC?5?$LN?$LK?F?$KO?$LI@
CONST	SEGMENT
??_C@_0DJ@HNOCKBIP@line?$CI?$CFd?$CJ?5?F?D?$MA?O?5?$CFs?$LP?$KB?$LM?$KN?5?$CC?$CFs?$CC?5?$LN?$LK?F?$KO?$LI@ DB 'l'
	DB	'ine(%d) ', 0c6H, 0c4H, 0c0H, 0cfH, ' %s', 0bfH, 0a1H, 0bcH, 0adH
	DB	' "%s" ', 0bdH, 0baH, 0c6H, 0aeH, 0b8H, 0b5H, 0c0H, 0ccH, ' ', 0b5H
	DB	0fbH, 0bfH, 0c8H, 0c7H, 0a5H, 0b7H, 0ceH, ' ', 0b3H, 0a1H, 0b3H
	DB	0aaH, 0c1H, 0f6H, ' ', 0beH, 0caH, 0c0H, 0bdH, '.', 00H ; `string'
CONST	ENDS
;	COMDAT ??_C@_0DN@LFHNMKPA@line?$CI?$CFd?$CJ?5?F?D?$MA?O?5?$CFs?$LP?$KB?$LM?$KN?5?$CC?$CFs?$CC?5?$LN?$LK?F?$KO?$LI@
CONST	SEGMENT
??_C@_0DN@LFHNMKPA@line?$CI?$CFd?$CJ?5?F?D?$MA?O?5?$CFs?$LP?$KB?$LM?$KN?5?$CC?$CFs?$CC?5?$LN?$LK?F?$KO?$LI@ DB 'l'
	DB	'ine(%d) ', 0c6H, 0c4H, 0c0H, 0cfH, ' %s', 0bfH, 0a1H, 0bcH, 0adH
	DB	' "%s" ', 0bdH, 0baH, 0c6H, 0aeH, 0b8H, 0b5H, ' ', 0b1H, 0e6H, 0c0H
	DB	0ccH, 0b0H, 0a1H, ' %d', 0b9H, 0d9H, 0c0H, 0ccH, 0c6H, 0aeH, 0b8H
	DB	0a6H, ' ', 0c3H, 0caH, 0b0H, 0faH, 0c7H, 0dfH, 0c0H, 0bdH, '.', 00H ; `string'
CONST	ENDS
;	COMDAT ??_C@_0BB@BKECMLNK@?$CL?9?$CK?$FO?1?$CF?$DN?$DL?$CI?$CJ?0?8?3?$HL?$HN?4@
CONST	SEGMENT
??_C@_0BB@BKECMLNK@?$CL?9?$CK?$FO?1?$CF?$DN?$DL?$CI?$CJ?0?8?3?$HL?$HN?4@ DB '+'
	DB	'-*^/%=;(),'':{}.', 00H			; `string'
CONST	ENDS
;	COMDAT ??_C@_02JDPG@rb@
CONST	SEGMENT
??_C@_02JDPG@rb@ DB 'rb', 00H				; `string'
CONST	ENDS
;	COMDAT ?bCyrill@?1??IsCyrillic@@YAHD@Z@4PAHA
_DATA	SEGMENT
?bCyrill@?1??IsCyrillic@@YAHD@Z@4PAHA DD 00H		; `IsCyrillic'::`2'::bCyrill
	DD	00H
	DD	00H
	DD	00H
	DD	00H
	DD	00H
	DD	00H
	DD	00H
	DD	00H
	DD	00H
	DD	00H
	DD	00H
	DD	00H
	DD	00H
	DD	00H
	DD	00H
	DD	00H
	DD	00H
	DD	00H
	DD	00H
	DD	00H
	DD	00H
	DD	00H
	DD	00H
	DD	00H
	DD	00H
	DD	00H
	DD	00H
	DD	00H
	DD	00H
	DD	00H
	DD	00H
	DD	00H
	DD	00H
	DD	00H
	DD	00H
	DD	00H
	DD	00H
	DD	00H
	DD	00H
	DD	00H
	DD	00H
	DD	00H
	DD	00H
	DD	00H
	DD	00H
	DD	00H
	DD	00H
	DD	00H
	DD	00H
	DD	00H
	DD	00H
	DD	00H
	DD	00H
	DD	00H
	DD	00H
	DD	00H
	DD	00H
	DD	00H
	DD	00H
	DD	00H
	DD	00H
	DD	00H
	DD	00H
	DD	00H
	DD	00H
	DD	00H
	DD	00H
	DD	00H
	DD	00H
	DD	00H
	DD	00H
	DD	00H
	DD	00H
	DD	00H
	DD	00H
	DD	00H
	DD	00H
	DD	00H
	DD	00H
	DD	00H
	DD	00H
	DD	00H
	DD	00H
	DD	00H
	DD	00H
	DD	00H
	DD	00H
	DD	00H
	DD	00H
	DD	00H
	DD	00H
	DD	00H
	DD	00H
	DD	00H
	DD	00H
	DD	00H
	DD	00H
	DD	00H
	DD	00H
	DD	00H
	DD	00H
	DD	00H
	DD	00H
	DD	00H
	DD	00H
	DD	00H
	DD	00H
	DD	00H
	DD	00H
	DD	00H
	DD	00H
	DD	00H
	DD	00H
	DD	00H
	DD	00H
	DD	00H
	DD	00H
	DD	00H
	DD	00H
	DD	00H
	DD	00H
	DD	00H
	DD	00H
	DD	00H
	DD	00H
	DD	00H
	DD	00H
	DD	00H
	DD	00H
	DD	00H
	DD	00H
	DD	00H
	DD	00H
	DD	00H
	DD	00H
	DD	00H
	DD	00H
	DD	00H
	DD	00H
	DD	00H
	DD	00H
	DD	00H
	DD	00H
	DD	00H
	DD	00H
	DD	00H
	DD	00H
	DD	00H
	DD	00H
	DD	00H
	DD	00H
	DD	00H
	DD	00H
	DD	00H
	DD	00H
	DD	00H
	DD	00H
	DD	00H
	DD	00H
	DD	00H
	DD	00H
	DD	00H
	DD	00H
	DD	00H
	DD	00H
	DD	00H
	DD	00H
	DD	01H
	DD	00H
	DD	00H
	DD	00H
	DD	00H
	DD	00H
	DD	00H
	DD	00H
	DD	00H
	DD	00H
	DD	00H
	DD	00H
	DD	00H
	DD	00H
	DD	00H
	DD	00H
	DD	01H
	DD	00H
	DD	00H
	DD	00H
	DD	00H
	DD	00H
	DD	00H
	DD	00H
	DD	01H
	DD	01H
	DD	01H
	DD	01H
	DD	01H
	DD	01H
	DD	01H
	DD	01H
	DD	01H
	DD	01H
	DD	01H
	DD	01H
	DD	01H
	DD	01H
	DD	01H
	DD	01H
	DD	01H
	DD	01H
	DD	01H
	DD	01H
	DD	01H
	DD	01H
	DD	01H
	DD	01H
	DD	01H
	DD	01H
	DD	01H
	DD	01H
	DD	01H
	DD	01H
	DD	01H
	DD	01H
	DD	01H
	DD	01H
	DD	01H
	DD	01H
	DD	01H
	DD	01H
	DD	01H
	DD	01H
	DD	01H
	DD	01H
	DD	01H
	DD	01H
	DD	01H
	DD	01H
	DD	01H
	DD	01H
	DD	01H
	DD	01H
	DD	01H
	DD	01H
	DD	01H
	DD	01H
	DD	01H
	DD	01H
	DD	01H
	DD	01H
	DD	01H
	DD	01H
	DD	01H
	DD	01H
	DD	01H
	DD	01H
_DATA	ENDS
;	COMDAT ??_C@_0BH@PMNGKJFP@?5?$CB?3?$DL?0?$CL?9?$DM?$DO?8?1?$CK?$CF?$FO?$DN?$CI?$CJ?$CG?$HM?$CC?$HL?$HN@
CONST	SEGMENT
??_C@_0BH@PMNGKJFP@?5?$CB?3?$DL?0?$CL?9?$DM?$DO?8?1?$CK?$CF?$FO?$DN?$CI?$CJ?$CG?$HM?$CC?$HL?$HN@ DB ' '
	DB	'!:;,+-<>''/*%^=()&|"{}', 00H		; `string'
CONST	ENDS
;	COMDAT ??_R2CScanner@@8
rdata$r	SEGMENT
??_R2CScanner@@8 DD FLAT:??_R1A@?0A@EA@CScanner@@8	; CScanner::`RTTI Base Class Array'
rdata$r	ENDS
;	COMDAT ??_R3CScanner@@8
rdata$r	SEGMENT
??_R3CScanner@@8 DD 00H					; CScanner::`RTTI Class Hierarchy Descriptor'
	DD	00H
	DD	01H
	DD	FLAT:??_R2CScanner@@8
rdata$r	ENDS
;	COMDAT ??_R0?AVCScanner@@@8
data$rs	SEGMENT
??_R0?AVCScanner@@@8 DD FLAT:??_7type_info@@6B@		; CScanner `RTTI Type Descriptor'
	DD	00H
	DB	'.?AVCScanner@@', 00H
data$rs	ENDS
;	COMDAT ??_R1A@?0A@EA@CScanner@@8
rdata$r	SEGMENT
??_R1A@?0A@EA@CScanner@@8 DD FLAT:??_R0?AVCScanner@@@8	; CScanner::`RTTI Base Class Descriptor at (0,-1,0,64)'
	DD	00H
	DD	00H
	DD	0ffffffffH
	DD	00H
	DD	040H
	DD	FLAT:??_R3CScanner@@8
rdata$r	ENDS
;	COMDAT ??_R1A@?0A@EA@CFileIO@@8
rdata$r	SEGMENT
??_R1A@?0A@EA@CFileIO@@8 DD FLAT:??_R0?AVCFileIO@@@8	; CFileIO::`RTTI Base Class Descriptor at (0,-1,0,64)'
	DD	00H
	DD	00H
	DD	0ffffffffH
	DD	00H
	DD	040H
	DD	FLAT:??_R3CFileIO@@8
rdata$r	ENDS
;	COMDAT ??_R2CFileIO@@8
rdata$r	SEGMENT
??_R2CFileIO@@8 DD FLAT:??_R1A@?0A@EA@CFileIO@@8	; CFileIO::`RTTI Base Class Array'
rdata$r	ENDS
;	COMDAT ??_R3CFileIO@@8
rdata$r	SEGMENT
??_R3CFileIO@@8 DD 00H					; CFileIO::`RTTI Class Hierarchy Descriptor'
	DD	00H
	DD	01H
	DD	FLAT:??_R2CFileIO@@8
rdata$r	ENDS
;	COMDAT ??_R0?AVCFileIO@@@8
data$rs	SEGMENT
??_R0?AVCFileIO@@@8 DD FLAT:??_7type_info@@6B@		; CFileIO `RTTI Type Descriptor'
	DD	00H
	DB	'.?AVCFileIO@@', 00H
data$rs	ENDS
;	COMDAT ??_R4CFileIO@@6B@
rdata$r	SEGMENT
??_R4CFileIO@@6B@ DD 00H				; CFileIO::`RTTI Complete Object Locator'
	DD	00H
	DD	00H
	DD	FLAT:??_R0?AVCFileIO@@@8
	DD	FLAT:??_R3CFileIO@@8
rdata$r	ENDS
;	COMDAT ??_R4bad_alloc@std@@6B@
rdata$r	SEGMENT
??_R4bad_alloc@std@@6B@ DD 00H				; std::bad_alloc::`RTTI Complete Object Locator'
	DD	00H
	DD	00H
	DD	FLAT:??_R0?AVbad_alloc@std@@@8
	DD	FLAT:??_R3bad_alloc@std@@8
rdata$r	ENDS
;	COMDAT ??_R2bad_alloc@std@@8
rdata$r	SEGMENT
??_R2bad_alloc@std@@8 DD FLAT:??_R1A@?0A@EA@bad_alloc@std@@8 ; std::bad_alloc::`RTTI Base Class Array'
	DD	FLAT:??_R1A@?0A@EA@exception@std@@8
rdata$r	ENDS
;	COMDAT ??_R3bad_alloc@std@@8
rdata$r	SEGMENT
??_R3bad_alloc@std@@8 DD 00H				; std::bad_alloc::`RTTI Class Hierarchy Descriptor'
	DD	00H
	DD	02H
	DD	FLAT:??_R2bad_alloc@std@@8
rdata$r	ENDS
;	COMDAT ??_R1A@?0A@EA@bad_alloc@std@@8
rdata$r	SEGMENT
??_R1A@?0A@EA@bad_alloc@std@@8 DD FLAT:??_R0?AVbad_alloc@std@@@8 ; std::bad_alloc::`RTTI Base Class Descriptor at (0,-1,0,64)'
	DD	01H
	DD	00H
	DD	0ffffffffH
	DD	00H
	DD	040H
	DD	FLAT:??_R3bad_alloc@std@@8
rdata$r	ENDS
;	COMDAT ??_R1A@?0A@EA@bad_array_new_length@std@@8
rdata$r	SEGMENT
??_R1A@?0A@EA@bad_array_new_length@std@@8 DD FLAT:??_R0?AVbad_array_new_length@std@@@8 ; std::bad_array_new_length::`RTTI Base Class Descriptor at (0,-1,0,64)'
	DD	02H
	DD	00H
	DD	0ffffffffH
	DD	00H
	DD	040H
	DD	FLAT:??_R3bad_array_new_length@std@@8
rdata$r	ENDS
;	COMDAT ??_R2bad_array_new_length@std@@8
rdata$r	SEGMENT
??_R2bad_array_new_length@std@@8 DD FLAT:??_R1A@?0A@EA@bad_array_new_length@std@@8 ; std::bad_array_new_length::`RTTI Base Class Array'
	DD	FLAT:??_R1A@?0A@EA@bad_alloc@std@@8
	DD	FLAT:??_R1A@?0A@EA@exception@std@@8
rdata$r	ENDS
;	COMDAT ??_R3bad_array_new_length@std@@8
rdata$r	SEGMENT
??_R3bad_array_new_length@std@@8 DD 00H			; std::bad_array_new_length::`RTTI Class Hierarchy Descriptor'
	DD	00H
	DD	03H
	DD	FLAT:??_R2bad_array_new_length@std@@8
rdata$r	ENDS
;	COMDAT ??_R4bad_array_new_length@std@@6B@
rdata$r	SEGMENT
??_R4bad_array_new_length@std@@6B@ DD 00H		; std::bad_array_new_length::`RTTI Complete Object Locator'
	DD	00H
	DD	00H
	DD	FLAT:??_R0?AVbad_array_new_length@std@@@8
	DD	FLAT:??_R3bad_array_new_length@std@@8
rdata$r	ENDS
;	COMDAT ??_R1A@?0A@EA@exception@std@@8
rdata$r	SEGMENT
??_R1A@?0A@EA@exception@std@@8 DD FLAT:??_R0?AVexception@std@@@8 ; std::exception::`RTTI Base Class Descriptor at (0,-1,0,64)'
	DD	00H
	DD	00H
	DD	0ffffffffH
	DD	00H
	DD	040H
	DD	FLAT:??_R3exception@std@@8
rdata$r	ENDS
;	COMDAT ??_R2exception@std@@8
rdata$r	SEGMENT
??_R2exception@std@@8 DD FLAT:??_R1A@?0A@EA@exception@std@@8 ; std::exception::`RTTI Base Class Array'
rdata$r	ENDS
;	COMDAT ??_R3exception@std@@8
rdata$r	SEGMENT
??_R3exception@std@@8 DD 00H				; std::exception::`RTTI Class Hierarchy Descriptor'
	DD	00H
	DD	01H
	DD	FLAT:??_R2exception@std@@8
rdata$r	ENDS
;	COMDAT ??_R4exception@std@@6B@
rdata$r	SEGMENT
??_R4exception@std@@6B@ DD 00H				; std::exception::`RTTI Complete Object Locator'
	DD	00H
	DD	00H
	DD	FLAT:??_R0?AVexception@std@@@8
	DD	FLAT:??_R3exception@std@@8
rdata$r	ENDS
;	COMDAT ??_7CScanner@@6B@
CONST	SEGMENT
??_7CScanner@@6B@ DD FLAT:??_R4CScanner@@6B@		; CScanner::`vftable'
	DD	FLAT:??_ECScanner@@UAEPAXI@Z
	DD	FLAT:?SetMark@CScanner@@UAEXXZ
	DD	FLAT:?GoMark@CScanner@@UAEXXZ
	DD	FLAT:?GetLineNum@CScanner@@UAEHPAX@Z
	DD	FLAT:?PutBack@CScanner@@UAEXXZ
	DD	FLAT:?GetToken@CScanner@@UAEHH@Z
CONST	ENDS
;	COMDAT ??_7CFileIO@@6B@
CONST	SEGMENT
??_7CFileIO@@6B@ DD FLAT:??_R4CFileIO@@6B@		; CFileIO::`vftable'
	DD	FLAT:??_ECFileIO@@UAEPAXI@Z
	DD	FLAT:?Open@CFileIO@@UAEHPBDPAD@Z
	DD	FLAT:?Close@CFileIO@@UAEHXZ
	DD	FLAT:?Flush@CFileIO@@UAEHXZ
	DD	FLAT:?GetC@CFileIO@@UAEDXZ
	DD	FLAT:?GetW@CFileIO@@UAEGXZ
	DD	FLAT:?GetDW@CFileIO@@UAEKXZ
	DD	FLAT:?Tell@CFileIO@@UAEJXZ
	DD	FLAT:?Seek@CFileIO@@UAEHJH@Z
	DD	FLAT:?GetLength@CFileIO@@UAEJXZ
	DD	FLAT:?Read@CFileIO@@UAEPAXXZ
	DD	FLAT:?Read@CFileIO@@UAEIPAXII@Z
CONST	ENDS
;	COMDAT ??_C@_0BA@JFNIOLAK@string?5too?5long@
CONST	SEGMENT
??_C@_0BA@JFNIOLAK@string?5too?5long@ DB 'string too long', 00H ; `string'
CONST	ENDS
;	COMDAT __CT??_R0?AVbad_alloc@std@@@8??0bad_alloc@std@@QAE@ABV01@@Z12
xdata$x	SEGMENT
__CT??_R0?AVbad_alloc@std@@@8??0bad_alloc@std@@QAE@ABV01@@Z12 DD 010H
	DD	FLAT:??_R0?AVbad_alloc@std@@@8
	DD	00H
	DD	0ffffffffH
	ORG $+4
	DD	0cH
	DD	FLAT:??0bad_alloc@std@@QAE@ABV01@@Z
xdata$x	ENDS
;	COMDAT ??_R0?AVbad_alloc@std@@@8
data$r	SEGMENT
??_R0?AVbad_alloc@std@@@8 DD FLAT:??_7type_info@@6B@	; std::bad_alloc `RTTI Type Descriptor'
	DD	00H
	DB	'.?AVbad_alloc@std@@', 00H
data$r	ENDS
;	COMDAT __CT??_R0?AVbad_array_new_length@std@@@8??0bad_array_new_length@std@@QAE@ABV01@@Z12
xdata$x	SEGMENT
__CT??_R0?AVbad_array_new_length@std@@@8??0bad_array_new_length@std@@QAE@ABV01@@Z12 DD 00H
	DD	FLAT:??_R0?AVbad_array_new_length@std@@@8
	DD	00H
	DD	0ffffffffH
	ORG $+4
	DD	0cH
	DD	FLAT:??0bad_array_new_length@std@@QAE@ABV01@@Z
xdata$x	ENDS
;	COMDAT ??_R0?AVbad_array_new_length@std@@@8
data$r	SEGMENT
??_R0?AVbad_array_new_length@std@@@8 DD FLAT:??_7type_info@@6B@ ; std::bad_array_new_length `RTTI Type Descriptor'
	DD	00H
	DB	'.?AVbad_array_new_length@std@@', 00H
data$r	ENDS
;	COMDAT __CTA3?AVbad_array_new_length@std@@
xdata$x	SEGMENT
__CTA3?AVbad_array_new_length@std@@ DD 03H
	DD	FLAT:__CT??_R0?AVbad_array_new_length@std@@@8??0bad_array_new_length@std@@QAE@ABV01@@Z12
	DD	FLAT:__CT??_R0?AVbad_alloc@std@@@8??0bad_alloc@std@@QAE@ABV01@@Z12
	DD	FLAT:__CT??_R0?AVexception@std@@@8??0exception@std@@QAE@ABV01@@Z12
xdata$x	ENDS
;	COMDAT __TI3?AVbad_array_new_length@std@@
xdata$x	SEGMENT
__TI3?AVbad_array_new_length@std@@ DD 00H
	DD	FLAT:??1bad_array_new_length@std@@UAE@XZ
	DD	00H
	DD	FLAT:__CTA3?AVbad_array_new_length@std@@
xdata$x	ENDS
;	COMDAT __CT??_R0?AVexception@std@@@8??0exception@std@@QAE@ABV01@@Z12
xdata$x	SEGMENT
__CT??_R0?AVexception@std@@@8??0exception@std@@QAE@ABV01@@Z12 DD 00H
	DD	FLAT:??_R0?AVexception@std@@@8
	DD	00H
	DD	0ffffffffH
	ORG $+4
	DD	0cH
	DD	FLAT:??0exception@std@@QAE@ABV01@@Z
xdata$x	ENDS
;	COMDAT ??_R0?AVexception@std@@@8
data$r	SEGMENT
??_R0?AVexception@std@@@8 DD FLAT:??_7type_info@@6B@	; std::exception `RTTI Type Descriptor'
	DD	00H
	DB	'.?AVexception@std@@', 00H
data$r	ENDS
;	COMDAT ??_C@_0BF@KINCDENJ@bad?5array?5new?5length@
CONST	SEGMENT
??_C@_0BF@KINCDENJ@bad?5array?5new?5length@ DB 'bad array new length', 00H ; `string'
CONST	ENDS
;	COMDAT ??_7bad_array_new_length@std@@6B@
CONST	SEGMENT
??_7bad_array_new_length@std@@6B@ DD FLAT:??_R4bad_array_new_length@std@@6B@ ; std::bad_array_new_length::`vftable'
	DD	FLAT:??_Ebad_array_new_length@std@@UAEPAXI@Z
	DD	FLAT:?what@exception@std@@UBEPBDXZ
CONST	ENDS
;	COMDAT ??_7bad_alloc@std@@6B@
CONST	SEGMENT
??_7bad_alloc@std@@6B@ DD FLAT:??_R4bad_alloc@std@@6B@	; std::bad_alloc::`vftable'
	DD	FLAT:??_Ebad_alloc@std@@UAEPAXI@Z
	DD	FLAT:?what@exception@std@@UBEPBDXZ
CONST	ENDS
;	COMDAT ??_C@_0BC@EOODALEL@Unknown?5exception@
CONST	SEGMENT
??_C@_0BC@EOODALEL@Unknown?5exception@ DB 'Unknown exception', 00H ; `string'
CONST	ENDS
;	COMDAT ??_7exception@std@@6B@
CONST	SEGMENT
??_7exception@std@@6B@ DD FLAT:??_R4exception@std@@6B@	; std::exception::`vftable'
	DD	FLAT:??_Eexception@std@@UAEPAXI@Z
	DD	FLAT:?what@exception@std@@UBEPBDXZ
CONST	ENDS
;	COMDAT xdata$x
xdata$x	SEGMENT
__ehfuncinfo$?Load_FileIO@CScanner@@QAEHPBDH@Z DD 019930522H
	DD	05H
	DD	FLAT:__unwindtable$?Load_FileIO@CScanner@@QAEHPBDH@Z
	DD	2 DUP(00H)
	DD	2 DUP(00H)
	DD	00H
	DD	01H
__unwindtable$?Load_FileIO@CScanner@@QAEHPBDH@Z DD 0ffffffffH
	DD	FLAT:__unwindfunclet$?Load_FileIO@CScanner@@QAEHPBDH@Z$0
	DD	00H
	DD	FLAT:__unwindfunclet$?Load_FileIO@CScanner@@QAEHPBDH@Z$2
	DD	00H
	DD	FLAT:__unwindfunclet$?Load_FileIO@CScanner@@QAEHPBDH@Z$1
	DD	0ffffffffH
	DD	00H
	DD	0ffffffffH
	DD	FLAT:___std_terminate
xdata$x	ENDS
;	COMDAT xdata$x
xdata$x	SEGMENT
__ehfuncinfo$?Load@CScanner@@QAEHPBDH@Z DD 019930522H
	DD	05H
	DD	FLAT:__unwindtable$?Load@CScanner@@QAEHPBDH@Z
	DD	2 DUP(00H)
	DD	2 DUP(00H)
	DD	00H
	DD	01H
__unwindtable$?Load@CScanner@@QAEHPBDH@Z DD 0ffffffffH
	DD	FLAT:__unwindfunclet$?Load@CScanner@@QAEHPBDH@Z$0
	DD	00H
	DD	FLAT:__unwindfunclet$?Load@CScanner@@QAEHPBDH@Z$2
	DD	00H
	DD	FLAT:__unwindfunclet$?Load@CScanner@@QAEHPBDH@Z$1
	DD	0ffffffffH
	DD	00H
	DD	0ffffffffH
	DD	FLAT:___std_terminate
xdata$x	ENDS
;	COMDAT xdata$x
xdata$x	SEGMENT
__unwindtable$?GetToken@CScanner@@UAEHH@Z DD 0ffffffffH
	DD	FLAT:__unwindfunclet$?GetToken@CScanner@@UAEHH@Z$12
__ehfuncinfo$?GetToken@CScanner@@UAEHH@Z DD 019930522H
	DD	01H
	DD	FLAT:__unwindtable$?GetToken@CScanner@@UAEHH@Z
	DD	2 DUP(00H)
	DD	2 DUP(00H)
	DD	00H
	DD	01H
xdata$x	ENDS
;	COMDAT xdata$x
xdata$x	SEGMENT
__ehfuncinfo$??1CScanner@@UAE@XZ DD 019930522H
	DD	00H
	DD	00H
	DD	2 DUP(00H)
	DD	2 DUP(00H)
	DD	00H
	DD	05H
xdata$x	ENDS
;	COMDAT xdata$x
xdata$x	SEGMENT
__unwindtable$??0CScanner@@QAE@PAXH@Z DD 0ffffffffH
	DD	FLAT:__unwindfunclet$??0CScanner@@QAE@PAXH@Z$0
	DD	00H
	DD	FLAT:__unwindfunclet$??0CScanner@@QAE@PAXH@Z$1
__ehfuncinfo$??0CScanner@@QAE@PAXH@Z DD 019930522H
	DD	02H
	DD	FLAT:__unwindtable$??0CScanner@@QAE@PAXH@Z
	DD	2 DUP(00H)
	DD	2 DUP(00H)
	DD	00H
	DD	01H
xdata$x	ENDS
;	COMDAT xdata$x
xdata$x	SEGMENT
__unwindtable$??0CScanner@@QAE@H@Z DD 0ffffffffH
	DD	FLAT:__unwindfunclet$??0CScanner@@QAE@H@Z$0
	DD	00H
	DD	FLAT:__unwindfunclet$??0CScanner@@QAE@H@Z$1
__ehfuncinfo$??0CScanner@@QAE@H@Z DD 019930522H
	DD	02H
	DD	FLAT:__unwindtable$??0CScanner@@QAE@H@Z
	DD	2 DUP(00H)
	DD	2 DUP(00H)
	DD	00H
	DD	01H
xdata$x	ENDS
;	COMDAT xdata$x
xdata$x	SEGMENT
__unwindtable$??_GCFileIO@@UAEPAXI@Z DD 0ffffffffH
	DD	FLAT:___std_terminate
__ehfuncinfo$??_GCFileIO@@UAEPAXI@Z DD 019930522H
	DD	01H
	DD	FLAT:__unwindtable$??_GCFileIO@@UAEPAXI@Z
	DD	2 DUP(00H)
	DD	2 DUP(00H)
	DD	00H
	DD	05H
xdata$x	ENDS
;	COMDAT xdata$x
xdata$x	SEGMENT
__ehfuncinfo$??1CFileIO@@UAE@XZ DD 019930522H
	DD	00H
	DD	00H
	DD	2 DUP(00H)
	DD	2 DUP(00H)
	DD	00H
	DD	05H
xdata$x	ENDS
;	COMDAT xdata$x
xdata$x	SEGMENT
__unwindtable$?FormatV@?$CStringT@DV?$StrTraitMFC@DV?$ChTraitsCRT@D@ATL@@@@@ATL@@QAEXPBDPAD@Z DD 0ffffffffH
	DD	FLAT:__unwindfunclet$?FormatV@?$CStringT@DV?$StrTraitMFC@DV?$ChTraitsCRT@D@ATL@@@@@ATL@@QAEXPBDPAD@Z$1
	DD	0ffffffffH
	DD	FLAT:__unwindfunclet$?FormatV@?$CStringT@DV?$StrTraitMFC@DV?$ChTraitsCRT@D@ATL@@@@@ATL@@QAEXPBDPAD@Z$0
__ehfuncinfo$?FormatV@?$CStringT@DV?$StrTraitMFC@DV?$ChTraitsCRT@D@ATL@@@@@ATL@@QAEXPBDPAD@Z DD 019930522H
	DD	02H
	DD	FLAT:__unwindtable$?FormatV@?$CStringT@DV?$StrTraitMFC@DV?$ChTraitsCRT@D@ATL@@@@@ATL@@QAEXPBDPAD@Z
	DD	2 DUP(00H)
	DD	2 DUP(00H)
	DD	00H
	DD	01H
xdata$x	ENDS
;	COMDAT xdata$x
xdata$x	SEGMENT
__unwindtable$??0?$CStringT@DV?$StrTraitMFC@DV?$ChTraitsCRT@D@ATL@@@@@ATL@@QAE@PBDPAUIAtlStringMgr@1@@Z DD 0ffffffffH
	DD	FLAT:__unwindfunclet$??0?$CStringT@DV?$StrTraitMFC@DV?$ChTraitsCRT@D@ATL@@@@@ATL@@QAE@PBDPAUIAtlStringMgr@1@@Z$0
__ehfuncinfo$??0?$CStringT@DV?$StrTraitMFC@DV?$ChTraitsCRT@D@ATL@@@@@ATL@@QAE@PBDPAUIAtlStringMgr@1@@Z DD 019930522H
	DD	01H
	DD	FLAT:__unwindtable$??0?$CStringT@DV?$StrTraitMFC@DV?$ChTraitsCRT@D@ATL@@@@@ATL@@QAE@PBDPAUIAtlStringMgr@1@@Z
	DD	2 DUP(00H)
	DD	2 DUP(00H)
	DD	00H
	DD	01H
xdata$x	ENDS
;	COMDAT xdata$x
xdata$x	SEGMENT
__unwindtable$??0?$CStringT@DV?$StrTraitMFC@DV?$ChTraitsCRT@D@ATL@@@@@ATL@@QAE@PBD@Z DD 0ffffffffH
	DD	FLAT:__unwindfunclet$??0?$CStringT@DV?$StrTraitMFC@DV?$ChTraitsCRT@D@ATL@@@@@ATL@@QAE@PBD@Z$0
__ehfuncinfo$??0?$CStringT@DV?$StrTraitMFC@DV?$ChTraitsCRT@D@ATL@@@@@ATL@@QAE@PBD@Z DD 019930522H
	DD	01H
	DD	FLAT:__unwindtable$??0?$CStringT@DV?$StrTraitMFC@DV?$ChTraitsCRT@D@ATL@@@@@ATL@@QAE@PBD@Z
	DD	2 DUP(00H)
	DD	2 DUP(00H)
	DD	00H
	DD	01H
xdata$x	ENDS
; Function compile flags: /Ogtp
; File C:\IAGOS\server\v18\Source\Source\_Common\scanner.cpp
;	COMDAT ?DecomposeString@@YAXPA_W0H@Z
_TEXT	SEGMENT
tv154 = -8						; size = 4
_nTone$ = -4						; size = 4
_pwSrc$ = 8						; size = 4
_nLetterLine$ = 8					; size = 4
_pwDest$ = 12						; size = 4
_nSize$ = 16						; size = 4
?DecomposeString@@YAXPA_W0H@Z PROC			; DecomposeString, COMDAT

; 332  : {

  00000	55		 push	 ebp
  00001	8b ec		 mov	 ebp, esp
  00003	83 ec 08	 sub	 esp, 8
  00006	57		 push	 edi

; 333  : 	using namespace VTN;
; 334  : 
; 335  : 	if(pwSrc == NULL || pwDest == NULL || nSize <= 0)

  00007	8b 7d 08	 mov	 edi, DWORD PTR _pwSrc$[ebp]
  0000a	85 ff		 test	 edi, edi
  0000c	74 61		 je	 SHORT $LN6@DecomposeS
  0000e	56		 push	 esi
  0000f	8b 75 0c	 mov	 esi, DWORD PTR _pwDest$[ebp]
  00012	85 f6		 test	 esi, esi
  00014	74 58		 je	 SHORT $LN18@DecomposeS
  00016	53		 push	 ebx
  00017	8b 5d 10	 mov	 ebx, DWORD PTR _nSize$[ebp]
  0001a	85 db		 test	 ebx, ebx
  0001c	7e 4f		 jle	 SHORT $LN19@DecomposeS
  0001e	66 90		 npad	 2
$LL4@DecomposeS:

; 336  : 		return;
; 337  : 
; 338  : 	int nLetterLine;
; 339  : 	int nTone;
; 340  : 
; 341  : 	for(int i=0; i<nSize; i++)
; 342  : 	{
; 343  : 		if(GetTone(*pwSrc, &nLetterLine, &nTone))

  00020	0f b7 07	 movzx	 eax, WORD PTR [edi]
  00023	8d 4d fc	 lea	 ecx, DWORD PTR _nTone$[ebp]
  00026	51		 push	 ecx
  00027	8d 4d 08	 lea	 ecx, DWORD PTR _nLetterLine$[ebp]
  0002a	89 45 f8	 mov	 DWORD PTR tv154[ebp], eax
  0002d	51		 push	 ecx
  0002e	50		 push	 eax
  0002f	e8 00 00 00 00	 call	 ?GetTone@@YA_N_WPAH1@Z	; GetTone
  00034	83 c4 0c	 add	 esp, 12			; 0000000cH
  00037	84 c0		 test	 al, al
  00039	74 21		 je	 SHORT $LN7@DecomposeS

; 344  : 		{
; 345  : 			*pwDest = wVTNToneChar[nLetterLine][5];

  0003b	8b 45 08	 mov	 eax, DWORD PTR _nLetterLine$[ebp]
  0003e	8d 04 40	 lea	 eax, DWORD PTR [eax+eax*2]
  00041	0f b7 04 85 0a
	00 00 00	 movzx	 eax, WORD PTR ?wVTNToneChar@VTN@@3PAY05_WA[eax*4+10]
  00049	66 89 06	 mov	 WORD PTR [esi], ax

; 346  : 			++pwDest;

  0004c	83 c6 02	 add	 esi, 2

; 347  : 			*pwDest = wVTNCombiningDia[nTone];

  0004f	8b 45 fc	 mov	 eax, DWORD PTR _nTone$[ebp]
  00052	0f b7 04 45 00
	00 00 00	 movzx	 eax, WORD PTR ?wVTNCombiningDia@VTN@@3PA_WA[eax*2]

; 348  : 		}

  0005a	eb 03		 jmp	 SHORT $LN20@DecomposeS
$LN7@DecomposeS:

; 349  : 		else
; 350  : 		{
; 351  : 			*pwDest = *pwSrc;

  0005c	8b 45 f8	 mov	 eax, DWORD PTR tv154[ebp]
$LN20@DecomposeS:

; 352  : 		}
; 353  : 		++pwSrc;

  0005f	66 89 06	 mov	 WORD PTR [esi], ax
  00062	83 c7 02	 add	 edi, 2

; 354  : 		++pwDest;

  00065	83 c6 02	 add	 esi, 2
  00068	83 eb 01	 sub	 ebx, 1
  0006b	75 b3		 jne	 SHORT $LL4@DecomposeS
$LN19@DecomposeS:
  0006d	5b		 pop	 ebx
$LN18@DecomposeS:
  0006e	5e		 pop	 esi
$LN6@DecomposeS:
  0006f	5f		 pop	 edi

; 355  : 	}
; 356  : }

  00070	8b e5		 mov	 esp, ebp
  00072	5d		 pop	 ebp
  00073	c3		 ret	 0
?DecomposeString@@YAXPA_W0H@Z ENDP			; DecomposeString
_TEXT	ENDS
; Function compile flags: /Ogtp
; File C:\IAGOS\server\v18\Source\Source\_Common\scanner.cpp
;	COMDAT ?ComposeString@@YAXPA_W0H@Z
_TEXT	SEGMENT
_pwSrc$ = 8						; size = 4
tv154 = 8						; size = 4
_pwDest$ = 12						; size = 4
_nSize$ = 16						; size = 4
?ComposeString@@YAXPA_W0H@Z PROC			; ComposeString, COMDAT

; 306  : {

  00000	55		 push	 ebp
  00001	8b ec		 mov	 ebp, esp
  00003	56		 push	 esi

; 307  : 	using namespace VTN;
; 308  : 
; 309  : 	if(pwSrc == NULL || pwDest == NULL || nSize <= 0)

  00004	8b 75 08	 mov	 esi, DWORD PTR _pwSrc$[ebp]
  00007	85 f6		 test	 esi, esi
  00009	74 56		 je	 SHORT $LN15@ComposeStr
  0000b	57		 push	 edi
  0000c	8b 7d 0c	 mov	 edi, DWORD PTR _pwDest$[ebp]
  0000f	85 ff		 test	 edi, edi
  00011	74 4d		 je	 SHORT $LN21@ComposeStr
  00013	83 7d 10 00	 cmp	 DWORD PTR _nSize$[ebp], 0
  00017	7e 47		 jle	 SHORT $LN21@ComposeStr

; 310  : 		return;
; 311  : 
; 312  : 	for(int i=0; i<nSize; i++)

  00019	53		 push	 ebx
  0001a	33 db		 xor	 ebx, ebx
  0001c	0f 1f 40 00	 npad	 4
$LL4@ComposeStr:

; 313  : 	{
; 314  : 		*pwDest = *pwSrc;

  00020	0f b7 06	 movzx	 eax, WORD PTR [esi]

; 315  : 		pwSrc++;

  00023	83 c6 02	 add	 esi, 2
  00026	8b c8		 mov	 ecx, eax
  00028	66 89 07	 mov	 WORD PTR [edi], ax
  0002b	89 4d 08	 mov	 DWORD PTR tv154[ebp], ecx

; 316  : 
; 317  : 		if(*pwDest == NULL)

  0002e	66 85 c9	 test	 cx, cx
  00031	74 2c		 je	 SHORT $LN22@ComposeStr

; 318  : 			break;
; 319  : 
; 320  : 		int nTone = IsTone(*pwSrc);

  00033	0f b7 06	 movzx	 eax, WORD PTR [esi]
  00036	50		 push	 eax
  00037	e8 00 00 00 00	 call	 ?IsTone@@YAH_W@Z	; IsTone
  0003c	83 c4 04	 add	 esp, 4

; 321  : 		if(nTone > -1)

  0003f	83 f8 ff	 cmp	 eax, -1
  00042	7e 12		 jle	 SHORT $LN8@ComposeStr

; 322  : 		{
; 323  : 			*pwDest = ComposeTone(*pwDest, nTone);

  00044	50		 push	 eax
  00045	ff 75 08	 push	 DWORD PTR tv154[ebp]
  00048	e8 00 00 00 00	 call	 ?ComposeTone@@YA_W_WH@Z	; ComposeTone
  0004d	83 c4 08	 add	 esp, 8
  00050	66 89 07	 mov	 WORD PTR [edi], ax

; 324  : 			pwSrc++;

  00053	83 c6 02	 add	 esi, 2
$LN8@ComposeStr:

; 325  : 		}
; 326  : 		pwDest++;

  00056	43		 inc	 ebx
  00057	83 c7 02	 add	 edi, 2
  0005a	3b 5d 10	 cmp	 ebx, DWORD PTR _nSize$[ebp]
  0005d	7c c1		 jl	 SHORT $LL4@ComposeStr
$LN22@ComposeStr:
  0005f	5b		 pop	 ebx
$LN21@ComposeStr:
  00060	5f		 pop	 edi
$LN15@ComposeStr:
  00061	5e		 pop	 esi

; 327  : 	}
; 328  : }

  00062	5d		 pop	 ebp
  00063	c3		 ret	 0
?ComposeString@@YAXPA_W0H@Z ENDP			; ComposeString
_TEXT	ENDS
; Function compile flags: /Ogtp
; File C:\IAGOS\server\v18\Source\Source\_Common\scanner.cpp
;	COMDAT ?GetTone@@YA_N_WPAH1@Z
_TEXT	SEGMENT
_i$1$ = -4						; size = 4
_input$ = 8						; size = 2
_pnLetterLine$ = 12					; size = 4
_pnTone$ = 16						; size = 4
?GetTone@@YA_N_WPAH1@Z PROC				; GetTone, COMDAT

; 282  : {

  00000	55		 push	 ebp
  00001	8b ec		 mov	 ebp, esp
  00003	51		 push	 ecx
  00004	53		 push	 ebx

; 283  : 	using namespace VTN;
; 284  : 
; 285  : 	for(int i=0; i<24; i++)

  00005	66 8b 5d 08	 mov	 bx, WORD PTR _input$[ebp]
  00009	33 c0		 xor	 eax, eax
  0000b	56		 push	 esi
  0000c	8b 75 10	 mov	 esi, DWORD PTR _pnTone$[ebp]
  0000f	ba 00 00 00 00	 mov	 edx, OFFSET ?wVTNToneChar@VTN@@3PAY05_WA ; VTN::wVTNToneChar
  00014	57		 push	 edi
  00015	8b 7d 0c	 mov	 edi, DWORD PTR _pnLetterLine$[ebp]
  00018	89 45 fc	 mov	 DWORD PTR _i$1$[ebp], eax
  0001b	0f 1f 44 00 00	 npad	 5
$LL4@GetTone:

; 286  : 	{
; 287  : 		for(int j=0; j<5; j++)

  00020	33 c9		 xor	 ecx, ecx
  00022	8b c2		 mov	 eax, edx
$LL7@GetTone:

; 288  : 		{
; 289  : 			if(wVTNToneChar[i][j] == input)

  00024	66 39 18	 cmp	 WORD PTR [eax], bx
  00027	75 08		 jne	 SHORT $LN5@GetTone

; 290  : 			{
; 291  : 				if(pnLetterLine != NULL && pnTone != NULL)

  00029	85 ff		 test	 edi, edi
  0002b	74 04		 je	 SHORT $LN5@GetTone
  0002d	85 f6		 test	 esi, esi
  0002f	75 20		 jne	 SHORT $LN13@GetTone
$LN5@GetTone:

; 286  : 	{
; 287  : 		for(int j=0; j<5; j++)

  00031	41		 inc	 ecx
  00032	83 c0 02	 add	 eax, 2
  00035	83 f9 05	 cmp	 ecx, 5
  00038	7c ea		 jl	 SHORT $LL7@GetTone

; 283  : 	using namespace VTN;
; 284  : 
; 285  : 	for(int i=0; i<24; i++)

  0003a	ff 45 fc	 inc	 DWORD PTR _i$1$[ebp]
  0003d	83 c2 0c	 add	 edx, 12			; 0000000cH
  00040	81 fa 20 01 00
	00		 cmp	 edx, OFFSET ?wVTNToneChar@VTN@@3PAY05_WA+288
  00046	7c d8		 jl	 SHORT $LL4@GetTone

; 296  : 				}
; 297  : 			}
; 298  : 		}
; 299  : 	}
; 300  : 
; 301  : 	return false;
; 302  : }

  00048	5f		 pop	 edi
  00049	5e		 pop	 esi
  0004a	32 c0		 xor	 al, al
  0004c	5b		 pop	 ebx
  0004d	8b e5		 mov	 esp, ebp
  0004f	5d		 pop	 ebp
  00050	c3		 ret	 0
$LN13@GetTone:

; 292  : 				{
; 293  : 					*pnLetterLine = i;

  00051	8b 45 fc	 mov	 eax, DWORD PTR _i$1$[ebp]
  00054	89 07		 mov	 DWORD PTR [edi], eax

; 294  : 					*pnTone = j;
; 295  : 					return true;

  00056	b0 01		 mov	 al, 1
  00058	5f		 pop	 edi
  00059	89 0e		 mov	 DWORD PTR [esi], ecx

; 296  : 				}
; 297  : 			}
; 298  : 		}
; 299  : 	}
; 300  : 
; 301  : 	return false;
; 302  : }

  0005b	5e		 pop	 esi
  0005c	5b		 pop	 ebx
  0005d	8b e5		 mov	 esp, ebp
  0005f	5d		 pop	 ebp
  00060	c3		 ret	 0
?GetTone@@YA_N_WPAH1@Z ENDP				; GetTone
_TEXT	ENDS
; Function compile flags: /Ogtp
; File C:\IAGOS\server\v18\Source\Source\_Common\scanner.cpp
;	COMDAT ?ComposeTone@@YA_W_WH@Z
_TEXT	SEGMENT
_letter$ = 8						; size = 2
_nTone$ = 12						; size = 4
?ComposeTone@@YA_W_WH@Z PROC				; ComposeTone, COMDAT

; 269  : {

  00000	55		 push	 ebp
  00001	8b ec		 mov	 ebp, esp

; 270  : 	using namespace VTN;
; 271  : 
; 272  : 	for(int i=0; i<24; i++)

  00003	66 8b 55 08	 mov	 dx, WORD PTR _letter$[ebp]
  00007	33 c9		 xor	 ecx, ecx
  00009	b8 0a 00 00 00	 mov	 eax, OFFSET ?wVTNToneChar@VTN@@3PAY05_WA+10
  0000e	66 90		 npad	 2
$LL4@ComposeTon:

; 273  : 	{
; 274  : 		if(letter == wVTNToneChar[i][5])

  00010	66 3b 10	 cmp	 dx, WORD PTR [eax]
  00013	74 0f		 je	 SHORT $LN8@ComposeTon

; 270  : 	using namespace VTN;
; 271  : 
; 272  : 	for(int i=0; i<24; i++)

  00015	83 c0 0c	 add	 eax, 12			; 0000000cH
  00018	41		 inc	 ecx
  00019	3d 2a 01 00 00	 cmp	 eax, OFFSET ?wVTNToneChar@VTN@@3PAY05_WA+298
  0001e	7c f0		 jl	 SHORT $LL4@ComposeTon

; 276  : 	}
; 277  : 
; 278  : 	return NULL;

  00020	33 c0		 xor	 eax, eax

; 279  : }

  00022	5d		 pop	 ebp
  00023	c3		 ret	 0
$LN8@ComposeTon:

; 275  : 			return wVTNToneChar[i][nTone];

  00024	8b 45 0c	 mov	 eax, DWORD PTR _nTone$[ebp]
  00027	8d 0c 49	 lea	 ecx, DWORD PTR [ecx+ecx*2]
  0002a	8d 04 48	 lea	 eax, DWORD PTR [eax+ecx*2]
  0002d	66 8b 04 45 00
	00 00 00	 mov	 ax, WORD PTR ?wVTNToneChar@VTN@@3PAY05_WA[eax*2]

; 279  : }

  00035	5d		 pop	 ebp
  00036	c3		 ret	 0
?ComposeTone@@YA_W_WH@Z ENDP				; ComposeTone
_TEXT	ENDS
; Function compile flags: /Ogtp
; File C:\IAGOS\server\v18\Source\Source\_Common\scanner.cpp
;	COMDAT ?IsTone@@YAH_W@Z
_TEXT	SEGMENT
_input$ = 8						; size = 2
?IsTone@@YAH_W@Z PROC					; IsTone, COMDAT

; 255  : {

  00000	55		 push	 ebp
  00001	8b ec		 mov	 ebp, esp

; 256  : 	using namespace VTN;
; 257  : 	//U0300 U0301 U0309 U0303 U0323 ŔĎ¶§ true
; 258  : 
; 259  : 	for(int i=0; i<5; i++)

  00003	66 8b 4d 08	 mov	 cx, WORD PTR _input$[ebp]
  00007	33 c0		 xor	 eax, eax
  00009	0f 1f 80 00 00
	00 00		 npad	 7
$LL4@IsTone:

; 260  : 	{
; 261  : 		if(input == wVTNCombiningDia[i])

  00010	66 3b 0c 45 00
	00 00 00	 cmp	 cx, WORD PTR ?wVTNCombiningDia@VTN@@3PA_WA[eax*2]
  00018	74 09		 je	 SHORT $LN1@IsTone

; 256  : 	using namespace VTN;
; 257  : 	//U0300 U0301 U0309 U0303 U0323 ŔĎ¶§ true
; 258  : 
; 259  : 	for(int i=0; i<5; i++)

  0001a	40		 inc	 eax
  0001b	83 f8 05	 cmp	 eax, 5
  0001e	7c f0		 jl	 SHORT $LL4@IsTone

; 262  : 			return i;
; 263  : 	}
; 264  : 
; 265  : 	return -1;

  00020	83 c8 ff	 or	 eax, -1
$LN1@IsTone:

; 266  : }

  00023	5d		 pop	 ebp
  00024	c3		 ret	 0
?IsTone@@YAH_W@Z ENDP					; IsTone
_TEXT	ENDS
; Function compile flags: /Ogtp
; File C:\IAGOS\server\v18\Source\Source\_Common\scanner.cpp
;	COMDAT ?CharNextVt@@YAPBDPBD@Z
_TEXT	SEGMENT
_lpsz$ = 8						; size = 4
?CharNextVt@@YAPBDPBD@Z PROC				; CharNextVt, COMDAT

; 180  : {

  00000	55		 push	 ebp
  00001	8b ec		 mov	 ebp, esp

; 181  : 	const BYTE* stream = (const BYTE*)(lpsz);

  00003	8b 4d 08	 mov	 ecx, DWORD PTR _lpsz$[ebp]

; 182  : 
; 183  : 	// µÎąřÂ° °ŞŔĚ ĽşÁ¶ŔĎ °ćżě ĂĽĹ©
; 184  : 	switch(stream[1])

  00006	0f b6 41 01	 movzx	 eax, BYTE PTR [ecx+1]
  0000a	05 34 ff ff ff	 add	 eax, -204		; ffffff34H
  0000f	83 f8 26	 cmp	 eax, 38			; 00000026H
  00012	77 0f		 ja	 SHORT $LN2@CharNextVt
  00014	0f b6 80 00 00
	00 00		 movzx	 eax, BYTE PTR $LN10@CharNextVt[eax]
  0001b	ff 24 85 00 00
	00 00		 jmp	 DWORD PTR $LN11@CharNextVt[eax*4]
$LN4@CharNextVt:

; 185  : 	{
; 186  : 		case 0xcc:
; 187  : 		case 0xec:
; 188  : 		case 0xd2:
; 189  : 		case 0xde:
; 190  : 		case 0xf2:
; 191  : 		{
; 192  : 			++stream;

  00022	41		 inc	 ecx
$LN2@CharNextVt:

; 193  : 		}
; 194  : 	    break;
; 195  : 	}
; 196  : 
; 197  : 	return (const char*)(stream+1);

  00023	8d 41 01	 lea	 eax, DWORD PTR [ecx+1]

; 198  : }

  00026	5d		 pop	 ebp
  00027	c3		 ret	 0
$LN11@CharNextVt:
  00028	00 00 00 00	 DD	 $LN4@CharNextVt
  0002c	00 00 00 00	 DD	 $LN2@CharNextVt
$LN10@CharNextVt:
  00030	00		 DB	 0
  00031	01		 DB	 1
  00032	01		 DB	 1
  00033	01		 DB	 1
  00034	01		 DB	 1
  00035	01		 DB	 1
  00036	00		 DB	 0
  00037	01		 DB	 1
  00038	01		 DB	 1
  00039	01		 DB	 1
  0003a	01		 DB	 1
  0003b	01		 DB	 1
  0003c	01		 DB	 1
  0003d	01		 DB	 1
  0003e	01		 DB	 1
  0003f	01		 DB	 1
  00040	01		 DB	 1
  00041	01		 DB	 1
  00042	00		 DB	 0
  00043	01		 DB	 1
  00044	01		 DB	 1
  00045	01		 DB	 1
  00046	01		 DB	 1
  00047	01		 DB	 1
  00048	01		 DB	 1
  00049	01		 DB	 1
  0004a	01		 DB	 1
  0004b	01		 DB	 1
  0004c	01		 DB	 1
  0004d	01		 DB	 1
  0004e	01		 DB	 1
  0004f	01		 DB	 1
  00050	00		 DB	 0
  00051	01		 DB	 1
  00052	01		 DB	 1
  00053	01		 DB	 1
  00054	01		 DB	 1
  00055	01		 DB	 1
  00056	00		 DB	 0
?CharNextVt@@YAPBDPBD@Z ENDP				; CharNextVt
_TEXT	ENDS
; Function compile flags: /Ogtp
; File C:\IAGOS\server\v18\Source\Source\_Common\scanner.cpp
;	COMDAT ?CharNextTh@@YAPBDPBD@Z
_TEXT	SEGMENT
_lpsz$ = 8						; size = 4
?CharNextTh@@YAPBDPBD@Z PROC				; CharNextTh, COMDAT

; 156  : {

  00000	55		 push	 ebp
  00001	8b ec		 mov	 ebp, esp

; 157  : 	using namespace THAI;
; 158  : 	using namespace OUTPUT;
; 159  : 
; 160  : 	const BYTE* stream = (const BYTE*)(lpsz);

  00003	8b 45 08	 mov	 eax, DWORD PTR _lpsz$[ebp]

; 161  : 
; 162  : 	while(STATE_CHECK
; 163  : 		[ 
; 164  : 			CLASS_TABLE
; 165  : 			[ 
; 166  : 				stream[ 0 ] 
; 167  : 			] 
; 168  : 		]
; 169  : 		[ 
; 170  : 			CLASS_TABLE
; 171  : 			[ 
; 172  : 				stream[ 1 ] 
; 173  : 			] 
; 174  : 		] == C) ++stream;

  00006	0f b6 08	 movzx	 ecx, BYTE PTR [eax]
  00009	8b 0c 8d 00 00
	00 00		 mov	 ecx, DWORD PTR ?CLASS_TABLE@THAI@@3PAW4CLASS@1@A[ecx*4]
  00010	8b d1		 mov	 edx, ecx
  00012	c1 e2 04	 shl	 edx, 4
  00015	03 d1		 add	 edx, ecx
  00017	0f b6 48 01	 movzx	 ecx, BYTE PTR [eax+1]
  0001b	03 14 8d 00 00
	00 00		 add	 edx, DWORD PTR ?CLASS_TABLE@THAI@@3PAW4CLASS@1@A[ecx*4]
  00022	83 3c 95 00 00
	00 00 01	 cmp	 DWORD PTR ?STATE_CHECK@OUTPUT@THAI@@3PAY0BB@W4TYPE@12@A[edx*4], 1
  0002a	75 2c		 jne	 SHORT $LN9@CharNextTh
  0002c	0f 1f 40 00	 npad	 4
$LL2@CharNextTh:
  00030	0f b6 48 01	 movzx	 ecx, BYTE PTR [eax+1]
  00034	40		 inc	 eax
  00035	8b 0c 8d 00 00
	00 00		 mov	 ecx, DWORD PTR ?CLASS_TABLE@THAI@@3PAW4CLASS@1@A[ecx*4]
  0003c	8b d1		 mov	 edx, ecx
  0003e	c1 e2 04	 shl	 edx, 4
  00041	03 d1		 add	 edx, ecx
  00043	0f b6 48 01	 movzx	 ecx, BYTE PTR [eax+1]
  00047	03 14 8d 00 00
	00 00		 add	 edx, DWORD PTR ?CLASS_TABLE@THAI@@3PAW4CLASS@1@A[ecx*4]
  0004e	83 3c 95 00 00
	00 00 01	 cmp	 DWORD PTR ?STATE_CHECK@OUTPUT@THAI@@3PAY0BB@W4TYPE@12@A[edx*4], 1
  00056	74 d8		 je	 SHORT $LL2@CharNextTh
$LN9@CharNextTh:

; 175  : 
; 176  : 	return (const char*)(stream+1);
; 177  : }

  00058	40		 inc	 eax
  00059	5d		 pop	 ebp
  0005a	c3		 ret	 0
?CharNextTh@@YAPBDPBD@Z ENDP				; CharNextTh
_TEXT	ENDS
; Function compile flags: /Ogtp
; File C:\Program Files\Microsoft Visual Studio\2022\Professional\VC\Tools\MSVC\14.44.35207\include\xmemory
;	COMDAT ??$_Allocate_manually_vector_aligned@U_Default_allocate_traits@std@@@std@@YAPAXI@Z
_TEXT	SEGMENT
__Bytes$ = 8						; size = 4
??$_Allocate_manually_vector_aligned@U_Default_allocate_traits@std@@@std@@YAPAXI@Z PROC ; std::_Allocate_manually_vector_aligned<std::_Default_allocate_traits>, COMDAT

; 182  : __declspec(allocator) void* _Allocate_manually_vector_aligned(const size_t _Bytes) {

  00000	55		 push	 ebp
  00001	8b ec		 mov	 ebp, esp

; 183  :     // allocate _Bytes manually aligned to at least _Big_allocation_alignment
; 184  :     const size_t _Block_size = _Non_user_size + _Bytes;

  00003	8b 45 08	 mov	 eax, DWORD PTR __Bytes$[ebp]
  00006	8d 48 23	 lea	 ecx, DWORD PTR [eax+35]

; 185  :     if (_Block_size <= _Bytes) {

  00009	3b c8		 cmp	 ecx, eax
  0000b	0f 86 00 00 00
	00		 jbe	 ?_Throw_bad_array_new_length@std@@YAXXZ ; std::_Throw_bad_array_new_length

; 136  :         return ::operator new(_Bytes);

  00011	51		 push	 ecx
  00012	e8 00 00 00 00	 call	 ??2@YAPAXI@Z		; operator new

; 186  :         _Throw_bad_array_new_length(); // add overflow
; 187  :     }
; 188  : 
; 189  :     const uintptr_t _Ptr_container = reinterpret_cast<uintptr_t>(_Traits::_Allocate(_Block_size));

  00017	8b c8		 mov	 ecx, eax

; 136  :         return ::operator new(_Bytes);

  00019	83 c4 04	 add	 esp, 4

; 190  :     _STL_VERIFY(_Ptr_container != 0, "invalid argument"); // validate even in release since we're doing p[-1]

  0001c	85 c9		 test	 ecx, ecx
  0001e	74 0b		 je	 SHORT $LN9@Allocate_m

; 191  :     void* const _Ptr = reinterpret_cast<void*>((_Ptr_container + _Non_user_size) & ~(_Big_allocation_alignment - 1));

  00020	8d 41 23	 lea	 eax, DWORD PTR [ecx+35]
  00023	83 e0 e0	 and	 eax, -32		; ffffffe0H

; 192  :     static_cast<uintptr_t*>(_Ptr)[-1] = _Ptr_container;

  00026	89 48 fc	 mov	 DWORD PTR [eax-4], ecx

; 193  : 
; 194  : #ifdef _DEBUG
; 195  :     static_cast<uintptr_t*>(_Ptr)[-2] = _Big_allocation_sentinel;
; 196  : #endif // defined(_DEBUG)
; 197  :     return _Ptr;
; 198  : }

  00029	5d		 pop	 ebp
  0002a	c3		 ret	 0
$LN9@Allocate_m:

; 190  :     _STL_VERIFY(_Ptr_container != 0, "invalid argument"); // validate even in release since we're doing p[-1]

  0002b	6a 00		 push	 0
  0002d	6a 00		 push	 0
  0002f	6a 00		 push	 0
  00031	6a 00		 push	 0
  00033	6a 00		 push	 0
  00035	e8 00 00 00 00	 call	 __invoke_watson
$LN7@Allocate_m:
  0003a	cc		 int	 3
??$_Allocate_manually_vector_aligned@U_Default_allocate_traits@std@@@std@@YAPAXI@Z ENDP ; std::_Allocate_manually_vector_aligned<std::_Default_allocate_traits>
_TEXT	ENDS
; Function compile flags: /Ogtp
; File C:\IAGOS\server\v18\Source\Source\_Common\scanner.cpp
;	COMDAT ?IsCyrillic@@YAHD@Z
_TEXT	SEGMENT
_chSrc$ = 8						; size = 1
?IsCyrillic@@YAHD@Z PROC				; IsCyrillic, COMDAT

; 360  : {

  00000	55		 push	 ebp
  00001	8b ec		 mov	 ebp, esp

; 361  : 	if( ::GetLanguage() != LANG_RUS )

  00003	e8 00 00 00 00	 call	 ?GetLanguage@@YAHXZ	; GetLanguage
  00008	83 f8 0c	 cmp	 eax, 12			; 0000000cH
  0000b	74 04		 je	 SHORT $LN2@IsCyrillic

; 362  : 		return FALSE;

  0000d	33 c0		 xor	 eax, eax

; 386  : }

  0000f	5d		 pop	 ebp
  00010	c3		 ret	 0
$LN2@IsCyrillic:

; 363  : 
; 364  : 	BYTE c = chSrc & 0x000000ff;
; 365  : 	static BOOL bCyrill[256] = 
; 366  : 	{//	0x00	0x01	0x02	0x03	0x04	0x05	0x06	0x07	0x08	0x09	0x0a	0x0b	0x0c	0x0d	0x0e	0x0f
; 367  : 		FALSE, 	FALSE, 	FALSE, 	FALSE, 	FALSE, 	FALSE, 	FALSE, 	FALSE, 	FALSE, 	FALSE, 	FALSE, 	FALSE, 	FALSE, 	FALSE, 	FALSE, 	FALSE,	// 0x00
; 368  : 		FALSE, 	FALSE, 	FALSE, 	FALSE, 	FALSE, 	FALSE, 	FALSE, 	FALSE, 	FALSE, 	FALSE, 	FALSE, 	FALSE, 	FALSE, 	FALSE, 	FALSE, 	FALSE,	// 0x10
; 369  : 		FALSE, 	FALSE, 	FALSE, 	FALSE, 	FALSE, 	FALSE, 	FALSE, 	FALSE, 	FALSE, 	FALSE, 	FALSE, 	FALSE, 	FALSE, 	FALSE, 	FALSE, 	FALSE,	// 0x20
; 370  : 		FALSE, 	FALSE, 	FALSE, 	FALSE, 	FALSE, 	FALSE, 	FALSE, 	FALSE, 	FALSE, 	FALSE, 	FALSE, 	FALSE, 	FALSE, 	FALSE, 	FALSE, 	FALSE,	// 0x30
; 371  : 		FALSE, 	FALSE, 	FALSE, 	FALSE, 	FALSE, 	FALSE, 	FALSE, 	FALSE, 	FALSE, 	FALSE, 	FALSE, 	FALSE, 	FALSE, 	FALSE, 	FALSE, 	FALSE,	// 0x40
; 372  : 		FALSE, 	FALSE, 	FALSE, 	FALSE, 	FALSE, 	FALSE, 	FALSE, 	FALSE, 	FALSE, 	FALSE, 	FALSE, 	FALSE, 	FALSE, 	FALSE, 	FALSE, 	FALSE,	// 0x50
; 373  : 		FALSE, 	FALSE, 	FALSE, 	FALSE, 	FALSE, 	FALSE, 	FALSE, 	FALSE, 	FALSE, 	FALSE, 	FALSE, 	FALSE, 	FALSE, 	FALSE, 	FALSE, 	FALSE,	// 0x60
; 374  : 		FALSE, 	FALSE, 	FALSE, 	FALSE, 	FALSE, 	FALSE, 	FALSE, 	FALSE, 	FALSE, 	FALSE, 	FALSE, 	FALSE, 	FALSE, 	FALSE, 	FALSE, 	FALSE,	// 0x70
; 375  : 		FALSE, 	FALSE, 	FALSE, 	FALSE, 	FALSE, 	FALSE, 	FALSE, 	FALSE, 	FALSE, 	FALSE, 	FALSE, 	FALSE, 	FALSE, 	FALSE, 	FALSE, 	FALSE,	// 0x80
; 376  : 		FALSE, 	FALSE, 	FALSE, 	FALSE, 	FALSE, 	FALSE, 	FALSE, 	FALSE, 	FALSE, 	FALSE, 	FALSE, 	FALSE, 	FALSE, 	FALSE, 	FALSE, 	FALSE,	// 0x90
; 377  : 		FALSE, 	FALSE, 	FALSE, 	FALSE, 	FALSE, 	FALSE, 	FALSE, 	FALSE, 	TRUE, 	FALSE, 	FALSE, 	FALSE, 	FALSE, 	FALSE, 	FALSE, 	FALSE,	// 0xa0
; 378  : 		FALSE, 	FALSE, 	FALSE, 	FALSE, 	FALSE, 	FALSE, 	FALSE, 	FALSE, 	TRUE, 	FALSE, 	FALSE, 	FALSE, 	FALSE, 	FALSE, 	FALSE, 	FALSE,	// 0xb0
; 379  : 		TRUE, 	TRUE, 	TRUE, 	TRUE, 	TRUE, 	TRUE, 	TRUE, 	TRUE, 	TRUE, 	TRUE, 	TRUE, 	TRUE, 	TRUE, 	TRUE, 	TRUE, 	TRUE,	// 0xc0
; 380  : 		TRUE, 	TRUE, 	TRUE, 	TRUE, 	TRUE, 	TRUE, 	TRUE, 	TRUE, 	TRUE, 	TRUE, 	TRUE, 	TRUE, 	TRUE, 	TRUE, 	TRUE, 	TRUE,	// 0xd0
; 381  : 		TRUE, 	TRUE, 	TRUE, 	TRUE, 	TRUE, 	TRUE, 	TRUE, 	TRUE, 	TRUE, 	TRUE, 	TRUE, 	TRUE, 	TRUE, 	TRUE, 	TRUE, 	TRUE,	// 0xe0
; 382  : 		TRUE, 	TRUE, 	TRUE, 	TRUE, 	TRUE, 	TRUE, 	TRUE, 	TRUE, 	TRUE, 	TRUE, 	TRUE, 	TRUE, 	TRUE, 	TRUE, 	TRUE, 	TRUE	// 0xf0
; 383  : 	};
; 384  : 
; 385  : 	return bCyrill[c];

  00011	0f b6 45 08	 movzx	 eax, BYTE PTR _chSrc$[ebp]
  00015	8b 04 85 00 00
	00 00		 mov	 eax, DWORD PTR ?bCyrill@?1??IsCyrillic@@YAHD@Z@4PAHA[eax*4]

; 386  : }

  0001c	5d		 pop	 ebp
  0001d	c3		 ret	 0
?IsCyrillic@@YAHD@Z ENDP				; IsCyrillic
_TEXT	ENDS
; Function compile flags: /Ogtp
; File C:\IAGOS\server\v18\Source\Source\_Common\scanner.cpp
;	COMDAT ?MultiByteToWideCharEx@@YAHIKPBDHPA_WH@Z
_TEXT	SEGMENT
_pwSrc$1$ = -4						; size = 4
_CodePage$ = 8						; size = 4
_dwFlags$ = 12						; size = 4
_lpMultiByteStr$ = 16					; size = 4
_cchMultiByte$ = 20					; size = 4
_lpWideCharStr$ = 24					; size = 4
_cchWideChar$ = 28					; size = 4
?MultiByteToWideCharEx@@YAHIKPBDHPA_WH@Z PROC		; MultiByteToWideCharEx, COMDAT

; 423  : {

  00000	55		 push	 ebp
  00001	8b ec		 mov	 ebp, esp
  00003	51		 push	 ecx
  00004	53		 push	 ebx

; 424  : 	int nLength;
; 425  : 	if(::GetLanguage() == LANG_VTN && lpWideCharStr != NULL && cchWideChar > 0)

  00005	e8 00 00 00 00	 call	 ?GetLanguage@@YAHXZ	; GetLanguage
  0000a	8b 5d 18	 mov	 ebx, DWORD PTR _lpWideCharStr$[ebp]
  0000d	83 f8 0b	 cmp	 eax, 11			; 0000000bH
  00010	8b 45 1c	 mov	 eax, DWORD PTR _cchWideChar$[ebp]
  00013	75 6c		 jne	 SHORT $LN2@MultiByteT
  00015	85 db		 test	 ebx, ebx
  00017	74 68		 je	 SHORT $LN2@MultiByteT
  00019	85 c0		 test	 eax, eax
  0001b	7e 64		 jle	 SHORT $LN2@MultiByteT

; 426  : 	{
; 427  : 		int nSize = lstrlen(lpMultiByteStr);

  0001d	56		 push	 esi
  0001e	57		 push	 edi
  0001f	8b 7d 10	 mov	 edi, DWORD PTR _lpMultiByteStr$[ebp]
  00022	57		 push	 edi
  00023	ff 15 00 00 00
	00		 call	 DWORD PTR __imp__lstrlenA@4

; 428  : 		wchar_t* pwSrc = new wchar_t[nSize+1];

  00029	b9 02 00 00 00	 mov	 ecx, 2
  0002e	8d 70 01	 lea	 esi, DWORD PTR [eax+1]
  00031	8b c6		 mov	 eax, esi
  00033	f7 e1		 mul	 ecx
  00035	b9 ff ff ff ff	 mov	 ecx, -1
  0003a	0f 42 c1	 cmovb	 eax, ecx
  0003d	50		 push	 eax
  0003e	e8 00 00 00 00	 call	 ??_U@YAPAXI@Z		; operator new[]
  00043	83 c4 04	 add	 esp, 4
  00046	89 45 fc	 mov	 DWORD PTR _pwSrc$1$[ebp], eax

; 429  : 		nLength = MultiByteToWideChar(CodePage, dwFlags, lpMultiByteStr, cchMultiByte, pwSrc, nSize+1);

  00049	56		 push	 esi
  0004a	50		 push	 eax
  0004b	ff 75 14	 push	 DWORD PTR _cchMultiByte$[ebp]
  0004e	57		 push	 edi
  0004f	ff 75 0c	 push	 DWORD PTR _dwFlags$[ebp]
  00052	ff 75 08	 push	 DWORD PTR _CodePage$[ebp]
  00055	ff 15 00 00 00
	00		 call	 DWORD PTR __imp__MultiByteToWideChar@24

; 430  : 		ComposeString(pwSrc, lpWideCharStr, nLength);

  0005b	8b 7d fc	 mov	 edi, DWORD PTR _pwSrc$1$[ebp]
  0005e	8b f0		 mov	 esi, eax
  00060	56		 push	 esi
  00061	53		 push	 ebx
  00062	57		 push	 edi
  00063	e8 00 00 00 00	 call	 ?ComposeString@@YAXPA_W0H@Z ; ComposeString
  00068	83 c4 0c	 add	 esp, 12			; 0000000cH

; 431  : 		SAFE_DELETE_ARRAY(pwSrc);

  0006b	85 ff		 test	 edi, edi
  0006d	74 09		 je	 SHORT $LN6@MultiByteT
  0006f	57		 push	 edi
  00070	e8 00 00 00 00	 call	 ??_V@YAXPAX@Z		; operator delete[]
  00075	83 c4 04	 add	 esp, 4
$LN6@MultiByteT:

; 435  : 
; 436  : 	return nLength;

  00078	5f		 pop	 edi
  00079	8b c6		 mov	 eax, esi
  0007b	5e		 pop	 esi
  0007c	5b		 pop	 ebx

; 437  : }

  0007d	8b e5		 mov	 esp, ebp
  0007f	5d		 pop	 ebp
  00080	c3		 ret	 0
$LN2@MultiByteT:

; 432  : 	}
; 433  : 	else
; 434  : 		nLength = MultiByteToWideChar(CodePage, dwFlags, lpMultiByteStr, cchMultiByte, lpWideCharStr, cchWideChar);

  00081	50		 push	 eax
  00082	53		 push	 ebx
  00083	ff 75 14	 push	 DWORD PTR _cchMultiByte$[ebp]
  00086	ff 75 10	 push	 DWORD PTR _lpMultiByteStr$[ebp]
  00089	ff 75 0c	 push	 DWORD PTR _dwFlags$[ebp]
  0008c	ff 75 08	 push	 DWORD PTR _CodePage$[ebp]
  0008f	ff 15 00 00 00
	00		 call	 DWORD PTR __imp__MultiByteToWideChar@24
  00095	5b		 pop	 ebx

; 437  : }

  00096	8b e5		 mov	 esp, ebp
  00098	5d		 pop	 ebp
  00099	c3		 ret	 0
?MultiByteToWideCharEx@@YAHIKPBDHPA_WH@Z ENDP		; MultiByteToWideCharEx
_TEXT	ENDS
; Function compile flags: /Ogtp
; File C:\IAGOS\server\v18\Source\Source\_Common\scanner.cpp
;	COMDAT ?WideCharToMultiByteEx@@YAHIKPB_WHPADHPBDPAH@Z
_TEXT	SEGMENT
_pwDest$1$ = -8						; size = 4
_pwSrc$1$ = -4						; size = 4
_CodePage$ = 8						; size = 4
_dwFlags$ = 12						; size = 4
_lpWideCharStr$ = 16					; size = 4
_cchWideChar$ = 20					; size = 4
_lpMultiByteStr$ = 24					; size = 4
_cchMultiByte$ = 28					; size = 4
_lpDefaultChar$ = 32					; size = 4
_lpUsedDefaultChar$ = 36				; size = 4
?WideCharToMultiByteEx@@YAHIKPB_WHPADHPBDPAH@Z PROC	; WideCharToMultiByteEx, COMDAT

; 397  : {

  00000	55		 push	 ebp
  00001	8b ec		 mov	 ebp, esp
  00003	83 ec 08	 sub	 esp, 8
  00006	53		 push	 ebx

; 398  : 	int nLength;
; 399  : 	if(::GetLanguage() == LANG_VTN && lpMultiByteStr != NULL && cchMultiByte > 0)

  00007	e8 00 00 00 00	 call	 ?GetLanguage@@YAHXZ	; GetLanguage
  0000c	8b 5d 1c	 mov	 ebx, DWORD PTR _cchMultiByte$[ebp]
  0000f	83 f8 0b	 cmp	 eax, 11			; 0000000bH
  00012	8b 45 18	 mov	 eax, DWORD PTR _lpMultiByteStr$[ebp]
  00015	0f 85 c8 00 00
	00		 jne	 $LN2@WideCharTo
  0001b	85 c0		 test	 eax, eax
  0001d	0f 84 c0 00 00
	00		 je	 $LN2@WideCharTo
  00023	85 db		 test	 ebx, ebx
  00025	0f 8e b8 00 00
	00		 jle	 $LN2@WideCharTo

; 400  : 	{
; 401  : 		int nSize = wcslen((LPCWSTR)lpWideCharStr);

  0002b	56		 push	 esi
  0002c	8b 75 10	 mov	 esi, DWORD PTR _lpWideCharStr$[ebp]
  0002f	8d 4e 02	 lea	 ecx, DWORD PTR [esi+2]
$LL7@WideCharTo:
  00032	66 8b 06	 mov	 ax, WORD PTR [esi]
  00035	83 c6 02	 add	 esi, 2
  00038	66 85 c0	 test	 ax, ax
  0003b	75 f5		 jne	 SHORT $LL7@WideCharTo
  0003d	2b f1		 sub	 esi, ecx

; 402  : 		wchar_t* pwSrc = new wchar_t[nSize+1];

  0003f	b9 02 00 00 00	 mov	 ecx, 2
  00044	d1 fe		 sar	 esi, 1
  00046	57		 push	 edi
  00047	8d 7e 01	 lea	 edi, DWORD PTR [esi+1]
  0004a	8b c7		 mov	 eax, edi
  0004c	f7 e1		 mul	 ecx
  0004e	b9 ff ff ff ff	 mov	 ecx, -1
  00053	0f 42 c1	 cmovb	 eax, ecx
  00056	50		 push	 eax
  00057	e8 00 00 00 00	 call	 ??_U@YAPAXI@Z		; operator new[]
  0005c	89 45 fc	 mov	 DWORD PTR _pwSrc$1$[ebp], eax

; 403  : 		wchar_t* pwDest = new wchar_t[(nSize*2)+1];

  0005f	b9 02 00 00 00	 mov	 ecx, 2
  00064	8d 04 75 01 00
	00 00		 lea	 eax, DWORD PTR [esi*2+1]
  0006b	f7 e1		 mul	 ecx
  0006d	b9 ff ff ff ff	 mov	 ecx, -1
  00072	0f 42 c1	 cmovb	 eax, ecx
  00075	50		 push	 eax
  00076	e8 00 00 00 00	 call	 ??_U@YAPAXI@Z		; operator new[]

; 404  : 		memcpy(pwSrc, lpWideCharStr, sizeof(wchar_t)*(nSize+1));

  0007b	8d 34 75 02 00
	00 00		 lea	 esi, DWORD PTR [esi*2+2]
  00082	89 45 f8	 mov	 DWORD PTR _pwDest$1$[ebp], eax
  00085	56		 push	 esi
  00086	ff 75 10	 push	 DWORD PTR _lpWideCharStr$[ebp]
  00089	ff 75 fc	 push	 DWORD PTR _pwSrc$1$[ebp]
  0008c	e8 00 00 00 00	 call	 _memcpy

; 405  : 		DecomposeString(pwSrc, pwDest, nSize+1);

  00091	8b 75 f8	 mov	 esi, DWORD PTR _pwDest$1$[ebp]
  00094	57		 push	 edi
  00095	56		 push	 esi
  00096	ff 75 fc	 push	 DWORD PTR _pwSrc$1$[ebp]
  00099	e8 00 00 00 00	 call	 ?DecomposeString@@YAXPA_W0H@Z ; DecomposeString
  0009e	83 c4 20	 add	 esp, 32			; 00000020H

; 406  : 		nLength = WideCharToMultiByte(CodePage, dwFlags, pwDest, cchWideChar, lpMultiByteStr, cchMultiByte, lpDefaultChar, lpUsedDefaultChar);

  000a1	ff 75 24	 push	 DWORD PTR _lpUsedDefaultChar$[ebp]
  000a4	ff 75 20	 push	 DWORD PTR _lpDefaultChar$[ebp]
  000a7	53		 push	 ebx
  000a8	ff 75 18	 push	 DWORD PTR _lpMultiByteStr$[ebp]
  000ab	ff 75 14	 push	 DWORD PTR _cchWideChar$[ebp]
  000ae	56		 push	 esi
  000af	ff 75 0c	 push	 DWORD PTR _dwFlags$[ebp]
  000b2	ff 75 08	 push	 DWORD PTR _CodePage$[ebp]
  000b5	ff 15 00 00 00
	00		 call	 DWORD PTR __imp__WideCharToMultiByte@32
  000bb	8b f8		 mov	 edi, eax

; 407  : 		SAFE_DELETE_ARRAY(pwSrc);

  000bd	8b 45 fc	 mov	 eax, DWORD PTR _pwSrc$1$[ebp]
  000c0	85 c0		 test	 eax, eax
  000c2	74 09		 je	 SHORT $LN4@WideCharTo
  000c4	50		 push	 eax
  000c5	e8 00 00 00 00	 call	 ??_V@YAXPAX@Z		; operator delete[]
  000ca	83 c4 04	 add	 esp, 4
$LN4@WideCharTo:

; 408  : 		SAFE_DELETE_ARRAY(pwDest);

  000cd	85 f6		 test	 esi, esi
  000cf	74 09		 je	 SHORT $LN8@WideCharTo
  000d1	56		 push	 esi
  000d2	e8 00 00 00 00	 call	 ??_V@YAXPAX@Z		; operator delete[]
  000d7	83 c4 04	 add	 esp, 4
$LN8@WideCharTo:

; 412  : 
; 413  : 	return nLength;

  000da	8b c7		 mov	 eax, edi
  000dc	5f		 pop	 edi
  000dd	5e		 pop	 esi
  000de	5b		 pop	 ebx

; 414  : }

  000df	8b e5		 mov	 esp, ebp
  000e1	5d		 pop	 ebp
  000e2	c3		 ret	 0
$LN2@WideCharTo:

; 409  : 	}
; 410  : 	else
; 411  : 		nLength = WideCharToMultiByte(CodePage, dwFlags, lpWideCharStr, cchWideChar, lpMultiByteStr, cchMultiByte, lpDefaultChar, lpUsedDefaultChar);

  000e3	ff 75 24	 push	 DWORD PTR _lpUsedDefaultChar$[ebp]
  000e6	ff 75 20	 push	 DWORD PTR _lpDefaultChar$[ebp]
  000e9	53		 push	 ebx
  000ea	50		 push	 eax
  000eb	ff 75 14	 push	 DWORD PTR _cchWideChar$[ebp]
  000ee	ff 75 10	 push	 DWORD PTR _lpWideCharStr$[ebp]
  000f1	ff 75 0c	 push	 DWORD PTR _dwFlags$[ebp]
  000f4	ff 75 08	 push	 DWORD PTR _CodePage$[ebp]
  000f7	ff 15 00 00 00
	00		 call	 DWORD PTR __imp__WideCharToMultiByte@32
  000fd	5b		 pop	 ebx

; 414  : }

  000fe	8b e5		 mov	 esp, ebp
  00100	5d		 pop	 ebp
  00101	c3		 ret	 0
?WideCharToMultiByteEx@@YAHIKPB_WHPADHPBDPAH@Z ENDP	; WideCharToMultiByteEx
_TEXT	ENDS
; Function compile flags: /Ogtp
; File C:\IAGOS\server\v18\Source\Source\_Common\scanner.cpp
;	COMDAT ?CharNextEx@@YAPBDPBDG@Z
_TEXT	SEGMENT
_strText$ = 8						; size = 4
_codePage$ = 12						; size = 2
?CharNextEx@@YAPBDPBDG@Z PROC				; CharNextEx, COMDAT

; 201  : {

  00000	55		 push	 ebp
  00001	8b ec		 mov	 ebp, esp

; 202  : 	if(::GetLanguage() == LANG_THA)

  00003	e8 00 00 00 00	 call	 ?GetLanguage@@YAHXZ	; GetLanguage
  00008	83 f8 04	 cmp	 eax, 4
  0000b	75 0d		 jne	 SHORT $LN2@CharNextEx

; 203  : 	{
; 204  : 		return CharNextTh(strText);

  0000d	ff 75 08	 push	 DWORD PTR _strText$[ebp]
  00010	e8 00 00 00 00	 call	 ?CharNextTh@@YAPBDPBD@Z	; CharNextTh
  00015	83 c4 04	 add	 esp, 4

; 213  : 	}
; 214  : }

  00018	5d		 pop	 ebp
  00019	c3		 ret	 0
$LN2@CharNextEx:

; 205  : 	}
; 206  : 	else if(::GetLanguage() == LANG_VTN)

  0001a	e8 00 00 00 00	 call	 ?GetLanguage@@YAHXZ	; GetLanguage
  0001f	83 f8 0b	 cmp	 eax, 11			; 0000000bH
  00022	75 0d		 jne	 SHORT $LN4@CharNextEx

; 207  : 	{
; 208  : 		return CharNextVt(strText);

  00024	ff 75 08	 push	 DWORD PTR _strText$[ebp]
  00027	e8 00 00 00 00	 call	 ?CharNextVt@@YAPBDPBD@Z	; CharNextVt
  0002c	83 c4 04	 add	 esp, 4

; 213  : 	}
; 214  : }

  0002f	5d		 pop	 ebp
  00030	c3		 ret	 0
$LN4@CharNextEx:

; 209  : 	}
; 210  : 	else
; 211  : 	{
; 212  : 		return CharNextExA(g_codePage, strText, 0);

  00031	0f b7 05 00 00
	00 00		 movzx	 eax, WORD PTR ?g_codePage@@3GA ; g_codePage
  00038	6a 00		 push	 0
  0003a	ff 75 08	 push	 DWORD PTR _strText$[ebp]
  0003d	50		 push	 eax
  0003e	ff 15 00 00 00
	00		 call	 DWORD PTR __imp__CharNextExA@12

; 213  : 	}
; 214  : }

  00044	5d		 pop	 ebp
  00045	c3		 ret	 0
?CharNextEx@@YAPBDPBDG@Z ENDP				; CharNextEx
_TEXT	ENDS
; Function compile flags: /Ogtp
; File C:\IAGOS\server\v18\Source\Source\_Common\scanner.cpp
;	COMDAT ?IsComposibleTh@@YA_NEEH@Z
_TEXT	SEGMENT
_prev$ = 8						; size = 1
_curr$ = 12						; size = 1
_mode$ = 16						; size = 4
?IsComposibleTh@@YA_NEEH@Z PROC				; IsComposibleTh, COMDAT

; 140  : {

  00000	55		 push	 ebp
  00001	8b ec		 mov	 ebp, esp

; 141  : 	using namespace THAI;
; 142  : 	using namespace INPUT;
; 143  : 
; 144  : 	if(mode > 2) {

  00003	8b 4d 10	 mov	 ecx, DWORD PTR _mode$[ebp]
  00006	83 f9 02	 cmp	 ecx, 2
  00009	7e 04		 jle	 SHORT $LN2@IsComposib

; 145  : 		return false;

  0000b	32 c0		 xor	 al, al

; 148  : 	}
; 149  : }

  0000d	5d		 pop	 ebp
  0000e	c3		 ret	 0
$LN2@IsComposib:

; 146  : 	} else {
; 147  : 		return COMPOSIBLE[mode][STATE_CHECK[CLASS_TABLE[prev]][CLASS_TABLE[curr]]];

  0000f	0f b6 45 08	 movzx	 eax, BYTE PTR _prev$[ebp]
  00013	8d 0c 89	 lea	 ecx, DWORD PTR [ecx+ecx*4]
  00016	8b 04 85 00 00
	00 00		 mov	 eax, DWORD PTR ?CLASS_TABLE@THAI@@3PAW4CLASS@1@A[eax*4]
  0001d	8b d0		 mov	 edx, eax
  0001f	c1 e2 04	 shl	 edx, 4
  00022	03 d0		 add	 edx, eax
  00024	0f b6 45 0c	 movzx	 eax, BYTE PTR _curr$[ebp]
  00028	03 14 85 00 00
	00 00		 add	 edx, DWORD PTR ?CLASS_TABLE@THAI@@3PAW4CLASS@1@A[eax*4]
  0002f	8b 04 95 00 00
	00 00		 mov	 eax, DWORD PTR ?STATE_CHECK@INPUT@THAI@@3PAY0BB@W4TYPE@12@A[edx*4]
  00036	8a 84 08 00 00
	00 00		 mov	 al, BYTE PTR ?COMPOSIBLE@INPUT@THAI@@3PAY04_NA[eax+ecx]

; 148  : 	}
; 149  : }

  0003d	5d		 pop	 ebp
  0003e	c3		 ret	 0
?IsComposibleTh@@YA_NEEH@Z ENDP				; IsComposibleTh
_TEXT	ENDS
; Function compile flags: /Ogtp
; File C:\Program Files\Microsoft Visual Studio\2022\Professional\VC\Tools\MSVC\14.44.35207\atlmfc\include\atlconv.h
;	COMDAT ??1?$CA2AEX@$0IA@@ATL@@QAE@XZ
_TEXT	SEGMENT
??1?$CA2AEX@$0IA@@ATL@@QAE@XZ PROC			; ATL::CA2AEX<128>::~CA2AEX<128>, COMDAT
; _this$ = ecx

; 246  : 		AtlConvFreeMemory(m_psz,m_szBuffer,t_nBufferLength);

  00000	8b 11		 mov	 edx, DWORD PTR [ecx]
  00002	8d 41 04	 lea	 eax, DWORD PTR [ecx+4]

; 162  : 	if( pBuff != pszFixedBuffer )

  00005	3b d0		 cmp	 edx, eax
  00007	74 07		 je	 SHORT $LN4@CA2AEX

; 163  : 	{
; 164  : 		free( pBuff );

  00009	52		 push	 edx
  0000a	e8 00 00 00 00	 call	 _free
  0000f	59		 pop	 ecx
$LN4@CA2AEX:

; 247  : 	}

  00010	c3		 ret	 0
??1?$CA2AEX@$0IA@@ATL@@QAE@XZ ENDP			; ATL::CA2AEX<128>::~CA2AEX<128>
_TEXT	ENDS
; Function compile flags: /Ogtp
; File C:\Program Files\Microsoft Visual Studio\2022\Professional\VC\Tools\MSVC\14.44.35207\atlmfc\include\atlconv.h
; File C:\Program Files (x86)\Windows Kits\10\Include\10.0.26100.0\ucrt\corecrt_memcpy_s.h
; File C:\Program Files\Microsoft Visual Studio\2022\Professional\VC\Tools\MSVC\14.44.35207\atlmfc\include\atlchecked.h
; File C:\Program Files\Microsoft Visual Studio\2022\Professional\VC\Tools\MSVC\14.44.35207\atlmfc\include\atlconv.h
; File C:\Program Files\Microsoft Visual Studio\2022\Professional\VC\Tools\MSVC\14.44.35207\atlmfc\include\atlchecked.h
; File C:\Program Files\Microsoft Visual Studio\2022\Professional\VC\Tools\MSVC\14.44.35207\atlmfc\include\atlconv.h
;	COMDAT ??0?$CA2AEX@$0IA@@ATL@@QAE@PBD@Z
_TEXT	SEGMENT
_psz$ = 8						; size = 4
??0?$CA2AEX@$0IA@@ATL@@QAE@PBD@Z PROC			; ATL::CA2AEX<128>::CA2AEX<128>, COMDAT
; _this$ = ecx

; 232  : 	{

  00000	55		 push	 ebp
  00001	8b ec		 mov	 ebp, esp
  00003	53		 push	 ebx

; 257  : 		if (psz == NULL)

  00004	8b 5d 08	 mov	 ebx, DWORD PTR _psz$[ebp]

; 232  : 	{

  00007	56		 push	 esi
  00008	8b f1		 mov	 esi, ecx
  0000a	8d 56 04	 lea	 edx, DWORD PTR [esi+4]
  0000d	89 16		 mov	 DWORD PTR [esi], edx

; 257  : 		if (psz == NULL)

  0000f	85 db		 test	 ebx, ebx
  00011	75 0a		 jne	 SHORT $LN4@CA2AEX

; 258  : 		{
; 259  : 			m_psz = NULL;

  00013	89 1e		 mov	 DWORD PTR [esi], ebx

; 234  : 	}

  00015	8b c6		 mov	 eax, esi
  00017	5e		 pop	 esi
  00018	5b		 pop	 ebx
  00019	5d		 pop	 ebp
  0001a	c2 04 00	 ret	 4
$LN4@CA2AEX:

; 262  : 		int nLength = static_cast<int>(strlen( psz ))+1;

  0001d	8b cb		 mov	 ecx, ebx
  0001f	57		 push	 edi
  00020	8d 79 01	 lea	 edi, DWORD PTR [ecx+1]
$LL51@CA2AEX:
  00023	8a 01		 mov	 al, BYTE PTR [ecx]
  00025	41		 inc	 ecx
  00026	84 c0		 test	 al, al
  00028	75 f9		 jne	 SHORT $LL51@CA2AEX
  0002a	2b cf		 sub	 ecx, edi
  0002c	8d 79 01	 lea	 edi, DWORD PTR [ecx+1]

; 118  : 	ATLENSURE_THROW(nLength >= 0, E_INVALIDARG);

  0002f	85 ff		 test	 edi, edi
  00031	78 41		 js	 SHORT $LN49@CA2AEX

; 119  : 	ATLENSURE_THROW(pszFixedBuffer != NULL, E_INVALIDARG);

  00033	85 d2		 test	 edx, edx
  00035	74 3d		 je	 SHORT $LN49@CA2AEX

; 120  : 
; 121  : 	//if buffer malloced, try to realloc.
; 122  : 	if (*ppBuff != pszFixedBuffer)
; 123  : 	{
; 124  : 		if( nLength > nFixedBufferLength )
; 125  : 		{
; 126  : 			_CharType* ppReallocBuf = static_cast< _CharType* >( _recalloc(*ppBuff, nLength,sizeof( _CharType ) ) );
; 127  : 			if (ppReallocBuf == NULL)
; 128  : 			{
; 129  : 				AtlThrow( E_OUTOFMEMORY );
; 130  : 			}
; 131  : 			*ppBuff = ppReallocBuf;
; 132  : 		} else
; 133  : 		{
; 134  : 			free(*ppBuff);
; 135  : 			*ppBuff=pszFixedBuffer;
; 136  : 		}
; 137  : 
; 138  : 	} else //Buffer is not currently malloced.
; 139  : 	{
; 140  : 		if( nLength > nFixedBufferLength )

  00037	81 ff 80 00 00
	00		 cmp	 edi, 128		; 00000080H
  0003d	7e 13		 jle	 SHORT $LN33@CA2AEX

; 141  : 		{
; 142  : 			*ppBuff = static_cast< _CharType* >( calloc(nLength,sizeof( _CharType ) ) );

  0003f	6a 01		 push	 1
  00041	57		 push	 edi
  00042	e8 00 00 00 00	 call	 _calloc
  00047	8b d0		 mov	 edx, eax
  00049	83 c4 08	 add	 esp, 8

; 143  : 		} else
; 144  : 		{
; 145  : 			*ppBuff=pszFixedBuffer;
; 146  : 		}
; 147  : 	}
; 148  : 
; 149  : 	if (*ppBuff == NULL)

  0004c	89 16		 mov	 DWORD PTR [esi], edx
  0004e	85 d2		 test	 edx, edx
  00050	74 2c		 je	 SHORT $LN61@CA2AEX
$LN33@CA2AEX:
; File C:\Program Files (x86)\Windows Kits\10\Include\10.0.26100.0\ucrt\corecrt_memcpy_s.h

; 47   :         if (_SourceSize == 0)

  00052	85 ff		 test	 edi, edi
  00054	74 0b		 je	 SHORT $LN40@CA2AEX

; 48   :         {
; 49   :             return 0;
; 50   :         }
; 51   : 
; 52   :         _CRT_MEMCPY_S_VALIDATE_RETURN_ERRCODE(_Destination != NULL, EINVAL);
; 53   :         if (_Source == NULL || _DestinationSize < _SourceSize)
; 54   :         {
; 55   :             memset(_Destination, 0, _DestinationSize);
; 56   : 
; 57   :             _CRT_MEMCPY_S_VALIDATE_RETURN_ERRCODE(_Source != NULL,                 EINVAL);
; 58   :             _CRT_MEMCPY_S_VALIDATE_RETURN_ERRCODE(_DestinationSize >= _SourceSize, ERANGE);
; 59   : 
; 60   :             // Unreachable, but required to suppress /analyze warnings:
; 61   :             return EINVAL;
; 62   :         }
; 63   :         memcpy(_Destination, _Source, _SourceSize);

  00056	57		 push	 edi
  00057	53		 push	 ebx
  00058	52		 push	 edx
  00059	e8 00 00 00 00	 call	 _memcpy
  0005e	83 c4 0c	 add	 esp, 12			; 0000000cH
$LN40@CA2AEX:
; File C:\Program Files\Microsoft Visual Studio\2022\Professional\VC\Tools\MSVC\14.44.35207\atlmfc\include\atlchecked.h

; 73   : 	ATLMFC_CRT_ERRORCHECK(::memcpy_s(_S1, _S1max, _S2, _N));

  00061	6a 00		 push	 0
  00063	e8 00 00 00 00	 call	 ?AfxCrtErrorCheck@@YAHH@Z ; AfxCrtErrorCheck
  00068	83 c4 04	 add	 esp, 4
; File C:\Program Files\Microsoft Visual Studio\2022\Professional\VC\Tools\MSVC\14.44.35207\atlmfc\include\atlconv.h

; 234  : 	}

  0006b	8b c6		 mov	 eax, esi
; File C:\Program Files\Microsoft Visual Studio\2022\Professional\VC\Tools\MSVC\14.44.35207\atlmfc\include\atlchecked.h

; 73   : 	ATLMFC_CRT_ERRORCHECK(::memcpy_s(_S1, _S1max, _S2, _N));

  0006d	5f		 pop	 edi
; File C:\Program Files\Microsoft Visual Studio\2022\Professional\VC\Tools\MSVC\14.44.35207\atlmfc\include\atlconv.h

; 234  : 	}

  0006e	5e		 pop	 esi
  0006f	5b		 pop	 ebx
  00070	5d		 pop	 ebp
  00071	c2 04 00	 ret	 4
$LN49@CA2AEX:

; 119  : 	ATLENSURE_THROW(pszFixedBuffer != NULL, E_INVALIDARG);

  00074	68 57 00 07 80	 push	 -2147024809		; 80070057H
  00079	e8 00 00 00 00	 call	 ?AtlThrowImpl@ATL@@YGXJ@Z ; ATL::AtlThrowImpl
$LN61@CA2AEX:

; 150  : 	{
; 151  : 		AtlThrow( E_OUTOFMEMORY );

  0007e	68 0e 00 07 80	 push	 -2147024882		; 8007000eH
  00083	e8 00 00 00 00	 call	 ?AtlThrowImpl@ATL@@YGXJ@Z ; ATL::AtlThrowImpl
$LN59@CA2AEX:
  00088	cc		 int	 3
??0?$CA2AEX@$0IA@@ATL@@QAE@PBD@Z ENDP			; ATL::CA2AEX<128>::CA2AEX<128>
_TEXT	ENDS
; Function compile flags: /Ogtp
;	COMDAT ??_GCScanner@@UAEPAXI@Z
_TEXT	SEGMENT
___flags$ = 8						; size = 4
??_GCScanner@@UAEPAXI@Z PROC				; CScanner::`scalar deleting destructor', COMDAT
; _this$ = ecx
  00000	55		 push	 ebp
  00001	8b ec		 mov	 ebp, esp
  00003	56		 push	 esi
  00004	8b f1		 mov	 esi, ecx
  00006	e8 00 00 00 00	 call	 ??1CScanner@@UAE@XZ	; CScanner::~CScanner
  0000b	f6 45 08 01	 test	 BYTE PTR ___flags$[ebp], 1
  0000f	74 0e		 je	 SHORT $LN5@scalar
  00011	68 58 08 00 00	 push	 2136			; 00000858H
  00016	56		 push	 esi
  00017	e8 00 00 00 00	 call	 ??3@YAXPAXI@Z		; operator delete
  0001c	83 c4 08	 add	 esp, 8
$LN5@scalar:
  0001f	8b c6		 mov	 eax, esi
  00021	5e		 pop	 esi
  00022	5d		 pop	 ebp
  00023	c2 04 00	 ret	 4
??_GCScanner@@UAEPAXI@Z ENDP				; CScanner::`scalar deleting destructor'
_TEXT	ENDS
; Function compile flags: /Ogtp
; File C:\IAGOS\server\v18\Source\Source\_Common\scanner.cpp
;	COMDAT ?GetSerialNumber@CScanner@@QAEKH@Z
_TEXT	SEGMENT
_bComma$ = 8						; size = 4
?GetSerialNumber@CScanner@@QAEKH@Z PROC			; CScanner::GetSerialNumber, COMDAT
; _this$ = ecx

; 1001 : {

  00000	55		 push	 ebp
  00001	8b ec		 mov	 ebp, esp

; 1003 : }

  00003	5d		 pop	 ebp

; 1002 : 	return GetNumber( bComma );

  00004	e9 00 00 00 00	 jmp	 ?GetNumber@CScanner@@QAEHH@Z ; CScanner::GetNumber
?GetSerialNumber@CScanner@@QAEKH@Z ENDP			; CScanner::GetSerialNumber
_TEXT	ENDS
; Function compile flags: /Ogtp
; File C:\IAGOS\server\v18\Source\Source\_Common\scanner.cpp
; File C:\Program Files\Microsoft Visual Studio\2022\Professional\VC\Tools\MSVC\14.44.35207\atlmfc\include\atlsimpstr.h
; File C:\IAGOS\server\v18\Source\Source\_Common\scanner.cpp
; File C:\Program Files\Microsoft Visual Studio\2022\Professional\VC\Tools\MSVC\14.44.35207\atlmfc\include\atlsimpstr.h
; File C:\IAGOS\server\v18\Source\Source\_Common\scanner.cpp
; File C:\Program Files\Microsoft Visual Studio\2022\Professional\VC\Tools\MSVC\14.44.35207\atlmfc\include\atlsimpstr.h
; File C:\IAGOS\server\v18\Source\Source\_Common\scanner.cpp
;	COMDAT ?GetHex@CScanner@@QAEKH@Z
_TEXT	SEGMENT
_dwlNumber$1 = -20					; size = 8
tv266 = -12						; size = 4
tv267 = -8						; size = 4
_dwlNumber$2$ = -4					; size = 4
_bComma$ = 8						; size = 4
_dwMulCnt$1$ = 8					; size = 4
?GetHex@CScanner@@QAEKH@Z PROC				; CScanner::GetHex, COMDAT
; _this$ = ecx

; 965  : {

  00000	55		 push	 ebp
  00001	8b ec		 mov	 ebp, esp
  00003	83 ec 14	 sub	 esp, 20			; 00000014H
  00006	57		 push	 edi

; 966  : 	m_dwDef = 1;
; 967  : 	if( GetToken( bComma ) == HEX )

  00007	ff 75 08	 push	 DWORD PTR _bComma$[ebp]
  0000a	8b f9		 mov	 edi, ecx
  0000c	8b 07		 mov	 eax, DWORD PTR [edi]
  0000e	c7 47 10 01 00
	00 00		 mov	 DWORD PTR [edi+16], 1
  00015	ff 50 14	 call	 DWORD PTR [eax+20]
  00018	83 f8 04	 cmp	 eax, 4
  0001b	75 7e		 jne	 SHORT $LN5@GetHex

; 968  : 	{
; 969  : 		Token.MakeLower();

  0001d	53		 push	 ebx
  0001e	56		 push	 esi
  0001f	8d 4f 20	 lea	 ecx, DWORD PTR [edi+32]
  00022	e8 00 00 00 00	 call	 ?MakeLower@?$CStringT@DV?$StrTraitMFC@DV?$ChTraitsCRT@D@ATL@@@@@ATL@@QAEAAV12@XZ ; ATL::CStringT<char,StrTraitMFC<char,ATL::ChTraitsCRT<char> > >::MakeLower
; File C:\Program Files\Microsoft Visual Studio\2022\Professional\VC\Tools\MSVC\14.44.35207\atlmfc\include\atlsimpstr.h

; 523  : 		return( GetData()->nDataLength );

  00027	8b 57 20	 mov	 edx, DWORD PTR [edi+32]
  0002a	0f 57 c0	 xorps	 xmm0, xmm0
; File C:\IAGOS\server\v18\Source\Source\_Common\scanner.cpp

; 970  : 		DWORDLONG dwlNumber = 0;

  0002d	66 0f 13 45 ec	 movlpd	 QWORD PTR _dwlNumber$1[ebp], xmm0

; 971  : 		DWORD dwMulCnt = 0;
; 972  : 		CHAR cVal;
; 973  : 		for( int i = Token.GetLength() - 1; i >= 0; i--)

  00032	8b 5d ec	 mov	 ebx, DWORD PTR _dwlNumber$1[ebp]
  00035	c7 45 08 00 00
	00 00		 mov	 DWORD PTR _dwMulCnt$1$[ebp], 0
  0003c	8b 42 f4	 mov	 eax, DWORD PTR [edx-12]
  0003f	89 45 f8	 mov	 DWORD PTR tv267[ebp], eax
  00042	8d 70 ff	 lea	 esi, DWORD PTR [eax-1]
  00045	85 f6		 test	 esi, esi
  00047	78 40		 js	 SHORT $LN3@GetHex
  00049	8b 4d f0	 mov	 ecx, DWORD PTR _dwlNumber$1[ebp+4]
  0004c	89 4d fc	 mov	 DWORD PTR _dwlNumber$2$[ebp], ecx
  0004f	90		 npad	 1
$LL4@GetHex:
; File C:\Program Files\Microsoft Visual Studio\2022\Professional\VC\Tools\MSVC\14.44.35207\atlmfc\include\atlsimpstr.h

; 373  : 		if( (iChar < 0) || (iChar > GetLength()) )

  00050	3b f0		 cmp	 esi, eax
  00052	7f 53		 jg	 SHORT $LN23@GetHex
; File C:\IAGOS\server\v18\Source\Source\_Common\scanner.cpp

; 979  : 			dwlNumber |= (DWORDLONG) cVal << dwMulCnt;

  00054	8a 0c 32	 mov	 cl, BYTE PTR [edx+esi]
  00057	b8 57 00 00 00	 mov	 eax, 87			; 00000057H
  0005c	80 f9 61	 cmp	 cl, 97			; 00000061H
  0005f	ba 30 00 00 00	 mov	 edx, 48			; 00000030H
  00064	0f 4c c2	 cmovl	 eax, edx
  00067	2a c8		 sub	 cl, al
  00069	0f be c1	 movsx	 eax, cl
  0006c	8b 4d 08	 mov	 ecx, DWORD PTR _dwMulCnt$1$[ebp]
  0006f	99		 cdq
  00070	e8 00 00 00 00	 call	 __allshl
  00075	09 55 fc	 or	 DWORD PTR _dwlNumber$2$[ebp], edx
  00078	0b d8		 or	 ebx, eax

; 980  : 			dwMulCnt += 4;

  0007a	83 45 08 04	 add	 DWORD PTR _dwMulCnt$1$[ebp], 4
  0007e	83 ee 01	 sub	 esi, 1
  00081	8b 45 f8	 mov	 eax, DWORD PTR tv267[ebp]
  00084	8b 57 20	 mov	 edx, DWORD PTR [edi+32]
  00087	79 c7		 jns	 SHORT $LL4@GetHex
$LN3@GetHex:

; 981  : 		}
; 982  : 		m_dwDef = 0;
; 983  : 		return (DWORD)dwlNumber;

  00089	5e		 pop	 esi
  0008a	8b c3		 mov	 eax, ebx

; 987  : }

  0008c	c7 47 10 00 00
	00 00		 mov	 DWORD PTR [edi+16], 0
  00093	5b		 pop	 ebx
  00094	5f		 pop	 edi
  00095	8b e5		 mov	 esp, ebp
  00097	5d		 pop	 ebp
  00098	c2 04 00	 ret	 4
$LN5@GetHex:

; 984  : 	}
; 985  : 	m_dwDef = 0;
; 986  : 	return 0;

  0009b	33 c0		 xor	 eax, eax

; 987  : }

  0009d	89 47 10	 mov	 DWORD PTR [edi+16], eax
  000a0	5f		 pop	 edi
  000a1	8b e5		 mov	 esp, ebp
  000a3	5d		 pop	 ebp
  000a4	c2 04 00	 ret	 4
$LN23@GetHex:
; File C:\Program Files\Microsoft Visual Studio\2022\Professional\VC\Tools\MSVC\14.44.35207\atlmfc\include\atlsimpstr.h

; 374  : 			AtlThrow(E_INVALIDARG);

  000a7	68 57 00 07 80	 push	 -2147024809		; 80070057H
  000ac	e8 00 00 00 00	 call	 ?AtlThrowImpl@ATL@@YGXJ@Z ; ATL::AtlThrowImpl
$LN31@GetHex:
  000b1	cc		 int	 3
?GetHex@CScanner@@QAEKH@Z ENDP				; CScanner::GetHex
_TEXT	ENDS
; Function compile flags: /Ogtp
; File C:\IAGOS\server\v18\Source\Source\_Common\scanner.cpp
; File C:\Program Files\Microsoft Visual Studio\2022\Professional\VC\Tools\MSVC\14.44.35207\atlmfc\include\atlsimpstr.h
; File C:\IAGOS\server\v18\Source\Source\_Common\scanner.cpp
; File C:\Program Files\Microsoft Visual Studio\2022\Professional\VC\Tools\MSVC\14.44.35207\atlmfc\include\atlsimpstr.h
; File C:\IAGOS\server\v18\Source\Source\_Common\scanner.cpp
; File C:\Program Files\Microsoft Visual Studio\2022\Professional\VC\Tools\MSVC\14.44.35207\atlmfc\include\atlsimpstr.h
; File C:\IAGOS\server\v18\Source\Source\_Common\scanner.cpp
;	COMDAT ?GetFloat@CScanner@@QAEMH@Z
_TEXT	SEGMENT
tv223 = -8						; size = 8
tv225 = -8						; size = 8
_bComma$ = 8						; size = 4
tv215 = 8						; size = 4
tv221 = 8						; size = 4
?GetFloat@CScanner@@QAEMH@Z PROC			; CScanner::GetFloat, COMDAT
; _this$ = ecx

; 941  : {

  00000	55		 push	 ebp
  00001	8b ec		 mov	 ebp, esp
  00003	83 ec 08	 sub	 esp, 8
  00006	56		 push	 esi
  00007	8b f1		 mov	 esi, ecx
  00009	57		 push	 edi

; 942  : 	m_dwDef = 1;
; 943  : 	GetToken( bComma );

  0000a	8b 7d 08	 mov	 edi, DWORD PTR _bComma$[ebp]
  0000d	57		 push	 edi
  0000e	8b 06		 mov	 eax, DWORD PTR [esi]
  00010	c7 46 10 01 00
	00 00		 mov	 DWORD PTR [esi+16], 1
  00017	ff 50 14	 call	 DWORD PTR [eax+20]
; File C:\Program Files\Microsoft Visual Studio\2022\Professional\VC\Tools\MSVC\14.44.35207\atlmfc\include\atlsimpstr.h

; 523  : 		return( GetData()->nDataLength );

  0001a	8b 4e 20	 mov	 ecx, DWORD PTR [esi+32]

; 537  : 		return( GetLength() == 0 );

  0001d	8b 41 f4	 mov	 eax, DWORD PTR [ecx-12]
  00020	85 c0		 test	 eax, eax
; File C:\IAGOS\server\v18\Source\Source\_Common\scanner.cpp

; 944  : 	if( !Token.IsEmpty() )

  00022	0f 84 90 00 00
	00		 je	 $LN4@GetFloat
; File C:\Program Files\Microsoft Visual Studio\2022\Professional\VC\Tools\MSVC\14.44.35207\atlmfc\include\atlsimpstr.h

; 373  : 		if( (iChar < 0) || (iChar > GetLength()) )

  00028	0f 88 9b 00 00
	00		 js	 $LN32@GetFloat
; File C:\IAGOS\server\v18\Source\Source\_Common\scanner.cpp

; 946  : 		switch( Token[0] )

  0002e	0f be 01	 movsx	 eax, BYTE PTR [ecx]
  00031	83 e8 2b	 sub	 eax, 43			; 0000002bH
  00034	74 5a		 je	 SHORT $LN7@GetFloat
  00036	83 e8 02	 sub	 eax, 2
  00039	74 16		 je	 SHORT $LN6@GetFloat
  0003b	83 e8 10	 sub	 eax, 16			; 00000010H
  0003e	75 58		 jne	 SHORT $LN2@GetFloat

; 947  : 		{
; 948  : 			case '=': 
; 949  : 				m_dwDef = 0;
; 950  : 				return -1;

  00040	d9 05 00 00 00
	00		 fld	 DWORD PTR __real@bf800000
  00046	5f		 pop	 edi

; 963  : }

  00047	89 46 10	 mov	 DWORD PTR [esi+16], eax
  0004a	5e		 pop	 esi
  0004b	8b e5		 mov	 esp, ebp
  0004d	5d		 pop	 ebp
  0004e	c2 04 00	 ret	 4
$LN6@GetFloat:

; 951  : 			case '-': 
; 952  : 				GetToken(bComma);	

  00051	8b 06		 mov	 eax, DWORD PTR [esi]
  00053	8b ce		 mov	 ecx, esi
  00055	57		 push	 edi
  00056	ff 50 14	 call	 DWORD PTR [eax+20]

; 953  : 				m_dwDef = 0;
; 954  : 				return (FLOAT)-atof(Token);

  00059	ff 76 20	 push	 DWORD PTR [esi+32]
  0005c	c7 46 10 00 00
	00 00		 mov	 DWORD PTR [esi+16], 0
  00063	e8 00 00 00 00	 call	 _atof
  00068	dd 5d f8	 fstp	 QWORD PTR tv225[ebp]
  0006b	f2 0f 10 45 f8	 movsd	 xmm0, QWORD PTR tv225[ebp]
  00070	83 c4 04	 add	 esp, 4
  00073	0f 57 05 00 00
	00 00		 xorps	 xmm0, QWORD PTR __xmm@80000000000000008000000000000000
  0007a	f2 0f 11 45 f8	 movsd	 QWORD PTR tv223[ebp], xmm0
  0007f	dd 45 f8	 fld	 QWORD PTR tv223[ebp]
  00082	d9 5d 08	 fstp	 DWORD PTR tv221[ebp]
  00085	d9 45 08	 fld	 DWORD PTR tv221[ebp]
  00088	5f		 pop	 edi

; 963  : }

  00089	5e		 pop	 esi
  0008a	8b e5		 mov	 esp, ebp
  0008c	5d		 pop	 ebp
  0008d	c2 04 00	 ret	 4
$LN7@GetFloat:

; 955  : 			case '+':	
; 956  : 				GetToken(bComma);	

  00090	8b 06		 mov	 eax, DWORD PTR [esi]
  00092	8b ce		 mov	 ecx, esi
  00094	57		 push	 edi
  00095	ff 50 14	 call	 DWORD PTR [eax+20]
$LN2@GetFloat:

; 957  : 		}
; 958  : 		m_dwDef = 0;
; 959  : 		return (FLOAT)atof(Token);

  00098	ff 76 20	 push	 DWORD PTR [esi+32]
  0009b	c7 46 10 00 00
	00 00		 mov	 DWORD PTR [esi+16], 0
  000a2	e8 00 00 00 00	 call	 _atof
  000a7	83 c4 04	 add	 esp, 4
  000aa	d9 5d 08	 fstp	 DWORD PTR tv215[ebp]
  000ad	d9 45 08	 fld	 DWORD PTR tv215[ebp]
  000b0	5f		 pop	 edi

; 963  : }

  000b1	5e		 pop	 esi
  000b2	8b e5		 mov	 esp, ebp
  000b4	5d		 pop	 ebp
  000b5	c2 04 00	 ret	 4
$LN4@GetFloat:

; 960  : 	}
; 961  : 	m_dwDef = 0;
; 962  : 	return 0.0f;

  000b8	d9 ee		 fldz
  000ba	5f		 pop	 edi

; 963  : }

  000bb	c7 46 10 00 00
	00 00		 mov	 DWORD PTR [esi+16], 0
  000c2	5e		 pop	 esi
  000c3	8b e5		 mov	 esp, ebp
  000c5	5d		 pop	 ebp
  000c6	c2 04 00	 ret	 4
$LN32@GetFloat:
; File C:\Program Files\Microsoft Visual Studio\2022\Professional\VC\Tools\MSVC\14.44.35207\atlmfc\include\atlsimpstr.h

; 374  : 			AtlThrow(E_INVALIDARG);

  000c9	68 57 00 07 80	 push	 -2147024809		; 80070057H
  000ce	e8 00 00 00 00	 call	 ?AtlThrowImpl@ATL@@YGXJ@Z ; ATL::AtlThrowImpl
$LN29@GetFloat:
  000d3	cc		 int	 3
?GetFloat@CScanner@@QAEMH@Z ENDP			; CScanner::GetFloat
_TEXT	ENDS
; Function compile flags: /Ogtp
; File C:\IAGOS\server\v18\Source\Source\_Common\scanner.cpp
; File C:\Program Files\Microsoft Visual Studio\2022\Professional\VC\Tools\MSVC\14.44.35207\atlmfc\include\atlsimpstr.h
; File C:\IAGOS\server\v18\Source\Source\_Common\scanner.cpp
; File C:\Program Files\Microsoft Visual Studio\2022\Professional\VC\Tools\MSVC\14.44.35207\atlmfc\include\atlsimpstr.h
; File C:\IAGOS\server\v18\Source\Source\_Common\scanner.cpp
; File C:\Program Files\Microsoft Visual Studio\2022\Professional\VC\Tools\MSVC\14.44.35207\atlmfc\include\atlsimpstr.h
; File C:\IAGOS\server\v18\Source\Source\_Common\scanner.cpp
;	COMDAT ?GetInt64@CScanner@@QAE_JH@Z
_TEXT	SEGMENT
_bComma$ = 8						; size = 4
?GetInt64@CScanner@@QAE_JH@Z PROC			; CScanner::GetInt64, COMDAT
; _this$ = ecx

; 905  : {

  00000	55		 push	 ebp
  00001	8b ec		 mov	 ebp, esp
  00003	56		 push	 esi
  00004	8b f1		 mov	 esi, ecx
  00006	57		 push	 edi

; 906  : 	m_dwDef		= 1;
; 907  : 	if( GetToken( bComma ) == HEX )

  00007	8b 7d 08	 mov	 edi, DWORD PTR _bComma$[ebp]
  0000a	57		 push	 edi
  0000b	8b 06		 mov	 eax, DWORD PTR [esi]
  0000d	c7 46 10 01 00
	00 00		 mov	 DWORD PTR [esi+16], 1
  00014	ff 50 14	 call	 DWORD PTR [eax+20]
  00017	83 f8 04	 cmp	 eax, 4
  0001a	0f 84 94 00 00
	00		 je	 $LN6@GetInt64
; File C:\Program Files\Microsoft Visual Studio\2022\Professional\VC\Tools\MSVC\14.44.35207\atlmfc\include\atlsimpstr.h

; 523  : 		return( GetData()->nDataLength );

  00020	8b 4e 20	 mov	 ecx, DWORD PTR [esi+32]

; 537  : 		return( GetLength() == 0 );

  00023	8b 41 f4	 mov	 eax, DWORD PTR [ecx-12]
  00026	85 c0		 test	 eax, eax
; File C:\IAGOS\server\v18\Source\Source\_Common\scanner.cpp

; 910  : 	else if( !Token.IsEmpty() )

  00028	0f 84 86 00 00
	00		 je	 $LN6@GetInt64
; File C:\Program Files\Microsoft Visual Studio\2022\Professional\VC\Tools\MSVC\14.44.35207\atlmfc\include\atlsimpstr.h

; 373  : 		if( (iChar < 0) || (iChar > GetLength()) )

  0002e	0f 88 8d 00 00
	00		 js	 $LN40@GetInt64
; File C:\IAGOS\server\v18\Source\Source\_Common\scanner.cpp

; 912  : 		switch( Token[0] )

  00034	0f be 01	 movsx	 eax, BYTE PTR [ecx]
  00037	83 e8 2b	 sub	 eax, 43			; 0000002bH
  0003a	74 54		 je	 SHORT $LN10@GetInt64
  0003c	83 e8 02	 sub	 eax, 2
  0003f	74 13		 je	 SHORT $LN8@GetInt64
  00041	83 e8 10	 sub	 eax, 16			; 00000010H
  00044	75 56		 jne	 SHORT $LN12@GetInt64

; 913  : 		{
; 914  : 			case '=': 
; 915  : 				m_dwDef = 0;
; 916  : 				return NULL_ID;

  00046	83 c8 ff	 or	 eax, -1

; 938  : }

  00049	33 d2		 xor	 edx, edx
  0004b	5f		 pop	 edi
  0004c	89 56 10	 mov	 DWORD PTR [esi+16], edx
  0004f	5e		 pop	 esi
  00050	5d		 pop	 ebp
  00051	c2 04 00	 ret	 4
$LN8@GetInt64:

; 917  : 			case '-': 
; 918  : 				if( bComma == FALSE )

  00054	85 ff		 test	 edi, edi
  00056	75 22		 jne	 SHORT $LN9@GetInt64

; 919  : 				{
; 920  : 					GetToken();	

  00058	8b 06		 mov	 eax, DWORD PTR [esi]
  0005a	8b ce		 mov	 ecx, esi
  0005c	57		 push	 edi
  0005d	ff 50 14	 call	 DWORD PTR [eax+20]

; 921  : 					m_dwDef = 0;
; 922  : 					return -_atoi64( Token );

  00060	ff 76 20	 push	 DWORD PTR [esi+32]
  00063	89 7e 10	 mov	 DWORD PTR [esi+16], edi
  00066	e8 00 00 00 00	 call	 __atoi64
  0006b	83 c4 04	 add	 esp, 4
  0006e	f7 d8		 neg	 eax
  00070	13 d7		 adc	 edx, edi
  00072	f7 da		 neg	 edx
  00074	5f		 pop	 edi

; 938  : }

  00075	5e		 pop	 esi
  00076	5d		 pop	 ebp
  00077	c2 04 00	 ret	 4
$LN9@GetInt64:

; 923  : 				}
; 924  : 				else
; 925  : 				{
; 926  : 					m_dwDef = 0;
; 927  : 					return _atoi64( Token );

  0007a	51		 push	 ecx
  0007b	c7 46 10 00 00
	00 00		 mov	 DWORD PTR [esi+16], 0
  00082	e8 00 00 00 00	 call	 __atoi64
  00087	83 c4 04	 add	 esp, 4
  0008a	5f		 pop	 edi

; 938  : }

  0008b	5e		 pop	 esi
  0008c	5d		 pop	 ebp
  0008d	c2 04 00	 ret	 4
$LN10@GetInt64:

; 928  : 				}
; 929  : 			case '+':	
; 930  : 				if( bComma == FALSE )

  00090	85 ff		 test	 edi, edi
  00092	75 08		 jne	 SHORT $LN12@GetInt64

; 931  : 					GetToken();	

  00094	8b 06		 mov	 eax, DWORD PTR [esi]
  00096	8b ce		 mov	 ecx, esi
  00098	57		 push	 edi
  00099	ff 50 14	 call	 DWORD PTR [eax+20]
$LN12@GetInt64:

; 932  : 		}
; 933  : 		m_dwDef = 0;
; 934  : 		return _atoi64( Token );

  0009c	ff 76 20	 push	 DWORD PTR [esi+32]
  0009f	c7 46 10 00 00
	00 00		 mov	 DWORD PTR [esi+16], 0
  000a6	e8 00 00 00 00	 call	 __atoi64
  000ab	83 c4 04	 add	 esp, 4
  000ae	5f		 pop	 edi

; 938  : }

  000af	5e		 pop	 esi
  000b0	5d		 pop	 ebp
  000b1	c2 04 00	 ret	 4
$LN6@GetInt64:

; 935  : 	}
; 936  : 	m_dwDef = 0;
; 937  : 	return (__int64)0;

  000b4	33 c0		 xor	 eax, eax

; 938  : }

  000b6	33 d2		 xor	 edx, edx
  000b8	5f		 pop	 edi
  000b9	89 56 10	 mov	 DWORD PTR [esi+16], edx
  000bc	5e		 pop	 esi
  000bd	5d		 pop	 ebp
  000be	c2 04 00	 ret	 4
$LN40@GetInt64:
; File C:\Program Files\Microsoft Visual Studio\2022\Professional\VC\Tools\MSVC\14.44.35207\atlmfc\include\atlsimpstr.h

; 374  : 			AtlThrow(E_INVALIDARG);

  000c1	68 57 00 07 80	 push	 -2147024809		; 80070057H
  000c6	e8 00 00 00 00	 call	 ?AtlThrowImpl@ATL@@YGXJ@Z ; ATL::AtlThrowImpl
$LN37@GetInt64:
  000cb	cc		 int	 3
?GetInt64@CScanner@@QAE_JH@Z ENDP			; CScanner::GetInt64
_TEXT	ENDS
; Function compile flags: /Ogtp
; File C:\IAGOS\server\v18\Source\Source\_Common\scanner.cpp
; File C:\Program Files\Microsoft Visual Studio\2022\Professional\VC\Tools\MSVC\14.44.35207\atlmfc\include\atlsimpstr.h
; File C:\IAGOS\server\v18\Source\Source\_Common\scanner.cpp
; File C:\Program Files\Microsoft Visual Studio\2022\Professional\VC\Tools\MSVC\14.44.35207\atlmfc\include\atlsimpstr.h
; File C:\IAGOS\server\v18\Source\Source\_Common\scanner.cpp
; File C:\Program Files\Microsoft Visual Studio\2022\Professional\VC\Tools\MSVC\14.44.35207\atlmfc\include\atlsimpstr.h
; File C:\IAGOS\server\v18\Source\Source\_Common\scanner.cpp
; File C:\Program Files\Microsoft Visual Studio\2022\Professional\VC\Tools\MSVC\14.44.35207\atlmfc\include\atlsimpstr.h
; File C:\IAGOS\server\v18\Source\Source\_Common\scanner.cpp
; File C:\Program Files\Microsoft Visual Studio\2022\Professional\VC\Tools\MSVC\14.44.35207\atlmfc\include\atlsimpstr.h
; File C:\IAGOS\server\v18\Source\Source\_Common\scanner.cpp
;	COMDAT ?GetNumber@CScanner@@QAEHH@Z
_TEXT	SEGMENT
_dwlNumber$1 = -20					; size = 8
tv379 = -12						; size = 4
tv380 = -8						; size = 4
_dwlNumber$2$ = -4					; size = 4
_bComma$ = 8						; size = 4
_dwMulCnt$1$ = 8					; size = 4
?GetNumber@CScanner@@QAEHH@Z PROC			; CScanner::GetNumber, COMDAT
; _this$ = ecx

; 853  : {

  00000	55		 push	 ebp
  00001	8b ec		 mov	 ebp, esp
  00003	83 ec 14	 sub	 esp, 20			; 00000014H
  00006	53		 push	 ebx

; 854  : 	m_dwDef = 1;
; 855  : 	if( GetToken( bComma ) == HEX )

  00007	8b 5d 08	 mov	 ebx, DWORD PTR _bComma$[ebp]
  0000a	56		 push	 esi
  0000b	8b f1		 mov	 esi, ecx
  0000d	57		 push	 edi
  0000e	53		 push	 ebx
  0000f	8b 06		 mov	 eax, DWORD PTR [esi]
  00011	c7 46 10 01 00
	00 00		 mov	 DWORD PTR [esi+16], 1
  00018	ff 50 14	 call	 DWORD PTR [eax+20]
  0001b	83 f8 04	 cmp	 eax, 4
  0001e	75 7f		 jne	 SHORT $LN7@GetNumber

; 856  : 	{
; 857  : 		Token.MakeLower();

  00020	8d 4e 20	 lea	 ecx, DWORD PTR [esi+32]
  00023	e8 00 00 00 00	 call	 ?MakeLower@?$CStringT@DV?$StrTraitMFC@DV?$ChTraitsCRT@D@ATL@@@@@ATL@@QAEAAV12@XZ ; ATL::CStringT<char,StrTraitMFC<char,ATL::ChTraitsCRT<char> > >::MakeLower
; File C:\Program Files\Microsoft Visual Studio\2022\Professional\VC\Tools\MSVC\14.44.35207\atlmfc\include\atlsimpstr.h

; 523  : 		return( GetData()->nDataLength );

  00028	8b 56 20	 mov	 edx, DWORD PTR [esi+32]
  0002b	0f 57 c0	 xorps	 xmm0, xmm0
; File C:\IAGOS\server\v18\Source\Source\_Common\scanner.cpp

; 858  : 		DWORDLONG dwlNumber = 0;

  0002e	66 0f 13 45 ec	 movlpd	 QWORD PTR _dwlNumber$1[ebp], xmm0

; 859  : 		DWORD dwMulCnt = 0;
; 860  : 		CHAR cVal;
; 861  : 		for( int i = Token.GetLength() - 1; i >= 0; i--)

  00033	8b 5d ec	 mov	 ebx, DWORD PTR _dwlNumber$1[ebp]
  00036	c7 45 08 00 00
	00 00		 mov	 DWORD PTR _dwMulCnt$1$[ebp], 0
  0003d	8b 42 f4	 mov	 eax, DWORD PTR [edx-12]
  00040	89 45 f8	 mov	 DWORD PTR tv380[ebp], eax
  00043	8d 78 ff	 lea	 edi, DWORD PTR [eax-1]
  00046	85 ff		 test	 edi, edi
  00048	78 43		 js	 SHORT $LN3@GetNumber
  0004a	8b 4d f0	 mov	 ecx, DWORD PTR _dwlNumber$1[ebp+4]
  0004d	89 4d fc	 mov	 DWORD PTR _dwlNumber$2$[ebp], ecx
$LL4@GetNumber:
; File C:\Program Files\Microsoft Visual Studio\2022\Professional\VC\Tools\MSVC\14.44.35207\atlmfc\include\atlsimpstr.h

; 373  : 		if( (iChar < 0) || (iChar > GetLength()) )

  00050	3b f8		 cmp	 edi, eax
  00052	0f 8f f3 00 00
	00		 jg	 $LN51@GetNumber
; File C:\IAGOS\server\v18\Source\Source\_Common\scanner.cpp

; 867  : 			dwlNumber |= (DWORDLONG) cVal << dwMulCnt;

  00058	8a 0c 17	 mov	 cl, BYTE PTR [edi+edx]
  0005b	b8 57 00 00 00	 mov	 eax, 87			; 00000057H
  00060	80 f9 61	 cmp	 cl, 97			; 00000061H
  00063	ba 30 00 00 00	 mov	 edx, 48			; 00000030H
  00068	0f 4c c2	 cmovl	 eax, edx
  0006b	2a c8		 sub	 cl, al
  0006d	0f be c1	 movsx	 eax, cl
  00070	8b 4d 08	 mov	 ecx, DWORD PTR _dwMulCnt$1$[ebp]
  00073	99		 cdq
  00074	e8 00 00 00 00	 call	 __allshl
  00079	09 55 fc	 or	 DWORD PTR _dwlNumber$2$[ebp], edx
  0007c	0b d8		 or	 ebx, eax

; 868  : 			dwMulCnt += 4;

  0007e	83 45 08 04	 add	 DWORD PTR _dwMulCnt$1$[ebp], 4
  00082	83 ef 01	 sub	 edi, 1
  00085	8b 45 f8	 mov	 eax, DWORD PTR tv380[ebp]
  00088	8b 56 20	 mov	 edx, DWORD PTR [esi+32]
  0008b	79 c3		 jns	 SHORT $LL4@GetNumber
$LN3@GetNumber:
  0008d	5f		 pop	 edi

; 902  : }

  0008e	c7 46 10 00 00
	00 00		 mov	 DWORD PTR [esi+16], 0
  00095	8b c3		 mov	 eax, ebx
  00097	5e		 pop	 esi
  00098	5b		 pop	 ebx
  00099	8b e5		 mov	 esp, ebp
  0009b	5d		 pop	 ebp
  0009c	c2 04 00	 ret	 4
$LN7@GetNumber:
; File C:\Program Files\Microsoft Visual Studio\2022\Professional\VC\Tools\MSVC\14.44.35207\atlmfc\include\atlsimpstr.h

; 523  : 		return( GetData()->nDataLength );

  0009f	8b 4e 20	 mov	 ecx, DWORD PTR [esi+32]

; 537  : 		return( GetLength() == 0 );

  000a2	8b 41 f4	 mov	 eax, DWORD PTR [ecx-12]
  000a5	85 c0		 test	 eax, eax
; File C:\IAGOS\server\v18\Source\Source\_Common\scanner.cpp

; 874  : 	if(!Token.IsEmpty())

  000a7	0f 84 90 00 00
	00		 je	 $LN11@GetNumber
; File C:\Program Files\Microsoft Visual Studio\2022\Professional\VC\Tools\MSVC\14.44.35207\atlmfc\include\atlsimpstr.h

; 373  : 		if( (iChar < 0) || (iChar > GetLength()) )

  000ad	0f 88 98 00 00
	00		 js	 $LN51@GetNumber
; File C:\IAGOS\server\v18\Source\Source\_Common\scanner.cpp

; 876  : 		switch(Token[0])

  000b3	0f be 01	 movsx	 eax, BYTE PTR [ecx]
  000b6	83 e8 2b	 sub	 eax, 43			; 0000002bH
  000b9	74 5b		 je	 SHORT $LN15@GetNumber
  000bb	83 e8 02	 sub	 eax, 2
  000be	74 18		 je	 SHORT $LN13@GetNumber
  000c0	83 e8 10	 sub	 eax, 16			; 00000010H
  000c3	75 5d		 jne	 SHORT $LN17@GetNumber

; 902  : }

  000c5	5f		 pop	 edi
  000c6	c7 46 10 00 00
	00 00		 mov	 DWORD PTR [esi+16], 0
  000cd	83 c8 ff	 or	 eax, -1
  000d0	5e		 pop	 esi
  000d1	5b		 pop	 ebx
  000d2	8b e5		 mov	 esp, ebp
  000d4	5d		 pop	 ebp
  000d5	c2 04 00	 ret	 4
$LN13@GetNumber:

; 877  : 		{
; 878  : 			case '=': 
; 879  : 				m_dwDef = 0;
; 880  : 				return NULL_ID;
; 881  : 			case '-': 
; 882  : 				if( bComma == FALSE )

  000d8	85 db		 test	 ebx, ebx
  000da	75 21		 jne	 SHORT $LN14@GetNumber

; 883  : 				{
; 884  : 					GetToken();	

  000dc	8b 06		 mov	 eax, DWORD PTR [esi]
  000de	8b ce		 mov	 ecx, esi
  000e0	53		 push	 ebx
  000e1	ff 50 14	 call	 DWORD PTR [eax+20]

; 885  : 					m_dwDef = 0;
; 886  : 					return -atoi(Token);

  000e4	ff 76 20	 push	 DWORD PTR [esi+32]
  000e7	89 5e 10	 mov	 DWORD PTR [esi+16], ebx
  000ea	e8 00 00 00 00	 call	 _atoi
  000ef	83 c4 04	 add	 esp, 4
  000f2	f7 d8		 neg	 eax
  000f4	5f		 pop	 edi

; 902  : }

  000f5	5e		 pop	 esi
  000f6	5b		 pop	 ebx
  000f7	8b e5		 mov	 esp, ebp
  000f9	5d		 pop	 ebp
  000fa	c2 04 00	 ret	 4
$LN14@GetNumber:

; 887  : 				}
; 888  : 				else
; 889  : 				{
; 890  : 					m_dwDef = 0;
; 891  : 					return atoi(Token);

  000fd	51		 push	 ecx
  000fe	c7 46 10 00 00
	00 00		 mov	 DWORD PTR [esi+16], 0
  00105	e8 00 00 00 00	 call	 _atoi
  0010a	83 c4 04	 add	 esp, 4
  0010d	5f		 pop	 edi

; 902  : }

  0010e	5e		 pop	 esi
  0010f	5b		 pop	 ebx
  00110	8b e5		 mov	 esp, ebp
  00112	5d		 pop	 ebp
  00113	c2 04 00	 ret	 4
$LN15@GetNumber:

; 892  : 				}
; 893  : 			case '+':	
; 894  : 				if( bComma == FALSE )

  00116	85 db		 test	 ebx, ebx
  00118	75 08		 jne	 SHORT $LN17@GetNumber

; 895  : 					GetToken();	

  0011a	8b 06		 mov	 eax, DWORD PTR [esi]
  0011c	8b ce		 mov	 ecx, esi
  0011e	53		 push	 ebx
  0011f	ff 50 14	 call	 DWORD PTR [eax+20]
$LN17@GetNumber:

; 896  : 		}
; 897  : 		m_dwDef = 0;
; 898  : 		return atoi(Token);

  00122	ff 76 20	 push	 DWORD PTR [esi+32]
  00125	c7 46 10 00 00
	00 00		 mov	 DWORD PTR [esi+16], 0
  0012c	e8 00 00 00 00	 call	 _atoi
  00131	83 c4 04	 add	 esp, 4
  00134	5f		 pop	 edi

; 902  : }

  00135	5e		 pop	 esi
  00136	5b		 pop	 ebx
  00137	8b e5		 mov	 esp, ebp
  00139	5d		 pop	 ebp
  0013a	c2 04 00	 ret	 4
$LN11@GetNumber:

; 899  : 	}
; 900  : 	m_dwDef = 0;
; 901  : 	return 0;

  0013d	33 c0		 xor	 eax, eax
  0013f	5f		 pop	 edi

; 902  : }

  00140	89 46 10	 mov	 DWORD PTR [esi+16], eax
  00143	5e		 pop	 esi
  00144	5b		 pop	 ebx
  00145	8b e5		 mov	 esp, ebp
  00147	5d		 pop	 ebp
  00148	c2 04 00	 ret	 4
$LN51@GetNumber:
; File C:\Program Files\Microsoft Visual Studio\2022\Professional\VC\Tools\MSVC\14.44.35207\atlmfc\include\atlsimpstr.h

; 374  : 			AtlThrow(E_INVALIDARG);

  0014b	68 57 00 07 80	 push	 -2147024809		; 80070057H
  00150	e8 00 00 00 00	 call	 ?AtlThrowImpl@ATL@@YGXJ@Z ; ATL::AtlThrowImpl
$LN62@GetNumber:
  00155	cc		 int	 3
?GetNumber@CScanner@@QAEHH@Z ENDP			; CScanner::GetNumber
_TEXT	ENDS
; Function compile flags: /Ogtp
; File C:\IAGOS\server\v18\Source\Source\_Common\scanner.cpp
;	COMDAT ?SetProg@CScanner@@QAEXPAX@Z
_TEXT	SEGMENT
_pProg$ = 8						; size = 4
?SetProg@CScanner@@QAEXPAX@Z PROC			; CScanner::SetProg, COMDAT
; _this$ = ecx

; 532  : {

  00000	55		 push	 ebp
  00001	8b ec		 mov	 ebp, esp

; 533  : 	m_bMemFlag = 1; m_pProg = m_pBuf = (CHAR*)pProg;

  00003	8b 45 08	 mov	 eax, DWORD PTR _pProg$[ebp]
  00006	c6 41 08 01	 mov	 BYTE PTR [ecx+8], 1
  0000a	89 41 1c	 mov	 DWORD PTR [ecx+28], eax
  0000d	89 41 18	 mov	 DWORD PTR [ecx+24], eax

; 534  : }

  00010	5d		 pop	 ebp
  00011	c2 04 00	 ret	 4
?SetProg@CScanner@@QAEXPAX@Z ENDP			; CScanner::SetProg
_TEXT	ENDS
; Function compile flags: /Ogtp
; File C:\IAGOS\server\v18\Source\Source\_Common\scanner.cpp
; File C:\IAGOS\server\v18\Source\Source\_Common\file.h
; File C:\IAGOS\server\v18\Source\Source\_Common\scanner.cpp
; File C:\Program Files\Microsoft Visual Studio\2022\Professional\VC\Tools\MSVC\14.44.35207\atlmfc\include\afxstr.h
; File C:\Program Files\Microsoft Visual Studio\2022\Professional\VC\Tools\MSVC\14.44.35207\atlmfc\include\atlsimpstr.h
; File C:\Program Files\Microsoft Visual Studio\2022\Professional\VC\Tools\MSVC\14.44.35207\atlmfc\include\cstringt.h
; File C:\Program Files\Microsoft Visual Studio\2022\Professional\VC\Tools\MSVC\14.44.35207\atlmfc\include\atlsimpstr.h
; File C:\IAGOS\server\v18\Source\Source\_Common\scanner.cpp
; File C:\Program Files\Microsoft Visual Studio\2022\Professional\VC\Tools\MSVC\14.44.35207\atlmfc\include\atlsimpstr.h
; File C:\IAGOS\server\v18\Source\Source\_Common\scanner.cpp
; File C:\Program Files\Microsoft Visual Studio\2022\Professional\VC\Tools\MSVC\14.44.35207\atlmfc\include\atlsimpstr.h
; File C:\IAGOS\server\v18\Source\Source\_Common\scanner.cpp
; File C:\Program Files\Microsoft Visual Studio\2022\Professional\VC\Tools\MSVC\14.44.35207\atlmfc\include\atlsimpstr.h
; File C:\IAGOS\server\v18\Source\Source\_Common\file.h
; File C:\IAGOS\server\v18\Source\Source\_Common\scanner.cpp
; File C:\Program Files\Microsoft Visual Studio\2022\Professional\VC\Tools\MSVC\14.44.35207\atlmfc\include\atlsimpstr.h
; File C:\IAGOS\server\v18\Source\Source\_Common\scanner.cpp
;	COMDAT ?Load_FileIO@CScanner@@QAEHPBDH@Z
_TEXT	SEGMENT
_file$ = -24						; size = 8
_fileName$ = -16					; size = 4
__$EHRec$ = -12						; size = 12
_lpszFileName$ = 8					; size = 4
_bMultiByte$ = 12					; size = 4
?Load_FileIO@CScanner@@QAEHPBDH@Z PROC			; CScanner::Load_FileIO, COMDAT
; _this$ = ecx

; 521  : {

  00000	55		 push	 ebp
  00001	8b ec		 mov	 ebp, esp
  00003	6a ff		 push	 -1
  00005	68 00 00 00 00	 push	 __ehhandler$?Load_FileIO@CScanner@@QAEHPBDH@Z
  0000a	64 a1 00 00 00
	00		 mov	 eax, DWORD PTR fs:0
  00010	50		 push	 eax
  00011	83 ec 0c	 sub	 esp, 12			; 0000000cH
  00014	53		 push	 ebx
  00015	56		 push	 esi
  00016	57		 push	 edi
  00017	a1 00 00 00 00	 mov	 eax, DWORD PTR ___security_cookie
  0001c	33 c5		 xor	 eax, ebp
  0001e	50		 push	 eax
  0001f	8d 45 f4	 lea	 eax, DWORD PTR __$EHRec$[ebp]
  00022	64 a3 00 00 00
	00		 mov	 DWORD PTR fs:0, eax
  00028	8b d9		 mov	 ebx, ecx
; File C:\IAGOS\server\v18\Source\Source\_Common\file.h

; 15   : 	CFileIO() { fp = NULL; } 

  0002a	c7 45 e8 00 00
	00 00		 mov	 DWORD PTR _file$[ebp], OFFSET ??_7CFileIO@@6B@
  00031	c7 45 ec 00 00
	00 00		 mov	 DWORD PTR _file$[ebp+4], 0
; File C:\IAGOS\server\v18\Source\Source\_Common\scanner.cpp

; 522  : 	CFileIO file;

  00038	c7 45 fc 00 00
	00 00		 mov	 DWORD PTR __$EHRec$[ebp+8], 0
; File C:\Program Files\Microsoft Visual Studio\2022\Professional\VC\Tools\MSVC\14.44.35207\atlmfc\include\afxstr.h

; 56   : 		return( AfxGetStringManager() );

  0003f	e8 00 00 00 00	 call	 ?AfxGetStringManager@@YGPAUIAtlStringMgr@ATL@@XZ ; AfxGetStringManager
  00044	8b c8		 mov	 ecx, eax
; File C:\Program Files\Microsoft Visual Studio\2022\Professional\VC\Tools\MSVC\14.44.35207\atlmfc\include\atlsimpstr.h

; 209  : 		ATLENSURE( pStringMgr != NULL );

  00046	85 c9		 test	 ecx, ecx
  00048	0f 84 e9 00 00
	00		 je	 $LN74@Load_FileI

; 210  : 		CStringData* pData = pStringMgr->GetNilString();

  0004e	8b 01		 mov	 eax, DWORD PTR [ecx]
  00050	ff 50 0c	 call	 DWORD PTR [eax+12]

; 211  : 		Attach( pData );

  00053	83 c0 10	 add	 eax, 16			; 00000010H
  00056	89 45 f0	 mov	 DWORD PTR _fileName$[ebp], eax
; File C:\Program Files\Microsoft Visual Studio\2022\Professional\VC\Tools\MSVC\14.44.35207\atlmfc\include\cstringt.h

; 2712 : 		if( (pv != NULL) && IS_INTRESOURCE( pv ) )

  00059	8b 75 08	 mov	 esi, DWORD PTR _lpszFileName$[ebp]

; 1052 : 		CThisSimpleString( StringTraits::GetDefaultManager() )

  0005c	c6 45 fc 01	 mov	 BYTE PTR __$EHRec$[ebp+8], 1

; 2712 : 		if( (pv != NULL) && IS_INTRESOURCE( pv ) )

  00060	85 f6		 test	 esi, esi
  00062	74 27		 je	 SHORT $LN68@Load_FileI
  00064	f7 c6 00 00 ff
	ff		 test	 esi, -65536		; ffff0000H
  0006a	75 0e		 jne	 SHORT $LN36@Load_FileI

; 2713 : 		{
; 2714 : 			UINT nID = LOWORD( reinterpret_cast< DWORD_PTR >( pv ) );

  0006c	0f b7 c6	 movzx	 eax, si

; 2715 : 			(nID);
; 2716 : #ifdef _ATL_USE_WINAPI_FAMILY_DESKTOP_APP
; 2717 : 			if( !LoadString( nID ) )

  0006f	8d 4d f0	 lea	 ecx, DWORD PTR _fileName$[ebp]
  00072	50		 push	 eax
  00073	e8 00 00 00 00	 call	 ?LoadStringA@?$CStringT@DV?$StrTraitMFC@DV?$ChTraitsCRT@D@ATL@@@@@ATL@@QAEHI@Z ; ATL::CStringT<char,StrTraitMFC<char,ATL::ChTraitsCRT<char> > >::LoadStringA

; 1054 : 		if( !CheckImplicitLoad( pszSrc ) )

  00078	eb 1d		 jmp	 SHORT $LN10@Load_FileI
$LN36@Load_FileI:
; File C:\Program Files\Microsoft Visual Studio\2022\Professional\VC\Tools\MSVC\14.44.35207\atlmfc\include\atlsimpstr.h

; 730  : 		return( int( strlen( psz ) ) );

  0007a	8b ce		 mov	 ecx, esi
  0007c	8d 51 01	 lea	 edx, DWORD PTR [ecx+1]
  0007f	90		 npad	 1
$LL69@Load_FileI:
  00080	8a 01		 mov	 al, BYTE PTR [ecx]
  00082	41		 inc	 ecx
  00083	84 c0		 test	 al, al
  00085	75 f9		 jne	 SHORT $LL69@Load_FileI
  00087	2b ca		 sub	 ecx, edx
  00089	eb 02		 jmp	 SHORT $LN35@Load_FileI
$LN68@Load_FileI:

; 727  : 		{
; 728  : 			return( 0 );

  0008b	33 c9		 xor	 ecx, ecx
$LN35@Load_FileI:

; 606  : 		SetString( pszSrc, StringLength( pszSrc ) );

  0008d	51		 push	 ecx
  0008e	56		 push	 esi
  0008f	8d 4d f0	 lea	 ecx, DWORD PTR _fileName$[ebp]
  00092	e8 00 00 00 00	 call	 ?SetString@?$CSimpleStringT@D$0A@@ATL@@QAEXPBDH@Z ; ATL::CSimpleStringT<char,0>::SetString
$LN10@Load_FileI:
; File C:\IAGOS\server\v18\Source\Source\_Common\scanner.cpp

; 524  : 	fileName.MakeLower();

  00097	8d 4d f0	 lea	 ecx, DWORD PTR _fileName$[ebp]
  0009a	c6 45 fc 02	 mov	 BYTE PTR __$EHRec$[ebp+8], 2
  0009e	e8 00 00 00 00	 call	 ?MakeLower@?$CStringT@DV?$StrTraitMFC@DV?$ChTraitsCRT@D@ATL@@@@@ATL@@QAEAAV12@XZ ; ATL::CStringT<char,StrTraitMFC<char,ATL::ChTraitsCRT<char> > >::MakeLower

; 525  : 	if( !file.Open(lpszFileName, "rb" ) ) 

  000a3	68 00 00 00 00	 push	 OFFSET ??_C@_02JDPG@rb@
  000a8	56		 push	 esi
  000a9	8d 4d e8	 lea	 ecx, DWORD PTR _file$[ebp]
  000ac	e8 00 00 00 00	 call	 ?Open@CFileIO@@UAEHPBDPAD@Z ; CFileIO::Open
  000b1	85 c0		 test	 eax, eax
  000b3	75 04		 jne	 SHORT $LN2@Load_FileI
  000b5	33 f6		 xor	 esi, esi
  000b7	eb 33		 jmp	 SHORT $LN6@Load_FileI
$LN2@Load_FileI:
; File C:\Program Files\Microsoft Visual Studio\2022\Professional\VC\Tools\MSVC\14.44.35207\atlmfc\include\atlsimpstr.h

; 726  : 		if( psz == NULL )

  000b9	85 f6		 test	 esi, esi
  000bb	75 04		 jne	 SHORT $LN51@Load_FileI

; 727  : 		{
; 728  : 			return( 0 );

  000bd	33 c9		 xor	 ecx, ecx
  000bf	eb 0e		 jmp	 SHORT $LN50@Load_FileI
$LN51@Load_FileI:

; 730  : 		return( int( strlen( psz ) ) );

  000c1	8b ce		 mov	 ecx, esi
  000c3	8d 51 01	 lea	 edx, DWORD PTR [ecx+1]
$LL70@Load_FileI:
  000c6	8a 01		 mov	 al, BYTE PTR [ecx]
  000c8	41		 inc	 ecx
  000c9	84 c0		 test	 al, al
  000cb	75 f9		 jne	 SHORT $LL70@Load_FileI
  000cd	2b ca		 sub	 ecx, edx
$LN50@Load_FileI:

; 606  : 		SetString( pszSrc, StringLength( pszSrc ) );

  000cf	51		 push	 ecx
  000d0	56		 push	 esi
  000d1	8d 8b 50 08 00
	00		 lea	 ecx, DWORD PTR [ebx+2128]
  000d7	e8 00 00 00 00	 call	 ?SetString@?$CSimpleStringT@D$0A@@ATL@@QAEXPBDH@Z ; ATL::CSimpleStringT<char,0>::SetString
; File C:\IAGOS\server\v18\Source\Source\_Common\scanner.cpp

; 528  : 	return Read( &file, bMultiByte );

  000dc	ff 75 0c	 push	 DWORD PTR _bMultiByte$[ebp]
  000df	8d 45 e8	 lea	 eax, DWORD PTR _file$[ebp]
  000e2	8b cb		 mov	 ecx, ebx
  000e4	50		 push	 eax
  000e5	e8 00 00 00 00	 call	 ?Read@CScanner@@IAEHPAVCFileIO@@H@Z ; CScanner::Read
  000ea	8b f0		 mov	 esi, eax
$LN6@Load_FileI:
; File C:\Program Files\Microsoft Visual Studio\2022\Professional\VC\Tools\MSVC\14.44.35207\atlmfc\include\atlsimpstr.h

; 804  : 		return( reinterpret_cast< CStringData* >( m_pszData )-1 );

  000ec	8b 55 f0	 mov	 edx, DWORD PTR _fileName$[ebp]

; 92   : 		if( _InterlockedDecrement( &nRefs ) <= 0 )

  000ef	83 c9 ff	 or	 ecx, -1
; File C:\IAGOS\server\v18\Source\Source\_Common\scanner.cpp

; 528  : 	return Read( &file, bMultiByte );

  000f2	c6 45 fc 00	 mov	 BYTE PTR __$EHRec$[ebp+8], 0
; File C:\Program Files\Microsoft Visual Studio\2022\Professional\VC\Tools\MSVC\14.44.35207\atlmfc\include\atlsimpstr.h

; 804  : 		return( reinterpret_cast< CStringData* >( m_pszData )-1 );

  000f6	83 c2 f0	 add	 edx, -16		; fffffff0H

; 92   : 		if( _InterlockedDecrement( &nRefs ) <= 0 )

  000f9	f0 0f c1 4a 0c	 lock	  xadd	 DWORD PTR [edx+12], ecx
  000fe	49		 dec	 ecx
  000ff	85 c9		 test	 ecx, ecx
  00101	7f 08		 jg	 SHORT $LN60@Load_FileI

; 93   : 		{
; 94   : 			pStringMgr->Free( this );

  00103	8b 0a		 mov	 ecx, DWORD PTR [edx]
  00105	52		 push	 edx
  00106	8b 01		 mov	 eax, DWORD PTR [ecx]
  00108	ff 50 04	 call	 DWORD PTR [eax+4]
$LN60@Load_FileI:
; File C:\IAGOS\server\v18\Source\Source\_Common\file.h

; 17   : 	virtual ~CFileIO() { Close(); }

  0010b	8d 4d e8	 lea	 ecx, DWORD PTR _file$[ebp]
  0010e	c7 45 fc 04 00
	00 00		 mov	 DWORD PTR __$EHRec$[ebp+8], 4
  00115	c7 45 e8 00 00
	00 00		 mov	 DWORD PTR _file$[ebp], OFFSET ??_7CFileIO@@6B@
  0011c	e8 00 00 00 00	 call	 ?Close@CFileIO@@UAEHXZ	; CFileIO::Close
; File C:\IAGOS\server\v18\Source\Source\_Common\scanner.cpp

; 528  : 	return Read( &file, bMultiByte );

  00121	8b c6		 mov	 eax, esi

; 529  : }

  00123	8b 4d f4	 mov	 ecx, DWORD PTR __$EHRec$[ebp]
  00126	64 89 0d 00 00
	00 00		 mov	 DWORD PTR fs:0, ecx
  0012d	59		 pop	 ecx
  0012e	5f		 pop	 edi
  0012f	5e		 pop	 esi
  00130	5b		 pop	 ebx
  00131	8b e5		 mov	 esp, ebp
  00133	5d		 pop	 ebp
  00134	c2 08 00	 ret	 8
$LN74@Load_FileI:
; File C:\Program Files\Microsoft Visual Studio\2022\Professional\VC\Tools\MSVC\14.44.35207\atlmfc\include\atlsimpstr.h

; 209  : 		ATLENSURE( pStringMgr != NULL );

  00137	68 05 40 00 80	 push	 -2147467259		; 80004005H
  0013c	e8 00 00 00 00	 call	 ?AtlThrowImpl@ATL@@YGXJ@Z ; ATL::AtlThrowImpl
$LN72@Load_FileI:
  00141	cc		 int	 3
_TEXT	ENDS
;	COMDAT text$x
text$x	SEGMENT
__unwindfunclet$?Load_FileIO@CScanner@@QAEHPBDH@Z$0:
  00000	8d 4d e8	 lea	 ecx, DWORD PTR _file$[ebp]
  00003	e9 00 00 00 00	 jmp	 ??1CFileIO@@UAE@XZ	; CFileIO::~CFileIO
__unwindfunclet$?Load_FileIO@CScanner@@QAEHPBDH@Z$2:
  00008	8d 4d f0	 lea	 ecx, DWORD PTR _fileName$[ebp]
  0000b	e9 00 00 00 00	 jmp	 ??1?$CSimpleStringT@D$0A@@ATL@@QAE@XZ ; ATL::CSimpleStringT<char,0>::~CSimpleStringT<char,0>
__unwindfunclet$?Load_FileIO@CScanner@@QAEHPBDH@Z$1:
  00010	8d 4d f0	 lea	 ecx, DWORD PTR _fileName$[ebp]
  00013	e9 00 00 00 00	 jmp	 ??1?$CStringT@DV?$StrTraitMFC@DV?$ChTraitsCRT@D@ATL@@@@@ATL@@QAE@XZ ; ATL::CStringT<char,StrTraitMFC<char,ATL::ChTraitsCRT<char> > >::~CStringT<char,StrTraitMFC<char,ATL::ChTraitsCRT<char> > >
  00018	cc		 int	 3
  00019	cc		 int	 3
  0001a	cc		 int	 3
  0001b	cc		 int	 3
  0001c	cc		 int	 3
__ehhandler$?Load_FileIO@CScanner@@QAEHPBDH@Z:
  0001d	90		 npad	 1
  0001e	90		 npad	 1
  0001f	8b 54 24 08	 mov	 edx, DWORD PTR [esp+8]
  00023	8d 42 0c	 lea	 eax, DWORD PTR [edx+12]
  00026	8b 4a e4	 mov	 ecx, DWORD PTR [edx-28]
  00029	33 c8		 xor	 ecx, eax
  0002b	e8 00 00 00 00	 call	 @__security_check_cookie@4
  00030	b8 00 00 00 00	 mov	 eax, OFFSET __ehfuncinfo$?Load_FileIO@CScanner@@QAEHPBDH@Z
  00035	e9 00 00 00 00	 jmp	 ___CxxFrameHandler3
text$x	ENDS
?Load_FileIO@CScanner@@QAEHPBDH@Z ENDP			; CScanner::Load_FileIO
; Function compile flags: /Ogtp
; File C:\IAGOS\server\v18\Source\Source\_Common\scanner.cpp
; File C:\IAGOS\server\v18\Source\Source\_Common\file.h
; File C:\IAGOS\server\v18\Source\Source\_Common\scanner.cpp
; File C:\Program Files\Microsoft Visual Studio\2022\Professional\VC\Tools\MSVC\14.44.35207\atlmfc\include\afxstr.h
; File C:\Program Files\Microsoft Visual Studio\2022\Professional\VC\Tools\MSVC\14.44.35207\atlmfc\include\atlsimpstr.h
; File C:\Program Files\Microsoft Visual Studio\2022\Professional\VC\Tools\MSVC\14.44.35207\atlmfc\include\cstringt.h
; File C:\Program Files\Microsoft Visual Studio\2022\Professional\VC\Tools\MSVC\14.44.35207\atlmfc\include\atlsimpstr.h
; File C:\IAGOS\server\v18\Source\Source\_Common\scanner.cpp
; File C:\Program Files\Microsoft Visual Studio\2022\Professional\VC\Tools\MSVC\14.44.35207\atlmfc\include\atlsimpstr.h
; File C:\IAGOS\server\v18\Source\Source\_Common\scanner.cpp
; File C:\Program Files\Microsoft Visual Studio\2022\Professional\VC\Tools\MSVC\14.44.35207\atlmfc\include\atlsimpstr.h
; File C:\IAGOS\server\v18\Source\Source\_Common\scanner.cpp
; File C:\Program Files\Microsoft Visual Studio\2022\Professional\VC\Tools\MSVC\14.44.35207\atlmfc\include\atlsimpstr.h
; File C:\IAGOS\server\v18\Source\Source\_Common\file.h
; File C:\IAGOS\server\v18\Source\Source\_Common\scanner.cpp
; File C:\Program Files\Microsoft Visual Studio\2022\Professional\VC\Tools\MSVC\14.44.35207\atlmfc\include\atlsimpstr.h
; File C:\IAGOS\server\v18\Source\Source\_Common\scanner.cpp
;	COMDAT ?Load@CScanner@@QAEHPBDH@Z
_TEXT	SEGMENT
_file$ = -24						; size = 8
_fileName$ = -16					; size = 4
__$EHRec$ = -12						; size = 12
_lpszFileName$ = 8					; size = 4
_bMultiByte$ = 12					; size = 4
?Load@CScanner@@QAEHPBDH@Z PROC				; CScanner::Load, COMDAT
; _this$ = ecx

; 509  : {

  00000	55		 push	 ebp
  00001	8b ec		 mov	 ebp, esp
  00003	6a ff		 push	 -1
  00005	68 00 00 00 00	 push	 __ehhandler$?Load@CScanner@@QAEHPBDH@Z
  0000a	64 a1 00 00 00
	00		 mov	 eax, DWORD PTR fs:0
  00010	50		 push	 eax
  00011	83 ec 0c	 sub	 esp, 12			; 0000000cH
  00014	53		 push	 ebx
  00015	56		 push	 esi
  00016	57		 push	 edi
  00017	a1 00 00 00 00	 mov	 eax, DWORD PTR ___security_cookie
  0001c	33 c5		 xor	 eax, ebp
  0001e	50		 push	 eax
  0001f	8d 45 f4	 lea	 eax, DWORD PTR __$EHRec$[ebp]
  00022	64 a3 00 00 00
	00		 mov	 DWORD PTR fs:0, eax
  00028	8b d9		 mov	 ebx, ecx
; File C:\IAGOS\server\v18\Source\Source\_Common\file.h

; 15   : 	CFileIO() { fp = NULL; } 

  0002a	c7 45 e8 00 00
	00 00		 mov	 DWORD PTR _file$[ebp], OFFSET ??_7CFileIO@@6B@
  00031	c7 45 ec 00 00
	00 00		 mov	 DWORD PTR _file$[ebp+4], 0
; File C:\IAGOS\server\v18\Source\Source\_Common\scanner.cpp

; 510  : 	CResFile file; 

  00038	c7 45 fc 00 00
	00 00		 mov	 DWORD PTR __$EHRec$[ebp+8], 0
; File C:\Program Files\Microsoft Visual Studio\2022\Professional\VC\Tools\MSVC\14.44.35207\atlmfc\include\afxstr.h

; 56   : 		return( AfxGetStringManager() );

  0003f	e8 00 00 00 00	 call	 ?AfxGetStringManager@@YGPAUIAtlStringMgr@ATL@@XZ ; AfxGetStringManager
  00044	8b c8		 mov	 ecx, eax
; File C:\Program Files\Microsoft Visual Studio\2022\Professional\VC\Tools\MSVC\14.44.35207\atlmfc\include\atlsimpstr.h

; 209  : 		ATLENSURE( pStringMgr != NULL );

  00046	85 c9		 test	 ecx, ecx
  00048	0f 84 e9 00 00
	00		 je	 $LN74@Load

; 210  : 		CStringData* pData = pStringMgr->GetNilString();

  0004e	8b 01		 mov	 eax, DWORD PTR [ecx]
  00050	ff 50 0c	 call	 DWORD PTR [eax+12]

; 211  : 		Attach( pData );

  00053	83 c0 10	 add	 eax, 16			; 00000010H
  00056	89 45 f0	 mov	 DWORD PTR _fileName$[ebp], eax
; File C:\Program Files\Microsoft Visual Studio\2022\Professional\VC\Tools\MSVC\14.44.35207\atlmfc\include\cstringt.h

; 2712 : 		if( (pv != NULL) && IS_INTRESOURCE( pv ) )

  00059	8b 75 08	 mov	 esi, DWORD PTR _lpszFileName$[ebp]

; 1052 : 		CThisSimpleString( StringTraits::GetDefaultManager() )

  0005c	c6 45 fc 01	 mov	 BYTE PTR __$EHRec$[ebp+8], 1

; 2712 : 		if( (pv != NULL) && IS_INTRESOURCE( pv ) )

  00060	85 f6		 test	 esi, esi
  00062	74 27		 je	 SHORT $LN68@Load
  00064	f7 c6 00 00 ff
	ff		 test	 esi, -65536		; ffff0000H
  0006a	75 0e		 jne	 SHORT $LN36@Load

; 2713 : 		{
; 2714 : 			UINT nID = LOWORD( reinterpret_cast< DWORD_PTR >( pv ) );

  0006c	0f b7 c6	 movzx	 eax, si

; 2715 : 			(nID);
; 2716 : #ifdef _ATL_USE_WINAPI_FAMILY_DESKTOP_APP
; 2717 : 			if( !LoadString( nID ) )

  0006f	8d 4d f0	 lea	 ecx, DWORD PTR _fileName$[ebp]
  00072	50		 push	 eax
  00073	e8 00 00 00 00	 call	 ?LoadStringA@?$CStringT@DV?$StrTraitMFC@DV?$ChTraitsCRT@D@ATL@@@@@ATL@@QAEHI@Z ; ATL::CStringT<char,StrTraitMFC<char,ATL::ChTraitsCRT<char> > >::LoadStringA

; 1054 : 		if( !CheckImplicitLoad( pszSrc ) )

  00078	eb 1d		 jmp	 SHORT $LN10@Load
$LN36@Load:
; File C:\Program Files\Microsoft Visual Studio\2022\Professional\VC\Tools\MSVC\14.44.35207\atlmfc\include\atlsimpstr.h

; 730  : 		return( int( strlen( psz ) ) );

  0007a	8b ce		 mov	 ecx, esi
  0007c	8d 51 01	 lea	 edx, DWORD PTR [ecx+1]
  0007f	90		 npad	 1
$LL69@Load:
  00080	8a 01		 mov	 al, BYTE PTR [ecx]
  00082	41		 inc	 ecx
  00083	84 c0		 test	 al, al
  00085	75 f9		 jne	 SHORT $LL69@Load
  00087	2b ca		 sub	 ecx, edx
  00089	eb 02		 jmp	 SHORT $LN35@Load
$LN68@Load:

; 727  : 		{
; 728  : 			return( 0 );

  0008b	33 c9		 xor	 ecx, ecx
$LN35@Load:

; 606  : 		SetString( pszSrc, StringLength( pszSrc ) );

  0008d	51		 push	 ecx
  0008e	56		 push	 esi
  0008f	8d 4d f0	 lea	 ecx, DWORD PTR _fileName$[ebp]
  00092	e8 00 00 00 00	 call	 ?SetString@?$CSimpleStringT@D$0A@@ATL@@QAEXPBDH@Z ; ATL::CSimpleStringT<char,0>::SetString
$LN10@Load:
; File C:\IAGOS\server\v18\Source\Source\_Common\scanner.cpp

; 512  : 	fileName.MakeLower();

  00097	8d 4d f0	 lea	 ecx, DWORD PTR _fileName$[ebp]
  0009a	c6 45 fc 02	 mov	 BYTE PTR __$EHRec$[ebp+8], 2
  0009e	e8 00 00 00 00	 call	 ?MakeLower@?$CStringT@DV?$StrTraitMFC@DV?$ChTraitsCRT@D@ATL@@@@@ATL@@QAEAAV12@XZ ; ATL::CStringT<char,StrTraitMFC<char,ATL::ChTraitsCRT<char> > >::MakeLower

; 513  : 	if( !file.Open(lpszFileName, "rb" ) ) 

  000a3	68 00 00 00 00	 push	 OFFSET ??_C@_02JDPG@rb@
  000a8	56		 push	 esi
  000a9	8d 4d e8	 lea	 ecx, DWORD PTR _file$[ebp]
  000ac	e8 00 00 00 00	 call	 ?Open@CFileIO@@UAEHPBDPAD@Z ; CFileIO::Open
  000b1	85 c0		 test	 eax, eax
  000b3	75 04		 jne	 SHORT $LN2@Load
  000b5	33 f6		 xor	 esi, esi
  000b7	eb 33		 jmp	 SHORT $LN6@Load
$LN2@Load:
; File C:\Program Files\Microsoft Visual Studio\2022\Professional\VC\Tools\MSVC\14.44.35207\atlmfc\include\atlsimpstr.h

; 726  : 		if( psz == NULL )

  000b9	85 f6		 test	 esi, esi
  000bb	75 04		 jne	 SHORT $LN51@Load

; 727  : 		{
; 728  : 			return( 0 );

  000bd	33 c9		 xor	 ecx, ecx
  000bf	eb 0e		 jmp	 SHORT $LN50@Load
$LN51@Load:

; 730  : 		return( int( strlen( psz ) ) );

  000c1	8b ce		 mov	 ecx, esi
  000c3	8d 51 01	 lea	 edx, DWORD PTR [ecx+1]
$LL70@Load:
  000c6	8a 01		 mov	 al, BYTE PTR [ecx]
  000c8	41		 inc	 ecx
  000c9	84 c0		 test	 al, al
  000cb	75 f9		 jne	 SHORT $LL70@Load
  000cd	2b ca		 sub	 ecx, edx
$LN50@Load:

; 606  : 		SetString( pszSrc, StringLength( pszSrc ) );

  000cf	51		 push	 ecx
  000d0	56		 push	 esi
  000d1	8d 8b 50 08 00
	00		 lea	 ecx, DWORD PTR [ebx+2128]
  000d7	e8 00 00 00 00	 call	 ?SetString@?$CSimpleStringT@D$0A@@ATL@@QAEXPBDH@Z ; ATL::CSimpleStringT<char,0>::SetString
; File C:\IAGOS\server\v18\Source\Source\_Common\scanner.cpp

; 516  : 	return Read( &file, bMultiByte );

  000dc	ff 75 0c	 push	 DWORD PTR _bMultiByte$[ebp]
  000df	8d 45 e8	 lea	 eax, DWORD PTR _file$[ebp]
  000e2	8b cb		 mov	 ecx, ebx
  000e4	50		 push	 eax
  000e5	e8 00 00 00 00	 call	 ?Read@CScanner@@IAEHPAVCFileIO@@H@Z ; CScanner::Read
  000ea	8b f0		 mov	 esi, eax
$LN6@Load:
; File C:\Program Files\Microsoft Visual Studio\2022\Professional\VC\Tools\MSVC\14.44.35207\atlmfc\include\atlsimpstr.h

; 804  : 		return( reinterpret_cast< CStringData* >( m_pszData )-1 );

  000ec	8b 55 f0	 mov	 edx, DWORD PTR _fileName$[ebp]

; 92   : 		if( _InterlockedDecrement( &nRefs ) <= 0 )

  000ef	83 c9 ff	 or	 ecx, -1
; File C:\IAGOS\server\v18\Source\Source\_Common\scanner.cpp

; 516  : 	return Read( &file, bMultiByte );

  000f2	c6 45 fc 00	 mov	 BYTE PTR __$EHRec$[ebp+8], 0
; File C:\Program Files\Microsoft Visual Studio\2022\Professional\VC\Tools\MSVC\14.44.35207\atlmfc\include\atlsimpstr.h

; 804  : 		return( reinterpret_cast< CStringData* >( m_pszData )-1 );

  000f6	83 c2 f0	 add	 edx, -16		; fffffff0H

; 92   : 		if( _InterlockedDecrement( &nRefs ) <= 0 )

  000f9	f0 0f c1 4a 0c	 lock	  xadd	 DWORD PTR [edx+12], ecx
  000fe	49		 dec	 ecx
  000ff	85 c9		 test	 ecx, ecx
  00101	7f 08		 jg	 SHORT $LN60@Load

; 93   : 		{
; 94   : 			pStringMgr->Free( this );

  00103	8b 0a		 mov	 ecx, DWORD PTR [edx]
  00105	52		 push	 edx
  00106	8b 01		 mov	 eax, DWORD PTR [ecx]
  00108	ff 50 04	 call	 DWORD PTR [eax+4]
$LN60@Load:
; File C:\IAGOS\server\v18\Source\Source\_Common\file.h

; 17   : 	virtual ~CFileIO() { Close(); }

  0010b	8d 4d e8	 lea	 ecx, DWORD PTR _file$[ebp]
  0010e	c7 45 fc 04 00
	00 00		 mov	 DWORD PTR __$EHRec$[ebp+8], 4
  00115	c7 45 e8 00 00
	00 00		 mov	 DWORD PTR _file$[ebp], OFFSET ??_7CFileIO@@6B@
  0011c	e8 00 00 00 00	 call	 ?Close@CFileIO@@UAEHXZ	; CFileIO::Close
; File C:\IAGOS\server\v18\Source\Source\_Common\scanner.cpp

; 516  : 	return Read( &file, bMultiByte );

  00121	8b c6		 mov	 eax, esi

; 517  : }

  00123	8b 4d f4	 mov	 ecx, DWORD PTR __$EHRec$[ebp]
  00126	64 89 0d 00 00
	00 00		 mov	 DWORD PTR fs:0, ecx
  0012d	59		 pop	 ecx
  0012e	5f		 pop	 edi
  0012f	5e		 pop	 esi
  00130	5b		 pop	 ebx
  00131	8b e5		 mov	 esp, ebp
  00133	5d		 pop	 ebp
  00134	c2 08 00	 ret	 8
$LN74@Load:
; File C:\Program Files\Microsoft Visual Studio\2022\Professional\VC\Tools\MSVC\14.44.35207\atlmfc\include\atlsimpstr.h

; 209  : 		ATLENSURE( pStringMgr != NULL );

  00137	68 05 40 00 80	 push	 -2147467259		; 80004005H
  0013c	e8 00 00 00 00	 call	 ?AtlThrowImpl@ATL@@YGXJ@Z ; ATL::AtlThrowImpl
$LN72@Load:
  00141	cc		 int	 3
_TEXT	ENDS
;	COMDAT text$x
text$x	SEGMENT
__unwindfunclet$?Load@CScanner@@QAEHPBDH@Z$0:
  00000	8d 4d e8	 lea	 ecx, DWORD PTR _file$[ebp]
  00003	e9 00 00 00 00	 jmp	 ??1CFileIO@@UAE@XZ	; CFileIO::~CFileIO
__unwindfunclet$?Load@CScanner@@QAEHPBDH@Z$2:
  00008	8d 4d f0	 lea	 ecx, DWORD PTR _fileName$[ebp]
  0000b	e9 00 00 00 00	 jmp	 ??1?$CSimpleStringT@D$0A@@ATL@@QAE@XZ ; ATL::CSimpleStringT<char,0>::~CSimpleStringT<char,0>
__unwindfunclet$?Load@CScanner@@QAEHPBDH@Z$1:
  00010	8d 4d f0	 lea	 ecx, DWORD PTR _fileName$[ebp]
  00013	e9 00 00 00 00	 jmp	 ??1?$CStringT@DV?$StrTraitMFC@DV?$ChTraitsCRT@D@ATL@@@@@ATL@@QAE@XZ ; ATL::CStringT<char,StrTraitMFC<char,ATL::ChTraitsCRT<char> > >::~CStringT<char,StrTraitMFC<char,ATL::ChTraitsCRT<char> > >
  00018	cc		 int	 3
  00019	cc		 int	 3
  0001a	cc		 int	 3
  0001b	cc		 int	 3
  0001c	cc		 int	 3
__ehhandler$?Load@CScanner@@QAEHPBDH@Z:
  0001d	90		 npad	 1
  0001e	90		 npad	 1
  0001f	8b 54 24 08	 mov	 edx, DWORD PTR [esp+8]
  00023	8d 42 0c	 lea	 eax, DWORD PTR [edx+12]
  00026	8b 4a e4	 mov	 ecx, DWORD PTR [edx-28]
  00029	33 c8		 xor	 ecx, eax
  0002b	e8 00 00 00 00	 call	 @__security_check_cookie@4
  00030	b8 00 00 00 00	 mov	 eax, OFFSET __ehfuncinfo$?Load@CScanner@@QAEHPBDH@Z
  00035	e9 00 00 00 00	 jmp	 ___CxxFrameHandler3
text$x	ENDS
?Load@CScanner@@QAEHPBDH@Z ENDP				; CScanner::Load
; Function compile flags: /Ogtp
; File C:\IAGOS\server\v18\Source\Source\_Common\scanner.cpp
;	COMDAT ?Free@CScanner@@QAEXXZ
_TEXT	SEGMENT
?Free@CScanner@@QAEXXZ PROC				; CScanner::Free, COMDAT
; _this$ = ecx

; 468  : {

  00000	56		 push	 esi
  00001	8b f1		 mov	 esi, ecx

; 469  : 	if(!m_bMemFlag && m_pBuf) 

  00003	80 7e 08 00	 cmp	 BYTE PTR [esi+8], 0
  00007	75 10		 jne	 SHORT $LN4@Free
  00009	8b 46 1c	 mov	 eax, DWORD PTR [esi+28]
  0000c	85 c0		 test	 eax, eax
  0000e	74 09		 je	 SHORT $LN4@Free

; 470  : 		safe_delete_array( m_pBuf );

  00010	50		 push	 eax
  00011	e8 00 00 00 00	 call	 ??_V@YAXPAX@Z		; operator delete[]
  00016	83 c4 04	 add	 esp, 4
$LN4@Free:

; 471  : 	m_pProg = m_pBuf = 0;
; 472  : }

  00019	c7 46 1c 00 00
	00 00		 mov	 DWORD PTR [esi+28], 0
  00020	c7 46 18 00 00
	00 00		 mov	 DWORD PTR [esi+24], 0
  00027	5e		 pop	 esi
  00028	c3		 ret	 0
?Free@CScanner@@QAEXXZ ENDP				; CScanner::Free
_TEXT	ENDS
; Function compile flags: /Ogtp
; File C:\IAGOS\server\v18\Source\Source\_Common\scanner.cpp
; File C:\Program Files\Microsoft Visual Studio\2022\Professional\VC\Tools\MSVC\14.44.35207\atlmfc\include\atlsimpstr.h
; File C:\IAGOS\server\v18\Source\Source\_Common\scanner.cpp
; File C:\Program Files\Microsoft Visual Studio\2022\Professional\VC\Tools\MSVC\14.44.35207\atlmfc\include\atlsimpstr.h
; File C:\IAGOS\server\v18\Source\Source\_Common\scanner.cpp
;	COMDAT ?GetLastFull@CScanner@@QAEXXZ
_TEXT	SEGMENT
?GetLastFull@CScanner@@QAEXXZ PROC			; CScanner::GetLastFull, COMDAT
; _this$ = ecx

; 551  : {

  00000	53		 push	 ebx
  00001	56		 push	 esi
  00002	8b d9		 mov	 ebx, ecx
  00004	57		 push	 edi
$LL2@GetLastFul:

; 552  : 	// ľŐÂĘ white space¸¦ ˝şĹµ
; 553  : 	while( iswhite( *m_pProg ) && *m_pProg && *m_pProg != '\r' ) 

  00005	8b 7b 18	 mov	 edi, DWORD PTR [ebx+24]
  00008	8a 17		 mov	 dl, BYTE PTR [edi]

; 22   : 	if(c > 0 && c <= 0x20)

  0000a	8d 42 ff	 lea	 eax, DWORD PTR [edx-1]
  0000d	3c 1f		 cmp	 al, 31			; 0000001fH
  0000f	77 11		 ja	 SHORT $LN3@GetLastFul

; 552  : 	// ľŐÂĘ white space¸¦ ˝şĹµ
; 553  : 	while( iswhite( *m_pProg ) && *m_pProg && *m_pProg != '\r' ) 

  00011	84 d2		 test	 dl, dl
  00013	74 0d		 je	 SHORT $LN3@GetLastFul
  00015	80 fa 0d	 cmp	 dl, 13			; 0000000dH
  00018	74 08		 je	 SHORT $LN3@GetLastFul

; 554  : 		++m_pProg;

  0001a	8d 47 01	 lea	 eax, DWORD PTR [edi+1]
  0001d	89 43 18	 mov	 DWORD PTR [ebx+24], eax
  00020	eb e3		 jmp	 SHORT $LL2@GetLastFul
$LN3@GetLastFul:

; 555  : 	
; 556  : 	char* pCur = token; 

  00022	8b 73 3c	 mov	 esi, DWORD PTR [ebx+60]

; 557  : 	while( *m_pProg && *m_pProg!='\r' )

  00025	84 d2		 test	 dl, dl
  00027	74 26		 je	 SHORT $LN38@GetLastFul
  00029	0f 1f 80 00 00
	00 00		 npad	 7
$LL4@GetLastFul:
  00030	80 fa 0d	 cmp	 dl, 13			; 0000000dH
  00033	74 1a		 je	 SHORT $LN38@GetLastFul

; 558  : 	{
; 559  : 		int count = CopyChar( m_pProg, pCur );

  00035	56		 push	 esi
  00036	57		 push	 edi
  00037	e8 00 00 00 00	 call	 ?CopyChar@@YAHPBDPAD@Z	; CopyChar

; 560  : 		m_pProg += count;

  0003c	8b 7b 18	 mov	 edi, DWORD PTR [ebx+24]
  0003f	83 c4 08	 add	 esp, 8
  00042	03 f8		 add	 edi, eax

; 561  : 		pCur += count;

  00044	03 f0		 add	 esi, eax
  00046	89 7b 18	 mov	 DWORD PTR [ebx+24], edi
  00049	8a 17		 mov	 dl, BYTE PTR [edi]
  0004b	84 d2		 test	 dl, dl
  0004d	75 e1		 jne	 SHORT $LL4@GetLastFul
$LN38@GetLastFul:

; 562  : 	}
; 563  : 	// µÚÂĘ white space¸¦ ˝şĹµ
; 564  : 	if( pCur != token )

  0004f	5f		 pop	 edi
  00050	3b 73 3c	 cmp	 esi, DWORD PTR [ebx+60]
  00053	74 10		 je	 SHORT $LN8@GetLastFul
$LN51@GetLastFul:

; 565  : 	{
; 566  : 		--pCur;
; 567  : 		while( iswhite( *pCur ) && *pCur ) 

  00055	8a 4e ff	 mov	 cl, BYTE PTR [esi-1]
  00058	4e		 dec	 esi

; 22   : 	if(c > 0 && c <= 0x20)

  00059	8d 41 ff	 lea	 eax, DWORD PTR [ecx-1]
  0005c	3c 1f		 cmp	 al, 31			; 0000001fH
  0005e	77 04		 ja	 SHORT $LN7@GetLastFul

; 565  : 	{
; 566  : 		--pCur;
; 567  : 		while( iswhite( *pCur ) && *pCur ) 

  00060	84 c9		 test	 cl, cl
  00062	75 f1		 jne	 SHORT $LN51@GetLastFul
$LN7@GetLastFul:

; 568  : 			--pCur;
; 569  : 		++pCur;

  00064	46		 inc	 esi
$LN8@GetLastFul:

; 570  : 	}
; 571  : 	*pCur = '\0';

  00065	c6 06 00	 mov	 BYTE PTR [esi], 0

; 572  : 	Token = token;

  00068	8b 53 3c	 mov	 edx, DWORD PTR [ebx+60]
; File C:\Program Files\Microsoft Visual Studio\2022\Professional\VC\Tools\MSVC\14.44.35207\atlmfc\include\atlsimpstr.h

; 726  : 		if( psz == NULL )

  0006b	85 d2		 test	 edx, edx
  0006d	75 0f		 jne	 SHORT $LN23@GetLastFul

; 727  : 		{
; 728  : 			return( 0 );

  0006f	33 c9		 xor	 ecx, ecx

; 606  : 		SetString( pszSrc, StringLength( pszSrc ) );

  00071	51		 push	 ecx
  00072	52		 push	 edx
  00073	8d 4b 20	 lea	 ecx, DWORD PTR [ebx+32]
  00076	e8 00 00 00 00	 call	 ?SetString@?$CSimpleStringT@D$0A@@ATL@@QAEXPBDH@Z ; ATL::CSimpleStringT<char,0>::SetString
  0007b	5e		 pop	 esi
  0007c	5b		 pop	 ebx
; File C:\IAGOS\server\v18\Source\Source\_Common\scanner.cpp

; 573  : }

  0007d	c3		 ret	 0
$LN23@GetLastFul:
; File C:\Program Files\Microsoft Visual Studio\2022\Professional\VC\Tools\MSVC\14.44.35207\atlmfc\include\atlsimpstr.h

; 730  : 		return( int( strlen( psz ) ) );

  0007e	8b ca		 mov	 ecx, edx
  00080	8d 71 01	 lea	 esi, DWORD PTR [ecx+1]
$LL37@GetLastFul:
  00083	8a 01		 mov	 al, BYTE PTR [ecx]
  00085	41		 inc	 ecx
  00086	84 c0		 test	 al, al
  00088	75 f9		 jne	 SHORT $LL37@GetLastFul
  0008a	2b ce		 sub	 ecx, esi

; 606  : 		SetString( pszSrc, StringLength( pszSrc ) );

  0008c	51		 push	 ecx
  0008d	52		 push	 edx
  0008e	8d 4b 20	 lea	 ecx, DWORD PTR [ebx+32]
  00091	e8 00 00 00 00	 call	 ?SetString@?$CSimpleStringT@D$0A@@ATL@@QAEXPBDH@Z ; ATL::CSimpleStringT<char,0>::SetString
  00096	5e		 pop	 esi
  00097	5b		 pop	 ebx
; File C:\IAGOS\server\v18\Source\Source\_Common\scanner.cpp

; 573  : }

  00098	c3		 ret	 0
?GetLastFull@CScanner@@QAEXXZ ENDP			; CScanner::GetLastFull
_TEXT	ENDS
; Function compile flags: /Ogtp
; File C:\IAGOS\server\v18\Source\Source\_Common\scanner.cpp
; File C:\Program Files\Microsoft Visual Studio\2022\Professional\VC\Tools\MSVC\14.44.35207\atlmfc\include\atlsimpstr.h
; File C:\IAGOS\server\v18\Source\Source\_Common\scanner.cpp
; File C:\IAGOS\server\v18\Source\Source\_Common\vutil.h
; File C:\IAGOS\server\v18\Source\Source\_Common\scanner.cpp
; File C:\IAGOS\server\v18\Source\Source\_Common\vutil.h
; File C:\IAGOS\server\v18\Source\Source\_Common\scanner.cpp
; File C:\Program Files\Microsoft Visual Studio\2022\Professional\VC\Tools\MSVC\14.44.35207\atlmfc\include\atlsimpstr.h
; File C:\IAGOS\server\v18\Source\Source\_Common\scanner.cpp
;	COMDAT ?GetToken@CScanner@@UAEHH@Z
_TEXT	SEGMENT
tv2290 = -20						; size = 4
_pszCur$1$ = -16					; size = 4
__$EHRec$ = -12						; size = 12
_bComma$ = 8						; size = 4
_string$2 = 8						; size = 4
?GetToken@CScanner@@UAEHH@Z PROC			; CScanner::GetToken, COMDAT
; _this$ = ecx

; 576  : {

  00000	55		 push	 ebp
  00001	8b ec		 mov	 ebp, esp
  00003	6a ff		 push	 -1
  00005	68 00 00 00 00	 push	 __ehhandler$?GetToken@CScanner@@UAEHH@Z
  0000a	64 a1 00 00 00
	00		 mov	 eax, DWORD PTR fs:0
  00010	50		 push	 eax
  00011	83 ec 08	 sub	 esp, 8
  00014	53		 push	 ebx
  00015	56		 push	 esi
  00016	57		 push	 edi
  00017	a1 00 00 00 00	 mov	 eax, DWORD PTR ___security_cookie
  0001c	33 c5		 xor	 eax, ebp
  0001e	50		 push	 eax
  0001f	8d 45 f4	 lea	 eax, DWORD PTR __$EHRec$[ebp]
  00022	64 a3 00 00 00
	00		 mov	 DWORD PTR fs:0, eax
  00028	8b f1		 mov	 esi, ecx

; 577  : 	char* pszCur = m_mszToken; 

  0002a	8d 46 40	 lea	 eax, DWORD PTR [esi+64]

; 578  : 	*pszCur = '\0';

  0002d	c6 00 00	 mov	 BYTE PTR [eax], 0
  00030	89 45 f0	 mov	 DWORD PTR _pszCur$1$[ebp], eax
  00033	89 45 ec	 mov	 DWORD PTR tv2290[ebp], eax

; 579  : 	tokenType = TEMP; 

  00036	c7 86 40 08 00
	00 00 00 00 00	 mov	 DWORD PTR [esi+2112], 0

; 580  : 	tok = NONE_;

  00040	c7 86 44 08 00
	00 00 00 00 00	 mov	 DWORD PTR [esi+2116], 0

; 581  : 	m_nDoubleOps = 0;

  0004a	c7 86 48 08 00
	00 00 00 00 00	 mov	 DWORD PTR [esi+2120], 0
$LL4@GetToken:

; 582  : 
; 583  : 	BOOL bLoop;
; 584  : 	do
; 585  : 	{
; 586  : 		bLoop = FALSE;

  00054	33 ff		 xor	 edi, edi
$LL5@GetToken:

; 587  : 		
; 588  : 		while( iswhite( *m_pProg ) && *m_pProg ) // white space¸¦ ˝şĹµ

  00056	8b 4e 18	 mov	 ecx, DWORD PTR [esi+24]
  00059	8a 11		 mov	 dl, BYTE PTR [ecx]

; 22   : 	if(c > 0 && c <= 0x20)

  0005b	8d 42 ff	 lea	 eax, DWORD PTR [edx-1]
  0005e	3c 1f		 cmp	 al, 31			; 0000001fH
  00060	77 0c		 ja	 SHORT $LN133@GetToken

; 587  : 		
; 588  : 		while( iswhite( *m_pProg ) && *m_pProg ) // white space¸¦ ˝şĹµ

  00062	84 d2		 test	 dl, dl
  00064	74 08		 je	 SHORT $LN133@GetToken

; 589  : 			++m_pProg;

  00066	8d 41 01	 lea	 eax, DWORD PTR [ecx+1]
  00069	89 46 18	 mov	 DWORD PTR [esi+24], eax
  0006c	eb e8		 jmp	 SHORT $LL5@GetToken
$LN133@GetToken:

; 590  : 
; 591  : 		while(*m_pProg == '/') // ÁÖĽ®ą® Ăł¸®

  0006e	8b d9		 mov	 ebx, ecx
  00070	80 fa 2f	 cmp	 dl, 47			; 0000002fH
  00073	0f 85 a6 00 00
	00		 jne	 $LN2@GetToken
  00079	0f 1f 80 00 00
	00 00		 npad	 7
$LL7@GetToken:

; 592  : 		{
; 593  : 			++m_pProg;

  00080	8d 41 01	 lea	 eax, DWORD PTR [ecx+1]
  00083	8b d9		 mov	 ebx, ecx
  00085	89 46 18	 mov	 DWORD PTR [esi+24], eax

; 594  : 			if(*m_pProg == '/') 

  00088	8a 10		 mov	 dl, BYTE PTR [eax]
  0008a	80 fa 2f	 cmp	 dl, 47			; 0000002fH
  0008d	75 3e		 jne	 SHORT $LN34@GetToken

; 595  : 			{ 
; 596  : 				++m_pProg;

  0008f	8d 48 01	 lea	 ecx, DWORD PTR [eax+1]
  00092	89 4e 18	 mov	 DWORD PTR [esi+24], ecx

; 597  : 				while(*m_pProg != '\r' && *m_pProg != '\0') 

  00095	8a 01		 mov	 al, BYTE PTR [ecx]
  00097	3c 0d		 cmp	 al, 13			; 0000000dH
  00099	74 19		 je	 SHORT $LN10@GetToken
  0009b	8b d1		 mov	 edx, ecx
  0009d	0f 1f 00	 npad	 3
$LL9@GetToken:
  000a0	8b ca		 mov	 ecx, edx
  000a2	84 c0		 test	 al, al
  000a4	74 0e		 je	 SHORT $LN10@GetToken

; 598  : 					++m_pProg;

  000a6	8d 4a 01	 lea	 ecx, DWORD PTR [edx+1]
  000a9	89 4e 18	 mov	 DWORD PTR [esi+24], ecx
  000ac	8b d1		 mov	 edx, ecx
  000ae	8a 01		 mov	 al, BYTE PTR [ecx]
  000b0	3c 0d		 cmp	 al, 13			; 0000000dH
  000b2	75 ec		 jne	 SHORT $LL9@GetToken
$LN10@GetToken:

; 599  : 				if(*m_pProg == '\r') 

  000b4	80 39 0d	 cmp	 BYTE PTR [ecx], 13	; 0000000dH
  000b7	75 06		 jne	 SHORT $LN36@GetToken

; 600  : 					m_pProg+=2;

  000b9	83 c1 02	 add	 ecx, 2
  000bc	89 4e 18	 mov	 DWORD PTR [esi+24], ecx
$LN36@GetToken:

; 601  : 			}

  000bf	8a 11		 mov	 dl, BYTE PTR [ecx]
$LN97@GetToken:

; 627  : 				break;
; 628  : 			}
; 629  : 			bLoop = TRUE;	// ÁÖĽ® łˇ ´Ů˝Ă loop˝ĂŔŰ 

  000c1	bf 01 00 00 00	 mov	 edi, 1
  000c6	80 fa 2f	 cmp	 dl, 47			; 0000002fH
  000c9	74 b5		 je	 SHORT $LL7@GetToken

; 630  : 		}
; 631  : 	}
; 632  : 	while( bLoop ) ;

  000cb	eb 87		 jmp	 SHORT $LL4@GetToken
$LN34@GetToken:

; 602  : 			else if(*m_pProg == '*') 

  000cd	80 fa 2a	 cmp	 dl, 42			; 0000002aH
  000d0	75 4a		 jne	 SHORT $LN37@GetToken

; 603  : 			{
; 604  : 				++m_pProg;

  000d2	40		 inc	 eax
  000d3	89 46 18	 mov	 DWORD PTR [esi+24], eax
  000d6	8a 08		 mov	 cl, BYTE PTR [eax]
$LL13@GetToken:

; 605  : 				do 
; 606  : 				{
; 607  : 					while(*m_pProg != '*' && *m_pProg != '\0') 

  000d8	80 f9 2a	 cmp	 cl, 42			; 0000002aH
  000db	74 19		 je	 SHORT $LN15@GetToken
  000dd	8a 08		 mov	 cl, BYTE PTR [eax]
  000df	8b d0		 mov	 edx, eax
$LL14@GetToken:
  000e1	8b c2		 mov	 eax, edx
  000e3	84 c9		 test	 cl, cl
  000e5	74 0f		 je	 SHORT $LN15@GetToken

; 608  : 						++m_pProg;

  000e7	8d 42 01	 lea	 eax, DWORD PTR [edx+1]
  000ea	89 46 18	 mov	 DWORD PTR [esi+24], eax
  000ed	8b d0		 mov	 edx, eax
  000ef	8a 08		 mov	 cl, BYTE PTR [eax]
  000f1	80 f9 2a	 cmp	 cl, 42			; 0000002aH
  000f4	75 eb		 jne	 SHORT $LL14@GetToken
$LN15@GetToken:

; 609  : 					
; 610  : 					if(*m_pProg == '\0') 

  000f6	80 38 00	 cmp	 BYTE PTR [eax], 0
  000f9	74 4e		 je	 SHORT $LN145@GetToken

; 615  : 					}
; 616  : 					++m_pProg;

  000fb	40		 inc	 eax
  000fc	89 46 18	 mov	 DWORD PTR [esi+24], eax

; 617  : 				} 
; 618  : 				while(*m_pProg != '/');

  000ff	8a 08		 mov	 cl, BYTE PTR [eax]
  00101	80 f9 2f	 cmp	 cl, 47			; 0000002fH
  00104	75 d2		 jne	 SHORT $LL13@GetToken

; 619  : 				
; 620  : 				++m_pProg;

  00106	8d 48 01	 lea	 ecx, DWORD PTR [eax+1]
$LN233@GetToken:

; 621  : 				while(iswhite(*m_pProg) && *m_pProg) 

  00109	89 4e 18	 mov	 DWORD PTR [esi+24], ecx
  0010c	8a 11		 mov	 dl, BYTE PTR [ecx]

; 22   : 	if(c > 0 && c <= 0x20)

  0010e	8d 42 ff	 lea	 eax, DWORD PTR [edx-1]
  00111	3c 1f		 cmp	 al, 31			; 0000001fH
  00113	77 ac		 ja	 SHORT $LN97@GetToken

; 621  : 				while(iswhite(*m_pProg) && *m_pProg) 

  00115	84 d2		 test	 dl, dl
  00117	74 a8		 je	 SHORT $LN97@GetToken

; 622  : 					++m_pProg;

  00119	41		 inc	 ecx
  0011a	eb ed		 jmp	 SHORT $LN233@GetToken
$LN37@GetToken:

; 623  : 			}
; 624  : 			else 
; 625  : 			{
; 626  : 				--m_pProg;

  0011c	89 4e 18	 mov	 DWORD PTR [esi+24], ecx
$LN2@GetToken:

; 630  : 		}
; 631  : 	}
; 632  : 	while( bLoop ) ;

  0011f	85 ff		 test	 edi, edi
  00121	0f 85 2d ff ff
	ff		 jne	 $LL4@GetToken

; 633  : 
; 634  : 	// Č­ŔĎŔÇ łˇ
; 635  : 	if(*m_pProg=='\0') 

  00127	8a 11		 mov	 dl, BYTE PTR [ecx]
  00129	84 d2		 test	 dl, dl
  0012b	75 49		 jne	 SHORT $LN40@GetToken

; 636  : 	{
; 637  : 		tok = FINISHED;

  0012d	c7 86 44 08 00
	00 15 00 00 00	 mov	 DWORD PTR [esi+2116], 21 ; 00000015H

; 638  : 		tokenType = DELIMITER; 
; 639  : 		goto EXIT;

  00137	8d 5e 40	 lea	 ebx, DWORD PTR [esi+64]
  0013a	c7 86 40 08 00
	00 01 00 00 00	 mov	 DWORD PTR [esi+2112], 1
  00144	e9 a8 00 00 00	 jmp	 $EXIT$242
$LN145@GetToken:

; 611  : 					{
; 612  : 						tok = FINISHED;

  00149	c7 86 44 08 00
	00 15 00 00 00	 mov	 DWORD PTR [esi+2116], 21 ; 00000015H

; 613  : 						tokenType = DELIMITER; 
; 614  : 						return tokenType;

  00153	b8 01 00 00 00	 mov	 eax, 1
  00158	c7 86 40 08 00
	00 01 00 00 00	 mov	 DWORD PTR [esi+2112], 1

; 850  : }

  00162	8b 4d f4	 mov	 ecx, DWORD PTR __$EHRec$[ebp]
  00165	64 89 0d 00 00
	00 00		 mov	 DWORD PTR fs:0, ecx
  0016c	59		 pop	 ecx
  0016d	5f		 pop	 edi
  0016e	5e		 pop	 esi
  0016f	5b		 pop	 ebx
  00170	8b e5		 mov	 esp, ebp
  00172	5d		 pop	 ebp
  00173	c2 04 00	 ret	 4
$LN40@GetToken:

; 640  : 	}
; 641  : 
; 642  : 	// Comma Çü˝ÄŔÇ ±¸şĐŔÚŔÎ°ˇ?
; 643  : 	if( bComma || m_bComma )

  00176	83 7d 08 00	 cmp	 DWORD PTR _bComma$[ebp], 0
  0017a	0f 85 33 04 00
	00		 jne	 $LN43@GetToken
  00180	83 7e 04 00	 cmp	 DWORD PTR [esi+4], 0
  00184	0f 85 29 04 00
	00		 jne	 $LN43@GetToken

; 672  : 				tokenType = HEX;
; 673  : 		}
; 674  : 		goto EXIT;
; 675  : 	}
; 676  : 
; 677  : 	//relation operator?
; 678  : 	switch(*m_pProg) 

  0018a	0f be c2	 movsx	 eax, dl
  0018d	8b fb		 mov	 edi, ebx
  0018f	83 c0 df	 add	 eax, -33		; ffffffdfH
  00192	83 f8 1d	 cmp	 eax, 29			; 0000001dH
  00195	0f 87 25 01 00
	00		 ja	 $LN69@GetToken
  0019b	0f b6 80 00 00
	00 00		 movzx	 eax, BYTE PTR $LN221@GetToken[eax]
  001a2	ff 24 85 00 00
	00 00		 jmp	 DWORD PTR $LN222@GetToken[eax*4]
$LN52@GetToken:

; 679  : 	{
; 680  : 		case '=':
; 681  : 			if(*(m_pProg+1)=='=') 

  001a9	80 79 01 3d	 cmp	 BYTE PTR [ecx+1], 61	; 0000003dH
  001ad	8b fb		 mov	 edi, ebx
  001af	75 27		 jne	 SHORT $LN53@GetToken

; 682  : 			{
; 683  : 				*pszCur++ = *m_pProg++;

  001b1	88 56 40	 mov	 BYTE PTR [esi+64], dl
  001b4	8d 4e 40	 lea	 ecx, DWORD PTR [esi+64]
  001b7	8d 43 01	 lea	 eax, DWORD PTR [ebx+1]
  001ba	89 46 18	 mov	 DWORD PTR [esi+24], eax

; 684  : 				*pszCur++ = *m_pProg++;

  001bd	8a 00		 mov	 al, BYTE PTR [eax]
  001bf	88 41 01	 mov	 BYTE PTR [ecx+1], al
  001c2	83 c1 02	 add	 ecx, 2
  001c5	ff 46 18	 inc	 DWORD PTR [esi+24]
  001c8	8b 7e 18	 mov	 edi, DWORD PTR [esi+24]

; 685  : 				m_nDoubleOps = EQ;

  001cb	c7 86 48 08 00
	00 05 00 00 00	 mov	 DWORD PTR [esi+2120], 5
$LN240@GetToken:

; 845  : 
; 846  : EXIT:
; 847  : 	*pszCur = '\0';

  001d5	89 4d f0	 mov	 DWORD PTR _pszCur$1$[ebp], ecx
$LN53@GetToken:
  001d8	8b 46 3c	 mov	 eax, DWORD PTR [esi+60]
  001db	80 38 00	 cmp	 BYTE PTR [eax], 0
  001de	0f 84 dc 00 00
	00		 je	 $LN69@GetToken
  001e4	c7 86 40 08 00
	00 01 00 00 00	 mov	 DWORD PTR [esi+2112], 1
$LN231@GetToken:
  001ee	8b 5d f0	 mov	 ebx, DWORD PTR _pszCur$1$[ebp]
$EXIT$242:
  001f1	c6 03 00	 mov	 BYTE PTR [ebx], 0

; 848  : 	Token = token; 

  001f4	8b 56 3c	 mov	 edx, DWORD PTR [esi+60]
; File C:\Program Files\Microsoft Visual Studio\2022\Professional\VC\Tools\MSVC\14.44.35207\atlmfc\include\atlsimpstr.h

; 726  : 		if( psz == NULL )

  001f7	85 d2		 test	 edx, edx
  001f9	0f 85 88 04 00
	00		 jne	 $LN129@GetToken

; 727  : 		{
; 728  : 			return( 0 );

  001ff	33 c9		 xor	 ecx, ecx
  00201	e9 93 04 00 00	 jmp	 $LN128@GetToken
$LN56@GetToken:
; File C:\IAGOS\server\v18\Source\Source\_Common\scanner.cpp

; 691  : 			if(*(m_pProg+1)=='=') 

  00206	8b 7d ec	 mov	 edi, DWORD PTR tv2290[ebp]
  00209	8a 41 01	 mov	 al, BYTE PTR [ecx+1]
  0020c	8d 4e 41	 lea	 ecx, DWORD PTR [esi+65]
  0020f	88 17		 mov	 BYTE PTR [edi], dl
  00211	8d 7b 01	 lea	 edi, DWORD PTR [ebx+1]
  00214	89 7e 18	 mov	 DWORD PTR [esi+24], edi
  00217	3c 3d		 cmp	 al, 61			; 0000003dH
  00219	75 18		 jne	 SHORT $LN57@GetToken

; 692  : 			{
; 693  : 				*pszCur++ = *m_pProg++;
; 694  : 				*pszCur++ = *m_pProg++;

  0021b	8a 07		 mov	 al, BYTE PTR [edi]
  0021d	88 01		 mov	 BYTE PTR [ecx], al
  0021f	41		 inc	 ecx
  00220	ff 46 18	 inc	 DWORD PTR [esi+24]

; 695  : 				m_nDoubleOps = NE;

  00223	b8 06 00 00 00	 mov	 eax, 6
  00228	8b 7e 18	 mov	 edi, DWORD PTR [esi+24]

; 701  : 			}
; 702  : 			
; 703  : 			if(*token) { tokenType = DELIMITER; goto EXIT; }

  0022b	89 86 48 08 00
	00		 mov	 DWORD PTR [esi+2120], eax
  00231	eb a2		 jmp	 SHORT $LN240@GetToken
$LN57@GetToken:

; 696  : 			}
; 697  : 			else 
; 698  : 			{
; 699  : 				*pszCur++ = *m_pProg++;
; 700  : 				m_nDoubleOps = NT;

  00233	b8 07 00 00 00	 mov	 eax, 7

; 701  : 			}
; 702  : 			
; 703  : 			if(*token) { tokenType = DELIMITER; goto EXIT; }

  00238	89 86 48 08 00
	00		 mov	 DWORD PTR [esi+2120], eax
  0023e	eb 95		 jmp	 SHORT $LN240@GetToken
$LN61@GetToken:

; 704  : 			break;
; 705  : 		case '<':
; 706  : 			if(*(m_pProg+1)=='=') 

  00240	8b 7d ec	 mov	 edi, DWORD PTR tv2290[ebp]
  00243	8a 41 01	 mov	 al, BYTE PTR [ecx+1]
  00246	8d 4e 41	 lea	 ecx, DWORD PTR [esi+65]
  00249	88 17		 mov	 BYTE PTR [edi], dl
  0024b	8d 7b 01	 lea	 edi, DWORD PTR [ebx+1]
  0024e	89 7e 18	 mov	 DWORD PTR [esi+24], edi
  00251	3c 3d		 cmp	 al, 61			; 0000003dH
  00253	75 1b		 jne	 SHORT $LN62@GetToken

; 707  : 			{
; 708  : 				*pszCur++ = *m_pProg++;
; 709  : 				*pszCur++ = *m_pProg++;

  00255	8a 07		 mov	 al, BYTE PTR [edi]
  00257	88 01		 mov	 BYTE PTR [ecx], al
  00259	41		 inc	 ecx
  0025a	ff 46 18	 inc	 DWORD PTR [esi+24]

; 710  : 				m_nDoubleOps = LE;

  0025d	b8 02 00 00 00	 mov	 eax, 2
  00262	8b 7e 18	 mov	 edi, DWORD PTR [esi+24]

; 716  : 			}
; 717  : 			
; 718  : 			if(*token) { tokenType = DELIMITER; goto EXIT; }

  00265	89 86 48 08 00
	00		 mov	 DWORD PTR [esi+2120], eax
  0026b	e9 65 ff ff ff	 jmp	 $LN240@GetToken
$LN62@GetToken:

; 711  : 			}
; 712  : 			else 
; 713  : 			{
; 714  : 				*pszCur++ = *m_pProg++;
; 715  : 				m_nDoubleOps = LT;

  00270	b8 01 00 00 00	 mov	 eax, 1

; 716  : 			}
; 717  : 			
; 718  : 			if(*token) { tokenType = DELIMITER; goto EXIT; }

  00275	89 86 48 08 00
	00		 mov	 DWORD PTR [esi+2120], eax
  0027b	e9 55 ff ff ff	 jmp	 $LN240@GetToken
$LN66@GetToken:

; 719  : 			break;
; 720  : 		case '>':
; 721  : 			if(*(m_pProg+1)=='=') 

  00280	8b 7d ec	 mov	 edi, DWORD PTR tv2290[ebp]
  00283	8a 41 01	 mov	 al, BYTE PTR [ecx+1]
  00286	8d 4e 41	 lea	 ecx, DWORD PTR [esi+65]
  00289	88 17		 mov	 BYTE PTR [edi], dl
  0028b	8d 7b 01	 lea	 edi, DWORD PTR [ebx+1]
  0028e	89 7e 18	 mov	 DWORD PTR [esi+24], edi
  00291	3c 3d		 cmp	 al, 61			; 0000003dH
  00293	75 1b		 jne	 SHORT $LN67@GetToken

; 722  : 			{
; 723  : 				*pszCur++ = *m_pProg++;
; 724  : 				*pszCur++ = *m_pProg++;

  00295	8a 07		 mov	 al, BYTE PTR [edi]
  00297	88 01		 mov	 BYTE PTR [ecx], al
  00299	41		 inc	 ecx
  0029a	ff 46 18	 inc	 DWORD PTR [esi+24]

; 725  : 				m_nDoubleOps = GE;

  0029d	b8 04 00 00 00	 mov	 eax, 4
  002a2	8b 7e 18	 mov	 edi, DWORD PTR [esi+24]

; 731  : 			}
; 732  : 
; 733  : 			if(*token) { tokenType = DELIMITER; goto EXIT; }

  002a5	89 86 48 08 00
	00		 mov	 DWORD PTR [esi+2120], eax
  002ab	e9 25 ff ff ff	 jmp	 $LN240@GetToken
$LN67@GetToken:

; 726  : 			}
; 727  : 			else 
; 728  : 			{
; 729  : 				*pszCur++ = *m_pProg++;
; 730  : 				m_nDoubleOps = GT;

  002b0	b8 03 00 00 00	 mov	 eax, 3

; 731  : 			}
; 732  : 
; 733  : 			if(*token) { tokenType = DELIMITER; goto EXIT; }

  002b5	89 86 48 08 00
	00		 mov	 DWORD PTR [esi+2120], eax
  002bb	e9 15 ff ff ff	 jmp	 $LN240@GetToken
$LN69@GetToken:

; 734  : 			break;
; 735  : 	}
; 736  : 		
; 737  : 	// delimiter
; 738  : 	if(*m_pProg == '&' && *(m_pProg+1) == '&') 

  002c0	8a 07		 mov	 al, BYTE PTR [edi]
  002c2	3c 26		 cmp	 al, 38			; 00000026H
  002c4	75 23		 jne	 SHORT $LN207@GetToken
  002c6	38 47 01	 cmp	 BYTE PTR [edi+1], al
  002c9	75 1e		 jne	 SHORT $LN207@GetToken

; 739  : 	{
; 740  : 		*pszCur = *(pszCur+1) = '&';

  002cb	8b 5d f0	 mov	 ebx, DWORD PTR _pszCur$1$[ebp]
  002ce	66 c7 03 26 26	 mov	 WORD PTR [ebx], 9766	; 00002626H
$LN238@GetToken:

; 845  : 
; 846  : EXIT:
; 847  : 	*pszCur = '\0';

  002d3	83 c3 02	 add	 ebx, 2
  002d6	c7 86 40 08 00
	00 01 00 00 00	 mov	 DWORD PTR [esi+2112], 1
  002e0	83 46 18 02	 add	 DWORD PTR [esi+24], 2
  002e4	e9 08 ff ff ff	 jmp	 $EXIT$242
$LN207@GetToken:

; 741  : 		pszCur+=2; 
; 742  : 		m_pProg+=2; 
; 743  : 		tokenType = DELIMITER; 
; 744  : 		goto EXIT; 
; 745  : 	}
; 746  : 	if(*m_pProg == '|' && *(m_pProg+1) == '|') 

  002e9	3c 7c		 cmp	 al, 124			; 0000007cH
  002eb	75 0f		 jne	 SHORT $LN73@GetToken
  002ed	38 47 01	 cmp	 BYTE PTR [edi+1], al
  002f0	75 0a		 jne	 SHORT $LN73@GetToken

; 747  : 	{
; 748  : 		*pszCur = *(pszCur+1) = '|';

  002f2	8b 5d f0	 mov	 ebx, DWORD PTR _pszCur$1$[ebp]
  002f5	66 c7 03 7c 7c	 mov	 WORD PTR [ebx], 31868	; 00007c7cH

; 749  : 		pszCur+=2; 
; 750  : 		m_pProg+=2; 
; 751  : 		tokenType = DELIMITER; 
; 752  : 		goto EXIT; 

  002fa	eb d7		 jmp	 SHORT $LN238@GetToken
$LN73@GetToken:

; 753  : 	}
; 754  : 	if( strchr( "+-*^/%=;(),':{}.", *m_pProg ) )  

  002fc	0f be c0	 movsx	 eax, al
  002ff	50		 push	 eax
  00300	68 00 00 00 00	 push	 OFFSET ??_C@_0BB@BKECMLNK@?$CL?9?$CK?$FO?1?$CF?$DN?$DL?$CI?$CJ?0?8?3?$HL?$HN?4@
  00305	e8 00 00 00 00	 call	 _strchr
  0030a	8b 56 18	 mov	 edx, DWORD PTR [esi+24]
  0030d	83 c4 08	 add	 esp, 8
  00310	8a 0a		 mov	 cl, BYTE PTR [edx]
  00312	85 c0		 test	 eax, eax
  00314	74 18		 je	 SHORT $LN75@GetToken

; 755  : 	{
; 756  : 		*pszCur = *m_pProg; 

  00316	8b 5d f0	 mov	 ebx, DWORD PTR _pszCur$1$[ebp]
  00319	88 0b		 mov	 BYTE PTR [ebx], cl

; 757  : 		++m_pProg;

  0031b	ff 46 18	 inc	 DWORD PTR [esi+24]

; 758  : 		++pszCur;	

  0031e	43		 inc	 ebx

; 845  : 
; 846  : EXIT:
; 847  : 	*pszCur = '\0';

  0031f	c7 86 40 08 00
	00 01 00 00 00	 mov	 DWORD PTR [esi+2112], 1
  00329	e9 c3 fe ff ff	 jmp	 $EXIT$242
$LN75@GetToken:

; 759  : 		tokenType = DELIMITER; 
; 760  : 		goto EXIT;
; 761  : 	}
; 762  : 
; 763  : 	// ˝şĆ®¸µ 
; 764  : 	if(*m_pProg=='"') 

  0032e	80 f9 22	 cmp	 cl, 34			; 00000022H
  00331	0f 85 fd 00 00
	00		 jne	 $LN77@GetToken

; 765  : 	{
; 766  : 		++m_pProg;

  00337	8d 4a 01	 lea	 ecx, DWORD PTR [edx+1]
  0033a	89 4e 18	 mov	 DWORD PTR [esi+24], ecx

; 767  : 		while( *m_pProg != '"' && *m_pProg != '\r' && *m_pProg != '\0' && ( pszCur - token ) < MAX_TOKENSTR ) 

  0033d	8a 01		 mov	 al, BYTE PTR [ecx]
  0033f	3c 22		 cmp	 al, 34			; 00000022H
  00341	74 3a		 je	 SHORT $LN27@GetToken
  00343	8b 5d f0	 mov	 ebx, DWORD PTR _pszCur$1$[ebp]
  00346	8b d1		 mov	 edx, ecx
$LL26@GetToken:
  00348	8b ca		 mov	 ecx, edx
  0034a	3c 0d		 cmp	 al, 13			; 0000000dH
  0034c	74 2c		 je	 SHORT $LN226@GetToken
  0034e	84 c0		 test	 al, al
  00350	74 28		 je	 SHORT $LN226@GetToken
  00352	8b c3		 mov	 eax, ebx
  00354	2b 46 3c	 sub	 eax, DWORD PTR [esi+60]
  00357	3d 00 08 00 00	 cmp	 eax, 2048		; 00000800H
  0035c	7d 1c		 jge	 SHORT $LN226@GetToken

; 768  : 		{
; 769  : 			int count = CopyChar( m_pProg, pszCur );

  0035e	53		 push	 ebx
  0035f	52		 push	 edx
  00360	e8 00 00 00 00	 call	 ?CopyChar@@YAHPBDPAD@Z	; CopyChar

; 770  : 			m_pProg += count;

  00365	8b 4e 18	 mov	 ecx, DWORD PTR [esi+24]

; 771  : 			pszCur += count;

  00368	03 d8		 add	 ebx, eax
  0036a	03 c8		 add	 ecx, eax
  0036c	83 c4 08	 add	 esp, 8
  0036f	89 4e 18	 mov	 DWORD PTR [esi+24], ecx
  00372	8b d1		 mov	 edx, ecx
  00374	8a 01		 mov	 al, BYTE PTR [ecx]
  00376	3c 22		 cmp	 al, 34			; 00000022H
  00378	75 ce		 jne	 SHORT $LL26@GetToken
$LN226@GetToken:
  0037a	89 5d f0	 mov	 DWORD PTR _pszCur$1$[ebp], ebx
$LN27@GetToken:

; 772  : 		}
; 773  : 		++m_pProg; 

  0037d	8d 41 01	 lea	 eax, DWORD PTR [ecx+1]

; 774  : 		tokenType = STRING; 

  00380	c7 86 40 08 00
	00 06 00 00 00	 mov	 DWORD PTR [esi+2112], 6
  0038a	89 46 18	 mov	 DWORD PTR [esi+24], eax

; 775  : 		if( *(m_pProg-1) != '"' )

  0038d	8a 01		 mov	 al, BYTE PTR [ecx]
  0038f	3c 22		 cmp	 al, 34			; 00000022H
  00391	0f 84 57 fe ff
	ff		 je	 $LN231@GetToken

; 776  : 		{
; 777  : 			if( *(m_pProg-1) == '\0' )

  00397	84 c0		 test	 al, al
  00399	75 03		 jne	 SHORT $LN79@GetToken

; 778  : 				--m_pProg; 

  0039b	89 4e 18	 mov	 DWORD PTR [esi+24], ecx
$LN79@GetToken:

; 779  : 			if( m_bErrorCheck )

  0039e	83 be 54 08 00
	00 00		 cmp	 DWORD PTR [esi+2132], 0
  003a5	0f 84 43 fe ff
	ff		 je	 $LN231@GetToken

; 780  : 			{
; 781  : 				CString string;

  003ab	8d 4d 08	 lea	 ecx, DWORD PTR _string$2[ebp]
  003ae	e8 00 00 00 00	 call	 ??0?$CStringT@DV?$StrTraitMFC@DV?$ChTraitsCRT@D@ATL@@@@@ATL@@QAE@XZ ; ATL::CStringT<char,StrTraitMFC<char,ATL::ChTraitsCRT<char> > >::CStringT<char,StrTraitMFC<char,ATL::ChTraitsCRT<char> > >

; 782  : 				if( ( pszCur - token ) >= MAX_TOKENSTR )

  003b3	8b 06		 mov	 eax, DWORD PTR [esi]
  003b5	8b 5d f0	 mov	 ebx, DWORD PTR _pszCur$1$[ebp]
  003b8	8b 4e 3c	 mov	 ecx, DWORD PTR [esi+60]
  003bb	c7 45 fc 00 00
	00 00		 mov	 DWORD PTR __$EHRec$[ebp+8], 0
  003c2	8b 50 0c	 mov	 edx, DWORD PTR [eax+12]
  003c5	8b c3		 mov	 eax, ebx
  003c7	2b c1		 sub	 eax, ecx
  003c9	3d 00 08 00 00	 cmp	 eax, 2048		; 00000800H
  003ce	7c 26		 jl	 SHORT $LN81@GetToken

; 783  : 					string.Format( "line(%d) ĆÄŔĎ %sżˇĽ­ \"%s\" ˝şĆ®¸µ ±ćŔĚ°ˇ %dąŮŔĚĆ®¸¦ ĂĘ°úÇßŔ˝.", GetLineNum(), m_strFileName, token, MAX_TOKENSTR );

  003d0	68 00 08 00 00	 push	 2048			; 00000800H
  003d5	51		 push	 ecx
  003d6	ff b6 50 08 00
	00		 push	 DWORD PTR [esi+2128]
  003dc	8b ce		 mov	 ecx, esi
  003de	6a 00		 push	 0
  003e0	ff d2		 call	 edx
  003e2	50		 push	 eax
  003e3	8d 45 08	 lea	 eax, DWORD PTR _string$2[ebp]
  003e6	68 00 00 00 00	 push	 OFFSET ??_C@_0DN@LFHNMKPA@line?$CI?$CFd?$CJ?5?F?D?$MA?O?5?$CFs?$LP?$KB?$LM?$KN?5?$CC?$CFs?$CC?5?$LN?$LK?F?$KO?$LI@
  003eb	50		 push	 eax
  003ec	e8 00 00 00 00	 call	 ?Format@?$CStringT@DV?$StrTraitMFC@DV?$ChTraitsCRT@D@ATL@@@@@ATL@@QAAXPBDZZ ; ATL::CStringT<char,StrTraitMFC<char,ATL::ChTraitsCRT<char> > >::Format
  003f1	83 c4 18	 add	 esp, 24			; 00000018H
  003f4	eb 1f		 jmp	 SHORT $LN82@GetToken
$LN81@GetToken:

; 784  : 				else
; 785  : 					string.Format( "line(%d) ĆÄŔĎ %sżˇĽ­ \"%s\" ˝şĆ®¸µŔĚ µűżČÇĄ·Î łˇłŞÁö ľĘŔ˝.", GetLineNum(), m_strFileName, token );

  003f6	51		 push	 ecx
  003f7	ff b6 50 08 00
	00		 push	 DWORD PTR [esi+2128]
  003fd	8b ce		 mov	 ecx, esi
  003ff	6a 00		 push	 0
  00401	ff d2		 call	 edx
  00403	50		 push	 eax
  00404	8d 45 08	 lea	 eax, DWORD PTR _string$2[ebp]
  00407	68 00 00 00 00	 push	 OFFSET ??_C@_0DJ@HNOCKBIP@line?$CI?$CFd?$CJ?5?F?D?$MA?O?5?$CFs?$LP?$KB?$LM?$KN?5?$CC?$CFs?$CC?5?$LN?$LK?F?$KO?$LI@
  0040c	50		 push	 eax
  0040d	e8 00 00 00 00	 call	 ?Format@?$CStringT@DV?$StrTraitMFC@DV?$ChTraitsCRT@D@ATL@@@@@ATL@@QAAXPBDZZ ; ATL::CStringT<char,StrTraitMFC<char,ATL::ChTraitsCRT<char> > >::Format
  00412	83 c4 14	 add	 esp, 20			; 00000014H
$LN82@GetToken:

; 786  : 				Error( string );

  00415	ff 75 08	 push	 DWORD PTR _string$2[ebp]
  00418	e8 00 00 00 00	 call	 ?Error@@YAPBDPBDZZ	; Error
  0041d	83 c4 04	 add	 esp, 4

; 787  : 			}

  00420	c7 45 fc ff ff
	ff ff		 mov	 DWORD PTR __$EHRec$[ebp+8], -1
  00427	8d 4d 08	 lea	 ecx, DWORD PTR _string$2[ebp]
  0042a	e8 00 00 00 00	 call	 ??1?$CStringT@DV?$StrTraitMFC@DV?$ChTraitsCRT@D@ATL@@@@@ATL@@QAE@XZ ; ATL::CStringT<char,StrTraitMFC<char,ATL::ChTraitsCRT<char> > >::~CStringT<char,StrTraitMFC<char,ATL::ChTraitsCRT<char> > >

; 788  : 		}
; 789  : 		goto EXIT;

  0042f	e9 bd fd ff ff	 jmp	 $EXIT$242
$LN77@GetToken:

; 790  : 	}
; 791  : 	// hex
; 792  : 	if( *m_pProg=='0' && *(m_pProg + 1)=='x' ) 

  00434	80 f9 30	 cmp	 cl, 48			; 00000030H
  00437	75 60		 jne	 SHORT $LN181@GetToken
  00439	80 7a 01 78	 cmp	 BYTE PTR [edx+1], 120	; 00000078H
  0043d	75 62		 jne	 SHORT $LN215@GetToken

; 793  : 	{
; 794  : 		m_pProg+=2;

  0043f	8b 5d f0	 mov	 ebx, DWORD PTR _pszCur$1$[ebp]
  00442	8d 42 02	 lea	 eax, DWORD PTR [edx+2]
  00445	89 46 18	 mov	 DWORD PTR [esi+24], eax
$LL28@GetToken:

; 795  : 		while(!isdelim(*m_pProg)) 

  00448	66 0f be 00	 movsx	 ax, BYTE PTR [eax]
  0044c	0f b7 f8	 movzx	 edi, ax

; 29   : 	if(strchr(" !:;,+-<>'/*%^=()&|\"{}",c) || c == 9 || c == '\r' || c == 0 || c == '\n' ) 

  0044f	57		 push	 edi
  00450	68 00 00 00 00	 push	 OFFSET ??_C@_0BH@PMNGKJFP@?5?$CB?3?$DL?0?$CL?9?$DM?$DO?8?1?$CK?$CF?$FO?$DN?$CI?$CJ?$CG?$HM?$CC?$HL?$HN@
  00455	e8 00 00 00 00	 call	 _strchr
  0045a	83 c4 08	 add	 esp, 8
  0045d	85 c0		 test	 eax, eax
  0045f	0f 85 13 02 00
	00		 jne	 $LN29@GetToken
  00465	83 ff 09	 cmp	 edi, 9
  00468	0f 84 0a 02 00
	00		 je	 $LN29@GetToken
  0046e	83 ff 0d	 cmp	 edi, 13			; 0000000dH
  00471	0f 84 01 02 00
	00		 je	 $LN29@GetToken
  00477	66 85 ff	 test	 di, di
  0047a	0f 84 f8 01 00
	00		 je	 $LN29@GetToken
  00480	83 ff 0a	 cmp	 edi, 10			; 0000000aH
  00483	0f 84 ef 01 00
	00		 je	 $LN29@GetToken

; 796  : 			*pszCur++ = *m_pProg++;

  00489	8b 46 18	 mov	 eax, DWORD PTR [esi+24]
  0048c	8a 00		 mov	 al, BYTE PTR [eax]
  0048e	88 03		 mov	 BYTE PTR [ebx], al
  00490	43		 inc	 ebx
  00491	ff 46 18	 inc	 DWORD PTR [esi+24]
  00494	8b 46 18	 mov	 eax, DWORD PTR [esi+24]
  00497	eb af		 jmp	 SHORT $LL28@GetToken
$LN181@GetToken:
; File C:\IAGOS\server\v18\Source\Source\_Common\vutil.h

; 105  : 	if( c >= '0' && c <= '9' )

  00499	80 e9 30	 sub	 cl, 48			; 00000030H
  0049c	80 f9 09	 cmp	 cl, 9
  0049f	77 62		 ja	 SHORT $LN208@GetToken
$LN215@GetToken:
; File C:\IAGOS\server\v18\Source\Source\_Common\scanner.cpp

; 801  : 	if( isdigit2( *m_pProg ) && !IsMultiByte( m_pProg ) ) //ĽýŔÚ °Ë»ç¸¸Ŕ¸·Î łˇłŞ´ÂµĄ żÖ ÇŃ±ŰŔĚ ľĆ´Ň °ćżěµµ ĂĽĹ©ÇĎÁö?

  004a1	52		 push	 edx
  004a2	e8 00 00 00 00	 call	 ?IsMultiByte@@YAHPBD@Z	; IsMultiByte
  004a7	83 c4 04	 add	 esp, 4
  004aa	85 c0		 test	 eax, eax
  004ac	75 55		 jne	 SHORT $LN208@GetToken
  004ae	8b 5d f0	 mov	 ebx, DWORD PTR _pszCur$1$[ebp]
$LL30@GetToken:

; 802  : 	{
; 803  : 		while( !isdelim( *m_pProg ) )

  004b1	8b 46 18	 mov	 eax, DWORD PTR [esi+24]
  004b4	66 0f be 00	 movsx	 ax, BYTE PTR [eax]
  004b8	0f b7 f8	 movzx	 edi, ax

; 29   : 	if(strchr(" !:;,+-<>'/*%^=()&|\"{}",c) || c == 9 || c == '\r' || c == 0 || c == '\n' ) 

  004bb	57		 push	 edi
  004bc	68 00 00 00 00	 push	 OFFSET ??_C@_0BH@PMNGKJFP@?5?$CB?3?$DL?0?$CL?9?$DM?$DO?8?1?$CK?$CF?$FO?$DN?$CI?$CJ?$CG?$HM?$CC?$HL?$HN@
  004c1	e8 00 00 00 00	 call	 _strchr
  004c6	83 c4 08	 add	 esp, 8
  004c9	85 c0		 test	 eax, eax
  004cb	75 27		 jne	 SHORT $LN31@GetToken
  004cd	83 ff 09	 cmp	 edi, 9
  004d0	74 22		 je	 SHORT $LN31@GetToken
  004d2	83 ff 0d	 cmp	 edi, 13			; 0000000dH
  004d5	74 1d		 je	 SHORT $LN31@GetToken
  004d7	66 85 ff	 test	 di, di
  004da	74 18		 je	 SHORT $LN31@GetToken
  004dc	83 ff 0a	 cmp	 edi, 10			; 0000000aH
  004df	74 13		 je	 SHORT $LN31@GetToken

; 804  : 		{
; 805  : 			int count	= CopyChar( m_pProg, pszCur );

  004e1	53		 push	 ebx
  004e2	ff 76 18	 push	 DWORD PTR [esi+24]
  004e5	e8 00 00 00 00	 call	 ?CopyChar@@YAHPBDPAD@Z	; CopyChar

; 806  : 			m_pProg	+= count;

  004ea	01 46 18	 add	 DWORD PTR [esi+24], eax
  004ed	83 c4 08	 add	 esp, 8

; 807  : 			pszCur	+= count;

  004f0	03 d8		 add	 ebx, eax

; 808  : 		}

  004f2	eb bd		 jmp	 SHORT $LL30@GetToken
$LN31@GetToken:

; 809  : //		while( !isdelim( *m_pProg ) ) 
; 810  : //			*pszCur++ = *m_pProg++;
; 811  : 		tokenType = NUMBER; 

  004f4	c7 86 40 08 00
	00 03 00 00 00	 mov	 DWORD PTR [esi+2112], 3

; 812  : 		goto EXIT;

  004fe	e9 ee fc ff ff	 jmp	 $EXIT$242
$LN208@GetToken:

; 813  : 	}
; 814  : 
; 815  : 	// şŻĽöżÍ ¸í·É
; 816  : #ifdef __VS2003
; 817  : 	if( iswalpha( *m_pProg ) || IsMultiByte( m_pProg ) || IsCyrillic( *m_pProg ) 
; 818  : 		|| *m_pProg == '#' || *m_pProg == '_' || *m_pProg == '@' || *m_pProg=='$' || *m_pProg == '?' ) 

  00503	8b 46 18	 mov	 eax, DWORD PTR [esi+24]
  00506	66 0f be 00	 movsx	 ax, BYTE PTR [eax]
  0050a	0f b7 c0	 movzx	 eax, ax
  0050d	50		 push	 eax
  0050e	e8 00 00 00 00	 call	 _iswalpha
  00513	83 c4 04	 add	 esp, 4
  00516	85 c0		 test	 eax, eax
  00518	75 53		 jne	 SHORT $LN203@GetToken
  0051a	ff 76 18	 push	 DWORD PTR [esi+24]
  0051d	e8 00 00 00 00	 call	 ?IsMultiByte@@YAHPBD@Z	; IsMultiByte
  00522	83 c4 04	 add	 esp, 4
  00525	85 c0		 test	 eax, eax
  00527	75 44		 jne	 SHORT $LN203@GetToken
  00529	8b 46 18	 mov	 eax, DWORD PTR [esi+24]
  0052c	0f b6 00	 movzx	 eax, BYTE PTR [eax]
  0052f	50		 push	 eax
  00530	e8 00 00 00 00	 call	 ?IsCyrillic@@YAHD@Z	; IsCyrillic
  00535	83 c4 04	 add	 esp, 4
  00538	85 c0		 test	 eax, eax
  0053a	75 31		 jne	 SHORT $LN203@GetToken
  0053c	8b 46 18	 mov	 eax, DWORD PTR [esi+24]
  0053f	8a 00		 mov	 al, BYTE PTR [eax]
  00541	3c 23		 cmp	 al, 35			; 00000023H
  00543	74 28		 je	 SHORT $LN203@GetToken
  00545	3c 5f		 cmp	 al, 95			; 0000005fH
  00547	74 24		 je	 SHORT $LN203@GetToken
  00549	3c 40		 cmp	 al, 64			; 00000040H
  0054b	74 20		 je	 SHORT $LN203@GetToken
  0054d	3c 24		 cmp	 al, 36			; 00000024H
  0054f	74 1c		 je	 SHORT $LN203@GetToken
  00551	3c 3f		 cmp	 al, 63			; 0000003fH
  00553	74 18		 je	 SHORT $LN203@GetToken

; 830  : 	}
; 831  : 	else
; 832  : 	{
; 833  : 		/*
; 834  : 		while( !isdelim( *m_pProg ) ) 
; 835  : 		{
; 836  : 			int count	= CopyChar( m_pProg, pszCur );
; 837  : 			m_pProg	+= count;
; 838  : 			pszCur	+= count;
; 839  : 		}
; 840  : 		*/
; 841  : 		*pszCur++ = *m_pProg++;

  00555	8b 5d f0	 mov	 ebx, DWORD PTR _pszCur$1$[ebp]
  00558	88 03		 mov	 BYTE PTR [ebx], al
  0055a	43		 inc	 ebx
  0055b	ff 46 18	 inc	 DWORD PTR [esi+24]
$LN33@GetToken:

; 842  : 	}
; 843  : 
; 844  : 	tokenType = TEMP;

  0055e	c7 86 40 08 00
	00 00 00 00 00	 mov	 DWORD PTR [esi+2112], 0
  00568	e9 84 fc ff ff	 jmp	 $EXIT$242
$LN203@GetToken:
  0056d	8b 5d f0	 mov	 ebx, DWORD PTR _pszCur$1$[ebp]
$LL32@GetToken:

; 819  : #else //__VS2003
; 820  : 	if( isalpha( *m_pProg ) || IsMultiByte( m_pProg ) || IsCyrillic( *m_pProg )
; 821  : 		|| *m_pProg == '#' || *m_pProg == '_' || *m_pProg == '@' || *m_pProg=='$' || *m_pProg == '?' ) 
; 822  : #endif //__VS2003
; 823  : 	{
; 824  : 		while( !isdelim( *m_pProg ) ) 

  00570	8b 46 18	 mov	 eax, DWORD PTR [esi+24]
  00573	66 0f be 00	 movsx	 ax, BYTE PTR [eax]
  00577	0f b7 f8	 movzx	 edi, ax

; 29   : 	if(strchr(" !:;,+-<>'/*%^=()&|\"{}",c) || c == 9 || c == '\r' || c == 0 || c == '\n' ) 

  0057a	57		 push	 edi
  0057b	68 00 00 00 00	 push	 OFFSET ??_C@_0BH@PMNGKJFP@?5?$CB?3?$DL?0?$CL?9?$DM?$DO?8?1?$CK?$CF?$FO?$DN?$CI?$CJ?$CG?$HM?$CC?$HL?$HN@
  00580	e8 00 00 00 00	 call	 _strchr
  00585	83 c4 08	 add	 esp, 8
  00588	85 c0		 test	 eax, eax
  0058a	75 d2		 jne	 SHORT $LN33@GetToken
  0058c	83 ff 09	 cmp	 edi, 9
  0058f	74 cd		 je	 SHORT $LN33@GetToken
  00591	83 ff 0d	 cmp	 edi, 13			; 0000000dH
  00594	74 c8		 je	 SHORT $LN33@GetToken
  00596	66 85 ff	 test	 di, di
  00599	74 c3		 je	 SHORT $LN33@GetToken
  0059b	83 ff 0a	 cmp	 edi, 10			; 0000000aH
  0059e	74 be		 je	 SHORT $LN33@GetToken

; 825  : 		{
; 826  : 			int count = CopyChar( m_pProg, pszCur );

  005a0	53		 push	 ebx
  005a1	ff 76 18	 push	 DWORD PTR [esi+24]
  005a4	e8 00 00 00 00	 call	 ?CopyChar@@YAHPBDPAD@Z	; CopyChar

; 827  : 			m_pProg += count;

  005a9	01 46 18	 add	 DWORD PTR [esi+24], eax
  005ac	83 c4 08	 add	 esp, 8

; 828  : 			pszCur += count;

  005af	03 d8		 add	 ebx, eax

; 829  : 		}

  005b1	eb bd		 jmp	 SHORT $LL32@GetToken
$LN43@GetToken:

; 644  : 	{
; 645  : 		// ÄŢ¸¶łŞ µĄŔĚĹ¸ŔÇ łˇ, ¶Ç´Â żŁĹÍ ÄÚµĺ°ˇ łŞżĂ ¶§±îÁö ŔĐ´Â´Ů.
; 646  : 		// ÄŢ¸¶ ±¸şĐŔĎ °ćżě´Â ±×°ÍŔş pszCurżÍ NUMBER¸¸Ŕ» ±¸şĐÇŃ´Ů.
; 647  : 		if(*m_pProg=='"') 

  005b3	80 fa 22	 cmp	 dl, 34			; 00000022H
  005b6	75 3e		 jne	 SHORT $LN143@GetToken

; 648  : 		{
; 649  : 			++m_pProg;

  005b8	41		 inc	 ecx
  005b9	89 4e 18	 mov	 DWORD PTR [esi+24], ecx

; 650  : 			while(*m_pProg != '"' && *m_pProg != '\r' && *m_pProg != '\0') 

  005bc	8a 01		 mov	 al, BYTE PTR [ecx]
  005be	3a c2		 cmp	 al, dl
  005c0	74 24		 je	 SHORT $LN19@GetToken
  005c2	8b d1		 mov	 edx, ecx
$LL18@GetToken:
  005c4	8b ca		 mov	 ecx, edx
  005c6	3c 0d		 cmp	 al, 13			; 0000000dH
  005c8	74 1c		 je	 SHORT $LN19@GetToken
  005ca	84 c0		 test	 al, al
  005cc	74 18		 je	 SHORT $LN19@GetToken

; 651  : 				*pszCur++ = *m_pProg++;

  005ce	8b 4d f0	 mov	 ecx, DWORD PTR _pszCur$1$[ebp]
  005d1	88 01		 mov	 BYTE PTR [ecx], al
  005d3	41		 inc	 ecx
  005d4	89 4d f0	 mov	 DWORD PTR _pszCur$1$[ebp], ecx
  005d7	8b 4e 18	 mov	 ecx, DWORD PTR [esi+24]
  005da	41		 inc	 ecx
  005db	89 4e 18	 mov	 DWORD PTR [esi+24], ecx
  005de	8b d1		 mov	 edx, ecx
  005e0	8a 01		 mov	 al, BYTE PTR [ecx]
  005e2	3c 22		 cmp	 al, 34			; 00000022H
  005e4	75 de		 jne	 SHORT $LL18@GetToken
$LN19@GetToken:

; 652  : 			++m_pProg; 

  005e6	41		 inc	 ecx

; 653  : 			tokenType = STRING; 

  005e7	c7 86 40 08 00
	00 06 00 00 00	 mov	 DWORD PTR [esi+2112], 6
  005f1	89 4e 18	 mov	 DWORD PTR [esi+24], ecx

; 654  : 		}

  005f4	eb 2e		 jmp	 SHORT $LN21@GetToken
$LN143@GetToken:

; 655  : 		else
; 656  : 		{
; 657  : 			while(*m_pProg!=',' && *m_pProg != '\r' && *m_pProg != '\0') 

  005f6	80 fa 2c	 cmp	 dl, 44			; 0000002cH
  005f9	74 29		 je	 SHORT $LN21@GetToken
  005fb	8b c1		 mov	 eax, ecx
  005fd	0f 1f 00	 npad	 3
$LL20@GetToken:
  00600	8b c8		 mov	 ecx, eax
  00602	80 fa 0d	 cmp	 dl, 13			; 0000000dH
  00605	74 1d		 je	 SHORT $LN21@GetToken
  00607	84 d2		 test	 dl, dl
  00609	74 19		 je	 SHORT $LN21@GetToken

; 658  : 				*pszCur++ = *m_pProg++;

  0060b	8b 45 f0	 mov	 eax, DWORD PTR _pszCur$1$[ebp]
  0060e	88 10		 mov	 BYTE PTR [eax], dl
  00610	40		 inc	 eax
  00611	8b 4e 18	 mov	 ecx, DWORD PTR [esi+24]
  00614	41		 inc	 ecx
  00615	89 45 f0	 mov	 DWORD PTR _pszCur$1$[ebp], eax
  00618	89 4e 18	 mov	 DWORD PTR [esi+24], ecx
  0061b	8b c1		 mov	 eax, ecx
  0061d	8a 11		 mov	 dl, BYTE PTR [ecx]
  0061f	80 fa 2c	 cmp	 dl, 44			; 0000002cH
  00622	75 dc		 jne	 SHORT $LL20@GetToken
$LN21@GetToken:

; 659  : 		}
; 660  : 		if( *m_pProg == ',' || *m_pProg == '\r')

  00624	8a 01		 mov	 al, BYTE PTR [ecx]
  00626	3c 2c		 cmp	 al, 44			; 0000002cH
  00628	74 04		 je	 SHORT $LN47@GetToken
  0062a	3c 0d		 cmp	 al, 13			; 0000000dH
  0062c	75 06		 jne	 SHORT $LN46@GetToken
$LN47@GetToken:

; 661  : 			++m_pProg; // skim comma

  0062e	8d 41 01	 lea	 eax, DWORD PTR [ecx+1]
  00631	89 46 18	 mov	 DWORD PTR [esi+24], eax
$LN46@GetToken:

; 662  : 		// white space¸¦ ˝şĹµ
; 663  : 		if( pszCur != token )

  00634	8b 5d f0	 mov	 ebx, DWORD PTR _pszCur$1$[ebp]
  00637	3b 5e 3c	 cmp	 ebx, DWORD PTR [esi+60]
  0063a	0f 84 b1 fb ff
	ff		 je	 $EXIT$242
$LN237@GetToken:

; 664  : 		{
; 665  : 			--pszCur;
; 666  : 			while( iswhite( *pszCur ) && *pszCur ) 

  00640	8a 4b ff	 mov	 cl, BYTE PTR [ebx-1]
  00643	4b		 dec	 ebx

; 22   : 	if(c > 0 && c <= 0x20)

  00644	8d 41 ff	 lea	 eax, DWORD PTR [ecx-1]
  00647	3c 1f		 cmp	 al, 31			; 0000001fH
  00649	77 04		 ja	 SHORT $LN23@GetToken

; 664  : 		{
; 665  : 			--pszCur;
; 666  : 			while( iswhite( *pszCur ) && *pszCur ) 

  0064b	84 c9		 test	 cl, cl
  0064d	75 f1		 jne	 SHORT $LN237@GetToken
$LN23@GetToken:

; 667  : 				--pszCur;
; 668  : 			++pszCur;
; 669  : 			if( isdigit2( token[0] ) )

  0064f	8b 4e 3c	 mov	 ecx, DWORD PTR [esi+60]
  00652	43		 inc	 ebx
  00653	8a 01		 mov	 al, BYTE PTR [ecx]
; File C:\IAGOS\server\v18\Source\Source\_Common\vutil.h

; 105  : 	if( c >= '0' && c <= '9' )

  00655	2c 30		 sub	 al, 48			; 00000030H
  00657	3c 09		 cmp	 al, 9
  00659	77 0a		 ja	 SHORT $LN210@GetToken
; File C:\IAGOS\server\v18\Source\Source\_Common\scanner.cpp

; 670  : 				tokenType = NUMBER;

  0065b	c7 86 40 08 00
	00 03 00 00 00	 mov	 DWORD PTR [esi+2112], 3
$LN210@GetToken:

; 671  : 			if(token[0]=='0' && token[1]=='x') 

  00665	80 39 30	 cmp	 BYTE PTR [ecx], 48	; 00000030H
  00668	0f 85 83 fb ff
	ff		 jne	 $EXIT$242
  0066e	80 79 01 78	 cmp	 BYTE PTR [ecx+1], 120	; 00000078H
  00672	0f 85 79 fb ff
	ff		 jne	 $EXIT$242
$LN29@GetToken:

; 845  : 
; 846  : EXIT:
; 847  : 	*pszCur = '\0';

  00678	c7 86 40 08 00
	00 04 00 00 00	 mov	 DWORD PTR [esi+2112], 4
  00682	e9 6a fb ff ff	 jmp	 $EXIT$242
$LN129@GetToken:
; File C:\Program Files\Microsoft Visual Studio\2022\Professional\VC\Tools\MSVC\14.44.35207\atlmfc\include\atlsimpstr.h

; 730  : 		return( int( strlen( psz ) ) );

  00687	8b ca		 mov	 ecx, edx
  00689	8d 59 01	 lea	 ebx, DWORD PTR [ecx+1]
  0068c	0f 1f 40 00	 npad	 4
$LL223@GetToken:
  00690	8a 01		 mov	 al, BYTE PTR [ecx]
  00692	41		 inc	 ecx
  00693	84 c0		 test	 al, al
  00695	75 f9		 jne	 SHORT $LL223@GetToken
  00697	2b cb		 sub	 ecx, ebx
$LN128@GetToken:

; 606  : 		SetString( pszSrc, StringLength( pszSrc ) );

  00699	51		 push	 ecx
  0069a	52		 push	 edx
  0069b	8d 4e 20	 lea	 ecx, DWORD PTR [esi+32]
  0069e	e8 00 00 00 00	 call	 ?SetString@?$CSimpleStringT@D$0A@@ATL@@QAEXPBDH@Z ; ATL::CSimpleStringT<char,0>::SetString
; File C:\IAGOS\server\v18\Source\Source\_Common\scanner.cpp

; 849  : 	return tokenType;

  006a3	8b 86 40 08 00
	00		 mov	 eax, DWORD PTR [esi+2112]

; 850  : }

  006a9	8b 4d f4	 mov	 ecx, DWORD PTR __$EHRec$[ebp]
  006ac	64 89 0d 00 00
	00 00		 mov	 DWORD PTR fs:0, ecx
  006b3	59		 pop	 ecx
  006b4	5f		 pop	 edi
  006b5	5e		 pop	 esi
  006b6	5b		 pop	 ebx
  006b7	8b e5		 mov	 esp, ebp
  006b9	5d		 pop	 ebp
  006ba	c2 04 00	 ret	 4
  006bd	0f 1f 00	 npad	 3
$LN222@GetToken:
  006c0	00 00 00 00	 DD	 $LN56@GetToken
  006c4	00 00 00 00	 DD	 $LN61@GetToken
  006c8	00 00 00 00	 DD	 $LN52@GetToken
  006cc	00 00 00 00	 DD	 $LN66@GetToken
  006d0	00 00 00 00	 DD	 $LN69@GetToken
$LN221@GetToken:
  006d4	00		 DB	 0
  006d5	04		 DB	 4
  006d6	04		 DB	 4
  006d7	04		 DB	 4
  006d8	04		 DB	 4
  006d9	04		 DB	 4
  006da	04		 DB	 4
  006db	04		 DB	 4
  006dc	04		 DB	 4
  006dd	04		 DB	 4
  006de	04		 DB	 4
  006df	04		 DB	 4
  006e0	04		 DB	 4
  006e1	04		 DB	 4
  006e2	04		 DB	 4
  006e3	04		 DB	 4
  006e4	04		 DB	 4
  006e5	04		 DB	 4
  006e6	04		 DB	 4
  006e7	04		 DB	 4
  006e8	04		 DB	 4
  006e9	04		 DB	 4
  006ea	04		 DB	 4
  006eb	04		 DB	 4
  006ec	04		 DB	 4
  006ed	04		 DB	 4
  006ee	04		 DB	 4
  006ef	01		 DB	 1
  006f0	02		 DB	 2
  006f1	03		 DB	 3
_TEXT	ENDS
;	COMDAT text$x
text$x	SEGMENT
__unwindfunclet$?GetToken@CScanner@@UAEHH@Z$12:
  00000	8d 4d 08	 lea	 ecx, DWORD PTR _string$2[ebp]
  00003	e9 00 00 00 00	 jmp	 ??1?$CStringT@DV?$StrTraitMFC@DV?$ChTraitsCRT@D@ATL@@@@@ATL@@QAE@XZ ; ATL::CStringT<char,StrTraitMFC<char,ATL::ChTraitsCRT<char> > >::~CStringT<char,StrTraitMFC<char,ATL::ChTraitsCRT<char> > >
  00008	cc		 int	 3
  00009	cc		 int	 3
  0000a	cc		 int	 3
  0000b	cc		 int	 3
  0000c	cc		 int	 3
__ehhandler$?GetToken@CScanner@@UAEHH@Z:
  0000d	90		 npad	 1
  0000e	90		 npad	 1
  0000f	8b 54 24 08	 mov	 edx, DWORD PTR [esp+8]
  00013	8d 42 0c	 lea	 eax, DWORD PTR [edx+12]
  00016	8b 4a e8	 mov	 ecx, DWORD PTR [edx-24]
  00019	33 c8		 xor	 ecx, eax
  0001b	e8 00 00 00 00	 call	 @__security_check_cookie@4
  00020	b8 00 00 00 00	 mov	 eax, OFFSET __ehfuncinfo$?GetToken@CScanner@@UAEHH@Z
  00025	e9 00 00 00 00	 jmp	 ___CxxFrameHandler3
text$x	ENDS
?GetToken@CScanner@@UAEHH@Z ENDP			; CScanner::GetToken
; Function compile flags: /Ogtp
; File C:\IAGOS\server\v18\Source\Source\_Common\scanner.cpp
;	COMDAT ?PutBack@CScanner@@UAEXXZ
_TEXT	SEGMENT
?PutBack@CScanner@@UAEXXZ PROC				; CScanner::PutBack, COMDAT
; _this$ = ecx

; 991  : { 

  00000	56		 push	 esi
  00001	8b f1		 mov	 esi, ecx

; 992  : 	for( CHAR *t = m_mszToken; *t; t++ ) 

  00003	80 7e 40 00	 cmp	 BYTE PTR [esi+64], 0
  00007	8d 46 40	 lea	 eax, DWORD PTR [esi+64]
  0000a	8d 56 18	 lea	 edx, DWORD PTR [esi+24]
  0000d	74 0d		 je	 SHORT $LN12@PutBack
  0000f	8b 0a		 mov	 ecx, DWORD PTR [edx]
$LL4@PutBack:

; 993  : 		m_pProg--;

  00011	49		 dec	 ecx
  00012	8d 40 01	 lea	 eax, DWORD PTR [eax+1]
  00015	89 0a		 mov	 DWORD PTR [edx], ecx
  00017	80 38 00	 cmp	 BYTE PTR [eax], 0
  0001a	75 f5		 jne	 SHORT $LL4@PutBack
$LN12@PutBack:

; 994  : 	if( tokenType == STRING ) // µűżČÇĄ Ăł¸® 

  0001c	83 be 40 08 00
	00 06		 cmp	 DWORD PTR [esi+2112], 6
  00023	5e		 pop	 esi
  00024	75 03		 jne	 SHORT $LN5@PutBack

; 995  : 		m_pProg-=2;

  00026	83 02 fe	 add	 DWORD PTR [edx], -2	; fffffffeH
$LN5@PutBack:

; 996  : }

  00029	c3		 ret	 0
?PutBack@CScanner@@UAEXXZ ENDP				; CScanner::PutBack
_TEXT	ENDS
; Function compile flags: /Ogtp
; File C:\IAGOS\server\v18\Source\Source\_Common\scanner.cpp
;	COMDAT ?GetLineNum@CScanner@@UAEHPAX@Z
_TEXT	SEGMENT
_lpProg$ = 8						; size = 4
?GetLineNum@CScanner@@UAEHPAX@Z PROC			; CScanner::GetLineNum, COMDAT
; _this$ = ecx

; 536  : {

  00000	55		 push	 ebp
  00001	8b ec		 mov	 ebp, esp
  00003	56		 push	 esi

; 537  : 	int nLine = 0;
; 538  : 	if( lpProg == NULL )

  00004	8b 75 08	 mov	 esi, DWORD PTR _lpProg$[ebp]
  00007	33 d2		 xor	 edx, edx
  00009	85 f6		 test	 esi, esi
  0000b	75 03		 jne	 SHORT $LN4@GetLineNum

; 539  : 		lpProg = m_pProg;

  0000d	8b 71 18	 mov	 esi, DWORD PTR [ecx+24]
$LN4@GetLineNum:

; 540  : 	
; 541  : 	CHAR* pCur = m_pBuf;
; 542  : 	while( lpProg != pCur )

  00010	8b 49 1c	 mov	 ecx, DWORD PTR [ecx+28]
  00013	3b ce		 cmp	 ecx, esi
  00015	74 10		 je	 SHORT $LN14@GetLineNum
$LL9@GetLineNum:

; 543  : 	{
; 544  : 		if( *pCur == '\r' )
; 545  : 			nLine++;
; 546  : 		pCur++;

  00017	80 39 0d	 cmp	 BYTE PTR [ecx], 13	; 0000000dH
  0001a	8d 42 01	 lea	 eax, DWORD PTR [edx+1]
  0001d	0f 45 c2	 cmovne	 eax, edx
  00020	41		 inc	 ecx
  00021	8b d0		 mov	 edx, eax
  00023	3b ce		 cmp	 ecx, esi
  00025	75 f0		 jne	 SHORT $LL9@GetLineNum
$LN14@GetLineNum:

; 547  : 	}
; 548  : 	return nLine;
; 549  : }

  00027	8b c2		 mov	 eax, edx
  00029	5e		 pop	 esi
  0002a	5d		 pop	 ebp
  0002b	c2 04 00	 ret	 4
?GetLineNum@CScanner@@UAEHPAX@Z ENDP			; CScanner::GetLineNum
_TEXT	ENDS
; Function compile flags: /Ogtp
; File C:\IAGOS\server\v18\Source\Source\_Common\Scanner.h
;	COMDAT ?GoMark@CScanner@@UAEXXZ
_TEXT	SEGMENT
?GoMark@CScanner@@UAEXXZ PROC				; CScanner::GoMark, COMDAT
; _this$ = ecx

; 69   : 	virtual void	GoMark() { if( m_lpMark ) m_pProg = m_lpMark; }

  00000	8b 41 14	 mov	 eax, DWORD PTR [ecx+20]
  00003	85 c0		 test	 eax, eax
  00005	74 03		 je	 SHORT $LN2@GoMark
  00007	89 41 18	 mov	 DWORD PTR [ecx+24], eax
$LN2@GoMark:
  0000a	c3		 ret	 0
?GoMark@CScanner@@UAEXXZ ENDP				; CScanner::GoMark
_TEXT	ENDS
; Function compile flags: /Ogtp
; File C:\IAGOS\server\v18\Source\Source\_Common\Scanner.h
;	COMDAT ?SetMark@CScanner@@UAEXXZ
_TEXT	SEGMENT
?SetMark@CScanner@@UAEXXZ PROC				; CScanner::SetMark, COMDAT
; _this$ = ecx

; 68   : 	virtual void	SetMark() { m_lpMark = m_pProg; }

  00000	8b 41 18	 mov	 eax, DWORD PTR [ecx+24]
  00003	89 41 14	 mov	 DWORD PTR [ecx+20], eax
  00006	c3		 ret	 0
?SetMark@CScanner@@UAEXXZ ENDP				; CScanner::SetMark
_TEXT	ENDS
; Function compile flags: /Ogtp
; File C:\IAGOS\server\v18\Source\Source\_Common\scanner.cpp
;	COMDAT ?Read@CScanner@@IAEHPAVCFileIO@@H@Z
_TEXT	SEGMENT
_pFile$ = 8						; size = 4
___formal$ = 12						; size = 4
?Read@CScanner@@IAEHPAVCFileIO@@H@Z PROC		; CScanner::Read, COMDAT
; _this$ = ecx

; 475  : {

  00000	55		 push	 ebp
  00001	8b ec		 mov	 ebp, esp
  00003	53		 push	 ebx
  00004	56		 push	 esi
  00005	57		 push	 edi
  00006	8b f9		 mov	 edi, ecx

; 476  : 	m_bMemFlag = 0;
; 477  : 	m_nProgSize = pFile->GetLength();

  00008	8b 4d 08	 mov	 ecx, DWORD PTR _pFile$[ebp]
  0000b	c6 47 08 00	 mov	 BYTE PTR [edi+8], 0
  0000f	8b 01		 mov	 eax, DWORD PTR [ecx]
  00011	ff 50 24	 call	 DWORD PTR [eax+36]
  00014	89 47 0c	 mov	 DWORD PTR [edi+12], eax

; 478  : 
; 479  : 	int nSize = m_nProgSize + 2;

  00017	8d 58 02	 lea	 ebx, DWORD PTR [eax+2]

; 480  : 	char* pProg = new char[ nSize ];

  0001a	53		 push	 ebx
  0001b	e8 00 00 00 00	 call	 ??_U@YAPAXI@Z		; operator new[]
  00020	8b f0		 mov	 esi, eax
  00022	83 c4 04	 add	 esp, 4

; 481  : 	if( !pProg )

  00025	85 f6		 test	 esi, esi
  00027	75 07		 jne	 SHORT $LN2@Read

; 504  : 	}
; 505  : 	return 1;
; 506  : }

  00029	5f		 pop	 edi
  0002a	5e		 pop	 esi
  0002b	5b		 pop	 ebx
  0002c	5d		 pop	 ebp
  0002d	c2 08 00	 ret	 8
$LN2@Read:

; 482  : 		return 0;
; 483  : 
; 484  : 	m_pProg = m_pBuf = pProg;
; 485  : 	pFile->Read( m_pBuf, m_nProgSize );

  00030	8b 4d 08	 mov	 ecx, DWORD PTR _pFile$[ebp]
  00033	6a 01		 push	 1
  00035	ff 77 0c	 push	 DWORD PTR [edi+12]
  00038	89 77 1c	 mov	 DWORD PTR [edi+28], esi
  0003b	89 77 18	 mov	 DWORD PTR [edi+24], esi
  0003e	8b 01		 mov	 eax, DWORD PTR [ecx]
  00040	56		 push	 esi
  00041	ff 50 2c	 call	 DWORD PTR [eax+44]

; 486  : 	// 0xfffeŔÇ 2ąŮŔĚĆ®¸¦ »©°í łÎ(0x0000)Ŕ» 2ąŮŔĚĆ®¸¦ Ăß°ˇÇŘĽ­ °á±ą m_nProgSize´Â şŻČ­ ľřŔ˝.
; 487  : 	*(pProg + m_nProgSize ) = '\0';

  00044	8b 47 0c	 mov	 eax, DWORD PTR [edi+12]
  00047	c6 04 06 00	 mov	 BYTE PTR [esi+eax], 0

; 488  : 	*(pProg + m_nProgSize + 1 ) = '\0';

  0004b	8b 47 0c	 mov	 eax, DWORD PTR [edi+12]
  0004e	c6 44 30 01 00	 mov	 BYTE PTR [eax+esi+1], 0

; 489  : 
; 490  : 	if( (BYTE)*(pProg + 0 ) == 0xff && (BYTE)*(pProg + 1 ) == 0xfe ) // is unicode ?

  00053	80 3e ff	 cmp	 BYTE PTR [esi], 255	; 000000ffH
  00056	75 49		 jne	 SHORT $LN3@Read
  00058	80 7e 01 fe	 cmp	 BYTE PTR [esi+1], 254	; 000000feH
  0005c	75 43		 jne	 SHORT $LN3@Read

; 491  : 	{
; 492  : 		// ĹŘ˝şĆ®°ˇ ŔŻ´ĎÄÚµĺŔĎ °ćżě ¸ÖĆĽąŮŔĚĆ®·Î şŻ°ć 
; 493  : 		char* lpMultiByte = new char[ nSize ];

  0005e	53		 push	 ebx
  0005f	e8 00 00 00 00	 call	 ??_U@YAPAXI@Z		; operator new[]

; 494  : 		int nResult = WideCharToMultiByteEx( g_codePage, 0, 

  00064	6a 00		 push	 0
  00066	6a 00		 push	 0
  00068	53		 push	 ebx
  00069	8b f8		 mov	 edi, eax
  0006b	8d 4e 02	 lea	 ecx, DWORD PTR [esi+2]
  0006e	57		 push	 edi
  0006f	6a ff		 push	 -1
  00071	51		 push	 ecx
  00072	0f b7 0d 00 00
	00 00		 movzx	 ecx, WORD PTR ?g_codePage@@3GA ; g_codePage
  00079	6a 00		 push	 0
  0007b	51		 push	 ecx
  0007c	e8 00 00 00 00	 call	 ?WideCharToMultiByteEx@@YAHIKPB_WHPADHPBDPAH@Z ; WideCharToMultiByteEx
  00081	83 c4 24	 add	 esp, 36			; 00000024H

; 495  : 			                               (LPCWSTR)(pProg + 2), -1, 
; 496  : 			                               lpMultiByte, nSize, 
; 497  : 										   NULL, NULL );
; 498  : 		if( nResult > 0 )

  00084	85 c0		 test	 eax, eax
  00086	7e 10		 jle	 SHORT $LN4@Read

; 499  : 		{
; 500  : 			lpMultiByte[nResult-1] = 0;
; 501  : 			memcpy( pProg, lpMultiByte, nResult );

  00088	50		 push	 eax
  00089	57		 push	 edi
  0008a	56		 push	 esi
  0008b	c6 44 38 ff 00	 mov	 BYTE PTR [eax+edi-1], 0
  00090	e8 00 00 00 00	 call	 _memcpy
  00095	83 c4 0c	 add	 esp, 12			; 0000000cH
$LN4@Read:

; 502  : 		}
; 503  : 		safe_delete_array( lpMultiByte );

  00098	57		 push	 edi
  00099	e8 00 00 00 00	 call	 ??_V@YAXPAX@Z		; operator delete[]
  0009e	83 c4 04	 add	 esp, 4
$LN3@Read:

; 504  : 	}
; 505  : 	return 1;
; 506  : }

  000a1	5f		 pop	 edi
  000a2	5e		 pop	 esi
  000a3	b8 01 00 00 00	 mov	 eax, 1
  000a8	5b		 pop	 ebx
  000a9	5d		 pop	 ebp
  000aa	c2 08 00	 ret	 8
?Read@CScanner@@IAEHPAVCFileIO@@H@Z ENDP		; CScanner::Read
_TEXT	ENDS
; Function compile flags: /Ogtp
; File C:\IAGOS\server\v18\Source\Source\_Common\scanner.cpp
; File C:\Program Files\Microsoft Visual Studio\2022\Professional\VC\Tools\MSVC\14.44.35207\atlmfc\include\atlsimpstr.h
; File C:\IAGOS\server\v18\Source\Source\_Common\scanner.cpp
; File C:\Program Files\Microsoft Visual Studio\2022\Professional\VC\Tools\MSVC\14.44.35207\atlmfc\include\atlsimpstr.h
; File C:\IAGOS\server\v18\Source\Source\_Common\scanner.cpp
;	COMDAT ??1CScanner@@UAE@XZ
_TEXT	SEGMENT
__$EHRec$ = -12						; size = 12
??1CScanner@@UAE@XZ PROC				; CScanner::~CScanner, COMDAT
; _this$ = ecx

; 463  : {

  00000	55		 push	 ebp
  00001	8b ec		 mov	 ebp, esp
  00003	6a ff		 push	 -1
  00005	68 00 00 00 00	 push	 __ehhandler$??1CScanner@@UAE@XZ
  0000a	64 a1 00 00 00
	00		 mov	 eax, DWORD PTR fs:0
  00010	50		 push	 eax
  00011	56		 push	 esi
  00012	57		 push	 edi
  00013	a1 00 00 00 00	 mov	 eax, DWORD PTR ___security_cookie
  00018	33 c5		 xor	 eax, ebp
  0001a	50		 push	 eax
  0001b	8d 45 f4	 lea	 eax, DWORD PTR __$EHRec$[ebp]
  0001e	64 a3 00 00 00
	00		 mov	 DWORD PTR fs:0, eax
  00024	8b f1		 mov	 esi, ecx
  00026	c7 06 00 00 00
	00		 mov	 DWORD PTR [esi], OFFSET ??_7CScanner@@6B@

; 464  : 	Free();

  0002c	e8 00 00 00 00	 call	 ?Free@CScanner@@QAEXXZ	; CScanner::Free
; File C:\Program Files\Microsoft Visual Studio\2022\Professional\VC\Tools\MSVC\14.44.35207\atlmfc\include\atlsimpstr.h

; 804  : 		return( reinterpret_cast< CStringData* >( m_pszData )-1 );

  00031	8b 96 50 08 00
	00		 mov	 edx, DWORD PTR [esi+2128]

; 92   : 		if( _InterlockedDecrement( &nRefs ) <= 0 )

  00037	83 cf ff	 or	 edi, -1

; 804  : 		return( reinterpret_cast< CStringData* >( m_pszData )-1 );

  0003a	83 ea 10	 sub	 edx, 16			; 00000010H

; 92   : 		if( _InterlockedDecrement( &nRefs ) <= 0 )

  0003d	8b c7		 mov	 eax, edi
  0003f	f0 0f c1 42 0c	 lock	  xadd	 DWORD PTR [edx+12], eax
  00044	48		 dec	 eax
  00045	85 c0		 test	 eax, eax
  00047	7f 08		 jg	 SHORT $LN11@CScanner

; 93   : 		{
; 94   : 			pStringMgr->Free( this );

  00049	8b 0a		 mov	 ecx, DWORD PTR [edx]
  0004b	52		 push	 edx
  0004c	8b 01		 mov	 eax, DWORD PTR [ecx]
  0004e	ff 50 04	 call	 DWORD PTR [eax+4]
$LN11@CScanner:
; File C:\IAGOS\server\v18\Source\Source\_Common\scanner.cpp

; 465  : }

  00051	8d 4e 24	 lea	 ecx, DWORD PTR [esi+36]
  00054	e8 00 00 00 00	 call	 ??1?$basic_string@DU?$char_traits@D@std@@V?$allocator@D@2@@std@@QAE@XZ ; std::basic_string<char,std::char_traits<char>,std::allocator<char> >::~basic_string<char,std::char_traits<char>,std::allocator<char> >
; File C:\Program Files\Microsoft Visual Studio\2022\Professional\VC\Tools\MSVC\14.44.35207\atlmfc\include\atlsimpstr.h

; 804  : 		return( reinterpret_cast< CStringData* >( m_pszData )-1 );

  00059	8b 56 20	 mov	 edx, DWORD PTR [esi+32]
  0005c	83 ea 10	 sub	 edx, 16			; 00000010H

; 92   : 		if( _InterlockedDecrement( &nRefs ) <= 0 )

  0005f	f0 0f c1 7a 0c	 lock	  xadd	 DWORD PTR [edx+12], edi
  00064	4f		 dec	 edi
  00065	85 ff		 test	 edi, edi
  00067	7f 08		 jg	 SHORT $LN20@CScanner

; 93   : 		{
; 94   : 			pStringMgr->Free( this );

  00069	8b 0a		 mov	 ecx, DWORD PTR [edx]
  0006b	52		 push	 edx
  0006c	8b 01		 mov	 eax, DWORD PTR [ecx]
  0006e	ff 50 04	 call	 DWORD PTR [eax+4]
$LN20@CScanner:
; File C:\IAGOS\server\v18\Source\Source\_Common\scanner.cpp

; 465  : }

  00071	8b 4d f4	 mov	 ecx, DWORD PTR __$EHRec$[ebp]
  00074	64 89 0d 00 00
	00 00		 mov	 DWORD PTR fs:0, ecx
  0007b	59		 pop	 ecx
  0007c	5f		 pop	 edi
  0007d	5e		 pop	 esi
  0007e	8b e5		 mov	 esp, ebp
  00080	5d		 pop	 ebp
  00081	c3		 ret	 0
  00082	cc		 int	 3
  00083	cc		 int	 3
  00084	cc		 int	 3
  00085	cc		 int	 3
  00086	cc		 int	 3
_TEXT	ENDS
;	COMDAT text$x
text$x	SEGMENT
__ehhandler$??1CScanner@@UAE@XZ:
  00000	90		 npad	 1
  00001	90		 npad	 1
  00002	8b 54 24 08	 mov	 edx, DWORD PTR [esp+8]
  00006	8d 42 0c	 lea	 eax, DWORD PTR [edx+12]
  00009	8b 4a f4	 mov	 ecx, DWORD PTR [edx-12]
  0000c	33 c8		 xor	 ecx, eax
  0000e	e8 00 00 00 00	 call	 @__security_check_cookie@4
  00013	b8 00 00 00 00	 mov	 eax, OFFSET __ehfuncinfo$??1CScanner@@UAE@XZ
  00018	e9 00 00 00 00	 jmp	 ___CxxFrameHandler3
text$x	ENDS
??1CScanner@@UAE@XZ ENDP				; CScanner::~CScanner
; Function compile flags: /Ogtp
; File C:\IAGOS\server\v18\Source\Source\_Common\scanner.cpp
; File C:\Program Files\Microsoft Visual Studio\2022\Professional\VC\Tools\MSVC\14.44.35207\atlmfc\include\afxstr.h
; File C:\Program Files\Microsoft Visual Studio\2022\Professional\VC\Tools\MSVC\14.44.35207\atlmfc\include\atlsimpstr.h
; File C:\IAGOS\server\v18\Source\Source\_Common\Scanner.h
; File C:\Program Files\Microsoft Visual Studio\2022\Professional\VC\Tools\MSVC\14.44.35207\atlmfc\include\atlconv.h
; File C:\IAGOS\server\v18\Source\Source\_Common\Scanner.h
; File C:\Program Files\Microsoft Visual Studio\2022\Professional\VC\Tools\MSVC\14.44.35207\atlmfc\include\atlconv.h
; File C:\Program Files\Microsoft Visual Studio\2022\Professional\VC\Tools\MSVC\14.44.35207\atlmfc\include\afxstr.h
; File C:\Program Files\Microsoft Visual Studio\2022\Professional\VC\Tools\MSVC\14.44.35207\atlmfc\include\cstringt.h
; File C:\Program Files\Microsoft Visual Studio\2022\Professional\VC\Tools\MSVC\14.44.35207\atlmfc\include\atlsimpstr.h
; File C:\IAGOS\server\v18\Source\Source\_Common\scanner.cpp
; File C:\Program Files\Microsoft Visual Studio\2022\Professional\VC\Tools\MSVC\14.44.35207\atlmfc\include\atlsimpstr.h
; File C:\IAGOS\server\v18\Source\Source\_Common\scanner.cpp
; File C:\Program Files\Microsoft Visual Studio\2022\Professional\VC\Tools\MSVC\14.44.35207\atlmfc\include\atlsimpstr.h
; File C:\IAGOS\server\v18\Source\Source\_Common\scanner.cpp
;	COMDAT ??0CScanner@@QAE@PAXH@Z
_TEXT	SEGMENT
_this$GSCopy$ = -156					; size = 4
_this$ = -152						; size = 4
$T2 = -148						; size = 132
__$ArrayPad$ = -16					; size = 4
__$EHRec$ = -12						; size = 12
_p$ = 8							; size = 4
_bComma$ = 12						; size = 4
??0CScanner@@QAE@PAXH@Z PROC				; CScanner::CScanner, COMDAT
; _this$ = ecx

; 452  : {

  00000	55		 push	 ebp
  00001	8b ec		 mov	 ebp, esp
  00003	6a ff		 push	 -1
  00005	68 00 00 00 00	 push	 __ehhandler$??0CScanner@@QAE@PAXH@Z
  0000a	64 a1 00 00 00
	00		 mov	 eax, DWORD PTR fs:0
  00010	50		 push	 eax
  00011	81 ec 90 00 00
	00		 sub	 esp, 144		; 00000090H
  00017	a1 00 00 00 00	 mov	 eax, DWORD PTR ___security_cookie
  0001c	33 c5		 xor	 eax, ebp
  0001e	89 45 f0	 mov	 DWORD PTR __$ArrayPad$[ebp], eax
  00021	56		 push	 esi
  00022	50		 push	 eax
  00023	8d 45 f4	 lea	 eax, DWORD PTR __$EHRec$[ebp]
  00026	64 a3 00 00 00
	00		 mov	 DWORD PTR fs:0, eax
  0002c	8b f1		 mov	 esi, ecx
  0002e	89 b5 68 ff ff
	ff		 mov	 DWORD PTR _this$[ebp], esi
  00034	89 b5 64 ff ff
	ff		 mov	 DWORD PTR _this$GSCopy$[ebp], esi
  0003a	c7 06 00 00 00
	00		 mov	 DWORD PTR [esi], OFFSET ??_7CScanner@@6B@
; File C:\Program Files\Microsoft Visual Studio\2022\Professional\VC\Tools\MSVC\14.44.35207\atlmfc\include\afxstr.h

; 56   : 		return( AfxGetStringManager() );

  00040	e8 00 00 00 00	 call	 ?AfxGetStringManager@@YGPAUIAtlStringMgr@ATL@@XZ ; AfxGetStringManager
  00045	8b c8		 mov	 ecx, eax
; File C:\Program Files\Microsoft Visual Studio\2022\Professional\VC\Tools\MSVC\14.44.35207\atlmfc\include\atlsimpstr.h

; 209  : 		ATLENSURE( pStringMgr != NULL );

  00047	85 c9		 test	 ecx, ecx
  00049	0f 84 b4 00 00
	00		 je	 $LN44@CScanner

; 210  : 		CStringData* pData = pStringMgr->GetNilString();

  0004f	8b 01		 mov	 eax, DWORD PTR [ecx]
  00051	ff 50 0c	 call	 DWORD PTR [eax+12]

; 211  : 		Attach( pData );

  00054	83 c0 10	 add	 eax, 16			; 00000010H
  00057	89 46 20	 mov	 DWORD PTR [esi+32], eax
; File C:\IAGOS\server\v18\Source\Source\_Common\Scanner.h

; 58   : 	std::string lToken = CT2A(Token);

  0005a	50		 push	 eax
  0005b	8d 8d 6c ff ff
	ff		 lea	 ecx, DWORD PTR $T2[ebp]
  00061	c7 45 fc 00 00
	00 00		 mov	 DWORD PTR __$EHRec$[ebp+8], 0
  00068	e8 00 00 00 00	 call	 ??0?$CA2AEX@$0IA@@ATL@@QAE@PBD@Z ; ATL::CA2AEX<128>::CA2AEX<128>
  0006d	ff 30		 push	 DWORD PTR [eax]
  0006f	8d 4e 24	 lea	 ecx, DWORD PTR [esi+36]
  00072	c6 45 fc 01	 mov	 BYTE PTR __$EHRec$[ebp+8], 1
  00076	e8 00 00 00 00	 call	 ??0?$basic_string@DU?$char_traits@D@std@@V?$allocator@D@2@@std@@QAE@QBD@Z ; std::basic_string<char,std::char_traits<char>,std::allocator<char> >::basic_string<char,std::char_traits<char>,std::allocator<char> >
; File C:\Program Files\Microsoft Visual Studio\2022\Professional\VC\Tools\MSVC\14.44.35207\atlmfc\include\atlconv.h

; 162  : 	if( pBuff != pszFixedBuffer )

  0007b	8b 85 6c ff ff
	ff		 mov	 eax, DWORD PTR $T2[ebp]
  00081	8d 8d 70 ff ff
	ff		 lea	 ecx, DWORD PTR $T2[ebp+4]
; File C:\IAGOS\server\v18\Source\Source\_Common\Scanner.h

; 58   : 	std::string lToken = CT2A(Token);

  00087	c6 45 fc 00	 mov	 BYTE PTR __$EHRec$[ebp+8], 0
; File C:\Program Files\Microsoft Visual Studio\2022\Professional\VC\Tools\MSVC\14.44.35207\atlmfc\include\atlconv.h

; 162  : 	if( pBuff != pszFixedBuffer )

  0008b	3b c1		 cmp	 eax, ecx
  0008d	74 09		 je	 SHORT $LN25@CScanner

; 163  : 	{
; 164  : 		free( pBuff );

  0008f	50		 push	 eax
  00090	e8 00 00 00 00	 call	 _free
  00095	83 c4 04	 add	 esp, 4
$LN25@CScanner:
; File C:\Program Files\Microsoft Visual Studio\2022\Professional\VC\Tools\MSVC\14.44.35207\atlmfc\include\afxstr.h

; 56   : 		return( AfxGetStringManager() );

  00098	e8 00 00 00 00	 call	 ?AfxGetStringManager@@YGPAUIAtlStringMgr@ATL@@XZ ; AfxGetStringManager
; File C:\Program Files\Microsoft Visual Studio\2022\Professional\VC\Tools\MSVC\14.44.35207\atlmfc\include\cstringt.h

; 1014 : 		CThisSimpleString( StringTraits::GetDefaultManager() )

  0009d	8b c8		 mov	 ecx, eax
; File C:\Program Files\Microsoft Visual Studio\2022\Professional\VC\Tools\MSVC\14.44.35207\atlmfc\include\atlsimpstr.h

; 209  : 		ATLENSURE( pStringMgr != NULL );

  0009f	85 c9		 test	 ecx, ecx
  000a1	74 6a		 je	 SHORT $LN45@CScanner

; 210  : 		CStringData* pData = pStringMgr->GetNilString();

  000a3	8b 01		 mov	 eax, DWORD PTR [ecx]
  000a5	ff 50 0c	 call	 DWORD PTR [eax+12]
; File C:\IAGOS\server\v18\Source\Source\_Common\scanner.cpp

; 454  : 	m_pProg = m_pBuf = (CHAR*)p;

  000a8	8b 4d 08	 mov	 ecx, DWORD PTR _p$[ebp]
; File C:\Program Files\Microsoft Visual Studio\2022\Professional\VC\Tools\MSVC\14.44.35207\atlmfc\include\atlsimpstr.h

; 211  : 		Attach( pData );

  000ab	83 c0 10	 add	 eax, 16			; 00000010H
  000ae	89 86 50 08 00
	00		 mov	 DWORD PTR [esi+2128], eax
; File C:\IAGOS\server\v18\Source\Source\_Common\scanner.cpp

; 453  : 	m_bComma = bComma;

  000b4	8b 45 0c	 mov	 eax, DWORD PTR _bComma$[ebp]

; 454  : 	m_pProg = m_pBuf = (CHAR*)p;

  000b7	89 4e 1c	 mov	 DWORD PTR [esi+28], ecx
  000ba	89 4e 18	 mov	 DWORD PTR [esi+24], ecx

; 455  : 	m_bMemFlag = 1;
; 456  : 	dwValue	= 0;
; 457  : 	m_dwDef = 0;
; 458  : 	token = m_mszToken;

  000bd	8d 4e 40	 lea	 ecx, DWORD PTR [esi+64]
  000c0	89 46 04	 mov	 DWORD PTR [esi+4], eax

; 460  : }

  000c3	8b c6		 mov	 eax, esi
  000c5	c6 46 08 01	 mov	 BYTE PTR [esi+8], 1
  000c9	c7 86 4c 08 00
	00 00 00 00 00	 mov	 DWORD PTR [esi+2124], 0
  000d3	c7 46 10 00 00
	00 00		 mov	 DWORD PTR [esi+16], 0
  000da	89 4e 3c	 mov	 DWORD PTR [esi+60], ecx
  000dd	c7 86 54 08 00
	00 01 00 00 00	 mov	 DWORD PTR [esi+2132], 1
  000e7	8b 4d f4	 mov	 ecx, DWORD PTR __$EHRec$[ebp]
  000ea	64 89 0d 00 00
	00 00		 mov	 DWORD PTR fs:0, ecx
  000f1	59		 pop	 ecx
  000f2	5e		 pop	 esi
  000f3	8b 4d f0	 mov	 ecx, DWORD PTR __$ArrayPad$[ebp]
  000f6	33 cd		 xor	 ecx, ebp
  000f8	e8 00 00 00 00	 call	 @__security_check_cookie@4
  000fd	8b e5		 mov	 esp, ebp
  000ff	5d		 pop	 ebp
  00100	c2 08 00	 ret	 8
$LN44@CScanner:
; File C:\Program Files\Microsoft Visual Studio\2022\Professional\VC\Tools\MSVC\14.44.35207\atlmfc\include\atlsimpstr.h

; 209  : 		ATLENSURE( pStringMgr != NULL );

  00103	68 05 40 00 80	 push	 -2147467259		; 80004005H
  00108	e8 00 00 00 00	 call	 ?AtlThrowImpl@ATL@@YGXJ@Z ; ATL::AtlThrowImpl
$LN45@CScanner:
  0010d	68 05 40 00 80	 push	 -2147467259		; 80004005H
  00112	e8 00 00 00 00	 call	 ?AtlThrowImpl@ATL@@YGXJ@Z ; ATL::AtlThrowImpl
$LN42@CScanner:
  00117	cc		 int	 3
_TEXT	ENDS
;	COMDAT text$x
text$x	SEGMENT
__unwindfunclet$??0CScanner@@QAE@PAXH@Z$0:
  00000	8b 8d 64 ff ff
	ff		 mov	 ecx, DWORD PTR _this$GSCopy$[ebp]
  00006	83 c1 20	 add	 ecx, 32			; 00000020H
  00009	e9 00 00 00 00	 jmp	 ??1?$CStringT@DV?$StrTraitMFC@DV?$ChTraitsCRT@D@ATL@@@@@ATL@@QAE@XZ ; ATL::CStringT<char,StrTraitMFC<char,ATL::ChTraitsCRT<char> > >::~CStringT<char,StrTraitMFC<char,ATL::ChTraitsCRT<char> > >
__unwindfunclet$??0CScanner@@QAE@PAXH@Z$1:
  0000e	8d 8d 6c ff ff
	ff		 lea	 ecx, DWORD PTR $T2[ebp]
  00014	e9 00 00 00 00	 jmp	 ??1?$CA2AEX@$0IA@@ATL@@QAE@XZ ; ATL::CA2AEX<128>::~CA2AEX<128>
  00019	cc		 int	 3
  0001a	cc		 int	 3
  0001b	cc		 int	 3
  0001c	cc		 int	 3
  0001d	cc		 int	 3
__ehhandler$??0CScanner@@QAE@PAXH@Z:
  0001e	90		 npad	 1
  0001f	90		 npad	 1
  00020	8b 54 24 08	 mov	 edx, DWORD PTR [esp+8]
  00024	8d 42 0c	 lea	 eax, DWORD PTR [edx+12]
  00027	8b 8a 68 ff ff
	ff		 mov	 ecx, DWORD PTR [edx-152]
  0002d	33 c8		 xor	 ecx, eax
  0002f	e8 00 00 00 00	 call	 @__security_check_cookie@4
  00034	8b 4a fc	 mov	 ecx, DWORD PTR [edx-4]
  00037	33 c8		 xor	 ecx, eax
  00039	e8 00 00 00 00	 call	 @__security_check_cookie@4
  0003e	b8 00 00 00 00	 mov	 eax, OFFSET __ehfuncinfo$??0CScanner@@QAE@PAXH@Z
  00043	e9 00 00 00 00	 jmp	 ___CxxFrameHandler3
text$x	ENDS
??0CScanner@@QAE@PAXH@Z ENDP				; CScanner::CScanner
; Function compile flags: /Ogtp
; File C:\IAGOS\server\v18\Source\Source\_Common\scanner.cpp
; File C:\Program Files\Microsoft Visual Studio\2022\Professional\VC\Tools\MSVC\14.44.35207\atlmfc\include\afxstr.h
; File C:\Program Files\Microsoft Visual Studio\2022\Professional\VC\Tools\MSVC\14.44.35207\atlmfc\include\atlsimpstr.h
; File C:\IAGOS\server\v18\Source\Source\_Common\Scanner.h
; File C:\Program Files\Microsoft Visual Studio\2022\Professional\VC\Tools\MSVC\14.44.35207\atlmfc\include\atlconv.h
; File C:\IAGOS\server\v18\Source\Source\_Common\Scanner.h
; File C:\Program Files\Microsoft Visual Studio\2022\Professional\VC\Tools\MSVC\14.44.35207\atlmfc\include\atlconv.h
; File C:\Program Files\Microsoft Visual Studio\2022\Professional\VC\Tools\MSVC\14.44.35207\atlmfc\include\afxstr.h
; File C:\Program Files\Microsoft Visual Studio\2022\Professional\VC\Tools\MSVC\14.44.35207\atlmfc\include\cstringt.h
; File C:\Program Files\Microsoft Visual Studio\2022\Professional\VC\Tools\MSVC\14.44.35207\atlmfc\include\atlsimpstr.h
; File C:\IAGOS\server\v18\Source\Source\_Common\scanner.cpp
; File C:\Program Files\Microsoft Visual Studio\2022\Professional\VC\Tools\MSVC\14.44.35207\atlmfc\include\atlsimpstr.h
; File C:\IAGOS\server\v18\Source\Source\_Common\scanner.cpp
; File C:\Program Files\Microsoft Visual Studio\2022\Professional\VC\Tools\MSVC\14.44.35207\atlmfc\include\atlsimpstr.h
; File C:\IAGOS\server\v18\Source\Source\_Common\scanner.cpp
;	COMDAT ??0CScanner@@QAE@H@Z
_TEXT	SEGMENT
_this$GSCopy$ = -156					; size = 4
_this$ = -152						; size = 4
$T2 = -148						; size = 132
__$ArrayPad$ = -16					; size = 4
__$EHRec$ = -12						; size = 12
_bComma$ = 8						; size = 4
??0CScanner@@QAE@H@Z PROC				; CScanner::CScanner, COMDAT
; _this$ = ecx

; 440  : {

  00000	55		 push	 ebp
  00001	8b ec		 mov	 ebp, esp
  00003	6a ff		 push	 -1
  00005	68 00 00 00 00	 push	 __ehhandler$??0CScanner@@QAE@H@Z
  0000a	64 a1 00 00 00
	00		 mov	 eax, DWORD PTR fs:0
  00010	50		 push	 eax
  00011	81 ec 90 00 00
	00		 sub	 esp, 144		; 00000090H
  00017	a1 00 00 00 00	 mov	 eax, DWORD PTR ___security_cookie
  0001c	33 c5		 xor	 eax, ebp
  0001e	89 45 f0	 mov	 DWORD PTR __$ArrayPad$[ebp], eax
  00021	56		 push	 esi
  00022	50		 push	 eax
  00023	8d 45 f4	 lea	 eax, DWORD PTR __$EHRec$[ebp]
  00026	64 a3 00 00 00
	00		 mov	 DWORD PTR fs:0, eax
  0002c	8b f1		 mov	 esi, ecx
  0002e	89 b5 68 ff ff
	ff		 mov	 DWORD PTR _this$[ebp], esi
  00034	89 b5 64 ff ff
	ff		 mov	 DWORD PTR _this$GSCopy$[ebp], esi
  0003a	c7 06 00 00 00
	00		 mov	 DWORD PTR [esi], OFFSET ??_7CScanner@@6B@
; File C:\Program Files\Microsoft Visual Studio\2022\Professional\VC\Tools\MSVC\14.44.35207\atlmfc\include\afxstr.h

; 56   : 		return( AfxGetStringManager() );

  00040	e8 00 00 00 00	 call	 ?AfxGetStringManager@@YGPAUIAtlStringMgr@ATL@@XZ ; AfxGetStringManager
  00045	8b c8		 mov	 ecx, eax
; File C:\Program Files\Microsoft Visual Studio\2022\Professional\VC\Tools\MSVC\14.44.35207\atlmfc\include\atlsimpstr.h

; 209  : 		ATLENSURE( pStringMgr != NULL );

  00047	85 c9		 test	 ecx, ecx
  00049	0f 84 c0 00 00
	00		 je	 $LN44@CScanner

; 210  : 		CStringData* pData = pStringMgr->GetNilString();

  0004f	8b 01		 mov	 eax, DWORD PTR [ecx]
  00051	ff 50 0c	 call	 DWORD PTR [eax+12]

; 211  : 		Attach( pData );

  00054	83 c0 10	 add	 eax, 16			; 00000010H
  00057	89 46 20	 mov	 DWORD PTR [esi+32], eax
; File C:\IAGOS\server\v18\Source\Source\_Common\Scanner.h

; 58   : 	std::string lToken = CT2A(Token);

  0005a	50		 push	 eax
  0005b	8d 8d 6c ff ff
	ff		 lea	 ecx, DWORD PTR $T2[ebp]
  00061	c7 45 fc 00 00
	00 00		 mov	 DWORD PTR __$EHRec$[ebp+8], 0
  00068	e8 00 00 00 00	 call	 ??0?$CA2AEX@$0IA@@ATL@@QAE@PBD@Z ; ATL::CA2AEX<128>::CA2AEX<128>
  0006d	ff 30		 push	 DWORD PTR [eax]
  0006f	8d 4e 24	 lea	 ecx, DWORD PTR [esi+36]
  00072	c6 45 fc 01	 mov	 BYTE PTR __$EHRec$[ebp+8], 1
  00076	e8 00 00 00 00	 call	 ??0?$basic_string@DU?$char_traits@D@std@@V?$allocator@D@2@@std@@QAE@QBD@Z ; std::basic_string<char,std::char_traits<char>,std::allocator<char> >::basic_string<char,std::char_traits<char>,std::allocator<char> >
; File C:\Program Files\Microsoft Visual Studio\2022\Professional\VC\Tools\MSVC\14.44.35207\atlmfc\include\atlconv.h

; 162  : 	if( pBuff != pszFixedBuffer )

  0007b	8b 85 6c ff ff
	ff		 mov	 eax, DWORD PTR $T2[ebp]
  00081	8d 8d 70 ff ff
	ff		 lea	 ecx, DWORD PTR $T2[ebp+4]
; File C:\IAGOS\server\v18\Source\Source\_Common\Scanner.h

; 58   : 	std::string lToken = CT2A(Token);

  00087	c6 45 fc 00	 mov	 BYTE PTR __$EHRec$[ebp+8], 0
; File C:\Program Files\Microsoft Visual Studio\2022\Professional\VC\Tools\MSVC\14.44.35207\atlmfc\include\atlconv.h

; 162  : 	if( pBuff != pszFixedBuffer )

  0008b	3b c1		 cmp	 eax, ecx
  0008d	74 09		 je	 SHORT $LN25@CScanner

; 163  : 	{
; 164  : 		free( pBuff );

  0008f	50		 push	 eax
  00090	e8 00 00 00 00	 call	 _free
  00095	83 c4 04	 add	 esp, 4
$LN25@CScanner:
; File C:\Program Files\Microsoft Visual Studio\2022\Professional\VC\Tools\MSVC\14.44.35207\atlmfc\include\afxstr.h

; 56   : 		return( AfxGetStringManager() );

  00098	e8 00 00 00 00	 call	 ?AfxGetStringManager@@YGPAUIAtlStringMgr@ATL@@XZ ; AfxGetStringManager
; File C:\Program Files\Microsoft Visual Studio\2022\Professional\VC\Tools\MSVC\14.44.35207\atlmfc\include\cstringt.h

; 1014 : 		CThisSimpleString( StringTraits::GetDefaultManager() )

  0009d	8b c8		 mov	 ecx, eax
; File C:\Program Files\Microsoft Visual Studio\2022\Professional\VC\Tools\MSVC\14.44.35207\atlmfc\include\atlsimpstr.h

; 209  : 		ATLENSURE( pStringMgr != NULL );

  0009f	85 c9		 test	 ecx, ecx
  000a1	74 76		 je	 SHORT $LN45@CScanner

; 210  : 		CStringData* pData = pStringMgr->GetNilString();

  000a3	8b 01		 mov	 eax, DWORD PTR [ecx]
  000a5	ff 50 0c	 call	 DWORD PTR [eax+12]

; 211  : 		Attach( pData );

  000a8	83 c0 10	 add	 eax, 16			; 00000010H
; File C:\IAGOS\server\v18\Source\Source\_Common\scanner.cpp

; 447  : 	token = m_mszToken;

  000ab	8d 4e 40	 lea	 ecx, DWORD PTR [esi+64]
; File C:\Program Files\Microsoft Visual Studio\2022\Professional\VC\Tools\MSVC\14.44.35207\atlmfc\include\atlsimpstr.h

; 211  : 		Attach( pData );

  000ae	89 86 50 08 00
	00		 mov	 DWORD PTR [esi+2128], eax
; File C:\IAGOS\server\v18\Source\Source\_Common\scanner.cpp

; 441  : 	m_bComma = bComma;

  000b4	8b 45 08	 mov	 eax, DWORD PTR _bComma$[ebp]
  000b7	89 46 04	 mov	 DWORD PTR [esi+4], eax

; 449  : }

  000ba	8b c6		 mov	 eax, esi
  000bc	c7 46 1c 00 00
	00 00		 mov	 DWORD PTR [esi+28], 0
  000c3	c7 46 18 00 00
	00 00		 mov	 DWORD PTR [esi+24], 0
  000ca	c6 46 08 01	 mov	 BYTE PTR [esi+8], 1
  000ce	c7 86 4c 08 00
	00 00 00 00 00	 mov	 DWORD PTR [esi+2124], 0
  000d8	c7 46 14 00 00
	00 00		 mov	 DWORD PTR [esi+20], 0
  000df	c7 46 10 00 00
	00 00		 mov	 DWORD PTR [esi+16], 0
  000e6	89 4e 3c	 mov	 DWORD PTR [esi+60], ecx
  000e9	c7 86 54 08 00
	00 01 00 00 00	 mov	 DWORD PTR [esi+2132], 1
  000f3	8b 4d f4	 mov	 ecx, DWORD PTR __$EHRec$[ebp]
  000f6	64 89 0d 00 00
	00 00		 mov	 DWORD PTR fs:0, ecx
  000fd	59		 pop	 ecx
  000fe	5e		 pop	 esi
  000ff	8b 4d f0	 mov	 ecx, DWORD PTR __$ArrayPad$[ebp]
  00102	33 cd		 xor	 ecx, ebp
  00104	e8 00 00 00 00	 call	 @__security_check_cookie@4
  00109	8b e5		 mov	 esp, ebp
  0010b	5d		 pop	 ebp
  0010c	c2 04 00	 ret	 4
$LN44@CScanner:
; File C:\Program Files\Microsoft Visual Studio\2022\Professional\VC\Tools\MSVC\14.44.35207\atlmfc\include\atlsimpstr.h

; 209  : 		ATLENSURE( pStringMgr != NULL );

  0010f	68 05 40 00 80	 push	 -2147467259		; 80004005H
  00114	e8 00 00 00 00	 call	 ?AtlThrowImpl@ATL@@YGXJ@Z ; ATL::AtlThrowImpl
$LN45@CScanner:
  00119	68 05 40 00 80	 push	 -2147467259		; 80004005H
  0011e	e8 00 00 00 00	 call	 ?AtlThrowImpl@ATL@@YGXJ@Z ; ATL::AtlThrowImpl
$LN42@CScanner:
  00123	cc		 int	 3
_TEXT	ENDS
;	COMDAT text$x
text$x	SEGMENT
__unwindfunclet$??0CScanner@@QAE@H@Z$0:
  00000	8b 8d 64 ff ff
	ff		 mov	 ecx, DWORD PTR _this$GSCopy$[ebp]
  00006	83 c1 20	 add	 ecx, 32			; 00000020H
  00009	e9 00 00 00 00	 jmp	 ??1?$CStringT@DV?$StrTraitMFC@DV?$ChTraitsCRT@D@ATL@@@@@ATL@@QAE@XZ ; ATL::CStringT<char,StrTraitMFC<char,ATL::ChTraitsCRT<char> > >::~CStringT<char,StrTraitMFC<char,ATL::ChTraitsCRT<char> > >
__unwindfunclet$??0CScanner@@QAE@H@Z$1:
  0000e	8d 8d 6c ff ff
	ff		 lea	 ecx, DWORD PTR $T2[ebp]
  00014	e9 00 00 00 00	 jmp	 ??1?$CA2AEX@$0IA@@ATL@@QAE@XZ ; ATL::CA2AEX<128>::~CA2AEX<128>
  00019	cc		 int	 3
  0001a	cc		 int	 3
  0001b	cc		 int	 3
  0001c	cc		 int	 3
  0001d	cc		 int	 3
__ehhandler$??0CScanner@@QAE@H@Z:
  0001e	90		 npad	 1
  0001f	90		 npad	 1
  00020	8b 54 24 08	 mov	 edx, DWORD PTR [esp+8]
  00024	8d 42 0c	 lea	 eax, DWORD PTR [edx+12]
  00027	8b 8a 68 ff ff
	ff		 mov	 ecx, DWORD PTR [edx-152]
  0002d	33 c8		 xor	 ecx, eax
  0002f	e8 00 00 00 00	 call	 @__security_check_cookie@4
  00034	8b 4a fc	 mov	 ecx, DWORD PTR [edx-4]
  00037	33 c8		 xor	 ecx, eax
  00039	e8 00 00 00 00	 call	 @__security_check_cookie@4
  0003e	b8 00 00 00 00	 mov	 eax, OFFSET __ehfuncinfo$??0CScanner@@QAE@H@Z
  00043	e9 00 00 00 00	 jmp	 ___CxxFrameHandler3
text$x	ENDS
??0CScanner@@QAE@H@Z ENDP				; CScanner::CScanner
; Function compile flags: /Ogtp
; File C:\IAGOS\server\v18\Source\Source\_Common\file.h
;	COMDAT ??_GCFileIO@@UAEPAXI@Z
_TEXT	SEGMENT
__$EHRec$ = -12						; size = 12
___flags$ = 8						; size = 4
??_GCFileIO@@UAEPAXI@Z PROC				; CFileIO::`scalar deleting destructor', COMDAT
; _this$ = ecx
  00000	55		 push	 ebp
  00001	8b ec		 mov	 ebp, esp
  00003	6a ff		 push	 -1
  00005	68 00 00 00 00	 push	 __ehhandler$??_GCFileIO@@UAEPAXI@Z
  0000a	64 a1 00 00 00
	00		 mov	 eax, DWORD PTR fs:0
  00010	50		 push	 eax
  00011	56		 push	 esi
  00012	a1 00 00 00 00	 mov	 eax, DWORD PTR ___security_cookie
  00017	33 c5		 xor	 eax, ebp
  00019	50		 push	 eax
  0001a	8d 45 f4	 lea	 eax, DWORD PTR __$EHRec$[ebp]
  0001d	64 a3 00 00 00
	00		 mov	 DWORD PTR fs:0, eax
  00023	8b f1		 mov	 esi, ecx

; 17   : 	virtual ~CFileIO() { Close(); }

  00025	c7 45 fc 00 00
	00 00		 mov	 DWORD PTR __$EHRec$[ebp+8], 0
  0002c	c7 06 00 00 00
	00		 mov	 DWORD PTR [esi], OFFSET ??_7CFileIO@@6B@
  00032	e8 00 00 00 00	 call	 ?Close@CFileIO@@UAEHXZ	; CFileIO::Close
  00037	f6 45 08 01	 test	 BYTE PTR ___flags$[ebp], 1
  0003b	74 0b		 je	 SHORT $LN10@scalar
  0003d	6a 08		 push	 8
  0003f	56		 push	 esi
  00040	e8 00 00 00 00	 call	 ??3@YAXPAXI@Z		; operator delete
  00045	83 c4 08	 add	 esp, 8
$LN10@scalar:
  00048	8b c6		 mov	 eax, esi
  0004a	8b 4d f4	 mov	 ecx, DWORD PTR __$EHRec$[ebp]
  0004d	64 89 0d 00 00
	00 00		 mov	 DWORD PTR fs:0, ecx
  00054	59		 pop	 ecx
  00055	5e		 pop	 esi
  00056	8b e5		 mov	 esp, ebp
  00058	5d		 pop	 ebp
  00059	c2 04 00	 ret	 4
  0005c	cc		 int	 3
  0005d	cc		 int	 3
  0005e	cc		 int	 3
  0005f	cc		 int	 3
  00060	cc		 int	 3
_TEXT	ENDS
;	COMDAT text$x
text$x	SEGMENT
__ehhandler$??_GCFileIO@@UAEPAXI@Z:
  00000	90		 npad	 1
  00001	90		 npad	 1
  00002	8b 54 24 08	 mov	 edx, DWORD PTR [esp+8]
  00006	8d 42 0c	 lea	 eax, DWORD PTR [edx+12]
  00009	8b 4a f8	 mov	 ecx, DWORD PTR [edx-8]
  0000c	33 c8		 xor	 ecx, eax
  0000e	e8 00 00 00 00	 call	 @__security_check_cookie@4
  00013	b8 00 00 00 00	 mov	 eax, OFFSET __ehfuncinfo$??_GCFileIO@@UAEPAXI@Z
  00018	e9 00 00 00 00	 jmp	 ___CxxFrameHandler3
text$x	ENDS
??_GCFileIO@@UAEPAXI@Z ENDP				; CFileIO::`scalar deleting destructor'
; Function compile flags: /Ogtp
; File C:\IAGOS\server\v18\Source\Source\_Common\file.h
;	COMDAT ?Read@CFileIO@@UAEIPAXII@Z
_TEXT	SEGMENT
_ptr$ = 8						; size = 4
_size$ = 12						; size = 4
_n$ = 16						; size = 4
?Read@CFileIO@@UAEIPAXII@Z PROC				; CFileIO::Read, COMDAT
; _this$ = ecx

; 27   : 	virtual size_t Read( void *ptr, size_t size, size_t n = 1 )	{ return fread( ptr, size, n, fp ); }

  00000	55		 push	 ebp
  00001	8b ec		 mov	 ebp, esp
  00003	ff 71 04	 push	 DWORD PTR [ecx+4]
  00006	ff 75 10	 push	 DWORD PTR _n$[ebp]
  00009	ff 75 0c	 push	 DWORD PTR _size$[ebp]
  0000c	ff 75 08	 push	 DWORD PTR _ptr$[ebp]
  0000f	e8 00 00 00 00	 call	 _fread
  00014	83 c4 10	 add	 esp, 16			; 00000010H
  00017	5d		 pop	 ebp
  00018	c2 0c 00	 ret	 12			; 0000000cH
?Read@CFileIO@@UAEIPAXII@Z ENDP				; CFileIO::Read
_TEXT	ENDS
; Function compile flags: /Ogtp
; File C:\IAGOS\server\v18\Source\Source\_Common\file.h
;	COMDAT ?GetLength@CFileIO@@UAEJXZ
_TEXT	SEGMENT
?GetLength@CFileIO@@UAEJXZ PROC				; CFileIO::GetLength, COMDAT
; _this$ = ecx

; 30   : 	int  Handle() { return fileno( fp ); }

  00000	ff 71 04	 push	 DWORD PTR [ecx+4]
  00003	e8 00 00 00 00	 call	 _fileno

; 26   : 	virtual long GetLength() { return _filelength( Handle() ); }

  00008	50		 push	 eax
  00009	e8 00 00 00 00	 call	 __filelength
  0000e	83 c4 08	 add	 esp, 8
  00011	c3		 ret	 0
?GetLength@CFileIO@@UAEJXZ ENDP				; CFileIO::GetLength
_TEXT	ENDS
; Function compile flags: /Ogtp
; File C:\IAGOS\server\v18\Source\Source\_Common\file.h
;	COMDAT ?Seek@CFileIO@@UAEHJH@Z
_TEXT	SEGMENT
_offset$ = 8						; size = 4
_whence$ = 12						; size = 4
?Seek@CFileIO@@UAEHJH@Z PROC				; CFileIO::Seek, COMDAT
; _this$ = ecx

; 25   : 	virtual int  Seek( long offset, int whence ) { return fseek( fp, offset, whence ); }

  00000	55		 push	 ebp
  00001	8b ec		 mov	 ebp, esp
  00003	ff 75 0c	 push	 DWORD PTR _whence$[ebp]
  00006	ff 75 08	 push	 DWORD PTR _offset$[ebp]
  00009	ff 71 04	 push	 DWORD PTR [ecx+4]
  0000c	e8 00 00 00 00	 call	 _fseek
  00011	83 c4 0c	 add	 esp, 12			; 0000000cH
  00014	5d		 pop	 ebp
  00015	c2 08 00	 ret	 8
?Seek@CFileIO@@UAEHJH@Z ENDP				; CFileIO::Seek
_TEXT	ENDS
; Function compile flags: /Ogtp
; File C:\IAGOS\server\v18\Source\Source\_Common\file.h
;	COMDAT ?Tell@CFileIO@@UAEJXZ
_TEXT	SEGMENT
?Tell@CFileIO@@UAEJXZ PROC				; CFileIO::Tell, COMDAT
; _this$ = ecx

; 24   : 	virtual long Tell()   { return ftell(fp); }

  00000	ff 71 04	 push	 DWORD PTR [ecx+4]
  00003	e8 00 00 00 00	 call	 _ftell
  00008	83 c4 04	 add	 esp, 4
  0000b	c3		 ret	 0
?Tell@CFileIO@@UAEJXZ ENDP				; CFileIO::Tell
_TEXT	ENDS
; Function compile flags: /Ogtp
; File C:\IAGOS\server\v18\Source\Source\_Common\file.h
;	COMDAT ?GetDW@CFileIO@@UAEKXZ
_TEXT	SEGMENT
_dw$ = -4						; size = 4
?GetDW@CFileIO@@UAEKXZ PROC				; CFileIO::GetDW, COMDAT
; _this$ = ecx

; 23   : 	virtual DWORD GetDW() { DWORD dw; fread( &dw, sizeof( dw ), 1, fp ); return dw; }

  00000	55		 push	 ebp
  00001	8b ec		 mov	 ebp, esp
  00003	51		 push	 ecx
  00004	ff 71 04	 push	 DWORD PTR [ecx+4]
  00007	8d 45 fc	 lea	 eax, DWORD PTR _dw$[ebp]
  0000a	6a 01		 push	 1
  0000c	6a 04		 push	 4
  0000e	50		 push	 eax
  0000f	e8 00 00 00 00	 call	 _fread
  00014	8b 45 fc	 mov	 eax, DWORD PTR _dw$[ebp]
  00017	83 c4 10	 add	 esp, 16			; 00000010H
  0001a	8b e5		 mov	 esp, ebp
  0001c	5d		 pop	 ebp
  0001d	c3		 ret	 0
?GetDW@CFileIO@@UAEKXZ ENDP				; CFileIO::GetDW
_TEXT	ENDS
; Function compile flags: /Ogtp
; File C:\IAGOS\server\v18\Source\Source\_Common\file.h
;	COMDAT ?GetW@CFileIO@@UAEGXZ
_TEXT	SEGMENT
?GetW@CFileIO@@UAEGXZ PROC				; CFileIO::GetW, COMDAT
; _this$ = ecx

; 22   : 	virtual WORD  GetW()  { return getwc( fp ); } 

  00000	ff 71 04	 push	 DWORD PTR [ecx+4]
  00003	e8 00 00 00 00	 call	 _getwc
  00008	83 c4 04	 add	 esp, 4
  0000b	c3		 ret	 0
?GetW@CFileIO@@UAEGXZ ENDP				; CFileIO::GetW
_TEXT	ENDS
; Function compile flags: /Ogtp
; File C:\IAGOS\server\v18\Source\Source\_Common\file.h
;	COMDAT ?GetC@CFileIO@@UAEDXZ
_TEXT	SEGMENT
?GetC@CFileIO@@UAEDXZ PROC				; CFileIO::GetC, COMDAT
; _this$ = ecx

; 21   : 	virtual char  GetC()  { return (char)getc( fp ); }

  00000	ff 71 04	 push	 DWORD PTR [ecx+4]
  00003	e8 00 00 00 00	 call	 _getc
  00008	83 c4 04	 add	 esp, 4
  0000b	c3		 ret	 0
?GetC@CFileIO@@UAEDXZ ENDP				; CFileIO::GetC
_TEXT	ENDS
; Function compile flags: /Ogtp
; File C:\IAGOS\server\v18\Source\Source\_Common\file.h
;	COMDAT ?Flush@CFileIO@@UAEHXZ
_TEXT	SEGMENT
?Flush@CFileIO@@UAEHXZ PROC				; CFileIO::Flush, COMDAT
; _this$ = ecx

; 20   : 	virtual int	 Flush()  { return fflush( fp ); }

  00000	ff 71 04	 push	 DWORD PTR [ecx+4]
  00003	e8 00 00 00 00	 call	 _fflush
  00008	83 c4 04	 add	 esp, 4
  0000b	c3		 ret	 0
?Flush@CFileIO@@UAEHXZ ENDP				; CFileIO::Flush
_TEXT	ENDS
; Function compile flags: /Ogtp
; File C:\IAGOS\server\v18\Source\Source\_Common\file.h
;	COMDAT ??1CFileIO@@UAE@XZ
_TEXT	SEGMENT
__$EHRec$ = -12						; size = 12
??1CFileIO@@UAE@XZ PROC					; CFileIO::~CFileIO, COMDAT
; _this$ = ecx

; 17   : 	virtual ~CFileIO() { Close(); }

  00000	55		 push	 ebp
  00001	8b ec		 mov	 ebp, esp
  00003	6a ff		 push	 -1
  00005	68 00 00 00 00	 push	 __ehhandler$??1CFileIO@@UAE@XZ
  0000a	64 a1 00 00 00
	00		 mov	 eax, DWORD PTR fs:0
  00010	50		 push	 eax
  00011	a1 00 00 00 00	 mov	 eax, DWORD PTR ___security_cookie
  00016	33 c5		 xor	 eax, ebp
  00018	50		 push	 eax
  00019	8d 45 f4	 lea	 eax, DWORD PTR __$EHRec$[ebp]
  0001c	64 a3 00 00 00
	00		 mov	 DWORD PTR fs:0, eax
  00022	c7 01 00 00 00
	00		 mov	 DWORD PTR [ecx], OFFSET ??_7CFileIO@@6B@
  00028	e8 00 00 00 00	 call	 ?Close@CFileIO@@UAEHXZ	; CFileIO::Close
  0002d	8b 4d f4	 mov	 ecx, DWORD PTR __$EHRec$[ebp]
  00030	64 89 0d 00 00
	00 00		 mov	 DWORD PTR fs:0, ecx
  00037	59		 pop	 ecx
  00038	8b e5		 mov	 esp, ebp
  0003a	5d		 pop	 ebp
  0003b	c3		 ret	 0
  0003c	cc		 int	 3
  0003d	cc		 int	 3
  0003e	cc		 int	 3
  0003f	cc		 int	 3
  00040	cc		 int	 3
_TEXT	ENDS
;	COMDAT text$x
text$x	SEGMENT
__ehhandler$??1CFileIO@@UAE@XZ:
  00000	90		 npad	 1
  00001	90		 npad	 1
  00002	8b 54 24 08	 mov	 edx, DWORD PTR [esp+8]
  00006	8d 42 0c	 lea	 eax, DWORD PTR [edx+12]
  00009	8b 4a fc	 mov	 ecx, DWORD PTR [edx-4]
  0000c	33 c8		 xor	 ecx, eax
  0000e	e8 00 00 00 00	 call	 @__security_check_cookie@4
  00013	b8 00 00 00 00	 mov	 eax, OFFSET __ehfuncinfo$??1CFileIO@@UAE@XZ
  00018	e9 00 00 00 00	 jmp	 ___CxxFrameHandler3
text$x	ENDS
??1CFileIO@@UAE@XZ ENDP					; CFileIO::~CFileIO
; Function compile flags: /Ogtp
; File C:\Program Files\Microsoft Visual Studio\2022\Professional\VC\Tools\MSVC\14.44.35207\include\xstring
; File C:\Program Files\Microsoft Visual Studio\2022\Professional\VC\Tools\MSVC\14.44.35207\include\xmemory
; File C:\Program Files\Microsoft Visual Studio\2022\Professional\VC\Tools\MSVC\14.44.35207\include\xstring
; File C:\Program Files\Microsoft Visual Studio\2022\Professional\VC\Tools\MSVC\14.44.35207\include\xmemory
; File C:\Program Files\Microsoft Visual Studio\2022\Professional\VC\Tools\MSVC\14.44.35207\include\xstring
; File C:\Program Files\Microsoft Visual Studio\2022\Professional\VC\Tools\MSVC\14.44.35207\include\xmemory
; File C:\Program Files\Microsoft Visual Studio\2022\Professional\VC\Tools\MSVC\14.44.35207\include\xstring
;	COMDAT ??1?$basic_string@DU?$char_traits@D@std@@V?$allocator@D@2@@std@@QAE@XZ
_TEXT	SEGMENT
??1?$basic_string@DU?$char_traits@D@std@@V?$allocator@D@2@@std@@QAE@XZ PROC ; std::basic_string<char,std::char_traits<char>,std::allocator<char> >::~basic_string<char,std::char_traits<char>,std::allocator<char> >, COMDAT
; _this$ = ecx

; 1382 :     _CONSTEXPR20 ~basic_string() noexcept {

  00000	56		 push	 esi
  00001	8b f1		 mov	 esi, ecx

; 453  :         return _Myres > _Small_string_capacity;

  00003	8b 4e 14	 mov	 ecx, DWORD PTR [esi+20]
  00006	83 f9 0f	 cmp	 ecx, 15			; 0000000fH

; 3083 :         if (_My_data._Large_mode_engaged()) {

  00009	76 27		 jbe	 SHORT $LN19@basic_stri
; File C:\Program Files\Microsoft Visual Studio\2022\Professional\VC\Tools\MSVC\14.44.35207\include\xmemory

; 985  :         _STD _Deallocate<_New_alignof<_Ty>>(_Ptr, sizeof(_Ty) * _Count);

  0000b	8b 06		 mov	 eax, DWORD PTR [esi]
; File C:\Program Files\Microsoft Visual Studio\2022\Professional\VC\Tools\MSVC\14.44.35207\include\xstring

; 852  :         _Al.deallocate(_Old_ptr, _Capacity + 1); // +1 for null terminator

  0000d	41		 inc	 ecx
; File C:\Program Files\Microsoft Visual Studio\2022\Professional\VC\Tools\MSVC\14.44.35207\include\xmemory

; 284  :         if (_Bytes >= _Big_allocation_threshold) {

  0000e	81 f9 00 10 00
	00		 cmp	 ecx, 4096		; 00001000H
  00014	72 12		 jb	 SHORT $LN24@basic_stri

; 205  :     const uintptr_t _Ptr_container   = _Ptr_user[-1];

  00016	8b 50 fc	 mov	 edx, DWORD PTR [eax-4]
  00019	83 c1 23	 add	 ecx, 35			; 00000023H

; 206  : 
; 207  :     // If the following asserts, it likely means that we are performing
; 208  :     // an aligned delete on memory coming from an unaligned allocation.
; 209  :     _STL_ASSERT(_Ptr_user[-2] == _Big_allocation_sentinel, "invalid argument");
; 210  : 
; 211  :     // Extra paranoia on aligned allocation/deallocation; ensure _Ptr_container is
; 212  :     // in range [_Min_back_shift, _Non_user_size]
; 213  : #ifdef _DEBUG
; 214  :     constexpr uintptr_t _Min_back_shift = 2 * sizeof(void*);
; 215  : #else // ^^^ defined(_DEBUG) / !defined(_DEBUG) vvv
; 216  :     constexpr uintptr_t _Min_back_shift = sizeof(void*);
; 217  : #endif // ^^^ !defined(_DEBUG) ^^^
; 218  :     const uintptr_t _Back_shift = reinterpret_cast<uintptr_t>(_Ptr) - _Ptr_container;

  0001c	2b c2		 sub	 eax, edx

; 219  :     _STL_VERIFY(_Back_shift >= _Min_back_shift && _Back_shift <= _Non_user_size, "invalid argument");

  0001e	83 c0 fc	 add	 eax, -4			; fffffffcH
  00021	83 f8 1f	 cmp	 eax, 31			; 0000001fH
  00024	77 1f		 ja	 SHORT $LN23@basic_stri

; 220  :     _Ptr = reinterpret_cast<void*>(_Ptr_container);

  00026	8b c2		 mov	 eax, edx
$LN24@basic_stri:

; 289  :         ::operator delete(_Ptr, _Bytes);

  00028	51		 push	 ecx
  00029	50		 push	 eax
  0002a	e8 00 00 00 00	 call	 ??3@YAXPAXI@Z		; operator delete
  0002f	83 c4 08	 add	 esp, 8
$LN19@basic_stri:
; File C:\Program Files\Microsoft Visual Studio\2022\Professional\VC\Tools\MSVC\14.44.35207\include\xstring

; 3090 :         _My_data._Mysize = 0;

  00032	c7 46 10 00 00
	00 00		 mov	 DWORD PTR [esi+16], 0

; 3091 :         _My_data._Myres  = _Small_string_capacity;

  00039	c7 46 14 0f 00
	00 00		 mov	 DWORD PTR [esi+20], 15	; 0000000fH

; 3092 :         // the _Traits::assign is last so the codegen doesn't think the char write can alias this
; 3093 :         _Traits::assign(_My_data._Bx._Buf[0], _Elem());

  00040	c6 06 00	 mov	 BYTE PTR [esi], 0
  00043	5e		 pop	 esi

; 1390 :     }

  00044	c3		 ret	 0
$LN23@basic_stri:
; File C:\Program Files\Microsoft Visual Studio\2022\Professional\VC\Tools\MSVC\14.44.35207\include\xmemory

; 219  :     _STL_VERIFY(_Back_shift >= _Min_back_shift && _Back_shift <= _Non_user_size, "invalid argument");

  00045	6a 00		 push	 0
  00047	6a 00		 push	 0
  00049	6a 00		 push	 0
  0004b	6a 00		 push	 0
  0004d	6a 00		 push	 0
  0004f	e8 00 00 00 00	 call	 __invoke_watson
$LN33@basic_stri:
  00054	cc		 int	 3
??1?$basic_string@DU?$char_traits@D@std@@V?$allocator@D@2@@std@@QAE@XZ ENDP ; std::basic_string<char,std::char_traits<char>,std::allocator<char> >::~basic_string<char,std::char_traits<char>,std::allocator<char> >
_TEXT	ENDS
; Function compile flags: /Ogtp
; File C:\Program Files\Microsoft Visual Studio\2022\Professional\VC\Tools\MSVC\14.44.35207\include\xstring
; File C:\Program Files\Microsoft Visual Studio\2022\Professional\VC\Tools\MSVC\14.44.35207\include\__msvc_string_view.hpp
; File C:\Program Files\Microsoft Visual Studio\2022\Professional\VC\Tools\MSVC\14.44.35207\include\xstring
; File C:\Program Files\Microsoft Visual Studio\2022\Professional\VC\Tools\MSVC\14.44.35207\include\__msvc_string_view.hpp
; File C:\Program Files\Microsoft Visual Studio\2022\Professional\VC\Tools\MSVC\14.44.35207\include\xstring
; File C:\Program Files\Microsoft Visual Studio\2022\Professional\VC\Tools\MSVC\14.44.35207\include\__msvc_string_view.hpp
; File C:\Program Files\Microsoft Visual Studio\2022\Professional\VC\Tools\MSVC\14.44.35207\include\xstring
; File C:\Program Files\Microsoft Visual Studio\2022\Professional\VC\Tools\MSVC\14.44.35207\include\__msvc_string_view.hpp
; File C:\Program Files\Microsoft Visual Studio\2022\Professional\VC\Tools\MSVC\14.44.35207\include\xstring
; File C:\Program Files\Microsoft Visual Studio\2022\Professional\VC\Tools\MSVC\14.44.35207\include\xmemory
; File C:\Program Files\Microsoft Visual Studio\2022\Professional\VC\Tools\MSVC\14.44.35207\include\xstring
; File C:\Program Files\Microsoft Visual Studio\2022\Professional\VC\Tools\MSVC\14.44.35207\include\xmemory
; File C:\Program Files\Microsoft Visual Studio\2022\Professional\VC\Tools\MSVC\14.44.35207\include\xstring
; File C:\Program Files\Microsoft Visual Studio\2022\Professional\VC\Tools\MSVC\14.44.35207\include\__msvc_string_view.hpp
; File C:\Program Files\Microsoft Visual Studio\2022\Professional\VC\Tools\MSVC\14.44.35207\include\xstring
; File C:\Program Files\Microsoft Visual Studio\2022\Professional\VC\Tools\MSVC\14.44.35207\include\__msvc_string_view.hpp
; File C:\Program Files\Microsoft Visual Studio\2022\Professional\VC\Tools\MSVC\14.44.35207\include\xstring
; File C:\Program Files\Microsoft Visual Studio\2022\Professional\VC\Tools\MSVC\14.44.35207\include\__msvc_string_view.hpp
; File C:\Program Files\Microsoft Visual Studio\2022\Professional\VC\Tools\MSVC\14.44.35207\include\xstring
;	COMDAT ??0?$basic_string@DU?$char_traits@D@std@@V?$allocator@D@2@@std@@QAE@QBD@Z
_TEXT	SEGMENT
$T1 = -4						; size = 4
__Ptr$ = 8						; size = 4
??0?$basic_string@DU?$char_traits@D@std@@V?$allocator@D@2@@std@@QAE@QBD@Z PROC ; std::basic_string<char,std::char_traits<char>,std::allocator<char> >::basic_string<char,std::char_traits<char>,std::allocator<char> >, COMDAT
; _this$ = ecx

; 768  :     _CONSTEXPR20 basic_string(_In_z_ const _Elem* const _Ptr) : _Mypair(_Zero_then_variadic_args_t{}) {

  00000	55		 push	 ebp
  00001	8b ec		 mov	 ebp, esp
  00003	51		 push	 ecx
  00004	53		 push	 ebx
  00005	56		 push	 esi
  00006	8b d9		 mov	 ebx, ecx
  00008	0f 57 c0	 xorps	 xmm0, xmm0
  0000b	57		 push	 edi
; File C:\Program Files\Microsoft Visual Studio\2022\Professional\VC\Tools\MSVC\14.44.35207\include\__msvc_string_view.hpp

; 459  :         return _CSTD strlen(reinterpret_cast<const char*>(_First));

  0000c	8b 7d 08	 mov	 edi, DWORD PTR __Ptr$[ebp]
  0000f	8b f7		 mov	 esi, edi
; File C:\Program Files\Microsoft Visual Studio\2022\Professional\VC\Tools\MSVC\14.44.35207\include\xstring

; 493  :         _CONSTEXPR20 _Bxty() noexcept : _Buf() {} // user-provided, for fancy pointers

  00011	0f 11 03	 movups	 XMMWORD PTR [ebx], xmm0

; 517  :     size_type _Mysize = 0; // current length of string (size)

  00014	c7 43 10 00 00
	00 00		 mov	 DWORD PTR [ebx+16], 0

; 518  :     size_type _Myres  = 0; // current storage reserved for string (capacity)

  0001b	c7 43 14 00 00
	00 00		 mov	 DWORD PTR [ebx+20], 0
; File C:\Program Files\Microsoft Visual Studio\2022\Professional\VC\Tools\MSVC\14.44.35207\include\__msvc_string_view.hpp

; 459  :         return _CSTD strlen(reinterpret_cast<const char*>(_First));

  00022	8d 4e 01	 lea	 ecx, DWORD PTR [esi+1]
$LL51@basic_stri:
  00025	8a 06		 mov	 al, BYTE PTR [esi]
  00027	46		 inc	 esi
  00028	84 c0		 test	 al, al
  0002a	75 f9		 jne	 SHORT $LL51@basic_stri
  0002c	2b f1		 sub	 esi, ecx
; File C:\Program Files\Microsoft Visual Studio\2022\Professional\VC\Tools\MSVC\14.44.35207\include\xstring

; 881  :         if (_Count > max_size()) {

  0002e	81 fe ff ff ff
	7f		 cmp	 esi, 2147483647		; 7fffffffH
  00034	0f 87 9b 00 00
	00		 ja	 $LN62@basic_stri

; 883  :         }
; 884  : 
; 885  :         auto& _Al       = _Getal();
; 886  :         auto&& _Alproxy = _GET_PROXY_ALLOCATOR(_Alty, _Al);
; 887  :         _Container_proxy_ptr<_Alty> _Proxy(_Alproxy, _My_data);
; 888  : 
; 889  :         if (_Count <= _Small_string_capacity) {

  0003a	83 fe 0f	 cmp	 esi, 15			; 0000000fH
  0003d	77 24		 ja	 SHORT $LN21@basic_stri
; File C:\Program Files\Microsoft Visual Studio\2022\Professional\VC\Tools\MSVC\14.44.35207\include\__msvc_string_view.hpp

; 121  :         _CSTD memcpy(_First1, _First2, _Count * sizeof(_Elem));

  0003f	56		 push	 esi
  00040	57		 push	 edi
  00041	53		 push	 ebx
; File C:\Program Files\Microsoft Visual Studio\2022\Professional\VC\Tools\MSVC\14.44.35207\include\xstring

; 890  :             _My_data._Mysize = _Count;

  00042	89 73 10	 mov	 DWORD PTR [ebx+16], esi

; 891  :             _My_data._Myres  = _Small_string_capacity;

  00045	c7 43 14 0f 00
	00 00		 mov	 DWORD PTR [ebx+20], 15	; 0000000fH
; File C:\Program Files\Microsoft Visual Studio\2022\Professional\VC\Tools\MSVC\14.44.35207\include\__msvc_string_view.hpp

; 121  :         _CSTD memcpy(_First1, _First2, _Count * sizeof(_Elem));

  0004c	e8 00 00 00 00	 call	 _memcpy
; File C:\Program Files\Microsoft Visual Studio\2022\Professional\VC\Tools\MSVC\14.44.35207\include\xstring

; 898  :                 _Traits::assign(_My_data._Bx._Buf[_Count], _Elem());

  00051	c6 04 1e 00	 mov	 BYTE PTR [esi+ebx], 0

; 769  :         _Construct<_Construct_strategy::_From_ptr>(_Ptr, _Convert_size<size_type>(_Traits::length(_Ptr)));
; 770  :     }

  00055	83 c4 0c	 add	 esp, 12			; 0000000cH
  00058	8b c3		 mov	 eax, ebx
  0005a	5f		 pop	 edi
  0005b	5e		 pop	 esi
  0005c	5b		 pop	 ebx
  0005d	8b e5		 mov	 esp, ebp
  0005f	5d		 pop	 ebp
  00060	c2 04 00	 ret	 4
$LN21@basic_stri:

; 2978 :         const size_type _Masked = _Requested | _Alloc_mask;

  00063	8b fe		 mov	 edi, esi
  00065	83 cf 0f	 or	 edi, 15			; 0000000fH
  00068	81 ff ff ff ff
	7f		 cmp	 edi, 2147483647		; 7fffffffH

; 2979 :         if (_Masked > _Max) { // the mask overflows, settle for max_size()

  0006e	76 12		 jbe	 SHORT $LN27@basic_stri

; 2980 :             return _Max;

  00070	b8 00 00 00 80	 mov	 eax, -2147483648	; 80000000H
  00075	bf ff ff ff 7f	 mov	 edi, 2147483647		; 7fffffffH
; File C:\Program Files\Microsoft Visual Studio\2022\Professional\VC\Tools\MSVC\14.44.35207\include\xmemory

; 253  :             return _Allocate_manually_vector_aligned<_Traits>(_Bytes);

  0007a	50		 push	 eax
  0007b	e8 00 00 00 00	 call	 ??$_Allocate_manually_vector_aligned@U_Default_allocate_traits@std@@@std@@YAPAXI@Z ; std::_Allocate_manually_vector_aligned<std::_Default_allocate_traits>
  00080	eb 26		 jmp	 SHORT $LN60@basic_stri
$LN27@basic_stri:
; File C:\Program Files\Microsoft Visual Studio\2022\Professional\VC\Tools\MSVC\14.44.35207\include\xstring

; 2987 :         return (_STD max)(_Masked, _Old + _Old / 2);

  00082	b8 16 00 00 00	 mov	 eax, 22			; 00000016H
  00087	3b f8		 cmp	 edi, eax
  00089	0f 42 f8	 cmovb	 edi, eax

; 825  :         ++_Capacity; // Take null terminator into consideration

  0008c	8d 47 01	 lea	 eax, DWORD PTR [edi+1]
; File C:\Program Files\Microsoft Visual Studio\2022\Professional\VC\Tools\MSVC\14.44.35207\include\xmemory

; 227  :     if (_Bytes == 0) {

  0008f	85 c0		 test	 eax, eax
  00091	74 18		 je	 SHORT $LN59@basic_stri
$LN41@basic_stri:

; 228  :         return nullptr;
; 229  :     }
; 230  : 
; 231  : #if _HAS_CXX20 // TRANSITION, GH-1532
; 232  :     if (_STD is_constant_evaluated()) {
; 233  :         return _Traits::_Allocate(_Bytes);
; 234  :     }
; 235  : #endif // _HAS_CXX20
; 236  : 
; 237  : #ifdef __cpp_aligned_new
; 238  :     if constexpr (_Align > __STDCPP_DEFAULT_NEW_ALIGNMENT__) {
; 239  :         size_t _Passed_align = _Align;
; 240  : #if defined(_M_IX86) || defined(_M_X64)
; 241  :         if (_Bytes >= _Big_allocation_threshold) {
; 242  :             // boost the alignment of big allocations to help autovectorization
; 243  :             _Passed_align = (_STD max)(_Align, _Big_allocation_alignment);
; 244  :         }
; 245  : #endif // defined(_M_IX86) || defined(_M_X64)
; 246  :         return _Traits::_Allocate_aligned(_Bytes, _Passed_align);
; 247  :     } else
; 248  : #endif // defined(__cpp_aligned_new)
; 249  :     {
; 250  : #if defined(_M_IX86) || defined(_M_X64)
; 251  :         if (_Bytes >= _Big_allocation_threshold) {

  00093	3d 00 10 00 00	 cmp	 eax, 4096		; 00001000H
  00098	72 08		 jb	 SHORT $LN42@basic_stri

; 253  :             return _Allocate_manually_vector_aligned<_Traits>(_Bytes);

  0009a	50		 push	 eax
  0009b	e8 00 00 00 00	 call	 ??$_Allocate_manually_vector_aligned@U_Default_allocate_traits@std@@@std@@YAPAXI@Z ; std::_Allocate_manually_vector_aligned<std::_Default_allocate_traits>
  000a0	eb 06		 jmp	 SHORT $LN60@basic_stri
$LN42@basic_stri:

; 136  :         return ::operator new(_Bytes);

  000a2	50		 push	 eax
  000a3	e8 00 00 00 00	 call	 ??2@YAPAXI@Z		; operator new
$LN60@basic_stri:
; File C:\Program Files\Microsoft Visual Studio\2022\Professional\VC\Tools\MSVC\14.44.35207\include\xstring

; 913  :         _Construct_in_place(_My_data._Bx._Ptr, _New_ptr);

  000a8	83 c4 04	 add	 esp, 4
$LN59@basic_stri:
; File C:\Program Files\Microsoft Visual Studio\2022\Professional\VC\Tools\MSVC\14.44.35207\include\__msvc_string_view.hpp

; 121  :         _CSTD memcpy(_First1, _First2, _Count * sizeof(_Elem));

  000ab	56		 push	 esi
  000ac	ff 75 08	 push	 DWORD PTR __Ptr$[ebp]
; File C:\Program Files\Microsoft Visual Studio\2022\Professional\VC\Tools\MSVC\14.44.35207\include\xstring

; 913  :         _Construct_in_place(_My_data._Bx._Ptr, _New_ptr);

  000af	89 45 fc	 mov	 DWORD PTR $T1[ebp], eax
; File C:\Program Files\Microsoft Visual Studio\2022\Professional\VC\Tools\MSVC\14.44.35207\include\__msvc_string_view.hpp

; 121  :         _CSTD memcpy(_First1, _First2, _Count * sizeof(_Elem));

  000b2	50		 push	 eax
; File C:\Program Files\Microsoft Visual Studio\2022\Professional\VC\Tools\MSVC\14.44.35207\include\xstring

; 913  :         _Construct_in_place(_My_data._Bx._Ptr, _New_ptr);

  000b3	89 03		 mov	 DWORD PTR [ebx], eax

; 914  : 
; 915  :         _My_data._Mysize = _Count;

  000b5	89 73 10	 mov	 DWORD PTR [ebx+16], esi

; 916  :         _My_data._Myres  = _New_capacity;

  000b8	89 7b 14	 mov	 DWORD PTR [ebx+20], edi
; File C:\Program Files\Microsoft Visual Studio\2022\Professional\VC\Tools\MSVC\14.44.35207\include\__msvc_string_view.hpp

; 121  :         _CSTD memcpy(_First1, _First2, _Count * sizeof(_Elem));

  000bb	e8 00 00 00 00	 call	 _memcpy
; File C:\Program Files\Microsoft Visual Studio\2022\Professional\VC\Tools\MSVC\14.44.35207\include\xstring

; 922  :             _Traits::assign(_Unfancy(_New_ptr)[_Count], _Elem());

  000c0	8b 45 fc	 mov	 eax, DWORD PTR $T1[ebp]

; 769  :         _Construct<_Construct_strategy::_From_ptr>(_Ptr, _Convert_size<size_type>(_Traits::length(_Ptr)));
; 770  :     }

  000c3	83 c4 0c	 add	 esp, 12			; 0000000cH
  000c6	5f		 pop	 edi

; 922  :             _Traits::assign(_Unfancy(_New_ptr)[_Count], _Elem());

  000c7	c6 04 30 00	 mov	 BYTE PTR [eax+esi], 0

; 769  :         _Construct<_Construct_strategy::_From_ptr>(_Ptr, _Convert_size<size_type>(_Traits::length(_Ptr)));
; 770  :     }

  000cb	8b c3		 mov	 eax, ebx
  000cd	5e		 pop	 esi
  000ce	5b		 pop	 ebx
  000cf	8b e5		 mov	 esp, ebp
  000d1	5d		 pop	 ebp
  000d2	c2 04 00	 ret	 4
$LN62@basic_stri:

; 882  :             _Xlen_string(); // result too long

  000d5	e8 00 00 00 00	 call	 ?_Xlen_string@std@@YAXXZ ; std::_Xlen_string
$LN57@basic_stri:
  000da	cc		 int	 3
??0?$basic_string@DU?$char_traits@D@std@@V?$allocator@D@2@@std@@QAE@QBD@Z ENDP ; std::basic_string<char,std::char_traits<char>,std::allocator<char> >::basic_string<char,std::char_traits<char>,std::allocator<char> >
_TEXT	ENDS
; Function compile flags: /Ogtp
; File C:\Program Files\Microsoft Visual Studio\2022\Professional\VC\Tools\MSVC\14.44.35207\include\xstring
;	COMDAT ?_Xlen_string@std@@YAXXZ
_TEXT	SEGMENT
?_Xlen_string@std@@YAXXZ PROC				; std::_Xlen_string, COMDAT

; 531  :     _Xlength_error("string too long");

  00000	68 00 00 00 00	 push	 OFFSET ??_C@_0BA@JFNIOLAK@string?5too?5long@
  00005	e8 00 00 00 00	 call	 ?_Xlength_error@std@@YAXPBD@Z ; std::_Xlength_error
$LN3@Xlen_strin:
  0000a	cc		 int	 3
?_Xlen_string@std@@YAXXZ ENDP				; std::_Xlen_string
_TEXT	ENDS
; Function compile flags: /Ogtp
; File C:\Program Files\Microsoft Visual Studio\2022\Professional\VC\Tools\MSVC\14.44.35207\include\xmemory
;	COMDAT ?_Throw_bad_array_new_length@std@@YAXXZ
_TEXT	SEGMENT
$T1 = -12						; size = 12
?_Throw_bad_array_new_length@std@@YAXXZ PROC		; std::_Throw_bad_array_new_length, COMDAT

; 107  : [[noreturn]] inline void _Throw_bad_array_new_length() {

  00000	55		 push	 ebp
  00001	8b ec		 mov	 ebp, esp
  00003	83 ec 0c	 sub	 esp, 12			; 0000000cH

; 108  :     _THROW(bad_array_new_length{});

  00006	8d 4d f4	 lea	 ecx, DWORD PTR $T1[ebp]
  00009	e8 00 00 00 00	 call	 ??0bad_array_new_length@std@@QAE@XZ ; std::bad_array_new_length::bad_array_new_length
  0000e	68 00 00 00 00	 push	 OFFSET __TI3?AVbad_array_new_length@std@@
  00013	8d 45 f4	 lea	 eax, DWORD PTR $T1[ebp]
  00016	50		 push	 eax
  00017	e8 00 00 00 00	 call	 __CxxThrowException@8
$LN3@Throw_bad_:
  0001c	cc		 int	 3
?_Throw_bad_array_new_length@std@@YAXXZ ENDP		; std::_Throw_bad_array_new_length
_TEXT	ENDS
; Function compile flags: /Ogtp
; File C:\Program Files\Microsoft Visual Studio\2022\Professional\VC\Tools\MSVC\14.44.35207\include\vcruntime_exception.h
;	COMDAT ??_Gbad_array_new_length@std@@UAEPAXI@Z
_TEXT	SEGMENT
___flags$ = 8						; size = 4
??_Gbad_array_new_length@std@@UAEPAXI@Z PROC		; std::bad_array_new_length::`scalar deleting destructor', COMDAT
; _this$ = ecx
  00000	55		 push	 ebp
  00001	8b ec		 mov	 ebp, esp

; 90   :     {

  00003	56		 push	 esi
  00004	8b f1		 mov	 esi, ecx

; 91   :         __std_exception_destroy(&_Data);

  00006	8d 46 04	 lea	 eax, DWORD PTR [esi+4]
  00009	c7 06 00 00 00
	00		 mov	 DWORD PTR [esi], OFFSET ??_7exception@std@@6B@
  0000f	50		 push	 eax
  00010	e8 00 00 00 00	 call	 ___std_exception_destroy
  00015	83 c4 04	 add	 esp, 4
  00018	f6 45 08 01	 test	 BYTE PTR ___flags$[ebp], 1
  0001c	74 0b		 je	 SHORT $LN18@scalar
  0001e	6a 0c		 push	 12			; 0000000cH
  00020	56		 push	 esi
  00021	e8 00 00 00 00	 call	 ??3@YAXPAXI@Z		; operator delete
  00026	83 c4 08	 add	 esp, 8
$LN18@scalar:
  00029	8b c6		 mov	 eax, esi
  0002b	5e		 pop	 esi
  0002c	5d		 pop	 ebp
  0002d	c2 04 00	 ret	 4
??_Gbad_array_new_length@std@@UAEPAXI@Z ENDP		; std::bad_array_new_length::`scalar deleting destructor'
_TEXT	ENDS
; Function compile flags: /Ogtp
; File C:\Program Files\Microsoft Visual Studio\2022\Professional\VC\Tools\MSVC\14.44.35207\include\vcruntime_exception.h
;	COMDAT ??0bad_array_new_length@std@@QAE@ABV01@@Z
_TEXT	SEGMENT
___that$ = 8						; size = 4
??0bad_array_new_length@std@@QAE@ABV01@@Z PROC		; std::bad_array_new_length::bad_array_new_length, COMDAT
; _this$ = ecx
  00000	55		 push	 ebp
  00001	8b ec		 mov	 ebp, esp

; 73   :     {

  00003	56		 push	 esi
  00004	8b f1		 mov	 esi, ecx
  00006	0f 57 c0	 xorps	 xmm0, xmm0

; 72   :         : _Data()

  00009	8d 46 04	 lea	 eax, DWORD PTR [esi+4]

; 74   :         __std_exception_copy(&_Other._Data, &_Data);

  0000c	50		 push	 eax
  0000d	c7 06 00 00 00
	00		 mov	 DWORD PTR [esi], OFFSET ??_7exception@std@@6B@
  00013	66 0f d6 00	 movq	 QWORD PTR [eax], xmm0
  00017	8b 45 08	 mov	 eax, DWORD PTR ___that$[ebp]
  0001a	83 c0 04	 add	 eax, 4
  0001d	50		 push	 eax
  0001e	e8 00 00 00 00	 call	 ___std_exception_copy
  00023	83 c4 08	 add	 esp, 8
  00026	c7 06 00 00 00
	00		 mov	 DWORD PTR [esi], OFFSET ??_7bad_array_new_length@std@@6B@
  0002c	8b c6		 mov	 eax, esi
  0002e	5e		 pop	 esi
  0002f	5d		 pop	 ebp
  00030	c2 04 00	 ret	 4
??0bad_array_new_length@std@@QAE@ABV01@@Z ENDP		; std::bad_array_new_length::bad_array_new_length
_TEXT	ENDS
; Function compile flags: /Ogtp
; File C:\Program Files\Microsoft Visual Studio\2022\Professional\VC\Tools\MSVC\14.44.35207\include\vcruntime_exception.h
;	COMDAT ??1bad_array_new_length@std@@UAE@XZ
_TEXT	SEGMENT
??1bad_array_new_length@std@@UAE@XZ PROC		; std::bad_array_new_length::~bad_array_new_length, COMDAT
; _this$ = ecx

; 91   :         __std_exception_destroy(&_Data);

  00000	8d 41 04	 lea	 eax, DWORD PTR [ecx+4]
  00003	c7 01 00 00 00
	00		 mov	 DWORD PTR [ecx], OFFSET ??_7exception@std@@6B@
  00009	50		 push	 eax
  0000a	e8 00 00 00 00	 call	 ___std_exception_destroy
  0000f	59		 pop	 ecx
  00010	c3		 ret	 0
??1bad_array_new_length@std@@UAE@XZ ENDP		; std::bad_array_new_length::~bad_array_new_length
_TEXT	ENDS
; Function compile flags: /Ogtp
; File C:\Program Files\Microsoft Visual Studio\2022\Professional\VC\Tools\MSVC\14.44.35207\include\vcruntime_exception.h
;	COMDAT ??0bad_array_new_length@std@@QAE@XZ
_TEXT	SEGMENT
??0bad_array_new_length@std@@QAE@XZ PROC		; std::bad_array_new_length::bad_array_new_length, COMDAT
; _this$ = ecx

; 144  :     {

  00000	0f 57 c0	 xorps	 xmm0, xmm0

; 145  :     }

  00003	8b c1		 mov	 eax, ecx

; 66   :         : _Data()

  00005	66 0f d6 41 04	 movq	 QWORD PTR [ecx+4], xmm0

; 67   :     {
; 68   :         _Data._What = _Message;

  0000a	c7 41 04 00 00
	00 00		 mov	 DWORD PTR [ecx+4], OFFSET ??_C@_0BF@KINCDENJ@bad?5array?5new?5length@

; 144  :     {

  00011	c7 01 00 00 00
	00		 mov	 DWORD PTR [ecx], OFFSET ??_7bad_array_new_length@std@@6B@

; 145  :     }

  00017	c3		 ret	 0
??0bad_array_new_length@std@@QAE@XZ ENDP		; std::bad_array_new_length::bad_array_new_length
_TEXT	ENDS
; Function compile flags: /Ogtp
; File C:\Program Files\Microsoft Visual Studio\2022\Professional\VC\Tools\MSVC\14.44.35207\include\vcruntime_exception.h
;	COMDAT ??_Gbad_alloc@std@@UAEPAXI@Z
_TEXT	SEGMENT
___flags$ = 8						; size = 4
??_Gbad_alloc@std@@UAEPAXI@Z PROC			; std::bad_alloc::`scalar deleting destructor', COMDAT
; _this$ = ecx
  00000	55		 push	 ebp
  00001	8b ec		 mov	 ebp, esp

; 90   :     {

  00003	56		 push	 esi
  00004	8b f1		 mov	 esi, ecx

; 91   :         __std_exception_destroy(&_Data);

  00006	8d 46 04	 lea	 eax, DWORD PTR [esi+4]
  00009	c7 06 00 00 00
	00		 mov	 DWORD PTR [esi], OFFSET ??_7exception@std@@6B@
  0000f	50		 push	 eax
  00010	e8 00 00 00 00	 call	 ___std_exception_destroy
  00015	83 c4 04	 add	 esp, 4
  00018	f6 45 08 01	 test	 BYTE PTR ___flags$[ebp], 1
  0001c	74 0b		 je	 SHORT $LN13@scalar
  0001e	6a 0c		 push	 12			; 0000000cH
  00020	56		 push	 esi
  00021	e8 00 00 00 00	 call	 ??3@YAXPAXI@Z		; operator delete
  00026	83 c4 08	 add	 esp, 8
$LN13@scalar:
  00029	8b c6		 mov	 eax, esi
  0002b	5e		 pop	 esi
  0002c	5d		 pop	 ebp
  0002d	c2 04 00	 ret	 4
??_Gbad_alloc@std@@UAEPAXI@Z ENDP			; std::bad_alloc::`scalar deleting destructor'
_TEXT	ENDS
; Function compile flags: /Ogtp
; File C:\Program Files\Microsoft Visual Studio\2022\Professional\VC\Tools\MSVC\14.44.35207\include\vcruntime_exception.h
;	COMDAT ??0bad_alloc@std@@QAE@ABV01@@Z
_TEXT	SEGMENT
___that$ = 8						; size = 4
??0bad_alloc@std@@QAE@ABV01@@Z PROC			; std::bad_alloc::bad_alloc, COMDAT
; _this$ = ecx
  00000	55		 push	 ebp
  00001	8b ec		 mov	 ebp, esp

; 73   :     {

  00003	56		 push	 esi
  00004	8b f1		 mov	 esi, ecx
  00006	0f 57 c0	 xorps	 xmm0, xmm0

; 72   :         : _Data()

  00009	8d 46 04	 lea	 eax, DWORD PTR [esi+4]

; 74   :         __std_exception_copy(&_Other._Data, &_Data);

  0000c	50		 push	 eax
  0000d	c7 06 00 00 00
	00		 mov	 DWORD PTR [esi], OFFSET ??_7exception@std@@6B@
  00013	66 0f d6 00	 movq	 QWORD PTR [eax], xmm0
  00017	8b 45 08	 mov	 eax, DWORD PTR ___that$[ebp]
  0001a	83 c0 04	 add	 eax, 4
  0001d	50		 push	 eax
  0001e	e8 00 00 00 00	 call	 ___std_exception_copy
  00023	83 c4 08	 add	 esp, 8
  00026	c7 06 00 00 00
	00		 mov	 DWORD PTR [esi], OFFSET ??_7bad_alloc@std@@6B@
  0002c	8b c6		 mov	 eax, esi
  0002e	5e		 pop	 esi
  0002f	5d		 pop	 ebp
  00030	c2 04 00	 ret	 4
??0bad_alloc@std@@QAE@ABV01@@Z ENDP			; std::bad_alloc::bad_alloc
_TEXT	ENDS
; Function compile flags: /Ogtp
; File C:\Program Files\Microsoft Visual Studio\2022\Professional\VC\Tools\MSVC\14.44.35207\include\vcruntime_exception.h
;	COMDAT ??_Gexception@std@@UAEPAXI@Z
_TEXT	SEGMENT
___flags$ = 8						; size = 4
??_Gexception@std@@UAEPAXI@Z PROC			; std::exception::`scalar deleting destructor', COMDAT
; _this$ = ecx
  00000	55		 push	 ebp
  00001	8b ec		 mov	 ebp, esp

; 90   :     {

  00003	56		 push	 esi
  00004	8b f1		 mov	 esi, ecx

; 91   :         __std_exception_destroy(&_Data);

  00006	8d 46 04	 lea	 eax, DWORD PTR [esi+4]
  00009	c7 06 00 00 00
	00		 mov	 DWORD PTR [esi], OFFSET ??_7exception@std@@6B@
  0000f	50		 push	 eax
  00010	e8 00 00 00 00	 call	 ___std_exception_destroy
  00015	83 c4 04	 add	 esp, 4
  00018	f6 45 08 01	 test	 BYTE PTR ___flags$[ebp], 1
  0001c	74 0b		 je	 SHORT $LN8@scalar
  0001e	6a 0c		 push	 12			; 0000000cH
  00020	56		 push	 esi
  00021	e8 00 00 00 00	 call	 ??3@YAXPAXI@Z		; operator delete
  00026	83 c4 08	 add	 esp, 8
$LN8@scalar:
  00029	8b c6		 mov	 eax, esi
  0002b	5e		 pop	 esi
  0002c	5d		 pop	 ebp
  0002d	c2 04 00	 ret	 4
??_Gexception@std@@UAEPAXI@Z ENDP			; std::exception::`scalar deleting destructor'
_TEXT	ENDS
; Function compile flags: /Ogtp
; File C:\Program Files\Microsoft Visual Studio\2022\Professional\VC\Tools\MSVC\14.44.35207\include\vcruntime_exception.h
;	COMDAT ?what@exception@std@@UBEPBDXZ
_TEXT	SEGMENT
?what@exception@std@@UBEPBDXZ PROC			; std::exception::what, COMDAT
; _this$ = ecx

; 96   :         return _Data._What ? _Data._What : "Unknown exception";

  00000	8b 49 04	 mov	 ecx, DWORD PTR [ecx+4]
  00003	b8 00 00 00 00	 mov	 eax, OFFSET ??_C@_0BC@EOODALEL@Unknown?5exception@
  00008	85 c9		 test	 ecx, ecx
  0000a	0f 45 c1	 cmovne	 eax, ecx

; 97   :     }

  0000d	c3		 ret	 0
?what@exception@std@@UBEPBDXZ ENDP			; std::exception::what
_TEXT	ENDS
; Function compile flags: /Ogtp
; File C:\Program Files\Microsoft Visual Studio\2022\Professional\VC\Tools\MSVC\14.44.35207\include\vcruntime_exception.h
;	COMDAT ??1exception@std@@UAE@XZ
_TEXT	SEGMENT
??1exception@std@@UAE@XZ PROC				; std::exception::~exception, COMDAT
; _this$ = ecx

; 91   :         __std_exception_destroy(&_Data);

  00000	8d 41 04	 lea	 eax, DWORD PTR [ecx+4]
  00003	c7 01 00 00 00
	00		 mov	 DWORD PTR [ecx], OFFSET ??_7exception@std@@6B@
  00009	50		 push	 eax
  0000a	e8 00 00 00 00	 call	 ___std_exception_destroy
  0000f	59		 pop	 ecx

; 92   :     }

  00010	c3		 ret	 0
??1exception@std@@UAE@XZ ENDP				; std::exception::~exception
_TEXT	ENDS
; Function compile flags: /Ogtp
; File C:\Program Files\Microsoft Visual Studio\2022\Professional\VC\Tools\MSVC\14.44.35207\include\vcruntime_exception.h
;	COMDAT ??0exception@std@@QAE@ABV01@@Z
_TEXT	SEGMENT
__Other$ = 8						; size = 4
??0exception@std@@QAE@ABV01@@Z PROC			; std::exception::exception, COMDAT
; _this$ = ecx

; 73   :     {

  00000	55		 push	 ebp
  00001	8b ec		 mov	 ebp, esp
  00003	56		 push	 esi
  00004	8b f1		 mov	 esi, ecx
  00006	0f 57 c0	 xorps	 xmm0, xmm0
  00009	8d 46 04	 lea	 eax, DWORD PTR [esi+4]

; 74   :         __std_exception_copy(&_Other._Data, &_Data);

  0000c	50		 push	 eax
  0000d	c7 06 00 00 00
	00		 mov	 DWORD PTR [esi], OFFSET ??_7exception@std@@6B@
  00013	66 0f d6 00	 movq	 QWORD PTR [eax], xmm0
  00017	8b 45 08	 mov	 eax, DWORD PTR __Other$[ebp]
  0001a	83 c0 04	 add	 eax, 4
  0001d	50		 push	 eax
  0001e	e8 00 00 00 00	 call	 ___std_exception_copy
  00023	83 c4 08	 add	 esp, 8

; 75   :     }

  00026	8b c6		 mov	 eax, esi
  00028	5e		 pop	 esi
  00029	5d		 pop	 ebp
  0002a	c2 04 00	 ret	 4
??0exception@std@@QAE@ABV01@@Z ENDP			; std::exception::exception
_TEXT	ENDS
; Function compile flags: /Ogtp
; File C:\Program Files\Microsoft Visual Studio\2022\Professional\VC\Tools\MSVC\14.44.35207\atlmfc\include\cstringt.h
; File C:\Program Files\Microsoft Visual Studio\2022\Professional\VC\Tools\MSVC\14.44.35207\atlmfc\include\afxstr.h
; File C:\Program Files\Microsoft Visual Studio\2022\Professional\VC\Tools\MSVC\14.44.35207\atlmfc\include\cstringt.h
; File C:\Program Files\Microsoft Visual Studio\2022\Professional\VC\Tools\MSVC\14.44.35207\atlmfc\include\afxstr.h
; File C:\Program Files\Microsoft Visual Studio\2022\Professional\VC\Tools\MSVC\14.44.35207\atlmfc\include\cstringt.h
; File C:\Program Files\Microsoft Visual Studio\2022\Professional\VC\Tools\MSVC\14.44.35207\atlmfc\include\atlcore.h
; File C:\Program Files\Microsoft Visual Studio\2022\Professional\VC\Tools\MSVC\14.44.35207\atlmfc\include\cstringt.h
; File C:\Program Files\Microsoft Visual Studio\2022\Professional\VC\Tools\MSVC\14.44.35207\atlmfc\include\atlsimpstr.h
; File C:\Program Files\Microsoft Visual Studio\2022\Professional\VC\Tools\MSVC\14.44.35207\atlmfc\include\cstringt.h
; File C:\Program Files\Microsoft Visual Studio\2022\Professional\VC\Tools\MSVC\14.44.35207\atlmfc\include\atlsimpstr.h
; File C:\Program Files\Microsoft Visual Studio\2022\Professional\VC\Tools\MSVC\14.44.35207\atlmfc\include\cstringt.h
; File C:\Program Files\Microsoft Visual Studio\2022\Professional\VC\Tools\MSVC\14.44.35207\atlmfc\include\atlsimpstr.h
; File C:\Program Files\Microsoft Visual Studio\2022\Professional\VC\Tools\MSVC\14.44.35207\atlmfc\include\cstringt.h
; File C:\Program Files\Microsoft Visual Studio\2022\Professional\VC\Tools\MSVC\14.44.35207\atlmfc\include\atlsimpstr.h
; File C:\Program Files\Microsoft Visual Studio\2022\Professional\VC\Tools\MSVC\14.44.35207\atlmfc\include\cstringt.h
;	COMDAT ?LoadStringA@?$CStringT@DV?$StrTraitMFC@DV?$ChTraitsCRT@D@ATL@@@@@ATL@@QAEHI@Z
_TEXT	SEGMENT
_this$1$ = -4						; size = 4
_nID$ = 8						; size = 4
_hResource$1$ = 8					; size = 4
?LoadStringA@?$CStringT@DV?$StrTraitMFC@DV?$ChTraitsCRT@D@ATL@@@@@ATL@@QAEHI@Z PROC ; ATL::CStringT<char,StrTraitMFC<char,ATL::ChTraitsCRT<char> > >::LoadStringA, COMDAT
; _this$ = ecx

; 2340 : 	{

  00000	55		 push	 ebp
  00001	8b ec		 mov	 ebp, esp
  00003	51		 push	 ecx
  00004	53		 push	 ebx
  00005	57		 push	 edi
; File C:\Program Files\Microsoft Visual Studio\2022\Professional\VC\Tools\MSVC\14.44.35207\atlmfc\include\afxstr.h

; 51   : 		return( AfxFindStringResourceHandle( nID ) );

  00006	8b 7d 08	 mov	 edi, DWORD PTR _nID$[ebp]
  00009	57		 push	 edi
; File C:\Program Files\Microsoft Visual Studio\2022\Professional\VC\Tools\MSVC\14.44.35207\atlmfc\include\cstringt.h

; 2340 : 	{

  0000a	89 4d fc	 mov	 DWORD PTR _this$1$[ebp], ecx
; File C:\Program Files\Microsoft Visual Studio\2022\Professional\VC\Tools\MSVC\14.44.35207\atlmfc\include\afxstr.h

; 51   : 		return( AfxFindStringResourceHandle( nID ) );

  0000d	e8 00 00 00 00	 call	 ?AfxFindStringResourceHandle@@YGPAUHINSTANCE__@@I@Z ; AfxFindStringResourceHandle
; File C:\Program Files\Microsoft Visual Studio\2022\Professional\VC\Tools\MSVC\14.44.35207\atlmfc\include\cstringt.h

; 2341 : 		HINSTANCE hInstance = StringTraits::FindStringResourceInstance( nID );

  00012	8b d8		 mov	 ebx, eax

; 2342 : 		if( hInstance == NULL )

  00014	85 db		 test	 ebx, ebx
  00016	75 08		 jne	 SHORT $LN2@LoadString

; 2348 : 	}

  00018	5f		 pop	 edi
  00019	5b		 pop	 ebx
  0001a	8b e5		 mov	 esp, ebp
  0001c	5d		 pop	 ebp
  0001d	c2 04 00	 ret	 4
$LN2@LoadString:
; File C:\Program Files\Microsoft Visual Studio\2022\Professional\VC\Tools\MSVC\14.44.35207\atlmfc\include\atlcore.h

; 380  : 	hResource = ::FindResourceW(hInstance, MAKEINTRESOURCEW( (((id>>4)+1) & static_cast<WORD>(~0)) ), (LPWSTR) RT_STRING);

  00020	8b c7		 mov	 eax, edi
  00022	c1 e8 04	 shr	 eax, 4
  00025	56		 push	 esi
  00026	40		 inc	 eax
  00027	6a 06		 push	 6
  00029	0f b7 c0	 movzx	 eax, ax
  0002c	50		 push	 eax
  0002d	53		 push	 ebx
  0002e	ff 15 00 00 00
	00		 call	 DWORD PTR __imp__FindResourceW@12
  00034	89 45 08	 mov	 DWORD PTR _hResource$1$[ebp], eax

; 381  : 	if( hResource == NULL )

  00037	85 c0		 test	 eax, eax
  00039	0f 84 cc 00 00
	00		 je	 $LN51@LoadString

; 338  : 	hGlobal = ::LoadResource( hInstance, hResource );

  0003f	50		 push	 eax
  00040	53		 push	 ebx
  00041	ff 15 00 00 00
	00		 call	 DWORD PTR __imp__LoadResource@8

; 339  : 	if( hGlobal == NULL )

  00047	85 c0		 test	 eax, eax
  00049	75 04		 jne	 SHORT $LN15@LoadString

; 340  : 	{
; 341  : 		return( NULL );

  0004b	33 f6		 xor	 esi, esi
  0004d	eb 43		 jmp	 SHORT $LN18@LoadString
$LN15@LoadString:

; 342  : 	}
; 343  : 
; 344  : 	pImage = (const ATLSTRINGRESOURCEIMAGE*)::LockResource( hGlobal );

  0004f	50		 push	 eax
  00050	ff 15 00 00 00
	00		 call	 DWORD PTR __imp__LockResource@4
  00056	8b f0		 mov	 esi, eax

; 345  : 	if( pImage == NULL )

  00058	85 f6		 test	 esi, esi
  0005a	74 36		 je	 SHORT $LN18@LoadString
$LN16@LoadString:

; 346  : 	{
; 347  : 		return( NULL );
; 348  : 	}
; 349  : 
; 350  : 	nResourceSize = ::SizeofResource( hInstance, hResource );

  0005c	ff 75 08	 push	 DWORD PTR _hResource$1$[ebp]
  0005f	53		 push	 ebx
  00060	ff 15 00 00 00
	00		 call	 DWORD PTR __imp__SizeofResource@8

; 351  : 	pImageEnd = (const ATLSTRINGRESOURCEIMAGE*)(LPBYTE( pImage )+nResourceSize);

  00066	8d 0c 06	 lea	 ecx, DWORD PTR [esi+eax]

; 352  : 	iIndex = id&0x000f;

  00069	83 e7 0f	 and	 edi, 15			; 0000000fH

; 353  : 
; 354  : 	while( (iIndex > 0) && (pImage < pImageEnd) )

  0006c	76 14		 jbe	 SHORT $LN14@LoadString
  0006e	66 90		 npad	 2
$LL13@LoadString:
  00070	3b f1		 cmp	 esi, ecx
  00072	73 12		 jae	 SHORT $LN50@LoadString

; 355  : 	{
; 356  : 		pImage = (const ATLSTRINGRESOURCEIMAGE*)(LPBYTE( pImage )+(sizeof( ATLSTRINGRESOURCEIMAGE )+(pImage->nLength*sizeof( WCHAR ))));

  00074	0f b7 06	 movzx	 eax, WORD PTR [esi]
  00077	8d 34 46	 lea	 esi, DWORD PTR [esi+eax*2]
  0007a	83 c6 02	 add	 esi, 2

; 357  : 		iIndex--;

  0007d	83 ef 01	 sub	 edi, 1
  00080	75 ee		 jne	 SHORT $LL13@LoadString
$LN14@LoadString:

; 358  : 	}
; 359  : 	if( pImage >= pImageEnd )

  00082	3b f1		 cmp	 esi, ecx
  00084	72 04		 jb	 SHORT $LN17@LoadString
$LN50@LoadString:

; 360  : 	{
; 361  : 		return( NULL );

  00086	33 f6		 xor	 esi, esi
  00088	eb 08		 jmp	 SHORT $LN18@LoadString
$LN17@LoadString:

; 362  : 	}
; 363  : 	if( pImage->nLength == 0 )

  0008a	33 c0		 xor	 eax, eax
  0008c	66 39 06	 cmp	 WORD PTR [esi], ax
  0008f	0f 44 f0	 cmove	 esi, eax
$LN18@LoadString:
; File C:\Program Files\Microsoft Visual Studio\2022\Professional\VC\Tools\MSVC\14.44.35207\atlmfc\include\cstringt.h

; 2356 : 		if( pImage == NULL )

  00092	85 f6		 test	 esi, esi
  00094	74 75		 je	 SHORT $LN51@LoadString

; 2359 : 		}
; 2360 : 
; 2361 : 		int nLength = StringTraits::GetBaseTypeLength( pImage->achString, pImage->nLength );

  00096	0f b7 06	 movzx	 eax, WORD PTR [esi]
  00099	8d 4e 02	 lea	 ecx, DWORD PTR [esi+2]

; 350  : 		return ::WideCharToMultiByte( _AtlGetConversionACP(), 0, pszSource, nLength, NULL, 0, NULL, NULL );

  0009c	6a 00		 push	 0
  0009e	6a 00		 push	 0
  000a0	6a 00		 push	 0
  000a2	6a 00		 push	 0
  000a4	50		 push	 eax
  000a5	51		 push	 ecx
  000a6	6a 00		 push	 0
  000a8	6a 03		 push	 3
  000aa	ff 15 00 00 00
	00		 call	 DWORD PTR __imp__WideCharToMultiByte@32

; 2361 : 		int nLength = StringTraits::GetBaseTypeLength( pImage->achString, pImage->nLength );

  000b0	8b f8		 mov	 edi, eax
; File C:\Program Files\Microsoft Visual Studio\2022\Professional\VC\Tools\MSVC\14.44.35207\atlmfc\include\atlsimpstr.h

; 808  : 		if (nLength < 0)

  000b2	85 ff		 test	 edi, edi
  000b4	78 60		 js	 SHORT $LN38@LoadString

; 804  : 		return( reinterpret_cast< CStringData* >( m_pszData )-1 );

  000b6	8b 5d fc	 mov	 ebx, DWORD PTR _this$1$[ebp]

; 812  : 		int nShared = 1-pOldData->nRefs;  // nShared < 0 means true, >= 0 means false

  000b9	ba 01 00 00 00	 mov	 edx, 1

; 804  : 		return( reinterpret_cast< CStringData* >( m_pszData )-1 );

  000be	8b 0b		 mov	 ecx, DWORD PTR [ebx]

; 812  : 		int nShared = 1-pOldData->nRefs;  // nShared < 0 means true, >= 0 means false

  000c0	2b 51 fc	 sub	 edx, DWORD PTR [ecx-4]

; 813  : 		int nTooShort = pOldData->nAllocLength-nLength;  // nTooShort < 0 means true, >= 0 means false

  000c3	8b 49 f8	 mov	 ecx, DWORD PTR [ecx-8]
  000c6	2b cf		 sub	 ecx, edi

; 814  : 		if( (nShared|nTooShort) < 0 )  // If either sign bit is set (i.e. either is less than zero), we need to copy data

  000c8	0b d1		 or	 edx, ecx
  000ca	7d 08		 jge	 SHORT $LN26@LoadString

; 815  : 		{
; 816  : 			PrepareWrite2( nLength );

  000cc	57		 push	 edi
  000cd	8b cb		 mov	 ecx, ebx
  000cf	e8 00 00 00 00	 call	 ?PrepareWrite2@?$CSimpleStringT@D$0A@@ATL@@AAEXH@Z ; ATL::CSimpleStringT<char,0>::PrepareWrite2
$LN26@LoadString:
; File C:\Program Files\Microsoft Visual Studio\2022\Professional\VC\Tools\MSVC\14.44.35207\atlmfc\include\cstringt.h

; 2363 : 		StringTraits::ConvertToBaseType( pszBuffer, nLength, pImage->achString, pImage->nLength );

  000d4	0f b7 06	 movzx	 eax, WORD PTR [esi]

; 372  : 		::WideCharToMultiByte( _AtlGetConversionACP(), 0, pszSrc, nSrcLength, pszDest, nDestLength, NULL, NULL );

  000d7	6a 00		 push	 0
  000d9	6a 00		 push	 0
  000db	57		 push	 edi
  000dc	ff 33		 push	 DWORD PTR [ebx]
  000de	50		 push	 eax
  000df	8d 46 02	 lea	 eax, DWORD PTR [esi+2]
  000e2	50		 push	 eax
  000e3	6a 00		 push	 0
  000e5	6a 03		 push	 3
  000e7	ff 15 00 00 00
	00		 call	 DWORD PTR __imp__WideCharToMultiByte@32
; File C:\Program Files\Microsoft Visual Studio\2022\Professional\VC\Tools\MSVC\14.44.35207\atlmfc\include\atlsimpstr.h

; 875  : 		if( nLength < 0 || nLength > GetData()->nAllocLength)

  000ed	8b 03		 mov	 eax, DWORD PTR [ebx]
  000ef	3b 78 f8	 cmp	 edi, DWORD PTR [eax-8]
  000f2	7f 22		 jg	 SHORT $LN38@LoadString

; 877  : 
; 878  : 		GetData()->nDataLength = nLength;

  000f4	89 78 f4	 mov	 DWORD PTR [eax-12], edi

; 879  : 		m_pszData[nLength] = 0;

  000f7	8b 03		 mov	 eax, DWORD PTR [ebx]
; File C:\Program Files\Microsoft Visual Studio\2022\Professional\VC\Tools\MSVC\14.44.35207\atlmfc\include\cstringt.h

; 2347 : 		return( LoadString( hInstance, nID ) );

  000f9	5e		 pop	 esi
; File C:\Program Files\Microsoft Visual Studio\2022\Professional\VC\Tools\MSVC\14.44.35207\atlmfc\include\atlsimpstr.h

; 879  : 		m_pszData[nLength] = 0;

  000fa	c6 04 07 00	 mov	 BYTE PTR [edi+eax], 0
; File C:\Program Files\Microsoft Visual Studio\2022\Professional\VC\Tools\MSVC\14.44.35207\atlmfc\include\cstringt.h

; 2366 : 		return( TRUE );

  000fe	b8 01 00 00 00	 mov	 eax, 1
  00103	5f		 pop	 edi

; 2348 : 	}

  00104	5b		 pop	 ebx
  00105	8b e5		 mov	 esp, ebp
  00107	5d		 pop	 ebp
  00108	c2 04 00	 ret	 4
$LN51@LoadString:

; 2347 : 		return( LoadString( hInstance, nID ) );

  0010b	5e		 pop	 esi
  0010c	5f		 pop	 edi

; 2358 : 			return( FALSE );

  0010d	33 c0		 xor	 eax, eax

; 2348 : 	}

  0010f	5b		 pop	 ebx
  00110	8b e5		 mov	 esp, ebp
  00112	5d		 pop	 ebp
  00113	c2 04 00	 ret	 4
$LN38@LoadString:
; File C:\Program Files\Microsoft Visual Studio\2022\Professional\VC\Tools\MSVC\14.44.35207\atlmfc\include\atlsimpstr.h

; 876  : 			AtlThrow(E_INVALIDARG);

  00116	68 57 00 07 80	 push	 -2147024809		; 80070057H
  0011b	e8 00 00 00 00	 call	 ?AtlThrowImpl@ATL@@YGXJ@Z ; ATL::AtlThrowImpl
$LN63@LoadString:
  00120	cc		 int	 3
?LoadStringA@?$CStringT@DV?$StrTraitMFC@DV?$ChTraitsCRT@D@ATL@@@@@ATL@@QAEHI@Z ENDP ; ATL::CStringT<char,StrTraitMFC<char,ATL::ChTraitsCRT<char> > >::LoadStringA
_TEXT	ENDS
; Function compile flags: /Ogtp
; File C:\Program Files\Microsoft Visual Studio\2022\Professional\VC\Tools\MSVC\14.44.35207\atlmfc\include\cstringt.h
; File C:\Program Files (x86)\Windows Kits\10\Include\10.0.26100.0\ucrt\stdio.h
; File C:\Program Files\Microsoft Visual Studio\2022\Professional\VC\Tools\MSVC\14.44.35207\atlmfc\include\cstringt.h
; File C:\Program Files\Microsoft Visual Studio\2022\Professional\VC\Tools\MSVC\14.44.35207\atlmfc\include\atlsimpstr.h
; File C:\Program Files\Microsoft Visual Studio\2022\Professional\VC\Tools\MSVC\14.44.35207\atlmfc\include\cstringt.h
; File C:\Program Files\Microsoft Visual Studio\2022\Professional\VC\Tools\MSVC\14.44.35207\atlmfc\include\afxstr.h
; File C:\Program Files\Microsoft Visual Studio\2022\Professional\VC\Tools\MSVC\14.44.35207\atlmfc\include\cstringt.h
; File C:\Program Files\Microsoft Visual Studio\2022\Professional\VC\Tools\MSVC\14.44.35207\atlmfc\include\atlsimpstr.h
; File C:\Program Files\Microsoft Visual Studio\2022\Professional\VC\Tools\MSVC\14.44.35207\atlmfc\include\cstringt.h
; File C:\Program Files\Microsoft Visual Studio\2022\Professional\VC\Tools\MSVC\14.44.35207\atlmfc\include\atlsimpstr.h
; File C:\Program Files\Microsoft Visual Studio\2022\Professional\VC\Tools\MSVC\14.44.35207\atlmfc\include\cstringt.h
; File C:\Program Files\Microsoft Visual Studio\2022\Professional\VC\Tools\MSVC\14.44.35207\atlmfc\include\atlsimpstr.h
; File C:\Program Files (x86)\Windows Kits\10\Include\10.0.26100.0\ucrt\stdio.h
; File C:\Program Files\Microsoft Visual Studio\2022\Professional\VC\Tools\MSVC\14.44.35207\atlmfc\include\cstringt.h
; File C:\Program Files (x86)\Windows Kits\10\Include\10.0.26100.0\ucrt\stdio.h
; File C:\Program Files\Microsoft Visual Studio\2022\Professional\VC\Tools\MSVC\14.44.35207\atlmfc\include\atlsimpstr.h
; File C:\Program Files (x86)\Windows Kits\10\Include\10.0.26100.0\ucrt\stdio.h
; File C:\Program Files\Microsoft Visual Studio\2022\Professional\VC\Tools\MSVC\14.44.35207\atlmfc\include\atlsimpstr.h
; File C:\Program Files\Microsoft Visual Studio\2022\Professional\VC\Tools\MSVC\14.44.35207\atlmfc\include\cstringt.h
; File C:\Program Files\Microsoft Visual Studio\2022\Professional\VC\Tools\MSVC\14.44.35207\atlmfc\include\atlsimpstr.h
; File C:\Program Files\Microsoft Visual Studio\2022\Professional\VC\Tools\MSVC\14.44.35207\atlmfc\include\cstringt.h
; File C:\Program Files\Microsoft Visual Studio\2022\Professional\VC\Tools\MSVC\14.44.35207\atlmfc\include\atlsimpstr.h
; File C:\Program Files\Microsoft Visual Studio\2022\Professional\VC\Tools\MSVC\14.44.35207\atlmfc\include\cstringt.h
;	COMDAT ?FormatV@?$CStringT@DV?$StrTraitMFC@DV?$ChTraitsCRT@D@ATL@@@@@ATL@@QAEXPBDPAD@Z
_TEXT	SEGMENT
tv456 = -16						; size = 4
__$EHRec$ = -12						; size = 12
_pszFormat$ = 8						; size = 4
_temp$ = 8						; size = 4
_args$ = 12						; size = 4
?FormatV@?$CStringT@DV?$StrTraitMFC@DV?$ChTraitsCRT@D@ATL@@@@@ATL@@QAEXPBDPAD@Z PROC ; ATL::CStringT<char,StrTraitMFC<char,ATL::ChTraitsCRT<char> > >::FormatV, COMDAT
; _this$ = ecx

; 2225 : 	{

  00000	55		 push	 ebp
  00001	8b ec		 mov	 ebp, esp
  00003	6a ff		 push	 -1
  00005	68 00 00 00 00	 push	 __ehhandler$?FormatV@?$CStringT@DV?$StrTraitMFC@DV?$ChTraitsCRT@D@ATL@@@@@ATL@@QAEXPBDPAD@Z
  0000a	64 a1 00 00 00
	00		 mov	 eax, DWORD PTR fs:0
  00010	50		 push	 eax
  00011	51		 push	 ecx
  00012	53		 push	 ebx
  00013	56		 push	 esi
  00014	57		 push	 edi
  00015	a1 00 00 00 00	 mov	 eax, DWORD PTR ___security_cookie
  0001a	33 c5		 xor	 eax, ebp
  0001c	50		 push	 eax
  0001d	8d 45 f4	 lea	 eax, DWORD PTR __$EHRec$[ebp]
  00020	64 a3 00 00 00
	00		 mov	 DWORD PTR fs:0, eax
  00026	8b d9		 mov	 ebx, ecx

; 2226 : 		ATLASSERT( AtlIsValidString( pszFormat ) );
; 2227 : 		if(pszFormat == NULL)

  00028	8b 75 08	 mov	 esi, DWORD PTR _pszFormat$[ebp]
  0002b	85 f6		 test	 esi, esi
  0002d	0f 84 2e 01 00
	00		 je	 $LN70@FormatV
; File C:\Program Files (x86)\Windows Kits\10\Include\10.0.26100.0\ucrt\stdio.h

; 1652 :         int const _Result = __stdio_common_vsprintf(

  00033	e8 00 00 00 00	 call	 ___local_stdio_printf_options
  00038	ff 75 0c	 push	 DWORD PTR _args$[ebp]
  0003b	89 45 f0	 mov	 DWORD PTR tv456[ebp], eax
  0003e	6a 00		 push	 0
  00040	8b 08		 mov	 ecx, DWORD PTR [eax]
  00042	56		 push	 esi
  00043	6a 00		 push	 0
  00045	6a 00		 push	 0
  00047	ff 70 04	 push	 DWORD PTR [eax+4]
  0004a	83 c9 02	 or	 ecx, 2
  0004d	51		 push	 ecx
  0004e	e8 00 00 00 00	 call	 ___stdio_common_vsprintf
  00053	8b f8		 mov	 edi, eax
  00055	83 c4 1c	 add	 esp, 28			; 0000001cH

; 1653 :             _CRT_INTERNAL_LOCAL_PRINTF_OPTIONS | _CRT_INTERNAL_PRINTF_STANDARD_SNPRINTF_BEHAVIOR,
; 1654 :             NULL, 0, _Format, _Locale, _ArgList);
; 1655 : 
; 1656 :         return _Result < 0 ? -1 : _Result;

  00058	83 c8 ff	 or	 eax, -1
  0005b	85 ff		 test	 edi, edi
  0005d	0f 48 f8	 cmovs	 edi, eax
; File C:\Program Files\Microsoft Visual Studio\2022\Professional\VC\Tools\MSVC\14.44.35207\atlmfc\include\cstringt.h

; 2232 : 		if (nLength < 0)

  00060	85 ff		 test	 edi, edi
  00062	0f 88 ef 00 00
	00		 js	 $LN87@FormatV
; File C:\Program Files\Microsoft Visual Studio\2022\Professional\VC\Tools\MSVC\14.44.35207\atlmfc\include\atlsimpstr.h

; 527  : 		IAtlStringMgr* pStringMgr = GetData()->pStringMgr;

  00068	8b 03		 mov	 eax, DWORD PTR [ebx]
  0006a	8b 48 f0	 mov	 ecx, DWORD PTR [eax-16]

; 528  : 		return pStringMgr ? pStringMgr->Clone() : NULL;

  0006d	85 c9		 test	 ecx, ecx
  0006f	74 0b		 je	 SHORT $LN13@FormatV
  00071	8b 01		 mov	 eax, DWORD PTR [ecx]
  00073	ff 50 10	 call	 DWORD PTR [eax+16]
  00076	8b c8		 mov	 ecx, eax
; File C:\Program Files\Microsoft Visual Studio\2022\Professional\VC\Tools\MSVC\14.44.35207\atlmfc\include\cstringt.h

; 1442 : 		if(pStringMgr) { return pStringMgr; }

  00078	85 c9		 test	 ecx, ecx
  0007a	75 16		 jne	 SHORT $LN28@FormatV
$LN13@FormatV:
; File C:\Program Files\Microsoft Visual Studio\2022\Professional\VC\Tools\MSVC\14.44.35207\atlmfc\include\afxstr.h

; 56   : 		return( AfxGetStringManager() );

  0007c	e8 00 00 00 00	 call	 ?AfxGetStringManager@@YGPAUIAtlStringMgr@ATL@@XZ ; AfxGetStringManager
; File C:\Program Files\Microsoft Visual Studio\2022\Professional\VC\Tools\MSVC\14.44.35207\atlmfc\include\cstringt.h

; 1445 : 		return pStringMgr->Clone();

  00081	8b c8		 mov	 ecx, eax
  00083	8b 10		 mov	 edx, DWORD PTR [eax]
  00085	ff 52 10	 call	 DWORD PTR [edx+16]
  00088	8b c8		 mov	 ecx, eax
; File C:\Program Files\Microsoft Visual Studio\2022\Professional\VC\Tools\MSVC\14.44.35207\atlmfc\include\atlsimpstr.h

; 209  : 		ATLENSURE( pStringMgr != NULL );

  0008a	85 c9		 test	 ecx, ecx
  0008c	0f 84 c5 00 00
	00		 je	 $LN87@FormatV
$LN28@FormatV:

; 210  : 		CStringData* pData = pStringMgr->GetNilString();

  00092	8b 01		 mov	 eax, DWORD PTR [ecx]
  00094	ff 50 0c	 call	 DWORD PTR [eax+12]

; 211  : 		Attach( pData );

  00097	83 c0 10	 add	 eax, 16			; 00000010H
  0009a	89 45 08	 mov	 DWORD PTR _temp$[ebp], eax
; File C:\Program Files\Microsoft Visual Studio\2022\Professional\VC\Tools\MSVC\14.44.35207\atlmfc\include\cstringt.h

; 1063 : 		CThisSimpleString( pStringMgr )

  0009d	c7 45 fc 00 00
	00 00		 mov	 DWORD PTR __$EHRec$[ebp+8], 0

; 2712 : 		if( (pv != NULL) && IS_INTRESOURCE( pv ) )

  000a4	f7 c6 00 00 ff
	ff		 test	 esi, -65536		; ffff0000H
  000aa	75 0e		 jne	 SHORT $LN86@FormatV

; 2713 : 		{
; 2714 : 			UINT nID = LOWORD( reinterpret_cast< DWORD_PTR >( pv ) );

  000ac	0f b7 c6	 movzx	 eax, si

; 2715 : 			(nID);
; 2716 : #ifdef _ATL_USE_WINAPI_FAMILY_DESKTOP_APP
; 2717 : 			if( !LoadString( nID ) )

  000af	8d 4d 08	 lea	 ecx, DWORD PTR _temp$[ebp]
  000b2	50		 push	 eax
  000b3	e8 00 00 00 00	 call	 ?LoadStringA@?$CStringT@DV?$StrTraitMFC@DV?$ChTraitsCRT@D@ATL@@@@@ATL@@QAEHI@Z ; ATL::CStringT<char,StrTraitMFC<char,ATL::ChTraitsCRT<char> > >::LoadStringA

; 1065 : 		if( !CheckImplicitLoad( pszSrc ) )

  000b8	eb 19		 jmp	 SHORT $LN24@FormatV
$LN86@FormatV:
; File C:\Program Files\Microsoft Visual Studio\2022\Professional\VC\Tools\MSVC\14.44.35207\atlmfc\include\atlsimpstr.h

; 730  : 		return( int( strlen( psz ) ) );

  000ba	8b ce		 mov	 ecx, esi
  000bc	8d 51 01	 lea	 edx, DWORD PTR [ecx+1]
  000bf	90		 npad	 1
$LL89@FormatV:
  000c0	8a 01		 mov	 al, BYTE PTR [ecx]
  000c2	41		 inc	 ecx
  000c3	84 c0		 test	 al, al
  000c5	75 f9		 jne	 SHORT $LL89@FormatV
  000c7	2b ca		 sub	 ecx, edx

; 606  : 		SetString( pszSrc, StringLength( pszSrc ) );

  000c9	51		 push	 ecx
  000ca	56		 push	 esi
  000cb	8d 4d 08	 lea	 ecx, DWORD PTR _temp$[ebp]
  000ce	e8 00 00 00 00	 call	 ?SetString@?$CSimpleStringT@D$0A@@ATL@@QAEXPBDH@Z ; ATL::CSimpleStringT<char,0>::SetString
$LN24@FormatV:

; 804  : 		return( reinterpret_cast< CStringData* >( m_pszData )-1 );

  000d3	8b 03		 mov	 eax, DWORD PTR [ebx]

; 812  : 		int nShared = 1-pOldData->nRefs;  // nShared < 0 means true, >= 0 means false

  000d5	b9 01 00 00 00	 mov	 ecx, 1
; File C:\Program Files\Microsoft Visual Studio\2022\Professional\VC\Tools\MSVC\14.44.35207\atlmfc\include\cstringt.h

; 2235 : 		CStringT temp(pszFormat, this->GetManager());

  000da	c7 45 fc 01 00
	00 00		 mov	 DWORD PTR __$EHRec$[ebp+8], 1
; File C:\Program Files\Microsoft Visual Studio\2022\Professional\VC\Tools\MSVC\14.44.35207\atlmfc\include\atlsimpstr.h

; 812  : 		int nShared = 1-pOldData->nRefs;  // nShared < 0 means true, >= 0 means false

  000e1	2b 48 fc	 sub	 ecx, DWORD PTR [eax-4]

; 813  : 		int nTooShort = pOldData->nAllocLength-nLength;  // nTooShort < 0 means true, >= 0 means false

  000e4	8b 40 f8	 mov	 eax, DWORD PTR [eax-8]
  000e7	2b c7		 sub	 eax, edi

; 814  : 		if( (nShared|nTooShort) < 0 )  // If either sign bit is set (i.e. either is less than zero), we need to copy data

  000e9	0b c8		 or	 ecx, eax
  000eb	7d 08		 jge	 SHORT $LN55@FormatV

; 815  : 		{
; 816  : 			PrepareWrite2( nLength );

  000ed	57		 push	 edi
  000ee	8b cb		 mov	 ecx, ebx
  000f0	e8 00 00 00 00	 call	 ?PrepareWrite2@?$CSimpleStringT@D$0A@@ATL@@AAEXH@Z ; ATL::CSimpleStringT<char,0>::PrepareWrite2
$LN55@FormatV:
; File C:\Program Files (x86)\Windows Kits\10\Include\10.0.26100.0\ucrt\stdio.h

; 1491 :         int const _Result = __stdio_common_vsprintf_s(

  000f5	ff 75 0c	 push	 DWORD PTR _args$[ebp]
  000f8	8b 75 08	 mov	 esi, DWORD PTR _temp$[ebp]
; File C:\Program Files\Microsoft Visual Studio\2022\Professional\VC\Tools\MSVC\14.44.35207\atlmfc\include\cstringt.h

; 2237 : 		StringTraits::Format( pszBuffer, nLength+1, temp, args );

  000fb	8d 47 01	 lea	 eax, DWORD PTR [edi+1]
; File C:\Program Files (x86)\Windows Kits\10\Include\10.0.26100.0\ucrt\stdio.h

; 1491 :         int const _Result = __stdio_common_vsprintf_s(

  000fe	6a 00		 push	 0
  00100	56		 push	 esi
  00101	50		 push	 eax
  00102	8b 45 f0	 mov	 eax, DWORD PTR tv456[ebp]
  00105	ff 33		 push	 DWORD PTR [ebx]
  00107	ff 70 04	 push	 DWORD PTR [eax+4]
  0010a	ff 30		 push	 DWORD PTR [eax]
  0010c	e8 00 00 00 00	 call	 ___stdio_common_vsprintf_s
; File C:\Program Files\Microsoft Visual Studio\2022\Professional\VC\Tools\MSVC\14.44.35207\atlmfc\include\atlsimpstr.h

; 875  : 		if( nLength < 0 || nLength > GetData()->nAllocLength)

  00111	8b 03		 mov	 eax, DWORD PTR [ebx]
; File C:\Program Files (x86)\Windows Kits\10\Include\10.0.26100.0\ucrt\stdio.h

; 1491 :         int const _Result = __stdio_common_vsprintf_s(

  00113	83 c4 1c	 add	 esp, 28			; 0000001cH
; File C:\Program Files\Microsoft Visual Studio\2022\Professional\VC\Tools\MSVC\14.44.35207\atlmfc\include\atlsimpstr.h

; 875  : 		if( nLength < 0 || nLength > GetData()->nAllocLength)

  00116	3b 78 f8	 cmp	 edi, DWORD PTR [eax-8]
  00119	7f 46		 jg	 SHORT $LN70@FormatV

; 876  : 			AtlThrow(E_INVALIDARG);
; 877  : 
; 878  : 		GetData()->nDataLength = nLength;

  0011b	89 78 f4	 mov	 DWORD PTR [eax-12], edi

; 804  : 		return( reinterpret_cast< CStringData* >( m_pszData )-1 );

  0011e	83 c6 f0	 add	 esi, -16		; fffffff0H

; 879  : 		m_pszData[nLength] = 0;

  00121	8b 03		 mov	 eax, DWORD PTR [ebx]
; File C:\Program Files\Microsoft Visual Studio\2022\Professional\VC\Tools\MSVC\14.44.35207\atlmfc\include\cstringt.h

; 2239 : 	}

  00123	c7 45 fc ff ff
	ff ff		 mov	 DWORD PTR __$EHRec$[ebp+8], -1
; File C:\Program Files\Microsoft Visual Studio\2022\Professional\VC\Tools\MSVC\14.44.35207\atlmfc\include\atlsimpstr.h

; 879  : 		m_pszData[nLength] = 0;

  0012a	c6 04 07 00	 mov	 BYTE PTR [edi+eax], 0

; 92   : 		if( _InterlockedDecrement( &nRefs ) <= 0 )

  0012e	83 c8 ff	 or	 eax, -1
  00131	f0 0f c1 46 0c	 lock	  xadd	 DWORD PTR [esi+12], eax
  00136	48		 dec	 eax
  00137	85 c0		 test	 eax, eax
  00139	7f 08		 jg	 SHORT $LN84@FormatV

; 93   : 		{
; 94   : 			pStringMgr->Free( this );

  0013b	8b 0e		 mov	 ecx, DWORD PTR [esi]
  0013d	56		 push	 esi
  0013e	8b 01		 mov	 eax, DWORD PTR [ecx]
  00140	ff 50 04	 call	 DWORD PTR [eax+4]
$LN84@FormatV:
; File C:\Program Files\Microsoft Visual Studio\2022\Professional\VC\Tools\MSVC\14.44.35207\atlmfc\include\cstringt.h

; 2239 : 	}

  00143	8b 4d f4	 mov	 ecx, DWORD PTR __$EHRec$[ebp]
  00146	64 89 0d 00 00
	00 00		 mov	 DWORD PTR fs:0, ecx
  0014d	59		 pop	 ecx
  0014e	5f		 pop	 edi
  0014f	5e		 pop	 esi
  00150	5b		 pop	 ebx
  00151	8b e5		 mov	 esp, ebp
  00153	5d		 pop	 ebp
  00154	c2 08 00	 ret	 8
$LN87@FormatV:
; File C:\Program Files\Microsoft Visual Studio\2022\Professional\VC\Tools\MSVC\14.44.35207\atlmfc\include\atlsimpstr.h

; 209  : 		ATLENSURE( pStringMgr != NULL );

  00157	68 05 40 00 80	 push	 -2147467259		; 80004005H
  0015c	e8 00 00 00 00	 call	 ?AtlThrowImpl@ATL@@YGXJ@Z ; ATL::AtlThrowImpl
$LN70@FormatV:
; File C:\Program Files\Microsoft Visual Studio\2022\Professional\VC\Tools\MSVC\14.44.35207\atlmfc\include\cstringt.h

; 2239 : 	}

  00161	68 57 00 07 80	 push	 -2147024809		; 80070057H
  00166	e8 00 00 00 00	 call	 ?AtlThrowImpl@ATL@@YGXJ@Z ; ATL::AtlThrowImpl
$LN91@FormatV:
  0016b	cc		 int	 3
_TEXT	ENDS
;	COMDAT text$x
text$x	SEGMENT
__unwindfunclet$?FormatV@?$CStringT@DV?$StrTraitMFC@DV?$ChTraitsCRT@D@ATL@@@@@ATL@@QAEXPBDPAD@Z$1:
  00000	8d 4d 08	 lea	 ecx, DWORD PTR _temp$[ebp]
  00003	e9 00 00 00 00	 jmp	 ??1?$CSimpleStringT@D$0A@@ATL@@QAE@XZ ; ATL::CSimpleStringT<char,0>::~CSimpleStringT<char,0>
__unwindfunclet$?FormatV@?$CStringT@DV?$StrTraitMFC@DV?$ChTraitsCRT@D@ATL@@@@@ATL@@QAEXPBDPAD@Z$0:
  00008	8d 4d 08	 lea	 ecx, DWORD PTR _temp$[ebp]
  0000b	e9 00 00 00 00	 jmp	 ??1?$CStringT@DV?$StrTraitMFC@DV?$ChTraitsCRT@D@ATL@@@@@ATL@@QAE@XZ ; ATL::CStringT<char,StrTraitMFC<char,ATL::ChTraitsCRT<char> > >::~CStringT<char,StrTraitMFC<char,ATL::ChTraitsCRT<char> > >
  00010	cc		 int	 3
  00011	cc		 int	 3
  00012	cc		 int	 3
  00013	cc		 int	 3
  00014	cc		 int	 3
__ehhandler$?FormatV@?$CStringT@DV?$StrTraitMFC@DV?$ChTraitsCRT@D@ATL@@@@@ATL@@QAEXPBDPAD@Z:
  00015	90		 npad	 1
  00016	90		 npad	 1
  00017	8b 54 24 08	 mov	 edx, DWORD PTR [esp+8]
  0001b	8d 42 0c	 lea	 eax, DWORD PTR [edx+12]
  0001e	8b 4a ec	 mov	 ecx, DWORD PTR [edx-20]
  00021	33 c8		 xor	 ecx, eax
  00023	e8 00 00 00 00	 call	 @__security_check_cookie@4
  00028	b8 00 00 00 00	 mov	 eax, OFFSET __ehfuncinfo$?FormatV@?$CStringT@DV?$StrTraitMFC@DV?$ChTraitsCRT@D@ATL@@@@@ATL@@QAEXPBDPAD@Z
  0002d	e9 00 00 00 00	 jmp	 ___CxxFrameHandler3
text$x	ENDS
?FormatV@?$CStringT@DV?$StrTraitMFC@DV?$ChTraitsCRT@D@ATL@@@@@ATL@@QAEXPBDPAD@Z ENDP ; ATL::CStringT<char,StrTraitMFC<char,ATL::ChTraitsCRT<char> > >::FormatV
; Function compile flags: /Ogtp
; File C:\Program Files\Microsoft Visual Studio\2022\Professional\VC\Tools\MSVC\14.44.35207\atlmfc\include\cstringt.h
;	COMDAT ?Format@?$CStringT@DV?$StrTraitMFC@DV?$ChTraitsCRT@D@ATL@@@@@ATL@@QAAXPBDZZ
_TEXT	SEGMENT
_this$ = 8						; size = 4
_pszFormat$ = 12					; size = 4
?Format@?$CStringT@DV?$StrTraitMFC@DV?$ChTraitsCRT@D@ATL@@@@@ATL@@QAAXPBDZZ PROC ; ATL::CStringT<char,StrTraitMFC<char,ATL::ChTraitsCRT<char> > >::Format, COMDAT

; 2745 : {

  00000	55		 push	 ebp
  00001	8b ec		 mov	 ebp, esp

; 2746 : 	ATLASSERT( AtlIsValidString( pszFormat ) );
; 2747 : 
; 2748 : 	va_list argList;
; 2749 : 	va_start( argList, pszFormat );
; 2750 : 	FormatV( pszFormat, argList );

  00003	8b 4d 08	 mov	 ecx, DWORD PTR _this$[ebp]
  00006	8d 45 10	 lea	 eax, DWORD PTR _pszFormat$[ebp+4]
  00009	50		 push	 eax
  0000a	ff 75 0c	 push	 DWORD PTR _pszFormat$[ebp]
  0000d	e8 00 00 00 00	 call	 ?FormatV@?$CStringT@DV?$StrTraitMFC@DV?$ChTraitsCRT@D@ATL@@@@@ATL@@QAEXPBDPAD@Z ; ATL::CStringT<char,StrTraitMFC<char,ATL::ChTraitsCRT<char> > >::FormatV

; 2751 : 	va_end( argList );
; 2752 : }

  00012	5d		 pop	 ebp
  00013	c3		 ret	 0
?Format@?$CStringT@DV?$StrTraitMFC@DV?$ChTraitsCRT@D@ATL@@@@@ATL@@QAAXPBDZZ ENDP ; ATL::CStringT<char,StrTraitMFC<char,ATL::ChTraitsCRT<char> > >::Format
_TEXT	ENDS
; Function compile flags: /Ogtp
; File C:\Program Files\Microsoft Visual Studio\2022\Professional\VC\Tools\MSVC\14.44.35207\atlmfc\include\cstringt.h
; File C:\Program Files\Microsoft Visual Studio\2022\Professional\VC\Tools\MSVC\14.44.35207\atlmfc\include\atlsimpstr.h
; File C:\Program Files\Microsoft Visual Studio\2022\Professional\VC\Tools\MSVC\14.44.35207\atlmfc\include\cstringt.h
; File C:\Program Files\Microsoft Visual Studio\2022\Professional\VC\Tools\MSVC\14.44.35207\atlmfc\include\atlsimpstr.h
; File C:\Program Files\Microsoft Visual Studio\2022\Professional\VC\Tools\MSVC\14.44.35207\atlmfc\include\cstringt.h
; File C:\Program Files\Microsoft Visual Studio\2022\Professional\VC\Tools\MSVC\14.44.35207\atlmfc\include\atlchecked.h
; File C:\Program Files\Microsoft Visual Studio\2022\Professional\VC\Tools\MSVC\14.44.35207\atlmfc\include\atlsimpstr.h
; File C:\Program Files\Microsoft Visual Studio\2022\Professional\VC\Tools\MSVC\14.44.35207\atlmfc\include\atlchecked.h
; File C:\Program Files\Microsoft Visual Studio\2022\Professional\VC\Tools\MSVC\14.44.35207\atlmfc\include\atlsimpstr.h
; File C:\Program Files\Microsoft Visual Studio\2022\Professional\VC\Tools\MSVC\14.44.35207\atlmfc\include\cstringt.h
; File C:\Program Files\Microsoft Visual Studio\2022\Professional\VC\Tools\MSVC\14.44.35207\atlmfc\include\atlsimpstr.h
; File C:\Program Files\Microsoft Visual Studio\2022\Professional\VC\Tools\MSVC\14.44.35207\atlmfc\include\cstringt.h
;	COMDAT ?MakeLower@?$CStringT@DV?$StrTraitMFC@DV?$ChTraitsCRT@D@ATL@@@@@ATL@@QAEAAV12@XZ
_TEXT	SEGMENT
?MakeLower@?$CStringT@DV?$StrTraitMFC@DV?$ChTraitsCRT@D@ATL@@@@@ATL@@QAEAAV12@XZ PROC ; ATL::CStringT<char,StrTraitMFC<char,ATL::ChTraitsCRT<char> > >::MakeLower, COMDAT
; _this$ = ecx

; 1840 : 	{

  00000	56		 push	 esi
  00001	57		 push	 edi
  00002	8b f9		 mov	 edi, ecx
; File C:\Program Files\Microsoft Visual Studio\2022\Professional\VC\Tools\MSVC\14.44.35207\atlmfc\include\atlsimpstr.h

; 523  : 		return( GetData()->nDataLength );

  00004	8b 07		 mov	 eax, DWORD PTR [edi]
; File C:\Program Files\Microsoft Visual Studio\2022\Professional\VC\Tools\MSVC\14.44.35207\atlmfc\include\cstringt.h

; 1841 : 		int nLength = this->GetLength();

  00006	8b 70 f4	 mov	 esi, DWORD PTR [eax-12]
; File C:\Program Files\Microsoft Visual Studio\2022\Professional\VC\Tools\MSVC\14.44.35207\atlmfc\include\atlsimpstr.h

; 808  : 		if (nLength < 0)

  00009	85 f6		 test	 esi, esi
  0000b	78 40		 js	 SHORT $LN25@MakeLower

; 809  : 			AtlThrow(E_INVALIDARG);
; 810  : 
; 811  : 		CStringData* pOldData = GetData();
; 812  : 		int nShared = 1-pOldData->nRefs;  // nShared < 0 means true, >= 0 means false

  0000d	ba 01 00 00 00	 mov	 edx, 1
  00012	2b 50 fc	 sub	 edx, DWORD PTR [eax-4]

; 813  : 		int nTooShort = pOldData->nAllocLength-nLength;  // nTooShort < 0 means true, >= 0 means false

  00015	8b 40 f8	 mov	 eax, DWORD PTR [eax-8]
  00018	2b c6		 sub	 eax, esi

; 814  : 		if( (nShared|nTooShort) < 0 )  // If either sign bit is set (i.e. either is less than zero), we need to copy data

  0001a	0b d0		 or	 edx, eax
  0001c	7d 06		 jge	 SHORT $LN11@MakeLower

; 815  : 		{
; 816  : 			PrepareWrite2( nLength );

  0001e	56		 push	 esi
  0001f	e8 00 00 00 00	 call	 ?PrepareWrite2@?$CSimpleStringT@D$0A@@ATL@@AAEXH@Z ; ATL::CSimpleStringT<char,0>::PrepareWrite2
$LN11@MakeLower:
; File C:\Program Files\Microsoft Visual Studio\2022\Professional\VC\Tools\MSVC\14.44.35207\atlmfc\include\cstringt.h

; 1843 : 		StringTraits::StringLowercase( pszBuffer, nLength+1 );

  00024	8d 46 01	 lea	 eax, DWORD PTR [esi+1]
; File C:\Program Files\Microsoft Visual Studio\2022\Professional\VC\Tools\MSVC\14.44.35207\atlmfc\include\atlchecked.h

; 188  : 	ATLMFC_CRT_ERRORCHECK(::_mbslwr_s(_Str, _SizeInChars));

  00027	50		 push	 eax
  00028	ff 37		 push	 DWORD PTR [edi]
  0002a	e8 00 00 00 00	 call	 __mbslwr_s
  0002f	50		 push	 eax
  00030	e8 00 00 00 00	 call	 ?AfxCrtErrorCheck@@YAHH@Z ; AfxCrtErrorCheck
; File C:\Program Files\Microsoft Visual Studio\2022\Professional\VC\Tools\MSVC\14.44.35207\atlmfc\include\atlsimpstr.h

; 875  : 		if( nLength < 0 || nLength > GetData()->nAllocLength)

  00035	8b 07		 mov	 eax, DWORD PTR [edi]
; File C:\Program Files\Microsoft Visual Studio\2022\Professional\VC\Tools\MSVC\14.44.35207\atlmfc\include\atlchecked.h

; 188  : 	ATLMFC_CRT_ERRORCHECK(::_mbslwr_s(_Str, _SizeInChars));

  00037	83 c4 0c	 add	 esp, 12			; 0000000cH
; File C:\Program Files\Microsoft Visual Studio\2022\Professional\VC\Tools\MSVC\14.44.35207\atlmfc\include\atlsimpstr.h

; 875  : 		if( nLength < 0 || nLength > GetData()->nAllocLength)

  0003a	3b 70 f8	 cmp	 esi, DWORD PTR [eax-8]
  0003d	7f 0e		 jg	 SHORT $LN25@MakeLower

; 877  : 
; 878  : 		GetData()->nDataLength = nLength;

  0003f	89 70 f4	 mov	 DWORD PTR [eax-12], esi

; 879  : 		m_pszData[nLength] = 0;

  00042	8b 07		 mov	 eax, DWORD PTR [edi]
  00044	c6 04 06 00	 mov	 BYTE PTR [esi+eax], 0
; File C:\Program Files\Microsoft Visual Studio\2022\Professional\VC\Tools\MSVC\14.44.35207\atlmfc\include\cstringt.h

; 1846 : 		return( *this );

  00048	8b c7		 mov	 eax, edi
  0004a	5f		 pop	 edi
  0004b	5e		 pop	 esi

; 1847 : 	}

  0004c	c3		 ret	 0
$LN25@MakeLower:
; File C:\Program Files\Microsoft Visual Studio\2022\Professional\VC\Tools\MSVC\14.44.35207\atlmfc\include\atlsimpstr.h

; 876  : 			AtlThrow(E_INVALIDARG);

  0004d	68 57 00 07 80	 push	 -2147024809		; 80070057H
  00052	e8 00 00 00 00	 call	 ?AtlThrowImpl@ATL@@YGXJ@Z ; ATL::AtlThrowImpl
$LN36@MakeLower:
  00057	cc		 int	 3
?MakeLower@?$CStringT@DV?$StrTraitMFC@DV?$ChTraitsCRT@D@ATL@@@@@ATL@@QAEAAV12@XZ ENDP ; ATL::CStringT<char,StrTraitMFC<char,ATL::ChTraitsCRT<char> > >::MakeLower
_TEXT	ENDS
; Function compile flags: /Ogtp
; File C:\Program Files\Microsoft Visual Studio\2022\Professional\VC\Tools\MSVC\14.44.35207\atlmfc\include\cstringt.h
; File C:\Program Files\Microsoft Visual Studio\2022\Professional\VC\Tools\MSVC\14.44.35207\atlmfc\include\atlsimpstr.h
; File C:\Program Files\Microsoft Visual Studio\2022\Professional\VC\Tools\MSVC\14.44.35207\atlmfc\include\cstringt.h
;	COMDAT ??1?$CStringT@DV?$StrTraitMFC@DV?$ChTraitsCRT@D@ATL@@@@@ATL@@QAE@XZ
_TEXT	SEGMENT
??1?$CStringT@DV?$StrTraitMFC@DV?$ChTraitsCRT@D@ATL@@@@@ATL@@QAE@XZ PROC ; ATL::CStringT<char,StrTraitMFC<char,ATL::ChTraitsCRT<char> > >::~CStringT<char,StrTraitMFC<char,ATL::ChTraitsCRT<char> > >, COMDAT
; _this$ = ecx
; File C:\Program Files\Microsoft Visual Studio\2022\Professional\VC\Tools\MSVC\14.44.35207\atlmfc\include\atlsimpstr.h

; 804  : 		return( reinterpret_cast< CStringData* >( m_pszData )-1 );

  00000	8b 11		 mov	 edx, DWORD PTR [ecx]

; 92   : 		if( _InterlockedDecrement( &nRefs ) <= 0 )

  00002	83 c8 ff	 or	 eax, -1

; 804  : 		return( reinterpret_cast< CStringData* >( m_pszData )-1 );

  00005	83 ea 10	 sub	 edx, 16			; 00000010H

; 92   : 		if( _InterlockedDecrement( &nRefs ) <= 0 )

  00008	f0 0f c1 42 0c	 lock	  xadd	 DWORD PTR [edx+12], eax
  0000d	48		 dec	 eax
  0000e	85 c0		 test	 eax, eax
  00010	7f 08		 jg	 SHORT $LN8@CStringT

; 93   : 		{
; 94   : 			pStringMgr->Free( this );

  00012	8b 0a		 mov	 ecx, DWORD PTR [edx]
  00014	52		 push	 edx
  00015	8b 01		 mov	 eax, DWORD PTR [ecx]
  00017	ff 50 04	 call	 DWORD PTR [eax+4]
$LN8@CStringT:
; File C:\Program Files\Microsoft Visual Studio\2022\Professional\VC\Tools\MSVC\14.44.35207\atlmfc\include\cstringt.h

; 1303 : 	}

  0001a	c3		 ret	 0
??1?$CStringT@DV?$StrTraitMFC@DV?$ChTraitsCRT@D@ATL@@@@@ATL@@QAE@XZ ENDP ; ATL::CStringT<char,StrTraitMFC<char,ATL::ChTraitsCRT<char> > >::~CStringT<char,StrTraitMFC<char,ATL::ChTraitsCRT<char> > >
_TEXT	ENDS
; Function compile flags: /Ogtp
; File C:\Program Files\Microsoft Visual Studio\2022\Professional\VC\Tools\MSVC\14.44.35207\atlmfc\include\cstringt.h
; File C:\Program Files\Microsoft Visual Studio\2022\Professional\VC\Tools\MSVC\14.44.35207\atlmfc\include\afxstr.h
; File C:\Program Files\Microsoft Visual Studio\2022\Professional\VC\Tools\MSVC\14.44.35207\atlmfc\include\cstringt.h
; File C:\Program Files\Microsoft Visual Studio\2022\Professional\VC\Tools\MSVC\14.44.35207\atlmfc\include\atlsimpstr.h
; File C:\Program Files\Microsoft Visual Studio\2022\Professional\VC\Tools\MSVC\14.44.35207\atlmfc\include\cstringt.h
; File C:\Program Files\Microsoft Visual Studio\2022\Professional\VC\Tools\MSVC\14.44.35207\atlmfc\include\atlsimpstr.h
; File C:\Program Files\Microsoft Visual Studio\2022\Professional\VC\Tools\MSVC\14.44.35207\atlmfc\include\cstringt.h
;	COMDAT ??0?$CStringT@DV?$StrTraitMFC@DV?$ChTraitsCRT@D@ATL@@@@@ATL@@QAE@XZ
_TEXT	SEGMENT
??0?$CStringT@DV?$StrTraitMFC@DV?$ChTraitsCRT@D@ATL@@@@@ATL@@QAE@XZ PROC ; ATL::CStringT<char,StrTraitMFC<char,ATL::ChTraitsCRT<char> > >::CStringT<char,StrTraitMFC<char,ATL::ChTraitsCRT<char> > >, COMDAT
; _this$ = ecx

; 1015 : 	{

  00000	56		 push	 esi
  00001	8b f1		 mov	 esi, ecx
; File C:\Program Files\Microsoft Visual Studio\2022\Professional\VC\Tools\MSVC\14.44.35207\atlmfc\include\afxstr.h

; 56   : 		return( AfxGetStringManager() );

  00003	e8 00 00 00 00	 call	 ?AfxGetStringManager@@YGPAUIAtlStringMgr@ATL@@XZ ; AfxGetStringManager
; File C:\Program Files\Microsoft Visual Studio\2022\Professional\VC\Tools\MSVC\14.44.35207\atlmfc\include\cstringt.h

; 1014 : 		CThisSimpleString( StringTraits::GetDefaultManager() )

  00008	8b c8		 mov	 ecx, eax
; File C:\Program Files\Microsoft Visual Studio\2022\Professional\VC\Tools\MSVC\14.44.35207\atlmfc\include\atlsimpstr.h

; 209  : 		ATLENSURE( pStringMgr != NULL );

  0000a	85 c9		 test	 ecx, ecx
  0000c	74 0e		 je	 SHORT $LN18@CStringT

; 210  : 		CStringData* pData = pStringMgr->GetNilString();

  0000e	8b 01		 mov	 eax, DWORD PTR [ecx]
  00010	ff 50 0c	 call	 DWORD PTR [eax+12]

; 211  : 		Attach( pData );

  00013	83 c0 10	 add	 eax, 16			; 00000010H
  00016	89 06		 mov	 DWORD PTR [esi], eax
; File C:\Program Files\Microsoft Visual Studio\2022\Professional\VC\Tools\MSVC\14.44.35207\atlmfc\include\cstringt.h

; 1016 : 	}

  00018	8b c6		 mov	 eax, esi
  0001a	5e		 pop	 esi
  0001b	c3		 ret	 0
$LN18@CStringT:
; File C:\Program Files\Microsoft Visual Studio\2022\Professional\VC\Tools\MSVC\14.44.35207\atlmfc\include\atlsimpstr.h

; 209  : 		ATLENSURE( pStringMgr != NULL );

  0001c	68 05 40 00 80	 push	 -2147467259		; 80004005H
  00021	e8 00 00 00 00	 call	 ?AtlThrowImpl@ATL@@YGXJ@Z ; ATL::AtlThrowImpl
$LN16@CStringT:
  00026	cc		 int	 3
??0?$CStringT@DV?$StrTraitMFC@DV?$ChTraitsCRT@D@ATL@@@@@ATL@@QAE@XZ ENDP ; ATL::CStringT<char,StrTraitMFC<char,ATL::ChTraitsCRT<char> > >::CStringT<char,StrTraitMFC<char,ATL::ChTraitsCRT<char> > >
_TEXT	ENDS
; Function compile flags: /Ogtp
; File C:\Program Files\Microsoft Visual Studio\2022\Professional\VC\Tools\MSVC\14.44.35207\atlmfc\include\atlsimpstr.h
;	COMDAT ?Reallocate@?$CSimpleStringT@D$0A@@ATL@@AAEXH@Z
_TEXT	SEGMENT
_nLength$ = 8						; size = 4
?Reallocate@?$CSimpleStringT@D$0A@@ATL@@AAEXH@Z PROC	; ATL::CSimpleStringT<char,0>::Reallocate, COMDAT
; _this$ = ecx

; 853  : 	{

  00000	55		 push	 ebp
  00001	8b ec		 mov	 ebp, esp
  00003	56		 push	 esi

; 854  : 		CStringData* pOldData = GetData();
; 855  : 		ATLASSERT( pOldData->nAllocLength < nLength );
; 856  : 		IAtlStringMgr* pStringMgr = pOldData->pStringMgr;
; 857  : 		if ( pOldData->nAllocLength >= nLength || nLength <= 0)

  00004	8b 75 08	 mov	 esi, DWORD PTR _nLength$[ebp]
  00007	57		 push	 edi
  00008	8b f9		 mov	 edi, ecx

; 804  : 		return( reinterpret_cast< CStringData* >( m_pszData )-1 );

  0000a	8b 17		 mov	 edx, DWORD PTR [edi]
  0000c	83 ea 10	 sub	 edx, 16			; 00000010H

; 854  : 		CStringData* pOldData = GetData();
; 855  : 		ATLASSERT( pOldData->nAllocLength < nLength );
; 856  : 		IAtlStringMgr* pStringMgr = pOldData->pStringMgr;
; 857  : 		if ( pOldData->nAllocLength >= nLength || nLength <= 0)

  0000f	39 72 08	 cmp	 DWORD PTR [edx+8], esi
  00012	7d 1e		 jge	 SHORT $LN3@Reallocate
  00014	85 f6		 test	 esi, esi
  00016	7e 1a		 jle	 SHORT $LN3@Reallocate

; 860  : 			return;
; 861  : 		}
; 862  : 		CStringData* pNewData = pStringMgr->Reallocate( pOldData, nLength, sizeof( XCHAR ) );

  00018	8b 0a		 mov	 ecx, DWORD PTR [edx]
  0001a	6a 01		 push	 1
  0001c	56		 push	 esi
  0001d	52		 push	 edx
  0001e	8b 01		 mov	 eax, DWORD PTR [ecx]
  00020	ff 50 08	 call	 DWORD PTR [eax+8]

; 863  : 		if( pNewData == NULL )

  00023	85 c0		 test	 eax, eax
  00025	74 0b		 je	 SHORT $LN3@Reallocate

; 864  : 		{
; 865  : 			ThrowMemoryException();
; 866  : 		}
; 867  : 		Attach( pNewData );

  00027	83 c0 10	 add	 eax, 16			; 00000010H
  0002a	89 07		 mov	 DWORD PTR [edi], eax
  0002c	5f		 pop	 edi
  0002d	5e		 pop	 esi

; 868  : 	}

  0002e	5d		 pop	 ebp
  0002f	c2 04 00	 ret	 4
$LN3@Reallocate:

; 858  : 		{
; 859  : 			ThrowMemoryException();

  00032	e8 00 00 00 00	 call	 ?ThrowMemoryException@?$CSimpleStringT@D$0A@@ATL@@KAXXZ ; ATL::CSimpleStringT<char,0>::ThrowMemoryException
$LN12@Reallocate:
  00037	cc		 int	 3
?Reallocate@?$CSimpleStringT@D$0A@@ATL@@AAEXH@Z ENDP	; ATL::CSimpleStringT<char,0>::Reallocate
_TEXT	ENDS
; Function compile flags: /Ogtp
; File C:\Program Files\Microsoft Visual Studio\2022\Professional\VC\Tools\MSVC\14.44.35207\atlmfc\include\atlsimpstr.h
;	COMDAT ?PrepareWrite2@?$CSimpleStringT@D$0A@@ATL@@AAEXH@Z
_TEXT	SEGMENT
_nLength$ = 8						; size = 4
?PrepareWrite2@?$CSimpleStringT@D$0A@@ATL@@AAEXH@Z PROC	; ATL::CSimpleStringT<char,0>::PrepareWrite2, COMDAT
; _this$ = ecx

; 822  : 	{

  00000	55		 push	 ebp
  00001	8b ec		 mov	 ebp, esp
  00003	56		 push	 esi

; 823  : 		CStringData* pOldData = GetData();
; 824  : 		if( pOldData->nDataLength > nLength )

  00004	8b 75 08	 mov	 esi, DWORD PTR _nLength$[ebp]
  00007	57		 push	 edi
  00008	8b f9		 mov	 edi, ecx

; 804  : 		return( reinterpret_cast< CStringData* >( m_pszData )-1 );

  0000a	8b 0f		 mov	 ecx, DWORD PTR [edi]

; 823  : 		CStringData* pOldData = GetData();
; 824  : 		if( pOldData->nDataLength > nLength )

  0000c	39 71 f4	 cmp	 DWORD PTR [ecx-12], esi
  0000f	0f 4f 71 f4	 cmovg	 esi, DWORD PTR [ecx-12]

; 77   : 		return( nRefs > 1 );

  00013	83 79 fc 01	 cmp	 DWORD PTR [ecx-4], 1

; 825  : 		{
; 826  : 			nLength = pOldData->nDataLength;
; 827  : 		}
; 828  : 		if( pOldData->IsShared() )

  00017	7e 0e		 jle	 SHORT $LN3@PrepareWri

; 829  : 		{
; 830  : 			Fork( nLength );

  00019	56		 push	 esi
  0001a	8b cf		 mov	 ecx, edi
  0001c	e8 00 00 00 00	 call	 ?Fork@?$CSimpleStringT@D$0A@@ATL@@AAEXH@Z ; ATL::CSimpleStringT<char,0>::Fork
  00021	5f		 pop	 edi

; 850  : 		}
; 851  : 	}

  00022	5e		 pop	 esi
  00023	5d		 pop	 ebp
  00024	c2 04 00	 ret	 4
$LN3@PrepareWri:

; 831  : 		}
; 832  : 		else if( pOldData->nAllocLength < nLength )

  00027	8b 49 f8	 mov	 ecx, DWORD PTR [ecx-8]
  0002a	3b ce		 cmp	 ecx, esi
  0002c	7d 25		 jge	 SHORT $LN5@PrepareWri

; 833  : 		{
; 834  : 			// Grow exponentially, until we hit 1G, then by 1M thereafter.
; 835  : 			int nNewLength = pOldData->nAllocLength;
; 836  : 			if( nNewLength > 1024 * 1024 * 1024 )

  0002e	81 f9 00 00 00
	40		 cmp	 ecx, 1073741824		; 40000000H
  00034	7e 07		 jle	 SHORT $LN6@PrepareWri

; 837  : 			{
; 838  : 				nNewLength += 1024 * 1024;

  00036	b8 00 00 10 00	 mov	 eax, 1048576		; 00100000H

; 839  : 			}

  0003b	eb 07		 jmp	 SHORT $LN7@PrepareWri
$LN6@PrepareWri:

; 840  : 			else
; 841  : 			{
; 842  : 				// Exponential growth factor is 1.5.
; 843  : 				nNewLength = nNewLength + nNewLength / 2;

  0003d	8b c1		 mov	 eax, ecx
  0003f	99		 cdq
  00040	2b c2		 sub	 eax, edx
  00042	d1 f8		 sar	 eax, 1
$LN7@PrepareWri:

; 844  : 			}
; 845  : 			if( nNewLength < nLength )

  00044	03 c1		 add	 eax, ecx

; 846  : 			{
; 847  : 				nNewLength = nLength;
; 848  : 			}
; 849  : 			Reallocate( nNewLength );

  00046	8b cf		 mov	 ecx, edi
  00048	3b c6		 cmp	 eax, esi
  0004a	0f 4d f0	 cmovge	 esi, eax
  0004d	56		 push	 esi
  0004e	e8 00 00 00 00	 call	 ?Reallocate@?$CSimpleStringT@D$0A@@ATL@@AAEXH@Z ; ATL::CSimpleStringT<char,0>::Reallocate
$LN5@PrepareWri:

; 850  : 		}
; 851  : 	}

  00053	5f		 pop	 edi
  00054	5e		 pop	 esi
  00055	5d		 pop	 ebp
  00056	c2 04 00	 ret	 4
?PrepareWrite2@?$CSimpleStringT@D$0A@@ATL@@AAEXH@Z ENDP	; ATL::CSimpleStringT<char,0>::PrepareWrite2
_TEXT	ENDS
; Function compile flags: /Ogtp
; File C:\Program Files\Microsoft Visual Studio\2022\Professional\VC\Tools\MSVC\14.44.35207\atlmfc\include\atlsimpstr.h
; File C:\Program Files (x86)\Windows Kits\10\Include\10.0.26100.0\ucrt\corecrt_memcpy_s.h
; File C:\Program Files\Microsoft Visual Studio\2022\Professional\VC\Tools\MSVC\14.44.35207\atlmfc\include\atlsimpstr.h
;	COMDAT ?Fork@?$CSimpleStringT@D$0A@@ATL@@AAEXH@Z
_TEXT	SEGMENT
_this$1$ = -12						; size = 4
_nOldLength$1$ = -8					; size = 4
__Source$1$ = -4					; size = 4
_nLength$ = 8						; size = 4
_pNewData$1$ = 8					; size = 4
?Fork@?$CSimpleStringT@D$0A@@ATL@@AAEXH@Z PROC		; ATL::CSimpleStringT<char,0>::Fork, COMDAT
; _this$ = ecx

; 787  : 	{

  00000	55		 push	 ebp
  00001	8b ec		 mov	 ebp, esp
  00003	83 ec 0c	 sub	 esp, 12			; 0000000cH
  00006	8b c1		 mov	 eax, ecx
  00008	89 45 f4	 mov	 DWORD PTR _this$1$[ebp], eax
  0000b	53		 push	 ebx
  0000c	56		 push	 esi

; 804  : 		return( reinterpret_cast< CStringData* >( m_pszData )-1 );

  0000d	8b 00		 mov	 eax, DWORD PTR [eax]

; 790  : 		CStringData* pNewData = pOldData->pStringMgr->Clone()->Allocate( nLength, sizeof( XCHAR ) );

  0000f	8b 48 f0	 mov	 ecx, DWORD PTR [eax-16]

; 804  : 		return( reinterpret_cast< CStringData* >( m_pszData )-1 );

  00012	8d 58 f0	 lea	 ebx, DWORD PTR [eax-16]
  00015	89 45 fc	 mov	 DWORD PTR __Source$1$[ebp], eax

; 787  : 	{

  00018	57		 push	 edi

; 788  : 		CStringData* pOldData = GetData();
; 789  : 		int nOldLength = pOldData->nDataLength;

  00019	8b 7b 04	 mov	 edi, DWORD PTR [ebx+4]

; 790  : 		CStringData* pNewData = pOldData->pStringMgr->Clone()->Allocate( nLength, sizeof( XCHAR ) );

  0001c	8b 01		 mov	 eax, DWORD PTR [ecx]
  0001e	89 7d f8	 mov	 DWORD PTR _nOldLength$1$[ebp], edi
  00021	ff 50 10	 call	 DWORD PTR [eax+16]
  00024	8b 75 08	 mov	 esi, DWORD PTR _nLength$[ebp]
  00027	8b c8		 mov	 ecx, eax
  00029	6a 01		 push	 1
  0002b	56		 push	 esi
  0002c	8b 10		 mov	 edx, DWORD PTR [eax]
  0002e	ff 12		 call	 DWORD PTR [edx]
  00030	89 45 08	 mov	 DWORD PTR _pNewData$1$[ebp], eax

; 791  : 		if( pNewData == NULL )

  00033	85 c0		 test	 eax, eax
  00035	74 6c		 je	 SHORT $LN25@Fork

; 794  : 		}
; 795  : 		int nCharsToCopy = ((nOldLength < nLength) ? nOldLength : nLength)+1;  // Copy '\0'

  00037	3b fe		 cmp	 edi, esi
  00039	0f 4c f7	 cmovl	 esi, edi

; 796  : 		memcpy_s( PXSTR( pNewData->data() ), nCharsToCopy * sizeof( XCHAR ),

  0003c	8d 78 10	 lea	 edi, DWORD PTR [eax+16]
  0003f	83 c6 01	 add	 esi, 1
; File C:\Program Files (x86)\Windows Kits\10\Include\10.0.26100.0\ucrt\corecrt_memcpy_s.h

; 47   :         if (_SourceSize == 0)

  00042	74 33		 je	 SHORT $LN11@Fork

; 48   :         {
; 49   :             return 0;
; 50   :         }
; 51   : 
; 52   :         _CRT_MEMCPY_S_VALIDATE_RETURN_ERRCODE(_Destination != NULL, EINVAL);

  00044	85 ff		 test	 edi, edi
  00046	74 1f		 je	 SHORT $LN23@Fork

; 53   :         if (_Source == NULL || _DestinationSize < _SourceSize)

  00048	8b 45 fc	 mov	 eax, DWORD PTR __Source$1$[ebp]
  0004b	56		 push	 esi
  0004c	85 c0		 test	 eax, eax
  0004e	74 0c		 je	 SHORT $LN10@Fork

; 56   : 
; 57   :             _CRT_MEMCPY_S_VALIDATE_RETURN_ERRCODE(_Source != NULL,                 EINVAL);
; 58   :             _CRT_MEMCPY_S_VALIDATE_RETURN_ERRCODE(_DestinationSize >= _SourceSize, ERANGE);
; 59   : 
; 60   :             // Unreachable, but required to suppress /analyze warnings:
; 61   :             return EINVAL;
; 62   :         }
; 63   :         memcpy(_Destination, _Source, _SourceSize);

  00050	50		 push	 eax
  00051	57		 push	 edi
  00052	e8 00 00 00 00	 call	 _memcpy
  00057	83 c4 0c	 add	 esp, 12			; 0000000cH
  0005a	eb 1b		 jmp	 SHORT $LN11@Fork
$LN10@Fork:

; 54   :         {
; 55   :             memset(_Destination, 0, _DestinationSize);

  0005c	6a 00		 push	 0
  0005e	57		 push	 edi
  0005f	e8 00 00 00 00	 call	 _memset
  00064	83 c4 0c	 add	 esp, 12			; 0000000cH
$LN23@Fork:
; File C:\Program Files\Microsoft Visual Studio\2022\Professional\VC\Tools\MSVC\14.44.35207\atlmfc\include\atlsimpstr.h

; 798  : 		pNewData->nDataLength = nOldLength;

  00067	e8 00 00 00 00	 call	 __errno
  0006c	c7 00 16 00 00
	00		 mov	 DWORD PTR [eax], 22	; 00000016H
  00072	e8 00 00 00 00	 call	 __invalid_parameter_noinfo
$LN11@Fork:
  00077	8b 4d 08	 mov	 ecx, DWORD PTR _pNewData$1$[ebp]
  0007a	8b 45 f8	 mov	 eax, DWORD PTR _nOldLength$1$[ebp]
  0007d	89 41 04	 mov	 DWORD PTR [ecx+4], eax

; 92   : 		if( _InterlockedDecrement( &nRefs ) <= 0 )

  00080	83 c8 ff	 or	 eax, -1
  00083	f0 0f c1 43 0c	 lock	  xadd	 DWORD PTR [ebx+12], eax
  00088	48		 dec	 eax
  00089	85 c0		 test	 eax, eax
  0008b	7f 08		 jg	 SHORT $LN15@Fork

; 93   : 		{
; 94   : 			pStringMgr->Free( this );

  0008d	8b 0b		 mov	 ecx, DWORD PTR [ebx]
  0008f	53		 push	 ebx
  00090	8b 01		 mov	 eax, DWORD PTR [ecx]
  00092	ff 50 04	 call	 DWORD PTR [eax+4]
$LN15@Fork:

; 799  : 		pOldData->Release();
; 800  : 		Attach( pNewData );

  00095	8b 45 f4	 mov	 eax, DWORD PTR _this$1$[ebp]
  00098	89 38		 mov	 DWORD PTR [eax], edi

; 801  : 	}

  0009a	5f		 pop	 edi
  0009b	5e		 pop	 esi
  0009c	5b		 pop	 ebx
  0009d	8b e5		 mov	 esp, ebp
  0009f	5d		 pop	 ebp
  000a0	c2 04 00	 ret	 4
$LN25@Fork:

; 792  : 		{
; 793  : 			ThrowMemoryException();

  000a3	e8 00 00 00 00	 call	 ?ThrowMemoryException@?$CSimpleStringT@D$0A@@ATL@@KAXXZ ; ATL::CSimpleStringT<char,0>::ThrowMemoryException
$LN22@Fork:
  000a8	cc		 int	 3
?Fork@?$CSimpleStringT@D$0A@@ATL@@AAEXH@Z ENDP		; ATL::CSimpleStringT<char,0>::Fork
_TEXT	ENDS
; Function compile flags: /Ogtp
; File C:\Program Files\Microsoft Visual Studio\2022\Professional\VC\Tools\MSVC\14.44.35207\atlmfc\include\atlsimpstr.h
;	COMDAT ?ThrowMemoryException@?$CSimpleStringT@D$0A@@ATL@@KAXXZ
_TEXT	SEGMENT
?ThrowMemoryException@?$CSimpleStringT@D$0A@@ATL@@KAXXZ PROC ; ATL::CSimpleStringT<char,0>::ThrowMemoryException, COMDAT

; 777  : 		AtlThrow( E_OUTOFMEMORY );

  00000	68 0e 00 07 80	 push	 -2147024882		; 8007000eH
  00005	e8 00 00 00 00	 call	 ?AtlThrowImpl@ATL@@YGXJ@Z ; ATL::AtlThrowImpl
$LN3@ThrowMemor:
  0000a	cc		 int	 3
?ThrowMemoryException@?$CSimpleStringT@D$0A@@ATL@@KAXXZ ENDP ; ATL::CSimpleStringT<char,0>::ThrowMemoryException
_TEXT	ENDS
; Function compile flags: /Ogtp
; File C:\Program Files\Microsoft Visual Studio\2022\Professional\VC\Tools\MSVC\14.44.35207\atlmfc\include\atlsimpstr.h
; File C:\Program Files (x86)\Windows Kits\10\Include\10.0.26100.0\ucrt\corecrt_memcpy_s.h
; File C:\Program Files\Microsoft Visual Studio\2022\Professional\VC\Tools\MSVC\14.44.35207\atlmfc\include\atlsimpstr.h
; File C:\Program Files (x86)\Windows Kits\10\Include\10.0.26100.0\ucrt\corecrt_memcpy_s.h
; File C:\Program Files\Microsoft Visual Studio\2022\Professional\VC\Tools\MSVC\14.44.35207\atlmfc\include\atlsimpstr.h
;	COMDAT ?SetString@?$CSimpleStringT@D$0A@@ATL@@QAEXPBDH@Z
_TEXT	SEGMENT
_pszSrc$ = 8						; size = 4
_nOldLength$1$ = 8					; size = 4
_nLength$ = 12						; size = 4
_nOffset$1$ = 12					; size = 4
?SetString@?$CSimpleStringT@D$0A@@ATL@@QAEXPBDH@Z PROC	; ATL::CSimpleStringT<char,0>::SetString, COMDAT
; _this$ = ecx

; 611  : 	{

  00000	55		 push	 ebp
  00001	8b ec		 mov	 ebp, esp
  00003	56		 push	 esi

; 612  : 		if( nLength == 0 )

  00004	8b 75 0c	 mov	 esi, DWORD PTR _nLength$[ebp]
  00007	57		 push	 edi
  00008	8b f9		 mov	 edi, ecx
  0000a	85 f6		 test	 esi, esi
  0000c	75 58		 jne	 SHORT $LN2@SetString

; 804  : 		return( reinterpret_cast< CStringData* >( m_pszData )-1 );

  0000e	8b 07		 mov	 eax, DWORD PTR [edi]

; 443  : 		if( pOldData->nDataLength == 0 )

  00010	83 78 f4 00	 cmp	 DWORD PTR [eax-12], 0

; 804  : 		return( reinterpret_cast< CStringData* >( m_pszData )-1 );

  00014	8d 50 f0	 lea	 edx, DWORD PTR [eax-16]

; 442  : 		IAtlStringMgr* pStringMgr = pOldData->pStringMgr;

  00017	8b 32		 mov	 esi, DWORD PTR [edx]

; 443  : 		if( pOldData->nDataLength == 0 )

  00019	74 1f		 je	 SHORT $LN72@SetString

; 73   : 		return nRefs < 0;

  0001b	83 7a 0c 00	 cmp	 DWORD PTR [edx+12], 0
  0001f	8d 4a 0c	 lea	 ecx, DWORD PTR [edx+12]

; 448  : 		if( pOldData->IsLocked() )

  00022	7d 1c		 jge	 SHORT $LN10@SetString

; 875  : 		if( nLength < 0 || nLength > GetData()->nAllocLength)

  00024	83 78 f8 00	 cmp	 DWORD PTR [eax-8], 0
  00028	0f 8c 0b 01 00
	00		 jl	 $LN71@SetString

; 877  : 
; 878  : 		GetData()->nDataLength = nLength;

  0002e	c7 40 f4 00 00
	00 00		 mov	 DWORD PTR [eax-12], 0

; 879  : 		m_pszData[nLength] = 0;

  00035	8b 07		 mov	 eax, DWORD PTR [edi]
  00037	c6 00 00	 mov	 BYTE PTR [eax], 0
$LN72@SetString:
  0003a	5f		 pop	 edi

; 638  : 			else
; 639  : 			{
; 640  : 				memcpy_s( pszBuffer, GetAllocLength() * sizeof( XCHAR ), pszSrc, nLength * sizeof( XCHAR ));
; 641  : 			}
; 642  : 			ReleaseBufferSetLength( nLength );
; 643  : 		}
; 644  : 	}

  0003b	5e		 pop	 esi
  0003c	5d		 pop	 ebp
  0003d	c2 08 00	 ret	 8
$LN10@SetString:

; 92   : 		if( _InterlockedDecrement( &nRefs ) <= 0 )

  00040	83 c8 ff	 or	 eax, -1
  00043	f0 0f c1 01	 lock	  xadd	 DWORD PTR [ecx], eax
  00047	48		 dec	 eax
  00048	85 c0		 test	 eax, eax
  0004a	7f 08		 jg	 SHORT $LN27@SetString

; 93   : 		{
; 94   : 			pStringMgr->Free( this );

  0004c	8b 0a		 mov	 ecx, DWORD PTR [edx]
  0004e	52		 push	 edx
  0004f	8b 01		 mov	 eax, DWORD PTR [ecx]
  00051	ff 50 04	 call	 DWORD PTR [eax+4]
$LN27@SetString:

; 456  : 			CStringData* pNewData = pStringMgr->GetNilString();

  00054	8b 06		 mov	 eax, DWORD PTR [esi]
  00056	8b ce		 mov	 ecx, esi
  00058	ff 50 0c	 call	 DWORD PTR [eax+12]

; 457  : 			Attach( pNewData );

  0005b	83 c0 10	 add	 eax, 16			; 00000010H
  0005e	89 07		 mov	 DWORD PTR [edi], eax
  00060	5f		 pop	 edi

; 638  : 			else
; 639  : 			{
; 640  : 				memcpy_s( pszBuffer, GetAllocLength() * sizeof( XCHAR ), pszSrc, nLength * sizeof( XCHAR ));
; 641  : 			}
; 642  : 			ReleaseBufferSetLength( nLength );
; 643  : 		}
; 644  : 	}

  00061	5e		 pop	 esi
  00062	5d		 pop	 ebp
  00063	c2 08 00	 ret	 8
$LN2@SetString:
  00066	53		 push	 ebx

; 613  : 		{
; 614  : 			Empty();
; 615  : 		}
; 616  : 		else
; 617  : 		{
; 618  : 			// It is possible that pszSrc points to a location inside of our
; 619  : 			// buffer.  GetBuffer() might change m_pszData if (1) the buffer
; 620  : 			// is shared or (2) the buffer is too small to hold the new
; 621  : 			// string.  We detect this aliasing, and modify pszSrc to point
; 622  : 			// into the newly allocated buffer instead.
; 623  : 
; 624  : 			if(pszSrc == NULL)

  00067	8b 5d 08	 mov	 ebx, DWORD PTR _pszSrc$[ebp]
  0006a	85 db		 test	 ebx, ebx
  0006c	0f 84 c7 00 00
	00		 je	 $LN71@SetString

; 523  : 		return( GetData()->nDataLength );

  00072	8b 07		 mov	 eax, DWORD PTR [edi]

; 625  : 				AtlThrow(E_INVALIDARG);
; 626  : 
; 627  : 			UINT nOldLength = GetLength();
; 628  : 			UINT_PTR nOffset = pszSrc-GetString();

  00074	8b d3		 mov	 edx, ebx
  00076	2b d0		 sub	 edx, eax
  00078	89 55 0c	 mov	 DWORD PTR _nOffset$1$[ebp], edx
  0007b	8b 48 f4	 mov	 ecx, DWORD PTR [eax-12]
  0007e	89 4d 08	 mov	 DWORD PTR _nOldLength$1$[ebp], ecx

; 808  : 		if (nLength < 0)

  00081	85 f6		 test	 esi, esi
  00083	0f 88 b0 00 00
	00		 js	 $LN71@SetString

; 809  : 			AtlThrow(E_INVALIDARG);
; 810  : 
; 811  : 		CStringData* pOldData = GetData();
; 812  : 		int nShared = 1-pOldData->nRefs;  // nShared < 0 means true, >= 0 means false

  00089	b9 01 00 00 00	 mov	 ecx, 1
  0008e	2b 48 fc	 sub	 ecx, DWORD PTR [eax-4]

; 813  : 		int nTooShort = pOldData->nAllocLength-nLength;  // nTooShort < 0 means true, >= 0 means false

  00091	8b 40 f8	 mov	 eax, DWORD PTR [eax-8]
  00094	2b c6		 sub	 eax, esi

; 814  : 		if( (nShared|nTooShort) < 0 )  // If either sign bit is set (i.e. either is less than zero), we need to copy data

  00096	0b c8		 or	 ecx, eax
  00098	7d 0b		 jge	 SHORT $LN38@SetString

; 815  : 		{
; 816  : 			PrepareWrite2( nLength );

  0009a	56		 push	 esi
  0009b	8b cf		 mov	 ecx, edi
  0009d	e8 00 00 00 00	 call	 ?PrepareWrite2@?$CSimpleStringT@D$0A@@ATL@@AAEXH@Z ; ATL::CSimpleStringT<char,0>::PrepareWrite2
  000a2	8b 55 0c	 mov	 edx, DWORD PTR _nOffset$1$[ebp]
$LN38@SetString:

; 629  : 			// If 0 <= nOffset <= nOldLength, then pszSrc points into our
; 630  : 			// buffer
; 631  : 
; 632  : 			PXSTR pszBuffer = GetBuffer( nLength );

  000a5	8b 07		 mov	 eax, DWORD PTR [edi]
  000a7	8b 48 f8	 mov	 ecx, DWORD PTR [eax-8]

; 633  : 			if( nOffset <= nOldLength )

  000aa	3b 55 08	 cmp	 edx, DWORD PTR _nOldLength$1$[ebp]
  000ad	77 35		 ja	 SHORT $LN5@SetString

; 634  : 			{
; 635  : 				CopyCharsOverlapped( pszBuffer, GetAllocLength(),

  000af	03 d0		 add	 edx, eax
; File C:\Program Files (x86)\Windows Kits\10\Include\10.0.26100.0\ucrt\corecrt_memcpy_s.h

; 81   :         _CRT_MEMCPY_S_VALIDATE_RETURN_ERRCODE(_Destination != NULL,            EINVAL);

  000b1	85 c0		 test	 eax, eax
  000b3	75 0d		 jne	 SHORT $LN51@SetString
  000b5	e8 00 00 00 00	 call	 __errno
  000ba	c7 00 16 00 00
	00		 mov	 DWORD PTR [eax], 22	; 00000016H
  000c0	eb 5b		 jmp	 SHORT $LN97@SetString
$LN51@SetString:

; 82   :         _CRT_MEMCPY_S_VALIDATE_RETURN_ERRCODE(_Source != NULL,                 EINVAL);

  000c2	85 d2		 test	 edx, edx
  000c4	75 0d		 jne	 SHORT $LN52@SetString
  000c6	e8 00 00 00 00	 call	 __errno
  000cb	c7 00 16 00 00
	00		 mov	 DWORD PTR [eax], 22	; 00000016H
  000d1	eb 4a		 jmp	 SHORT $LN97@SetString
$LN52@SetString:

; 83   :         _CRT_MEMCPY_S_VALIDATE_RETURN_ERRCODE(_DestinationSize >= _SourceSize, ERANGE);

  000d3	3b ce		 cmp	 ecx, esi
  000d5	72 3b		 jb	 SHORT $LN98@SetString

; 84   : 
; 85   :         memmove(_Destination, _Source, _SourceSize);

  000d7	56		 push	 esi
  000d8	52		 push	 edx
  000d9	50		 push	 eax
  000da	e8 00 00 00 00	 call	 _memmove
  000df	83 c4 0c	 add	 esp, 12			; 0000000cH
; File C:\Program Files\Microsoft Visual Studio\2022\Professional\VC\Tools\MSVC\14.44.35207\atlmfc\include\atlsimpstr.h

; 637  : 			}

  000e2	eb 3e		 jmp	 SHORT $LN65@SetString
$LN5@SetString:
; File C:\Program Files (x86)\Windows Kits\10\Include\10.0.26100.0\ucrt\corecrt_memcpy_s.h

; 52   :         _CRT_MEMCPY_S_VALIDATE_RETURN_ERRCODE(_Destination != NULL, EINVAL);

  000e4	85 c0		 test	 eax, eax
  000e6	75 0d		 jne	 SHORT $LN61@SetString
  000e8	e8 00 00 00 00	 call	 __errno
  000ed	c7 00 16 00 00
	00		 mov	 DWORD PTR [eax], 22	; 00000016H
  000f3	eb 28		 jmp	 SHORT $LN97@SetString
$LN61@SetString:

; 53   :         if (_Source == NULL || _DestinationSize < _SourceSize)

  000f5	3b ce		 cmp	 ecx, esi
  000f7	72 0d		 jb	 SHORT $LN63@SetString

; 56   : 
; 57   :             _CRT_MEMCPY_S_VALIDATE_RETURN_ERRCODE(_Source != NULL,                 EINVAL);
; 58   :             _CRT_MEMCPY_S_VALIDATE_RETURN_ERRCODE(_DestinationSize >= _SourceSize, ERANGE);
; 59   : 
; 60   :             // Unreachable, but required to suppress /analyze warnings:
; 61   :             return EINVAL;
; 62   :         }
; 63   :         memcpy(_Destination, _Source, _SourceSize);

  000f9	56		 push	 esi
  000fa	53		 push	 ebx
  000fb	50		 push	 eax
  000fc	e8 00 00 00 00	 call	 _memcpy
  00101	83 c4 0c	 add	 esp, 12			; 0000000cH
  00104	eb 1c		 jmp	 SHORT $LN65@SetString
$LN63@SetString:

; 54   :         {
; 55   :             memset(_Destination, 0, _DestinationSize);

  00106	51		 push	 ecx
  00107	6a 00		 push	 0
  00109	50		 push	 eax
  0010a	e8 00 00 00 00	 call	 _memset
  0010f	83 c4 0c	 add	 esp, 12			; 0000000cH
$LN98@SetString:
; File C:\Program Files\Microsoft Visual Studio\2022\Professional\VC\Tools\MSVC\14.44.35207\atlmfc\include\atlsimpstr.h

; 875  : 		if( nLength < 0 || nLength > GetData()->nAllocLength)

  00112	e8 00 00 00 00	 call	 __errno
  00117	c7 00 22 00 00
	00		 mov	 DWORD PTR [eax], 34	; 00000022H
$LN97@SetString:
  0011d	e8 00 00 00 00	 call	 __invalid_parameter_noinfo
$LN65@SetString:
  00122	8b 07		 mov	 eax, DWORD PTR [edi]
  00124	5b		 pop	 ebx
  00125	3b 70 f8	 cmp	 esi, DWORD PTR [eax-8]
  00128	7f 0f		 jg	 SHORT $LN71@SetString

; 877  : 
; 878  : 		GetData()->nDataLength = nLength;

  0012a	89 70 f4	 mov	 DWORD PTR [eax-12], esi

; 879  : 		m_pszData[nLength] = 0;

  0012d	8b 07		 mov	 eax, DWORD PTR [edi]
  0012f	5f		 pop	 edi
  00130	c6 04 06 00	 mov	 BYTE PTR [esi+eax], 0

; 638  : 			else
; 639  : 			{
; 640  : 				memcpy_s( pszBuffer, GetAllocLength() * sizeof( XCHAR ), pszSrc, nLength * sizeof( XCHAR ));
; 641  : 			}
; 642  : 			ReleaseBufferSetLength( nLength );
; 643  : 		}
; 644  : 	}

  00134	5e		 pop	 esi
  00135	5d		 pop	 ebp
  00136	c2 08 00	 ret	 8
$LN71@SetString:

; 876  : 			AtlThrow(E_INVALIDARG);

  00139	68 57 00 07 80	 push	 -2147024809		; 80070057H
  0013e	e8 00 00 00 00	 call	 ?AtlThrowImpl@ATL@@YGXJ@Z ; ATL::AtlThrowImpl
$LN96@SetString:
  00143	cc		 int	 3
?SetString@?$CSimpleStringT@D$0A@@ATL@@QAEXPBDH@Z ENDP	; ATL::CSimpleStringT<char,0>::SetString
_TEXT	ENDS
; Function compile flags: /Ogtp
; File C:\Program Files\Microsoft Visual Studio\2022\Professional\VC\Tools\MSVC\14.44.35207\atlmfc\include\atlsimpstr.h
;	COMDAT ??1?$CSimpleStringT@D$0A@@ATL@@QAE@XZ
_TEXT	SEGMENT
??1?$CSimpleStringT@D$0A@@ATL@@QAE@XZ PROC		; ATL::CSimpleStringT<char,0>::~CSimpleStringT<char,0>, COMDAT
; _this$ = ecx

; 804  : 		return( reinterpret_cast< CStringData* >( m_pszData )-1 );

  00000	8b 11		 mov	 edx, DWORD PTR [ecx]

; 92   : 		if( _InterlockedDecrement( &nRefs ) <= 0 )

  00002	83 c8 ff	 or	 eax, -1

; 804  : 		return( reinterpret_cast< CStringData* >( m_pszData )-1 );

  00005	83 ea 10	 sub	 edx, 16			; 00000010H

; 92   : 		if( _InterlockedDecrement( &nRefs ) <= 0 )

  00008	f0 0f c1 42 0c	 lock	  xadd	 DWORD PTR [edx+12], eax
  0000d	48		 dec	 eax
  0000e	85 c0		 test	 eax, eax
  00010	7f 08		 jg	 SHORT $LN6@CSimpleStr

; 93   : 		{
; 94   : 			pStringMgr->Free( this );

  00012	8b 0a		 mov	 ecx, DWORD PTR [edx]
  00014	52		 push	 edx
  00015	8b 01		 mov	 eax, DWORD PTR [ecx]
  00017	ff 50 04	 call	 DWORD PTR [eax+4]
$LN6@CSimpleStr:

; 265  : 		CStringData* pData = GetData();
; 266  : 		pData->Release();
; 267  : 	}

  0001a	c3		 ret	 0
??1?$CSimpleStringT@D$0A@@ATL@@QAE@XZ ENDP		; ATL::CSimpleStringT<char,0>::~CSimpleStringT<char,0>
_TEXT	ENDS
; Function compile flags: /Ogtp
; File C:\Program Files\Microsoft Visual Studio\2022\Professional\VC\Tools\MSVC\14.44.35207\atlmfc\include\atlexcept.h
;	COMDAT ?AtlThrowImpl@ATL@@YGXJ@Z
_TEXT	SEGMENT
_hr$ = 8						; size = 4
?AtlThrowImpl@ATL@@YGXJ@Z PROC				; ATL::AtlThrowImpl, COMDAT

; 69   : {

  00000	55		 push	 ebp
  00001	8b ec		 mov	 ebp, esp

; 70   : 	ATLTRACE(atlTraceException, 0, _T("AtlThrow: hr = 0x%x\n"), hr );
; 71   : #ifdef _AFX
; 72   : 	if( hr == E_OUTOFMEMORY )

  00003	8b 45 08	 mov	 eax, DWORD PTR _hr$[ebp]
  00006	3d 0e 00 07 80	 cmp	 eax, -2147024882	; 8007000eH
  0000b	75 05		 jne	 SHORT $LN2@AtlThrowIm

; 73   : 	{
; 74   : 		AfxThrowMemoryException();

  0000d	e8 00 00 00 00	 call	 ?AfxThrowMemoryException@@YGXXZ ; AfxThrowMemoryException
$LN2@AtlThrowIm:

; 75   : 	}
; 76   : 	else
; 77   : 	{
; 78   : 		AfxThrowOleException( hr );

  00012	50		 push	 eax
  00013	e8 00 00 00 00	 call	 ?AfxThrowOleException@@YGXJ@Z ; AfxThrowOleException
$LN5@AtlThrowIm:
  00018	cc		 int	 3
?AtlThrowImpl@ATL@@YGXJ@Z ENDP				; ATL::AtlThrowImpl
_TEXT	ENDS
; Function compile flags: /Ogtp
; File C:\Program Files\Microsoft Visual Studio\2022\Professional\VC\Tools\MSVC\14.44.35207\atlmfc\include\afx.h
;	COMDAT ?AfxCrtErrorCheck@@YAHH@Z
_TEXT	SEGMENT
_error$ = 8						; size = 4
?AfxCrtErrorCheck@@YAHH@Z PROC				; AfxCrtErrorCheck, COMDAT

; 510  : {

  00000	55		 push	 ebp
  00001	8b ec		 mov	 ebp, esp

; 511  : 	switch(error)

  00003	8b 4d 08	 mov	 ecx, DWORD PTR _error$[ebp]
  00006	83 f9 50	 cmp	 ecx, 80			; 00000050H
  00009	77 17		 ja	 SHORT $LN9@AfxCrtErro
  0000b	0f b6 81 00 00
	00 00		 movzx	 eax, BYTE PTR $LN11@AfxCrtErro[ecx]
  00012	ff 24 85 00 00
	00 00		 jmp	 DWORD PTR $LN12@AfxCrtErro[eax*4]
$LN4@AfxCrtErro:

; 512  : 	{
; 513  : 	case ENOMEM:
; 514  : 		AfxThrowMemoryException();

  00019	e9 00 00 00 00	 jmp	 ?AfxThrowMemoryException@@YGXXZ ; AfxThrowMemoryException
$LN7@AfxCrtErro:

; 525  : 		break;
; 526  : 	}
; 527  : 	return error;

  0001e	8b c1		 mov	 eax, ecx

; 528  : }

  00020	5d		 pop	 ebp
  00021	c3		 ret	 0
$LN9@AfxCrtErro:

; 515  : 		break;
; 516  : 	case EINVAL:
; 517  : 	case ERANGE:
; 518  : 		AfxThrowInvalidArgException();
; 519  : 		break;
; 520  : 	case STRUNCATE:
; 521  : 	case 0:
; 522  : 		break;
; 523  : 	default:
; 524  : 		AfxThrowInvalidArgException();

  00022	e9 00 00 00 00	 jmp	 ?AfxThrowInvalidArgException@@YGXXZ ; AfxThrowInvalidArgException
  00027	90		 npad	 1
$LN12@AfxCrtErro:

; 528  : }

  00028	00 00 00 00	 DD	 $LN7@AfxCrtErro
  0002c	00 00 00 00	 DD	 $LN4@AfxCrtErro
  00030	00 00 00 00	 DD	 $LN9@AfxCrtErro
  00034	00 00 00 00	 DD	 $LN9@AfxCrtErro
$LN11@AfxCrtErro:
  00038	00		 DB	 0
  00039	03		 DB	 3
  0003a	03		 DB	 3
  0003b	03		 DB	 3
  0003c	03		 DB	 3
  0003d	03		 DB	 3
  0003e	03		 DB	 3
  0003f	03		 DB	 3
  00040	03		 DB	 3
  00041	03		 DB	 3
  00042	03		 DB	 3
  00043	03		 DB	 3
  00044	01		 DB	 1
  00045	03		 DB	 3
  00046	03		 DB	 3
  00047	03		 DB	 3
  00048	03		 DB	 3
  00049	03		 DB	 3
  0004a	03		 DB	 3
  0004b	03		 DB	 3
  0004c	03		 DB	 3
  0004d	03		 DB	 3
  0004e	02		 DB	 2
  0004f	03		 DB	 3
  00050	03		 DB	 3
  00051	03		 DB	 3
  00052	03		 DB	 3
  00053	03		 DB	 3
  00054	03		 DB	 3
  00055	03		 DB	 3
  00056	03		 DB	 3
  00057	03		 DB	 3
  00058	03		 DB	 3
  00059	03		 DB	 3
  0005a	02		 DB	 2
  0005b	03		 DB	 3
  0005c	03		 DB	 3
  0005d	03		 DB	 3
  0005e	03		 DB	 3
  0005f	03		 DB	 3
  00060	03		 DB	 3
  00061	03		 DB	 3
  00062	03		 DB	 3
  00063	03		 DB	 3
  00064	03		 DB	 3
  00065	03		 DB	 3
  00066	03		 DB	 3
  00067	03		 DB	 3
  00068	03		 DB	 3
  00069	03		 DB	 3
  0006a	03		 DB	 3
  0006b	03		 DB	 3
  0006c	03		 DB	 3
  0006d	03		 DB	 3
  0006e	03		 DB	 3
  0006f	03		 DB	 3
  00070	03		 DB	 3
  00071	03		 DB	 3
  00072	03		 DB	 3
  00073	03		 DB	 3
  00074	03		 DB	 3
  00075	03		 DB	 3
  00076	03		 DB	 3
  00077	03		 DB	 3
  00078	03		 DB	 3
  00079	03		 DB	 3
  0007a	03		 DB	 3
  0007b	03		 DB	 3
  0007c	03		 DB	 3
  0007d	03		 DB	 3
  0007e	03		 DB	 3
  0007f	03		 DB	 3
  00080	03		 DB	 3
  00081	03		 DB	 3
  00082	03		 DB	 3
  00083	03		 DB	 3
  00084	03		 DB	 3
  00085	03		 DB	 3
  00086	03		 DB	 3
  00087	03		 DB	 3
  00088	00		 DB	 0
?AfxCrtErrorCheck@@YAHH@Z ENDP				; AfxCrtErrorCheck
_TEXT	ENDS
; Function compile flags: /Ogtp
; File C:\Program Files (x86)\Windows Kits\10\Include\10.0.26100.0\ucrt\corecrt_stdio_config.h
;	COMDAT ___local_stdio_printf_options
_TEXT	SEGMENT
___local_stdio_printf_options PROC			; COMDAT

; 91   :         static unsigned __int64 _OptionsStorage;
; 92   :         return &_OptionsStorage;

  00000	b8 00 00 00 00	 mov	 eax, OFFSET ?_OptionsStorage@?1??__local_stdio_printf_options@@9@4_KA ; `__local_stdio_printf_options'::`2'::_OptionsStorage

; 93   :     }

  00005	c3		 ret	 0
___local_stdio_printf_options ENDP
_TEXT	ENDS
; Function compile flags: /Ogtp
; File C:\IAGOS\server\v18\Source\Source\_Common\scanner.cpp
;	COMDAT ?__empty_global_delete@@YAXPAXI@Z
_TEXT	SEGMENT
___formal$ = 8						; size = 4
___formal$ = 12						; size = 4
?__empty_global_delete@@YAXPAXI@Z PROC			; __empty_global_delete, COMDAT

  00000	c2 00 00	 ret	 0
?__empty_global_delete@@YAXPAXI@Z ENDP			; __empty_global_delete
_TEXT	ENDS
; Function compile flags: /Ogtp
; File C:\IAGOS\server\v18\Source\Source\_Common\scanner.cpp
;	COMDAT ?__empty_global_delete@@YAXPAX@Z
_TEXT	SEGMENT
___formal$ = 8						; size = 4
?__empty_global_delete@@YAXPAX@Z PROC			; __empty_global_delete, COMDAT

  00000	c2 00 00	 ret	 0
?__empty_global_delete@@YAXPAX@Z ENDP			; __empty_global_delete
_TEXT	ENDS
END
