; Listing generated by Microsoft (R) Optimizing Compiler Version 19.44.35225.0 

	TITLE	C:\IAGOS\server\v18\Source\Output\DatabaseServer\Release\script.obj
	.686P
	.XMM
	include listing.inc
	.model	flat

INCLUDELIB LIBCMT
INCLUDELIB OLDNAMES

PUBLIC	?_table@@3PAUCommand@@A				; _table
PUBLIC	??_C@_01CLKCMJKC@?5@				; `string'
PUBLIC	??_C@_03JBIPMCLC@int@				; `string'
PUBLIC	??_C@_02HEBPBKGD@if@				; `string'
PUBLIC	??_C@_04FHMCPBIP@else@				; `string'
PUBLIC	??_C@_03JOHEBPFF@for@				; `string'
PUBLIC	??_C@_02KNAFDCHJ@do@				; `string'
PUBLIC	??_C@_05OODBEKIG@while@				; `string'
PUBLIC	??_C@_05ELPHFHOI@break@				; `string'
PUBLIC	??_C@_06DOPOGBGP@switch@			; `string'
PUBLIC	??_C@_06GGCDBJHP@answer@			; `string'
PUBLIC	??_C@_06HJGPBJLE@Select@			; `string'
PUBLIC	??_C@_05NFIFCHIO@YesNo@				; `string'
PUBLIC	??_C@_04CKOINMPC@case@				; `string'
PUBLIC	??_C@_07DLHCIBDH@default@			; `string'
PUBLIC	??_C@_04MABHPDAO@goto@				; `string'
PUBLIC	??_C@_06LNOFJDNM@return@			; `string'
PUBLIC	??_C@_07MAHLPAJA@?$CDdefine@			; `string'
PUBLIC	??_C@_08GPLAJCBH@?$CDinclude@			; `string'
PUBLIC	??_C@_04DBJPMPLO@enum@				; `string'
PUBLIC	?interFunc@@3PAUInterFuncType@@A		; interFunc
_BSS	SEGMENT
?interFunc@@3PAUInterFuncType@@A DQ 02H DUP (?)		; interFunc
_BSS	ENDS
;	COMDAT ??_C@_04DBJPMPLO@enum@
CONST	SEGMENT
??_C@_04DBJPMPLO@enum@ DB 'enum', 00H			; `string'
CONST	ENDS
;	COMDAT ??_C@_08GPLAJCBH@?$CDinclude@
CONST	SEGMENT
??_C@_08GPLAJCBH@?$CDinclude@ DB '#include', 00H	; `string'
CONST	ENDS
;	COMDAT ??_C@_07MAHLPAJA@?$CDdefine@
CONST	SEGMENT
??_C@_07MAHLPAJA@?$CDdefine@ DB '#define', 00H		; `string'
CONST	ENDS
;	COMDAT ??_C@_06LNOFJDNM@return@
CONST	SEGMENT
??_C@_06LNOFJDNM@return@ DB 'return', 00H		; `string'
CONST	ENDS
;	COMDAT ??_C@_04MABHPDAO@goto@
CONST	SEGMENT
??_C@_04MABHPDAO@goto@ DB 'goto', 00H			; `string'
CONST	ENDS
;	COMDAT ??_C@_07DLHCIBDH@default@
CONST	SEGMENT
??_C@_07DLHCIBDH@default@ DB 'default', 00H		; `string'
CONST	ENDS
;	COMDAT ??_C@_04CKOINMPC@case@
CONST	SEGMENT
??_C@_04CKOINMPC@case@ DB 'case', 00H			; `string'
CONST	ENDS
;	COMDAT ??_C@_05NFIFCHIO@YesNo@
CONST	SEGMENT
??_C@_05NFIFCHIO@YesNo@ DB 'YesNo', 00H			; `string'
CONST	ENDS
;	COMDAT ??_C@_06HJGPBJLE@Select@
CONST	SEGMENT
??_C@_06HJGPBJLE@Select@ DB 'Select', 00H		; `string'
CONST	ENDS
;	COMDAT ??_C@_06GGCDBJHP@answer@
CONST	SEGMENT
??_C@_06GGCDBJHP@answer@ DB 'answer', 00H		; `string'
CONST	ENDS
;	COMDAT ??_C@_06DOPOGBGP@switch@
CONST	SEGMENT
??_C@_06DOPOGBGP@switch@ DB 'switch', 00H		; `string'
CONST	ENDS
;	COMDAT ??_C@_05ELPHFHOI@break@
CONST	SEGMENT
??_C@_05ELPHFHOI@break@ DB 'break', 00H			; `string'
CONST	ENDS
;	COMDAT ??_C@_05OODBEKIG@while@
CONST	SEGMENT
??_C@_05OODBEKIG@while@ DB 'while', 00H			; `string'
CONST	ENDS
;	COMDAT ??_C@_02KNAFDCHJ@do@
CONST	SEGMENT
??_C@_02KNAFDCHJ@do@ DB 'do', 00H			; `string'
CONST	ENDS
;	COMDAT ??_C@_03JOHEBPFF@for@
CONST	SEGMENT
??_C@_03JOHEBPFF@for@ DB 'for', 00H			; `string'
CONST	ENDS
;	COMDAT ??_C@_04FHMCPBIP@else@
CONST	SEGMENT
??_C@_04FHMCPBIP@else@ DB 'else', 00H			; `string'
CONST	ENDS
;	COMDAT ??_C@_02HEBPBKGD@if@
CONST	SEGMENT
??_C@_02HEBPBKGD@if@ DB 'if', 00H			; `string'
CONST	ENDS
;	COMDAT ??_C@_03JBIPMCLC@int@
CONST	SEGMENT
??_C@_03JBIPMCLC@int@ DB 'int', 00H			; `string'
CONST	ENDS
;	COMDAT ??_C@_01CLKCMJKC@?5@
CONST	SEGMENT
??_C@_01CLKCMJKC@?5@ DB ' ', 00H			; `string'
CONST	ENDS
_DATA	SEGMENT
?_table@@3PAUCommand@@A DD FLAT:??_C@_01CLKCMJKC@?5@	; _table
	DD	00H
	DD	FLAT:??_C@_01CLKCMJKC@?5@
	DD	01H
	DD	FLAT:??_C@_03JBIPMCLC@int@
	DD	02H
	DD	FLAT:??_C@_02HEBPBKGD@if@
	DD	03H
	DD	FLAT:??_C@_04FHMCPBIP@else@
	DD	04H
	DD	FLAT:??_C@_03JOHEBPFF@for@
	DD	05H
	DD	FLAT:??_C@_02KNAFDCHJ@do@
	DD	06H
	DD	FLAT:??_C@_05OODBEKIG@while@
	DD	07H
	DD	FLAT:??_C@_05ELPHFHOI@break@
	DD	08H
	DD	FLAT:??_C@_06DOPOGBGP@switch@
	DD	09H
	DD	FLAT:??_C@_06GGCDBJHP@answer@
	DD	0aH
	DD	FLAT:??_C@_06HJGPBJLE@Select@
	DD	0bH
	DD	FLAT:??_C@_05NFIFCHIO@YesNo@
	DD	0cH
	DD	FLAT:??_C@_04CKOINMPC@case@
	DD	0dH
	DD	FLAT:??_C@_07DLHCIBDH@default@
	DD	0eH
	DD	FLAT:??_C@_04MABHPDAO@goto@
	DD	0fH
	DD	FLAT:??_C@_06LNOFJDNM@return@
	DD	010H
	DD	FLAT:??_C@_01CLKCMJKC@?5@
	DD	011H
	DD	FLAT:??_C@_07MAHLPAJA@?$CDdefine@
	DD	012H
	DD	FLAT:??_C@_08GPLAJCBH@?$CDinclude@
	DD	013H
	DD	FLAT:??_C@_04DBJPMPLO@enum@
	DD	014H
	DD	FLAT:??_C@_01CLKCMJKC@?5@
	DD	015H
	DD	00H
	DD	016H
_DATA	ENDS
PUBLIC	?__empty_global_delete@@YAXPAX@Z		; __empty_global_delete
PUBLIC	?__empty_global_delete@@YAXPAXI@Z		; __empty_global_delete
PUBLIC	___local_stdio_printf_options
PUBLIC	___local_stdio_scanf_options
PUBLIC	_printf
PUBLIC	_sscanf
PUBLIC	?AtlThrowImpl@ATL@@YGXJ@Z			; ATL::AtlThrowImpl
PUBLIC	??1?$CSimpleStringT@D$0A@@ATL@@QAE@XZ		; ATL::CSimpleStringT<char,0>::~CSimpleStringT<char,0>
PUBLIC	?SetString@?$CSimpleStringT@D$0A@@ATL@@QAEXPBDH@Z ; ATL::CSimpleStringT<char,0>::SetString
PUBLIC	?ThrowMemoryException@?$CSimpleStringT@D$0A@@ATL@@KAXXZ ; ATL::CSimpleStringT<char,0>::ThrowMemoryException
PUBLIC	?Fork@?$CSimpleStringT@D$0A@@ATL@@AAEXH@Z	; ATL::CSimpleStringT<char,0>::Fork
PUBLIC	?PrepareWrite2@?$CSimpleStringT@D$0A@@ATL@@AAEXH@Z ; ATL::CSimpleStringT<char,0>::PrepareWrite2
PUBLIC	?Reallocate@?$CSimpleStringT@D$0A@@ATL@@AAEXH@Z	; ATL::CSimpleStringT<char,0>::Reallocate
PUBLIC	??0?$CStringT@DV?$StrTraitMFC@DV?$ChTraitsCRT@D@ATL@@@@@ATL@@QAE@XZ ; ATL::CStringT<char,StrTraitMFC<char,ATL::ChTraitsCRT<char> > >::CStringT<char,StrTraitMFC<char,ATL::ChTraitsCRT<char> > >
PUBLIC	??1?$CStringT@DV?$StrTraitMFC@DV?$ChTraitsCRT@D@ATL@@@@@ATL@@QAE@XZ ; ATL::CStringT<char,StrTraitMFC<char,ATL::ChTraitsCRT<char> > >::~CStringT<char,StrTraitMFC<char,ATL::ChTraitsCRT<char> > >
PUBLIC	?Format@?$CStringT@DV?$StrTraitMFC@DV?$ChTraitsCRT@D@ATL@@@@@ATL@@QAAXPBDZZ ; ATL::CStringT<char,StrTraitMFC<char,ATL::ChTraitsCRT<char> > >::Format
PUBLIC	?FormatV@?$CStringT@DV?$StrTraitMFC@DV?$ChTraitsCRT@D@ATL@@@@@ATL@@QAEXPBDPAD@Z ; ATL::CStringT<char,StrTraitMFC<char,ATL::ChTraitsCRT<char> > >::FormatV
PUBLIC	?LoadStringA@?$CStringT@DV?$StrTraitMFC@DV?$ChTraitsCRT@D@ATL@@@@@ATL@@QAEHI@Z ; ATL::CStringT<char,StrTraitMFC<char,ATL::ChTraitsCRT<char> > >::LoadStringA
PUBLIC	??0exception@std@@QAE@ABV01@@Z			; std::exception::exception
PUBLIC	??1exception@std@@UAE@XZ			; std::exception::~exception
PUBLIC	?what@exception@std@@UBEPBDXZ			; std::exception::what
PUBLIC	??_Gexception@std@@UAEPAXI@Z			; std::exception::`scalar deleting destructor'
PUBLIC	??0bad_alloc@std@@QAE@ABV01@@Z			; std::bad_alloc::bad_alloc
PUBLIC	??_Gbad_alloc@std@@UAEPAXI@Z			; std::bad_alloc::`scalar deleting destructor'
PUBLIC	??0bad_array_new_length@std@@QAE@XZ		; std::bad_array_new_length::bad_array_new_length
PUBLIC	??1bad_array_new_length@std@@UAE@XZ		; std::bad_array_new_length::~bad_array_new_length
PUBLIC	??0bad_array_new_length@std@@QAE@ABV01@@Z	; std::bad_array_new_length::bad_array_new_length
PUBLIC	??_Gbad_array_new_length@std@@UAEPAXI@Z		; std::bad_array_new_length::`scalar deleting destructor'
PUBLIC	?_Throw_bad_array_new_length@std@@YAXXZ		; std::_Throw_bad_array_new_length
PUBLIC	?_Xlen_string@std@@YAXXZ			; std::_Xlen_string
PUBLIC	??0?$basic_string@DU?$char_traits@D@std@@V?$allocator@D@2@@std@@QAE@ABV01@@Z ; std::basic_string<char,std::char_traits<char>,std::allocator<char> >::basic_string<char,std::char_traits<char>,std::allocator<char> >
PUBLIC	??0?$basic_string@DU?$char_traits@D@std@@V?$allocator@D@2@@std@@QAE@QBD@Z ; std::basic_string<char,std::char_traits<char>,std::allocator<char> >::basic_string<char,std::char_traits<char>,std::allocator<char> >
PUBLIC	??1?$basic_string@DU?$char_traits@D@std@@V?$allocator@D@2@@std@@QAE@XZ ; std::basic_string<char,std::char_traits<char>,std::allocator<char> >::~basic_string<char,std::char_traits<char>,std::allocator<char> >
PUBLIC	?_Throw_tree_length_error@std@@YAXXZ		; std::_Throw_tree_length_error
PUBLIC	?SetMark@CScanner@@UAEXXZ			; CScanner::SetMark
PUBLIC	?GoMark@CScanner@@UAEXXZ			; CScanner::GoMark
PUBLIC	??1CParser@@UAE@XZ				; CParser::~CParser
PUBLIC	?SntxErr@CParser@@UAEXPBDH@Z			; CParser::SntxErr
PUBLIC	?EvalExp1@CParser@@IAEXPAH@Z			; CParser::EvalExp1
PUBLIC	?EvalExp2@CParser@@IAEXPAH@Z			; CParser::EvalExp2
PUBLIC	?EvalExp3@CParser@@IAEXPAH@Z			; CParser::EvalExp3
PUBLIC	?EvalExp4@CParser@@IAEXPAH@Z			; CParser::EvalExp4
PUBLIC	?EvalExp5@CParser@@IAEXPAH@Z			; CParser::EvalExp5
PUBLIC	?EvalExp6@CParser@@IAEXPAH@Z			; CParser::EvalExp6
PUBLIC	?EvalExp0@CParser@@MAEXPAH@Z			; CParser::EvalExp0
PUBLIC	?atom@CParser@@MAEXPAH@Z			; CParser::atom
PUBLIC	?Compute@CParser@@QAEXPADPAH@Z			; CParser::Compute
PUBLIC	?Compute@CParser@@QAEXPAH@Z			; CParser::Compute
PUBLIC	??_GCParser@@UAEPAXI@Z				; CParser::`scalar deleting destructor'
PUBLIC	??0CScript@@QAE@H@Z				; CScript::CScript
PUBLIC	??1CScript@@UAE@XZ				; CScript::~CScript
PUBLIC	?DeclGlobal@CScript@@QAEXXZ			; CScript::DeclGlobal
PUBLIC	?DeclLocal@CScript@@QAEXXZ			; CScript::DeclLocal
PUBLIC	?FindLabel@CScript@@QAEXXZ			; CScript::FindLabel
PUBLIC	?GetParams@CScript@@QAEXXZ			; CScript::GetParams
PUBLIC	?GetTkn@CScript@@QAEHH@Z			; CScript::GetTkn
PUBLIC	?LookUp@CScript@@QAEDPBD@Z			; CScript::LookUp
PUBLIC	?InternalFunc@CScript@@QAEHPAD@Z		; CScript::InternalFunc
PUBLIC	?ExecDefine@CScript@@QAEXXZ			; CScript::ExecDefine
PUBLIC	?FindFunc@CScript@@QAEPADPAD@Z			; CScript::FindFunc
PUBLIC	?Write@CScript@@QAEXPAPADPAD@Z			; CScript::Write
PUBLIC	?IsFunc@CScript@@QAEHPAD@Z			; CScript::IsFunc
PUBLIC	?Compile@CScript@@QAEXXZ			; CScript::Compile
PUBLIC	?Call@CScript@@QAEXXZ				; CScript::Call
PUBLIC	?GetArgs@CScript@@QAEXXZ			; CScript::GetArgs
PUBLIC	?FuncRet@CScript@@QAEXXZ			; CScript::FuncRet
PUBLIC	?LocalPush@CScript@@QAEXUVarType@@@Z		; CScript::LocalPush
PUBLIC	?FuncPop@CScript@@QAE?AUFuncInfo@@XZ		; CScript::FuncPop
PUBLIC	?FuncPush@CScript@@QAEXUFuncInfo@@@Z		; CScript::FuncPush
PUBLIC	?AssignVar@CScript@@QAEXPADH@Z			; CScript::AssignVar
PUBLIC	?GetVarPtr@CScript@@QAEPAHPAD@Z			; CScript::GetVarPtr
PUBLIC	?FindVar@CScript@@QAEHPAD@Z			; CScript::FindVar
PUBLIC	?IsVar@CScript@@QAEHPAD@Z			; CScript::IsVar
PUBLIC	?ExecIf@CScript@@QAEXXZ				; CScript::ExecIf
PUBLIC	?ExecWhile@CScript@@QAEXXZ			; CScript::ExecWhile
PUBLIC	?ExecDo@CScript@@QAEXXZ				; CScript::ExecDo
PUBLIC	?ExecFor@CScript@@QAEXXZ			; CScript::ExecFor
PUBLIC	?ExecSwitch@CScript@@QAEXXZ			; CScript::ExecSwitch
PUBLIC	?EvalExp0@CScript@@UAEXPAH@Z			; CScript::EvalExp0
PUBLIC	?atom@CScript@@UAEXPAH@Z			; CScript::atom
PUBLIC	?Run@CScript@@QAEHXZ				; CScript::Run
PUBLIC	?InterpBlock@CScript@@QAEHH@Z			; CScript::InterpBlock
PUBLIC	?Compute@CScript@@QAEXPAH@Z			; CScript::Compute
PUBLIC	?FindEob@CScript@@QAEXXZ			; CScript::FindEob
PUBLIC	?SetIValue@CScript@@QAAXHZZ			; CScript::SetIValue
PUBLIC	?LookupDefine@CScript@@SAHPBDAAH@Z		; CScript::LookupDefine
PUBLIC	?GetFindIdToArray@CScript@@SAXPBDPAVCStringArray@@@Z ; CScript::GetFindIdToArray
PUBLIC	?GetDefineNum@CScript@@SAHPBD@Z			; CScript::GetDefineNum
PUBLIC	?SntxErr@CScript@@UAEXPBDH@Z			; CScript::SntxErr
PUBLIC	?SetMark@CScript@@UAEXXZ			; CScript::SetMark
PUBLIC	?GoMark@CScript@@UAEXXZ				; CScript::GoMark
PUBLIC	?GetLineNum@CScript@@UAEHPAD@Z			; CScript::GetLineNum
PUBLIC	?Load@CScript@@QAEHPBDHH@Z			; CScript::Load
PUBLIC	?Free@CScript@@QAEXXZ				; CScript::Free
PUBLIC	?PreScan@CScript@@QAEXXZ			; CScript::PreScan
PUBLIC	?GetToken@CScript@@UAEHH@Z			; CScript::GetToken
PUBLIC	?GetToken_NoDef@CScript@@QAEHH@Z		; CScript::GetToken_NoDef
PUBLIC	?GetLastFull@CScript@@QAEXXZ			; CScript::GetLastFull
PUBLIC	?LoadStringA@CScript@@QAEXXZ			; CScript::LoadStringA
PUBLIC	??_GCScript@@UAEPAXI@Z				; CScript::`scalar deleting destructor'
PUBLIC	??$?MDU?$char_traits@D@std@@V?$allocator@D@1@@std@@YA_NABV?$basic_string@DU?$char_traits@D@std@@V?$allocator@D@2@@0@0@Z ; std::operator<<char,std::char_traits<char>,std::allocator<char> >
PUBLIC	??$_Allocate_manually_vector_aligned@U_Default_allocate_traits@std@@@std@@YAPAXI@Z ; std::_Allocate_manually_vector_aligned<std::_Default_allocate_traits>
PUBLIC	?_Insert_node@?$_Tree_val@U?$_Tree_simple_types@U?$pair@$$CBV?$basic_string@DU?$char_traits@D@std@@V?$allocator@D@2@@std@@H@std@@@std@@@std@@QAEPAU?$_Tree_node@U?$pair@$$CBV?$basic_string@DU?$char_traits@D@std@@V?$allocator@D@2@@std@@H@std@@PAX@2@U?$_Tree_id@PAU?$_Tree_node@U?$pair@$$CBV?$basic_string@DU?$char_traits@D@std@@V?$allocator@D@2@@std@@H@std@@PAX@std@@@2@QAU32@@Z ; std::_Tree_val<std::_Tree_simple_types<std::pair<std::basic_string<char,std::char_traits<char>,std::allocator<char> > const ,int> > >::_Insert_node
PUBLIC	?_Insert_node@?$_Tree_val@U?$_Tree_simple_types@U?$pair@$$CBV?$basic_string@DU?$char_traits@D@std@@V?$allocator@D@2@@std@@V12@@std@@@std@@@std@@QAEPAU?$_Tree_node@U?$pair@$$CBV?$basic_string@DU?$char_traits@D@std@@V?$allocator@D@2@@std@@V12@@std@@PAX@2@U?$_Tree_id@PAU?$_Tree_node@U?$pair@$$CBV?$basic_string@DU?$char_traits@D@std@@V?$allocator@D@2@@std@@V12@@std@@PAX@std@@@2@QAU32@@Z ; std::_Tree_val<std::_Tree_simple_types<std::pair<std::basic_string<char,std::char_traits<char>,std::allocator<char> > const ,std::basic_string<char,std::char_traits<char>,std::allocator<char> > > > >::_Insert_node
PUBLIC	??1?$pair@$$CBV?$basic_string@DU?$char_traits@D@std@@V?$allocator@D@2@@std@@V12@@std@@QAE@XZ ; std::pair<std::basic_string<char,std::char_traits<char>,std::allocator<char> > const ,std::basic_string<char,std::char_traits<char>,std::allocator<char> > >::~pair<std::basic_string<char,std::char_traits<char>,std::allocator<char> > const ,std::basic_string<char,std::char_traits<char>,std::allocator<char> > >
PUBLIC	??1?$pair@V?$basic_string@DU?$char_traits@D@std@@V?$allocator@D@2@@std@@H@std@@QAE@XZ ; std::pair<std::basic_string<char,std::char_traits<char>,std::allocator<char> >,int>::~pair<std::basic_string<char,std::char_traits<char>,std::allocator<char> >,int>
PUBLIC	??$_Find_lower_bound@V?$basic_string@DU?$char_traits@D@std@@V?$allocator@D@2@@std@@@?$_Tree@V?$_Tmap_traits@V?$basic_string@DU?$char_traits@D@std@@V?$allocator@D@2@@std@@V12@U?$less@V?$basic_string@DU?$char_traits@D@std@@V?$allocator@D@2@@std@@@2@V?$allocator@U?$pair@$$CBV?$basic_string@DU?$char_traits@D@std@@V?$allocator@D@2@@std@@V12@@std@@@2@$0A@@std@@@std@@IBE?AU?$_Tree_find_result@PAU?$_Tree_node@U?$pair@$$CBV?$basic_string@DU?$char_traits@D@std@@V?$allocator@D@2@@std@@V12@@std@@PAX@std@@@1@ABV?$basic_string@DU?$char_traits@D@std@@V?$allocator@D@2@@1@@Z ; std::_Tree<std::_Tmap_traits<std::basic_string<char,std::char_traits<char>,std::allocator<char> >,std::basic_string<char,std::char_traits<char>,std::allocator<char> >,std::less<std::basic_string<char,std::char_traits<char>,std::allocator<char> > >,std::allocator<std::pair<std::basic_string<char,std::char_traits<char>,std::allocator<char> > const ,std::basic_string<char,std::char_traits<char>,std::allocator<char> > > >,0> >::_Find_lower_bound<std::basic_string<char,std::char_traits<char>,std::allocator<char> > >
PUBLIC	??1?$_Alloc_construct_ptr@V?$allocator@U?$_Tree_node@U?$pair@$$CBV?$basic_string@DU?$char_traits@D@std@@V?$allocator@D@2@@std@@V12@@std@@PAX@std@@@std@@@std@@QAE@XZ ; std::_Alloc_construct_ptr<std::allocator<std::_Tree_node<std::pair<std::basic_string<char,std::char_traits<char>,std::allocator<char> > const ,std::basic_string<char,std::char_traits<char>,std::allocator<char> > >,void *> > >::~_Alloc_construct_ptr<std::allocator<std::_Tree_node<std::pair<std::basic_string<char,std::char_traits<char>,std::allocator<char> > const ,std::basic_string<char,std::char_traits<char>,std::allocator<char> > >,void *> > >
PUBLIC	??1?$_Tree_temp_node_alloc@V?$allocator@U?$_Tree_node@U?$pair@$$CBV?$basic_string@DU?$char_traits@D@std@@V?$allocator@D@2@@std@@V12@@std@@PAX@std@@@std@@@std@@QAE@XZ ; std::_Tree_temp_node_alloc<std::allocator<std::_Tree_node<std::pair<std::basic_string<char,std::char_traits<char>,std::allocator<char> > const ,std::basic_string<char,std::char_traits<char>,std::allocator<char> > >,void *> > >::~_Tree_temp_node_alloc<std::allocator<std::_Tree_node<std::pair<std::basic_string<char,std::char_traits<char>,std::allocator<char> > const ,std::basic_string<char,std::char_traits<char>,std::allocator<char> > >,void *> > >
PUBLIC	??$_Erase_tree@V?$allocator@U?$_Tree_node@U?$pair@$$CBV?$basic_string@DU?$char_traits@D@std@@V?$allocator@D@2@@std@@V12@@std@@PAX@std@@@std@@@?$_Tree_val@U?$_Tree_simple_types@U?$pair@$$CBV?$basic_string@DU?$char_traits@D@std@@V?$allocator@D@2@@std@@V12@@std@@@std@@@std@@QAEXAAV?$allocator@U?$_Tree_node@U?$pair@$$CBV?$basic_string@DU?$char_traits@D@std@@V?$allocator@D@2@@std@@V12@@std@@PAX@std@@@1@PAU?$_Tree_node@U?$pair@$$CBV?$basic_string@DU?$char_traits@D@std@@V?$allocator@D@2@@std@@V12@@std@@PAX@1@@Z ; std::_Tree_val<std::_Tree_simple_types<std::pair<std::basic_string<char,std::char_traits<char>,std::allocator<char> > const ,std::basic_string<char,std::char_traits<char>,std::allocator<char> > > > >::_Erase_tree<std::allocator<std::_Tree_node<std::pair<std::basic_string<char,std::char_traits<char>,std::allocator<char> > const ,std::basic_string<char,std::char_traits<char>,std::allocator<char> > >,void *> > >
PUBLIC	??$_Find_lower_bound@V?$basic_string@DU?$char_traits@D@std@@V?$allocator@D@2@@std@@@?$_Tree@V?$_Tmap_traits@V?$basic_string@DU?$char_traits@D@std@@V?$allocator@D@2@@std@@HU?$less@V?$basic_string@DU?$char_traits@D@std@@V?$allocator@D@2@@std@@@2@V?$allocator@U?$pair@$$CBV?$basic_string@DU?$char_traits@D@std@@V?$allocator@D@2@@std@@H@std@@@2@$0A@@std@@@std@@IBE?AU?$_Tree_find_result@PAU?$_Tree_node@U?$pair@$$CBV?$basic_string@DU?$char_traits@D@std@@V?$allocator@D@2@@std@@H@std@@PAX@std@@@1@ABV?$basic_string@DU?$char_traits@D@std@@V?$allocator@D@2@@1@@Z ; std::_Tree<std::_Tmap_traits<std::basic_string<char,std::char_traits<char>,std::allocator<char> >,int,std::less<std::basic_string<char,std::char_traits<char>,std::allocator<char> > >,std::allocator<std::pair<std::basic_string<char,std::char_traits<char>,std::allocator<char> > const ,int> >,0> >::_Find_lower_bound<std::basic_string<char,std::char_traits<char>,std::allocator<char> > >
PUBLIC	??$_Erase_tree@V?$allocator@U?$_Tree_node@U?$pair@$$CBV?$basic_string@DU?$char_traits@D@std@@V?$allocator@D@2@@std@@H@std@@PAX@std@@@std@@@?$_Tree_val@U?$_Tree_simple_types@U?$pair@$$CBV?$basic_string@DU?$char_traits@D@std@@V?$allocator@D@2@@std@@H@std@@@std@@@std@@QAEXAAV?$allocator@U?$_Tree_node@U?$pair@$$CBV?$basic_string@DU?$char_traits@D@std@@V?$allocator@D@2@@std@@H@std@@PAX@std@@@1@PAU?$_Tree_node@U?$pair@$$CBV?$basic_string@DU?$char_traits@D@std@@V?$allocator@D@2@@std@@H@std@@PAX@1@@Z ; std::_Tree_val<std::_Tree_simple_types<std::pair<std::basic_string<char,std::char_traits<char>,std::allocator<char> > const ,int> > >::_Erase_tree<std::allocator<std::_Tree_node<std::pair<std::basic_string<char,std::char_traits<char>,std::allocator<char> > const ,int>,void *> > >
PUBLIC	??$_Search_vectorized@$$CBD$$CBD@std@@YAPBDQBD00I@Z ; std::_Search_vectorized<char const ,char const >
PUBLIC	??1?$_Alloc_construct_ptr@V?$allocator@U?$_Tree_node@U?$pair@$$CBV?$basic_string@DU?$char_traits@D@std@@V?$allocator@D@2@@std@@H@std@@PAX@std@@@std@@@std@@QAE@XZ ; std::_Alloc_construct_ptr<std::allocator<std::_Tree_node<std::pair<std::basic_string<char,std::char_traits<char>,std::allocator<char> > const ,int>,void *> > >::~_Alloc_construct_ptr<std::allocator<std::_Tree_node<std::pair<std::basic_string<char,std::char_traits<char>,std::allocator<char> > const ,int>,void *> > >
PUBLIC	??1?$_Tree_temp_node_alloc@V?$allocator@U?$_Tree_node@U?$pair@$$CBV?$basic_string@DU?$char_traits@D@std@@V?$allocator@D@2@@std@@H@std@@PAX@std@@@std@@@std@@QAE@XZ ; std::_Tree_temp_node_alloc<std::allocator<std::_Tree_node<std::pair<std::basic_string<char,std::char_traits<char>,std::allocator<char> > const ,int>,void *> > >::~_Tree_temp_node_alloc<std::allocator<std::_Tree_node<std::pair<std::basic_string<char,std::char_traits<char>,std::allocator<char> > const ,int>,void *> > >
PUBLIC	??1?$_Tree_temp_node@V?$allocator@U?$_Tree_node@U?$pair@$$CBV?$basic_string@DU?$char_traits@D@std@@V?$allocator@D@2@@std@@H@std@@PAX@std@@@std@@@std@@QAE@XZ ; std::_Tree_temp_node<std::allocator<std::_Tree_node<std::pair<std::basic_string<char,std::char_traits<char>,std::allocator<char> > const ,int>,void *> > >::~_Tree_temp_node<std::allocator<std::_Tree_node<std::pair<std::basic_string<char,std::char_traits<char>,std::allocator<char> > const ,int>,void *> > >
PUBLIC	?_OptionsStorage@?1??__local_stdio_printf_options@@9@4_KA ; `__local_stdio_printf_options'::`2'::_OptionsStorage
PUBLIC	?_OptionsStorage@?1??__local_stdio_scanf_options@@9@4_KA ; `__local_stdio_scanf_options'::`2'::_OptionsStorage
PUBLIC	??_C@_02DPKJAMEF@?$CFd@				; `string'
PUBLIC	??_7exception@std@@6B@				; std::exception::`vftable'
PUBLIC	??_C@_0BC@EOODALEL@Unknown?5exception@		; `string'
PUBLIC	??_7bad_alloc@std@@6B@				; std::bad_alloc::`vftable'
PUBLIC	??_7bad_array_new_length@std@@6B@		; std::bad_array_new_length::`vftable'
PUBLIC	??_C@_0BF@KINCDENJ@bad?5array?5new?5length@	; `string'
PUBLIC	??_R0?AVexception@std@@@8			; std::exception `RTTI Type Descriptor'
PUBLIC	__CT??_R0?AVexception@std@@@8??0exception@std@@QAE@ABV01@@Z12
PUBLIC	__TI3?AVbad_array_new_length@std@@
PUBLIC	__CTA3?AVbad_array_new_length@std@@
PUBLIC	??_R0?AVbad_array_new_length@std@@@8		; std::bad_array_new_length `RTTI Type Descriptor'
PUBLIC	__CT??_R0?AVbad_array_new_length@std@@@8??0bad_array_new_length@std@@QAE@ABV01@@Z12
PUBLIC	??_R0?AVbad_alloc@std@@@8			; std::bad_alloc `RTTI Type Descriptor'
PUBLIC	__CT??_R0?AVbad_alloc@std@@@8??0bad_alloc@std@@QAE@ABV01@@Z12
PUBLIC	??_C@_0BA@JFNIOLAK@string?5too?5long@		; `string'
PUBLIC	??_C@_0BB@GCADKGJO@map?1set?5too?5long@		; `string'
PUBLIC	??_7CParser@@6B@				; CParser::`vftable'
PUBLIC	?m_defines@CScript@@2V?$map@V?$basic_string@DU?$char_traits@D@std@@V?$allocator@D@2@@std@@HU?$less@V?$basic_string@DU?$char_traits@D@std@@V?$allocator@D@2@@std@@@2@V?$allocator@U?$pair@$$CBV?$basic_string@DU?$char_traits@D@std@@V?$allocator@D@2@@std@@H@std@@@2@@std@@A ; CScript::m_defines
PUBLIC	?m_mapString@CScript@@2V?$map@V?$basic_string@DU?$char_traits@D@std@@V?$allocator@D@2@@std@@V12@U?$less@V?$basic_string@DU?$char_traits@D@std@@V?$allocator@D@2@@std@@@2@V?$allocator@U?$pair@$$CBV?$basic_string@DU?$char_traits@D@std@@V?$allocator@D@2@@std@@V12@@std@@@2@@std@@A ; CScript::m_mapString
PUBLIC	??_7CScript@@6B@				; CScript::`vftable'
PUBLIC	??_R4exception@std@@6B@				; std::exception::`RTTI Complete Object Locator'
PUBLIC	??_R3exception@std@@8				; std::exception::`RTTI Class Hierarchy Descriptor'
PUBLIC	??_R2exception@std@@8				; std::exception::`RTTI Base Class Array'
PUBLIC	??_R1A@?0A@EA@exception@std@@8			; std::exception::`RTTI Base Class Descriptor at (0,-1,0,64)'
PUBLIC	??_R4bad_array_new_length@std@@6B@		; std::bad_array_new_length::`RTTI Complete Object Locator'
PUBLIC	??_R3bad_array_new_length@std@@8		; std::bad_array_new_length::`RTTI Class Hierarchy Descriptor'
PUBLIC	??_R2bad_array_new_length@std@@8		; std::bad_array_new_length::`RTTI Base Class Array'
PUBLIC	??_R1A@?0A@EA@bad_array_new_length@std@@8	; std::bad_array_new_length::`RTTI Base Class Descriptor at (0,-1,0,64)'
PUBLIC	??_R1A@?0A@EA@bad_alloc@std@@8			; std::bad_alloc::`RTTI Base Class Descriptor at (0,-1,0,64)'
PUBLIC	??_R3bad_alloc@std@@8				; std::bad_alloc::`RTTI Class Hierarchy Descriptor'
PUBLIC	??_R2bad_alloc@std@@8				; std::bad_alloc::`RTTI Base Class Array'
PUBLIC	??_R4bad_alloc@std@@6B@				; std::bad_alloc::`RTTI Complete Object Locator'
PUBLIC	??_R4CParser@@6B@				; CParser::`RTTI Complete Object Locator'
PUBLIC	??_R0?AVCParser@@@8				; CParser `RTTI Type Descriptor'
PUBLIC	??_R3CParser@@8					; CParser::`RTTI Class Hierarchy Descriptor'
PUBLIC	??_R2CParser@@8					; CParser::`RTTI Base Class Array'
PUBLIC	??_R1A@?0A@EA@CParser@@8			; CParser::`RTTI Base Class Descriptor at (0,-1,0,64)'
PUBLIC	??_R1A@?0A@EA@CScanner@@8			; CScanner::`RTTI Base Class Descriptor at (0,-1,0,64)'
PUBLIC	??_R0?AVCScanner@@@8				; CScanner `RTTI Type Descriptor'
PUBLIC	??_R3CScanner@@8				; CScanner::`RTTI Class Hierarchy Descriptor'
PUBLIC	??_R2CScanner@@8				; CScanner::`RTTI Base Class Array'
PUBLIC	__TI2PAD
PUBLIC	__CTA2PAD
PUBLIC	??_R0PAD@8					; char * `RTTI Type Descriptor'
PUBLIC	__CT??_R0PAD@84
PUBLIC	??_R0PAX@8					; void * `RTTI Type Descriptor'
PUBLIC	__CT??_R0PAX@84
PUBLIC	??_C@_04LPNGBNLE@fuck@				; `string'
PUBLIC	??_C@_03NOKCBMNP@IDS@				; `string'
PUBLIC	??_C@_0P@DFBKCGIL@LoadString?3?5?$CFs@		; `string'
PUBLIC	??_C@_0BB@OFLGCAKK@string?5error?3?5?$CFs@	; `string'
PUBLIC	??_C@_0BK@LCEEEJHE@FileName?5?$CFs?$CI?$CFd?$CJ?5?3?5?$CFs?5?3?5?$CFs@ ; `string'
PUBLIC	??_C@_0BF@GGDBDKKB@FileName?5?$CFs?$CI?$CFd?$CJ?5?3?5?$CFs@ ; `string'
PUBLIC	??_C@_0O@PIAMLODH@?$CFs?5Not?5Found?4@		; `string'
PUBLIC	??_C@_01IPJKGB@?$CD@				; `string'
PUBLIC	??_C@_02NJNOFBBI@?$CFx@				; `string'
PUBLIC	??_C@_02KPDBPKPG@?$CD?5@			; `string'
PUBLIC	??_C@_01BJJEKLCA@?$CC@				; `string'
PUBLIC	??_C@_04GHJNJNPO@main@				; `string'
PUBLIC	??_C@_0P@MHAOLNPC@label?5overflow@		; `string'
PUBLIC	??_R4CScript@@6B@				; CScript::`RTTI Complete Object Locator'
PUBLIC	??_R0?AVCScript@@@8				; CScript `RTTI Type Descriptor'
PUBLIC	??_R3CScript@@8					; CScript::`RTTI Class Hierarchy Descriptor'
PUBLIC	??_R2CScript@@8					; CScript::`RTTI Base Class Array'
PUBLIC	??_R1A@?0A@EA@CScript@@8			; CScript::`RTTI Base Class Descriptor at (0,-1,0,64)'
EXTRN	??2@YAPAXI@Z:PROC				; operator new
EXTRN	??3@YAXPAXI@Z:PROC				; operator delete
EXTRN	??_U@YAPAXI@Z:PROC				; operator new[]
EXTRN	_atexit:PROC
EXTRN	___report_rangecheckfailure:PROC
EXTRN	__invalid_parameter_noinfo:PROC
EXTRN	__invoke_watson:PROC
EXTRN	__errno:PROC
EXTRN	__imp__LoadResource@8:PROC
EXTRN	__imp__LockResource@4:PROC
EXTRN	__imp__SizeofResource@8:PROC
EXTRN	__imp__FindResourceW@12:PROC
EXTRN	__imp__lstrcpyA@8:PROC
EXTRN	__imp__wsprintfA:PROC
EXTRN	__imp__WideCharToMultiByte@32:PROC
EXTRN	__mbsstr:PROC
EXTRN	___acrt_iob_func:PROC
EXTRN	___stdio_common_vfprintf:PROC
EXTRN	___stdio_common_vsprintf:PROC
EXTRN	___stdio_common_vsprintf_s:PROC
EXTRN	___stdio_common_vsscanf:PROC
EXTRN	_exit:PROC
EXTRN	_atoi:PROC
EXTRN	_itoa:PROC
EXTRN	?AfxThrowMemoryException@@YGXXZ:PROC		; AfxThrowMemoryException
EXTRN	?AfxThrowOleException@@YGXJ@Z:PROC		; AfxThrowOleException
EXTRN	?AfxFindStringResourceHandle@@YGPAUHINSTANCE__@@I@Z:PROC ; AfxFindStringResourceHandle
EXTRN	?AfxGetStringManager@@YGPAUIAtlStringMgr@ATL@@XZ:PROC ; AfxGetStringManager
EXTRN	?SetAtGrow@CStringArray@@QAEXHPBD@Z:PROC	; CStringArray::SetAtGrow
EXTRN	___std_search_1@16:PROC
EXTRN	?_Xlength_error@std@@YAXPBD@Z:PROC		; std::_Xlength_error
EXTRN	___std_exception_copy:PROC
EXTRN	___std_exception_destroy:PROC
EXTRN	??_Eexception@std@@UAEPAXI@Z:PROC		; std::exception::`vector deleting destructor'
EXTRN	??_Ebad_alloc@std@@UAEPAXI@Z:PROC		; std::bad_alloc::`vector deleting destructor'
EXTRN	??_Ebad_array_new_length@std@@UAEPAXI@Z:PROC	; std::bad_array_new_length::`vector deleting destructor'
EXTRN	?Error@@YAPBDPBDZZ:PROC				; Error
EXTRN	??0CScanner@@QAE@H@Z:PROC			; CScanner::CScanner
EXTRN	??1CScanner@@UAE@XZ:PROC			; CScanner::~CScanner
EXTRN	?GetLineNum@CScanner@@UAEHPAX@Z:PROC		; CScanner::GetLineNum
EXTRN	?PutBack@CScanner@@UAEXXZ:PROC			; CScanner::PutBack
EXTRN	?GetToken@CScanner@@UAEHH@Z:PROC		; CScanner::GetToken
EXTRN	?GetLastFull@CScanner@@QAEXXZ:PROC		; CScanner::GetLastFull
EXTRN	?Free@CScanner@@QAEXXZ:PROC			; CScanner::Free
EXTRN	?Load@CScanner@@QAEHPBDH@Z:PROC			; CScanner::Load
EXTRN	?SetProg@CScanner@@QAEXPAX@Z:PROC		; CScanner::SetProg
EXTRN	??_ECParser@@UAEPAXI@Z:PROC			; CParser::`vector deleting destructor'
EXTRN	??_ECScript@@UAEPAXI@Z:PROC			; CScript::`vector deleting destructor'
EXTRN	@__security_check_cookie@4:PROC
EXTRN	__CxxThrowException@8:PROC
EXTRN	___CxxFrameHandler3:PROC
EXTRN	_memchr:PROC
EXTRN	_memcpy:PROC
EXTRN	_memmove:PROC
EXTRN	_memset:PROC
EXTRN	??_7type_info@@6B@:QWORD			; type_info::`vftable'
EXTRN	___security_cookie:DWORD
;	COMDAT ?_OptionsStorage@?1??__local_stdio_printf_options@@9@4_KA
_BSS	SEGMENT
?_OptionsStorage@?1??__local_stdio_printf_options@@9@4_KA DQ 01H DUP (?) ; `__local_stdio_printf_options'::`2'::_OptionsStorage
_BSS	ENDS
;	COMDAT ?_OptionsStorage@?1??__local_stdio_scanf_options@@9@4_KA
_BSS	SEGMENT
?_OptionsStorage@?1??__local_stdio_scanf_options@@9@4_KA DQ 01H DUP (?) ; `__local_stdio_scanf_options'::`2'::_OptionsStorage
_BSS	ENDS
_BSS	SEGMENT
?m_defines@CScript@@2V?$map@V?$basic_string@DU?$char_traits@D@std@@V?$allocator@D@2@@std@@HU?$less@V?$basic_string@DU?$char_traits@D@std@@V?$allocator@D@2@@std@@@2@V?$allocator@U?$pair@$$CBV?$basic_string@DU?$char_traits@D@std@@V?$allocator@D@2@@std@@H@std@@@2@@std@@A DQ 01H DUP (?) ; CScript::m_defines
?m_mapString@CScript@@2V?$map@V?$basic_string@DU?$char_traits@D@std@@V?$allocator@D@2@@std@@V12@U?$less@V?$basic_string@DU?$char_traits@D@std@@V?$allocator@D@2@@std@@@2@V?$allocator@U?$pair@$$CBV?$basic_string@DU?$char_traits@D@std@@V?$allocator@D@2@@std@@V12@@std@@@2@@std@@A DQ 01H DUP (?) ; CScript::m_mapString
_BSS	ENDS
CRT$XCU	SEGMENT
??m_defines$initializer$@CScript@@2P6AXXZA@@3P6AXXZA DD FLAT:??__E?m_defines@CScript@@2V?$map@V?$basic_string@DU?$char_traits@D@std@@V?$allocator@D@2@@std@@HU?$less@V?$basic_string@DU?$char_traits@D@std@@V?$allocator@D@2@@std@@@2@V?$allocator@U?$pair@$$CBV?$basic_string@DU?$char_traits@D@std@@V?$allocator@D@2@@std@@H@std@@@2@@std@@A@@YAXXZ ; ??m_defines$initializer$@CScript@@2P6AXXZA@@3P6AXXZA
CRT$XCU	ENDS
;	COMDAT ??_R1A@?0A@EA@CScript@@8
rdata$r	SEGMENT
??_R1A@?0A@EA@CScript@@8 DD FLAT:??_R0?AVCScript@@@8	; CScript::`RTTI Base Class Descriptor at (0,-1,0,64)'
	DD	02H
	DD	00H
	DD	0ffffffffH
	DD	00H
	DD	040H
	DD	FLAT:??_R3CScript@@8
rdata$r	ENDS
;	COMDAT ??_R2CScript@@8
rdata$r	SEGMENT
??_R2CScript@@8 DD FLAT:??_R1A@?0A@EA@CScript@@8	; CScript::`RTTI Base Class Array'
	DD	FLAT:??_R1A@?0A@EA@CParser@@8
	DD	FLAT:??_R1A@?0A@EA@CScanner@@8
rdata$r	ENDS
;	COMDAT ??_R3CScript@@8
rdata$r	SEGMENT
??_R3CScript@@8 DD 00H					; CScript::`RTTI Class Hierarchy Descriptor'
	DD	00H
	DD	03H
	DD	FLAT:??_R2CScript@@8
rdata$r	ENDS
;	COMDAT ??_R0?AVCScript@@@8
data$rs	SEGMENT
??_R0?AVCScript@@@8 DD FLAT:??_7type_info@@6B@		; CScript `RTTI Type Descriptor'
	DD	00H
	DB	'.?AVCScript@@', 00H
data$rs	ENDS
;	COMDAT ??_R4CScript@@6B@
rdata$r	SEGMENT
??_R4CScript@@6B@ DD 00H				; CScript::`RTTI Complete Object Locator'
	DD	00H
	DD	00H
	DD	FLAT:??_R0?AVCScript@@@8
	DD	FLAT:??_R3CScript@@8
rdata$r	ENDS
;	COMDAT ??_C@_0P@MHAOLNPC@label?5overflow@
CONST	SEGMENT
??_C@_0P@MHAOLNPC@label?5overflow@ DB 'label overflow', 00H ; `string'
CONST	ENDS
;	COMDAT ??_C@_04GHJNJNPO@main@
CONST	SEGMENT
??_C@_04GHJNJNPO@main@ DB 'main', 00H			; `string'
CONST	ENDS
;	COMDAT ??_C@_01BJJEKLCA@?$CC@
CONST	SEGMENT
??_C@_01BJJEKLCA@?$CC@ DB '"', 00H			; `string'
CONST	ENDS
;	COMDAT ??_C@_02KPDBPKPG@?$CD?5@
CONST	SEGMENT
??_C@_02KPDBPKPG@?$CD?5@ DB '# ', 00H			; `string'
CONST	ENDS
;	COMDAT ??_C@_02NJNOFBBI@?$CFx@
CONST	SEGMENT
??_C@_02NJNOFBBI@?$CFx@ DB '%x', 00H			; `string'
CONST	ENDS
;	COMDAT ??_C@_01IPJKGB@?$CD@
CONST	SEGMENT
??_C@_01IPJKGB@?$CD@ DB '#', 00H			; `string'
CONST	ENDS
;	COMDAT ??_C@_0O@PIAMLODH@?$CFs?5Not?5Found?4@
CONST	SEGMENT
??_C@_0O@PIAMLODH@?$CFs?5Not?5Found?4@ DB '%s Not Found.', 00H ; `string'
CONST	ENDS
;	COMDAT ??_C@_0BF@GGDBDKKB@FileName?5?$CFs?$CI?$CFd?$CJ?5?3?5?$CFs@
CONST	SEGMENT
??_C@_0BF@GGDBDKKB@FileName?5?$CFs?$CI?$CFd?$CJ?5?3?5?$CFs@ DB 'FileName '
	DB	'%s(%d) : %s', 00H				; `string'
CONST	ENDS
;	COMDAT ??_C@_0BK@LCEEEJHE@FileName?5?$CFs?$CI?$CFd?$CJ?5?3?5?$CFs?5?3?5?$CFs@
CONST	SEGMENT
??_C@_0BK@LCEEEJHE@FileName?5?$CFs?$CI?$CFd?$CJ?5?3?5?$CFs?5?3?5?$CFs@ DB 'F'
	DB	'ileName %s(%d) : %s : %s', 00H		; `string'
CONST	ENDS
;	COMDAT ??_C@_0BB@OFLGCAKK@string?5error?3?5?$CFs@
CONST	SEGMENT
??_C@_0BB@OFLGCAKK@string?5error?3?5?$CFs@ DB 'string error: %s', 00H ; `string'
CONST	ENDS
;	COMDAT ??_C@_0P@DFBKCGIL@LoadString?3?5?$CFs@
CONST	SEGMENT
??_C@_0P@DFBKCGIL@LoadString?3?5?$CFs@ DB 'LoadString: %s', 00H ; `string'
CONST	ENDS
;	COMDAT ??_C@_03NOKCBMNP@IDS@
CONST	SEGMENT
??_C@_03NOKCBMNP@IDS@ DB 'IDS', 00H			; `string'
CONST	ENDS
;	COMDAT ??_C@_04LPNGBNLE@fuck@
CONST	SEGMENT
??_C@_04LPNGBNLE@fuck@ DB 'fuck', 00H			; `string'
CONST	ENDS
;	COMDAT __CT??_R0PAX@84
xdata$x	SEGMENT
__CT??_R0PAX@84 DD 01H
	DD	FLAT:??_R0PAX@8
	DD	00H
	DD	0ffffffffH
	ORG $+4
	DD	04H
	DD	00H
xdata$x	ENDS
;	COMDAT ??_R0PAX@8
data$r	SEGMENT
??_R0PAX@8 DD	FLAT:??_7type_info@@6B@			; void * `RTTI Type Descriptor'
	DD	00H
	DB	'.PAX', 00H
data$r	ENDS
;	COMDAT __CT??_R0PAD@84
xdata$x	SEGMENT
__CT??_R0PAD@84 DD 01H
	DD	FLAT:??_R0PAD@8
	DD	00H
	DD	0ffffffffH
	ORG $+4
	DD	04H
	DD	00H
xdata$x	ENDS
;	COMDAT ??_R0PAD@8
data$r	SEGMENT
??_R0PAD@8 DD	FLAT:??_7type_info@@6B@			; char * `RTTI Type Descriptor'
	DD	00H
	DB	'.PAD', 00H
data$r	ENDS
;	COMDAT __CTA2PAD
xdata$x	SEGMENT
__CTA2PAD DD	02H
	DD	FLAT:__CT??_R0PAD@84
	DD	FLAT:__CT??_R0PAX@84
xdata$x	ENDS
;	COMDAT __TI2PAD
xdata$x	SEGMENT
__TI2PAD DD	00H
	DD	00H
	DD	00H
	DD	FLAT:__CTA2PAD
xdata$x	ENDS
;	COMDAT ??_R2CScanner@@8
rdata$r	SEGMENT
??_R2CScanner@@8 DD FLAT:??_R1A@?0A@EA@CScanner@@8	; CScanner::`RTTI Base Class Array'
rdata$r	ENDS
;	COMDAT ??_R3CScanner@@8
rdata$r	SEGMENT
??_R3CScanner@@8 DD 00H					; CScanner::`RTTI Class Hierarchy Descriptor'
	DD	00H
	DD	01H
	DD	FLAT:??_R2CScanner@@8
rdata$r	ENDS
;	COMDAT ??_R0?AVCScanner@@@8
data$rs	SEGMENT
??_R0?AVCScanner@@@8 DD FLAT:??_7type_info@@6B@		; CScanner `RTTI Type Descriptor'
	DD	00H
	DB	'.?AVCScanner@@', 00H
data$rs	ENDS
;	COMDAT ??_R1A@?0A@EA@CScanner@@8
rdata$r	SEGMENT
??_R1A@?0A@EA@CScanner@@8 DD FLAT:??_R0?AVCScanner@@@8	; CScanner::`RTTI Base Class Descriptor at (0,-1,0,64)'
	DD	00H
	DD	00H
	DD	0ffffffffH
	DD	00H
	DD	040H
	DD	FLAT:??_R3CScanner@@8
rdata$r	ENDS
;	COMDAT ??_R1A@?0A@EA@CParser@@8
rdata$r	SEGMENT
??_R1A@?0A@EA@CParser@@8 DD FLAT:??_R0?AVCParser@@@8	; CParser::`RTTI Base Class Descriptor at (0,-1,0,64)'
	DD	01H
	DD	00H
	DD	0ffffffffH
	DD	00H
	DD	040H
	DD	FLAT:??_R3CParser@@8
rdata$r	ENDS
;	COMDAT ??_R2CParser@@8
rdata$r	SEGMENT
??_R2CParser@@8 DD FLAT:??_R1A@?0A@EA@CParser@@8	; CParser::`RTTI Base Class Array'
	DD	FLAT:??_R1A@?0A@EA@CScanner@@8
rdata$r	ENDS
;	COMDAT ??_R3CParser@@8
rdata$r	SEGMENT
??_R3CParser@@8 DD 00H					; CParser::`RTTI Class Hierarchy Descriptor'
	DD	00H
	DD	02H
	DD	FLAT:??_R2CParser@@8
rdata$r	ENDS
;	COMDAT ??_R0?AVCParser@@@8
data$rs	SEGMENT
??_R0?AVCParser@@@8 DD FLAT:??_7type_info@@6B@		; CParser `RTTI Type Descriptor'
	DD	00H
	DB	'.?AVCParser@@', 00H
data$rs	ENDS
;	COMDAT ??_R4CParser@@6B@
rdata$r	SEGMENT
??_R4CParser@@6B@ DD 00H				; CParser::`RTTI Complete Object Locator'
	DD	00H
	DD	00H
	DD	FLAT:??_R0?AVCParser@@@8
	DD	FLAT:??_R3CParser@@8
rdata$r	ENDS
;	COMDAT ??_R4bad_alloc@std@@6B@
rdata$r	SEGMENT
??_R4bad_alloc@std@@6B@ DD 00H				; std::bad_alloc::`RTTI Complete Object Locator'
	DD	00H
	DD	00H
	DD	FLAT:??_R0?AVbad_alloc@std@@@8
	DD	FLAT:??_R3bad_alloc@std@@8
rdata$r	ENDS
;	COMDAT ??_R2bad_alloc@std@@8
rdata$r	SEGMENT
??_R2bad_alloc@std@@8 DD FLAT:??_R1A@?0A@EA@bad_alloc@std@@8 ; std::bad_alloc::`RTTI Base Class Array'
	DD	FLAT:??_R1A@?0A@EA@exception@std@@8
rdata$r	ENDS
;	COMDAT ??_R3bad_alloc@std@@8
rdata$r	SEGMENT
??_R3bad_alloc@std@@8 DD 00H				; std::bad_alloc::`RTTI Class Hierarchy Descriptor'
	DD	00H
	DD	02H
	DD	FLAT:??_R2bad_alloc@std@@8
rdata$r	ENDS
;	COMDAT ??_R1A@?0A@EA@bad_alloc@std@@8
rdata$r	SEGMENT
??_R1A@?0A@EA@bad_alloc@std@@8 DD FLAT:??_R0?AVbad_alloc@std@@@8 ; std::bad_alloc::`RTTI Base Class Descriptor at (0,-1,0,64)'
	DD	01H
	DD	00H
	DD	0ffffffffH
	DD	00H
	DD	040H
	DD	FLAT:??_R3bad_alloc@std@@8
rdata$r	ENDS
;	COMDAT ??_R1A@?0A@EA@bad_array_new_length@std@@8
rdata$r	SEGMENT
??_R1A@?0A@EA@bad_array_new_length@std@@8 DD FLAT:??_R0?AVbad_array_new_length@std@@@8 ; std::bad_array_new_length::`RTTI Base Class Descriptor at (0,-1,0,64)'
	DD	02H
	DD	00H
	DD	0ffffffffH
	DD	00H
	DD	040H
	DD	FLAT:??_R3bad_array_new_length@std@@8
rdata$r	ENDS
;	COMDAT ??_R2bad_array_new_length@std@@8
rdata$r	SEGMENT
??_R2bad_array_new_length@std@@8 DD FLAT:??_R1A@?0A@EA@bad_array_new_length@std@@8 ; std::bad_array_new_length::`RTTI Base Class Array'
	DD	FLAT:??_R1A@?0A@EA@bad_alloc@std@@8
	DD	FLAT:??_R1A@?0A@EA@exception@std@@8
rdata$r	ENDS
;	COMDAT ??_R3bad_array_new_length@std@@8
rdata$r	SEGMENT
??_R3bad_array_new_length@std@@8 DD 00H			; std::bad_array_new_length::`RTTI Class Hierarchy Descriptor'
	DD	00H
	DD	03H
	DD	FLAT:??_R2bad_array_new_length@std@@8
rdata$r	ENDS
;	COMDAT ??_R4bad_array_new_length@std@@6B@
rdata$r	SEGMENT
??_R4bad_array_new_length@std@@6B@ DD 00H		; std::bad_array_new_length::`RTTI Complete Object Locator'
	DD	00H
	DD	00H
	DD	FLAT:??_R0?AVbad_array_new_length@std@@@8
	DD	FLAT:??_R3bad_array_new_length@std@@8
rdata$r	ENDS
;	COMDAT ??_R1A@?0A@EA@exception@std@@8
rdata$r	SEGMENT
??_R1A@?0A@EA@exception@std@@8 DD FLAT:??_R0?AVexception@std@@@8 ; std::exception::`RTTI Base Class Descriptor at (0,-1,0,64)'
	DD	00H
	DD	00H
	DD	0ffffffffH
	DD	00H
	DD	040H
	DD	FLAT:??_R3exception@std@@8
rdata$r	ENDS
;	COMDAT ??_R2exception@std@@8
rdata$r	SEGMENT
??_R2exception@std@@8 DD FLAT:??_R1A@?0A@EA@exception@std@@8 ; std::exception::`RTTI Base Class Array'
rdata$r	ENDS
;	COMDAT ??_R3exception@std@@8
rdata$r	SEGMENT
??_R3exception@std@@8 DD 00H				; std::exception::`RTTI Class Hierarchy Descriptor'
	DD	00H
	DD	01H
	DD	FLAT:??_R2exception@std@@8
rdata$r	ENDS
;	COMDAT ??_R4exception@std@@6B@
rdata$r	SEGMENT
??_R4exception@std@@6B@ DD 00H				; std::exception::`RTTI Complete Object Locator'
	DD	00H
	DD	00H
	DD	FLAT:??_R0?AVexception@std@@@8
	DD	FLAT:??_R3exception@std@@8
rdata$r	ENDS
;	COMDAT ??_7CScript@@6B@
CONST	SEGMENT
??_7CScript@@6B@ DD FLAT:??_R4CScript@@6B@		; CScript::`vftable'
	DD	FLAT:??_ECScript@@UAEPAXI@Z
	DD	FLAT:?SetMark@CScript@@UAEXXZ
	DD	FLAT:?GoMark@CScript@@UAEXXZ
	DD	FLAT:?GetLineNum@CScanner@@UAEHPAX@Z
	DD	FLAT:?PutBack@CScanner@@UAEXXZ
	DD	FLAT:?GetToken@CScript@@UAEHH@Z
	DD	FLAT:?SntxErr@CScript@@UAEXPBDH@Z
	DD	FLAT:?EvalExp0@CScript@@UAEXPAH@Z
	DD	FLAT:?atom@CScript@@UAEXPAH@Z
	DD	FLAT:?GetLineNum@CScript@@UAEHPAD@Z
CONST	ENDS
;	COMDAT ??_7CParser@@6B@
CONST	SEGMENT
??_7CParser@@6B@ DD FLAT:??_R4CParser@@6B@		; CParser::`vftable'
	DD	FLAT:??_ECParser@@UAEPAXI@Z
	DD	FLAT:?SetMark@CScanner@@UAEXXZ
	DD	FLAT:?GoMark@CScanner@@UAEXXZ
	DD	FLAT:?GetLineNum@CScanner@@UAEHPAX@Z
	DD	FLAT:?PutBack@CScanner@@UAEXXZ
	DD	FLAT:?GetToken@CScanner@@UAEHH@Z
	DD	FLAT:?SntxErr@CParser@@UAEXPBDH@Z
	DD	FLAT:?EvalExp0@CParser@@MAEXPAH@Z
	DD	FLAT:?atom@CParser@@MAEXPAH@Z
CONST	ENDS
;	COMDAT ??_C@_0BB@GCADKGJO@map?1set?5too?5long@
CONST	SEGMENT
??_C@_0BB@GCADKGJO@map?1set?5too?5long@ DB 'map/set too long', 00H ; `string'
CONST	ENDS
;	COMDAT ??_C@_0BA@JFNIOLAK@string?5too?5long@
CONST	SEGMENT
??_C@_0BA@JFNIOLAK@string?5too?5long@ DB 'string too long', 00H ; `string'
CONST	ENDS
;	COMDAT __CT??_R0?AVbad_alloc@std@@@8??0bad_alloc@std@@QAE@ABV01@@Z12
xdata$x	SEGMENT
__CT??_R0?AVbad_alloc@std@@@8??0bad_alloc@std@@QAE@ABV01@@Z12 DD 010H
	DD	FLAT:??_R0?AVbad_alloc@std@@@8
	DD	00H
	DD	0ffffffffH
	ORG $+4
	DD	0cH
	DD	FLAT:??0bad_alloc@std@@QAE@ABV01@@Z
xdata$x	ENDS
;	COMDAT ??_R0?AVbad_alloc@std@@@8
data$r	SEGMENT
??_R0?AVbad_alloc@std@@@8 DD FLAT:??_7type_info@@6B@	; std::bad_alloc `RTTI Type Descriptor'
	DD	00H
	DB	'.?AVbad_alloc@std@@', 00H
data$r	ENDS
;	COMDAT __CT??_R0?AVbad_array_new_length@std@@@8??0bad_array_new_length@std@@QAE@ABV01@@Z12
xdata$x	SEGMENT
__CT??_R0?AVbad_array_new_length@std@@@8??0bad_array_new_length@std@@QAE@ABV01@@Z12 DD 00H
	DD	FLAT:??_R0?AVbad_array_new_length@std@@@8
	DD	00H
	DD	0ffffffffH
	ORG $+4
	DD	0cH
	DD	FLAT:??0bad_array_new_length@std@@QAE@ABV01@@Z
xdata$x	ENDS
;	COMDAT ??_R0?AVbad_array_new_length@std@@@8
data$r	SEGMENT
??_R0?AVbad_array_new_length@std@@@8 DD FLAT:??_7type_info@@6B@ ; std::bad_array_new_length `RTTI Type Descriptor'
	DD	00H
	DB	'.?AVbad_array_new_length@std@@', 00H
data$r	ENDS
;	COMDAT __CTA3?AVbad_array_new_length@std@@
xdata$x	SEGMENT
__CTA3?AVbad_array_new_length@std@@ DD 03H
	DD	FLAT:__CT??_R0?AVbad_array_new_length@std@@@8??0bad_array_new_length@std@@QAE@ABV01@@Z12
	DD	FLAT:__CT??_R0?AVbad_alloc@std@@@8??0bad_alloc@std@@QAE@ABV01@@Z12
	DD	FLAT:__CT??_R0?AVexception@std@@@8??0exception@std@@QAE@ABV01@@Z12
xdata$x	ENDS
;	COMDAT __TI3?AVbad_array_new_length@std@@
xdata$x	SEGMENT
__TI3?AVbad_array_new_length@std@@ DD 00H
	DD	FLAT:??1bad_array_new_length@std@@UAE@XZ
	DD	00H
	DD	FLAT:__CTA3?AVbad_array_new_length@std@@
xdata$x	ENDS
;	COMDAT __CT??_R0?AVexception@std@@@8??0exception@std@@QAE@ABV01@@Z12
xdata$x	SEGMENT
__CT??_R0?AVexception@std@@@8??0exception@std@@QAE@ABV01@@Z12 DD 00H
	DD	FLAT:??_R0?AVexception@std@@@8
	DD	00H
	DD	0ffffffffH
	ORG $+4
	DD	0cH
	DD	FLAT:??0exception@std@@QAE@ABV01@@Z
xdata$x	ENDS
;	COMDAT ??_R0?AVexception@std@@@8
data$r	SEGMENT
??_R0?AVexception@std@@@8 DD FLAT:??_7type_info@@6B@	; std::exception `RTTI Type Descriptor'
	DD	00H
	DB	'.?AVexception@std@@', 00H
data$r	ENDS
;	COMDAT ??_C@_0BF@KINCDENJ@bad?5array?5new?5length@
CONST	SEGMENT
??_C@_0BF@KINCDENJ@bad?5array?5new?5length@ DB 'bad array new length', 00H ; `string'
CONST	ENDS
;	COMDAT ??_7bad_array_new_length@std@@6B@
CONST	SEGMENT
??_7bad_array_new_length@std@@6B@ DD FLAT:??_R4bad_array_new_length@std@@6B@ ; std::bad_array_new_length::`vftable'
	DD	FLAT:??_Ebad_array_new_length@std@@UAEPAXI@Z
	DD	FLAT:?what@exception@std@@UBEPBDXZ
CONST	ENDS
;	COMDAT ??_7bad_alloc@std@@6B@
CONST	SEGMENT
??_7bad_alloc@std@@6B@ DD FLAT:??_R4bad_alloc@std@@6B@	; std::bad_alloc::`vftable'
	DD	FLAT:??_Ebad_alloc@std@@UAEPAXI@Z
	DD	FLAT:?what@exception@std@@UBEPBDXZ
CONST	ENDS
;	COMDAT ??_C@_0BC@EOODALEL@Unknown?5exception@
CONST	SEGMENT
??_C@_0BC@EOODALEL@Unknown?5exception@ DB 'Unknown exception', 00H ; `string'
CONST	ENDS
;	COMDAT ??_7exception@std@@6B@
CONST	SEGMENT
??_7exception@std@@6B@ DD FLAT:??_R4exception@std@@6B@	; std::exception::`vftable'
	DD	FLAT:??_Eexception@std@@UAEPAXI@Z
	DD	FLAT:?what@exception@std@@UBEPBDXZ
CONST	ENDS
;	COMDAT ??_C@_02DPKJAMEF@?$CFd@
CONST	SEGMENT
??_C@_02DPKJAMEF@?$CFd@ DB '%d', 00H			; `string'
CONST	ENDS
;	COMDAT xdata$x
xdata$x	SEGMENT
__unwindtable$??$?0U?$pair@V?$basic_string@DU?$char_traits@D@std@@V?$allocator@D@2@@std@@H@std@@@?$_Tree_temp_node@V?$allocator@U?$_Tree_node@U?$pair@$$CBV?$basic_string@DU?$char_traits@D@std@@V?$allocator@D@2@@std@@H@std@@PAX@std@@@std@@@std@@QAE@AAV?$allocator@U?$_Tree_node@U?$pair@$$CBV?$basic_string@DU?$char_traits@D@std@@V?$allocator@D@2@@std@@H@std@@PAX@std@@@1@PAU?$_Tree_node@U?$pair@$$CBV?$basic_string@DU?$char_traits@D@std@@V?$allocator@D@2@@std@@H@std@@PAX@1@$$QAU?$pair@V?$basic_string@DU?$char_traits@D@std@@V?$allocator@D@2@@std@@H@1@@Z DD 0ffffffffH
	DD	FLAT:__unwindfunclet$??$?0U?$pair@V?$basic_string@DU?$char_traits@D@std@@V?$allocator@D@2@@std@@H@std@@@?$_Tree_temp_node@V?$allocator@U?$_Tree_node@U?$pair@$$CBV?$basic_string@DU?$char_traits@D@std@@V?$allocator@D@2@@std@@H@std@@PAX@std@@@std@@@std@@QAE@AAV?$allocator@U?$_Tree_node@U?$pair@$$CBV?$basic_string@DU?$char_traits@D@std@@V?$allocator@D@2@@std@@H@std@@PAX@std@@@1@PAU?$_Tree_node@U?$pair@$$CBV?$basic_string@DU?$char_traits@D@std@@V?$allocator@D@2@@std@@H@std@@PAX@1@$$QAU?$pair@V?$basic_string@DU?$char_traits@D@std@@V?$allocator@D@2@@std@@H@1@@Z$1
__ehfuncinfo$??$?0U?$pair@V?$basic_string@DU?$char_traits@D@std@@V?$allocator@D@2@@std@@H@std@@@?$_Tree_temp_node@V?$allocator@U?$_Tree_node@U?$pair@$$CBV?$basic_string@DU?$char_traits@D@std@@V?$allocator@D@2@@std@@H@std@@PAX@std@@@std@@@std@@QAE@AAV?$allocator@U?$_Tree_node@U?$pair@$$CBV?$basic_string@DU?$char_traits@D@std@@V?$allocator@D@2@@std@@H@std@@PAX@std@@@1@PAU?$_Tree_node@U?$pair@$$CBV?$basic_string@DU?$char_traits@D@std@@V?$allocator@D@2@@std@@H@std@@PAX@1@$$QAU?$pair@V?$basic_string@DU?$char_traits@D@std@@V?$allocator@D@2@@std@@H@1@@Z DD 019930522H
	DD	01H
	DD	FLAT:__unwindtable$??$?0U?$pair@V?$basic_string@DU?$char_traits@D@std@@V?$allocator@D@2@@std@@H@std@@@?$_Tree_temp_node@V?$allocator@U?$_Tree_node@U?$pair@$$CBV?$basic_string@DU?$char_traits@D@std@@V?$allocator@D@2@@std@@H@std@@PAX@std@@@std@@@std@@QAE@AAV?$allocator@U?$_Tree_node@U?$pair@$$CBV?$basic_string@DU?$char_traits@D@std@@V?$allocator@D@2@@std@@H@std@@PAX@std@@@1@PAU?$_Tree_node@U?$pair@$$CBV?$basic_string@DU?$char_traits@D@std@@V?$allocator@D@2@@std@@H@std@@PAX@1@$$QAU?$pair@V?$basic_string@DU?$char_traits@D@std@@V?$allocator@D@2@@std@@H@1@@Z
	DD	2 DUP(00H)
	DD	2 DUP(00H)
	DD	00H
	DD	01H
xdata$x	ENDS
;	COMDAT xdata$x
xdata$x	SEGMENT
__unwindtable$??$?0U?$pair@PADH@std@@@?$_Tree_temp_node@V?$allocator@U?$_Tree_node@U?$pair@$$CBV?$basic_string@DU?$char_traits@D@std@@V?$allocator@D@2@@std@@H@std@@PAX@std@@@std@@@std@@QAE@AAV?$allocator@U?$_Tree_node@U?$pair@$$CBV?$basic_string@DU?$char_traits@D@std@@V?$allocator@D@2@@std@@H@std@@PAX@std@@@1@PAU?$_Tree_node@U?$pair@$$CBV?$basic_string@DU?$char_traits@D@std@@V?$allocator@D@2@@std@@H@std@@PAX@1@$$QAU?$pair@PADH@1@@Z DD 0ffffffffH
	DD	FLAT:__unwindfunclet$??$?0U?$pair@PADH@std@@@?$_Tree_temp_node@V?$allocator@U?$_Tree_node@U?$pair@$$CBV?$basic_string@DU?$char_traits@D@std@@V?$allocator@D@2@@std@@H@std@@PAX@std@@@std@@@std@@QAE@AAV?$allocator@U?$_Tree_node@U?$pair@$$CBV?$basic_string@DU?$char_traits@D@std@@V?$allocator@D@2@@std@@H@std@@PAX@std@@@1@PAU?$_Tree_node@U?$pair@$$CBV?$basic_string@DU?$char_traits@D@std@@V?$allocator@D@2@@std@@H@std@@PAX@1@$$QAU?$pair@PADH@1@@Z$1
	DD	0ffffffffH
	DD	FLAT:__unwindfunclet$??$?0U?$pair@PADH@std@@@?$_Tree_temp_node@V?$allocator@U?$_Tree_node@U?$pair@$$CBV?$basic_string@DU?$char_traits@D@std@@V?$allocator@D@2@@std@@H@std@@PAX@std@@@std@@@std@@QAE@AAV?$allocator@U?$_Tree_node@U?$pair@$$CBV?$basic_string@DU?$char_traits@D@std@@V?$allocator@D@2@@std@@H@std@@PAX@std@@@1@PAU?$_Tree_node@U?$pair@$$CBV?$basic_string@DU?$char_traits@D@std@@V?$allocator@D@2@@std@@H@std@@PAX@1@$$QAU?$pair@PADH@1@@Z$0
__ehfuncinfo$??$?0U?$pair@PADH@std@@@?$_Tree_temp_node@V?$allocator@U?$_Tree_node@U?$pair@$$CBV?$basic_string@DU?$char_traits@D@std@@V?$allocator@D@2@@std@@H@std@@PAX@std@@@std@@@std@@QAE@AAV?$allocator@U?$_Tree_node@U?$pair@$$CBV?$basic_string@DU?$char_traits@D@std@@V?$allocator@D@2@@std@@H@std@@PAX@std@@@1@PAU?$_Tree_node@U?$pair@$$CBV?$basic_string@DU?$char_traits@D@std@@V?$allocator@D@2@@std@@H@std@@PAX@1@$$QAU?$pair@PADH@1@@Z DD 019930522H
	DD	02H
	DD	FLAT:__unwindtable$??$?0U?$pair@PADH@std@@@?$_Tree_temp_node@V?$allocator@U?$_Tree_node@U?$pair@$$CBV?$basic_string@DU?$char_traits@D@std@@V?$allocator@D@2@@std@@H@std@@PAX@std@@@std@@@std@@QAE@AAV?$allocator@U?$_Tree_node@U?$pair@$$CBV?$basic_string@DU?$char_traits@D@std@@V?$allocator@D@2@@std@@H@std@@PAX@std@@@1@PAU?$_Tree_node@U?$pair@$$CBV?$basic_string@DU?$char_traits@D@std@@V?$allocator@D@2@@std@@H@std@@PAX@1@$$QAU?$pair@PADH@1@@Z
	DD	2 DUP(00H)
	DD	2 DUP(00H)
	DD	00H
	DD	01H
xdata$x	ENDS
;	COMDAT xdata$x
xdata$x	SEGMENT
__unwindtable$??0?$_Tree_temp_node_alloc@V?$allocator@U?$_Tree_node@U?$pair@$$CBV?$basic_string@DU?$char_traits@D@std@@V?$allocator@D@2@@std@@H@std@@PAX@std@@@std@@@std@@QAE@AAV?$allocator@U?$_Tree_node@U?$pair@$$CBV?$basic_string@DU?$char_traits@D@std@@V?$allocator@D@2@@std@@H@std@@PAX@std@@@1@@Z DD 0ffffffffH
	DD	FLAT:__unwindfunclet$??0?$_Tree_temp_node_alloc@V?$allocator@U?$_Tree_node@U?$pair@$$CBV?$basic_string@DU?$char_traits@D@std@@V?$allocator@D@2@@std@@H@std@@PAX@std@@@std@@@std@@QAE@AAV?$allocator@U?$_Tree_node@U?$pair@$$CBV?$basic_string@DU?$char_traits@D@std@@V?$allocator@D@2@@std@@H@std@@PAX@std@@@1@@Z$0
__ehfuncinfo$??0?$_Tree_temp_node_alloc@V?$allocator@U?$_Tree_node@U?$pair@$$CBV?$basic_string@DU?$char_traits@D@std@@V?$allocator@D@2@@std@@H@std@@PAX@std@@@std@@@std@@QAE@AAV?$allocator@U?$_Tree_node@U?$pair@$$CBV?$basic_string@DU?$char_traits@D@std@@V?$allocator@D@2@@std@@H@std@@PAX@std@@@1@@Z DD 019930522H
	DD	01H
	DD	FLAT:__unwindtable$??0?$_Tree_temp_node_alloc@V?$allocator@U?$_Tree_node@U?$pair@$$CBV?$basic_string@DU?$char_traits@D@std@@V?$allocator@D@2@@std@@H@std@@PAX@std@@@std@@@std@@QAE@AAV?$allocator@U?$_Tree_node@U?$pair@$$CBV?$basic_string@DU?$char_traits@D@std@@V?$allocator@D@2@@std@@H@std@@PAX@std@@@1@@Z
	DD	2 DUP(00H)
	DD	2 DUP(00H)
	DD	00H
	DD	01H
xdata$x	ENDS
;	COMDAT xdata$x
xdata$x	SEGMENT
__unwindtable$??$_Emplace@U?$pair@V?$basic_string@DU?$char_traits@D@std@@V?$allocator@D@2@@std@@H@std@@@?$_Tree@V?$_Tmap_traits@V?$basic_string@DU?$char_traits@D@std@@V?$allocator@D@2@@std@@HU?$less@V?$basic_string@DU?$char_traits@D@std@@V?$allocator@D@2@@std@@@2@V?$allocator@U?$pair@$$CBV?$basic_string@DU?$char_traits@D@std@@V?$allocator@D@2@@std@@H@std@@@2@$0A@@std@@@std@@IAE?AU?$pair@PAU?$_Tree_node@U?$pair@$$CBV?$basic_string@DU?$char_traits@D@std@@V?$allocator@D@2@@std@@H@std@@PAX@std@@_N@1@$$QAU?$pair@V?$basic_string@DU?$char_traits@D@std@@V?$allocator@D@2@@std@@H@1@@Z DD 0ffffffffH
	DD	FLAT:__unwindfunclet$??$_Emplace@U?$pair@V?$basic_string@DU?$char_traits@D@std@@V?$allocator@D@2@@std@@H@std@@@?$_Tree@V?$_Tmap_traits@V?$basic_string@DU?$char_traits@D@std@@V?$allocator@D@2@@std@@HU?$less@V?$basic_string@DU?$char_traits@D@std@@V?$allocator@D@2@@std@@@2@V?$allocator@U?$pair@$$CBV?$basic_string@DU?$char_traits@D@std@@V?$allocator@D@2@@std@@H@std@@@2@$0A@@std@@@std@@IAE?AU?$pair@PAU?$_Tree_node@U?$pair@$$CBV?$basic_string@DU?$char_traits@D@std@@V?$allocator@D@2@@std@@H@std@@PAX@std@@_N@1@$$QAU?$pair@V?$basic_string@DU?$char_traits@D@std@@V?$allocator@D@2@@std@@H@1@@Z$2
__ehfuncinfo$??$_Emplace@U?$pair@V?$basic_string@DU?$char_traits@D@std@@V?$allocator@D@2@@std@@H@std@@@?$_Tree@V?$_Tmap_traits@V?$basic_string@DU?$char_traits@D@std@@V?$allocator@D@2@@std@@HU?$less@V?$basic_string@DU?$char_traits@D@std@@V?$allocator@D@2@@std@@@2@V?$allocator@U?$pair@$$CBV?$basic_string@DU?$char_traits@D@std@@V?$allocator@D@2@@std@@H@std@@@2@$0A@@std@@@std@@IAE?AU?$pair@PAU?$_Tree_node@U?$pair@$$CBV?$basic_string@DU?$char_traits@D@std@@V?$allocator@D@2@@std@@H@std@@PAX@std@@_N@1@$$QAU?$pair@V?$basic_string@DU?$char_traits@D@std@@V?$allocator@D@2@@std@@H@1@@Z DD 019930522H
	DD	01H
	DD	FLAT:__unwindtable$??$_Emplace@U?$pair@V?$basic_string@DU?$char_traits@D@std@@V?$allocator@D@2@@std@@H@std@@@?$_Tree@V?$_Tmap_traits@V?$basic_string@DU?$char_traits@D@std@@V?$allocator@D@2@@std@@HU?$less@V?$basic_string@DU?$char_traits@D@std@@V?$allocator@D@2@@std@@@2@V?$allocator@U?$pair@$$CBV?$basic_string@DU?$char_traits@D@std@@V?$allocator@D@2@@std@@H@std@@@2@$0A@@std@@@std@@IAE?AU?$pair@PAU?$_Tree_node@U?$pair@$$CBV?$basic_string@DU?$char_traits@D@std@@V?$allocator@D@2@@std@@H@std@@PAX@std@@_N@1@$$QAU?$pair@V?$basic_string@DU?$char_traits@D@std@@V?$allocator@D@2@@std@@H@1@@Z
	DD	2 DUP(00H)
	DD	2 DUP(00H)
	DD	00H
	DD	01H
xdata$x	ENDS
;	COMDAT xdata$x
xdata$x	SEGMENT
__unwindtable$??$_Emplace@U?$pair@PADH@std@@@?$_Tree@V?$_Tmap_traits@V?$basic_string@DU?$char_traits@D@std@@V?$allocator@D@2@@std@@HU?$less@V?$basic_string@DU?$char_traits@D@std@@V?$allocator@D@2@@std@@@2@V?$allocator@U?$pair@$$CBV?$basic_string@DU?$char_traits@D@std@@V?$allocator@D@2@@std@@H@std@@@2@$0A@@std@@@std@@IAE?AU?$pair@PAU?$_Tree_node@U?$pair@$$CBV?$basic_string@DU?$char_traits@D@std@@V?$allocator@D@2@@std@@H@std@@PAX@std@@_N@1@$$QAU?$pair@PADH@1@@Z DD 0ffffffffH
	DD	FLAT:__unwindfunclet$??$_Emplace@U?$pair@PADH@std@@@?$_Tree@V?$_Tmap_traits@V?$basic_string@DU?$char_traits@D@std@@V?$allocator@D@2@@std@@HU?$less@V?$basic_string@DU?$char_traits@D@std@@V?$allocator@D@2@@std@@@2@V?$allocator@U?$pair@$$CBV?$basic_string@DU?$char_traits@D@std@@V?$allocator@D@2@@std@@H@std@@@2@$0A@@std@@@std@@IAE?AU?$pair@PAU?$_Tree_node@U?$pair@$$CBV?$basic_string@DU?$char_traits@D@std@@V?$allocator@D@2@@std@@H@std@@PAX@std@@_N@1@$$QAU?$pair@PADH@1@@Z$2
	DD	0ffffffffH
	DD	FLAT:__unwindfunclet$??$_Emplace@U?$pair@PADH@std@@@?$_Tree@V?$_Tmap_traits@V?$basic_string@DU?$char_traits@D@std@@V?$allocator@D@2@@std@@HU?$less@V?$basic_string@DU?$char_traits@D@std@@V?$allocator@D@2@@std@@@2@V?$allocator@U?$pair@$$CBV?$basic_string@DU?$char_traits@D@std@@V?$allocator@D@2@@std@@H@std@@@2@$0A@@std@@@std@@IAE?AU?$pair@PAU?$_Tree_node@U?$pair@$$CBV?$basic_string@DU?$char_traits@D@std@@V?$allocator@D@2@@std@@H@std@@PAX@std@@_N@1@$$QAU?$pair@PADH@1@@Z$1
	DD	0ffffffffH
	DD	FLAT:__unwindfunclet$??$_Emplace@U?$pair@PADH@std@@@?$_Tree@V?$_Tmap_traits@V?$basic_string@DU?$char_traits@D@std@@V?$allocator@D@2@@std@@HU?$less@V?$basic_string@DU?$char_traits@D@std@@V?$allocator@D@2@@std@@@2@V?$allocator@U?$pair@$$CBV?$basic_string@DU?$char_traits@D@std@@V?$allocator@D@2@@std@@H@std@@@2@$0A@@std@@@std@@IAE?AU?$pair@PAU?$_Tree_node@U?$pair@$$CBV?$basic_string@DU?$char_traits@D@std@@V?$allocator@D@2@@std@@H@std@@PAX@std@@_N@1@$$QAU?$pair@PADH@1@@Z$0
__ehfuncinfo$??$_Emplace@U?$pair@PADH@std@@@?$_Tree@V?$_Tmap_traits@V?$basic_string@DU?$char_traits@D@std@@V?$allocator@D@2@@std@@HU?$less@V?$basic_string@DU?$char_traits@D@std@@V?$allocator@D@2@@std@@@2@V?$allocator@U?$pair@$$CBV?$basic_string@DU?$char_traits@D@std@@V?$allocator@D@2@@std@@H@std@@@2@$0A@@std@@@std@@IAE?AU?$pair@PAU?$_Tree_node@U?$pair@$$CBV?$basic_string@DU?$char_traits@D@std@@V?$allocator@D@2@@std@@H@std@@PAX@std@@_N@1@$$QAU?$pair@PADH@1@@Z DD 019930522H
	DD	03H
	DD	FLAT:__unwindtable$??$_Emplace@U?$pair@PADH@std@@@?$_Tree@V?$_Tmap_traits@V?$basic_string@DU?$char_traits@D@std@@V?$allocator@D@2@@std@@HU?$less@V?$basic_string@DU?$char_traits@D@std@@V?$allocator@D@2@@std@@@2@V?$allocator@U?$pair@$$CBV?$basic_string@DU?$char_traits@D@std@@V?$allocator@D@2@@std@@H@std@@@2@$0A@@std@@@std@@IAE?AU?$pair@PAU?$_Tree_node@U?$pair@$$CBV?$basic_string@DU?$char_traits@D@std@@V?$allocator@D@2@@std@@H@std@@PAX@std@@_N@1@$$QAU?$pair@PADH@1@@Z
	DD	2 DUP(00H)
	DD	2 DUP(00H)
	DD	00H
	DD	01H
xdata$x	ENDS
;	COMDAT xdata$x
xdata$x	SEGMENT
__unwindtable$??$?0U?$pair@$$CBV?$basic_string@DU?$char_traits@D@std@@V?$allocator@D@2@@std@@V12@@std@@@?$_Tree_temp_node@V?$allocator@U?$_Tree_node@U?$pair@$$CBV?$basic_string@DU?$char_traits@D@std@@V?$allocator@D@2@@std@@V12@@std@@PAX@std@@@std@@@std@@QAE@AAV?$allocator@U?$_Tree_node@U?$pair@$$CBV?$basic_string@DU?$char_traits@D@std@@V?$allocator@D@2@@std@@V12@@std@@PAX@std@@@1@PAU?$_Tree_node@U?$pair@$$CBV?$basic_string@DU?$char_traits@D@std@@V?$allocator@D@2@@std@@V12@@std@@PAX@1@$$QAU?$pair@$$CBV?$basic_string@DU?$char_traits@D@std@@V?$allocator@D@2@@std@@V12@@1@@Z DD 0ffffffffH
	DD	FLAT:__unwindfunclet$??$?0U?$pair@$$CBV?$basic_string@DU?$char_traits@D@std@@V?$allocator@D@2@@std@@V12@@std@@@?$_Tree_temp_node@V?$allocator@U?$_Tree_node@U?$pair@$$CBV?$basic_string@DU?$char_traits@D@std@@V?$allocator@D@2@@std@@V12@@std@@PAX@std@@@std@@@std@@QAE@AAV?$allocator@U?$_Tree_node@U?$pair@$$CBV?$basic_string@DU?$char_traits@D@std@@V?$allocator@D@2@@std@@V12@@std@@PAX@std@@@1@PAU?$_Tree_node@U?$pair@$$CBV?$basic_string@DU?$char_traits@D@std@@V?$allocator@D@2@@std@@V12@@std@@PAX@1@$$QAU?$pair@$$CBV?$basic_string@DU?$char_traits@D@std@@V?$allocator@D@2@@std@@V12@@1@@Z$1
	DD	0ffffffffH
	DD	FLAT:__unwindfunclet$??$?0U?$pair@$$CBV?$basic_string@DU?$char_traits@D@std@@V?$allocator@D@2@@std@@V12@@std@@@?$_Tree_temp_node@V?$allocator@U?$_Tree_node@U?$pair@$$CBV?$basic_string@DU?$char_traits@D@std@@V?$allocator@D@2@@std@@V12@@std@@PAX@std@@@std@@@std@@QAE@AAV?$allocator@U?$_Tree_node@U?$pair@$$CBV?$basic_string@DU?$char_traits@D@std@@V?$allocator@D@2@@std@@V12@@std@@PAX@std@@@1@PAU?$_Tree_node@U?$pair@$$CBV?$basic_string@DU?$char_traits@D@std@@V?$allocator@D@2@@std@@V12@@std@@PAX@1@$$QAU?$pair@$$CBV?$basic_string@DU?$char_traits@D@std@@V?$allocator@D@2@@std@@V12@@1@@Z$0
__ehfuncinfo$??$?0U?$pair@$$CBV?$basic_string@DU?$char_traits@D@std@@V?$allocator@D@2@@std@@V12@@std@@@?$_Tree_temp_node@V?$allocator@U?$_Tree_node@U?$pair@$$CBV?$basic_string@DU?$char_traits@D@std@@V?$allocator@D@2@@std@@V12@@std@@PAX@std@@@std@@@std@@QAE@AAV?$allocator@U?$_Tree_node@U?$pair@$$CBV?$basic_string@DU?$char_traits@D@std@@V?$allocator@D@2@@std@@V12@@std@@PAX@std@@@1@PAU?$_Tree_node@U?$pair@$$CBV?$basic_string@DU?$char_traits@D@std@@V?$allocator@D@2@@std@@V12@@std@@PAX@1@$$QAU?$pair@$$CBV?$basic_string@DU?$char_traits@D@std@@V?$allocator@D@2@@std@@V12@@1@@Z DD 019930522H
	DD	02H
	DD	FLAT:__unwindtable$??$?0U?$pair@$$CBV?$basic_string@DU?$char_traits@D@std@@V?$allocator@D@2@@std@@V12@@std@@@?$_Tree_temp_node@V?$allocator@U?$_Tree_node@U?$pair@$$CBV?$basic_string@DU?$char_traits@D@std@@V?$allocator@D@2@@std@@V12@@std@@PAX@std@@@std@@@std@@QAE@AAV?$allocator@U?$_Tree_node@U?$pair@$$CBV?$basic_string@DU?$char_traits@D@std@@V?$allocator@D@2@@std@@V12@@std@@PAX@std@@@1@PAU?$_Tree_node@U?$pair@$$CBV?$basic_string@DU?$char_traits@D@std@@V?$allocator@D@2@@std@@V12@@std@@PAX@1@$$QAU?$pair@$$CBV?$basic_string@DU?$char_traits@D@std@@V?$allocator@D@2@@std@@V12@@1@@Z
	DD	2 DUP(00H)
	DD	2 DUP(00H)
	DD	00H
	DD	01H
xdata$x	ENDS
;	COMDAT xdata$x
xdata$x	SEGMENT
__unwindtable$??0?$_Tree_temp_node_alloc@V?$allocator@U?$_Tree_node@U?$pair@$$CBV?$basic_string@DU?$char_traits@D@std@@V?$allocator@D@2@@std@@V12@@std@@PAX@std@@@std@@@std@@QAE@AAV?$allocator@U?$_Tree_node@U?$pair@$$CBV?$basic_string@DU?$char_traits@D@std@@V?$allocator@D@2@@std@@V12@@std@@PAX@std@@@1@@Z DD 0ffffffffH
	DD	FLAT:__unwindfunclet$??0?$_Tree_temp_node_alloc@V?$allocator@U?$_Tree_node@U?$pair@$$CBV?$basic_string@DU?$char_traits@D@std@@V?$allocator@D@2@@std@@V12@@std@@PAX@std@@@std@@@std@@QAE@AAV?$allocator@U?$_Tree_node@U?$pair@$$CBV?$basic_string@DU?$char_traits@D@std@@V?$allocator@D@2@@std@@V12@@std@@PAX@std@@@1@@Z$0
__ehfuncinfo$??0?$_Tree_temp_node_alloc@V?$allocator@U?$_Tree_node@U?$pair@$$CBV?$basic_string@DU?$char_traits@D@std@@V?$allocator@D@2@@std@@V12@@std@@PAX@std@@@std@@@std@@QAE@AAV?$allocator@U?$_Tree_node@U?$pair@$$CBV?$basic_string@DU?$char_traits@D@std@@V?$allocator@D@2@@std@@V12@@std@@PAX@std@@@1@@Z DD 019930522H
	DD	01H
	DD	FLAT:__unwindtable$??0?$_Tree_temp_node_alloc@V?$allocator@U?$_Tree_node@U?$pair@$$CBV?$basic_string@DU?$char_traits@D@std@@V?$allocator@D@2@@std@@V12@@std@@PAX@std@@@std@@@std@@QAE@AAV?$allocator@U?$_Tree_node@U?$pair@$$CBV?$basic_string@DU?$char_traits@D@std@@V?$allocator@D@2@@std@@V12@@std@@PAX@std@@@1@@Z
	DD	2 DUP(00H)
	DD	2 DUP(00H)
	DD	00H
	DD	01H
xdata$x	ENDS
;	COMDAT xdata$x
xdata$x	SEGMENT
__unwindtable$??$emplace@U?$pair@V?$basic_string@DU?$char_traits@D@std@@V?$allocator@D@2@@std@@H@std@@@?$_Tree@V?$_Tmap_traits@V?$basic_string@DU?$char_traits@D@std@@V?$allocator@D@2@@std@@HU?$less@V?$basic_string@DU?$char_traits@D@std@@V?$allocator@D@2@@std@@@2@V?$allocator@U?$pair@$$CBV?$basic_string@DU?$char_traits@D@std@@V?$allocator@D@2@@std@@H@std@@@2@$0A@@std@@@std@@QAE?AU?$pair@V?$_Tree_iterator@V?$_Tree_val@U?$_Tree_simple_types@U?$pair@$$CBV?$basic_string@DU?$char_traits@D@std@@V?$allocator@D@2@@std@@H@std@@@std@@@std@@@std@@_N@1@$$QAU?$pair@V?$basic_string@DU?$char_traits@D@std@@V?$allocator@D@2@@std@@H@1@@Z DD 0ffffffffH
	DD	FLAT:__unwindfunclet$??$emplace@U?$pair@V?$basic_string@DU?$char_traits@D@std@@V?$allocator@D@2@@std@@H@std@@@?$_Tree@V?$_Tmap_traits@V?$basic_string@DU?$char_traits@D@std@@V?$allocator@D@2@@std@@HU?$less@V?$basic_string@DU?$char_traits@D@std@@V?$allocator@D@2@@std@@@2@V?$allocator@U?$pair@$$CBV?$basic_string@DU?$char_traits@D@std@@V?$allocator@D@2@@std@@H@std@@@2@$0A@@std@@@std@@QAE?AU?$pair@V?$_Tree_iterator@V?$_Tree_val@U?$_Tree_simple_types@U?$pair@$$CBV?$basic_string@DU?$char_traits@D@std@@V?$allocator@D@2@@std@@H@std@@@std@@@std@@@std@@_N@1@$$QAU?$pair@V?$basic_string@DU?$char_traits@D@std@@V?$allocator@D@2@@std@@H@1@@Z$2
__ehfuncinfo$??$emplace@U?$pair@V?$basic_string@DU?$char_traits@D@std@@V?$allocator@D@2@@std@@H@std@@@?$_Tree@V?$_Tmap_traits@V?$basic_string@DU?$char_traits@D@std@@V?$allocator@D@2@@std@@HU?$less@V?$basic_string@DU?$char_traits@D@std@@V?$allocator@D@2@@std@@@2@V?$allocator@U?$pair@$$CBV?$basic_string@DU?$char_traits@D@std@@V?$allocator@D@2@@std@@H@std@@@2@$0A@@std@@@std@@QAE?AU?$pair@V?$_Tree_iterator@V?$_Tree_val@U?$_Tree_simple_types@U?$pair@$$CBV?$basic_string@DU?$char_traits@D@std@@V?$allocator@D@2@@std@@H@std@@@std@@@std@@@std@@_N@1@$$QAU?$pair@V?$basic_string@DU?$char_traits@D@std@@V?$allocator@D@2@@std@@H@1@@Z DD 019930522H
	DD	01H
	DD	FLAT:__unwindtable$??$emplace@U?$pair@V?$basic_string@DU?$char_traits@D@std@@V?$allocator@D@2@@std@@H@std@@@?$_Tree@V?$_Tmap_traits@V?$basic_string@DU?$char_traits@D@std@@V?$allocator@D@2@@std@@HU?$less@V?$basic_string@DU?$char_traits@D@std@@V?$allocator@D@2@@std@@@2@V?$allocator@U?$pair@$$CBV?$basic_string@DU?$char_traits@D@std@@V?$allocator@D@2@@std@@H@std@@@2@$0A@@std@@@std@@QAE?AU?$pair@V?$_Tree_iterator@V?$_Tree_val@U?$_Tree_simple_types@U?$pair@$$CBV?$basic_string@DU?$char_traits@D@std@@V?$allocator@D@2@@std@@H@std@@@std@@@std@@@std@@_N@1@$$QAU?$pair@V?$basic_string@DU?$char_traits@D@std@@V?$allocator@D@2@@std@@H@1@@Z
	DD	2 DUP(00H)
	DD	2 DUP(00H)
	DD	00H
	DD	01H
xdata$x	ENDS
;	COMDAT xdata$x
xdata$x	SEGMENT
__unwindtable$??$emplace@U?$pair@PADH@std@@@?$_Tree@V?$_Tmap_traits@V?$basic_string@DU?$char_traits@D@std@@V?$allocator@D@2@@std@@HU?$less@V?$basic_string@DU?$char_traits@D@std@@V?$allocator@D@2@@std@@@2@V?$allocator@U?$pair@$$CBV?$basic_string@DU?$char_traits@D@std@@V?$allocator@D@2@@std@@H@std@@@2@$0A@@std@@@std@@QAE?AU?$pair@V?$_Tree_iterator@V?$_Tree_val@U?$_Tree_simple_types@U?$pair@$$CBV?$basic_string@DU?$char_traits@D@std@@V?$allocator@D@2@@std@@H@std@@@std@@@std@@@std@@_N@1@$$QAU?$pair@PADH@1@@Z DD 0ffffffffH
	DD	FLAT:__unwindfunclet$??$emplace@U?$pair@PADH@std@@@?$_Tree@V?$_Tmap_traits@V?$basic_string@DU?$char_traits@D@std@@V?$allocator@D@2@@std@@HU?$less@V?$basic_string@DU?$char_traits@D@std@@V?$allocator@D@2@@std@@@2@V?$allocator@U?$pair@$$CBV?$basic_string@DU?$char_traits@D@std@@V?$allocator@D@2@@std@@H@std@@@2@$0A@@std@@@std@@QAE?AU?$pair@V?$_Tree_iterator@V?$_Tree_val@U?$_Tree_simple_types@U?$pair@$$CBV?$basic_string@DU?$char_traits@D@std@@V?$allocator@D@2@@std@@H@std@@@std@@@std@@@std@@_N@1@$$QAU?$pair@PADH@1@@Z$2
	DD	0ffffffffH
	DD	FLAT:__unwindfunclet$??$emplace@U?$pair@PADH@std@@@?$_Tree@V?$_Tmap_traits@V?$basic_string@DU?$char_traits@D@std@@V?$allocator@D@2@@std@@HU?$less@V?$basic_string@DU?$char_traits@D@std@@V?$allocator@D@2@@std@@@2@V?$allocator@U?$pair@$$CBV?$basic_string@DU?$char_traits@D@std@@V?$allocator@D@2@@std@@H@std@@@2@$0A@@std@@@std@@QAE?AU?$pair@V?$_Tree_iterator@V?$_Tree_val@U?$_Tree_simple_types@U?$pair@$$CBV?$basic_string@DU?$char_traits@D@std@@V?$allocator@D@2@@std@@H@std@@@std@@@std@@@std@@_N@1@$$QAU?$pair@PADH@1@@Z$1
	DD	0ffffffffH
	DD	FLAT:__unwindfunclet$??$emplace@U?$pair@PADH@std@@@?$_Tree@V?$_Tmap_traits@V?$basic_string@DU?$char_traits@D@std@@V?$allocator@D@2@@std@@HU?$less@V?$basic_string@DU?$char_traits@D@std@@V?$allocator@D@2@@std@@@2@V?$allocator@U?$pair@$$CBV?$basic_string@DU?$char_traits@D@std@@V?$allocator@D@2@@std@@H@std@@@2@$0A@@std@@@std@@QAE?AU?$pair@V?$_Tree_iterator@V?$_Tree_val@U?$_Tree_simple_types@U?$pair@$$CBV?$basic_string@DU?$char_traits@D@std@@V?$allocator@D@2@@std@@H@std@@@std@@@std@@@std@@_N@1@$$QAU?$pair@PADH@1@@Z$0
__ehfuncinfo$??$emplace@U?$pair@PADH@std@@@?$_Tree@V?$_Tmap_traits@V?$basic_string@DU?$char_traits@D@std@@V?$allocator@D@2@@std@@HU?$less@V?$basic_string@DU?$char_traits@D@std@@V?$allocator@D@2@@std@@@2@V?$allocator@U?$pair@$$CBV?$basic_string@DU?$char_traits@D@std@@V?$allocator@D@2@@std@@H@std@@@2@$0A@@std@@@std@@QAE?AU?$pair@V?$_Tree_iterator@V?$_Tree_val@U?$_Tree_simple_types@U?$pair@$$CBV?$basic_string@DU?$char_traits@D@std@@V?$allocator@D@2@@std@@H@std@@@std@@@std@@@std@@_N@1@$$QAU?$pair@PADH@1@@Z DD 019930522H
	DD	03H
	DD	FLAT:__unwindtable$??$emplace@U?$pair@PADH@std@@@?$_Tree@V?$_Tmap_traits@V?$basic_string@DU?$char_traits@D@std@@V?$allocator@D@2@@std@@HU?$less@V?$basic_string@DU?$char_traits@D@std@@V?$allocator@D@2@@std@@@2@V?$allocator@U?$pair@$$CBV?$basic_string@DU?$char_traits@D@std@@V?$allocator@D@2@@std@@H@std@@@2@$0A@@std@@@std@@QAE?AU?$pair@V?$_Tree_iterator@V?$_Tree_val@U?$_Tree_simple_types@U?$pair@$$CBV?$basic_string@DU?$char_traits@D@std@@V?$allocator@D@2@@std@@H@std@@@std@@@std@@@std@@_N@1@$$QAU?$pair@PADH@1@@Z
	DD	2 DUP(00H)
	DD	2 DUP(00H)
	DD	00H
	DD	01H
xdata$x	ENDS
;	COMDAT xdata$x
xdata$x	SEGMENT
__unwindtable$??$_Emplace@U?$pair@$$CBV?$basic_string@DU?$char_traits@D@std@@V?$allocator@D@2@@std@@V12@@std@@@?$_Tree@V?$_Tmap_traits@V?$basic_string@DU?$char_traits@D@std@@V?$allocator@D@2@@std@@V12@U?$less@V?$basic_string@DU?$char_traits@D@std@@V?$allocator@D@2@@std@@@2@V?$allocator@U?$pair@$$CBV?$basic_string@DU?$char_traits@D@std@@V?$allocator@D@2@@std@@V12@@std@@@2@$0A@@std@@@std@@IAE?AU?$pair@PAU?$_Tree_node@U?$pair@$$CBV?$basic_string@DU?$char_traits@D@std@@V?$allocator@D@2@@std@@V12@@std@@PAX@std@@_N@1@$$QAU?$pair@$$CBV?$basic_string@DU?$char_traits@D@std@@V?$allocator@D@2@@std@@V12@@1@@Z DD 0ffffffffH
	DD	FLAT:__unwindfunclet$??$_Emplace@U?$pair@$$CBV?$basic_string@DU?$char_traits@D@std@@V?$allocator@D@2@@std@@V12@@std@@@?$_Tree@V?$_Tmap_traits@V?$basic_string@DU?$char_traits@D@std@@V?$allocator@D@2@@std@@V12@U?$less@V?$basic_string@DU?$char_traits@D@std@@V?$allocator@D@2@@std@@@2@V?$allocator@U?$pair@$$CBV?$basic_string@DU?$char_traits@D@std@@V?$allocator@D@2@@std@@V12@@std@@@2@$0A@@std@@@std@@IAE?AU?$pair@PAU?$_Tree_node@U?$pair@$$CBV?$basic_string@DU?$char_traits@D@std@@V?$allocator@D@2@@std@@V12@@std@@PAX@std@@_N@1@$$QAU?$pair@$$CBV?$basic_string@DU?$char_traits@D@std@@V?$allocator@D@2@@std@@V12@@1@@Z$2
	DD	0ffffffffH
	DD	FLAT:__unwindfunclet$??$_Emplace@U?$pair@$$CBV?$basic_string@DU?$char_traits@D@std@@V?$allocator@D@2@@std@@V12@@std@@@?$_Tree@V?$_Tmap_traits@V?$basic_string@DU?$char_traits@D@std@@V?$allocator@D@2@@std@@V12@U?$less@V?$basic_string@DU?$char_traits@D@std@@V?$allocator@D@2@@std@@@2@V?$allocator@U?$pair@$$CBV?$basic_string@DU?$char_traits@D@std@@V?$allocator@D@2@@std@@V12@@std@@@2@$0A@@std@@@std@@IAE?AU?$pair@PAU?$_Tree_node@U?$pair@$$CBV?$basic_string@DU?$char_traits@D@std@@V?$allocator@D@2@@std@@V12@@std@@PAX@std@@_N@1@$$QAU?$pair@$$CBV?$basic_string@DU?$char_traits@D@std@@V?$allocator@D@2@@std@@V12@@1@@Z$1
__ehfuncinfo$??$_Emplace@U?$pair@$$CBV?$basic_string@DU?$char_traits@D@std@@V?$allocator@D@2@@std@@V12@@std@@@?$_Tree@V?$_Tmap_traits@V?$basic_string@DU?$char_traits@D@std@@V?$allocator@D@2@@std@@V12@U?$less@V?$basic_string@DU?$char_traits@D@std@@V?$allocator@D@2@@std@@@2@V?$allocator@U?$pair@$$CBV?$basic_string@DU?$char_traits@D@std@@V?$allocator@D@2@@std@@V12@@std@@@2@$0A@@std@@@std@@IAE?AU?$pair@PAU?$_Tree_node@U?$pair@$$CBV?$basic_string@DU?$char_traits@D@std@@V?$allocator@D@2@@std@@V12@@std@@PAX@std@@_N@1@$$QAU?$pair@$$CBV?$basic_string@DU?$char_traits@D@std@@V?$allocator@D@2@@std@@V12@@1@@Z DD 019930522H
	DD	02H
	DD	FLAT:__unwindtable$??$_Emplace@U?$pair@$$CBV?$basic_string@DU?$char_traits@D@std@@V?$allocator@D@2@@std@@V12@@std@@@?$_Tree@V?$_Tmap_traits@V?$basic_string@DU?$char_traits@D@std@@V?$allocator@D@2@@std@@V12@U?$less@V?$basic_string@DU?$char_traits@D@std@@V?$allocator@D@2@@std@@@2@V?$allocator@U?$pair@$$CBV?$basic_string@DU?$char_traits@D@std@@V?$allocator@D@2@@std@@V12@@std@@@2@$0A@@std@@@std@@IAE?AU?$pair@PAU?$_Tree_node@U?$pair@$$CBV?$basic_string@DU?$char_traits@D@std@@V?$allocator@D@2@@std@@V12@@std@@PAX@std@@_N@1@$$QAU?$pair@$$CBV?$basic_string@DU?$char_traits@D@std@@V?$allocator@D@2@@std@@V12@@1@@Z
	DD	2 DUP(00H)
	DD	2 DUP(00H)
	DD	00H
	DD	01H
xdata$x	ENDS
;	COMDAT xdata$x
xdata$x	SEGMENT
__unwindtable$??$insert@U?$pair@V?$basic_string@DU?$char_traits@D@std@@V?$allocator@D@2@@std@@H@std@@$0A@@?$map@V?$basic_string@DU?$char_traits@D@std@@V?$allocator@D@2@@std@@HU?$less@V?$basic_string@DU?$char_traits@D@std@@V?$allocator@D@2@@std@@@2@V?$allocator@U?$pair@$$CBV?$basic_string@DU?$char_traits@D@std@@V?$allocator@D@2@@std@@H@std@@@2@@std@@QAE?AU?$pair@V?$_Tree_iterator@V?$_Tree_val@U?$_Tree_simple_types@U?$pair@$$CBV?$basic_string@DU?$char_traits@D@std@@V?$allocator@D@2@@std@@H@std@@@std@@@std@@@std@@_N@1@$$QAU?$pair@V?$basic_string@DU?$char_traits@D@std@@V?$allocator@D@2@@std@@H@1@@Z DD 0ffffffffH
	DD	FLAT:__unwindfunclet$??$insert@U?$pair@V?$basic_string@DU?$char_traits@D@std@@V?$allocator@D@2@@std@@H@std@@$0A@@?$map@V?$basic_string@DU?$char_traits@D@std@@V?$allocator@D@2@@std@@HU?$less@V?$basic_string@DU?$char_traits@D@std@@V?$allocator@D@2@@std@@@2@V?$allocator@U?$pair@$$CBV?$basic_string@DU?$char_traits@D@std@@V?$allocator@D@2@@std@@H@std@@@2@@std@@QAE?AU?$pair@V?$_Tree_iterator@V?$_Tree_val@U?$_Tree_simple_types@U?$pair@$$CBV?$basic_string@DU?$char_traits@D@std@@V?$allocator@D@2@@std@@H@std@@@std@@@std@@@std@@_N@1@$$QAU?$pair@V?$basic_string@DU?$char_traits@D@std@@V?$allocator@D@2@@std@@H@1@@Z$2
__ehfuncinfo$??$insert@U?$pair@V?$basic_string@DU?$char_traits@D@std@@V?$allocator@D@2@@std@@H@std@@$0A@@?$map@V?$basic_string@DU?$char_traits@D@std@@V?$allocator@D@2@@std@@HU?$less@V?$basic_string@DU?$char_traits@D@std@@V?$allocator@D@2@@std@@@2@V?$allocator@U?$pair@$$CBV?$basic_string@DU?$char_traits@D@std@@V?$allocator@D@2@@std@@H@std@@@2@@std@@QAE?AU?$pair@V?$_Tree_iterator@V?$_Tree_val@U?$_Tree_simple_types@U?$pair@$$CBV?$basic_string@DU?$char_traits@D@std@@V?$allocator@D@2@@std@@H@std@@@std@@@std@@@std@@_N@1@$$QAU?$pair@V?$basic_string@DU?$char_traits@D@std@@V?$allocator@D@2@@std@@H@1@@Z DD 019930522H
	DD	01H
	DD	FLAT:__unwindtable$??$insert@U?$pair@V?$basic_string@DU?$char_traits@D@std@@V?$allocator@D@2@@std@@H@std@@$0A@@?$map@V?$basic_string@DU?$char_traits@D@std@@V?$allocator@D@2@@std@@HU?$less@V?$basic_string@DU?$char_traits@D@std@@V?$allocator@D@2@@std@@@2@V?$allocator@U?$pair@$$CBV?$basic_string@DU?$char_traits@D@std@@V?$allocator@D@2@@std@@H@std@@@2@@std@@QAE?AU?$pair@V?$_Tree_iterator@V?$_Tree_val@U?$_Tree_simple_types@U?$pair@$$CBV?$basic_string@DU?$char_traits@D@std@@V?$allocator@D@2@@std@@H@std@@@std@@@std@@@std@@_N@1@$$QAU?$pair@V?$basic_string@DU?$char_traits@D@std@@V?$allocator@D@2@@std@@H@1@@Z
	DD	2 DUP(00H)
	DD	2 DUP(00H)
	DD	00H
	DD	01H
xdata$x	ENDS
;	COMDAT xdata$x
xdata$x	SEGMENT
__unwindtable$??$insert@U?$pair@PADH@std@@$0A@@?$map@V?$basic_string@DU?$char_traits@D@std@@V?$allocator@D@2@@std@@HU?$less@V?$basic_string@DU?$char_traits@D@std@@V?$allocator@D@2@@std@@@2@V?$allocator@U?$pair@$$CBV?$basic_string@DU?$char_traits@D@std@@V?$allocator@D@2@@std@@H@std@@@2@@std@@QAE?AU?$pair@V?$_Tree_iterator@V?$_Tree_val@U?$_Tree_simple_types@U?$pair@$$CBV?$basic_string@DU?$char_traits@D@std@@V?$allocator@D@2@@std@@H@std@@@std@@@std@@@std@@_N@1@$$QAU?$pair@PADH@1@@Z DD 0ffffffffH
	DD	FLAT:__unwindfunclet$??$insert@U?$pair@PADH@std@@$0A@@?$map@V?$basic_string@DU?$char_traits@D@std@@V?$allocator@D@2@@std@@HU?$less@V?$basic_string@DU?$char_traits@D@std@@V?$allocator@D@2@@std@@@2@V?$allocator@U?$pair@$$CBV?$basic_string@DU?$char_traits@D@std@@V?$allocator@D@2@@std@@H@std@@@2@@std@@QAE?AU?$pair@V?$_Tree_iterator@V?$_Tree_val@U?$_Tree_simple_types@U?$pair@$$CBV?$basic_string@DU?$char_traits@D@std@@V?$allocator@D@2@@std@@H@std@@@std@@@std@@@std@@_N@1@$$QAU?$pair@PADH@1@@Z$2
	DD	0ffffffffH
	DD	FLAT:__unwindfunclet$??$insert@U?$pair@PADH@std@@$0A@@?$map@V?$basic_string@DU?$char_traits@D@std@@V?$allocator@D@2@@std@@HU?$less@V?$basic_string@DU?$char_traits@D@std@@V?$allocator@D@2@@std@@@2@V?$allocator@U?$pair@$$CBV?$basic_string@DU?$char_traits@D@std@@V?$allocator@D@2@@std@@H@std@@@2@@std@@QAE?AU?$pair@V?$_Tree_iterator@V?$_Tree_val@U?$_Tree_simple_types@U?$pair@$$CBV?$basic_string@DU?$char_traits@D@std@@V?$allocator@D@2@@std@@H@std@@@std@@@std@@@std@@_N@1@$$QAU?$pair@PADH@1@@Z$1
	DD	0ffffffffH
	DD	FLAT:__unwindfunclet$??$insert@U?$pair@PADH@std@@$0A@@?$map@V?$basic_string@DU?$char_traits@D@std@@V?$allocator@D@2@@std@@HU?$less@V?$basic_string@DU?$char_traits@D@std@@V?$allocator@D@2@@std@@@2@V?$allocator@U?$pair@$$CBV?$basic_string@DU?$char_traits@D@std@@V?$allocator@D@2@@std@@H@std@@@2@@std@@QAE?AU?$pair@V?$_Tree_iterator@V?$_Tree_val@U?$_Tree_simple_types@U?$pair@$$CBV?$basic_string@DU?$char_traits@D@std@@V?$allocator@D@2@@std@@H@std@@@std@@@std@@@std@@_N@1@$$QAU?$pair@PADH@1@@Z$0
__ehfuncinfo$??$insert@U?$pair@PADH@std@@$0A@@?$map@V?$basic_string@DU?$char_traits@D@std@@V?$allocator@D@2@@std@@HU?$less@V?$basic_string@DU?$char_traits@D@std@@V?$allocator@D@2@@std@@@2@V?$allocator@U?$pair@$$CBV?$basic_string@DU?$char_traits@D@std@@V?$allocator@D@2@@std@@H@std@@@2@@std@@QAE?AU?$pair@V?$_Tree_iterator@V?$_Tree_val@U?$_Tree_simple_types@U?$pair@$$CBV?$basic_string@DU?$char_traits@D@std@@V?$allocator@D@2@@std@@H@std@@@std@@@std@@@std@@_N@1@$$QAU?$pair@PADH@1@@Z DD 019930522H
	DD	03H
	DD	FLAT:__unwindtable$??$insert@U?$pair@PADH@std@@$0A@@?$map@V?$basic_string@DU?$char_traits@D@std@@V?$allocator@D@2@@std@@HU?$less@V?$basic_string@DU?$char_traits@D@std@@V?$allocator@D@2@@std@@@2@V?$allocator@U?$pair@$$CBV?$basic_string@DU?$char_traits@D@std@@V?$allocator@D@2@@std@@H@std@@@2@@std@@QAE?AU?$pair@V?$_Tree_iterator@V?$_Tree_val@U?$_Tree_simple_types@U?$pair@$$CBV?$basic_string@DU?$char_traits@D@std@@V?$allocator@D@2@@std@@H@std@@@std@@@std@@@std@@_N@1@$$QAU?$pair@PADH@1@@Z
	DD	2 DUP(00H)
	DD	2 DUP(00H)
	DD	00H
	DD	01H
xdata$x	ENDS
;	COMDAT xdata$x
xdata$x	SEGMENT
__unwindtable$??$insert@$0A@$0A@@?$_Tree@V?$_Tmap_traits@V?$basic_string@DU?$char_traits@D@std@@V?$allocator@D@2@@std@@V12@U?$less@V?$basic_string@DU?$char_traits@D@std@@V?$allocator@D@2@@std@@@2@V?$allocator@U?$pair@$$CBV?$basic_string@DU?$char_traits@D@std@@V?$allocator@D@2@@std@@V12@@std@@@2@$0A@@std@@@std@@QAE?AU?$pair@V?$_Tree_iterator@V?$_Tree_val@U?$_Tree_simple_types@U?$pair@$$CBV?$basic_string@DU?$char_traits@D@std@@V?$allocator@D@2@@std@@V12@@std@@@std@@@std@@@std@@_N@1@$$QAU?$pair@$$CBV?$basic_string@DU?$char_traits@D@std@@V?$allocator@D@2@@std@@V12@@1@@Z DD 0ffffffffH
	DD	FLAT:__unwindfunclet$??$insert@$0A@$0A@@?$_Tree@V?$_Tmap_traits@V?$basic_string@DU?$char_traits@D@std@@V?$allocator@D@2@@std@@V12@U?$less@V?$basic_string@DU?$char_traits@D@std@@V?$allocator@D@2@@std@@@2@V?$allocator@U?$pair@$$CBV?$basic_string@DU?$char_traits@D@std@@V?$allocator@D@2@@std@@V12@@std@@@2@$0A@@std@@@std@@QAE?AU?$pair@V?$_Tree_iterator@V?$_Tree_val@U?$_Tree_simple_types@U?$pair@$$CBV?$basic_string@DU?$char_traits@D@std@@V?$allocator@D@2@@std@@V12@@std@@@std@@@std@@@std@@_N@1@$$QAU?$pair@$$CBV?$basic_string@DU?$char_traits@D@std@@V?$allocator@D@2@@std@@V12@@1@@Z$2
	DD	0ffffffffH
	DD	FLAT:__unwindfunclet$??$insert@$0A@$0A@@?$_Tree@V?$_Tmap_traits@V?$basic_string@DU?$char_traits@D@std@@V?$allocator@D@2@@std@@V12@U?$less@V?$basic_string@DU?$char_traits@D@std@@V?$allocator@D@2@@std@@@2@V?$allocator@U?$pair@$$CBV?$basic_string@DU?$char_traits@D@std@@V?$allocator@D@2@@std@@V12@@std@@@2@$0A@@std@@@std@@QAE?AU?$pair@V?$_Tree_iterator@V?$_Tree_val@U?$_Tree_simple_types@U?$pair@$$CBV?$basic_string@DU?$char_traits@D@std@@V?$allocator@D@2@@std@@V12@@std@@@std@@@std@@@std@@_N@1@$$QAU?$pair@$$CBV?$basic_string@DU?$char_traits@D@std@@V?$allocator@D@2@@std@@V12@@1@@Z$1
__ehfuncinfo$??$insert@$0A@$0A@@?$_Tree@V?$_Tmap_traits@V?$basic_string@DU?$char_traits@D@std@@V?$allocator@D@2@@std@@V12@U?$less@V?$basic_string@DU?$char_traits@D@std@@V?$allocator@D@2@@std@@@2@V?$allocator@U?$pair@$$CBV?$basic_string@DU?$char_traits@D@std@@V?$allocator@D@2@@std@@V12@@std@@@2@$0A@@std@@@std@@QAE?AU?$pair@V?$_Tree_iterator@V?$_Tree_val@U?$_Tree_simple_types@U?$pair@$$CBV?$basic_string@DU?$char_traits@D@std@@V?$allocator@D@2@@std@@V12@@std@@@std@@@std@@@std@@_N@1@$$QAU?$pair@$$CBV?$basic_string@DU?$char_traits@D@std@@V?$allocator@D@2@@std@@V12@@1@@Z DD 019930522H
	DD	02H
	DD	FLAT:__unwindtable$??$insert@$0A@$0A@@?$_Tree@V?$_Tmap_traits@V?$basic_string@DU?$char_traits@D@std@@V?$allocator@D@2@@std@@V12@U?$less@V?$basic_string@DU?$char_traits@D@std@@V?$allocator@D@2@@std@@@2@V?$allocator@U?$pair@$$CBV?$basic_string@DU?$char_traits@D@std@@V?$allocator@D@2@@std@@V12@@std@@@2@$0A@@std@@@std@@QAE?AU?$pair@V?$_Tree_iterator@V?$_Tree_val@U?$_Tree_simple_types@U?$pair@$$CBV?$basic_string@DU?$char_traits@D@std@@V?$allocator@D@2@@std@@V12@@std@@@std@@@std@@@std@@_N@1@$$QAU?$pair@$$CBV?$basic_string@DU?$char_traits@D@std@@V?$allocator@D@2@@std@@V12@@1@@Z
	DD	2 DUP(00H)
	DD	2 DUP(00H)
	DD	00H
	DD	01H
xdata$x	ENDS
;	COMDAT xdata$x
xdata$x	SEGMENT
__unwindtable$??$?0PBDPBD$0A@@?$pair@$$CBV?$basic_string@DU?$char_traits@D@std@@V?$allocator@D@2@@std@@V12@@std@@QAE@$$QAPBD0@Z DD 0ffffffffH
	DD	FLAT:__unwindfunclet$??$?0PBDPBD$0A@@?$pair@$$CBV?$basic_string@DU?$char_traits@D@std@@V?$allocator@D@2@@std@@V12@@std@@QAE@$$QAPBD0@Z$0
__ehfuncinfo$??$?0PBDPBD$0A@@?$pair@$$CBV?$basic_string@DU?$char_traits@D@std@@V?$allocator@D@2@@std@@V12@@std@@QAE@$$QAPBD0@Z DD 019930522H
	DD	01H
	DD	FLAT:__unwindtable$??$?0PBDPBD$0A@@?$pair@$$CBV?$basic_string@DU?$char_traits@D@std@@V?$allocator@D@2@@std@@V12@@std@@QAE@$$QAPBD0@Z
	DD	2 DUP(00H)
	DD	2 DUP(00H)
	DD	00H
	DD	01H
xdata$x	ENDS
;	COMDAT xdata$x
xdata$x	SEGMENT
__ehfuncinfo$?LoadStringA@CScript@@QAEXXZ DD 019930522H
	DD	05H
	DD	FLAT:__unwindtable$?LoadStringA@CScript@@QAEXXZ
	DD	2 DUP(00H)
	DD	2 DUP(00H)
	DD	00H
	DD	01H
__unwindtable$?LoadStringA@CScript@@QAEXXZ DD 0ffffffffH
	DD	FLAT:__unwindfunclet$?LoadStringA@CScript@@QAEXXZ$0
	DD	00H
	DD	FLAT:__unwindfunclet$?LoadStringA@CScript@@QAEXXZ$3
	DD	00H
	DD	FLAT:__unwindfunclet$?LoadStringA@CScript@@QAEXXZ$1
	DD	02H
	DD	FLAT:__unwindfunclet$?LoadStringA@CScript@@QAEXXZ$7
	DD	02H
	DD	FLAT:__unwindfunclet$?LoadStringA@CScript@@QAEXXZ$6
xdata$x	ENDS
;	COMDAT xdata$x
xdata$x	SEGMENT
__unwindtable$?GetToken@CScript@@UAEHH@Z DD 0ffffffffH
	DD	FLAT:__unwindfunclet$?GetToken@CScript@@UAEHH@Z$1
	DD	0ffffffffH
	DD	FLAT:__unwindfunclet$?GetToken@CScript@@UAEHH@Z$2
__ehfuncinfo$?GetToken@CScript@@UAEHH@Z DD 019930522H
	DD	02H
	DD	FLAT:__unwindtable$?GetToken@CScript@@UAEHH@Z
	DD	2 DUP(00H)
	DD	2 DUP(00H)
	DD	00H
	DD	01H
xdata$x	ENDS
;	COMDAT xdata$x
xdata$x	SEGMENT
__ehfuncinfo$?PreScan@CScript@@QAEXXZ DD 019930522H
	DD	07H
	DD	FLAT:__unwindtable$?PreScan@CScript@@QAEXXZ
	DD	2 DUP(00H)
	DD	2 DUP(00H)
	DD	00H
	DD	01H
__unwindtable$?PreScan@CScript@@QAEXXZ DD 0ffffffffH
	DD	FLAT:__unwindfunclet$?PreScan@CScript@@QAEXXZ$4
	DD	0ffffffffH
	DD	FLAT:__unwindfunclet$?PreScan@CScript@@QAEXXZ$3
	DD	0ffffffffH
	DD	FLAT:__unwindfunclet$?PreScan@CScript@@QAEXXZ$2
	DD	0ffffffffH
	DD	FLAT:__unwindfunclet$?PreScan@CScript@@QAEXXZ$14
	DD	0ffffffffH
	DD	FLAT:__unwindfunclet$?PreScan@CScript@@QAEXXZ$0
	DD	0ffffffffH
	DD	FLAT:__unwindfunclet$?PreScan@CScript@@QAEXXZ$15
	DD	0ffffffffH
	DD	FLAT:__unwindfunclet$?PreScan@CScript@@QAEXXZ$1
xdata$x	ENDS
;	COMDAT xdata$x
xdata$x	SEGMENT
__unwindtable$?SntxErr@CScript@@UAEXPBDH@Z DD 0ffffffffH
	DD	FLAT:__unwindfunclet$?SntxErr@CScript@@UAEXPBDH@Z$0
__ehfuncinfo$?SntxErr@CScript@@UAEXPBDH@Z DD 019930522H
	DD	01H
	DD	FLAT:__unwindtable$?SntxErr@CScript@@UAEXPBDH@Z
	DD	2 DUP(00H)
	DD	2 DUP(00H)
	DD	00H
	DD	01H
xdata$x	ENDS
;	COMDAT xdata$x
xdata$x	SEGMENT
__unwindtable$?GetFindIdToArray@CScript@@SAXPBDPAVCStringArray@@@Z DD 0ffffffffH
	DD	FLAT:__unwindfunclet$?GetFindIdToArray@CScript@@SAXPBDPAVCStringArray@@@Z$0
__ehfuncinfo$?GetFindIdToArray@CScript@@SAXPBDPAVCStringArray@@@Z DD 019930522H
	DD	01H
	DD	FLAT:__unwindtable$?GetFindIdToArray@CScript@@SAXPBDPAVCStringArray@@@Z
	DD	2 DUP(00H)
	DD	2 DUP(00H)
	DD	00H
	DD	01H
xdata$x	ENDS
;	COMDAT xdata$x
xdata$x	SEGMENT
__unwindtable$?ExecDefine@CScript@@QAEXXZ DD 0ffffffffH
	DD	FLAT:__unwindfunclet$?ExecDefine@CScript@@QAEXXZ$0
	DD	00H
	DD	FLAT:__unwindfunclet$?ExecDefine@CScript@@QAEXXZ$1
	DD	01H
	DD	FLAT:__unwindfunclet$?ExecDefine@CScript@@QAEXXZ$6
__ehfuncinfo$?ExecDefine@CScript@@QAEXXZ DD 019930522H
	DD	03H
	DD	FLAT:__unwindtable$?ExecDefine@CScript@@QAEXXZ
	DD	2 DUP(00H)
	DD	2 DUP(00H)
	DD	00H
	DD	01H
xdata$x	ENDS
;	COMDAT xdata$x
xdata$x	SEGMENT
__ehfuncinfo$??1CScript@@UAE@XZ DD 019930522H
	DD	00H
	DD	00H
	DD	2 DUP(00H)
	DD	2 DUP(00H)
	DD	00H
	DD	05H
xdata$x	ENDS
;	COMDAT xdata$x
xdata$x	SEGMENT
__unwindtable$?FormatV@?$CStringT@DV?$StrTraitMFC@DV?$ChTraitsCRT@D@ATL@@@@@ATL@@QAEXPBDPAD@Z DD 0ffffffffH
	DD	FLAT:__unwindfunclet$?FormatV@?$CStringT@DV?$StrTraitMFC@DV?$ChTraitsCRT@D@ATL@@@@@ATL@@QAEXPBDPAD@Z$1
	DD	0ffffffffH
	DD	FLAT:__unwindfunclet$?FormatV@?$CStringT@DV?$StrTraitMFC@DV?$ChTraitsCRT@D@ATL@@@@@ATL@@QAEXPBDPAD@Z$0
__ehfuncinfo$?FormatV@?$CStringT@DV?$StrTraitMFC@DV?$ChTraitsCRT@D@ATL@@@@@ATL@@QAEXPBDPAD@Z DD 019930522H
	DD	02H
	DD	FLAT:__unwindtable$?FormatV@?$CStringT@DV?$StrTraitMFC@DV?$ChTraitsCRT@D@ATL@@@@@ATL@@QAEXPBDPAD@Z
	DD	2 DUP(00H)
	DD	2 DUP(00H)
	DD	00H
	DD	01H
xdata$x	ENDS
;	COMDAT xdata$x
xdata$x	SEGMENT
__unwindtable$??0?$CStringT@DV?$StrTraitMFC@DV?$ChTraitsCRT@D@ATL@@@@@ATL@@QAE@PBDPAUIAtlStringMgr@1@@Z DD 0ffffffffH
	DD	FLAT:__unwindfunclet$??0?$CStringT@DV?$StrTraitMFC@DV?$ChTraitsCRT@D@ATL@@@@@ATL@@QAE@PBDPAUIAtlStringMgr@1@@Z$0
__ehfuncinfo$??0?$CStringT@DV?$StrTraitMFC@DV?$ChTraitsCRT@D@ATL@@@@@ATL@@QAE@PBDPAUIAtlStringMgr@1@@Z DD 019930522H
	DD	01H
	DD	FLAT:__unwindtable$??0?$CStringT@DV?$StrTraitMFC@DV?$ChTraitsCRT@D@ATL@@@@@ATL@@QAE@PBDPAUIAtlStringMgr@1@@Z
	DD	2 DUP(00H)
	DD	2 DUP(00H)
	DD	00H
	DD	01H
xdata$x	ENDS
;	COMDAT xdata$x
xdata$x	SEGMENT
__unwindtable$??0?$CStringT@DV?$StrTraitMFC@DV?$ChTraitsCRT@D@ATL@@@@@ATL@@QAE@PBD@Z DD 0ffffffffH
	DD	FLAT:__unwindfunclet$??0?$CStringT@DV?$StrTraitMFC@DV?$ChTraitsCRT@D@ATL@@@@@ATL@@QAE@PBD@Z$0
__ehfuncinfo$??0?$CStringT@DV?$StrTraitMFC@DV?$ChTraitsCRT@D@ATL@@@@@ATL@@QAE@PBD@Z DD 019930522H
	DD	01H
	DD	FLAT:__unwindtable$??0?$CStringT@DV?$StrTraitMFC@DV?$ChTraitsCRT@D@ATL@@@@@ATL@@QAE@PBD@Z
	DD	2 DUP(00H)
	DD	2 DUP(00H)
	DD	00H
	DD	01H
xdata$x	ENDS
CRT$XCU	SEGMENT
??m_mapString$initializer$@CScript@@2P6AXXZA@@3P6AXXZA DD FLAT:??__E?m_mapString@CScript@@2V?$map@V?$basic_string@DU?$char_traits@D@std@@V?$allocator@D@2@@std@@V12@U?$less@V?$basic_string@DU?$char_traits@D@std@@V?$allocator@D@2@@std@@@2@V?$allocator@U?$pair@$$CBV?$basic_string@DU?$char_traits@D@std@@V?$allocator@D@2@@std@@V12@@std@@@2@@std@@A@@YAXXZ ; ??m_mapString$initializer$@CScript@@2P6AXXZA@@3P6AXXZA
CRT$XCU	ENDS
; Function compile flags: /Ogtp
; File C:\Program Files\Microsoft Visual Studio\2022\Professional\VC\Tools\MSVC\14.44.35207\include\xtree
; File C:\Program Files\Microsoft Visual Studio\2022\Professional\VC\Tools\MSVC\14.44.35207\include\xmemory
; File C:\Program Files\Microsoft Visual Studio\2022\Professional\VC\Tools\MSVC\14.44.35207\include\xtree
;	COMDAT ??1?$_Tree_temp_node@V?$allocator@U?$_Tree_node@U?$pair@$$CBV?$basic_string@DU?$char_traits@D@std@@V?$allocator@D@2@@std@@H@std@@PAX@std@@@std@@@std@@QAE@XZ
_TEXT	SEGMENT
??1?$_Tree_temp_node@V?$allocator@U?$_Tree_node@U?$pair@$$CBV?$basic_string@DU?$char_traits@D@std@@V?$allocator@D@2@@std@@H@std@@PAX@std@@@std@@@std@@QAE@XZ PROC ; std::_Tree_temp_node<std::allocator<std::_Tree_node<std::pair<std::basic_string<char,std::char_traits<char>,std::allocator<char> > const ,int>,void *> > >::~_Tree_temp_node<std::allocator<std::_Tree_node<std::pair<std::basic_string<char,std::char_traits<char>,std::allocator<char> > const ,int>,void *> > >, COMDAT
; _this$ = ecx

; 841  :     ~_Tree_temp_node() {

  00000	56		 push	 esi
  00001	8b f1		 mov	 esi, ecx

; 842  :         if (this->_Ptr) {

  00003	8b 4e 04	 mov	 ecx, DWORD PTR [esi+4]
  00006	85 c9		 test	 ecx, ecx
  00008	74 08		 je	 SHORT $LN8@Tree_temp_

; 843  :             _Destroy_in_place(this->_Ptr->_Left);
; 844  :             _Destroy_in_place(this->_Ptr->_Parent);
; 845  :             _Destroy_in_place(this->_Ptr->_Right);
; 846  :             _Alnode_traits::destroy(this->_Al, _STD addressof(this->_Ptr->_Myval));

  0000a	83 c1 10	 add	 ecx, 16			; 00000010H
  0000d	e8 00 00 00 00	 call	 ??1?$basic_string@DU?$char_traits@D@std@@V?$allocator@D@2@@std@@QAE@XZ ; std::basic_string<char,std::char_traits<char>,std::allocator<char> >::~basic_string<char,std::char_traits<char>,std::allocator<char> >
$LN8@Tree_temp_:
; File C:\Program Files\Microsoft Visual Studio\2022\Professional\VC\Tools\MSVC\14.44.35207\include\xmemory

; 1172 :         if (_Ptr) {

  00012	8b 46 04	 mov	 eax, DWORD PTR [esi+4]
  00015	5e		 pop	 esi
  00016	85 c0		 test	 eax, eax
  00018	74 0b		 je	 SHORT $LN30@Tree_temp_

; 289  :         ::operator delete(_Ptr, _Bytes);

  0001a	6a 2c		 push	 44			; 0000002cH
  0001c	50		 push	 eax
  0001d	e8 00 00 00 00	 call	 ??3@YAXPAXI@Z		; operator delete
  00022	83 c4 08	 add	 esp, 8
$LN30@Tree_temp_:
; File C:\Program Files\Microsoft Visual Studio\2022\Professional\VC\Tools\MSVC\14.44.35207\include\xtree

; 848  :     }

  00025	c3		 ret	 0
??1?$_Tree_temp_node@V?$allocator@U?$_Tree_node@U?$pair@$$CBV?$basic_string@DU?$char_traits@D@std@@V?$allocator@D@2@@std@@H@std@@PAX@std@@@std@@@std@@QAE@XZ ENDP ; std::_Tree_temp_node<std::allocator<std::_Tree_node<std::pair<std::basic_string<char,std::char_traits<char>,std::allocator<char> > const ,int>,void *> > >::~_Tree_temp_node<std::allocator<std::_Tree_node<std::pair<std::basic_string<char,std::char_traits<char>,std::allocator<char> > const ,int>,void *> > >
_TEXT	ENDS
; Function compile flags: /Ogtp
; File C:\Program Files\Microsoft Visual Studio\2022\Professional\VC\Tools\MSVC\14.44.35207\include\xmemory
;	COMDAT ??1?$_Tree_temp_node_alloc@V?$allocator@U?$_Tree_node@U?$pair@$$CBV?$basic_string@DU?$char_traits@D@std@@V?$allocator@D@2@@std@@H@std@@PAX@std@@@std@@@std@@QAE@XZ
_TEXT	SEGMENT
??1?$_Tree_temp_node_alloc@V?$allocator@U?$_Tree_node@U?$pair@$$CBV?$basic_string@DU?$char_traits@D@std@@V?$allocator@D@2@@std@@H@std@@PAX@std@@@std@@@std@@QAE@XZ PROC ; std::_Tree_temp_node_alloc<std::allocator<std::_Tree_node<std::pair<std::basic_string<char,std::char_traits<char>,std::allocator<char> > const ,int>,void *> > >::~_Tree_temp_node_alloc<std::allocator<std::_Tree_node<std::pair<std::basic_string<char,std::char_traits<char>,std::allocator<char> > const ,int>,void *> > >, COMDAT
; _this$ = ecx

; 1172 :         if (_Ptr) {

  00000	8b 41 04	 mov	 eax, DWORD PTR [ecx+4]
  00003	85 c0		 test	 eax, eax
  00005	74 0b		 je	 SHORT $LN13@Tree_temp_

; 289  :         ::operator delete(_Ptr, _Bytes);

  00007	6a 2c		 push	 44			; 0000002cH
  00009	50		 push	 eax
  0000a	e8 00 00 00 00	 call	 ??3@YAXPAXI@Z		; operator delete
  0000f	83 c4 08	 add	 esp, 8
$LN13@Tree_temp_:
  00012	c3		 ret	 0
??1?$_Tree_temp_node_alloc@V?$allocator@U?$_Tree_node@U?$pair@$$CBV?$basic_string@DU?$char_traits@D@std@@V?$allocator@D@2@@std@@H@std@@PAX@std@@@std@@@std@@QAE@XZ ENDP ; std::_Tree_temp_node_alloc<std::allocator<std::_Tree_node<std::pair<std::basic_string<char,std::char_traits<char>,std::allocator<char> > const ,int>,void *> > >::~_Tree_temp_node_alloc<std::allocator<std::_Tree_node<std::pair<std::basic_string<char,std::char_traits<char>,std::allocator<char> > const ,int>,void *> > >
_TEXT	ENDS
; Function compile flags: /Ogtp
; File C:\Program Files\Microsoft Visual Studio\2022\Professional\VC\Tools\MSVC\14.44.35207\include\xmemory
;	COMDAT ??1?$_Alloc_construct_ptr@V?$allocator@U?$_Tree_node@U?$pair@$$CBV?$basic_string@DU?$char_traits@D@std@@V?$allocator@D@2@@std@@H@std@@PAX@std@@@std@@@std@@QAE@XZ
_TEXT	SEGMENT
??1?$_Alloc_construct_ptr@V?$allocator@U?$_Tree_node@U?$pair@$$CBV?$basic_string@DU?$char_traits@D@std@@V?$allocator@D@2@@std@@H@std@@PAX@std@@@std@@@std@@QAE@XZ PROC ; std::_Alloc_construct_ptr<std::allocator<std::_Tree_node<std::pair<std::basic_string<char,std::char_traits<char>,std::allocator<char> > const ,int>,void *> > >::~_Alloc_construct_ptr<std::allocator<std::_Tree_node<std::pair<std::basic_string<char,std::char_traits<char>,std::allocator<char> > const ,int>,void *> > >, COMDAT
; _this$ = ecx

; 1172 :         if (_Ptr) {

  00000	8b 41 04	 mov	 eax, DWORD PTR [ecx+4]
  00003	85 c0		 test	 eax, eax
  00005	74 0b		 je	 SHORT $LN10@Alloc_cons

; 289  :         ::operator delete(_Ptr, _Bytes);

  00007	6a 2c		 push	 44			; 0000002cH
  00009	50		 push	 eax
  0000a	e8 00 00 00 00	 call	 ??3@YAXPAXI@Z		; operator delete
  0000f	83 c4 08	 add	 esp, 8
$LN10@Alloc_cons:

; 1173 :             _Al.deallocate(_Ptr, 1);
; 1174 :         }
; 1175 :     }

  00012	c3		 ret	 0
??1?$_Alloc_construct_ptr@V?$allocator@U?$_Tree_node@U?$pair@$$CBV?$basic_string@DU?$char_traits@D@std@@V?$allocator@D@2@@std@@H@std@@PAX@std@@@std@@@std@@QAE@XZ ENDP ; std::_Alloc_construct_ptr<std::allocator<std::_Tree_node<std::pair<std::basic_string<char,std::char_traits<char>,std::allocator<char> > const ,int>,void *> > >::~_Alloc_construct_ptr<std::allocator<std::_Tree_node<std::pair<std::basic_string<char,std::char_traits<char>,std::allocator<char> > const ,int>,void *> > >
_TEXT	ENDS
; Function compile flags: /Ogtp
; File C:\Program Files\Microsoft Visual Studio\2022\Professional\VC\Tools\MSVC\14.44.35207\include\xutility
;	COMDAT ??$_Search_vectorized@$$CBD$$CBD@std@@YAPBDQBD00I@Z
_TEXT	SEGMENT
__First1$ = 8						; size = 4
__Last1$ = 12						; size = 4
__First2$ = 16						; size = 4
__Count2$ = 20						; size = 4
??$_Search_vectorized@$$CBD$$CBD@std@@YAPBDQBD00I@Z PROC ; std::_Search_vectorized<char const ,char const >, COMDAT

; 247  : _Ty1* _Search_vectorized(_Ty1* const _First1, _Ty1* const _Last1, _Ty2* const _First2, const size_t _Count2) noexcept {

  00000	55		 push	 ebp
  00001	8b ec		 mov	 ebp, esp

; 248  :     _STL_INTERNAL_STATIC_ASSERT(sizeof(_Ty1) == sizeof(_Ty2));
; 249  :     if constexpr (sizeof(_Ty1) == 1) {
; 250  :         return const_cast<_Ty1*>(static_cast<const _Ty1*>(::__std_search_1(_First1, _Last1, _First2, _Count2)));

  00003	ff 75 14	 push	 DWORD PTR __Count2$[ebp]
  00006	ff 75 10	 push	 DWORD PTR __First2$[ebp]
  00009	ff 75 0c	 push	 DWORD PTR __Last1$[ebp]
  0000c	ff 75 08	 push	 DWORD PTR __First1$[ebp]
  0000f	e8 00 00 00 00	 call	 ___std_search_1@16

; 251  :     } else if constexpr (sizeof(_Ty1) == 2) {
; 252  :         return const_cast<_Ty1*>(static_cast<const _Ty1*>(::__std_search_2(_First1, _Last1, _First2, _Count2)));
; 253  :     } else {
; 254  :         _STL_INTERNAL_STATIC_ASSERT(false); // unexpected size
; 255  :     }
; 256  : }

  00014	5d		 pop	 ebp
  00015	c3		 ret	 0
??$_Search_vectorized@$$CBD$$CBD@std@@YAPBDQBD00I@Z ENDP ; std::_Search_vectorized<char const ,char const >
_TEXT	ENDS
; Function compile flags: /Ogtp
; File C:\Program Files\Microsoft Visual Studio\2022\Professional\VC\Tools\MSVC\14.44.35207\include\xtree
; File C:\Program Files\Microsoft Visual Studio\2022\Professional\VC\Tools\MSVC\14.44.35207\include\utility
; File C:\Program Files\Microsoft Visual Studio\2022\Professional\VC\Tools\MSVC\14.44.35207\include\xtree
; File C:\Program Files\Microsoft Visual Studio\2022\Professional\VC\Tools\MSVC\14.44.35207\include\xmemory
; File C:\Program Files\Microsoft Visual Studio\2022\Professional\VC\Tools\MSVC\14.44.35207\include\xtree
; File C:\Program Files\Microsoft Visual Studio\2022\Professional\VC\Tools\MSVC\14.44.35207\include\xmemory
; File C:\Program Files\Microsoft Visual Studio\2022\Professional\VC\Tools\MSVC\14.44.35207\include\xtree
;	COMDAT ??$_Erase_tree@V?$allocator@U?$_Tree_node@U?$pair@$$CBV?$basic_string@DU?$char_traits@D@std@@V?$allocator@D@2@@std@@H@std@@PAX@std@@@std@@@?$_Tree_val@U?$_Tree_simple_types@U?$pair@$$CBV?$basic_string@DU?$char_traits@D@std@@V?$allocator@D@2@@std@@H@std@@@std@@@std@@QAEXAAV?$allocator@U?$_Tree_node@U?$pair@$$CBV?$basic_string@DU?$char_traits@D@std@@V?$allocator@D@2@@std@@H@std@@PAX@std@@@1@PAU?$_Tree_node@U?$pair@$$CBV?$basic_string@DU?$char_traits@D@std@@V?$allocator@D@2@@std@@H@std@@PAX@1@@Z
_TEXT	SEGMENT
_this$1$ = -4						; size = 4
__Al$ = 8						; size = 4
__Rootnode$ = 12					; size = 4
??$_Erase_tree@V?$allocator@U?$_Tree_node@U?$pair@$$CBV?$basic_string@DU?$char_traits@D@std@@V?$allocator@D@2@@std@@H@std@@PAX@std@@@std@@@?$_Tree_val@U?$_Tree_simple_types@U?$pair@$$CBV?$basic_string@DU?$char_traits@D@std@@V?$allocator@D@2@@std@@H@std@@@std@@@std@@QAEXAAV?$allocator@U?$_Tree_node@U?$pair@$$CBV?$basic_string@DU?$char_traits@D@std@@V?$allocator@D@2@@std@@H@std@@PAX@std@@@1@PAU?$_Tree_node@U?$pair@$$CBV?$basic_string@DU?$char_traits@D@std@@V?$allocator@D@2@@std@@H@std@@PAX@1@@Z PROC ; std::_Tree_val<std::_Tree_simple_types<std::pair<std::basic_string<char,std::char_traits<char>,std::allocator<char> > const ,int> > >::_Erase_tree<std::allocator<std::_Tree_node<std::pair<std::basic_string<char,std::char_traits<char>,std::allocator<char> > const ,int>,void *> > >, COMDAT
; _this$ = ecx

; 767  :     void _Erase_tree(_Alnode& _Al, _Nodeptr _Rootnode) noexcept {

  00000	55		 push	 ebp
  00001	8b ec		 mov	 ebp, esp
  00003	51		 push	 ecx
  00004	56		 push	 esi

; 768  :         while (!_Rootnode->_Isnil) { // free subtrees, then node

  00005	8b 75 0c	 mov	 esi, DWORD PTR __Rootnode$[ebp]
  00008	8b c1		 mov	 eax, ecx
  0000a	89 45 fc	 mov	 DWORD PTR _this$1$[ebp], eax
  0000d	80 7e 0d 00	 cmp	 BYTE PTR [esi+13], 0
  00011	75 32		 jne	 SHORT $LN45@Erase_tree
  00013	53		 push	 ebx
  00014	8b 5d 08	 mov	 ebx, DWORD PTR __Al$[ebp]
  00017	57		 push	 edi
$LL2@Erase_tree:

; 769  :             _Erase_tree(_Al, _Rootnode->_Right);

  00018	ff 76 08	 push	 DWORD PTR [esi+8]
  0001b	8b c8		 mov	 ecx, eax
  0001d	53		 push	 ebx
  0001e	e8 00 00 00 00	 call	 ??$_Erase_tree@V?$allocator@U?$_Tree_node@U?$pair@$$CBV?$basic_string@DU?$char_traits@D@std@@V?$allocator@D@2@@std@@H@std@@PAX@std@@@std@@@?$_Tree_val@U?$_Tree_simple_types@U?$pair@$$CBV?$basic_string@DU?$char_traits@D@std@@V?$allocator@D@2@@std@@H@std@@@std@@@std@@QAEXAAV?$allocator@U?$_Tree_node@U?$pair@$$CBV?$basic_string@DU?$char_traits@D@std@@V?$allocator@D@2@@std@@H@std@@PAX@std@@@1@PAU?$_Tree_node@U?$pair@$$CBV?$basic_string@DU?$char_traits@D@std@@V?$allocator@D@2@@std@@H@std@@PAX@1@@Z ; std::_Tree_val<std::_Tree_simple_types<std::pair<std::basic_string<char,std::char_traits<char>,std::allocator<char> > const ,int> > >::_Erase_tree<std::allocator<std::_Tree_node<std::pair<std::basic_string<char,std::char_traits<char>,std::allocator<char> > const ,int>,void *> > >
; File C:\Program Files\Microsoft Visual Studio\2022\Professional\VC\Tools\MSVC\14.44.35207\include\utility

; 773  :     _Ty _Old_val = static_cast<_Ty&&>(_Val);

  00023	8b fe		 mov	 edi, esi

; 774  :     _Val         = static_cast<_Other&&>(_New_val);

  00025	8b 36		 mov	 esi, DWORD PTR [esi]
; File C:\Program Files\Microsoft Visual Studio\2022\Professional\VC\Tools\MSVC\14.44.35207\include\xtree

; 381  :         allocator_traits<_Alloc>::destroy(_Al, _STD addressof(_Ptr->_Myval));

  00027	8d 4f 10	 lea	 ecx, DWORD PTR [edi+16]
  0002a	e8 00 00 00 00	 call	 ??1?$basic_string@DU?$char_traits@D@std@@V?$allocator@D@2@@std@@QAE@XZ ; std::basic_string<char,std::char_traits<char>,std::allocator<char> >::~basic_string<char,std::char_traits<char>,std::allocator<char> >
; File C:\Program Files\Microsoft Visual Studio\2022\Professional\VC\Tools\MSVC\14.44.35207\include\xmemory

; 289  :         ::operator delete(_Ptr, _Bytes);

  0002f	6a 2c		 push	 44			; 0000002cH
  00031	57		 push	 edi
  00032	e8 00 00 00 00	 call	 ??3@YAXPAXI@Z		; operator delete
; File C:\Program Files\Microsoft Visual Studio\2022\Professional\VC\Tools\MSVC\14.44.35207\include\xtree

; 768  :         while (!_Rootnode->_Isnil) { // free subtrees, then node

  00037	8b 45 fc	 mov	 eax, DWORD PTR _this$1$[ebp]
; File C:\Program Files\Microsoft Visual Studio\2022\Professional\VC\Tools\MSVC\14.44.35207\include\xmemory

; 289  :         ::operator delete(_Ptr, _Bytes);

  0003a	83 c4 08	 add	 esp, 8
; File C:\Program Files\Microsoft Visual Studio\2022\Professional\VC\Tools\MSVC\14.44.35207\include\xtree

; 768  :         while (!_Rootnode->_Isnil) { // free subtrees, then node

  0003d	80 7e 0d 00	 cmp	 BYTE PTR [esi+13], 0
  00041	74 d5		 je	 SHORT $LL2@Erase_tree
  00043	5f		 pop	 edi
  00044	5b		 pop	 ebx
$LN45@Erase_tree:
  00045	5e		 pop	 esi

; 770  :             _Alnode::value_type::_Freenode(_Al, _STD exchange(_Rootnode, _Rootnode->_Left));
; 771  :         }
; 772  :     }

  00046	8b e5		 mov	 esp, ebp
  00048	5d		 pop	 ebp
  00049	c2 08 00	 ret	 8
??$_Erase_tree@V?$allocator@U?$_Tree_node@U?$pair@$$CBV?$basic_string@DU?$char_traits@D@std@@V?$allocator@D@2@@std@@H@std@@PAX@std@@@std@@@?$_Tree_val@U?$_Tree_simple_types@U?$pair@$$CBV?$basic_string@DU?$char_traits@D@std@@V?$allocator@D@2@@std@@H@std@@@std@@@std@@QAEXAAV?$allocator@U?$_Tree_node@U?$pair@$$CBV?$basic_string@DU?$char_traits@D@std@@V?$allocator@D@2@@std@@H@std@@PAX@std@@@1@PAU?$_Tree_node@U?$pair@$$CBV?$basic_string@DU?$char_traits@D@std@@V?$allocator@D@2@@std@@H@std@@PAX@1@@Z ENDP ; std::_Tree_val<std::_Tree_simple_types<std::pair<std::basic_string<char,std::char_traits<char>,std::allocator<char> > const ,int> > >::_Erase_tree<std::allocator<std::_Tree_node<std::pair<std::basic_string<char,std::char_traits<char>,std::allocator<char> > const ,int>,void *> > >
_TEXT	ENDS
; Function compile flags: /Ogtp
; File C:\Program Files\Microsoft Visual Studio\2022\Professional\VC\Tools\MSVC\14.44.35207\include\xtree
; File C:\Program Files\Microsoft Visual Studio\2022\Professional\VC\Tools\MSVC\14.44.35207\include\type_traits
; File C:\Program Files\Microsoft Visual Studio\2022\Professional\VC\Tools\MSVC\14.44.35207\include\xtree
;	COMDAT ??$_Find_lower_bound@V?$basic_string@DU?$char_traits@D@std@@V?$allocator@D@2@@std@@@?$_Tree@V?$_Tmap_traits@V?$basic_string@DU?$char_traits@D@std@@V?$allocator@D@2@@std@@HU?$less@V?$basic_string@DU?$char_traits@D@std@@V?$allocator@D@2@@std@@@2@V?$allocator@U?$pair@$$CBV?$basic_string@DU?$char_traits@D@std@@V?$allocator@D@2@@std@@H@std@@@2@$0A@@std@@@std@@IBE?AU?$_Tree_find_result@PAU?$_Tree_node@U?$pair@$$CBV?$basic_string@DU?$char_traits@D@std@@V?$allocator@D@2@@std@@H@std@@PAX@std@@@1@ABV?$basic_string@DU?$char_traits@D@std@@V?$allocator@D@2@@1@@Z
_TEXT	SEGMENT
___$ReturnUdt$ = 8					; size = 4
__Keyval$ = 12						; size = 4
??$_Find_lower_bound@V?$basic_string@DU?$char_traits@D@std@@V?$allocator@D@2@@std@@@?$_Tree@V?$_Tmap_traits@V?$basic_string@DU?$char_traits@D@std@@V?$allocator@D@2@@std@@HU?$less@V?$basic_string@DU?$char_traits@D@std@@V?$allocator@D@2@@std@@@2@V?$allocator@U?$pair@$$CBV?$basic_string@DU?$char_traits@D@std@@V?$allocator@D@2@@std@@H@std@@@2@$0A@@std@@@std@@IBE?AU?$_Tree_find_result@PAU?$_Tree_node@U?$pair@$$CBV?$basic_string@DU?$char_traits@D@std@@V?$allocator@D@2@@std@@H@std@@PAX@std@@@1@ABV?$basic_string@DU?$char_traits@D@std@@V?$allocator@D@2@@1@@Z PROC ; std::_Tree<std::_Tmap_traits<std::basic_string<char,std::char_traits<char>,std::allocator<char> >,int,std::less<std::basic_string<char,std::char_traits<char>,std::allocator<char> > >,std::allocator<std::pair<std::basic_string<char,std::char_traits<char>,std::allocator<char> > const ,int> >,0> >::_Find_lower_bound<std::basic_string<char,std::char_traits<char>,std::allocator<char> > >, COMDAT
; _this$ = ecx

; 1628 :     _Tree_find_result<_Nodeptr> _Find_lower_bound(const _Keyty& _Keyval) const {

  00000	55		 push	 ebp
  00001	8b ec		 mov	 ebp, esp

; 1629 :         const auto _Scary = _Get_scary();
; 1630 :         _Tree_find_result<_Nodeptr> _Result{{_Scary->_Myhead->_Parent, _Tree_child::_Right}, _Scary->_Myhead};

  00003	8b 01		 mov	 eax, DWORD PTR [ecx]
  00005	56		 push	 esi
  00006	57		 push	 edi
  00007	8b 7d 08	 mov	 edi, DWORD PTR ___$ReturnUdt$[ebp]
  0000a	8b 70 04	 mov	 esi, DWORD PTR [eax+4]
  0000d	89 37		 mov	 DWORD PTR [edi], esi

; 1631 :         _Nodeptr _Trynode = _Result._Location._Parent;
; 1632 :         while (!_Trynode->_Isnil) {

  0000f	80 7e 0d 00	 cmp	 BYTE PTR [esi+13], 0
  00013	c7 47 04 00 00
	00 00		 mov	 DWORD PTR [edi+4], 0
  0001a	89 47 08	 mov	 DWORD PTR [edi+8], eax
  0001d	75 32		 jne	 SHORT $LN13@Find_lower
  0001f	53		 push	 ebx
  00020	8b 5d 0c	 mov	 ebx, DWORD PTR __Keyval$[ebp]
$LL2@Find_lower:

; 1634 :             if (_DEBUG_LT_PRED(_Getcomp(), _Traits::_Kfn(_Trynode->_Myval), _Keyval)) {

  00023	8d 46 10	 lea	 eax, DWORD PTR [esi+16]
  00026	89 37		 mov	 DWORD PTR [edi], esi
; File C:\Program Files\Microsoft Visual Studio\2022\Professional\VC\Tools\MSVC\14.44.35207\include\type_traits

; 2380 :         return _Left < _Right;

  00028	53		 push	 ebx
  00029	50		 push	 eax
  0002a	e8 00 00 00 00	 call	 ??$?MDU?$char_traits@D@std@@V?$allocator@D@1@@std@@YA_NABV?$basic_string@DU?$char_traits@D@std@@V?$allocator@D@2@@0@0@Z ; std::operator<<char,std::char_traits<char>,std::allocator<char> >
  0002f	83 c4 08	 add	 esp, 8
; File C:\Program Files\Microsoft Visual Studio\2022\Professional\VC\Tools\MSVC\14.44.35207\include\xtree

; 1634 :             if (_DEBUG_LT_PRED(_Getcomp(), _Traits::_Kfn(_Trynode->_Myval), _Keyval)) {

  00032	84 c0		 test	 al, al
  00034	74 07		 je	 SHORT $LN4@Find_lower

; 1635 :                 _Result._Location._Child = _Tree_child::_Right;
; 1636 :                 _Trynode                 = _Trynode->_Right;

  00036	8b 76 08	 mov	 esi, DWORD PTR [esi+8]
  00039	33 c0		 xor	 eax, eax

; 1637 :             } else {

  0003b	eb 0a		 jmp	 SHORT $LN5@Find_lower
$LN4@Find_lower:

; 1638 :                 _Result._Location._Child = _Tree_child::_Left;
; 1639 :                 _Result._Bound           = _Trynode;

  0003d	89 77 08	 mov	 DWORD PTR [edi+8], esi

; 1640 :                 _Trynode                 = _Trynode->_Left;

  00040	b8 01 00 00 00	 mov	 eax, 1
  00045	8b 36		 mov	 esi, DWORD PTR [esi]
$LN5@Find_lower:

; 1631 :         _Nodeptr _Trynode = _Result._Location._Parent;
; 1632 :         while (!_Trynode->_Isnil) {

  00047	89 47 04	 mov	 DWORD PTR [edi+4], eax
  0004a	80 7e 0d 00	 cmp	 BYTE PTR [esi+13], 0
  0004e	74 d3		 je	 SHORT $LL2@Find_lower
  00050	5b		 pop	 ebx
$LN13@Find_lower:

; 1641 :             }
; 1642 :         }
; 1643 : 
; 1644 :         return _Result;
; 1645 :     }

  00051	8b c7		 mov	 eax, edi
  00053	5f		 pop	 edi
  00054	5e		 pop	 esi
  00055	5d		 pop	 ebp
  00056	c2 08 00	 ret	 8
??$_Find_lower_bound@V?$basic_string@DU?$char_traits@D@std@@V?$allocator@D@2@@std@@@?$_Tree@V?$_Tmap_traits@V?$basic_string@DU?$char_traits@D@std@@V?$allocator@D@2@@std@@HU?$less@V?$basic_string@DU?$char_traits@D@std@@V?$allocator@D@2@@std@@@2@V?$allocator@U?$pair@$$CBV?$basic_string@DU?$char_traits@D@std@@V?$allocator@D@2@@std@@H@std@@@2@$0A@@std@@@std@@IBE?AU?$_Tree_find_result@PAU?$_Tree_node@U?$pair@$$CBV?$basic_string@DU?$char_traits@D@std@@V?$allocator@D@2@@std@@H@std@@PAX@std@@@1@ABV?$basic_string@DU?$char_traits@D@std@@V?$allocator@D@2@@1@@Z ENDP ; std::_Tree<std::_Tmap_traits<std::basic_string<char,std::char_traits<char>,std::allocator<char> >,int,std::less<std::basic_string<char,std::char_traits<char>,std::allocator<char> > >,std::allocator<std::pair<std::basic_string<char,std::char_traits<char>,std::allocator<char> > const ,int> >,0> >::_Find_lower_bound<std::basic_string<char,std::char_traits<char>,std::allocator<char> > >
_TEXT	ENDS
; Function compile flags: /Ogtp
; File C:\Program Files\Microsoft Visual Studio\2022\Professional\VC\Tools\MSVC\14.44.35207\include\xtree
; File C:\Program Files\Microsoft Visual Studio\2022\Professional\VC\Tools\MSVC\14.44.35207\include\utility
; File C:\Program Files\Microsoft Visual Studio\2022\Professional\VC\Tools\MSVC\14.44.35207\include\xmemory
; File C:\Program Files\Microsoft Visual Studio\2022\Professional\VC\Tools\MSVC\14.44.35207\include\xtree
; File C:\Program Files\Microsoft Visual Studio\2022\Professional\VC\Tools\MSVC\14.44.35207\include\xmemory
; File C:\Program Files\Microsoft Visual Studio\2022\Professional\VC\Tools\MSVC\14.44.35207\include\xtree
;	COMDAT ??$_Erase_tree@V?$allocator@U?$_Tree_node@U?$pair@$$CBV?$basic_string@DU?$char_traits@D@std@@V?$allocator@D@2@@std@@V12@@std@@PAX@std@@@std@@@?$_Tree_val@U?$_Tree_simple_types@U?$pair@$$CBV?$basic_string@DU?$char_traits@D@std@@V?$allocator@D@2@@std@@V12@@std@@@std@@@std@@QAEXAAV?$allocator@U?$_Tree_node@U?$pair@$$CBV?$basic_string@DU?$char_traits@D@std@@V?$allocator@D@2@@std@@V12@@std@@PAX@std@@@1@PAU?$_Tree_node@U?$pair@$$CBV?$basic_string@DU?$char_traits@D@std@@V?$allocator@D@2@@std@@V12@@std@@PAX@1@@Z
_TEXT	SEGMENT
_this$1$ = -4						; size = 4
__Al$ = 8						; size = 4
__Rootnode$ = 12					; size = 4
??$_Erase_tree@V?$allocator@U?$_Tree_node@U?$pair@$$CBV?$basic_string@DU?$char_traits@D@std@@V?$allocator@D@2@@std@@V12@@std@@PAX@std@@@std@@@?$_Tree_val@U?$_Tree_simple_types@U?$pair@$$CBV?$basic_string@DU?$char_traits@D@std@@V?$allocator@D@2@@std@@V12@@std@@@std@@@std@@QAEXAAV?$allocator@U?$_Tree_node@U?$pair@$$CBV?$basic_string@DU?$char_traits@D@std@@V?$allocator@D@2@@std@@V12@@std@@PAX@std@@@1@PAU?$_Tree_node@U?$pair@$$CBV?$basic_string@DU?$char_traits@D@std@@V?$allocator@D@2@@std@@V12@@std@@PAX@1@@Z PROC ; std::_Tree_val<std::_Tree_simple_types<std::pair<std::basic_string<char,std::char_traits<char>,std::allocator<char> > const ,std::basic_string<char,std::char_traits<char>,std::allocator<char> > > > >::_Erase_tree<std::allocator<std::_Tree_node<std::pair<std::basic_string<char,std::char_traits<char>,std::allocator<char> > const ,std::basic_string<char,std::char_traits<char>,std::allocator<char> > >,void *> > >, COMDAT
; _this$ = ecx

; 767  :     void _Erase_tree(_Alnode& _Al, _Nodeptr _Rootnode) noexcept {

  00000	55		 push	 ebp
  00001	8b ec		 mov	 ebp, esp
  00003	51		 push	 ecx
  00004	56		 push	 esi

; 768  :         while (!_Rootnode->_Isnil) { // free subtrees, then node

  00005	8b 75 0c	 mov	 esi, DWORD PTR __Rootnode$[ebp]
  00008	8b c1		 mov	 eax, ecx
  0000a	89 45 fc	 mov	 DWORD PTR _this$1$[ebp], eax
  0000d	80 7e 0d 00	 cmp	 BYTE PTR [esi+13], 0
  00011	75 39		 jne	 SHORT $LN45@Erase_tree
  00013	53		 push	 ebx
  00014	57		 push	 edi
$LL2@Erase_tree:

; 769  :             _Erase_tree(_Al, _Rootnode->_Right);

  00015	ff 76 08	 push	 DWORD PTR [esi+8]
  00018	8b c8		 mov	 ecx, eax
  0001a	ff 75 08	 push	 DWORD PTR __Al$[ebp]
  0001d	e8 00 00 00 00	 call	 ??$_Erase_tree@V?$allocator@U?$_Tree_node@U?$pair@$$CBV?$basic_string@DU?$char_traits@D@std@@V?$allocator@D@2@@std@@V12@@std@@PAX@std@@@std@@@?$_Tree_val@U?$_Tree_simple_types@U?$pair@$$CBV?$basic_string@DU?$char_traits@D@std@@V?$allocator@D@2@@std@@V12@@std@@@std@@@std@@QAEXAAV?$allocator@U?$_Tree_node@U?$pair@$$CBV?$basic_string@DU?$char_traits@D@std@@V?$allocator@D@2@@std@@V12@@std@@PAX@std@@@1@PAU?$_Tree_node@U?$pair@$$CBV?$basic_string@DU?$char_traits@D@std@@V?$allocator@D@2@@std@@V12@@std@@PAX@1@@Z ; std::_Tree_val<std::_Tree_simple_types<std::pair<std::basic_string<char,std::char_traits<char>,std::allocator<char> > const ,std::basic_string<char,std::char_traits<char>,std::allocator<char> > > > >::_Erase_tree<std::allocator<std::_Tree_node<std::pair<std::basic_string<char,std::char_traits<char>,std::allocator<char> > const ,std::basic_string<char,std::char_traits<char>,std::allocator<char> > >,void *> > >
; File C:\Program Files\Microsoft Visual Studio\2022\Professional\VC\Tools\MSVC\14.44.35207\include\utility

; 773  :     _Ty _Old_val = static_cast<_Ty&&>(_Val);

  00022	8b de		 mov	 ebx, esi

; 774  :     _Val         = static_cast<_Other&&>(_New_val);

  00024	8b 36		 mov	 esi, DWORD PTR [esi]
  00026	8d 4b 28	 lea	 ecx, DWORD PTR [ebx+40]
  00029	e8 00 00 00 00	 call	 ??1?$basic_string@DU?$char_traits@D@std@@V?$allocator@D@2@@std@@QAE@XZ ; std::basic_string<char,std::char_traits<char>,std::allocator<char> >::~basic_string<char,std::char_traits<char>,std::allocator<char> >
  0002e	8d 4b 10	 lea	 ecx, DWORD PTR [ebx+16]
  00031	e8 00 00 00 00	 call	 ??1?$basic_string@DU?$char_traits@D@std@@V?$allocator@D@2@@std@@QAE@XZ ; std::basic_string<char,std::char_traits<char>,std::allocator<char> >::~basic_string<char,std::char_traits<char>,std::allocator<char> >
; File C:\Program Files\Microsoft Visual Studio\2022\Professional\VC\Tools\MSVC\14.44.35207\include\xmemory

; 289  :         ::operator delete(_Ptr, _Bytes);

  00036	6a 40		 push	 64			; 00000040H
  00038	53		 push	 ebx
  00039	e8 00 00 00 00	 call	 ??3@YAXPAXI@Z		; operator delete
; File C:\Program Files\Microsoft Visual Studio\2022\Professional\VC\Tools\MSVC\14.44.35207\include\xtree

; 768  :         while (!_Rootnode->_Isnil) { // free subtrees, then node

  0003e	8b 45 fc	 mov	 eax, DWORD PTR _this$1$[ebp]
; File C:\Program Files\Microsoft Visual Studio\2022\Professional\VC\Tools\MSVC\14.44.35207\include\xmemory

; 289  :         ::operator delete(_Ptr, _Bytes);

  00041	83 c4 08	 add	 esp, 8
; File C:\Program Files\Microsoft Visual Studio\2022\Professional\VC\Tools\MSVC\14.44.35207\include\xtree

; 768  :         while (!_Rootnode->_Isnil) { // free subtrees, then node

  00044	80 7e 0d 00	 cmp	 BYTE PTR [esi+13], 0
  00048	74 cb		 je	 SHORT $LL2@Erase_tree
  0004a	5f		 pop	 edi
  0004b	5b		 pop	 ebx
$LN45@Erase_tree:
  0004c	5e		 pop	 esi

; 770  :             _Alnode::value_type::_Freenode(_Al, _STD exchange(_Rootnode, _Rootnode->_Left));
; 771  :         }
; 772  :     }

  0004d	8b e5		 mov	 esp, ebp
  0004f	5d		 pop	 ebp
  00050	c2 08 00	 ret	 8
??$_Erase_tree@V?$allocator@U?$_Tree_node@U?$pair@$$CBV?$basic_string@DU?$char_traits@D@std@@V?$allocator@D@2@@std@@V12@@std@@PAX@std@@@std@@@?$_Tree_val@U?$_Tree_simple_types@U?$pair@$$CBV?$basic_string@DU?$char_traits@D@std@@V?$allocator@D@2@@std@@V12@@std@@@std@@@std@@QAEXAAV?$allocator@U?$_Tree_node@U?$pair@$$CBV?$basic_string@DU?$char_traits@D@std@@V?$allocator@D@2@@std@@V12@@std@@PAX@std@@@1@PAU?$_Tree_node@U?$pair@$$CBV?$basic_string@DU?$char_traits@D@std@@V?$allocator@D@2@@std@@V12@@std@@PAX@1@@Z ENDP ; std::_Tree_val<std::_Tree_simple_types<std::pair<std::basic_string<char,std::char_traits<char>,std::allocator<char> > const ,std::basic_string<char,std::char_traits<char>,std::allocator<char> > > > >::_Erase_tree<std::allocator<std::_Tree_node<std::pair<std::basic_string<char,std::char_traits<char>,std::allocator<char> > const ,std::basic_string<char,std::char_traits<char>,std::allocator<char> > >,void *> > >
_TEXT	ENDS
; Function compile flags: /Ogtp
; File C:\Program Files\Microsoft Visual Studio\2022\Professional\VC\Tools\MSVC\14.44.35207\include\xmemory
;	COMDAT ??1?$_Tree_temp_node_alloc@V?$allocator@U?$_Tree_node@U?$pair@$$CBV?$basic_string@DU?$char_traits@D@std@@V?$allocator@D@2@@std@@V12@@std@@PAX@std@@@std@@@std@@QAE@XZ
_TEXT	SEGMENT
??1?$_Tree_temp_node_alloc@V?$allocator@U?$_Tree_node@U?$pair@$$CBV?$basic_string@DU?$char_traits@D@std@@V?$allocator@D@2@@std@@V12@@std@@PAX@std@@@std@@@std@@QAE@XZ PROC ; std::_Tree_temp_node_alloc<std::allocator<std::_Tree_node<std::pair<std::basic_string<char,std::char_traits<char>,std::allocator<char> > const ,std::basic_string<char,std::char_traits<char>,std::allocator<char> > >,void *> > >::~_Tree_temp_node_alloc<std::allocator<std::_Tree_node<std::pair<std::basic_string<char,std::char_traits<char>,std::allocator<char> > const ,std::basic_string<char,std::char_traits<char>,std::allocator<char> > >,void *> > >, COMDAT
; _this$ = ecx

; 1172 :         if (_Ptr) {

  00000	8b 41 04	 mov	 eax, DWORD PTR [ecx+4]
  00003	85 c0		 test	 eax, eax
  00005	74 0b		 je	 SHORT $LN13@Tree_temp_

; 289  :         ::operator delete(_Ptr, _Bytes);

  00007	6a 40		 push	 64			; 00000040H
  00009	50		 push	 eax
  0000a	e8 00 00 00 00	 call	 ??3@YAXPAXI@Z		; operator delete
  0000f	83 c4 08	 add	 esp, 8
$LN13@Tree_temp_:
  00012	c3		 ret	 0
??1?$_Tree_temp_node_alloc@V?$allocator@U?$_Tree_node@U?$pair@$$CBV?$basic_string@DU?$char_traits@D@std@@V?$allocator@D@2@@std@@V12@@std@@PAX@std@@@std@@@std@@QAE@XZ ENDP ; std::_Tree_temp_node_alloc<std::allocator<std::_Tree_node<std::pair<std::basic_string<char,std::char_traits<char>,std::allocator<char> > const ,std::basic_string<char,std::char_traits<char>,std::allocator<char> > >,void *> > >::~_Tree_temp_node_alloc<std::allocator<std::_Tree_node<std::pair<std::basic_string<char,std::char_traits<char>,std::allocator<char> > const ,std::basic_string<char,std::char_traits<char>,std::allocator<char> > >,void *> > >
_TEXT	ENDS
; Function compile flags: /Ogtp
; File C:\Program Files\Microsoft Visual Studio\2022\Professional\VC\Tools\MSVC\14.44.35207\include\xmemory
;	COMDAT ??1?$_Alloc_construct_ptr@V?$allocator@U?$_Tree_node@U?$pair@$$CBV?$basic_string@DU?$char_traits@D@std@@V?$allocator@D@2@@std@@V12@@std@@PAX@std@@@std@@@std@@QAE@XZ
_TEXT	SEGMENT
??1?$_Alloc_construct_ptr@V?$allocator@U?$_Tree_node@U?$pair@$$CBV?$basic_string@DU?$char_traits@D@std@@V?$allocator@D@2@@std@@V12@@std@@PAX@std@@@std@@@std@@QAE@XZ PROC ; std::_Alloc_construct_ptr<std::allocator<std::_Tree_node<std::pair<std::basic_string<char,std::char_traits<char>,std::allocator<char> > const ,std::basic_string<char,std::char_traits<char>,std::allocator<char> > >,void *> > >::~_Alloc_construct_ptr<std::allocator<std::_Tree_node<std::pair<std::basic_string<char,std::char_traits<char>,std::allocator<char> > const ,std::basic_string<char,std::char_traits<char>,std::allocator<char> > >,void *> > >, COMDAT
; _this$ = ecx

; 1172 :         if (_Ptr) {

  00000	8b 41 04	 mov	 eax, DWORD PTR [ecx+4]
  00003	85 c0		 test	 eax, eax
  00005	74 0b		 je	 SHORT $LN10@Alloc_cons

; 289  :         ::operator delete(_Ptr, _Bytes);

  00007	6a 40		 push	 64			; 00000040H
  00009	50		 push	 eax
  0000a	e8 00 00 00 00	 call	 ??3@YAXPAXI@Z		; operator delete
  0000f	83 c4 08	 add	 esp, 8
$LN10@Alloc_cons:

; 1173 :             _Al.deallocate(_Ptr, 1);
; 1174 :         }
; 1175 :     }

  00012	c3		 ret	 0
??1?$_Alloc_construct_ptr@V?$allocator@U?$_Tree_node@U?$pair@$$CBV?$basic_string@DU?$char_traits@D@std@@V?$allocator@D@2@@std@@V12@@std@@PAX@std@@@std@@@std@@QAE@XZ ENDP ; std::_Alloc_construct_ptr<std::allocator<std::_Tree_node<std::pair<std::basic_string<char,std::char_traits<char>,std::allocator<char> > const ,std::basic_string<char,std::char_traits<char>,std::allocator<char> > >,void *> > >::~_Alloc_construct_ptr<std::allocator<std::_Tree_node<std::pair<std::basic_string<char,std::char_traits<char>,std::allocator<char> > const ,std::basic_string<char,std::char_traits<char>,std::allocator<char> > >,void *> > >
_TEXT	ENDS
; Function compile flags: /Ogtp
; File C:\Program Files\Microsoft Visual Studio\2022\Professional\VC\Tools\MSVC\14.44.35207\include\xtree
; File C:\Program Files\Microsoft Visual Studio\2022\Professional\VC\Tools\MSVC\14.44.35207\include\type_traits
; File C:\Program Files\Microsoft Visual Studio\2022\Professional\VC\Tools\MSVC\14.44.35207\include\xtree
;	COMDAT ??$_Find_lower_bound@V?$basic_string@DU?$char_traits@D@std@@V?$allocator@D@2@@std@@@?$_Tree@V?$_Tmap_traits@V?$basic_string@DU?$char_traits@D@std@@V?$allocator@D@2@@std@@V12@U?$less@V?$basic_string@DU?$char_traits@D@std@@V?$allocator@D@2@@std@@@2@V?$allocator@U?$pair@$$CBV?$basic_string@DU?$char_traits@D@std@@V?$allocator@D@2@@std@@V12@@std@@@2@$0A@@std@@@std@@IBE?AU?$_Tree_find_result@PAU?$_Tree_node@U?$pair@$$CBV?$basic_string@DU?$char_traits@D@std@@V?$allocator@D@2@@std@@V12@@std@@PAX@std@@@1@ABV?$basic_string@DU?$char_traits@D@std@@V?$allocator@D@2@@1@@Z
_TEXT	SEGMENT
___$ReturnUdt$ = 8					; size = 4
__Keyval$ = 12						; size = 4
??$_Find_lower_bound@V?$basic_string@DU?$char_traits@D@std@@V?$allocator@D@2@@std@@@?$_Tree@V?$_Tmap_traits@V?$basic_string@DU?$char_traits@D@std@@V?$allocator@D@2@@std@@V12@U?$less@V?$basic_string@DU?$char_traits@D@std@@V?$allocator@D@2@@std@@@2@V?$allocator@U?$pair@$$CBV?$basic_string@DU?$char_traits@D@std@@V?$allocator@D@2@@std@@V12@@std@@@2@$0A@@std@@@std@@IBE?AU?$_Tree_find_result@PAU?$_Tree_node@U?$pair@$$CBV?$basic_string@DU?$char_traits@D@std@@V?$allocator@D@2@@std@@V12@@std@@PAX@std@@@1@ABV?$basic_string@DU?$char_traits@D@std@@V?$allocator@D@2@@1@@Z PROC ; std::_Tree<std::_Tmap_traits<std::basic_string<char,std::char_traits<char>,std::allocator<char> >,std::basic_string<char,std::char_traits<char>,std::allocator<char> >,std::less<std::basic_string<char,std::char_traits<char>,std::allocator<char> > >,std::allocator<std::pair<std::basic_string<char,std::char_traits<char>,std::allocator<char> > const ,std::basic_string<char,std::char_traits<char>,std::allocator<char> > > >,0> >::_Find_lower_bound<std::basic_string<char,std::char_traits<char>,std::allocator<char> > >, COMDAT
; _this$ = ecx

; 1628 :     _Tree_find_result<_Nodeptr> _Find_lower_bound(const _Keyty& _Keyval) const {

  00000	55		 push	 ebp
  00001	8b ec		 mov	 ebp, esp

; 1629 :         const auto _Scary = _Get_scary();
; 1630 :         _Tree_find_result<_Nodeptr> _Result{{_Scary->_Myhead->_Parent, _Tree_child::_Right}, _Scary->_Myhead};

  00003	8b 01		 mov	 eax, DWORD PTR [ecx]
  00005	56		 push	 esi
  00006	57		 push	 edi
  00007	8b 7d 08	 mov	 edi, DWORD PTR ___$ReturnUdt$[ebp]
  0000a	8b 70 04	 mov	 esi, DWORD PTR [eax+4]
  0000d	89 37		 mov	 DWORD PTR [edi], esi

; 1631 :         _Nodeptr _Trynode = _Result._Location._Parent;
; 1632 :         while (!_Trynode->_Isnil) {

  0000f	80 7e 0d 00	 cmp	 BYTE PTR [esi+13], 0
  00013	c7 47 04 00 00
	00 00		 mov	 DWORD PTR [edi+4], 0
  0001a	89 47 08	 mov	 DWORD PTR [edi+8], eax
  0001d	75 32		 jne	 SHORT $LN13@Find_lower
  0001f	53		 push	 ebx
  00020	8b 5d 0c	 mov	 ebx, DWORD PTR __Keyval$[ebp]
$LL2@Find_lower:

; 1634 :             if (_DEBUG_LT_PRED(_Getcomp(), _Traits::_Kfn(_Trynode->_Myval), _Keyval)) {

  00023	8d 46 10	 lea	 eax, DWORD PTR [esi+16]
  00026	89 37		 mov	 DWORD PTR [edi], esi
; File C:\Program Files\Microsoft Visual Studio\2022\Professional\VC\Tools\MSVC\14.44.35207\include\type_traits

; 2380 :         return _Left < _Right;

  00028	53		 push	 ebx
  00029	50		 push	 eax
  0002a	e8 00 00 00 00	 call	 ??$?MDU?$char_traits@D@std@@V?$allocator@D@1@@std@@YA_NABV?$basic_string@DU?$char_traits@D@std@@V?$allocator@D@2@@0@0@Z ; std::operator<<char,std::char_traits<char>,std::allocator<char> >
  0002f	83 c4 08	 add	 esp, 8
; File C:\Program Files\Microsoft Visual Studio\2022\Professional\VC\Tools\MSVC\14.44.35207\include\xtree

; 1634 :             if (_DEBUG_LT_PRED(_Getcomp(), _Traits::_Kfn(_Trynode->_Myval), _Keyval)) {

  00032	84 c0		 test	 al, al
  00034	74 07		 je	 SHORT $LN4@Find_lower

; 1635 :                 _Result._Location._Child = _Tree_child::_Right;
; 1636 :                 _Trynode                 = _Trynode->_Right;

  00036	8b 76 08	 mov	 esi, DWORD PTR [esi+8]
  00039	33 c0		 xor	 eax, eax

; 1637 :             } else {

  0003b	eb 0a		 jmp	 SHORT $LN5@Find_lower
$LN4@Find_lower:

; 1638 :                 _Result._Location._Child = _Tree_child::_Left;
; 1639 :                 _Result._Bound           = _Trynode;

  0003d	89 77 08	 mov	 DWORD PTR [edi+8], esi

; 1640 :                 _Trynode                 = _Trynode->_Left;

  00040	b8 01 00 00 00	 mov	 eax, 1
  00045	8b 36		 mov	 esi, DWORD PTR [esi]
$LN5@Find_lower:

; 1631 :         _Nodeptr _Trynode = _Result._Location._Parent;
; 1632 :         while (!_Trynode->_Isnil) {

  00047	89 47 04	 mov	 DWORD PTR [edi+4], eax
  0004a	80 7e 0d 00	 cmp	 BYTE PTR [esi+13], 0
  0004e	74 d3		 je	 SHORT $LL2@Find_lower
  00050	5b		 pop	 ebx
$LN13@Find_lower:

; 1641 :             }
; 1642 :         }
; 1643 : 
; 1644 :         return _Result;
; 1645 :     }

  00051	8b c7		 mov	 eax, edi
  00053	5f		 pop	 edi
  00054	5e		 pop	 esi
  00055	5d		 pop	 ebp
  00056	c2 08 00	 ret	 8
??$_Find_lower_bound@V?$basic_string@DU?$char_traits@D@std@@V?$allocator@D@2@@std@@@?$_Tree@V?$_Tmap_traits@V?$basic_string@DU?$char_traits@D@std@@V?$allocator@D@2@@std@@V12@U?$less@V?$basic_string@DU?$char_traits@D@std@@V?$allocator@D@2@@std@@@2@V?$allocator@U?$pair@$$CBV?$basic_string@DU?$char_traits@D@std@@V?$allocator@D@2@@std@@V12@@std@@@2@$0A@@std@@@std@@IBE?AU?$_Tree_find_result@PAU?$_Tree_node@U?$pair@$$CBV?$basic_string@DU?$char_traits@D@std@@V?$allocator@D@2@@std@@V12@@std@@PAX@std@@@1@ABV?$basic_string@DU?$char_traits@D@std@@V?$allocator@D@2@@1@@Z ENDP ; std::_Tree<std::_Tmap_traits<std::basic_string<char,std::char_traits<char>,std::allocator<char> >,std::basic_string<char,std::char_traits<char>,std::allocator<char> >,std::less<std::basic_string<char,std::char_traits<char>,std::allocator<char> > >,std::allocator<std::pair<std::basic_string<char,std::char_traits<char>,std::allocator<char> > const ,std::basic_string<char,std::char_traits<char>,std::allocator<char> > > >,0> >::_Find_lower_bound<std::basic_string<char,std::char_traits<char>,std::allocator<char> > >
_TEXT	ENDS
; Function compile flags: /Ogtp
;	COMDAT ??1?$pair@V?$basic_string@DU?$char_traits@D@std@@V?$allocator@D@2@@std@@H@std@@QAE@XZ
_TEXT	SEGMENT
??1?$pair@V?$basic_string@DU?$char_traits@D@std@@V?$allocator@D@2@@std@@H@std@@QAE@XZ PROC ; std::pair<std::basic_string<char,std::char_traits<char>,std::allocator<char> >,int>::~pair<std::basic_string<char,std::char_traits<char>,std::allocator<char> >,int>, COMDAT
; _this$ = ecx
  00000	e9 00 00 00 00	 jmp	 ??1?$basic_string@DU?$char_traits@D@std@@V?$allocator@D@2@@std@@QAE@XZ ; std::basic_string<char,std::char_traits<char>,std::allocator<char> >::~basic_string<char,std::char_traits<char>,std::allocator<char> >
??1?$pair@V?$basic_string@DU?$char_traits@D@std@@V?$allocator@D@2@@std@@H@std@@QAE@XZ ENDP ; std::pair<std::basic_string<char,std::char_traits<char>,std::allocator<char> >,int>::~pair<std::basic_string<char,std::char_traits<char>,std::allocator<char> >,int>
_TEXT	ENDS
; Function compile flags: /Ogtp
;	COMDAT ??1?$pair@$$CBV?$basic_string@DU?$char_traits@D@std@@V?$allocator@D@2@@std@@V12@@std@@QAE@XZ
_TEXT	SEGMENT
??1?$pair@$$CBV?$basic_string@DU?$char_traits@D@std@@V?$allocator@D@2@@std@@V12@@std@@QAE@XZ PROC ; std::pair<std::basic_string<char,std::char_traits<char>,std::allocator<char> > const ,std::basic_string<char,std::char_traits<char>,std::allocator<char> > >::~pair<std::basic_string<char,std::char_traits<char>,std::allocator<char> > const ,std::basic_string<char,std::char_traits<char>,std::allocator<char> > >, COMDAT
; _this$ = ecx
  00000	56		 push	 esi
  00001	8b f1		 mov	 esi, ecx
  00003	8d 4e 18	 lea	 ecx, DWORD PTR [esi+24]
  00006	e8 00 00 00 00	 call	 ??1?$basic_string@DU?$char_traits@D@std@@V?$allocator@D@2@@std@@QAE@XZ ; std::basic_string<char,std::char_traits<char>,std::allocator<char> >::~basic_string<char,std::char_traits<char>,std::allocator<char> >
  0000b	8b ce		 mov	 ecx, esi
  0000d	5e		 pop	 esi
  0000e	e9 00 00 00 00	 jmp	 ??1?$basic_string@DU?$char_traits@D@std@@V?$allocator@D@2@@std@@QAE@XZ ; std::basic_string<char,std::char_traits<char>,std::allocator<char> >::~basic_string<char,std::char_traits<char>,std::allocator<char> >
??1?$pair@$$CBV?$basic_string@DU?$char_traits@D@std@@V?$allocator@D@2@@std@@V12@@std@@QAE@XZ ENDP ; std::pair<std::basic_string<char,std::char_traits<char>,std::allocator<char> > const ,std::basic_string<char,std::char_traits<char>,std::allocator<char> > >::~pair<std::basic_string<char,std::char_traits<char>,std::allocator<char> > const ,std::basic_string<char,std::char_traits<char>,std::allocator<char> > >
_TEXT	ENDS
; Function compile flags: /Ogtp
; File C:\Program Files\Microsoft Visual Studio\2022\Professional\VC\Tools\MSVC\14.44.35207\include\xtree
; File C:\Program Files\Microsoft Visual Studio\2022\Professional\VC\Tools\MSVC\14.44.35207\include\xmemory
;	COMDAT ??__F?m_mapString@CScript@@2V?$map@V?$basic_string@DU?$char_traits@D@std@@V?$allocator@D@2@@std@@V12@U?$less@V?$basic_string@DU?$char_traits@D@std@@V?$allocator@D@2@@std@@@2@V?$allocator@U?$pair@$$CBV?$basic_string@DU?$char_traits@D@std@@V?$allocator@D@2@@std@@V12@@std@@@2@@std@@A@@YAXXZ
text$yd	SEGMENT
??__F?m_mapString@CScript@@2V?$map@V?$basic_string@DU?$char_traits@D@std@@V?$allocator@D@2@@std@@V12@U?$less@V?$basic_string@DU?$char_traits@D@std@@V?$allocator@D@2@@std@@@2@V?$allocator@U?$pair@$$CBV?$basic_string@DU?$char_traits@D@std@@V?$allocator@D@2@@std@@V12@@std@@@2@@std@@A@@YAXXZ PROC ; `dynamic atexit destructor for 'CScript::m_mapString'', COMDAT
; File C:\Program Files\Microsoft Visual Studio\2022\Professional\VC\Tools\MSVC\14.44.35207\include\xtree

; 777  :         _Erase_tree(_Al, _Myhead->_Parent);

  00000	a1 00 00 00 00	 mov	 eax, DWORD PTR ?m_mapString@CScript@@2V?$map@V?$basic_string@DU?$char_traits@D@std@@V?$allocator@D@2@@std@@V12@U?$less@V?$basic_string@DU?$char_traits@D@std@@V?$allocator@D@2@@std@@@2@V?$allocator@U?$pair@$$CBV?$basic_string@DU?$char_traits@D@std@@V?$allocator@D@2@@std@@V12@@std@@@2@@std@@A
  00005	b9 00 00 00 00	 mov	 ecx, OFFSET ?m_mapString@CScript@@2V?$map@V?$basic_string@DU?$char_traits@D@std@@V?$allocator@D@2@@std@@V12@U?$less@V?$basic_string@DU?$char_traits@D@std@@V?$allocator@D@2@@std@@@2@V?$allocator@U?$pair@$$CBV?$basic_string@DU?$char_traits@D@std@@V?$allocator@D@2@@std@@V12@@std@@@2@@std@@A ; CScript::m_mapString
  0000a	ff 70 04	 push	 DWORD PTR [eax+4]
  0000d	68 00 00 00 00	 push	 OFFSET ?m_mapString@CScript@@2V?$map@V?$basic_string@DU?$char_traits@D@std@@V?$allocator@D@2@@std@@V12@U?$less@V?$basic_string@DU?$char_traits@D@std@@V?$allocator@D@2@@std@@@2@V?$allocator@U?$pair@$$CBV?$basic_string@DU?$char_traits@D@std@@V?$allocator@D@2@@std@@V12@@std@@@2@@std@@A ; CScript::m_mapString
  00012	e8 00 00 00 00	 call	 ??$_Erase_tree@V?$allocator@U?$_Tree_node@U?$pair@$$CBV?$basic_string@DU?$char_traits@D@std@@V?$allocator@D@2@@std@@V12@@std@@PAX@std@@@std@@@?$_Tree_val@U?$_Tree_simple_types@U?$pair@$$CBV?$basic_string@DU?$char_traits@D@std@@V?$allocator@D@2@@std@@V12@@std@@@std@@@std@@QAEXAAV?$allocator@U?$_Tree_node@U?$pair@$$CBV?$basic_string@DU?$char_traits@D@std@@V?$allocator@D@2@@std@@V12@@std@@PAX@std@@@1@PAU?$_Tree_node@U?$pair@$$CBV?$basic_string@DU?$char_traits@D@std@@V?$allocator@D@2@@std@@V12@@std@@PAX@1@@Z ; std::_Tree_val<std::_Tree_simple_types<std::pair<std::basic_string<char,std::char_traits<char>,std::allocator<char> > const ,std::basic_string<char,std::char_traits<char>,std::allocator<char> > > > >::_Erase_tree<std::allocator<std::_Tree_node<std::pair<std::basic_string<char,std::char_traits<char>,std::allocator<char> > const ,std::basic_string<char,std::char_traits<char>,std::allocator<char> > >,void *> > >
; File C:\Program Files\Microsoft Visual Studio\2022\Professional\VC\Tools\MSVC\14.44.35207\include\xmemory

; 289  :         ::operator delete(_Ptr, _Bytes);

  00017	6a 40		 push	 64			; 00000040H
  00019	ff 35 00 00 00
	00		 push	 DWORD PTR ?m_mapString@CScript@@2V?$map@V?$basic_string@DU?$char_traits@D@std@@V?$allocator@D@2@@std@@V12@U?$less@V?$basic_string@DU?$char_traits@D@std@@V?$allocator@D@2@@std@@@2@V?$allocator@U?$pair@$$CBV?$basic_string@DU?$char_traits@D@std@@V?$allocator@D@2@@std@@V12@@std@@@2@@std@@A
  0001f	e8 00 00 00 00	 call	 ??3@YAXPAXI@Z		; operator delete
  00024	83 c4 08	 add	 esp, 8
  00027	c3		 ret	 0
??__F?m_mapString@CScript@@2V?$map@V?$basic_string@DU?$char_traits@D@std@@V?$allocator@D@2@@std@@V12@U?$less@V?$basic_string@DU?$char_traits@D@std@@V?$allocator@D@2@@std@@@2@V?$allocator@U?$pair@$$CBV?$basic_string@DU?$char_traits@D@std@@V?$allocator@D@2@@std@@V12@@std@@@2@@std@@A@@YAXXZ ENDP ; `dynamic atexit destructor for 'CScript::m_mapString''
text$yd	ENDS
; Function compile flags: /Ogtp
; File C:\IAGOS\server\v18\Source\Source\_Common\script.cpp
; File C:\Program Files\Microsoft Visual Studio\2022\Professional\VC\Tools\MSVC\14.44.35207\include\xmemory
; File C:\IAGOS\server\v18\Source\Source\_Common\script.cpp
; File C:\Program Files\Microsoft Visual Studio\2022\Professional\VC\Tools\MSVC\14.44.35207\include\xtree
; File C:\IAGOS\server\v18\Source\Source\_Common\script.cpp
;	COMDAT ??__E?m_mapString@CScript@@2V?$map@V?$basic_string@DU?$char_traits@D@std@@V?$allocator@D@2@@std@@V12@U?$less@V?$basic_string@DU?$char_traits@D@std@@V?$allocator@D@2@@std@@@2@V?$allocator@U?$pair@$$CBV?$basic_string@DU?$char_traits@D@std@@V?$allocator@D@2@@std@@V12@@std@@@2@@std@@A@@YAXXZ
text$di	SEGMENT
??__E?m_mapString@CScript@@2V?$map@V?$basic_string@DU?$char_traits@D@std@@V?$allocator@D@2@@std@@V12@U?$less@V?$basic_string@DU?$char_traits@D@std@@V?$allocator@D@2@@std@@@2@V?$allocator@U?$pair@$$CBV?$basic_string@DU?$char_traits@D@std@@V?$allocator@D@2@@std@@V12@@std@@@2@@std@@A@@YAXXZ PROC ; `dynamic initializer for 'CScript::m_mapString'', COMDAT
; File C:\Program Files\Microsoft Visual Studio\2022\Professional\VC\Tools\MSVC\14.44.35207\include\xmemory

; 136  :         return ::operator new(_Bytes);

  00000	6a 40		 push	 64			; 00000040H
  00002	e8 00 00 00 00	 call	 ??2@YAPAXI@Z		; operator new
; File C:\IAGOS\server\v18\Source\Source\_Common\script.cpp

; 61   : map<string, string>	CScript::m_mapString;

  00007	68 00 00 00 00	 push	 OFFSET ??__F?m_mapString@CScript@@2V?$map@V?$basic_string@DU?$char_traits@D@std@@V?$allocator@D@2@@std@@V12@U?$less@V?$basic_string@DU?$char_traits@D@std@@V?$allocator@D@2@@std@@@2@V?$allocator@U?$pair@$$CBV?$basic_string@DU?$char_traits@D@std@@V?$allocator@D@2@@std@@V12@@std@@@2@@std@@A@@YAXXZ ; `dynamic atexit destructor for 'CScript::m_mapString''
; File C:\Program Files\Microsoft Visual Studio\2022\Professional\VC\Tools\MSVC\14.44.35207\include\xtree

; 346  :         _Construct_in_place(_Pnode->_Left, _Pnode);

  0000c	89 00		 mov	 DWORD PTR [eax], eax

; 347  :         _Construct_in_place(_Pnode->_Parent, _Pnode);

  0000e	89 40 04	 mov	 DWORD PTR [eax+4], eax

; 348  :         _Construct_in_place(_Pnode->_Right, _Pnode);

  00011	89 40 08	 mov	 DWORD PTR [eax+8], eax

; 349  :         _Pnode->_Color = _Black;

  00014	66 c7 40 0c 01
	01		 mov	 WORD PTR [eax+12], 257	; 00000101H

; 1957 :         _Scary->_Myhead = _Node::_Buyheadnode(_Getal());

  0001a	a3 00 00 00 00	 mov	 DWORD PTR ?m_mapString@CScript@@2V?$map@V?$basic_string@DU?$char_traits@D@std@@V?$allocator@D@2@@std@@V12@U?$less@V?$basic_string@DU?$char_traits@D@std@@V?$allocator@D@2@@std@@@2@V?$allocator@U?$pair@$$CBV?$basic_string@DU?$char_traits@D@std@@V?$allocator@D@2@@std@@V12@@std@@@2@@std@@A, eax
; File C:\IAGOS\server\v18\Source\Source\_Common\script.cpp

; 61   : map<string, string>	CScript::m_mapString;

  0001f	e8 00 00 00 00	 call	 _atexit
  00024	83 c4 08	 add	 esp, 8
  00027	c3		 ret	 0
??__E?m_mapString@CScript@@2V?$map@V?$basic_string@DU?$char_traits@D@std@@V?$allocator@D@2@@std@@V12@U?$less@V?$basic_string@DU?$char_traits@D@std@@V?$allocator@D@2@@std@@@2@V?$allocator@U?$pair@$$CBV?$basic_string@DU?$char_traits@D@std@@V?$allocator@D@2@@std@@V12@@std@@@2@@std@@A@@YAXXZ ENDP ; `dynamic initializer for 'CScript::m_mapString''
text$di	ENDS
; Function compile flags: /Ogtp
; File C:\Program Files\Microsoft Visual Studio\2022\Professional\VC\Tools\MSVC\14.44.35207\include\xtree
;	COMDAT ?_Insert_node@?$_Tree_val@U?$_Tree_simple_types@U?$pair@$$CBV?$basic_string@DU?$char_traits@D@std@@V?$allocator@D@2@@std@@V12@@std@@@std@@@std@@QAEPAU?$_Tree_node@U?$pair@$$CBV?$basic_string@DU?$char_traits@D@std@@V?$allocator@D@2@@std@@V12@@std@@PAX@2@U?$_Tree_id@PAU?$_Tree_node@U?$pair@$$CBV?$basic_string@DU?$char_traits@D@std@@V?$allocator@D@2@@std@@V12@@std@@PAX@std@@@2@QAU32@@Z
_TEXT	SEGMENT
__Head$1$ = -4						; size = 4
__Loc$ = 8						; size = 8
__Newnode$ = 16						; size = 4
?_Insert_node@?$_Tree_val@U?$_Tree_simple_types@U?$pair@$$CBV?$basic_string@DU?$char_traits@D@std@@V?$allocator@D@2@@std@@V12@@std@@@std@@@std@@QAEPAU?$_Tree_node@U?$pair@$$CBV?$basic_string@DU?$char_traits@D@std@@V?$allocator@D@2@@std@@V12@@std@@PAX@2@U?$_Tree_id@PAU?$_Tree_node@U?$pair@$$CBV?$basic_string@DU?$char_traits@D@std@@V?$allocator@D@2@@std@@V12@@std@@PAX@std@@@2@QAU32@@Z PROC ; std::_Tree_val<std::_Tree_simple_types<std::pair<std::basic_string<char,std::char_traits<char>,std::allocator<char> > const ,std::basic_string<char,std::char_traits<char>,std::allocator<char> > > > >::_Insert_node, COMDAT
; _this$ = ecx

; 669  :     _Nodeptr _Insert_node(const _Tree_id<_Nodeptr> _Loc, const _Nodeptr _Newnode) noexcept {

  00000	55		 push	 ebp
  00001	8b ec		 mov	 ebp, esp
  00003	51		 push	 ecx

; 670  :         ++_Mysize;
; 671  :         const auto _Head  = _Myhead;
; 672  :         _Newnode->_Parent = _Loc._Parent;

  00004	8b 55 08	 mov	 edx, DWORD PTR __Loc$[ebp]
  00007	53		 push	 ebx
  00008	8b d9		 mov	 ebx, ecx
  0000a	57		 push	 edi
  0000b	8b 7d 10	 mov	 edi, DWORD PTR __Newnode$[ebp]
  0000e	8b 03		 mov	 eax, DWORD PTR [ebx]
  00010	ff 43 04	 inc	 DWORD PTR [ebx+4]
  00013	89 45 fc	 mov	 DWORD PTR __Head$1$[ebp], eax
  00016	89 57 04	 mov	 DWORD PTR [edi+4], edx

; 673  :         if (_Loc._Parent == _Head) { // first node in tree, just set head values

  00019	3b d0		 cmp	 edx, eax
  0001b	75 16		 jne	 SHORT $LN5@Insert_nod

; 674  :             _Head->_Left     = _Newnode;

  0001d	89 38		 mov	 DWORD PTR [eax], edi

; 675  :             _Head->_Parent   = _Newnode;

  0001f	89 78 04	 mov	 DWORD PTR [eax+4], edi

; 676  :             _Head->_Right    = _Newnode;

  00022	89 78 08	 mov	 DWORD PTR [eax+8], edi

; 735  :         return _Newnode;
; 736  :     }

  00025	8b c7		 mov	 eax, edi
  00027	c6 47 0c 01	 mov	 BYTE PTR [edi+12], 1
  0002b	5f		 pop	 edi
  0002c	5b		 pop	 ebx
  0002d	8b e5		 mov	 esp, ebp
  0002f	5d		 pop	 ebp
  00030	c2 0c 00	 ret	 12			; 0000000cH
$LN5@Insert_nod:

; 677  :             _Newnode->_Color = _Black; // the root is black
; 678  :             return _Newnode;
; 679  :         }
; 680  : 
; 681  :         _STL_INTERNAL_CHECK(_Loc._Child != _Tree_child::_Unused);
; 682  :         if (_Loc._Child == _Tree_child::_Right) { // add to right of _Loc._Parent

  00033	83 7d 0c 00	 cmp	 DWORD PTR __Loc$[ebp+4], 0
  00037	75 0d		 jne	 SHORT $LN6@Insert_nod

; 683  :             _STL_INTERNAL_CHECK(_Loc._Parent->_Right->_Isnil);
; 684  :             _Loc._Parent->_Right = _Newnode;

  00039	89 7a 08	 mov	 DWORD PTR [edx+8], edi

; 685  :             if (_Loc._Parent == _Head->_Right) { // remember rightmost node

  0003c	3b 50 08	 cmp	 edx, DWORD PTR [eax+8]
  0003f	75 0d		 jne	 SHORT $LN9@Insert_nod

; 686  :                 _Head->_Right = _Newnode;

  00041	89 78 08	 mov	 DWORD PTR [eax+8], edi

; 687  :             }
; 688  :         } else { // add to left of _Loc._Parent

  00044	eb 08		 jmp	 SHORT $LN9@Insert_nod
$LN6@Insert_nod:

; 689  :             _STL_INTERNAL_CHECK(_Loc._Parent->_Left->_Isnil);
; 690  :             _Loc._Parent->_Left = _Newnode;

  00046	89 3a		 mov	 DWORD PTR [edx], edi

; 691  :             if (_Loc._Parent == _Head->_Left) { // remember leftmost node

  00048	3b 10		 cmp	 edx, DWORD PTR [eax]
  0004a	75 02		 jne	 SHORT $LN9@Insert_nod

; 692  :                 _Head->_Left = _Newnode;

  0004c	89 38		 mov	 DWORD PTR [eax], edi
$LN9@Insert_nod:

; 693  :             }
; 694  :         }
; 695  : 
; 696  :         for (_Nodeptr _Pnode = _Newnode; _Pnode->_Parent->_Color == _Red;) {

  0004e	8b 4f 04	 mov	 ecx, DWORD PTR [edi+4]
  00051	8b c7		 mov	 eax, edi
  00053	80 79 0c 00	 cmp	 BYTE PTR [ecx+12], 0
  00057	0f 85 7d 01 00
	00		 jne	 $LN3@Insert_nod
  0005d	56		 push	 esi
  0005e	66 90		 npad	 2
$LL4@Insert_nod:

; 697  :             if (_Pnode->_Parent == _Pnode->_Parent->_Parent->_Left) { // fixup red-red in left subtree

  00060	8b 50 04	 mov	 edx, DWORD PTR [eax+4]
  00063	8b 72 04	 mov	 esi, DWORD PTR [edx+4]
  00066	8b 0e		 mov	 ecx, DWORD PTR [esi]
  00068	3b d1		 cmp	 edx, ecx
  0006a	0f 85 aa 00 00
	00		 jne	 $LN10@Insert_nod

; 698  :                 const auto _Parent_sibling = _Pnode->_Parent->_Parent->_Right;

  00070	8b 4e 08	 mov	 ecx, DWORD PTR [esi+8]

; 699  :                 if (_Parent_sibling->_Color == _Red) { // parent's sibling has two red children, blacken both

  00073	80 79 0c 00	 cmp	 BYTE PTR [ecx+12], 0
  00077	0f 84 a3 00 00
	00		 je	 $LN82@Insert_nod

; 700  :                     _Pnode->_Parent->_Color          = _Black;
; 701  :                     _Parent_sibling->_Color          = _Black;
; 702  :                     _Pnode->_Parent->_Parent->_Color = _Red;
; 703  :                     _Pnode                           = _Pnode->_Parent->_Parent;
; 704  :                 } else { // parent's sibling has red and black children
; 705  :                     if (_Pnode == _Pnode->_Parent->_Right) { // rotate right child to left

  0007d	8b 72 08	 mov	 esi, DWORD PTR [edx+8]
  00080	3b c6		 cmp	 eax, esi
  00082	75 37		 jne	 SHORT $LN57@Insert_nod

; 485  :         _Wherenode->_Right = _Pnode->_Left;

  00084	8b 0e		 mov	 ecx, DWORD PTR [esi]

; 706  :                         _Pnode = _Pnode->_Parent;

  00086	8b c2		 mov	 eax, edx

; 485  :         _Wherenode->_Right = _Pnode->_Left;

  00088	89 4a 08	 mov	 DWORD PTR [edx+8], ecx

; 486  : 
; 487  :         if (!_Pnode->_Left->_Isnil) {

  0008b	8b 0e		 mov	 ecx, DWORD PTR [esi]
  0008d	80 79 0d 00	 cmp	 BYTE PTR [ecx+13], 0
  00091	75 03		 jne	 SHORT $LN21@Insert_nod

; 488  :             _Pnode->_Left->_Parent = _Wherenode;

  00093	89 41 04	 mov	 DWORD PTR [ecx+4], eax
$LN21@Insert_nod:

; 489  :         }
; 490  : 
; 491  :         _Pnode->_Parent = _Wherenode->_Parent;

  00096	8b 4a 04	 mov	 ecx, DWORD PTR [edx+4]
  00099	89 4e 04	 mov	 DWORD PTR [esi+4], ecx

; 492  : 
; 493  :         if (_Wherenode == _Myhead->_Parent) {

  0009c	8b 0b		 mov	 ecx, DWORD PTR [ebx]
  0009e	3b 41 04	 cmp	 eax, DWORD PTR [ecx+4]
  000a1	75 05		 jne	 SHORT $LN22@Insert_nod

; 494  :             _Myhead->_Parent = _Pnode;

  000a3	89 71 04	 mov	 DWORD PTR [ecx+4], esi
  000a6	eb 0e		 jmp	 SHORT $LN25@Insert_nod
$LN22@Insert_nod:

; 495  :         } else if (_Wherenode == _Wherenode->_Parent->_Left) {

  000a8	8b 4a 04	 mov	 ecx, DWORD PTR [edx+4]
  000ab	3b 01		 cmp	 eax, DWORD PTR [ecx]
  000ad	75 04		 jne	 SHORT $LN24@Insert_nod

; 496  :             _Wherenode->_Parent->_Left = _Pnode;

  000af	89 31		 mov	 DWORD PTR [ecx], esi

; 497  :         } else {

  000b1	eb 03		 jmp	 SHORT $LN25@Insert_nod
$LN24@Insert_nod:

; 498  :             _Wherenode->_Parent->_Right = _Pnode;

  000b3	89 71 08	 mov	 DWORD PTR [ecx+8], esi
$LN25@Insert_nod:

; 499  :         }
; 500  : 
; 501  :         _Pnode->_Left       = _Wherenode;

  000b6	89 06		 mov	 DWORD PTR [esi], eax

; 502  :         _Wherenode->_Parent = _Pnode;

  000b8	89 70 04	 mov	 DWORD PTR [eax+4], esi
$LN57@Insert_nod:

; 707  :                         _Lrotate(_Pnode);
; 708  :                     }
; 709  : 
; 710  :                     _Pnode->_Parent->_Color          = _Black; // propagate red up

  000bb	8b 48 04	 mov	 ecx, DWORD PTR [eax+4]
  000be	c6 41 0c 01	 mov	 BYTE PTR [ecx+12], 1

; 711  :                     _Pnode->_Parent->_Parent->_Color = _Red;

  000c2	8b 48 04	 mov	 ecx, DWORD PTR [eax+4]
  000c5	8b 49 04	 mov	 ecx, DWORD PTR [ecx+4]
  000c8	c6 41 0c 00	 mov	 BYTE PTR [ecx+12], 0

; 712  :                     _Rrotate(_Pnode->_Parent->_Parent);

  000cc	8b 48 04	 mov	 ecx, DWORD PTR [eax+4]
  000cf	8b 51 04	 mov	 edx, DWORD PTR [ecx+4]

; 506  :         _Nodeptr _Pnode   = _Wherenode->_Left;

  000d2	8b 32		 mov	 esi, DWORD PTR [edx]

; 507  :         _Wherenode->_Left = _Pnode->_Right;

  000d4	8b 4e 08	 mov	 ecx, DWORD PTR [esi+8]
  000d7	89 0a		 mov	 DWORD PTR [edx], ecx

; 508  : 
; 509  :         if (!_Pnode->_Right->_Isnil) {

  000d9	8b 4e 08	 mov	 ecx, DWORD PTR [esi+8]
  000dc	80 79 0d 00	 cmp	 BYTE PTR [ecx+13], 0
  000e0	75 03		 jne	 SHORT $LN29@Insert_nod

; 510  :             _Pnode->_Right->_Parent = _Wherenode;

  000e2	89 51 04	 mov	 DWORD PTR [ecx+4], edx
$LN29@Insert_nod:

; 511  :         }
; 512  : 
; 513  :         _Pnode->_Parent = _Wherenode->_Parent;

  000e5	8b 4a 04	 mov	 ecx, DWORD PTR [edx+4]
  000e8	89 4e 04	 mov	 DWORD PTR [esi+4], ecx

; 514  : 
; 515  :         if (_Wherenode == _Myhead->_Parent) {

  000eb	8b 0b		 mov	 ecx, DWORD PTR [ebx]
  000ed	3b 51 04	 cmp	 edx, DWORD PTR [ecx+4]
  000f0	75 0b		 jne	 SHORT $LN30@Insert_nod

; 516  :             _Myhead->_Parent = _Pnode;

  000f2	89 71 04	 mov	 DWORD PTR [ecx+4], esi

; 521  :         }
; 522  : 
; 523  :         _Pnode->_Right      = _Wherenode;

  000f5	89 56 08	 mov	 DWORD PTR [esi+8], edx

; 713  :                 }
; 714  :             } else { // fixup red-red in right subtree

  000f8	e9 cc 00 00 00	 jmp	 $LN81@Insert_nod
$LN30@Insert_nod:

; 517  :         } else if (_Wherenode == _Wherenode->_Parent->_Right) {

  000fd	8b 4a 04	 mov	 ecx, DWORD PTR [edx+4]
  00100	3b 51 08	 cmp	 edx, DWORD PTR [ecx+8]
  00103	75 0b		 jne	 SHORT $LN32@Insert_nod

; 518  :             _Wherenode->_Parent->_Right = _Pnode;

  00105	89 71 08	 mov	 DWORD PTR [ecx+8], esi

; 521  :         }
; 522  : 
; 523  :         _Pnode->_Right      = _Wherenode;

  00108	89 56 08	 mov	 DWORD PTR [esi+8], edx

; 713  :                 }
; 714  :             } else { // fixup red-red in right subtree

  0010b	e9 b9 00 00 00	 jmp	 $LN81@Insert_nod
$LN32@Insert_nod:

; 520  :             _Wherenode->_Parent->_Left = _Pnode;

  00110	89 31		 mov	 DWORD PTR [ecx], esi

; 521  :         }
; 522  : 
; 523  :         _Pnode->_Right      = _Wherenode;

  00112	89 56 08	 mov	 DWORD PTR [esi+8], edx

; 713  :                 }
; 714  :             } else { // fixup red-red in right subtree

  00115	e9 af 00 00 00	 jmp	 $LN81@Insert_nod
$LN10@Insert_nod:

; 715  :                 const auto _Parent_sibling = _Pnode->_Parent->_Parent->_Left;
; 716  :                 if (_Parent_sibling->_Color == _Red) { // parent's sibling has two red children, blacken both

  0011a	80 79 0c 00	 cmp	 BYTE PTR [ecx+12], 0
  0011e	75 1d		 jne	 SHORT $LN15@Insert_nod
$LN82@Insert_nod:

; 693  :             }
; 694  :         }
; 695  : 
; 696  :         for (_Nodeptr _Pnode = _Newnode; _Pnode->_Parent->_Color == _Red;) {

  00120	c6 42 0c 01	 mov	 BYTE PTR [edx+12], 1
  00124	c6 41 0c 01	 mov	 BYTE PTR [ecx+12], 1
  00128	8b 48 04	 mov	 ecx, DWORD PTR [eax+4]
  0012b	8b 49 04	 mov	 ecx, DWORD PTR [ecx+4]
  0012e	c6 41 0c 00	 mov	 BYTE PTR [ecx+12], 0
  00132	8b 48 04	 mov	 ecx, DWORD PTR [eax+4]
  00135	8b 41 04	 mov	 eax, DWORD PTR [ecx+4]
  00138	e9 8f 00 00 00	 jmp	 $LN2@Insert_nod
$LN15@Insert_nod:

; 717  :                     _Pnode->_Parent->_Color          = _Black;
; 718  :                     _Parent_sibling->_Color          = _Black;
; 719  :                     _Pnode->_Parent->_Parent->_Color = _Red;
; 720  :                     _Pnode                           = _Pnode->_Parent->_Parent;
; 721  :                 } else { // parent's sibling has red and black children
; 722  :                     if (_Pnode == _Pnode->_Parent->_Left) { // rotate left child to right

  0013d	8b 32		 mov	 esi, DWORD PTR [edx]
  0013f	3b c6		 cmp	 eax, esi
  00141	75 3a		 jne	 SHORT $LN42@Insert_nod

; 507  :         _Wherenode->_Left = _Pnode->_Right;

  00143	8b 4e 08	 mov	 ecx, DWORD PTR [esi+8]

; 723  :                         _Pnode = _Pnode->_Parent;

  00146	8b c2		 mov	 eax, edx

; 507  :         _Wherenode->_Left = _Pnode->_Right;

  00148	89 08		 mov	 DWORD PTR [eax], ecx

; 508  : 
; 509  :         if (!_Pnode->_Right->_Isnil) {

  0014a	8b 4e 08	 mov	 ecx, DWORD PTR [esi+8]
  0014d	80 79 0d 00	 cmp	 BYTE PTR [ecx+13], 0
  00151	75 03		 jne	 SHORT $LN37@Insert_nod

; 510  :             _Pnode->_Right->_Parent = _Wherenode;

  00153	89 41 04	 mov	 DWORD PTR [ecx+4], eax
$LN37@Insert_nod:

; 511  :         }
; 512  : 
; 513  :         _Pnode->_Parent = _Wherenode->_Parent;

  00156	8b 4a 04	 mov	 ecx, DWORD PTR [edx+4]
  00159	89 4e 04	 mov	 DWORD PTR [esi+4], ecx

; 514  : 
; 515  :         if (_Wherenode == _Myhead->_Parent) {

  0015c	8b 0b		 mov	 ecx, DWORD PTR [ebx]
  0015e	3b 41 04	 cmp	 eax, DWORD PTR [ecx+4]
  00161	75 05		 jne	 SHORT $LN38@Insert_nod

; 516  :             _Myhead->_Parent = _Pnode;

  00163	89 71 04	 mov	 DWORD PTR [ecx+4], esi
  00166	eb 0f		 jmp	 SHORT $LN41@Insert_nod
$LN38@Insert_nod:

; 517  :         } else if (_Wherenode == _Wherenode->_Parent->_Right) {

  00168	8b 4a 04	 mov	 ecx, DWORD PTR [edx+4]
  0016b	3b 41 08	 cmp	 eax, DWORD PTR [ecx+8]
  0016e	75 05		 jne	 SHORT $LN40@Insert_nod

; 518  :             _Wherenode->_Parent->_Right = _Pnode;

  00170	89 71 08	 mov	 DWORD PTR [ecx+8], esi

; 519  :         } else {

  00173	eb 02		 jmp	 SHORT $LN41@Insert_nod
$LN40@Insert_nod:

; 520  :             _Wherenode->_Parent->_Left = _Pnode;

  00175	89 31		 mov	 DWORD PTR [ecx], esi
$LN41@Insert_nod:

; 521  :         }
; 522  : 
; 523  :         _Pnode->_Right      = _Wherenode;

  00177	89 46 08	 mov	 DWORD PTR [esi+8], eax

; 524  :         _Wherenode->_Parent = _Pnode;

  0017a	89 70 04	 mov	 DWORD PTR [eax+4], esi
$LN42@Insert_nod:

; 724  :                         _Rrotate(_Pnode);
; 725  :                     }
; 726  : 
; 727  :                     _Pnode->_Parent->_Color          = _Black; // propagate red up

  0017d	8b 48 04	 mov	 ecx, DWORD PTR [eax+4]
  00180	c6 41 0c 01	 mov	 BYTE PTR [ecx+12], 1

; 728  :                     _Pnode->_Parent->_Parent->_Color = _Red;

  00184	8b 48 04	 mov	 ecx, DWORD PTR [eax+4]
  00187	8b 49 04	 mov	 ecx, DWORD PTR [ecx+4]
  0018a	c6 41 0c 00	 mov	 BYTE PTR [ecx+12], 0

; 729  :                     _Lrotate(_Pnode->_Parent->_Parent);

  0018e	8b 48 04	 mov	 ecx, DWORD PTR [eax+4]
  00191	8b 51 04	 mov	 edx, DWORD PTR [ecx+4]

; 484  :         _Nodeptr _Pnode    = _Wherenode->_Right;

  00194	8b 72 08	 mov	 esi, DWORD PTR [edx+8]

; 485  :         _Wherenode->_Right = _Pnode->_Left;

  00197	8b 0e		 mov	 ecx, DWORD PTR [esi]
  00199	89 4a 08	 mov	 DWORD PTR [edx+8], ecx

; 486  : 
; 487  :         if (!_Pnode->_Left->_Isnil) {

  0019c	8b 0e		 mov	 ecx, DWORD PTR [esi]
  0019e	80 79 0d 00	 cmp	 BYTE PTR [ecx+13], 0
  001a2	75 03		 jne	 SHORT $LN45@Insert_nod

; 488  :             _Pnode->_Left->_Parent = _Wherenode;

  001a4	89 51 04	 mov	 DWORD PTR [ecx+4], edx
$LN45@Insert_nod:

; 489  :         }
; 490  : 
; 491  :         _Pnode->_Parent = _Wherenode->_Parent;

  001a7	8b 4a 04	 mov	 ecx, DWORD PTR [edx+4]
  001aa	89 4e 04	 mov	 DWORD PTR [esi+4], ecx

; 492  : 
; 493  :         if (_Wherenode == _Myhead->_Parent) {

  001ad	8b 0b		 mov	 ecx, DWORD PTR [ebx]
  001af	3b 51 04	 cmp	 edx, DWORD PTR [ecx+4]
  001b2	75 05		 jne	 SHORT $LN46@Insert_nod

; 494  :             _Myhead->_Parent = _Pnode;

  001b4	89 71 04	 mov	 DWORD PTR [ecx+4], esi
  001b7	eb 0e		 jmp	 SHORT $LN49@Insert_nod
$LN46@Insert_nod:

; 495  :         } else if (_Wherenode == _Wherenode->_Parent->_Left) {

  001b9	8b 4a 04	 mov	 ecx, DWORD PTR [edx+4]
  001bc	3b 11		 cmp	 edx, DWORD PTR [ecx]
  001be	75 04		 jne	 SHORT $LN48@Insert_nod

; 496  :             _Wherenode->_Parent->_Left = _Pnode;

  001c0	89 31		 mov	 DWORD PTR [ecx], esi

; 497  :         } else {

  001c2	eb 03		 jmp	 SHORT $LN49@Insert_nod
$LN48@Insert_nod:

; 498  :             _Wherenode->_Parent->_Right = _Pnode;

  001c4	89 71 08	 mov	 DWORD PTR [ecx+8], esi
$LN49@Insert_nod:

; 499  :         }
; 500  : 
; 501  :         _Pnode->_Left       = _Wherenode;

  001c7	89 16		 mov	 DWORD PTR [esi], edx
$LN81@Insert_nod:

; 693  :             }
; 694  :         }
; 695  : 
; 696  :         for (_Nodeptr _Pnode = _Newnode; _Pnode->_Parent->_Color == _Red;) {

  001c9	89 72 04	 mov	 DWORD PTR [edx+4], esi
$LN2@Insert_nod:
  001cc	8b 48 04	 mov	 ecx, DWORD PTR [eax+4]
  001cf	80 79 0c 00	 cmp	 BYTE PTR [ecx+12], 0
  001d3	0f 84 87 fe ff
	ff		 je	 $LL4@Insert_nod
  001d9	5e		 pop	 esi
$LN3@Insert_nod:

; 730  :                 }
; 731  :             }
; 732  :         }
; 733  : 
; 734  :         _Head->_Parent->_Color = _Black; // root is always black

  001da	8b 45 fc	 mov	 eax, DWORD PTR __Head$1$[ebp]
  001dd	8b 40 04	 mov	 eax, DWORD PTR [eax+4]
  001e0	c6 40 0c 01	 mov	 BYTE PTR [eax+12], 1

; 735  :         return _Newnode;
; 736  :     }

  001e4	8b c7		 mov	 eax, edi
  001e6	5f		 pop	 edi
  001e7	5b		 pop	 ebx
  001e8	8b e5		 mov	 esp, ebp
  001ea	5d		 pop	 ebp
  001eb	c2 0c 00	 ret	 12			; 0000000cH
?_Insert_node@?$_Tree_val@U?$_Tree_simple_types@U?$pair@$$CBV?$basic_string@DU?$char_traits@D@std@@V?$allocator@D@2@@std@@V12@@std@@@std@@@std@@QAEPAU?$_Tree_node@U?$pair@$$CBV?$basic_string@DU?$char_traits@D@std@@V?$allocator@D@2@@std@@V12@@std@@PAX@2@U?$_Tree_id@PAU?$_Tree_node@U?$pair@$$CBV?$basic_string@DU?$char_traits@D@std@@V?$allocator@D@2@@std@@V12@@std@@PAX@std@@@2@QAU32@@Z ENDP ; std::_Tree_val<std::_Tree_simple_types<std::pair<std::basic_string<char,std::char_traits<char>,std::allocator<char> > const ,std::basic_string<char,std::char_traits<char>,std::allocator<char> > > > >::_Insert_node
_TEXT	ENDS
; Function compile flags: /Ogtp
; File C:\Program Files\Microsoft Visual Studio\2022\Professional\VC\Tools\MSVC\14.44.35207\include\xtree
; File C:\Program Files\Microsoft Visual Studio\2022\Professional\VC\Tools\MSVC\14.44.35207\include\xmemory
;	COMDAT ??__F?m_defines@CScript@@2V?$map@V?$basic_string@DU?$char_traits@D@std@@V?$allocator@D@2@@std@@HU?$less@V?$basic_string@DU?$char_traits@D@std@@V?$allocator@D@2@@std@@@2@V?$allocator@U?$pair@$$CBV?$basic_string@DU?$char_traits@D@std@@V?$allocator@D@2@@std@@H@std@@@2@@std@@A@@YAXXZ
text$yd	SEGMENT
??__F?m_defines@CScript@@2V?$map@V?$basic_string@DU?$char_traits@D@std@@V?$allocator@D@2@@std@@HU?$less@V?$basic_string@DU?$char_traits@D@std@@V?$allocator@D@2@@std@@@2@V?$allocator@U?$pair@$$CBV?$basic_string@DU?$char_traits@D@std@@V?$allocator@D@2@@std@@H@std@@@2@@std@@A@@YAXXZ PROC ; `dynamic atexit destructor for 'CScript::m_defines'', COMDAT
; File C:\Program Files\Microsoft Visual Studio\2022\Professional\VC\Tools\MSVC\14.44.35207\include\xtree

; 777  :         _Erase_tree(_Al, _Myhead->_Parent);

  00000	a1 00 00 00 00	 mov	 eax, DWORD PTR ?m_defines@CScript@@2V?$map@V?$basic_string@DU?$char_traits@D@std@@V?$allocator@D@2@@std@@HU?$less@V?$basic_string@DU?$char_traits@D@std@@V?$allocator@D@2@@std@@@2@V?$allocator@U?$pair@$$CBV?$basic_string@DU?$char_traits@D@std@@V?$allocator@D@2@@std@@H@std@@@2@@std@@A
  00005	b9 00 00 00 00	 mov	 ecx, OFFSET ?m_defines@CScript@@2V?$map@V?$basic_string@DU?$char_traits@D@std@@V?$allocator@D@2@@std@@HU?$less@V?$basic_string@DU?$char_traits@D@std@@V?$allocator@D@2@@std@@@2@V?$allocator@U?$pair@$$CBV?$basic_string@DU?$char_traits@D@std@@V?$allocator@D@2@@std@@H@std@@@2@@std@@A ; CScript::m_defines
  0000a	ff 70 04	 push	 DWORD PTR [eax+4]
  0000d	68 00 00 00 00	 push	 OFFSET ?m_defines@CScript@@2V?$map@V?$basic_string@DU?$char_traits@D@std@@V?$allocator@D@2@@std@@HU?$less@V?$basic_string@DU?$char_traits@D@std@@V?$allocator@D@2@@std@@@2@V?$allocator@U?$pair@$$CBV?$basic_string@DU?$char_traits@D@std@@V?$allocator@D@2@@std@@H@std@@@2@@std@@A ; CScript::m_defines
  00012	e8 00 00 00 00	 call	 ??$_Erase_tree@V?$allocator@U?$_Tree_node@U?$pair@$$CBV?$basic_string@DU?$char_traits@D@std@@V?$allocator@D@2@@std@@H@std@@PAX@std@@@std@@@?$_Tree_val@U?$_Tree_simple_types@U?$pair@$$CBV?$basic_string@DU?$char_traits@D@std@@V?$allocator@D@2@@std@@H@std@@@std@@@std@@QAEXAAV?$allocator@U?$_Tree_node@U?$pair@$$CBV?$basic_string@DU?$char_traits@D@std@@V?$allocator@D@2@@std@@H@std@@PAX@std@@@1@PAU?$_Tree_node@U?$pair@$$CBV?$basic_string@DU?$char_traits@D@std@@V?$allocator@D@2@@std@@H@std@@PAX@1@@Z ; std::_Tree_val<std::_Tree_simple_types<std::pair<std::basic_string<char,std::char_traits<char>,std::allocator<char> > const ,int> > >::_Erase_tree<std::allocator<std::_Tree_node<std::pair<std::basic_string<char,std::char_traits<char>,std::allocator<char> > const ,int>,void *> > >
; File C:\Program Files\Microsoft Visual Studio\2022\Professional\VC\Tools\MSVC\14.44.35207\include\xmemory

; 289  :         ::operator delete(_Ptr, _Bytes);

  00017	6a 2c		 push	 44			; 0000002cH
  00019	ff 35 00 00 00
	00		 push	 DWORD PTR ?m_defines@CScript@@2V?$map@V?$basic_string@DU?$char_traits@D@std@@V?$allocator@D@2@@std@@HU?$less@V?$basic_string@DU?$char_traits@D@std@@V?$allocator@D@2@@std@@@2@V?$allocator@U?$pair@$$CBV?$basic_string@DU?$char_traits@D@std@@V?$allocator@D@2@@std@@H@std@@@2@@std@@A
  0001f	e8 00 00 00 00	 call	 ??3@YAXPAXI@Z		; operator delete
  00024	83 c4 08	 add	 esp, 8
  00027	c3		 ret	 0
??__F?m_defines@CScript@@2V?$map@V?$basic_string@DU?$char_traits@D@std@@V?$allocator@D@2@@std@@HU?$less@V?$basic_string@DU?$char_traits@D@std@@V?$allocator@D@2@@std@@@2@V?$allocator@U?$pair@$$CBV?$basic_string@DU?$char_traits@D@std@@V?$allocator@D@2@@std@@H@std@@@2@@std@@A@@YAXXZ ENDP ; `dynamic atexit destructor for 'CScript::m_defines''
text$yd	ENDS
; Function compile flags: /Ogtp
; File C:\IAGOS\server\v18\Source\Source\_Common\script.cpp
; File C:\Program Files\Microsoft Visual Studio\2022\Professional\VC\Tools\MSVC\14.44.35207\include\xmemory
; File C:\IAGOS\server\v18\Source\Source\_Common\script.cpp
; File C:\Program Files\Microsoft Visual Studio\2022\Professional\VC\Tools\MSVC\14.44.35207\include\xtree
; File C:\IAGOS\server\v18\Source\Source\_Common\script.cpp
;	COMDAT ??__E?m_defines@CScript@@2V?$map@V?$basic_string@DU?$char_traits@D@std@@V?$allocator@D@2@@std@@HU?$less@V?$basic_string@DU?$char_traits@D@std@@V?$allocator@D@2@@std@@@2@V?$allocator@U?$pair@$$CBV?$basic_string@DU?$char_traits@D@std@@V?$allocator@D@2@@std@@H@std@@@2@@std@@A@@YAXXZ
text$di	SEGMENT
??__E?m_defines@CScript@@2V?$map@V?$basic_string@DU?$char_traits@D@std@@V?$allocator@D@2@@std@@HU?$less@V?$basic_string@DU?$char_traits@D@std@@V?$allocator@D@2@@std@@@2@V?$allocator@U?$pair@$$CBV?$basic_string@DU?$char_traits@D@std@@V?$allocator@D@2@@std@@H@std@@@2@@std@@A@@YAXXZ PROC ; `dynamic initializer for 'CScript::m_defines'', COMDAT
; File C:\Program Files\Microsoft Visual Studio\2022\Professional\VC\Tools\MSVC\14.44.35207\include\xmemory

; 136  :         return ::operator new(_Bytes);

  00000	6a 2c		 push	 44			; 0000002cH
  00002	e8 00 00 00 00	 call	 ??2@YAPAXI@Z		; operator new
; File C:\IAGOS\server\v18\Source\Source\_Common\script.cpp

; 60   : map<string, int> CScript::m_defines;

  00007	68 00 00 00 00	 push	 OFFSET ??__F?m_defines@CScript@@2V?$map@V?$basic_string@DU?$char_traits@D@std@@V?$allocator@D@2@@std@@HU?$less@V?$basic_string@DU?$char_traits@D@std@@V?$allocator@D@2@@std@@@2@V?$allocator@U?$pair@$$CBV?$basic_string@DU?$char_traits@D@std@@V?$allocator@D@2@@std@@H@std@@@2@@std@@A@@YAXXZ ; `dynamic atexit destructor for 'CScript::m_defines''
; File C:\Program Files\Microsoft Visual Studio\2022\Professional\VC\Tools\MSVC\14.44.35207\include\xtree

; 346  :         _Construct_in_place(_Pnode->_Left, _Pnode);

  0000c	89 00		 mov	 DWORD PTR [eax], eax

; 347  :         _Construct_in_place(_Pnode->_Parent, _Pnode);

  0000e	89 40 04	 mov	 DWORD PTR [eax+4], eax

; 348  :         _Construct_in_place(_Pnode->_Right, _Pnode);

  00011	89 40 08	 mov	 DWORD PTR [eax+8], eax

; 349  :         _Pnode->_Color = _Black;

  00014	66 c7 40 0c 01
	01		 mov	 WORD PTR [eax+12], 257	; 00000101H

; 1957 :         _Scary->_Myhead = _Node::_Buyheadnode(_Getal());

  0001a	a3 00 00 00 00	 mov	 DWORD PTR ?m_defines@CScript@@2V?$map@V?$basic_string@DU?$char_traits@D@std@@V?$allocator@D@2@@std@@HU?$less@V?$basic_string@DU?$char_traits@D@std@@V?$allocator@D@2@@std@@@2@V?$allocator@U?$pair@$$CBV?$basic_string@DU?$char_traits@D@std@@V?$allocator@D@2@@std@@H@std@@@2@@std@@A, eax
; File C:\IAGOS\server\v18\Source\Source\_Common\script.cpp

; 60   : map<string, int> CScript::m_defines;

  0001f	e8 00 00 00 00	 call	 _atexit
  00024	83 c4 08	 add	 esp, 8
  00027	c3		 ret	 0
??__E?m_defines@CScript@@2V?$map@V?$basic_string@DU?$char_traits@D@std@@V?$allocator@D@2@@std@@HU?$less@V?$basic_string@DU?$char_traits@D@std@@V?$allocator@D@2@@std@@@2@V?$allocator@U?$pair@$$CBV?$basic_string@DU?$char_traits@D@std@@V?$allocator@D@2@@std@@H@std@@@2@@std@@A@@YAXXZ ENDP ; `dynamic initializer for 'CScript::m_defines''
text$di	ENDS
; Function compile flags: /Ogtp
; File C:\Program Files\Microsoft Visual Studio\2022\Professional\VC\Tools\MSVC\14.44.35207\include\xtree
;	COMDAT ?_Insert_node@?$_Tree_val@U?$_Tree_simple_types@U?$pair@$$CBV?$basic_string@DU?$char_traits@D@std@@V?$allocator@D@2@@std@@H@std@@@std@@@std@@QAEPAU?$_Tree_node@U?$pair@$$CBV?$basic_string@DU?$char_traits@D@std@@V?$allocator@D@2@@std@@H@std@@PAX@2@U?$_Tree_id@PAU?$_Tree_node@U?$pair@$$CBV?$basic_string@DU?$char_traits@D@std@@V?$allocator@D@2@@std@@H@std@@PAX@std@@@2@QAU32@@Z
_TEXT	SEGMENT
__Head$1$ = -4						; size = 4
__Loc$ = 8						; size = 8
__Newnode$ = 16						; size = 4
?_Insert_node@?$_Tree_val@U?$_Tree_simple_types@U?$pair@$$CBV?$basic_string@DU?$char_traits@D@std@@V?$allocator@D@2@@std@@H@std@@@std@@@std@@QAEPAU?$_Tree_node@U?$pair@$$CBV?$basic_string@DU?$char_traits@D@std@@V?$allocator@D@2@@std@@H@std@@PAX@2@U?$_Tree_id@PAU?$_Tree_node@U?$pair@$$CBV?$basic_string@DU?$char_traits@D@std@@V?$allocator@D@2@@std@@H@std@@PAX@std@@@2@QAU32@@Z PROC ; std::_Tree_val<std::_Tree_simple_types<std::pair<std::basic_string<char,std::char_traits<char>,std::allocator<char> > const ,int> > >::_Insert_node, COMDAT
; _this$ = ecx

; 669  :     _Nodeptr _Insert_node(const _Tree_id<_Nodeptr> _Loc, const _Nodeptr _Newnode) noexcept {

  00000	55		 push	 ebp
  00001	8b ec		 mov	 ebp, esp
  00003	51		 push	 ecx

; 670  :         ++_Mysize;
; 671  :         const auto _Head  = _Myhead;
; 672  :         _Newnode->_Parent = _Loc._Parent;

  00004	8b 55 08	 mov	 edx, DWORD PTR __Loc$[ebp]
  00007	53		 push	 ebx
  00008	8b d9		 mov	 ebx, ecx
  0000a	57		 push	 edi
  0000b	8b 7d 10	 mov	 edi, DWORD PTR __Newnode$[ebp]
  0000e	8b 03		 mov	 eax, DWORD PTR [ebx]
  00010	ff 43 04	 inc	 DWORD PTR [ebx+4]
  00013	89 45 fc	 mov	 DWORD PTR __Head$1$[ebp], eax
  00016	89 57 04	 mov	 DWORD PTR [edi+4], edx

; 673  :         if (_Loc._Parent == _Head) { // first node in tree, just set head values

  00019	3b d0		 cmp	 edx, eax
  0001b	75 16		 jne	 SHORT $LN5@Insert_nod

; 674  :             _Head->_Left     = _Newnode;

  0001d	89 38		 mov	 DWORD PTR [eax], edi

; 675  :             _Head->_Parent   = _Newnode;

  0001f	89 78 04	 mov	 DWORD PTR [eax+4], edi

; 676  :             _Head->_Right    = _Newnode;

  00022	89 78 08	 mov	 DWORD PTR [eax+8], edi

; 735  :         return _Newnode;
; 736  :     }

  00025	8b c7		 mov	 eax, edi
  00027	c6 47 0c 01	 mov	 BYTE PTR [edi+12], 1
  0002b	5f		 pop	 edi
  0002c	5b		 pop	 ebx
  0002d	8b e5		 mov	 esp, ebp
  0002f	5d		 pop	 ebp
  00030	c2 0c 00	 ret	 12			; 0000000cH
$LN5@Insert_nod:

; 677  :             _Newnode->_Color = _Black; // the root is black
; 678  :             return _Newnode;
; 679  :         }
; 680  : 
; 681  :         _STL_INTERNAL_CHECK(_Loc._Child != _Tree_child::_Unused);
; 682  :         if (_Loc._Child == _Tree_child::_Right) { // add to right of _Loc._Parent

  00033	83 7d 0c 00	 cmp	 DWORD PTR __Loc$[ebp+4], 0
  00037	75 0d		 jne	 SHORT $LN6@Insert_nod

; 683  :             _STL_INTERNAL_CHECK(_Loc._Parent->_Right->_Isnil);
; 684  :             _Loc._Parent->_Right = _Newnode;

  00039	89 7a 08	 mov	 DWORD PTR [edx+8], edi

; 685  :             if (_Loc._Parent == _Head->_Right) { // remember rightmost node

  0003c	3b 50 08	 cmp	 edx, DWORD PTR [eax+8]
  0003f	75 0d		 jne	 SHORT $LN9@Insert_nod

; 686  :                 _Head->_Right = _Newnode;

  00041	89 78 08	 mov	 DWORD PTR [eax+8], edi

; 687  :             }
; 688  :         } else { // add to left of _Loc._Parent

  00044	eb 08		 jmp	 SHORT $LN9@Insert_nod
$LN6@Insert_nod:

; 689  :             _STL_INTERNAL_CHECK(_Loc._Parent->_Left->_Isnil);
; 690  :             _Loc._Parent->_Left = _Newnode;

  00046	89 3a		 mov	 DWORD PTR [edx], edi

; 691  :             if (_Loc._Parent == _Head->_Left) { // remember leftmost node

  00048	3b 10		 cmp	 edx, DWORD PTR [eax]
  0004a	75 02		 jne	 SHORT $LN9@Insert_nod

; 692  :                 _Head->_Left = _Newnode;

  0004c	89 38		 mov	 DWORD PTR [eax], edi
$LN9@Insert_nod:

; 693  :             }
; 694  :         }
; 695  : 
; 696  :         for (_Nodeptr _Pnode = _Newnode; _Pnode->_Parent->_Color == _Red;) {

  0004e	8b 4f 04	 mov	 ecx, DWORD PTR [edi+4]
  00051	8b c7		 mov	 eax, edi
  00053	80 79 0c 00	 cmp	 BYTE PTR [ecx+12], 0
  00057	0f 85 7d 01 00
	00		 jne	 $LN3@Insert_nod
  0005d	56		 push	 esi
  0005e	66 90		 npad	 2
$LL4@Insert_nod:

; 697  :             if (_Pnode->_Parent == _Pnode->_Parent->_Parent->_Left) { // fixup red-red in left subtree

  00060	8b 50 04	 mov	 edx, DWORD PTR [eax+4]
  00063	8b 72 04	 mov	 esi, DWORD PTR [edx+4]
  00066	8b 0e		 mov	 ecx, DWORD PTR [esi]
  00068	3b d1		 cmp	 edx, ecx
  0006a	0f 85 aa 00 00
	00		 jne	 $LN10@Insert_nod

; 698  :                 const auto _Parent_sibling = _Pnode->_Parent->_Parent->_Right;

  00070	8b 4e 08	 mov	 ecx, DWORD PTR [esi+8]

; 699  :                 if (_Parent_sibling->_Color == _Red) { // parent's sibling has two red children, blacken both

  00073	80 79 0c 00	 cmp	 BYTE PTR [ecx+12], 0
  00077	0f 84 a3 00 00
	00		 je	 $LN82@Insert_nod

; 700  :                     _Pnode->_Parent->_Color          = _Black;
; 701  :                     _Parent_sibling->_Color          = _Black;
; 702  :                     _Pnode->_Parent->_Parent->_Color = _Red;
; 703  :                     _Pnode                           = _Pnode->_Parent->_Parent;
; 704  :                 } else { // parent's sibling has red and black children
; 705  :                     if (_Pnode == _Pnode->_Parent->_Right) { // rotate right child to left

  0007d	8b 72 08	 mov	 esi, DWORD PTR [edx+8]
  00080	3b c6		 cmp	 eax, esi
  00082	75 37		 jne	 SHORT $LN57@Insert_nod

; 485  :         _Wherenode->_Right = _Pnode->_Left;

  00084	8b 0e		 mov	 ecx, DWORD PTR [esi]

; 706  :                         _Pnode = _Pnode->_Parent;

  00086	8b c2		 mov	 eax, edx

; 485  :         _Wherenode->_Right = _Pnode->_Left;

  00088	89 4a 08	 mov	 DWORD PTR [edx+8], ecx

; 486  : 
; 487  :         if (!_Pnode->_Left->_Isnil) {

  0008b	8b 0e		 mov	 ecx, DWORD PTR [esi]
  0008d	80 79 0d 00	 cmp	 BYTE PTR [ecx+13], 0
  00091	75 03		 jne	 SHORT $LN21@Insert_nod

; 488  :             _Pnode->_Left->_Parent = _Wherenode;

  00093	89 41 04	 mov	 DWORD PTR [ecx+4], eax
$LN21@Insert_nod:

; 489  :         }
; 490  : 
; 491  :         _Pnode->_Parent = _Wherenode->_Parent;

  00096	8b 4a 04	 mov	 ecx, DWORD PTR [edx+4]
  00099	89 4e 04	 mov	 DWORD PTR [esi+4], ecx

; 492  : 
; 493  :         if (_Wherenode == _Myhead->_Parent) {

  0009c	8b 0b		 mov	 ecx, DWORD PTR [ebx]
  0009e	3b 41 04	 cmp	 eax, DWORD PTR [ecx+4]
  000a1	75 05		 jne	 SHORT $LN22@Insert_nod

; 494  :             _Myhead->_Parent = _Pnode;

  000a3	89 71 04	 mov	 DWORD PTR [ecx+4], esi
  000a6	eb 0e		 jmp	 SHORT $LN25@Insert_nod
$LN22@Insert_nod:

; 495  :         } else if (_Wherenode == _Wherenode->_Parent->_Left) {

  000a8	8b 4a 04	 mov	 ecx, DWORD PTR [edx+4]
  000ab	3b 01		 cmp	 eax, DWORD PTR [ecx]
  000ad	75 04		 jne	 SHORT $LN24@Insert_nod

; 496  :             _Wherenode->_Parent->_Left = _Pnode;

  000af	89 31		 mov	 DWORD PTR [ecx], esi

; 497  :         } else {

  000b1	eb 03		 jmp	 SHORT $LN25@Insert_nod
$LN24@Insert_nod:

; 498  :             _Wherenode->_Parent->_Right = _Pnode;

  000b3	89 71 08	 mov	 DWORD PTR [ecx+8], esi
$LN25@Insert_nod:

; 499  :         }
; 500  : 
; 501  :         _Pnode->_Left       = _Wherenode;

  000b6	89 06		 mov	 DWORD PTR [esi], eax

; 502  :         _Wherenode->_Parent = _Pnode;

  000b8	89 70 04	 mov	 DWORD PTR [eax+4], esi
$LN57@Insert_nod:

; 707  :                         _Lrotate(_Pnode);
; 708  :                     }
; 709  : 
; 710  :                     _Pnode->_Parent->_Color          = _Black; // propagate red up

  000bb	8b 48 04	 mov	 ecx, DWORD PTR [eax+4]
  000be	c6 41 0c 01	 mov	 BYTE PTR [ecx+12], 1

; 711  :                     _Pnode->_Parent->_Parent->_Color = _Red;

  000c2	8b 48 04	 mov	 ecx, DWORD PTR [eax+4]
  000c5	8b 49 04	 mov	 ecx, DWORD PTR [ecx+4]
  000c8	c6 41 0c 00	 mov	 BYTE PTR [ecx+12], 0

; 712  :                     _Rrotate(_Pnode->_Parent->_Parent);

  000cc	8b 48 04	 mov	 ecx, DWORD PTR [eax+4]
  000cf	8b 51 04	 mov	 edx, DWORD PTR [ecx+4]

; 506  :         _Nodeptr _Pnode   = _Wherenode->_Left;

  000d2	8b 32		 mov	 esi, DWORD PTR [edx]

; 507  :         _Wherenode->_Left = _Pnode->_Right;

  000d4	8b 4e 08	 mov	 ecx, DWORD PTR [esi+8]
  000d7	89 0a		 mov	 DWORD PTR [edx], ecx

; 508  : 
; 509  :         if (!_Pnode->_Right->_Isnil) {

  000d9	8b 4e 08	 mov	 ecx, DWORD PTR [esi+8]
  000dc	80 79 0d 00	 cmp	 BYTE PTR [ecx+13], 0
  000e0	75 03		 jne	 SHORT $LN29@Insert_nod

; 510  :             _Pnode->_Right->_Parent = _Wherenode;

  000e2	89 51 04	 mov	 DWORD PTR [ecx+4], edx
$LN29@Insert_nod:

; 511  :         }
; 512  : 
; 513  :         _Pnode->_Parent = _Wherenode->_Parent;

  000e5	8b 4a 04	 mov	 ecx, DWORD PTR [edx+4]
  000e8	89 4e 04	 mov	 DWORD PTR [esi+4], ecx

; 514  : 
; 515  :         if (_Wherenode == _Myhead->_Parent) {

  000eb	8b 0b		 mov	 ecx, DWORD PTR [ebx]
  000ed	3b 51 04	 cmp	 edx, DWORD PTR [ecx+4]
  000f0	75 0b		 jne	 SHORT $LN30@Insert_nod

; 516  :             _Myhead->_Parent = _Pnode;

  000f2	89 71 04	 mov	 DWORD PTR [ecx+4], esi

; 521  :         }
; 522  : 
; 523  :         _Pnode->_Right      = _Wherenode;

  000f5	89 56 08	 mov	 DWORD PTR [esi+8], edx

; 713  :                 }
; 714  :             } else { // fixup red-red in right subtree

  000f8	e9 cc 00 00 00	 jmp	 $LN81@Insert_nod
$LN30@Insert_nod:

; 517  :         } else if (_Wherenode == _Wherenode->_Parent->_Right) {

  000fd	8b 4a 04	 mov	 ecx, DWORD PTR [edx+4]
  00100	3b 51 08	 cmp	 edx, DWORD PTR [ecx+8]
  00103	75 0b		 jne	 SHORT $LN32@Insert_nod

; 518  :             _Wherenode->_Parent->_Right = _Pnode;

  00105	89 71 08	 mov	 DWORD PTR [ecx+8], esi

; 521  :         }
; 522  : 
; 523  :         _Pnode->_Right      = _Wherenode;

  00108	89 56 08	 mov	 DWORD PTR [esi+8], edx

; 713  :                 }
; 714  :             } else { // fixup red-red in right subtree

  0010b	e9 b9 00 00 00	 jmp	 $LN81@Insert_nod
$LN32@Insert_nod:

; 520  :             _Wherenode->_Parent->_Left = _Pnode;

  00110	89 31		 mov	 DWORD PTR [ecx], esi

; 521  :         }
; 522  : 
; 523  :         _Pnode->_Right      = _Wherenode;

  00112	89 56 08	 mov	 DWORD PTR [esi+8], edx

; 713  :                 }
; 714  :             } else { // fixup red-red in right subtree

  00115	e9 af 00 00 00	 jmp	 $LN81@Insert_nod
$LN10@Insert_nod:

; 715  :                 const auto _Parent_sibling = _Pnode->_Parent->_Parent->_Left;
; 716  :                 if (_Parent_sibling->_Color == _Red) { // parent's sibling has two red children, blacken both

  0011a	80 79 0c 00	 cmp	 BYTE PTR [ecx+12], 0
  0011e	75 1d		 jne	 SHORT $LN15@Insert_nod
$LN82@Insert_nod:

; 693  :             }
; 694  :         }
; 695  : 
; 696  :         for (_Nodeptr _Pnode = _Newnode; _Pnode->_Parent->_Color == _Red;) {

  00120	c6 42 0c 01	 mov	 BYTE PTR [edx+12], 1
  00124	c6 41 0c 01	 mov	 BYTE PTR [ecx+12], 1
  00128	8b 48 04	 mov	 ecx, DWORD PTR [eax+4]
  0012b	8b 49 04	 mov	 ecx, DWORD PTR [ecx+4]
  0012e	c6 41 0c 00	 mov	 BYTE PTR [ecx+12], 0
  00132	8b 48 04	 mov	 ecx, DWORD PTR [eax+4]
  00135	8b 41 04	 mov	 eax, DWORD PTR [ecx+4]
  00138	e9 8f 00 00 00	 jmp	 $LN2@Insert_nod
$LN15@Insert_nod:

; 717  :                     _Pnode->_Parent->_Color          = _Black;
; 718  :                     _Parent_sibling->_Color          = _Black;
; 719  :                     _Pnode->_Parent->_Parent->_Color = _Red;
; 720  :                     _Pnode                           = _Pnode->_Parent->_Parent;
; 721  :                 } else { // parent's sibling has red and black children
; 722  :                     if (_Pnode == _Pnode->_Parent->_Left) { // rotate left child to right

  0013d	8b 32		 mov	 esi, DWORD PTR [edx]
  0013f	3b c6		 cmp	 eax, esi
  00141	75 3a		 jne	 SHORT $LN42@Insert_nod

; 507  :         _Wherenode->_Left = _Pnode->_Right;

  00143	8b 4e 08	 mov	 ecx, DWORD PTR [esi+8]

; 723  :                         _Pnode = _Pnode->_Parent;

  00146	8b c2		 mov	 eax, edx

; 507  :         _Wherenode->_Left = _Pnode->_Right;

  00148	89 08		 mov	 DWORD PTR [eax], ecx

; 508  : 
; 509  :         if (!_Pnode->_Right->_Isnil) {

  0014a	8b 4e 08	 mov	 ecx, DWORD PTR [esi+8]
  0014d	80 79 0d 00	 cmp	 BYTE PTR [ecx+13], 0
  00151	75 03		 jne	 SHORT $LN37@Insert_nod

; 510  :             _Pnode->_Right->_Parent = _Wherenode;

  00153	89 41 04	 mov	 DWORD PTR [ecx+4], eax
$LN37@Insert_nod:

; 511  :         }
; 512  : 
; 513  :         _Pnode->_Parent = _Wherenode->_Parent;

  00156	8b 4a 04	 mov	 ecx, DWORD PTR [edx+4]
  00159	89 4e 04	 mov	 DWORD PTR [esi+4], ecx

; 514  : 
; 515  :         if (_Wherenode == _Myhead->_Parent) {

  0015c	8b 0b		 mov	 ecx, DWORD PTR [ebx]
  0015e	3b 41 04	 cmp	 eax, DWORD PTR [ecx+4]
  00161	75 05		 jne	 SHORT $LN38@Insert_nod

; 516  :             _Myhead->_Parent = _Pnode;

  00163	89 71 04	 mov	 DWORD PTR [ecx+4], esi
  00166	eb 0f		 jmp	 SHORT $LN41@Insert_nod
$LN38@Insert_nod:

; 517  :         } else if (_Wherenode == _Wherenode->_Parent->_Right) {

  00168	8b 4a 04	 mov	 ecx, DWORD PTR [edx+4]
  0016b	3b 41 08	 cmp	 eax, DWORD PTR [ecx+8]
  0016e	75 05		 jne	 SHORT $LN40@Insert_nod

; 518  :             _Wherenode->_Parent->_Right = _Pnode;

  00170	89 71 08	 mov	 DWORD PTR [ecx+8], esi

; 519  :         } else {

  00173	eb 02		 jmp	 SHORT $LN41@Insert_nod
$LN40@Insert_nod:

; 520  :             _Wherenode->_Parent->_Left = _Pnode;

  00175	89 31		 mov	 DWORD PTR [ecx], esi
$LN41@Insert_nod:

; 521  :         }
; 522  : 
; 523  :         _Pnode->_Right      = _Wherenode;

  00177	89 46 08	 mov	 DWORD PTR [esi+8], eax

; 524  :         _Wherenode->_Parent = _Pnode;

  0017a	89 70 04	 mov	 DWORD PTR [eax+4], esi
$LN42@Insert_nod:

; 724  :                         _Rrotate(_Pnode);
; 725  :                     }
; 726  : 
; 727  :                     _Pnode->_Parent->_Color          = _Black; // propagate red up

  0017d	8b 48 04	 mov	 ecx, DWORD PTR [eax+4]
  00180	c6 41 0c 01	 mov	 BYTE PTR [ecx+12], 1

; 728  :                     _Pnode->_Parent->_Parent->_Color = _Red;

  00184	8b 48 04	 mov	 ecx, DWORD PTR [eax+4]
  00187	8b 49 04	 mov	 ecx, DWORD PTR [ecx+4]
  0018a	c6 41 0c 00	 mov	 BYTE PTR [ecx+12], 0

; 729  :                     _Lrotate(_Pnode->_Parent->_Parent);

  0018e	8b 48 04	 mov	 ecx, DWORD PTR [eax+4]
  00191	8b 51 04	 mov	 edx, DWORD PTR [ecx+4]

; 484  :         _Nodeptr _Pnode    = _Wherenode->_Right;

  00194	8b 72 08	 mov	 esi, DWORD PTR [edx+8]

; 485  :         _Wherenode->_Right = _Pnode->_Left;

  00197	8b 0e		 mov	 ecx, DWORD PTR [esi]
  00199	89 4a 08	 mov	 DWORD PTR [edx+8], ecx

; 486  : 
; 487  :         if (!_Pnode->_Left->_Isnil) {

  0019c	8b 0e		 mov	 ecx, DWORD PTR [esi]
  0019e	80 79 0d 00	 cmp	 BYTE PTR [ecx+13], 0
  001a2	75 03		 jne	 SHORT $LN45@Insert_nod

; 488  :             _Pnode->_Left->_Parent = _Wherenode;

  001a4	89 51 04	 mov	 DWORD PTR [ecx+4], edx
$LN45@Insert_nod:

; 489  :         }
; 490  : 
; 491  :         _Pnode->_Parent = _Wherenode->_Parent;

  001a7	8b 4a 04	 mov	 ecx, DWORD PTR [edx+4]
  001aa	89 4e 04	 mov	 DWORD PTR [esi+4], ecx

; 492  : 
; 493  :         if (_Wherenode == _Myhead->_Parent) {

  001ad	8b 0b		 mov	 ecx, DWORD PTR [ebx]
  001af	3b 51 04	 cmp	 edx, DWORD PTR [ecx+4]
  001b2	75 05		 jne	 SHORT $LN46@Insert_nod

; 494  :             _Myhead->_Parent = _Pnode;

  001b4	89 71 04	 mov	 DWORD PTR [ecx+4], esi
  001b7	eb 0e		 jmp	 SHORT $LN49@Insert_nod
$LN46@Insert_nod:

; 495  :         } else if (_Wherenode == _Wherenode->_Parent->_Left) {

  001b9	8b 4a 04	 mov	 ecx, DWORD PTR [edx+4]
  001bc	3b 11		 cmp	 edx, DWORD PTR [ecx]
  001be	75 04		 jne	 SHORT $LN48@Insert_nod

; 496  :             _Wherenode->_Parent->_Left = _Pnode;

  001c0	89 31		 mov	 DWORD PTR [ecx], esi

; 497  :         } else {

  001c2	eb 03		 jmp	 SHORT $LN49@Insert_nod
$LN48@Insert_nod:

; 498  :             _Wherenode->_Parent->_Right = _Pnode;

  001c4	89 71 08	 mov	 DWORD PTR [ecx+8], esi
$LN49@Insert_nod:

; 499  :         }
; 500  : 
; 501  :         _Pnode->_Left       = _Wherenode;

  001c7	89 16		 mov	 DWORD PTR [esi], edx
$LN81@Insert_nod:

; 693  :             }
; 694  :         }
; 695  : 
; 696  :         for (_Nodeptr _Pnode = _Newnode; _Pnode->_Parent->_Color == _Red;) {

  001c9	89 72 04	 mov	 DWORD PTR [edx+4], esi
$LN2@Insert_nod:
  001cc	8b 48 04	 mov	 ecx, DWORD PTR [eax+4]
  001cf	80 79 0c 00	 cmp	 BYTE PTR [ecx+12], 0
  001d3	0f 84 87 fe ff
	ff		 je	 $LL4@Insert_nod
  001d9	5e		 pop	 esi
$LN3@Insert_nod:

; 730  :                 }
; 731  :             }
; 732  :         }
; 733  : 
; 734  :         _Head->_Parent->_Color = _Black; // root is always black

  001da	8b 45 fc	 mov	 eax, DWORD PTR __Head$1$[ebp]
  001dd	8b 40 04	 mov	 eax, DWORD PTR [eax+4]
  001e0	c6 40 0c 01	 mov	 BYTE PTR [eax+12], 1

; 735  :         return _Newnode;
; 736  :     }

  001e4	8b c7		 mov	 eax, edi
  001e6	5f		 pop	 edi
  001e7	5b		 pop	 ebx
  001e8	8b e5		 mov	 esp, ebp
  001ea	5d		 pop	 ebp
  001eb	c2 0c 00	 ret	 12			; 0000000cH
?_Insert_node@?$_Tree_val@U?$_Tree_simple_types@U?$pair@$$CBV?$basic_string@DU?$char_traits@D@std@@V?$allocator@D@2@@std@@H@std@@@std@@@std@@QAEPAU?$_Tree_node@U?$pair@$$CBV?$basic_string@DU?$char_traits@D@std@@V?$allocator@D@2@@std@@H@std@@PAX@2@U?$_Tree_id@PAU?$_Tree_node@U?$pair@$$CBV?$basic_string@DU?$char_traits@D@std@@V?$allocator@D@2@@std@@H@std@@PAX@std@@@2@QAU32@@Z ENDP ; std::_Tree_val<std::_Tree_simple_types<std::pair<std::basic_string<char,std::char_traits<char>,std::allocator<char> > const ,int> > >::_Insert_node
_TEXT	ENDS
; Function compile flags: /Ogtp
; File C:\Program Files\Microsoft Visual Studio\2022\Professional\VC\Tools\MSVC\14.44.35207\include\xmemory
;	COMDAT ??$_Allocate_manually_vector_aligned@U_Default_allocate_traits@std@@@std@@YAPAXI@Z
_TEXT	SEGMENT
__Bytes$ = 8						; size = 4
??$_Allocate_manually_vector_aligned@U_Default_allocate_traits@std@@@std@@YAPAXI@Z PROC ; std::_Allocate_manually_vector_aligned<std::_Default_allocate_traits>, COMDAT

; 182  : __declspec(allocator) void* _Allocate_manually_vector_aligned(const size_t _Bytes) {

  00000	55		 push	 ebp
  00001	8b ec		 mov	 ebp, esp

; 183  :     // allocate _Bytes manually aligned to at least _Big_allocation_alignment
; 184  :     const size_t _Block_size = _Non_user_size + _Bytes;

  00003	8b 45 08	 mov	 eax, DWORD PTR __Bytes$[ebp]
  00006	8d 48 23	 lea	 ecx, DWORD PTR [eax+35]

; 185  :     if (_Block_size <= _Bytes) {

  00009	3b c8		 cmp	 ecx, eax
  0000b	0f 86 00 00 00
	00		 jbe	 ?_Throw_bad_array_new_length@std@@YAXXZ ; std::_Throw_bad_array_new_length

; 136  :         return ::operator new(_Bytes);

  00011	51		 push	 ecx
  00012	e8 00 00 00 00	 call	 ??2@YAPAXI@Z		; operator new

; 186  :         _Throw_bad_array_new_length(); // add overflow
; 187  :     }
; 188  : 
; 189  :     const uintptr_t _Ptr_container = reinterpret_cast<uintptr_t>(_Traits::_Allocate(_Block_size));

  00017	8b c8		 mov	 ecx, eax

; 136  :         return ::operator new(_Bytes);

  00019	83 c4 04	 add	 esp, 4

; 190  :     _STL_VERIFY(_Ptr_container != 0, "invalid argument"); // validate even in release since we're doing p[-1]

  0001c	85 c9		 test	 ecx, ecx
  0001e	74 0b		 je	 SHORT $LN9@Allocate_m

; 191  :     void* const _Ptr = reinterpret_cast<void*>((_Ptr_container + _Non_user_size) & ~(_Big_allocation_alignment - 1));

  00020	8d 41 23	 lea	 eax, DWORD PTR [ecx+35]
  00023	83 e0 e0	 and	 eax, -32		; ffffffe0H

; 192  :     static_cast<uintptr_t*>(_Ptr)[-1] = _Ptr_container;

  00026	89 48 fc	 mov	 DWORD PTR [eax-4], ecx

; 193  : 
; 194  : #ifdef _DEBUG
; 195  :     static_cast<uintptr_t*>(_Ptr)[-2] = _Big_allocation_sentinel;
; 196  : #endif // defined(_DEBUG)
; 197  :     return _Ptr;
; 198  : }

  00029	5d		 pop	 ebp
  0002a	c3		 ret	 0
$LN9@Allocate_m:

; 190  :     _STL_VERIFY(_Ptr_container != 0, "invalid argument"); // validate even in release since we're doing p[-1]

  0002b	6a 00		 push	 0
  0002d	6a 00		 push	 0
  0002f	6a 00		 push	 0
  00031	6a 00		 push	 0
  00033	6a 00		 push	 0
  00035	e8 00 00 00 00	 call	 __invoke_watson
$LN7@Allocate_m:
  0003a	cc		 int	 3
??$_Allocate_manually_vector_aligned@U_Default_allocate_traits@std@@@std@@YAPAXI@Z ENDP ; std::_Allocate_manually_vector_aligned<std::_Default_allocate_traits>
_TEXT	ENDS
; Function compile flags: /Ogtp
; File C:\Program Files\Microsoft Visual Studio\2022\Professional\VC\Tools\MSVC\14.44.35207\include\xstring
; File C:\Program Files\Microsoft Visual Studio\2022\Professional\VC\Tools\MSVC\14.44.35207\include\__msvc_string_view.hpp
; File C:\Program Files\Microsoft Visual Studio\2022\Professional\VC\Tools\MSVC\14.44.35207\include\xstring
; File C:\Program Files\Microsoft Visual Studio\2022\Professional\VC\Tools\MSVC\14.44.35207\include\__msvc_string_view.hpp
; File C:\Program Files\Microsoft Visual Studio\2022\Professional\VC\Tools\MSVC\14.44.35207\include\xstring
; File C:\Program Files\Microsoft Visual Studio\2022\Professional\VC\Tools\MSVC\14.44.35207\include\__msvc_string_view.hpp
; File C:\Program Files\Microsoft Visual Studio\2022\Professional\VC\Tools\MSVC\14.44.35207\include\xstring
;	COMDAT ??$?MDU?$char_traits@D@std@@V?$allocator@D@1@@std@@YA_NABV?$basic_string@DU?$char_traits@D@std@@V?$allocator@D@2@@0@0@Z
_TEXT	SEGMENT
__Left$ = 8						; size = 4
__Right$ = 12						; size = 4
??$?MDU?$char_traits@D@std@@V?$allocator@D@1@@std@@YA_NABV?$basic_string@DU?$char_traits@D@std@@V?$allocator@D@2@@0@0@Z PROC ; std::operator<<char,std::char_traits<char>,std::allocator<char> >, COMDAT

; 3307 :     const basic_string<_Elem, _Traits, _Alloc>& _Left, const basic_string<_Elem, _Traits, _Alloc>& _Right) noexcept {

  00000	55		 push	 ebp
  00001	8b ec		 mov	 ebp, esp

; 444  :         const value_type* _Result = _Bx._Buf;

  00003	8b 45 0c	 mov	 eax, DWORD PTR __Right$[ebp]
  00006	8b c8		 mov	 ecx, eax

; 453  :         return _Myres > _Small_string_capacity;

  00008	83 78 14 0f	 cmp	 DWORD PTR [eax+20], 15	; 0000000fH

; 445  :         if (_Large_mode_engaged()) {

  0000c	76 02		 jbe	 SHORT $LN8@operator

; 446  :             _Result = _Unfancy(_Bx._Ptr);

  0000e	8b 08		 mov	 ecx, DWORD PTR [eax]
$LN8@operator:
  00010	53		 push	 ebx
  00011	56		 push	 esi

; 444  :         const value_type* _Result = _Bx._Buf;

  00012	8b 75 08	 mov	 esi, DWORD PTR __Left$[ebp]
  00015	8b d6		 mov	 edx, esi
  00017	57		 push	 edi

; 453  :         return _Myres > _Small_string_capacity;

  00018	83 7e 14 0f	 cmp	 DWORD PTR [esi+20], 15	; 0000000fH

; 445  :         if (_Large_mode_engaged()) {

  0001c	76 02		 jbe	 SHORT $LN15@operator

; 446  :             _Result = _Unfancy(_Bx._Ptr);

  0001e	8b 16		 mov	 edx, DWORD PTR [esi]
$LN15@operator:

; 2890 :         return _Traits_compare<_Traits>(_Mypair._Myval2._Myptr(), _Mypair._Myval2._Mysize,

  00020	8b 5e 10	 mov	 ebx, DWORD PTR [esi+16]
  00023	8b f3		 mov	 esi, ebx
  00025	8b 78 10	 mov	 edi, DWORD PTR [eax+16]
  00028	3b fb		 cmp	 edi, ebx
  0002a	0f 42 f7	 cmovb	 esi, edi
; File C:\Program Files\Microsoft Visual Studio\2022\Professional\VC\Tools\MSVC\14.44.35207\include\__msvc_string_view.hpp

; 439  :         return _CSTD memcmp(_First1, _First2, _Count);

  0002d	83 ee 04	 sub	 esi, 4
  00030	72 11		 jb	 SHORT $LN35@operator
$LL36@operator:
  00032	8b 02		 mov	 eax, DWORD PTR [edx]
  00034	3b 01		 cmp	 eax, DWORD PTR [ecx]
  00036	75 10		 jne	 SHORT $LN34@operator
  00038	83 c2 04	 add	 edx, 4
  0003b	83 c1 04	 add	 ecx, 4
  0003e	83 ee 04	 sub	 esi, 4
  00041	73 ef		 jae	 SHORT $LL36@operator
$LN35@operator:
  00043	83 fe fc	 cmp	 esi, -4			; fffffffcH
  00046	74 34		 je	 SHORT $LN33@operator
$LN34@operator:
  00048	8a 02		 mov	 al, BYTE PTR [edx]
  0004a	3a 01		 cmp	 al, BYTE PTR [ecx]
  0004c	75 27		 jne	 SHORT $LN37@operator
  0004e	83 fe fd	 cmp	 esi, -3			; fffffffdH
  00051	74 29		 je	 SHORT $LN33@operator
  00053	8a 42 01	 mov	 al, BYTE PTR [edx+1]
  00056	3a 41 01	 cmp	 al, BYTE PTR [ecx+1]
  00059	75 1a		 jne	 SHORT $LN37@operator
  0005b	83 fe fe	 cmp	 esi, -2			; fffffffeH
  0005e	74 1c		 je	 SHORT $LN33@operator
  00060	8a 42 02	 mov	 al, BYTE PTR [edx+2]
  00063	3a 41 02	 cmp	 al, BYTE PTR [ecx+2]
  00066	75 0d		 jne	 SHORT $LN37@operator
  00068	83 fe ff	 cmp	 esi, -1
  0006b	74 0f		 je	 SHORT $LN33@operator
  0006d	8a 42 03	 mov	 al, BYTE PTR [edx+3]
  00070	3a 41 03	 cmp	 al, BYTE PTR [ecx+3]
  00073	74 07		 je	 SHORT $LN33@operator
$LN37@operator:
  00075	1b c0		 sbb	 eax, eax
  00077	83 c8 01	 or	 eax, 1
  0007a	eb 02		 jmp	 SHORT $LN38@operator
$LN33@operator:
  0007c	33 c0		 xor	 eax, eax
$LN38@operator:

; 621  :     if (_Ans != 0) {

  0007e	85 c0		 test	 eax, eax
  00080	75 13		 jne	 SHORT $LN24@operator

; 622  :         return _Ans;
; 623  :     }
; 624  : 
; 625  :     if (_Left_size < _Right_size) {

  00082	3b fb		 cmp	 edi, ebx
  00084	76 0b		 jbe	 SHORT $LN51@operator
; File C:\Program Files\Microsoft Visual Studio\2022\Professional\VC\Tools\MSVC\14.44.35207\include\xstring

; 3308 :     return _Left.compare(_Right) < 0;

  00086	5f		 pop	 edi
; File C:\Program Files\Microsoft Visual Studio\2022\Professional\VC\Tools\MSVC\14.44.35207\include\__msvc_string_view.hpp

; 626  :         return -1;

  00087	83 c8 ff	 or	 eax, -1
; File C:\Program Files\Microsoft Visual Studio\2022\Professional\VC\Tools\MSVC\14.44.35207\include\xstring

; 3308 :     return _Left.compare(_Right) < 0;

  0008a	5e		 pop	 esi
  0008b	c1 e8 1f	 shr	 eax, 31			; 0000001fH
  0008e	5b		 pop	 ebx

; 3309 : }

  0008f	5d		 pop	 ebp
  00090	c3		 ret	 0
$LN51@operator:
; File C:\Program Files\Microsoft Visual Studio\2022\Professional\VC\Tools\MSVC\14.44.35207\include\__msvc_string_view.hpp

; 629  :     if (_Left_size > _Right_size) {

  00091	1b c0		 sbb	 eax, eax
  00093	f7 d8		 neg	 eax
$LN24@operator:
; File C:\Program Files\Microsoft Visual Studio\2022\Professional\VC\Tools\MSVC\14.44.35207\include\xstring

; 3308 :     return _Left.compare(_Right) < 0;

  00095	5f		 pop	 edi
  00096	5e		 pop	 esi
  00097	c1 e8 1f	 shr	 eax, 31			; 0000001fH
  0009a	5b		 pop	 ebx

; 3309 : }

  0009b	5d		 pop	 ebp
  0009c	c3		 ret	 0
??$?MDU?$char_traits@D@std@@V?$allocator@D@1@@std@@YA_NABV?$basic_string@DU?$char_traits@D@std@@V?$allocator@D@2@@0@0@Z ENDP ; std::operator<<char,std::char_traits<char>,std::allocator<char> >
_TEXT	ENDS
; Function compile flags: /Ogtp
;	COMDAT ??_GCScript@@UAEPAXI@Z
_TEXT	SEGMENT
___flags$ = 8						; size = 4
??_GCScript@@UAEPAXI@Z PROC				; CScript::`scalar deleting destructor', COMDAT
; _this$ = ecx
  00000	55		 push	 ebp
  00001	8b ec		 mov	 ebp, esp
  00003	56		 push	 esi
  00004	8b f1		 mov	 esi, ecx
  00006	e8 00 00 00 00	 call	 ??1CScript@@UAE@XZ	; CScript::~CScript
  0000b	f6 45 08 01	 test	 BYTE PTR ___flags$[ebp], 1
  0000f	74 0e		 je	 SHORT $LN5@scalar
  00011	68 68 1e 00 00	 push	 7784			; 00001e68H
  00016	56		 push	 esi
  00017	e8 00 00 00 00	 call	 ??3@YAXPAXI@Z		; operator delete
  0001c	83 c4 08	 add	 esp, 8
$LN5@scalar:
  0001f	8b c6		 mov	 eax, esi
  00021	5e		 pop	 esi
  00022	5d		 pop	 ebp
  00023	c2 04 00	 ret	 4
??_GCScript@@UAEPAXI@Z ENDP				; CScript::`scalar deleting destructor'
_TEXT	ENDS
; Function compile flags: /Ogtp
; File C:\IAGOS\server\v18\Source\Source\_Common\script.cpp
; File C:\Program Files\Microsoft Visual Studio\2022\Professional\VC\Tools\MSVC\14.44.35207\atlmfc\include\atlsimpstr.h
; File C:\Program Files (x86)\Windows Kits\10\Include\10.0.26100.0\ucrt\corecrt_memcpy_s.h
; File C:\Program Files\Microsoft Visual Studio\2022\Professional\VC\Tools\MSVC\14.44.35207\atlmfc\include\atlsimpstr.h
; File C:\Program Files\Microsoft Visual Studio\2022\Professional\VC\Tools\MSVC\14.44.35207\atlmfc\include\cstringt.h
; File C:\IAGOS\server\v18\Source\Source\_Common\script.cpp
; File C:\Program Files\Microsoft Visual Studio\2022\Professional\VC\Tools\MSVC\14.44.35207\atlmfc\include\cstringt.h
; File C:\IAGOS\server\v18\Source\Source\_Common\script.cpp
; File C:\Program Files\Microsoft Visual Studio\2022\Professional\VC\Tools\MSVC\14.44.35207\include\utility
; File C:\Program Files\Microsoft Visual Studio\2022\Professional\VC\Tools\MSVC\14.44.35207\include\xtree
; File C:\IAGOS\server\v18\Source\Source\_Common\script.cpp
; File C:\Program Files\Microsoft Visual Studio\2022\Professional\VC\Tools\MSVC\14.44.35207\include\xtree
; File C:\Program Files\Microsoft Visual Studio\2022\Professional\VC\Tools\MSVC\14.44.35207\include\type_traits
; File C:\Program Files\Microsoft Visual Studio\2022\Professional\VC\Tools\MSVC\14.44.35207\include\xtree
; File C:\Program Files\Microsoft Visual Studio\2022\Professional\VC\Tools\MSVC\14.44.35207\include\utility
; File C:\Program Files\Microsoft Visual Studio\2022\Professional\VC\Tools\MSVC\14.44.35207\include\xtree
; File C:\Program Files\Microsoft Visual Studio\2022\Professional\VC\Tools\MSVC\14.44.35207\include\xmemory
; File C:\Program Files\Microsoft Visual Studio\2022\Professional\VC\Tools\MSVC\14.44.35207\include\xtree
; File C:\Program Files\Microsoft Visual Studio\2022\Professional\VC\Tools\MSVC\14.44.35207\include\xmemory
; File C:\Program Files\Microsoft Visual Studio\2022\Professional\VC\Tools\MSVC\14.44.35207\include\xtree
; File C:\Program Files\Microsoft Visual Studio\2022\Professional\VC\Tools\MSVC\14.44.35207\include\utility
; File C:\Program Files\Microsoft Visual Studio\2022\Professional\VC\Tools\MSVC\14.44.35207\include\xstring
; File C:\Program Files\Microsoft Visual Studio\2022\Professional\VC\Tools\MSVC\14.44.35207\include\xtree
; File C:\Program Files\Microsoft Visual Studio\2022\Professional\VC\Tools\MSVC\14.44.35207\include\xstring
; File C:\Program Files\Microsoft Visual Studio\2022\Professional\VC\Tools\MSVC\14.44.35207\include\xtree
; File C:\Program Files\Microsoft Visual Studio\2022\Professional\VC\Tools\MSVC\14.44.35207\include\xstring
; File C:\Program Files\Microsoft Visual Studio\2022\Professional\VC\Tools\MSVC\14.44.35207\include\xtree
; File C:\Program Files\Microsoft Visual Studio\2022\Professional\VC\Tools\MSVC\14.44.35207\include\xstring
; File C:\Program Files\Microsoft Visual Studio\2022\Professional\VC\Tools\MSVC\14.44.35207\include\xtree
; File C:\Program Files\Microsoft Visual Studio\2022\Professional\VC\Tools\MSVC\14.44.35207\include\xstring
; File C:\Program Files\Microsoft Visual Studio\2022\Professional\VC\Tools\MSVC\14.44.35207\include\xtree
; File C:\Program Files\Microsoft Visual Studio\2022\Professional\VC\Tools\MSVC\14.44.35207\include\utility
; File C:\Program Files\Microsoft Visual Studio\2022\Professional\VC\Tools\MSVC\14.44.35207\include\xtree
; File C:\Program Files\Microsoft Visual Studio\2022\Professional\VC\Tools\MSVC\14.44.35207\include\utility
; File C:\IAGOS\server\v18\Source\Source\_Common\script.cpp
; File C:\Program Files\Microsoft Visual Studio\2022\Professional\VC\Tools\MSVC\14.44.35207\atlmfc\include\atlsimpstr.h
; File C:\IAGOS\server\v18\Source\Source\_Common\script.cpp
; File C:\Program Files\Microsoft Visual Studio\2022\Professional\VC\Tools\MSVC\14.44.35207\atlmfc\include\atlsimpstr.h
; File C:\Program Files\Microsoft Visual Studio\2022\Professional\VC\Tools\MSVC\14.44.35207\include\xtree
; File C:\IAGOS\server\v18\Source\Source\_Common\script.cpp
;	COMDAT ?LoadStringA@CScript@@QAEXXZ
_TEXT	SEGMENT
$T3 = -116						; size = 12
__Loc$4 = -104						; size = 12
$T5 = -92						; size = 8
_this$GSCopy$1$ = -84					; size = 4
_str$6 = -80						; size = 4
__Source$1$ = -80					; size = 4
__SourceSize$1$ = -76					; size = 4
$T7 = -76						; size = 4
tv1328 = -72						; size = 4
__DestinationSize$1$ = -72				; size = 4
__Myhead$1$ = -72					; size = 4
__Result$1$sroa$790$1$ = -65				; size = 1
$T8 = -64						; size = 48
__$ArrayPad$ = -16					; size = 4
__$EHRec$ = -12						; size = 12
?LoadStringA@CScript@@QAEXXZ PROC			; CScript::LoadStringA, COMDAT
; _this$ = ecx

; 104  : {

  00000	55		 push	 ebp
  00001	8b ec		 mov	 ebp, esp
  00003	6a ff		 push	 -1
  00005	68 00 00 00 00	 push	 __ehhandler$?LoadStringA@CScript@@QAEXXZ
  0000a	64 a1 00 00 00
	00		 mov	 eax, DWORD PTR fs:0
  00010	50		 push	 eax
  00011	83 ec 68	 sub	 esp, 104		; 00000068H
  00014	a1 00 00 00 00	 mov	 eax, DWORD PTR ___security_cookie
  00019	33 c5		 xor	 eax, ebp
  0001b	89 45 f0	 mov	 DWORD PTR __$ArrayPad$[ebp], eax
  0001e	56		 push	 esi
  0001f	57		 push	 edi
  00020	50		 push	 eax
  00021	8d 45 f4	 lea	 eax, DWORD PTR __$EHRec$[ebp]
  00024	64 a3 00 00 00
	00		 mov	 DWORD PTR fs:0, eax
  0002a	8b f9		 mov	 edi, ecx
  0002c	89 7d ac	 mov	 DWORD PTR _this$GSCopy$1$[ebp], edi

; 105  : 	CScanner::GetToken();

  0002f	6a 00		 push	 0
  00031	e8 00 00 00 00	 call	 ?GetToken@CScanner@@UAEHH@Z ; CScanner::GetToken

; 106  : 	while( tok != FINISHED )

  00036	83 bf 44 08 00
	00 15		 cmp	 DWORD PTR [edi+2116], 21 ; 00000015H
  0003d	0f 84 76 02 00
	00		 je	 $LN3@LoadString
$LL2@LoadString:
; File C:\Program Files\Microsoft Visual Studio\2022\Professional\VC\Tools\MSVC\14.44.35207\atlmfc\include\atlsimpstr.h

; 804  : 		return( reinterpret_cast< CStringData* >( m_pszData )-1 );

  00043	8b 47 20	 mov	 eax, DWORD PTR [edi+32]

; 886  : 		IAtlStringMgr* pNewStringMgr = pData->pStringMgr->Clone();

  00046	8b 48 f0	 mov	 ecx, DWORD PTR [eax-16]

; 804  : 		return( reinterpret_cast< CStringData* >( m_pszData )-1 );

  00049	8d 70 f0	 lea	 esi, DWORD PTR [eax-16]
  0004c	89 45 b0	 mov	 DWORD PTR __Source$1$[ebp], eax

; 886  : 		IAtlStringMgr* pNewStringMgr = pData->pStringMgr->Clone();

  0004f	8b 01		 mov	 eax, DWORD PTR [ecx]
  00051	8b 40 10	 mov	 eax, DWORD PTR [eax+16]
  00054	ff d0		 call	 eax

; 73   : 		return nRefs < 0;

  00056	83 7e 0c 00	 cmp	 DWORD PTR [esi+12], 0

; 886  : 		IAtlStringMgr* pNewStringMgr = pData->pStringMgr->Clone();

  0005a	8b c8		 mov	 ecx, eax

; 73   : 		return nRefs < 0;

  0005c	8d 46 0c	 lea	 eax, DWORD PTR [esi+12]

; 887  : 		if( !pData->IsLocked() && (pNewStringMgr == pData->pStringMgr) )

  0005f	7c 0c		 jl	 SHORT $LN297@LoadString
  00061	3b 0e		 cmp	 ecx, DWORD PTR [esi]
  00063	75 08		 jne	 SHORT $LN297@LoadString

; 69   : 		_InterlockedIncrement(&nRefs);

  00065	f0 ff 00	 lock	  inc	 DWORD PTR [eax]

; 891  : 		}

  00068	e9 99 00 00 00	 jmp	 $LN31@LoadString
$LN297@LoadString:

; 892  : 		else
; 893  : 		{
; 894  : 			pNewData = pNewStringMgr->Allocate( pData->nDataLength, sizeof( XCHAR ) );

  0006d	8b 01		 mov	 eax, DWORD PTR [ecx]
  0006f	8d 56 04	 lea	 edx, DWORD PTR [esi+4]
  00072	6a 01		 push	 1
  00074	ff 32		 push	 DWORD PTR [edx]
  00076	89 55 b8	 mov	 DWORD PTR tv1328[ebp], edx
  00079	8b 00		 mov	 eax, DWORD PTR [eax]
  0007b	ff d0		 call	 eax
  0007d	8b f0		 mov	 esi, eax

; 895  : 			if( pNewData == NULL )

  0007f	85 f6		 test	 esi, esi
  00081	0f 84 4d 02 00
	00		 je	 $LN287@LoadString

; 898  : 			}
; 899  : 			pNewData->nDataLength = pData->nDataLength;

  00087	8b 4d b8	 mov	 ecx, DWORD PTR tv1328[ebp]
  0008a	8b 11		 mov	 edx, DWORD PTR [ecx]
  0008c	89 56 04	 mov	 DWORD PTR [esi+4], edx

; 900  : 			memcpy_s( PXSTR( pNewData->data() ), (pNewData->nDataLength+1) * sizeof( XCHAR ),

  0008f	42		 inc	 edx
  00090	8b 01		 mov	 eax, DWORD PTR [ecx]
  00092	8d 4e 10	 lea	 ecx, DWORD PTR [esi+16]
  00095	40		 inc	 eax
  00096	89 55 b8	 mov	 DWORD PTR __DestinationSize$1$[ebp], edx
  00099	89 45 b4	 mov	 DWORD PTR __SourceSize$1$[ebp], eax
; File C:\Program Files (x86)\Windows Kits\10\Include\10.0.26100.0\ucrt\corecrt_memcpy_s.h

; 47   :         if (_SourceSize == 0)

  0009c	85 c0		 test	 eax, eax
  0009e	74 66		 je	 SHORT $LN31@LoadString

; 48   :         {
; 49   :             return 0;
; 50   :         }
; 51   : 
; 52   :         _CRT_MEMCPY_S_VALIDATE_RETURN_ERRCODE(_Destination != NULL, EINVAL);

  000a0	85 c9		 test	 ecx, ecx
  000a2	75 0d		 jne	 SHORT $LN27@LoadString
  000a4	e8 00 00 00 00	 call	 __errno
  000a9	c7 00 16 00 00
	00		 mov	 DWORD PTR [eax], 22	; 00000016H
  000af	eb 50		 jmp	 SHORT $LN301@LoadString
$LN27@LoadString:

; 53   :         if (_Source == NULL || _DestinationSize < _SourceSize)

  000b1	8b 4d b0	 mov	 ecx, DWORD PTR __Source$1$[ebp]
  000b4	85 c9		 test	 ecx, ecx
  000b6	74 14		 je	 SHORT $LN29@LoadString
  000b8	3b d0		 cmp	 edx, eax
  000ba	72 10		 jb	 SHORT $LN29@LoadString

; 59   : 
; 60   :             // Unreachable, but required to suppress /analyze warnings:
; 61   :             return EINVAL;
; 62   :         }
; 63   :         memcpy(_Destination, _Source, _SourceSize);

  000bc	50		 push	 eax
  000bd	51		 push	 ecx
  000be	8d 46 10	 lea	 eax, DWORD PTR [esi+16]
  000c1	50		 push	 eax
  000c2	e8 00 00 00 00	 call	 _memcpy
  000c7	83 c4 0c	 add	 esp, 12			; 0000000cH
  000ca	eb 3a		 jmp	 SHORT $LN31@LoadString
$LN29@LoadString:

; 54   :         {
; 55   :             memset(_Destination, 0, _DestinationSize);

  000cc	52		 push	 edx
  000cd	8d 46 10	 lea	 eax, DWORD PTR [esi+16]
  000d0	6a 00		 push	 0
  000d2	50		 push	 eax
  000d3	e8 00 00 00 00	 call	 _memset
  000d8	83 c4 0c	 add	 esp, 12			; 0000000cH

; 56   : 
; 57   :             _CRT_MEMCPY_S_VALIDATE_RETURN_ERRCODE(_Source != NULL,                 EINVAL);

  000db	83 7d b0 00	 cmp	 DWORD PTR __Source$1$[ebp], 0
  000df	75 0d		 jne	 SHORT $LN30@LoadString
  000e1	e8 00 00 00 00	 call	 __errno
  000e6	c7 00 16 00 00
	00		 mov	 DWORD PTR [eax], 22	; 00000016H
  000ec	eb 13		 jmp	 SHORT $LN301@LoadString
$LN30@LoadString:

; 58   :             _CRT_MEMCPY_S_VALIDATE_RETURN_ERRCODE(_DestinationSize >= _SourceSize, ERANGE);

  000ee	8b 45 b8	 mov	 eax, DWORD PTR __DestinationSize$1$[ebp]
  000f1	3b 45 b4	 cmp	 eax, DWORD PTR __SourceSize$1$[ebp]
  000f4	73 10		 jae	 SHORT $LN31@LoadString
  000f6	e8 00 00 00 00	 call	 __errno
  000fb	c7 00 22 00 00
	00		 mov	 DWORD PTR [eax], 34	; 00000022H
$LN301@LoadString:
; File C:\Program Files\Microsoft Visual Studio\2022\Professional\VC\Tools\MSVC\14.44.35207\atlmfc\include\atlsimpstr.h

; 218  : 		Attach( pNewData );

  00101	e8 00 00 00 00	 call	 __invalid_parameter_noinfo
$LN31@LoadString:
  00106	83 c6 10	 add	 esi, 16			; 00000010H
  00109	89 75 b0	 mov	 DWORD PTR _str$6[ebp], esi
; File C:\Program Files\Microsoft Visual Studio\2022\Professional\VC\Tools\MSVC\14.44.35207\atlmfc\include\cstringt.h

; 1795 : 		if( iStart < 0 || iStart > nLength )

  0010c	83 7e f4 00	 cmp	 DWORD PTR [esi-12], 0
; File C:\IAGOS\server\v18\Source\Source\_Common\script.cpp

; 108  : 		CString str	= Token;

  00110	c7 45 fc 00 00
	00 00		 mov	 DWORD PTR __$EHRec$[ebp+8], 0
; File C:\Program Files\Microsoft Visual Studio\2022\Professional\VC\Tools\MSVC\14.44.35207\atlmfc\include\cstringt.h

; 1795 : 		if( iStart < 0 || iStart > nLength )

  00117	0f 8c 58 01 00
	00		 jl	 $LN295@LoadString

; 212  : 		return reinterpret_cast< LPCSTR >( _mbsstr( reinterpret_cast< const unsigned char* >( pszBlock ),

  0011d	68 00 00 00 00	 push	 OFFSET ??_C@_03NOKCBMNP@IDS@
  00122	56		 push	 esi
  00123	e8 00 00 00 00	 call	 __mbsstr
  00128	83 c4 08	 add	 esp, 8

; 1804 : 		return( (psz == NULL) ? -1 : int( psz - this->GetString() ) );

  0012b	85 c0		 test	 eax, eax
  0012d	0f 84 42 01 00
	00		 je	 $LN295@LoadString
  00133	2b c6		 sub	 eax, esi
; File C:\IAGOS\server\v18\Source\Source\_Common\script.cpp

; 109  : 		if( str.Find( "IDS", 0 ) != 0 )

  00135	0f 85 3a 01 00
	00		 jne	 $LN295@LoadString

; 113  : 			continue;
; 114  : 		}
; 115  : 		GetLastFull();

  0013b	8b cf		 mov	 ecx, edi
  0013d	e8 00 00 00 00	 call	 ?GetLastFull@CScript@@QAEXXZ ; CScript::GetLastFull

; 117  : 		bool bResult = m_mapString.insert( map<string, string>::value_type( (LPCTSTR)str, (LPCTSTR)Token ) ).second;

  00142	8b 7f 20	 mov	 edi, DWORD PTR [edi+32]
; File C:\Program Files\Microsoft Visual Studio\2022\Professional\VC\Tools\MSVC\14.44.35207\include\utility

; 274  :         : first(_STD forward<_Other1>(_Val1)), second(_STD forward<_Other2>(_Val2)) {

  00145	8d 4d c0	 lea	 ecx, DWORD PTR $T8[ebp]
  00148	56		 push	 esi
  00149	e8 00 00 00 00	 call	 ??0?$basic_string@DU?$char_traits@D@std@@V?$allocator@D@2@@std@@QAE@QBD@Z ; std::basic_string<char,std::char_traits<char>,std::allocator<char> >::basic_string<char,std::char_traits<char>,std::allocator<char> >
  0014e	57		 push	 edi
  0014f	8d 4d d8	 lea	 ecx, DWORD PTR $T8[ebp+24]
  00152	c6 45 fc 01	 mov	 BYTE PTR __$EHRec$[ebp+8], 1
  00156	e8 00 00 00 00	 call	 ??0?$basic_string@DU?$char_traits@D@std@@V?$allocator@D@2@@std@@QAE@QBD@Z ; std::basic_string<char,std::char_traits<char>,std::allocator<char> >::basic_string<char,std::char_traits<char>,std::allocator<char> >
; File C:\Program Files\Microsoft Visual Studio\2022\Professional\VC\Tools\MSVC\14.44.35207\include\xtree

; 1017 :             _Loc                = _Find_lower_bound(_Keyval);

  0015b	8d 45 c0	 lea	 eax, DWORD PTR $T8[ebp]
; File C:\IAGOS\server\v18\Source\Source\_Common\script.cpp

; 117  : 		bool bResult = m_mapString.insert( map<string, string>::value_type( (LPCTSTR)str, (LPCTSTR)Token ) ).second;

  0015e	c6 45 fc 02	 mov	 BYTE PTR __$EHRec$[ebp+8], 2
; File C:\Program Files\Microsoft Visual Studio\2022\Professional\VC\Tools\MSVC\14.44.35207\include\xtree

; 1017 :             _Loc                = _Find_lower_bound(_Keyval);

  00162	50		 push	 eax
  00163	8d 45 8c	 lea	 eax, DWORD PTR $T3[ebp]
  00166	b9 00 00 00 00	 mov	 ecx, OFFSET ?m_mapString@CScript@@2V?$map@V?$basic_string@DU?$char_traits@D@std@@V?$allocator@D@2@@std@@V12@U?$less@V?$basic_string@DU?$char_traits@D@std@@V?$allocator@D@2@@std@@@2@V?$allocator@U?$pair@$$CBV?$basic_string@DU?$char_traits@D@std@@V?$allocator@D@2@@std@@V12@@std@@@2@@std@@A ; CScript::m_mapString
  0016b	50		 push	 eax
  0016c	e8 00 00 00 00	 call	 ??$_Find_lower_bound@V?$basic_string@DU?$char_traits@D@std@@V?$allocator@D@2@@std@@@?$_Tree@V?$_Tmap_traits@V?$basic_string@DU?$char_traits@D@std@@V?$allocator@D@2@@std@@V12@U?$less@V?$basic_string@DU?$char_traits@D@std@@V?$allocator@D@2@@std@@@2@V?$allocator@U?$pair@$$CBV?$basic_string@DU?$char_traits@D@std@@V?$allocator@D@2@@std@@V12@@std@@@2@$0A@@std@@@std@@IBE?AU?$_Tree_find_result@PAU?$_Tree_node@U?$pair@$$CBV?$basic_string@DU?$char_traits@D@std@@V?$allocator@D@2@@std@@V12@@std@@PAX@std@@@1@ABV?$basic_string@DU?$char_traits@D@std@@V?$allocator@D@2@@1@@Z ; std::_Tree<std::_Tmap_traits<std::basic_string<char,std::char_traits<char>,std::allocator<char> >,std::basic_string<char,std::char_traits<char>,std::allocator<char> >,std::less<std::basic_string<char,std::char_traits<char>,std::allocator<char> > >,std::allocator<std::pair<std::basic_string<char,std::char_traits<char>,std::allocator<char> > const ,std::basic_string<char,std::char_traits<char>,std::allocator<char> > > >,0> >::_Find_lower_bound<std::basic_string<char,std::char_traits<char>,std::allocator<char> > >
  00171	f3 0f 7e 00	 movq	 xmm0, QWORD PTR [eax]
  00175	8b 40 08	 mov	 eax, DWORD PTR [eax+8]
  00178	66 0f d6 45 98	 movq	 QWORD PTR __Loc$4[ebp], xmm0

; 1624 :         return !_Bound->_Isnil && !_DEBUG_LT_PRED(_Getcomp(), _Keyval, _Traits::_Kfn(_Bound->_Myval));

  0017d	80 78 0d 00	 cmp	 BYTE PTR [eax+13], 0
  00181	75 1c		 jne	 SHORT $LN65@LoadString
  00183	83 c0 10	 add	 eax, 16			; 00000010H
; File C:\Program Files\Microsoft Visual Studio\2022\Professional\VC\Tools\MSVC\14.44.35207\include\type_traits

; 2380 :         return _Left < _Right;

  00186	50		 push	 eax
  00187	8d 45 c0	 lea	 eax, DWORD PTR $T8[ebp]
  0018a	50		 push	 eax
  0018b	e8 00 00 00 00	 call	 ??$?MDU?$char_traits@D@std@@V?$allocator@D@1@@std@@YA_NABV?$basic_string@DU?$char_traits@D@std@@V?$allocator@D@2@@0@0@Z ; std::operator<<char,std::char_traits<char>,std::allocator<char> >
  00190	83 c4 08	 add	 esp, 8
; File C:\Program Files\Microsoft Visual Studio\2022\Professional\VC\Tools\MSVC\14.44.35207\include\xtree

; 1624 :         return !_Bound->_Isnil && !_DEBUG_LT_PRED(_Getcomp(), _Keyval, _Traits::_Kfn(_Bound->_Myval));

  00193	84 c0		 test	 al, al
  00195	75 08		 jne	 SHORT $LN65@LoadString
; File C:\Program Files\Microsoft Visual Studio\2022\Professional\VC\Tools\MSVC\14.44.35207\include\utility

; 274  :         : first(_STD forward<_Other1>(_Val1)), second(_STD forward<_Other2>(_Val2)) {

  00197	88 45 bf	 mov	 BYTE PTR __Result$1$sroa$790$1$[ebp], al
; File C:\Program Files\Microsoft Visual Studio\2022\Professional\VC\Tools\MSVC\14.44.35207\include\xtree

; 1019 :                 return {_Loc._Bound, false};

  0019a	e9 a0 00 00 00	 jmp	 $LN256@LoadString
$LN65@LoadString:

; 1648 :         if (max_size() == _Get_scary()->_Mysize) {

  0019f	81 3d 04 00 00
	00 ff ff ff 03	 cmp	 DWORD PTR ?m_mapString@CScript@@2V?$map@V?$basic_string@DU?$char_traits@D@std@@V?$allocator@D@2@@std@@V12@U?$less@V?$basic_string@DU?$char_traits@D@std@@V?$allocator@D@2@@std@@@2@V?$allocator@U?$pair@$$CBV?$basic_string@DU?$char_traits@D@std@@V?$allocator@D@2@@std@@V12@@std@@@2@@std@@A+4, 67108863 ; 03ffffffH
  001a9	0f 84 2a 01 00
	00		 je	 $LN288@LoadString

; 1023 :             _Inserted = _Tree_temp_node<_Alnode>(_Getal(), _Scary->_Myhead, _STD forward<_Valtys>(_Vals)...)._Release();

  001af	a1 00 00 00 00	 mov	 eax, DWORD PTR ?m_mapString@CScript@@2V?$map@V?$basic_string@DU?$char_traits@D@std@@V?$allocator@D@2@@std@@V12@U?$less@V?$basic_string@DU?$char_traits@D@std@@V?$allocator@D@2@@std@@@2@V?$allocator@U?$pair@$$CBV?$basic_string@DU?$char_traits@D@std@@V?$allocator@D@2@@std@@V12@@std@@@2@@std@@A
  001b4	89 45 b8	 mov	 DWORD PTR __Myhead$1$[ebp], eax
; File C:\Program Files\Microsoft Visual Studio\2022\Professional\VC\Tools\MSVC\14.44.35207\include\xmemory

; 1160 :     _CONSTEXPR20 explicit _Alloc_construct_ptr(_Alloc& _Al_) : _Al(_Al_), _Ptr(nullptr) {}

  001b7	c7 45 a4 00 00
	00 00		 mov	 DWORD PTR $T5[ebp], OFFSET ?m_mapString@CScript@@2V?$map@V?$basic_string@DU?$char_traits@D@std@@V?$allocator@D@2@@std@@V12@U?$less@V?$basic_string@DU?$char_traits@D@std@@V?$allocator@D@2@@std@@@2@V?$allocator@U?$pair@$$CBV?$basic_string@DU?$char_traits@D@std@@V?$allocator@D@2@@std@@V12@@std@@@2@@std@@A ; CScript::m_mapString

; 136  :         return ::operator new(_Bytes);

  001be	6a 40		 push	 64			; 00000040H
; File C:\Program Files\Microsoft Visual Studio\2022\Professional\VC\Tools\MSVC\14.44.35207\include\xtree

; 808  :     explicit _Tree_temp_node_alloc(_Alnode& _Al_) : _Alloc_construct_ptr<_Alnode>(_Al_) {

  001c0	c6 45 fc 03	 mov	 BYTE PTR __$EHRec$[ebp+8], 3
; File C:\Program Files\Microsoft Visual Studio\2022\Professional\VC\Tools\MSVC\14.44.35207\include\xmemory

; 1167 :         _Ptr = nullptr; // if allocate throws, prevents double-free

  001c4	c7 45 a8 00 00
	00 00		 mov	 DWORD PTR $T5[ebp+4], 0

; 136  :         return ::operator new(_Bytes);

  001cb	e8 00 00 00 00	 call	 ??2@YAPAXI@Z		; operator new
  001d0	83 c4 04	 add	 esp, 4

; 256  :         return _Traits::_Allocate(_Bytes);

  001d3	89 45 b4	 mov	 DWORD PTR $T7[ebp], eax

; 1168 :         _Ptr = _Al.allocate(1);

  001d6	89 45 a8	 mov	 DWORD PTR $T5[ebp+4], eax
; File C:\Program Files\Microsoft Visual Studio\2022\Professional\VC\Tools\MSVC\14.44.35207\include\xtree

; 830  :         _Alnode_traits::construct(this->_Al, _STD addressof(this->_Ptr->_Myval), _STD forward<_Valtys>(_Vals)...);

  001d9	8d 78 10	 lea	 edi, DWORD PTR [eax+16]
  001dc	c6 45 fc 04	 mov	 BYTE PTR __$EHRec$[ebp+8], 4
; File C:\Program Files\Microsoft Visual Studio\2022\Professional\VC\Tools\MSVC\14.44.35207\include\utility

; 278  :     pair(pair&&)      = default;

  001e0	8d 45 c0	 lea	 eax, DWORD PTR $T8[ebp]
  001e3	8b cf		 mov	 ecx, edi
  001e5	50		 push	 eax
  001e6	e8 00 00 00 00	 call	 ??0?$basic_string@DU?$char_traits@D@std@@V?$allocator@D@2@@std@@QAE@ABV01@@Z ; std::basic_string<char,std::char_traits<char>,std::allocator<char> >::basic_string<char,std::char_traits<char>,std::allocator<char> >
; File C:\Program Files\Microsoft Visual Studio\2022\Professional\VC\Tools\MSVC\14.44.35207\include\xstring

; 1286 :                 _CSTD memcpy(_My_data_mem, _Right_data_mem, _Memcpy_val_size);

  001eb	0f 10 45 d8	 movups	 xmm0, XMMWORD PTR $T8[ebp+24]
; File C:\Program Files\Microsoft Visual Studio\2022\Professional\VC\Tools\MSVC\14.44.35207\include\xtree

; 831  :         _Construct_in_place(this->_Ptr->_Left, _Myhead);

  001ef	8b 45 b4	 mov	 eax, DWORD PTR $T7[ebp]
  001f2	8b 4d b8	 mov	 ecx, DWORD PTR __Myhead$1$[ebp]
; File C:\Program Files\Microsoft Visual Studio\2022\Professional\VC\Tools\MSVC\14.44.35207\include\xstring

; 1286 :                 _CSTD memcpy(_My_data_mem, _Right_data_mem, _Memcpy_val_size);

  001f5	0f 11 47 18	 movups	 XMMWORD PTR [edi+24], xmm0
; File C:\Program Files\Microsoft Visual Studio\2022\Professional\VC\Tools\MSVC\14.44.35207\include\xtree

; 1042 :         return {_Scary->_Insert_node(_Loc._Location, _Inserted), true};

  001f9	50		 push	 eax
; File C:\Program Files\Microsoft Visual Studio\2022\Professional\VC\Tools\MSVC\14.44.35207\include\xstring

; 1286 :                 _CSTD memcpy(_My_data_mem, _Right_data_mem, _Memcpy_val_size);

  001fa	f3 0f 7e 45 e8	 movq	 xmm0, QWORD PTR $T8[ebp+40]
; File C:\Program Files\Microsoft Visual Studio\2022\Professional\VC\Tools\MSVC\14.44.35207\include\xtree

; 1042 :         return {_Scary->_Insert_node(_Loc._Location, _Inserted), true};

  001ff	ff 75 9c	 push	 DWORD PTR __Loc$4[ebp+4]
; File C:\Program Files\Microsoft Visual Studio\2022\Professional\VC\Tools\MSVC\14.44.35207\include\xstring

; 1286 :                 _CSTD memcpy(_My_data_mem, _Right_data_mem, _Memcpy_val_size);

  00202	66 0f d6 47 28	 movq	 QWORD PTR [edi+40], xmm0
; File C:\Program Files\Microsoft Visual Studio\2022\Professional\VC\Tools\MSVC\14.44.35207\include\xtree

; 1042 :         return {_Scary->_Insert_node(_Loc._Location, _Inserted), true};

  00207	ff 75 98	 push	 DWORD PTR __Loc$4[ebp]

; 831  :         _Construct_in_place(this->_Ptr->_Left, _Myhead);

  0020a	89 08		 mov	 DWORD PTR [eax], ecx

; 832  :         _Construct_in_place(this->_Ptr->_Parent, _Myhead);

  0020c	89 48 04	 mov	 DWORD PTR [eax+4], ecx

; 833  :         _Construct_in_place(this->_Ptr->_Right, _Myhead);

  0020f	89 48 08	 mov	 DWORD PTR [eax+8], ecx

; 1042 :         return {_Scary->_Insert_node(_Loc._Location, _Inserted), true};

  00212	b9 00 00 00 00	 mov	 ecx, OFFSET ?m_mapString@CScript@@2V?$map@V?$basic_string@DU?$char_traits@D@std@@V?$allocator@D@2@@std@@V12@U?$less@V?$basic_string@DU?$char_traits@D@std@@V?$allocator@D@2@@std@@@2@V?$allocator@U?$pair@$$CBV?$basic_string@DU?$char_traits@D@std@@V?$allocator@D@2@@std@@V12@@std@@@2@@std@@A ; CScript::m_mapString
; File C:\Program Files\Microsoft Visual Studio\2022\Professional\VC\Tools\MSVC\14.44.35207\include\xstring

; 1288 :                 _Right_data._Mysize = 0;

  00217	c7 45 e8 00 00
	00 00		 mov	 DWORD PTR $T8[ebp+40], 0

; 1289 :                 _Right_data._Myres  = _Small_string_capacity;

  0021e	c7 45 ec 0f 00
	00 00		 mov	 DWORD PTR $T8[ebp+44], 15 ; 0000000fH

; 1290 :                 _Right_data._Activate_SSO_buffer();
; 1291 :                 _Traits::assign(_Right_data._Bx._Buf[0], _Elem());

  00225	c6 45 d8 00	 mov	 BYTE PTR $T8[ebp+24], 0
; File C:\Program Files\Microsoft Visual Studio\2022\Professional\VC\Tools\MSVC\14.44.35207\include\xtree

; 834  :         this->_Ptr->_Color = _Red;

  00229	66 c7 40 0c 00
	00		 mov	 WORD PTR [eax+12], 0
; File C:\Program Files\Microsoft Visual Studio\2022\Professional\VC\Tools\MSVC\14.44.35207\include\utility

; 774  :     _Val         = static_cast<_Other&&>(_New_val);

  0022f	c7 45 a8 00 00
	00 00		 mov	 DWORD PTR $T5[ebp+4], 0
; File C:\Program Files\Microsoft Visual Studio\2022\Professional\VC\Tools\MSVC\14.44.35207\include\xtree

; 1042 :         return {_Scary->_Insert_node(_Loc._Location, _Inserted), true};

  00236	e8 00 00 00 00	 call	 ?_Insert_node@?$_Tree_val@U?$_Tree_simple_types@U?$pair@$$CBV?$basic_string@DU?$char_traits@D@std@@V?$allocator@D@2@@std@@V12@@std@@@std@@@std@@QAEPAU?$_Tree_node@U?$pair@$$CBV?$basic_string@DU?$char_traits@D@std@@V?$allocator@D@2@@std@@V12@@std@@PAX@2@U?$_Tree_id@PAU?$_Tree_node@U?$pair@$$CBV?$basic_string@DU?$char_traits@D@std@@V?$allocator@D@2@@std@@V12@@std@@PAX@std@@@2@QAU32@@Z ; std::_Tree_val<std::_Tree_simple_types<std::pair<std::basic_string<char,std::char_traits<char>,std::allocator<char> > const ,std::basic_string<char,std::char_traits<char>,std::allocator<char> > > > >::_Insert_node
; File C:\Program Files\Microsoft Visual Studio\2022\Professional\VC\Tools\MSVC\14.44.35207\include\utility

; 274  :         : first(_STD forward<_Other1>(_Val1)), second(_STD forward<_Other2>(_Val2)) {

  0023b	c6 45 bf 01	 mov	 BYTE PTR __Result$1$sroa$790$1$[ebp], 1
$LN256@LoadString:
  0023f	8d 4d d8	 lea	 ecx, DWORD PTR $T8[ebp+24]
; File C:\IAGOS\server\v18\Source\Source\_Common\script.cpp

; 117  : 		bool bResult = m_mapString.insert( map<string, string>::value_type( (LPCTSTR)str, (LPCTSTR)Token ) ).second;

  00242	c6 45 fc 00	 mov	 BYTE PTR __$EHRec$[ebp+8], 0
  00246	e8 00 00 00 00	 call	 ??1?$basic_string@DU?$char_traits@D@std@@V?$allocator@D@2@@std@@QAE@XZ ; std::basic_string<char,std::char_traits<char>,std::allocator<char> >::~basic_string<char,std::char_traits<char>,std::allocator<char> >
  0024b	8d 4d c0	 lea	 ecx, DWORD PTR $T8[ebp]
  0024e	e8 00 00 00 00	 call	 ??1?$basic_string@DU?$char_traits@D@std@@V?$allocator@D@2@@std@@QAE@XZ ; std::basic_string<char,std::char_traits<char>,std::allocator<char> >::~basic_string<char,std::char_traits<char>,std::allocator<char> >

; 118  : 		if( !bResult )

  00253	80 7d bf 00	 cmp	 BYTE PTR __Result$1$sroa$790$1$[ebp], 0
  00257	75 0e		 jne	 SHORT $LN5@LoadString

; 119  : 			Error( "string error: %s", str );

  00259	56		 push	 esi
  0025a	68 00 00 00 00	 push	 OFFSET ??_C@_0BB@OFLGCAKK@string?5error?3?5?$CFs@
  0025f	e8 00 00 00 00	 call	 ?Error@@YAPBDPBDZZ	; Error
  00264	83 c4 08	 add	 esp, 8
$LN5@LoadString:

; 120  : 
; 121  : 		CScanner::GetToken();

  00267	8b 7d ac	 mov	 edi, DWORD PTR _this$GSCopy$1$[ebp]
  0026a	8b cf		 mov	 ecx, edi
  0026c	6a 00		 push	 0
  0026e	e8 00 00 00 00	 call	 ?GetToken@CScanner@@UAEHH@Z ; CScanner::GetToken
; File C:\Program Files\Microsoft Visual Studio\2022\Professional\VC\Tools\MSVC\14.44.35207\atlmfc\include\atlsimpstr.h

; 94   : 			pStringMgr->Free( this );

  00273	eb 1c		 jmp	 SHORT $LN303@LoadString
$LN295@LoadString:
; File C:\IAGOS\server\v18\Source\Source\_Common\script.cpp

; 111  : 			Error( "LoadString: %s", m_strFileName );

  00275	ff b7 50 08 00
	00		 push	 DWORD PTR [edi+2128]
  0027b	68 00 00 00 00	 push	 OFFSET ??_C@_0P@DFBKCGIL@LoadString?3?5?$CFs@
  00280	e8 00 00 00 00	 call	 ?Error@@YAPBDPBDZZ	; Error

; 112  : 			GetToken();

  00285	8b 07		 mov	 eax, DWORD PTR [edi]
  00287	83 c4 08	 add	 esp, 8
  0028a	8b cf		 mov	 ecx, edi
  0028c	6a 00		 push	 0
  0028e	ff 50 14	 call	 DWORD PTR [eax+20]
$LN303@LoadString:

; 106  : 	while( tok != FINISHED )

  00291	83 c8 ff	 or	 eax, -1
  00294	83 c6 f0	 add	 esi, -16		; fffffff0H
  00297	89 45 fc	 mov	 DWORD PTR __$EHRec$[ebp+8], eax
  0029a	f0 0f c1 46 0c	 lock	  xadd	 DWORD PTR [esi+12], eax
  0029f	48		 dec	 eax
  002a0	85 c0		 test	 eax, eax
  002a2	7f 08		 jg	 SHORT $LN283@LoadString
  002a4	8b 0e		 mov	 ecx, DWORD PTR [esi]
  002a6	56		 push	 esi
  002a7	8b 01		 mov	 eax, DWORD PTR [ecx]
  002a9	ff 50 04	 call	 DWORD PTR [eax+4]
$LN283@LoadString:
  002ac	83 bf 44 08 00
	00 15		 cmp	 DWORD PTR [edi+2116], 21 ; 00000015H
  002b3	0f 85 8a fd ff
	ff		 jne	 $LL2@LoadString
$LN3@LoadString:

; 123  : }

  002b9	8b 4d f4	 mov	 ecx, DWORD PTR __$EHRec$[ebp]
  002bc	64 89 0d 00 00
	00 00		 mov	 DWORD PTR fs:0, ecx
  002c3	59		 pop	 ecx
  002c4	5f		 pop	 edi
  002c5	5e		 pop	 esi
  002c6	8b 4d f0	 mov	 ecx, DWORD PTR __$ArrayPad$[ebp]
  002c9	33 cd		 xor	 ecx, ebp
  002cb	e8 00 00 00 00	 call	 @__security_check_cookie@4
  002d0	8b e5		 mov	 esp, ebp
  002d2	5d		 pop	 ebp
  002d3	c3		 ret	 0
$LN287@LoadString:
; File C:\Program Files\Microsoft Visual Studio\2022\Professional\VC\Tools\MSVC\14.44.35207\atlmfc\include\atlsimpstr.h

; 897  : 				ThrowMemoryException();

  002d4	e8 00 00 00 00	 call	 ?ThrowMemoryException@?$CSimpleStringT@D$0A@@ATL@@KAXXZ ; ATL::CSimpleStringT<char,0>::ThrowMemoryException
$LN288@LoadString:
; File C:\Program Files\Microsoft Visual Studio\2022\Professional\VC\Tools\MSVC\14.44.35207\include\xtree

; 1649 :             _Throw_tree_length_error();

  002d9	e8 00 00 00 00	 call	 ?_Throw_tree_length_error@std@@YAXXZ ; std::_Throw_tree_length_error
$LN300@LoadString:
  002de	cc		 int	 3
_TEXT	ENDS
;	COMDAT text$x
text$x	SEGMENT
__unwindfunclet$?LoadStringA@CScript@@QAEXXZ$0:
  00000	8d 4d b0	 lea	 ecx, DWORD PTR _str$6[ebp]
  00003	e9 00 00 00 00	 jmp	 ??1?$CStringT@DV?$StrTraitMFC@DV?$ChTraitsCRT@D@ATL@@@@@ATL@@QAE@XZ ; ATL::CStringT<char,StrTraitMFC<char,ATL::ChTraitsCRT<char> > >::~CStringT<char,StrTraitMFC<char,ATL::ChTraitsCRT<char> > >
__unwindfunclet$?LoadStringA@CScript@@QAEXXZ$3:
  00008	8d 4d c0	 lea	 ecx, DWORD PTR $T8[ebp]
  0000b	e9 00 00 00 00	 jmp	 ??1?$basic_string@DU?$char_traits@D@std@@V?$allocator@D@2@@std@@QAE@XZ ; std::basic_string<char,std::char_traits<char>,std::allocator<char> >::~basic_string<char,std::char_traits<char>,std::allocator<char> >
__unwindfunclet$?LoadStringA@CScript@@QAEXXZ$1:
  00010	8d 4d c0	 lea	 ecx, DWORD PTR $T8[ebp]
  00013	e9 00 00 00 00	 jmp	 ??1?$pair@$$CBV?$basic_string@DU?$char_traits@D@std@@V?$allocator@D@2@@std@@V12@@std@@QAE@XZ
__unwindfunclet$?LoadStringA@CScript@@QAEXXZ$7:
  00018	8d 4d a4	 lea	 ecx, DWORD PTR $T5[ebp]
  0001b	e9 00 00 00 00	 jmp	 ??1?$_Alloc_construct_ptr@V?$allocator@U?$_Tree_node@U?$pair@$$CBV?$basic_string@DU?$char_traits@D@std@@V?$allocator@D@2@@std@@V12@@std@@PAX@std@@@std@@@std@@QAE@XZ ; std::_Alloc_construct_ptr<std::allocator<std::_Tree_node<std::pair<std::basic_string<char,std::char_traits<char>,std::allocator<char> > const ,std::basic_string<char,std::char_traits<char>,std::allocator<char> > >,void *> > >::~_Alloc_construct_ptr<std::allocator<std::_Tree_node<std::pair<std::basic_string<char,std::char_traits<char>,std::allocator<char> > const ,std::basic_string<char,std::char_traits<char>,std::allocator<char> > >,void *> > >
__unwindfunclet$?LoadStringA@CScript@@QAEXXZ$6:
  00020	8d 4d a4	 lea	 ecx, DWORD PTR $T5[ebp]
  00023	e9 00 00 00 00	 jmp	 ??1?$_Tree_temp_node_alloc@V?$allocator@U?$_Tree_node@U?$pair@$$CBV?$basic_string@DU?$char_traits@D@std@@V?$allocator@D@2@@std@@V12@@std@@PAX@std@@@std@@@std@@QAE@XZ
  00028	cc		 int	 3
  00029	cc		 int	 3
  0002a	cc		 int	 3
  0002b	cc		 int	 3
  0002c	cc		 int	 3
__ehhandler$?LoadStringA@CScript@@QAEXXZ:
  0002d	90		 npad	 1
  0002e	90		 npad	 1
  0002f	8b 54 24 08	 mov	 edx, DWORD PTR [esp+8]
  00033	8d 42 0c	 lea	 eax, DWORD PTR [edx+12]
  00036	8b 4a 8c	 mov	 ecx, DWORD PTR [edx-116]
  00039	33 c8		 xor	 ecx, eax
  0003b	e8 00 00 00 00	 call	 @__security_check_cookie@4
  00040	8b 4a fc	 mov	 ecx, DWORD PTR [edx-4]
  00043	33 c8		 xor	 ecx, eax
  00045	e8 00 00 00 00	 call	 @__security_check_cookie@4
  0004a	b8 00 00 00 00	 mov	 eax, OFFSET __ehfuncinfo$?LoadStringA@CScript@@QAEXXZ
  0004f	e9 00 00 00 00	 jmp	 ___CxxFrameHandler3
text$x	ENDS
?LoadStringA@CScript@@QAEXXZ ENDP			; CScript::LoadStringA
; Function compile flags: /Ogtp
; File C:\IAGOS\server\v18\Source\Source\_Common\script.cpp
;	COMDAT ?GetLastFull@CScript@@QAEXXZ
_TEXT	SEGMENT
?GetLastFull@CScript@@QAEXXZ PROC			; CScript::GetLastFull, COMDAT
; _this$ = ecx

; 153  : {

  00000	56		 push	 esi
  00001	8b f1		 mov	 esi, ecx

; 154  : 	CScanner::GetLastFull();	

  00003	e8 00 00 00 00	 call	 ?GetLastFull@CScanner@@QAEXXZ ; CScanner::GetLastFull

; 155  : 	cmd = 0;
; 156  : 	
; 157  : 	if( *token == 0 && m_pOldProg ) 

  00008	8b 46 3c	 mov	 eax, DWORD PTR [esi+60]
  0000b	c6 86 e4 0d 00
	00 00		 mov	 BYTE PTR [esi+3556], 0
  00012	80 38 00	 cmp	 BYTE PTR [eax], 0
  00015	75 36		 jne	 SHORT $LN9@GetLastFul
  00017	66 0f 1f 84 00
	00 00 00 00	 npad	 9
$LL4@GetLastFul:
  00020	8b 86 60 08 00
	00		 mov	 eax, DWORD PTR [esi+2144]
  00026	85 c0		 test	 eax, eax
  00028	74 23		 je	 SHORT $LN9@GetLastFul

; 158  : 	{
; 159  : 		m_pProg = m_pOldProg; 

  0002a	8b ce		 mov	 ecx, esi
  0002c	89 46 18	 mov	 DWORD PTR [esi+24], eax

; 160  : 		m_pOldProg = 0;

  0002f	c7 86 60 08 00
	00 00 00 00 00	 mov	 DWORD PTR [esi+2144], 0
  00039	e8 00 00 00 00	 call	 ?GetLastFull@CScanner@@QAEXXZ ; CScanner::GetLastFull
  0003e	c6 86 e4 0d 00
	00 00		 mov	 BYTE PTR [esi+3556], 0
  00045	8b 46 3c	 mov	 eax, DWORD PTR [esi+60]
  00048	80 38 00	 cmp	 BYTE PTR [eax], 0
  0004b	74 d3		 je	 SHORT $LL4@GetLastFul
$LN9@GetLastFul:
  0004d	5e		 pop	 esi

; 161  : 		GetLastFull();	
; 162  : 	}
; 163  : }

  0004e	c3		 ret	 0
?GetLastFull@CScript@@QAEXXZ ENDP			; CScript::GetLastFull
_TEXT	ENDS
; Function compile flags: /Ogtp
; File C:\IAGOS\server\v18\Source\Source\_Common\script.cpp
;	COMDAT ?GetToken_NoDef@CScript@@QAEHH@Z
_TEXT	SEGMENT
_bComma$ = 8						; size = 4
?GetToken_NoDef@CScript@@QAEHH@Z PROC			; CScript::GetToken_NoDef, COMDAT
; _this$ = ecx

; 245  : {

  00000	55		 push	 ebp
  00001	8b ec		 mov	 ebp, esp
  00003	56		 push	 esi

; 246  : 	GetTkn( bComma );

  00004	ff 75 08	 push	 DWORD PTR _bComma$[ebp]
  00007	8b f1		 mov	 esi, ecx
  00009	e8 00 00 00 00	 call	 ?GetTkn@CScript@@QAEHH@Z ; CScript::GetTkn

; 247  : 	if( tok == FINISHED && m_pOldProg ) 

  0000e	83 be 44 08 00
	00 15		 cmp	 DWORD PTR [esi+2116], 21 ; 00000015H
  00015	75 26		 jne	 SHORT $LN2@GetToken_N
  00017	8b 86 60 08 00
	00		 mov	 eax, DWORD PTR [esi+2144]
  0001d	85 c0		 test	 eax, eax
  0001f	74 1c		 je	 SHORT $LN2@GetToken_N

; 248  : 	{
; 249  : 		m_pProg = m_pOldProg; 
; 250  : 		m_pOldProg = 0;
; 251  : 		return GetTkn( bComma );

  00021	ff 75 08	 push	 DWORD PTR _bComma$[ebp]
  00024	8b ce		 mov	 ecx, esi
  00026	89 46 18	 mov	 DWORD PTR [esi+24], eax
  00029	c7 86 60 08 00
	00 00 00 00 00	 mov	 DWORD PTR [esi+2144], 0
  00033	e8 00 00 00 00	 call	 ?GetTkn@CScript@@QAEHH@Z ; CScript::GetTkn
  00038	5e		 pop	 esi

; 254  : }

  00039	5d		 pop	 ebp
  0003a	c2 04 00	 ret	 4
$LN2@GetToken_N:

; 252  : 	}
; 253  : 	return tokenType;

  0003d	8b 86 40 08 00
	00		 mov	 eax, DWORD PTR [esi+2112]
  00043	5e		 pop	 esi

; 254  : }

  00044	5d		 pop	 ebp
  00045	c2 04 00	 ret	 4
?GetToken_NoDef@CScript@@QAEHH@Z ENDP			; CScript::GetToken_NoDef
_TEXT	ENDS
; Function compile flags: /Ogtp
; File C:\IAGOS\server\v18\Source\Source\_Common\script.cpp
; File C:\IAGOS\server\v18\Source\Source\_Common\script.h
; File C:\IAGOS\server\v18\Source\Source\_Common\script.cpp
; File C:\Program Files\Microsoft Visual Studio\2022\Professional\VC\Tools\MSVC\14.44.35207\include\xtree
; File C:\Program Files\Microsoft Visual Studio\2022\Professional\VC\Tools\MSVC\14.44.35207\include\type_traits
; File C:\Program Files\Microsoft Visual Studio\2022\Professional\VC\Tools\MSVC\14.44.35207\include\xtree
; File C:\IAGOS\server\v18\Source\Source\_Common\script.cpp
; File C:\Program Files\Microsoft Visual Studio\2022\Professional\VC\Tools\MSVC\14.44.35207\include\xtree
; File C:\IAGOS\server\v18\Source\Source\_Common\script.cpp
; File C:\Program Files\Microsoft Visual Studio\2022\Professional\VC\Tools\MSVC\14.44.35207\include\xstring
; File C:\IAGOS\server\v18\Source\Source\_Common\script.cpp
; File C:\Program Files\Microsoft Visual Studio\2022\Professional\VC\Tools\MSVC\14.44.35207\include\xstring
; File C:\IAGOS\server\v18\Source\Source\_Common\script.cpp
; File C:\Program Files\Microsoft Visual Studio\2022\Professional\VC\Tools\MSVC\14.44.35207\atlmfc\include\atlsimpstr.h
; File C:\IAGOS\server\v18\Source\Source\_Common\script.cpp
; File C:\Program Files\Microsoft Visual Studio\2022\Professional\VC\Tools\MSVC\14.44.35207\atlmfc\include\atlsimpstr.h
; File C:\IAGOS\server\v18\Source\Source\_Common\script.cpp
; File C:\Program Files\Microsoft Visual Studio\2022\Professional\VC\Tools\MSVC\14.44.35207\atlmfc\include\atlsimpstr.h
; File C:\IAGOS\server\v18\Source\Source\_Common\script.cpp
; File C:\Program Files\Microsoft Visual Studio\2022\Professional\VC\Tools\MSVC\14.44.35207\atlmfc\include\atlsimpstr.h
; File C:\IAGOS\server\v18\Source\Source\_Common\script.cpp
;	COMDAT ?GetToken@CScript@@UAEHH@Z
_TEXT	SEGMENT
__Loc$2 = -56						; size = 12
_nValue$3 = -44						; size = 4
_string$4 = -44						; size = 4
_string$5 = -44						; size = 4
$T6 = -40						; size = 24
__$ArrayPad$ = -16					; size = 4
__$EHRec$ = -12						; size = 12
_bComma$ = 8						; size = 4
?GetToken@CScript@@UAEHH@Z PROC				; CScript::GetToken, COMDAT
; _this$ = ecx

; 185  : {

  00000	55		 push	 ebp
  00001	8b ec		 mov	 ebp, esp
  00003	6a ff		 push	 -1
  00005	68 00 00 00 00	 push	 __ehhandler$?GetToken@CScript@@UAEHH@Z
  0000a	64 a1 00 00 00
	00		 mov	 eax, DWORD PTR fs:0
  00010	50		 push	 eax
  00011	83 ec 2c	 sub	 esp, 44			; 0000002cH
  00014	a1 00 00 00 00	 mov	 eax, DWORD PTR ___security_cookie
  00019	33 c5		 xor	 eax, ebp
  0001b	89 45 f0	 mov	 DWORD PTR __$ArrayPad$[ebp], eax
  0001e	53		 push	 ebx
  0001f	56		 push	 esi
  00020	57		 push	 edi
  00021	50		 push	 eax
  00022	8d 45 f4	 lea	 eax, DWORD PTR __$EHRec$[ebp]
  00025	64 a3 00 00 00
	00		 mov	 DWORD PTR fs:0, eax
  0002b	8b f1		 mov	 esi, ecx

; 186  : 	GetTkn( bComma );

  0002d	8b 7d 08	 mov	 edi, DWORD PTR _bComma$[ebp]
  00030	57		 push	 edi
  00031	e8 00 00 00 00	 call	 ?GetTkn@CScript@@QAEHH@Z ; CScript::GetTkn

; 187  : 
; 188  : 	if( tokenType == IDENTIFIER ) 

  00036	83 be 40 08 00
	00 02		 cmp	 DWORD PTR [esi+2112], 2
  0003d	0f 85 dd 01 00
	00		 jne	 $LN2@GetToken
; File C:\IAGOS\server\v18\Source\Source\_Common\script.h

; 219  : 	BOOL			IsInterpriterMode() { return process == INTERPRITER; }

  00043	83 be 58 08 00
	00 00		 cmp	 DWORD PTR [esi+2136], 0
; File C:\IAGOS\server\v18\Source\Source\_Common\script.cpp

; 191  : 		if( IsInterpriterMode() )

  0004a	0f 85 59 01 00
	00		 jne	 $LN14@GetToken

; 193  : 			map<string, string>::iterator i = CScript::m_mapString.find( m_mszToken );

  00050	8d 7e 40	 lea	 edi, DWORD PTR [esi+64]
  00053	57		 push	 edi
  00054	8d 4d d8	 lea	 ecx, DWORD PTR $T6[ebp]
  00057	e8 00 00 00 00	 call	 ??0?$basic_string@DU?$char_traits@D@std@@V?$allocator@D@2@@std@@QAE@QBD@Z ; std::basic_string<char,std::char_traits<char>,std::allocator<char> >::basic_string<char,std::char_traits<char>,std::allocator<char> >
; File C:\Program Files\Microsoft Visual Studio\2022\Professional\VC\Tools\MSVC\14.44.35207\include\xtree

; 1384 :         const _Tree_find_result<_Nodeptr> _Loc = _Find_lower_bound(_Keyval);

  0005c	8d 45 d8	 lea	 eax, DWORD PTR $T6[ebp]
  0005f	b9 00 00 00 00	 mov	 ecx, OFFSET ?m_mapString@CScript@@2V?$map@V?$basic_string@DU?$char_traits@D@std@@V?$allocator@D@2@@std@@V12@U?$less@V?$basic_string@DU?$char_traits@D@std@@V?$allocator@D@2@@std@@@2@V?$allocator@U?$pair@$$CBV?$basic_string@DU?$char_traits@D@std@@V?$allocator@D@2@@std@@V12@@std@@@2@@std@@A ; CScript::m_mapString
  00064	50		 push	 eax
  00065	8d 45 c8	 lea	 eax, DWORD PTR __Loc$2[ebp]
  00068	50		 push	 eax
  00069	e8 00 00 00 00	 call	 ??$_Find_lower_bound@V?$basic_string@DU?$char_traits@D@std@@V?$allocator@D@2@@std@@@?$_Tree@V?$_Tmap_traits@V?$basic_string@DU?$char_traits@D@std@@V?$allocator@D@2@@std@@V12@U?$less@V?$basic_string@DU?$char_traits@D@std@@V?$allocator@D@2@@std@@@2@V?$allocator@U?$pair@$$CBV?$basic_string@DU?$char_traits@D@std@@V?$allocator@D@2@@std@@V12@@std@@@2@$0A@@std@@@std@@IBE?AU?$_Tree_find_result@PAU?$_Tree_node@U?$pair@$$CBV?$basic_string@DU?$char_traits@D@std@@V?$allocator@D@2@@std@@V12@@std@@PAX@std@@@1@ABV?$basic_string@DU?$char_traits@D@std@@V?$allocator@D@2@@1@@Z ; std::_Tree<std::_Tmap_traits<std::basic_string<char,std::char_traits<char>,std::allocator<char> >,std::basic_string<char,std::char_traits<char>,std::allocator<char> >,std::less<std::basic_string<char,std::char_traits<char>,std::allocator<char> > >,std::allocator<std::pair<std::basic_string<char,std::char_traits<char>,std::allocator<char> > const ,std::basic_string<char,std::char_traits<char>,std::allocator<char> > > >,0> >::_Find_lower_bound<std::basic_string<char,std::char_traits<char>,std::allocator<char> > >

; 1624 :         return !_Bound->_Isnil && !_DEBUG_LT_PRED(_Getcomp(), _Keyval, _Traits::_Kfn(_Bound->_Myval));

  0006e	8b 5d d0	 mov	 ebx, DWORD PTR __Loc$2[ebp+8]
  00071	80 7b 0d 00	 cmp	 BYTE PTR [ebx+13], 0
  00075	75 14		 jne	 SHORT $LN24@GetToken
  00077	8d 43 10	 lea	 eax, DWORD PTR [ebx+16]
; File C:\Program Files\Microsoft Visual Studio\2022\Professional\VC\Tools\MSVC\14.44.35207\include\type_traits

; 2380 :         return _Left < _Right;

  0007a	50		 push	 eax
  0007b	8d 45 d8	 lea	 eax, DWORD PTR $T6[ebp]
  0007e	50		 push	 eax
  0007f	e8 00 00 00 00	 call	 ??$?MDU?$char_traits@D@std@@V?$allocator@D@1@@std@@YA_NABV?$basic_string@DU?$char_traits@D@std@@V?$allocator@D@2@@0@0@Z ; std::operator<<char,std::char_traits<char>,std::allocator<char> >
  00084	83 c4 08	 add	 esp, 8
; File C:\Program Files\Microsoft Visual Studio\2022\Professional\VC\Tools\MSVC\14.44.35207\include\xtree

; 1624 :         return !_Bound->_Isnil && !_DEBUG_LT_PRED(_Getcomp(), _Keyval, _Traits::_Kfn(_Bound->_Myval));

  00087	84 c0		 test	 al, al
  00089	74 06		 je	 SHORT $LN23@GetToken
$LN24@GetToken:

; 1389 :         return _Get_scary()->_Myhead;

  0008b	8b 1d 00 00 00
	00		 mov	 ebx, DWORD PTR ?m_mapString@CScript@@2V?$map@V?$basic_string@DU?$char_traits@D@std@@V?$allocator@D@2@@std@@V12@U?$less@V?$basic_string@DU?$char_traits@D@std@@V?$allocator@D@2@@std@@@2@V?$allocator@U?$pair@$$CBV?$basic_string@DU?$char_traits@D@std@@V?$allocator@D@2@@std@@V12@@std@@@2@@std@@A
$LN23@GetToken:
; File C:\IAGOS\server\v18\Source\Source\_Common\script.cpp

; 193  : 			map<string, string>::iterator i = CScript::m_mapString.find( m_mszToken );

  00091	8d 4d d8	 lea	 ecx, DWORD PTR $T6[ebp]
  00094	e8 00 00 00 00	 call	 ??1?$basic_string@DU?$char_traits@D@std@@V?$allocator@D@2@@std@@QAE@XZ ; std::basic_string<char,std::char_traits<char>,std::allocator<char> >::~basic_string<char,std::char_traits<char>,std::allocator<char> >
; File C:\Program Files\Microsoft Visual Studio\2022\Professional\VC\Tools\MSVC\14.44.35207\include\xtree

; 37   :     _Tree_unchecked_const_iterator(_Nodeptr _Pnode, const _Mytree* _Plist) noexcept : _Ptr(_Pnode) {

  00099	3b 1d 00 00 00
	00		 cmp	 ebx, DWORD PTR ?m_mapString@CScript@@2V?$map@V?$basic_string@DU?$char_traits@D@std@@V?$allocator@D@2@@std@@V12@U?$less@V?$basic_string@DU?$char_traits@D@std@@V?$allocator@D@2@@std@@@2@V?$allocator@U?$pair@$$CBV?$basic_string@DU?$char_traits@D@std@@V?$allocator@D@2@@std@@V12@@std@@@2@@std@@A
; File C:\IAGOS\server\v18\Source\Source\_Common\script.cpp

; 194  : 			if( i != CScript::m_mapString.end() )

  0009f	74 4f		 je	 SHORT $LN5@GetToken
; File C:\Program Files\Microsoft Visual Studio\2022\Professional\VC\Tools\MSVC\14.44.35207\include\xstring

; 2356 :         return _Mypair._Myval2._Myptr();

  000a1	83 c3 28	 add	 ebx, 40			; 00000028H
; File C:\IAGOS\server\v18\Source\Source\_Common\script.cpp

; 196  : 				tokenType = STRING;

  000a4	c7 86 40 08 00
	00 06 00 00 00	 mov	 DWORD PTR [esi+2112], 6
; File C:\Program Files\Microsoft Visual Studio\2022\Professional\VC\Tools\MSVC\14.44.35207\include\xstring

; 453  :         return _Myres > _Small_string_capacity;

  000ae	83 7b 14 0f	 cmp	 DWORD PTR [ebx+20], 15	; 0000000fH

; 445  :         if (_Large_mode_engaged()) {

  000b2	76 02		 jbe	 SHORT $LN73@GetToken

; 446  :             _Result = _Unfancy(_Bx._Ptr);

  000b4	8b 1b		 mov	 ebx, DWORD PTR [ebx]
$LN73@GetToken:
; File C:\IAGOS\server\v18\Source\Source\_Common\script.cpp

; 197  : 				lstrcpy(m_mszToken, i->second.c_str());

  000b6	53		 push	 ebx
  000b7	57		 push	 edi
  000b8	ff 15 00 00 00
	00		 call	 DWORD PTR __imp__lstrcpyA@8
; File C:\Program Files\Microsoft Visual Studio\2022\Professional\VC\Tools\MSVC\14.44.35207\atlmfc\include\atlsimpstr.h

; 726  : 		if( psz == NULL )

  000be	85 ff		 test	 edi, edi
  000c0	75 11		 jne	 SHORT $LN86@GetToken

; 727  : 		{
; 728  : 			return( 0 );

  000c2	33 c9		 xor	 ecx, ecx

; 606  : 		SetString( pszSrc, StringLength( pszSrc ) );

  000c4	51		 push	 ecx
  000c5	57		 push	 edi
  000c6	8d 4e 20	 lea	 ecx, DWORD PTR [esi+32]
  000c9	e8 00 00 00 00	 call	 ?SetString@?$CSimpleStringT@D$0A@@ATL@@QAEXPBDH@Z ; ATL::CSimpleStringT<char,0>::SetString
; File C:\IAGOS\server\v18\Source\Source\_Common\script.cpp

; 199  : 			}

  000ce	e9 d6 00 00 00	 jmp	 $LN14@GetToken
$LN86@GetToken:
; File C:\Program Files\Microsoft Visual Studio\2022\Professional\VC\Tools\MSVC\14.44.35207\atlmfc\include\atlsimpstr.h

; 730  : 		return( int( strlen( psz ) ) );

  000d3	8b cf		 mov	 ecx, edi
  000d5	8d 51 01	 lea	 edx, DWORD PTR [ecx+1]
$LL102@GetToken:
  000d8	8a 01		 mov	 al, BYTE PTR [ecx]
  000da	41		 inc	 ecx
  000db	84 c0		 test	 al, al
  000dd	75 f9		 jne	 SHORT $LL102@GetToken
  000df	2b ca		 sub	 ecx, edx

; 606  : 		SetString( pszSrc, StringLength( pszSrc ) );

  000e1	51		 push	 ecx
  000e2	57		 push	 edi
  000e3	8d 4e 20	 lea	 ecx, DWORD PTR [esi+32]
  000e6	e8 00 00 00 00	 call	 ?SetString@?$CSimpleStringT@D$0A@@ATL@@QAEXPBDH@Z ; ATL::CSimpleStringT<char,0>::SetString
; File C:\IAGOS\server\v18\Source\Source\_Common\script.cpp

; 199  : 			}

  000eb	e9 b9 00 00 00	 jmp	 $LN14@GetToken
$LN5@GetToken:

; 200  : 			else
; 201  : 			{
; 202  : 				int nValue = 0;
; 203  : 				if( LookupDefine( token, nValue ) )

  000f0	8d 45 d4	 lea	 eax, DWORD PTR _nValue$3[ebp]
  000f3	c7 45 d4 00 00
	00 00		 mov	 DWORD PTR _nValue$3[ebp], 0
  000fa	50		 push	 eax
  000fb	ff 76 3c	 push	 DWORD PTR [esi+60]
  000fe	e8 00 00 00 00	 call	 ?LookupDefine@CScript@@SAHPBDAAH@Z ; CScript::LookupDefine
  00103	83 c4 08	 add	 esp, 8
  00106	85 c0		 test	 eax, eax
  00108	74 4b		 je	 SHORT $LN7@GetToken

; 204  : 				{
; 205  : 					tokenType = NUMBER;
; 206  : 					wsprintf( m_mszToken, "%d", nValue );

  0010a	ff 75 d4	 push	 DWORD PTR _nValue$3[ebp]
  0010d	c7 86 40 08 00
	00 03 00 00 00	 mov	 DWORD PTR [esi+2112], 3
  00117	68 00 00 00 00	 push	 OFFSET ??_C@_02DPKJAMEF@?$CFd@
  0011c	57		 push	 edi
  0011d	ff 15 00 00 00
	00		 call	 DWORD PTR __imp__wsprintfA
  00123	83 c4 0c	 add	 esp, 12			; 0000000cH
; File C:\Program Files\Microsoft Visual Studio\2022\Professional\VC\Tools\MSVC\14.44.35207\atlmfc\include\atlsimpstr.h

; 726  : 		if( psz == NULL )

  00126	85 ff		 test	 edi, edi
  00128	75 0e		 jne	 SHORT $LN95@GetToken

; 727  : 		{
; 728  : 			return( 0 );

  0012a	33 c9		 xor	 ecx, ecx

; 606  : 		SetString( pszSrc, StringLength( pszSrc ) );

  0012c	51		 push	 ecx
  0012d	57		 push	 edi
  0012e	8d 4e 20	 lea	 ecx, DWORD PTR [esi+32]
  00131	e8 00 00 00 00	 call	 ?SetString@?$CSimpleStringT@D$0A@@ATL@@QAEXPBDH@Z ; ATL::CSimpleStringT<char,0>::SetString
; File C:\IAGOS\server\v18\Source\Source\_Common\script.cpp

; 208  : 				}

  00136	eb 71		 jmp	 SHORT $LN14@GetToken
$LN95@GetToken:
; File C:\Program Files\Microsoft Visual Studio\2022\Professional\VC\Tools\MSVC\14.44.35207\atlmfc\include\atlsimpstr.h

; 730  : 		return( int( strlen( psz ) ) );

  00138	8b cf		 mov	 ecx, edi
  0013a	8d 51 01	 lea	 edx, DWORD PTR [ecx+1]
  0013d	0f 1f 00	 npad	 3
$LL103@GetToken:
  00140	8a 01		 mov	 al, BYTE PTR [ecx]
  00142	41		 inc	 ecx
  00143	84 c0		 test	 al, al
  00145	75 f9		 jne	 SHORT $LL103@GetToken
  00147	2b ca		 sub	 ecx, edx

; 606  : 		SetString( pszSrc, StringLength( pszSrc ) );

  00149	51		 push	 ecx
  0014a	57		 push	 edi
  0014b	8d 4e 20	 lea	 ecx, DWORD PTR [esi+32]
  0014e	e8 00 00 00 00	 call	 ?SetString@?$CSimpleStringT@D$0A@@ATL@@QAEXPBDH@Z ; ATL::CSimpleStringT<char,0>::SetString
; File C:\IAGOS\server\v18\Source\Source\_Common\script.cpp

; 208  : 				}

  00153	eb 54		 jmp	 SHORT $LN14@GetToken
$LN7@GetToken:

; 209  : 				else
; 210  : 				{
; 211  : 					if( m_dwDef == 1 )

  00155	8b 46 10	 mov	 eax, DWORD PTR [esi+16]
  00158	83 f8 01	 cmp	 eax, 1
  0015b	75 70		 jne	 SHORT $LN9@GetToken

; 212  : 					{
; 213  : 						// ÇÁ·ÎĆŰĆĽ ¶§ą®żˇ. =Ŕ» -1·Î »çżëÇĎ´Â °ÍŔş ŔáÁ¤ŔűŔ¸·Î ą®Á¦°ˇ ŔÖŔ˝.
; 214  : 						if( *token != '\0' && *token != '=' && *token != '-' && *token != '+' ) 

  0015d	8b 46 3c	 mov	 eax, DWORD PTR [esi+60]
  00160	8a 00		 mov	 al, BYTE PTR [eax]
  00162	84 c0		 test	 al, al
  00164	74 43		 je	 SHORT $LN14@GetToken
  00166	3c 3d		 cmp	 al, 61			; 0000003dH
  00168	74 3f		 je	 SHORT $LN14@GetToken
  0016a	3c 2d		 cmp	 al, 45			; 0000002dH
  0016c	74 3b		 je	 SHORT $LN14@GetToken
  0016e	3c 2b		 cmp	 al, 43			; 0000002bH
  00170	74 37		 je	 SHORT $LN14@GetToken

; 215  : 						{
; 216  : 							CString string;

  00172	8d 4d d4	 lea	 ecx, DWORD PTR _string$4[ebp]
  00175	e8 00 00 00 00	 call	 ??0?$CStringT@DV?$StrTraitMFC@DV?$ChTraitsCRT@D@ATL@@@@@ATL@@QAE@XZ ; ATL::CStringT<char,StrTraitMFC<char,ATL::ChTraitsCRT<char> > >::CStringT<char,StrTraitMFC<char,ATL::ChTraitsCRT<char> > >
  0017a	c7 45 fc 00 00
	00 00		 mov	 DWORD PTR __$EHRec$[ebp+8], 0
$LN105@GetToken:

; 240  : 	}
; 241  : 	return tokenType;

  00181	ff 76 3c	 push	 DWORD PTR [esi+60]
  00184	8d 45 d4	 lea	 eax, DWORD PTR _string$4[ebp]
  00187	68 00 00 00 00	 push	 OFFSET ??_C@_0O@PIAMLODH@?$CFs?5Not?5Found?4@
  0018c	50		 push	 eax
  0018d	e8 00 00 00 00	 call	 ?Format@?$CStringT@DV?$StrTraitMFC@DV?$ChTraitsCRT@D@ATL@@@@@ATL@@QAAXPBDZZ ; ATL::CStringT<char,StrTraitMFC<char,ATL::ChTraitsCRT<char> > >::Format
  00192	8b 06		 mov	 eax, DWORD PTR [esi]
  00194	83 c4 0c	 add	 esp, 12			; 0000000cH
  00197	8b ce		 mov	 ecx, esi
  00199	6a 00		 push	 0
  0019b	ff 75 d4	 push	 DWORD PTR _string$4[ebp]
  0019e	ff 50 18	 call	 DWORD PTR [eax+24]
  001a1	8d 4d d4	 lea	 ecx, DWORD PTR _string$4[ebp]
  001a4	e8 00 00 00 00	 call	 ??1?$CStringT@DV?$StrTraitMFC@DV?$ChTraitsCRT@D@ATL@@@@@ATL@@QAE@XZ ; ATL::CStringT<char,StrTraitMFC<char,ATL::ChTraitsCRT<char> > >::~CStringT<char,StrTraitMFC<char,ATL::ChTraitsCRT<char> > >
$LN14@GetToken:
  001a9	8b 86 40 08 00
	00		 mov	 eax, DWORD PTR [esi+2112]
$LN1@GetToken:

; 242  : }

  001af	8b 4d f4	 mov	 ecx, DWORD PTR __$EHRec$[ebp]
  001b2	64 89 0d 00 00
	00 00		 mov	 DWORD PTR fs:0, ecx
  001b9	59		 pop	 ecx
  001ba	5f		 pop	 edi
  001bb	5e		 pop	 esi
  001bc	5b		 pop	 ebx
  001bd	8b 4d f0	 mov	 ecx, DWORD PTR __$ArrayPad$[ebp]
  001c0	33 cd		 xor	 ecx, ebp
  001c2	e8 00 00 00 00	 call	 @__security_check_cookie@4
  001c7	8b e5		 mov	 esp, ebp
  001c9	5d		 pop	 ebp
  001ca	c2 04 00	 ret	 4
$LN9@GetToken:

; 217  : 							string.Format( "%s Not Found.", token );
; 218  : 							SntxErr( string, 0 );
; 219  : 						}
; 220  : 					}
; 221  : 					else if( m_dwDef == 2 )

  001cd	83 f8 02	 cmp	 eax, 2
  001d0	75 d7		 jne	 SHORT $LN14@GetToken

; 222  : 					{
; 223  : 						// Ĺ°żöµĺµµ ľĆ´Ď°í, ł»ŔĺÇÔĽöµµ ľĆ´Ď°í, ŔŻŔúÇÔĽöµµ ľĆ´Ď¶ó¸é µµ´ëĂĽ ąąÁö?
; 224  : 						if( !( tok = LookUp( token ) ) && InternalFunc( token ) == -1 && FindFunc( token ) == FALSE && *token != '#' )

  001d2	ff 76 3c	 push	 DWORD PTR [esi+60]
  001d5	8b ce		 mov	 ecx, esi
  001d7	e8 00 00 00 00	 call	 ?LookUp@CScript@@QAEDPBD@Z ; CScript::LookUp
  001dc	0f be c0	 movsx	 eax, al
  001df	89 86 44 08 00
	00		 mov	 DWORD PTR [esi+2116], eax
  001e5	85 c0		 test	 eax, eax
  001e7	75 c0		 jne	 SHORT $LN14@GetToken
  001e9	ff 76 3c	 push	 DWORD PTR [esi+60]
  001ec	8b ce		 mov	 ecx, esi
  001ee	e8 00 00 00 00	 call	 ?InternalFunc@CScript@@QAEHPAD@Z ; CScript::InternalFunc
  001f3	83 f8 ff	 cmp	 eax, -1
  001f6	75 b1		 jne	 SHORT $LN14@GetToken
  001f8	8b 7e 3c	 mov	 edi, DWORD PTR [esi+60]
  001fb	8b ce		 mov	 ecx, esi
  001fd	57		 push	 edi
  001fe	e8 00 00 00 00	 call	 ?FindFunc@CScript@@QAEPADPAD@Z ; CScript::FindFunc
  00203	85 c0		 test	 eax, eax
  00205	75 a2		 jne	 SHORT $LN14@GetToken
  00207	80 3f 23	 cmp	 BYTE PTR [edi], 35	; 00000023H
  0020a	74 9d		 je	 SHORT $LN14@GetToken

; 225  : 						{
; 226  : 							CString string;

  0020c	8d 4d d4	 lea	 ecx, DWORD PTR _string$5[ebp]
  0020f	e8 00 00 00 00	 call	 ??0?$CStringT@DV?$StrTraitMFC@DV?$ChTraitsCRT@D@ATL@@@@@ATL@@QAE@XZ ; ATL::CStringT<char,StrTraitMFC<char,ATL::ChTraitsCRT<char> > >::CStringT<char,StrTraitMFC<char,ATL::ChTraitsCRT<char> > >
  00214	c7 45 fc 01 00
	00 00		 mov	 DWORD PTR __$EHRec$[ebp+8], 1

; 227  : 							string.Format( "%s Not Found.", token );
; 228  : 							SntxErr( string, 0 );
; 229  : 						}
; 230  : 					}
; 231  : 				}
; 232  : 			}
; 233  : 		}
; 234  : 	}

  0021b	e9 61 ff ff ff	 jmp	 $LN105@GetToken
$LN2@GetToken:

; 235  : 	else if( tok == FINISHED && m_pOldProg ) 

  00220	83 be 44 08 00
	00 15		 cmp	 DWORD PTR [esi+2116], 21 ; 00000015H
  00227	75 80		 jne	 SHORT $LN14@GetToken
  00229	8b 86 60 08 00
	00		 mov	 eax, DWORD PTR [esi+2144]
  0022f	85 c0		 test	 eax, eax
  00231	0f 84 72 ff ff
	ff		 je	 $LN14@GetToken

; 236  : 	{
; 237  : 		m_pProg = m_pOldProg; 

  00237	89 46 18	 mov	 DWORD PTR [esi+24], eax

; 238  : 		m_pOldProg = 0;
; 239  : 		return GetToken( bComma );

  0023a	8b ce		 mov	 ecx, esi
  0023c	8b 06		 mov	 eax, DWORD PTR [esi]
  0023e	57		 push	 edi
  0023f	c7 86 60 08 00
	00 00 00 00 00	 mov	 DWORD PTR [esi+2144], 0
  00249	ff 50 14	 call	 DWORD PTR [eax+20]
  0024c	e9 5e ff ff ff	 jmp	 $LN1@GetToken
_TEXT	ENDS
;	COMDAT text$x
text$x	SEGMENT
__unwindfunclet$?GetToken@CScript@@UAEHH@Z$1:
  00000	8d 4d d4	 lea	 ecx, DWORD PTR _string$4[ebp]
  00003	e9 00 00 00 00	 jmp	 ??1?$CStringT@DV?$StrTraitMFC@DV?$ChTraitsCRT@D@ATL@@@@@ATL@@QAE@XZ ; ATL::CStringT<char,StrTraitMFC<char,ATL::ChTraitsCRT<char> > >::~CStringT<char,StrTraitMFC<char,ATL::ChTraitsCRT<char> > >
__unwindfunclet$?GetToken@CScript@@UAEHH@Z$2:
  00008	8d 4d d4	 lea	 ecx, DWORD PTR _string$5[ebp]
  0000b	e9 00 00 00 00	 jmp	 ??1?$CStringT@DV?$StrTraitMFC@DV?$ChTraitsCRT@D@ATL@@@@@ATL@@QAE@XZ ; ATL::CStringT<char,StrTraitMFC<char,ATL::ChTraitsCRT<char> > >::~CStringT<char,StrTraitMFC<char,ATL::ChTraitsCRT<char> > >
  00010	cc		 int	 3
  00011	cc		 int	 3
  00012	cc		 int	 3
  00013	cc		 int	 3
  00014	cc		 int	 3
__ehhandler$?GetToken@CScript@@UAEHH@Z:
  00015	90		 npad	 1
  00016	90		 npad	 1
  00017	8b 54 24 08	 mov	 edx, DWORD PTR [esp+8]
  0001b	8d 42 0c	 lea	 eax, DWORD PTR [edx+12]
  0001e	8b 4a c4	 mov	 ecx, DWORD PTR [edx-60]
  00021	33 c8		 xor	 ecx, eax
  00023	e8 00 00 00 00	 call	 @__security_check_cookie@4
  00028	8b 4a fc	 mov	 ecx, DWORD PTR [edx-4]
  0002b	33 c8		 xor	 ecx, eax
  0002d	e8 00 00 00 00	 call	 @__security_check_cookie@4
  00032	b8 00 00 00 00	 mov	 eax, OFFSET __ehfuncinfo$?GetToken@CScript@@UAEHH@Z
  00037	e9 00 00 00 00	 jmp	 ___CxxFrameHandler3
text$x	ENDS
?GetToken@CScript@@UAEHH@Z ENDP				; CScript::GetToken
; Function compile flags: /Ogtp
; File C:\IAGOS\server\v18\Source\Source\_Common\script.cpp
; File C:\Program Files\Microsoft Visual Studio\2022\Professional\VC\Tools\MSVC\14.44.35207\include\xmemory
; File C:\IAGOS\server\v18\Source\Source\_Common\script.cpp
; File C:\Program Files\Microsoft Visual Studio\2022\Professional\VC\Tools\MSVC\14.44.35207\include\utility
; File C:\Program Files\Microsoft Visual Studio\2022\Professional\VC\Tools\MSVC\14.44.35207\include\xtree
; File C:\Program Files\Microsoft Visual Studio\2022\Professional\VC\Tools\MSVC\14.44.35207\include\xmemory
; File C:\Program Files\Microsoft Visual Studio\2022\Professional\VC\Tools\MSVC\14.44.35207\include\xtree
; File C:\Program Files\Microsoft Visual Studio\2022\Professional\VC\Tools\MSVC\14.44.35207\include\xmemory
; File C:\Program Files\Microsoft Visual Studio\2022\Professional\VC\Tools\MSVC\14.44.35207\include\utility
; File C:\Program Files\Microsoft Visual Studio\2022\Professional\VC\Tools\MSVC\14.44.35207\include\xtree
; File C:\Program Files\Microsoft Visual Studio\2022\Professional\VC\Tools\MSVC\14.44.35207\include\utility
; File C:\Program Files\Microsoft Visual Studio\2022\Professional\VC\Tools\MSVC\14.44.35207\include\xtree
; File C:\Program Files\Microsoft Visual Studio\2022\Professional\VC\Tools\MSVC\14.44.35207\include\type_traits
; File C:\Program Files\Microsoft Visual Studio\2022\Professional\VC\Tools\MSVC\14.44.35207\include\xtree
; File C:\Program Files\Microsoft Visual Studio\2022\Professional\VC\Tools\MSVC\14.44.35207\include\xstring
; File C:\Program Files\Microsoft Visual Studio\2022\Professional\VC\Tools\MSVC\14.44.35207\include\xtree
; File C:\Program Files\Microsoft Visual Studio\2022\Professional\VC\Tools\MSVC\14.44.35207\include\xstring
; File C:\Program Files\Microsoft Visual Studio\2022\Professional\VC\Tools\MSVC\14.44.35207\include\xmemory
; File C:\Program Files\Microsoft Visual Studio\2022\Professional\VC\Tools\MSVC\14.44.35207\include\xstring
; File C:\Program Files\Microsoft Visual Studio\2022\Professional\VC\Tools\MSVC\14.44.35207\include\xmemory
; File C:\Program Files\Microsoft Visual Studio\2022\Professional\VC\Tools\MSVC\14.44.35207\include\xstring
; File C:\Program Files\Microsoft Visual Studio\2022\Professional\VC\Tools\MSVC\14.44.35207\include\xmemory
; File C:\Program Files\Microsoft Visual Studio\2022\Professional\VC\Tools\MSVC\14.44.35207\include\xtree
; File C:\Program Files\Microsoft Visual Studio\2022\Professional\VC\Tools\MSVC\14.44.35207\include\utility
; File C:\Program Files\Microsoft Visual Studio\2022\Professional\VC\Tools\MSVC\14.44.35207\include\xtree
; File C:\IAGOS\server\v18\Source\Source\_Common\script.cpp
; File C:\Program Files\Microsoft Visual Studio\2022\Professional\VC\Tools\MSVC\14.44.35207\atlmfc\include\afxstr.h
; File C:\Program Files\Microsoft Visual Studio\2022\Professional\VC\Tools\MSVC\14.44.35207\atlmfc\include\atlsimpstr.h
; File C:\Program Files\Microsoft Visual Studio\2022\Professional\VC\Tools\MSVC\14.44.35207\atlmfc\include\cstringt.h
; File C:\Program Files\Microsoft Visual Studio\2022\Professional\VC\Tools\MSVC\14.44.35207\atlmfc\include\atlsimpstr.h
; File C:\IAGOS\server\v18\Source\Source\_Common\script.cpp
; File C:\Program Files\Microsoft Visual Studio\2022\Professional\VC\Tools\MSVC\14.44.35207\atlmfc\include\afxstr.h
; File C:\Program Files\Microsoft Visual Studio\2022\Professional\VC\Tools\MSVC\14.44.35207\atlmfc\include\atlsimpstr.h
; File C:\Program Files\Microsoft Visual Studio\2022\Professional\VC\Tools\MSVC\14.44.35207\atlmfc\include\cstringt.h
; File C:\Program Files\Microsoft Visual Studio\2022\Professional\VC\Tools\MSVC\14.44.35207\atlmfc\include\atlsimpstr.h
; File C:\IAGOS\server\v18\Source\Source\_Common\script.cpp
; File C:\Program Files\Microsoft Visual Studio\2022\Professional\VC\Tools\MSVC\14.44.35207\include\xmemory
; File C:\Program Files\Microsoft Visual Studio\2022\Professional\VC\Tools\MSVC\14.44.35207\include\xtree
; File C:\Program Files\Microsoft Visual Studio\2022\Professional\VC\Tools\MSVC\14.44.35207\atlmfc\include\atlsimpstr.h
; File C:\IAGOS\server\v18\Source\Source\_Common\script.cpp
;	COMDAT ?PreScan@CScript@@QAEXXZ
_TEXT	SEGMENT
$T3 = -64						; size = 12
__Loc$4 = -52						; size = 12
__Newnode$5 = -40					; size = 8
_p$1$ = -32						; size = 4
_pOldBuf$1$ = -28					; size = 4
_brace$1$ = -24						; size = 4
_strFile$6 = -20					; size = 4
_strTemp$7 = -20					; size = 4
$T8 = -20						; size = 4
_eNum$1$ = -16						; size = 4
_pOldProg$1$ = -16					; size = 4
__$EHRec$ = -12						; size = 12
?PreScan@CScript@@QAEXXZ PROC				; CScript::PreScan, COMDAT
; _this$ = ecx

; 302  : {

  00000	55		 push	 ebp
  00001	8b ec		 mov	 ebp, esp
  00003	6a ff		 push	 -1
  00005	68 00 00 00 00	 push	 __ehhandler$?PreScan@CScript@@QAEXXZ
  0000a	64 a1 00 00 00
	00		 mov	 eax, DWORD PTR fs:0
  00010	50		 push	 eax
  00011	83 ec 34	 sub	 esp, 52			; 00000034H
  00014	53		 push	 ebx
  00015	56		 push	 esi
  00016	57		 push	 edi
  00017	a1 00 00 00 00	 mov	 eax, DWORD PTR ___security_cookie
  0001c	33 c5		 xor	 eax, ebp
  0001e	50		 push	 eax
  0001f	8d 45 f4	 lea	 eax, DWORD PTR __$EHRec$[ebp]
  00022	64 a3 00 00 00
	00		 mov	 DWORD PTR fs:0, eax
  00028	8b f9		 mov	 edi, ecx

; 303  : 	int brace = 0; 
; 304  : 	funcIndex = 0;
; 305  : 	char* p = m_pProg;

  0002a	8b 77 18	 mov	 esi, DWORD PTR [edi+24]
  0002d	33 db		 xor	 ebx, ebx

; 306  : 	GetTkn();

  0002f	53		 push	 ebx
  00030	89 5d e8	 mov	 DWORD PTR _brace$1$[ebp], ebx
  00033	89 9f 38 0b 00
	00		 mov	 DWORD PTR [edi+2872], ebx
  00039	89 75 e0	 mov	 DWORD PTR _p$1$[ebp], esi
  0003c	e8 00 00 00 00	 call	 ?GetTkn@CScript@@QAEHH@Z ; CScript::GetTkn

; 307  : 
; 308  : 	if( !strcmp(token,"#") )

  00041	8b 47 3c	 mov	 eax, DWORD PTR [edi+60]
  00044	b9 00 00 00 00	 mov	 ecx, OFFSET ??_C@_01IPJKGB@?$CD@
  00049	0f 1f 80 00 00
	00 00		 npad	 7
$LL385@PreScan:
  00050	8a 10		 mov	 dl, BYTE PTR [eax]
  00052	3a 11		 cmp	 dl, BYTE PTR [ecx]
  00054	75 1a		 jne	 SHORT $LN386@PreScan
  00056	84 d2		 test	 dl, dl
  00058	74 12		 je	 SHORT $LN387@PreScan
  0005a	8a 50 01	 mov	 dl, BYTE PTR [eax+1]
  0005d	3a 51 01	 cmp	 dl, BYTE PTR [ecx+1]
  00060	75 0e		 jne	 SHORT $LN386@PreScan
  00062	83 c0 02	 add	 eax, 2
  00065	83 c1 02	 add	 ecx, 2
  00068	84 d2		 test	 dl, dl
  0006a	75 e4		 jne	 SHORT $LL385@PreScan
$LN387@PreScan:
  0006c	33 c0		 xor	 eax, eax
  0006e	eb 05		 jmp	 SHORT $LN388@PreScan
$LN386@PreScan:
  00070	1b c0		 sbb	 eax, eax
  00072	83 c8 01	 or	 eax, 1
$LN388@PreScan:
  00075	85 c0		 test	 eax, eax
  00077	75 07		 jne	 SHORT $LN10@PreScan

; 309  : 	{
; 310  : 		process = COMPILER;

  00079	b8 01 00 00 00	 mov	 eax, 1

; 311  : 	}

  0007e	eb 05		 jmp	 SHORT $LN366@PreScan
$LN10@PreScan:

; 312  : 	else 
; 313  : 	{
; 314  : 		process = INTERPRITER;
; 315  : 		m_pProg = p;

  00080	89 77 18	 mov	 DWORD PTR [edi+24], esi
  00083	33 c0		 xor	 eax, eax
$LN366@PreScan:
  00085	89 87 58 08 00
	00		 mov	 DWORD PTR [edi+2136], eax
  0008b	0f 1f 44 00 00	 npad	 5
$LL4@PreScan:

; 316  : 	}
; 317  : 	
; 318  : 	do 
; 319  : 	{
; 320  : 		if( brace ) 			

  00090	85 db		 test	 ebx, ebx
  00092	0f 85 c9 03 00
	00		 jne	 $LN352@PreScan

; 321  : 			return;	// bypass code inside functions 
; 322  : 
; 323  : 		GetTkn();

  00098	53		 push	 ebx
  00099	8b cf		 mov	 ecx, edi
  0009b	e8 00 00 00 00	 call	 ?GetTkn@CScript@@QAEHH@Z ; CScript::GetTkn

; 324  : 
; 325  : 		if(tok==DEFINE) 

  000a0	8b 87 44 08 00
	00		 mov	 eax, DWORD PTR [edi+2116]
  000a6	83 f8 12	 cmp	 eax, 18			; 00000012H
  000a9	75 0c		 jne	 SHORT $LN13@PreScan

; 326  : 			ExecDefine();

  000ab	8b cf		 mov	 ecx, edi
  000ad	e8 00 00 00 00	 call	 ?ExecDefine@CScript@@QAEXXZ ; CScript::ExecDefine
  000b2	e9 93 03 00 00	 jmp	 $LN2@PreScan
$LN13@PreScan:

; 327  : 		else if(tok==ENUM) 

  000b7	83 f8 14	 cmp	 eax, 20			; 00000014H
  000ba	0f 85 84 01 00
	00		 jne	 $LN15@PreScan

; 328  : 		{
; 329  : 			int eNum = 0; 
; 330  : 			GetTkn(); // {

  000c0	6a 00		 push	 0
  000c2	8b cf		 mov	 ecx, edi
  000c4	c7 45 f0 00 00
	00 00		 mov	 DWORD PTR _eNum$1$[ebp], 0
  000cb	e8 00 00 00 00	 call	 ?GetTkn@CScript@@QAEHH@Z ; CScript::GetTkn
; File C:\Program Files\Microsoft Visual Studio\2022\Professional\VC\Tools\MSVC\14.44.35207\include\xmemory

; 1160 :     _CONSTEXPR20 explicit _Alloc_construct_ptr(_Alloc& _Al_) : _Al(_Al_), _Ptr(nullptr) {}

  000d0	c7 45 d8 00 00
	00 00		 mov	 DWORD PTR __Newnode$5[ebp], OFFSET ?m_defines@CScript@@2V?$map@V?$basic_string@DU?$char_traits@D@std@@V?$allocator@D@2@@std@@HU?$less@V?$basic_string@DU?$char_traits@D@std@@V?$allocator@D@2@@std@@@2@V?$allocator@U?$pair@$$CBV?$basic_string@DU?$char_traits@D@std@@V?$allocator@D@2@@std@@H@std@@@2@@std@@A ; CScript::m_defines
$LL7@PreScan:
; File C:\IAGOS\server\v18\Source\Source\_Common\script.cpp

; 333  : 				GetTkn();

  000d7	6a 00		 push	 0
  000d9	8b cf		 mov	 ecx, edi
  000db	e8 00 00 00 00	 call	 ?GetTkn@CScript@@QAEHH@Z ; CScript::GetTkn

; 334  : 				GetTkn(); //  , or =

  000e0	6a 00		 push	 0
  000e2	8b cf		 mov	 ecx, edi
  000e4	e8 00 00 00 00	 call	 ?GetTkn@CScript@@QAEHH@Z ; CScript::GetTkn

; 335  : 				if(*token=='=') 

  000e9	8b 47 3c	 mov	 eax, DWORD PTR [edi+60]
  000ec	80 38 3d	 cmp	 BYTE PTR [eax], 61	; 0000003dH
  000ef	75 20		 jne	 SHORT $LN17@PreScan

; 336  : 				{
; 337  : 					GetTkn(); // num

  000f1	6a 00		 push	 0
  000f3	8b cf		 mov	 ecx, edi
  000f5	e8 00 00 00 00	 call	 ?GetTkn@CScript@@QAEHH@Z ; CScript::GetTkn

; 338  : 					eNum = atoi(token);

  000fa	ff 77 3c	 push	 DWORD PTR [edi+60]
  000fd	e8 00 00 00 00	 call	 _atoi
  00102	83 c4 04	 add	 esp, 4
  00105	89 45 f0	 mov	 DWORD PTR _eNum$1$[ebp], eax

; 339  : 					GetTkn(); // ,

  00108	8b cf		 mov	 ecx, edi
  0010a	6a 00		 push	 0
  0010c	e8 00 00 00 00	 call	 ?GetTkn@CScript@@QAEHH@Z ; CScript::GetTkn
$LN17@PreScan:
; File C:\Program Files\Microsoft Visual Studio\2022\Professional\VC\Tools\MSVC\14.44.35207\include\utility

; 274  :         : first(_STD forward<_Other1>(_Val1)), second(_STD forward<_Other2>(_Val2)) {

  00111	8b 77 3c	 mov	 esi, DWORD PTR [edi+60]
; File C:\Program Files\Microsoft Visual Studio\2022\Professional\VC\Tools\MSVC\14.44.35207\include\xtree

; 1026 :             _Tree_temp_node<_Alnode> _Newnode(_Getal(), _Scary->_Myhead, _STD forward<_Valtys>(_Vals)...);

  00114	8b 1d 00 00 00
	00		 mov	 ebx, DWORD PTR ?m_defines@CScript@@2V?$map@V?$basic_string@DU?$char_traits@D@std@@V?$allocator@D@2@@std@@HU?$less@V?$basic_string@DU?$char_traits@D@std@@V?$allocator@D@2@@std@@@2@V?$allocator@U?$pair@$$CBV?$basic_string@DU?$char_traits@D@std@@V?$allocator@D@2@@std@@H@std@@@2@@std@@A
; File C:\Program Files\Microsoft Visual Studio\2022\Professional\VC\Tools\MSVC\14.44.35207\include\xmemory

; 136  :         return ::operator new(_Bytes);

  0011a	6a 2c		 push	 44			; 0000002cH
; File C:\Program Files\Microsoft Visual Studio\2022\Professional\VC\Tools\MSVC\14.44.35207\include\xtree

; 808  :     explicit _Tree_temp_node_alloc(_Alnode& _Al_) : _Alloc_construct_ptr<_Alnode>(_Al_) {

  0011c	c7 45 fc 00 00
	00 00		 mov	 DWORD PTR __$EHRec$[ebp+8], 0
; File C:\Program Files\Microsoft Visual Studio\2022\Professional\VC\Tools\MSVC\14.44.35207\include\xmemory

; 1167 :         _Ptr = nullptr; // if allocate throws, prevents double-free

  00123	c7 45 dc 00 00
	00 00		 mov	 DWORD PTR __Newnode$5[ebp+4], 0

; 136  :         return ::operator new(_Bytes);

  0012a	e8 00 00 00 00	 call	 ??2@YAPAXI@Z		; operator new
  0012f	83 c4 04	 add	 esp, 4

; 256  :         return _Traits::_Allocate(_Bytes);

  00132	89 45 ec	 mov	 DWORD PTR $T8[ebp], eax

; 1168 :         _Ptr = _Al.allocate(1);

  00135	89 45 dc	 mov	 DWORD PTR __Newnode$5[ebp+4], eax
; File C:\Program Files\Microsoft Visual Studio\2022\Professional\VC\Tools\MSVC\14.44.35207\include\utility

; 303  :         : first(_STD forward<_Other1>(_Right.first)), second(_STD forward<_Other2>(_Right.second)) {}

  00138	56		 push	 esi
  00139	8d 70 10	 lea	 esi, DWORD PTR [eax+16]
; File C:\Program Files\Microsoft Visual Studio\2022\Professional\VC\Tools\MSVC\14.44.35207\include\xtree

; 829  :         : _Tree_temp_node_alloc<_Alnode>(_Al_) {

  0013c	c7 45 fc 01 00
	00 00		 mov	 DWORD PTR __$EHRec$[ebp+8], 1
; File C:\Program Files\Microsoft Visual Studio\2022\Professional\VC\Tools\MSVC\14.44.35207\include\utility

; 303  :         : first(_STD forward<_Other1>(_Right.first)), second(_STD forward<_Other2>(_Right.second)) {}

  00143	8b ce		 mov	 ecx, esi
  00145	e8 00 00 00 00	 call	 ??0?$basic_string@DU?$char_traits@D@std@@V?$allocator@D@2@@std@@QAE@QBD@Z ; std::basic_string<char,std::char_traits<char>,std::allocator<char> >::basic_string<char,std::char_traits<char>,std::allocator<char> >
  0014a	8b 45 f0	 mov	 eax, DWORD PTR _eNum$1$[ebp]
  0014d	89 46 18	 mov	 DWORD PTR [esi+24], eax
; File C:\Program Files\Microsoft Visual Studio\2022\Professional\VC\Tools\MSVC\14.44.35207\include\xtree

; 831  :         _Construct_in_place(this->_Ptr->_Left, _Myhead);

  00150	8b 45 ec	 mov	 eax, DWORD PTR $T8[ebp]
  00153	89 18		 mov	 DWORD PTR [eax], ebx

; 832  :         _Construct_in_place(this->_Ptr->_Parent, _Myhead);

  00155	89 58 04	 mov	 DWORD PTR [eax+4], ebx

; 833  :         _Construct_in_place(this->_Ptr->_Right, _Myhead);

  00158	89 58 08	 mov	 DWORD PTR [eax+8], ebx

; 834  :         this->_Ptr->_Color = _Red;

  0015b	66 c7 40 0c 00
	00		 mov	 WORD PTR [eax+12], 0

; 1031 :                 _Loc = _Find_lower_bound(_Keyval);

  00161	56		 push	 esi
  00162	8d 45 c0	 lea	 eax, DWORD PTR $T3[ebp]
  00165	c7 45 fc 02 00
	00 00		 mov	 DWORD PTR __$EHRec$[ebp+8], 2
  0016c	50		 push	 eax
  0016d	b9 00 00 00 00	 mov	 ecx, OFFSET ?m_defines@CScript@@2V?$map@V?$basic_string@DU?$char_traits@D@std@@V?$allocator@D@2@@std@@HU?$less@V?$basic_string@DU?$char_traits@D@std@@V?$allocator@D@2@@std@@@2@V?$allocator@U?$pair@$$CBV?$basic_string@DU?$char_traits@D@std@@V?$allocator@D@2@@std@@H@std@@@2@@std@@A ; CScript::m_defines
  00172	e8 00 00 00 00	 call	 ??$_Find_lower_bound@V?$basic_string@DU?$char_traits@D@std@@V?$allocator@D@2@@std@@@?$_Tree@V?$_Tmap_traits@V?$basic_string@DU?$char_traits@D@std@@V?$allocator@D@2@@std@@HU?$less@V?$basic_string@DU?$char_traits@D@std@@V?$allocator@D@2@@std@@@2@V?$allocator@U?$pair@$$CBV?$basic_string@DU?$char_traits@D@std@@V?$allocator@D@2@@std@@H@std@@@2@$0A@@std@@@std@@IBE?AU?$_Tree_find_result@PAU?$_Tree_node@U?$pair@$$CBV?$basic_string@DU?$char_traits@D@std@@V?$allocator@D@2@@std@@H@std@@PAX@std@@@1@ABV?$basic_string@DU?$char_traits@D@std@@V?$allocator@D@2@@1@@Z ; std::_Tree<std::_Tmap_traits<std::basic_string<char,std::char_traits<char>,std::allocator<char> >,int,std::less<std::basic_string<char,std::char_traits<char>,std::allocator<char> > >,std::allocator<std::pair<std::basic_string<char,std::char_traits<char>,std::allocator<char> > const ,int> >,0> >::_Find_lower_bound<std::basic_string<char,std::char_traits<char>,std::allocator<char> > >
  00177	f3 0f 7e 00	 movq	 xmm0, QWORD PTR [eax]
  0017b	8b 40 08	 mov	 eax, DWORD PTR [eax+8]
  0017e	66 0f d6 45 cc	 movq	 QWORD PTR __Loc$4[ebp], xmm0

; 1624 :         return !_Bound->_Isnil && !_DEBUG_LT_PRED(_Getcomp(), _Keyval, _Traits::_Kfn(_Bound->_Myval));

  00183	80 78 0d 00	 cmp	 BYTE PTR [eax+13], 0
  00187	75 6c		 jne	 SHORT $LN43@PreScan
  00189	83 c0 10	 add	 eax, 16			; 00000010H
; File C:\Program Files\Microsoft Visual Studio\2022\Professional\VC\Tools\MSVC\14.44.35207\include\type_traits

; 2380 :         return _Left < _Right;

  0018c	50		 push	 eax
  0018d	56		 push	 esi
  0018e	e8 00 00 00 00	 call	 ??$?MDU?$char_traits@D@std@@V?$allocator@D@1@@std@@YA_NABV?$basic_string@DU?$char_traits@D@std@@V?$allocator@D@2@@0@0@Z ; std::operator<<char,std::char_traits<char>,std::allocator<char> >
  00193	83 c4 08	 add	 esp, 8
; File C:\Program Files\Microsoft Visual Studio\2022\Professional\VC\Tools\MSVC\14.44.35207\include\xtree

; 1624 :         return !_Bound->_Isnil && !_DEBUG_LT_PRED(_Getcomp(), _Keyval, _Traits::_Kfn(_Bound->_Myval));

  00196	84 c0		 test	 al, al
  00198	75 5b		 jne	 SHORT $LN43@PreScan
; File C:\Program Files\Microsoft Visual Studio\2022\Professional\VC\Tools\MSVC\14.44.35207\include\xstring

; 453  :         return _Myres > _Small_string_capacity;

  0019a	8b 4e 14	 mov	 ecx, DWORD PTR [esi+20]
; File C:\Program Files\Microsoft Visual Studio\2022\Professional\VC\Tools\MSVC\14.44.35207\include\xtree

; 1033 :                     return {_Loc._Bound, false};

  0019d	c7 45 fc ff ff
	ff ff		 mov	 DWORD PTR __$EHRec$[ebp+8], -1
; File C:\Program Files\Microsoft Visual Studio\2022\Professional\VC\Tools\MSVC\14.44.35207\include\xstring

; 453  :         return _Myres > _Small_string_capacity;

  001a4	83 f9 0f	 cmp	 ecx, 15			; 0000000fH

; 3083 :         if (_My_data._Large_mode_engaged()) {

  001a7	76 2b		 jbe	 SHORT $LN124@PreScan
; File C:\Program Files\Microsoft Visual Studio\2022\Professional\VC\Tools\MSVC\14.44.35207\include\xmemory

; 985  :         _STD _Deallocate<_New_alignof<_Ty>>(_Ptr, sizeof(_Ty) * _Count);

  001a9	8b 06		 mov	 eax, DWORD PTR [esi]
; File C:\Program Files\Microsoft Visual Studio\2022\Professional\VC\Tools\MSVC\14.44.35207\include\xstring

; 852  :         _Al.deallocate(_Old_ptr, _Capacity + 1); // +1 for null terminator

  001ab	41		 inc	 ecx
; File C:\Program Files\Microsoft Visual Studio\2022\Professional\VC\Tools\MSVC\14.44.35207\include\xmemory

; 284  :         if (_Bytes >= _Big_allocation_threshold) {

  001ac	81 f9 00 10 00
	00		 cmp	 ecx, 4096		; 00001000H
  001b2	72 16		 jb	 SHORT $LN129@PreScan

; 205  :     const uintptr_t _Ptr_container   = _Ptr_user[-1];

  001b4	8b 50 fc	 mov	 edx, DWORD PTR [eax-4]
  001b7	83 c1 23	 add	 ecx, 35			; 00000023H

; 206  : 
; 207  :     // If the following asserts, it likely means that we are performing
; 208  :     // an aligned delete on memory coming from an unaligned allocation.
; 209  :     _STL_ASSERT(_Ptr_user[-2] == _Big_allocation_sentinel, "invalid argument");
; 210  : 
; 211  :     // Extra paranoia on aligned allocation/deallocation; ensure _Ptr_container is
; 212  :     // in range [_Min_back_shift, _Non_user_size]
; 213  : #ifdef _DEBUG
; 214  :     constexpr uintptr_t _Min_back_shift = 2 * sizeof(void*);
; 215  : #else // ^^^ defined(_DEBUG) / !defined(_DEBUG) vvv
; 216  :     constexpr uintptr_t _Min_back_shift = sizeof(void*);
; 217  : #endif // ^^^ !defined(_DEBUG) ^^^
; 218  :     const uintptr_t _Back_shift = reinterpret_cast<uintptr_t>(_Ptr) - _Ptr_container;

  001ba	2b c2		 sub	 eax, edx

; 219  :     _STL_VERIFY(_Back_shift >= _Min_back_shift && _Back_shift <= _Non_user_size, "invalid argument");

  001bc	83 c0 fc	 add	 eax, -4			; fffffffcH
  001bf	83 f8 1f	 cmp	 eax, 31			; 0000001fH
  001c2	0f 87 ab 02 00
	00		 ja	 $LN346@PreScan

; 220  :     _Ptr = reinterpret_cast<void*>(_Ptr_container);

  001c8	8b c2		 mov	 eax, edx
$LN129@PreScan:

; 289  :         ::operator delete(_Ptr, _Bytes);

  001ca	51		 push	 ecx
  001cb	50		 push	 eax
  001cc	e8 00 00 00 00	 call	 ??3@YAXPAXI@Z		; operator delete
  001d1	83 c4 08	 add	 esp, 8
$LN124@PreScan:
  001d4	8b 45 ec	 mov	 eax, DWORD PTR $T8[ebp]
  001d7	6a 2c		 push	 44			; 0000002cH
  001d9	50		 push	 eax
; File C:\Program Files\Microsoft Visual Studio\2022\Professional\VC\Tools\MSVC\14.44.35207\include\xstring

; 3090 :         _My_data._Mysize = 0;

  001da	c7 46 10 00 00
	00 00		 mov	 DWORD PTR [esi+16], 0

; 3091 :         _My_data._Myres  = _Small_string_capacity;

  001e1	c7 46 14 0f 00
	00 00		 mov	 DWORD PTR [esi+20], 15	; 0000000fH

; 3092 :         // the _Traits::assign is last so the codegen doesn't think the char write can alias this
; 3093 :         _Traits::assign(_My_data._Bx._Buf[0], _Elem());

  001e8	c6 06 00	 mov	 BYTE PTR [esi], 0
; File C:\Program Files\Microsoft Visual Studio\2022\Professional\VC\Tools\MSVC\14.44.35207\include\xmemory

; 289  :         ::operator delete(_Ptr, _Bytes);

  001eb	e8 00 00 00 00	 call	 ??3@YAXPAXI@Z		; operator delete
  001f0	83 c4 08	 add	 esp, 8
; File C:\Program Files\Microsoft Visual Studio\2022\Professional\VC\Tools\MSVC\14.44.35207\include\xtree

; 1033 :                     return {_Loc._Bound, false};

  001f3	eb 32		 jmp	 SHORT $LN249@PreScan
$LN43@PreScan:

; 1648 :         if (max_size() == _Get_scary()->_Mysize) {

  001f5	81 3d 04 00 00
	00 5d 74 d1 05	 cmp	 DWORD PTR ?m_defines@CScript@@2V?$map@V?$basic_string@DU?$char_traits@D@std@@V?$allocator@D@2@@std@@HU?$less@V?$basic_string@DU?$char_traits@D@std@@V?$allocator@D@2@@std@@@2@V?$allocator@U?$pair@$$CBV?$basic_string@DU?$char_traits@D@std@@V?$allocator@D@2@@std@@H@std@@@2@@std@@A+4, 97612893 ; 05d1745dH
  001ff	0f 84 7d 02 00
	00		 je	 $LN349@PreScan

; 1042 :         return {_Scary->_Insert_node(_Loc._Location, _Inserted), true};

  00205	8b 45 ec	 mov	 eax, DWORD PTR $T8[ebp]
  00208	b9 00 00 00 00	 mov	 ecx, OFFSET ?m_defines@CScript@@2V?$map@V?$basic_string@DU?$char_traits@D@std@@V?$allocator@D@2@@std@@HU?$less@V?$basic_string@DU?$char_traits@D@std@@V?$allocator@D@2@@std@@@2@V?$allocator@U?$pair@$$CBV?$basic_string@DU?$char_traits@D@std@@V?$allocator@D@2@@std@@H@std@@@2@@std@@A ; CScript::m_defines
  0020d	50		 push	 eax
  0020e	ff 75 d0	 push	 DWORD PTR __Loc$4[ebp+4]
; File C:\Program Files\Microsoft Visual Studio\2022\Professional\VC\Tools\MSVC\14.44.35207\include\utility

; 774  :     _Val         = static_cast<_Other&&>(_New_val);

  00211	c7 45 dc 00 00
	00 00		 mov	 DWORD PTR __Newnode$5[ebp+4], 0
; File C:\Program Files\Microsoft Visual Studio\2022\Professional\VC\Tools\MSVC\14.44.35207\include\xtree

; 1042 :         return {_Scary->_Insert_node(_Loc._Location, _Inserted), true};

  00218	ff 75 cc	 push	 DWORD PTR __Loc$4[ebp]
  0021b	c7 45 fc ff ff
	ff ff		 mov	 DWORD PTR __$EHRec$[ebp+8], -1
  00222	e8 00 00 00 00	 call	 ?_Insert_node@?$_Tree_val@U?$_Tree_simple_types@U?$pair@$$CBV?$basic_string@DU?$char_traits@D@std@@V?$allocator@D@2@@std@@H@std@@@std@@@std@@QAEPAU?$_Tree_node@U?$pair@$$CBV?$basic_string@DU?$char_traits@D@std@@V?$allocator@D@2@@std@@H@std@@PAX@2@U?$_Tree_id@PAU?$_Tree_node@U?$pair@$$CBV?$basic_string@DU?$char_traits@D@std@@V?$allocator@D@2@@std@@H@std@@PAX@std@@@2@QAU32@@Z ; std::_Tree_val<std::_Tree_simple_types<std::pair<std::basic_string<char,std::char_traits<char>,std::allocator<char> > const ,int> > >::_Insert_node
$LN249@PreScan:
; File C:\IAGOS\server\v18\Source\Source\_Common\script.cpp

; 346  : 			while(*token!='}');

  00227	8b 47 3c	 mov	 eax, DWORD PTR [edi+60]
  0022a	ff 45 f0	 inc	 DWORD PTR _eNum$1$[ebp]
  0022d	80 38 7d	 cmp	 BYTE PTR [eax], 125	; 0000007dH
  00230	0f 85 a1 fe ff
	ff		 jne	 $LL7@PreScan

; 347  : 
; 348  : 			GetTkn(); // ;

  00236	6a 00		 push	 0
  00238	8b cf		 mov	 ecx, edi
  0023a	e8 00 00 00 00	 call	 ?GetTkn@CScript@@QAEHH@Z ; CScript::GetTkn

; 349  : 		}

  0023f	e9 06 02 00 00	 jmp	 $LN2@PreScan
$LN15@PreScan:

; 350  : 		else if(tok==INCLUDE) 

  00244	83 f8 13	 cmp	 eax, 19			; 00000013H
  00247	0f 85 c7 00 00
	00		 jne	 $LN19@PreScan

; 351  : 		{
; 352  : 			GetTkn(); 

  0024d	6a 00		 push	 0
  0024f	8b cf		 mov	 ecx, edi
  00251	e8 00 00 00 00	 call	 ?GetTkn@CScript@@QAEHH@Z ; CScript::GetTkn

; 353  : 			CString strFile( token );

  00256	8b 77 3c	 mov	 esi, DWORD PTR [edi+60]
; File C:\Program Files\Microsoft Visual Studio\2022\Professional\VC\Tools\MSVC\14.44.35207\atlmfc\include\afxstr.h

; 56   : 		return( AfxGetStringManager() );

  00259	e8 00 00 00 00	 call	 ?AfxGetStringManager@@YGPAUIAtlStringMgr@ATL@@XZ ; AfxGetStringManager
  0025e	8b c8		 mov	 ecx, eax
; File C:\Program Files\Microsoft Visual Studio\2022\Professional\VC\Tools\MSVC\14.44.35207\atlmfc\include\atlsimpstr.h

; 209  : 		ATLENSURE( pStringMgr != NULL );

  00260	85 c9		 test	 ecx, ecx
  00262	0f 84 1f 02 00
	00		 je	 $LN355@PreScan

; 210  : 		CStringData* pData = pStringMgr->GetNilString();

  00268	8b 01		 mov	 eax, DWORD PTR [ecx]
  0026a	ff 50 0c	 call	 DWORD PTR [eax+12]

; 211  : 		Attach( pData );

  0026d	83 c0 10	 add	 eax, 16			; 00000010H
  00270	89 45 ec	 mov	 DWORD PTR _strFile$6[ebp], eax
; File C:\Program Files\Microsoft Visual Studio\2022\Professional\VC\Tools\MSVC\14.44.35207\atlmfc\include\cstringt.h

; 1052 : 		CThisSimpleString( StringTraits::GetDefaultManager() )

  00273	c7 45 fc 03 00
	00 00		 mov	 DWORD PTR __$EHRec$[ebp+8], 3

; 2712 : 		if( (pv != NULL) && IS_INTRESOURCE( pv ) )

  0027a	85 f6		 test	 esi, esi
  0027c	74 2d		 je	 SHORT $LN380@PreScan
  0027e	f7 c6 00 00 ff
	ff		 test	 esi, -65536		; ffff0000H
  00284	75 0e		 jne	 SHORT $LN293@PreScan

; 2713 : 		{
; 2714 : 			UINT nID = LOWORD( reinterpret_cast< DWORD_PTR >( pv ) );

  00286	0f b7 c6	 movzx	 eax, si

; 2715 : 			(nID);
; 2716 : #ifdef _ATL_USE_WINAPI_FAMILY_DESKTOP_APP
; 2717 : 			if( !LoadString( nID ) )

  00289	8d 4d ec	 lea	 ecx, DWORD PTR _strFile$6[ebp]
  0028c	50		 push	 eax
  0028d	e8 00 00 00 00	 call	 ?LoadStringA@?$CStringT@DV?$StrTraitMFC@DV?$ChTraitsCRT@D@ATL@@@@@ATL@@QAEHI@Z ; ATL::CStringT<char,StrTraitMFC<char,ATL::ChTraitsCRT<char> > >::LoadStringA

; 1054 : 		if( !CheckImplicitLoad( pszSrc ) )

  00292	eb 23		 jmp	 SHORT $LN267@PreScan
$LN293@PreScan:
; File C:\Program Files\Microsoft Visual Studio\2022\Professional\VC\Tools\MSVC\14.44.35207\atlmfc\include\atlsimpstr.h

; 730  : 		return( int( strlen( psz ) ) );

  00294	8b ce		 mov	 ecx, esi
  00296	8d 51 01	 lea	 edx, DWORD PTR [ecx+1]
  00299	0f 1f 80 00 00
	00 00		 npad	 7
$LL389@PreScan:
  002a0	8a 01		 mov	 al, BYTE PTR [ecx]
  002a2	41		 inc	 ecx
  002a3	84 c0		 test	 al, al
  002a5	75 f9		 jne	 SHORT $LL389@PreScan
  002a7	2b ca		 sub	 ecx, edx
  002a9	eb 02		 jmp	 SHORT $LN292@PreScan
$LN380@PreScan:

; 607  : 	}
; 608  : 	void SetString(
; 609  : 		_In_reads_opt_(nLength) PCXSTR pszSrc,
; 610  : 		_In_ int nLength)
; 611  : 	{
; 612  : 		if( nLength == 0 )
; 613  : 		{
; 614  : 			Empty();
; 615  : 		}
; 616  : 		else
; 617  : 		{
; 618  : 			// It is possible that pszSrc points to a location inside of our
; 619  : 			// buffer.  GetBuffer() might change m_pszData if (1) the buffer
; 620  : 			// is shared or (2) the buffer is too small to hold the new
; 621  : 			// string.  We detect this aliasing, and modify pszSrc to point
; 622  : 			// into the newly allocated buffer instead.
; 623  : 
; 624  : 			if(pszSrc == NULL)
; 625  : 				AtlThrow(E_INVALIDARG);
; 626  : 
; 627  : 			UINT nOldLength = GetLength();
; 628  : 			UINT_PTR nOffset = pszSrc-GetString();
; 629  : 			// If 0 <= nOffset <= nOldLength, then pszSrc points into our
; 630  : 			// buffer
; 631  : 
; 632  : 			PXSTR pszBuffer = GetBuffer( nLength );
; 633  : 			if( nOffset <= nOldLength )
; 634  : 			{
; 635  : 				CopyCharsOverlapped( pszBuffer, GetAllocLength(),
; 636  : 					pszBuffer+nOffset, nLength );
; 637  : 			}
; 638  : 			else
; 639  : 			{
; 640  : 				memcpy_s( pszBuffer, GetAllocLength() * sizeof( XCHAR ), pszSrc, nLength * sizeof( XCHAR ));
; 641  : 			}
; 642  : 			ReleaseBufferSetLength( nLength );
; 643  : 		}
; 644  : 	}
; 645  : 
; 646  : public:
; 647  : 	friend CSimpleStringT operator+(
; 648  : 		_In_ const CSimpleStringT& str1,
; 649  : 		_In_ const CSimpleStringT& str2)
; 650  : 	{
; 651  : 		CSimpleStringT s( str1.GetManager() );
; 652  : 
; 653  : 		Concatenate( s, str1, str1.GetLength(), str2, str2.GetLength() );
; 654  : 
; 655  : 		return( s );
; 656  : 	}
; 657  : 
; 658  : 	friend CSimpleStringT operator+(
; 659  : 		_In_ const CSimpleStringT& str1,
; 660  : 		_In_z_ PCXSTR psz2)
; 661  : 	{
; 662  : 		CSimpleStringT s( str1.GetManager() );
; 663  : 
; 664  : 		Concatenate( s, str1, str1.GetLength(), psz2, StringLength( psz2 ) );
; 665  : 
; 666  : 		return( s );
; 667  : 	}
; 668  : 
; 669  : 	friend CSimpleStringT operator+(
; 670  : 		_In_z_ PCXSTR psz1,
; 671  : 		_In_ const CSimpleStringT& str2)
; 672  : 	{
; 673  : 		CSimpleStringT s( str2.GetManager() );
; 674  : 
; 675  : 		Concatenate( s, psz1, StringLength( psz1 ), str2, str2.GetLength() );
; 676  : 
; 677  : 		return( s );
; 678  : 	}
; 679  : 
; 680  : 	_ATL_INSECURE_DEPRECATE("CSimpleStringT::CopyChars must be passed a buffer size")
; 681  : 	static void __cdecl CopyChars(
; 682  : 		_Out_writes_(nChars) XCHAR* pchDest,
; 683  : 		_In_reads_opt_(nChars) const XCHAR* pchSrc,
; 684  : 		_In_ int nChars) throw()
; 685  : 	{
; 686  : 		if (pchSrc != NULL)
; 687  : 		{
; 688  : 			#pragma warning (push)
; 689  : 			#pragma warning(disable : 4996)
; 690  : 			memcpy( pchDest, pchSrc, nChars*sizeof( XCHAR ) );
; 691  : 			#pragma warning (pop)
; 692  : 		}
; 693  : 	}
; 694  : 	static void __cdecl CopyChars(
; 695  : 		_Out_writes_to_(nDestLen,nChars) XCHAR* pchDest,
; 696  : 		_In_ size_t nDestLen,
; 697  : 		_In_reads_opt_(nChars) const XCHAR* pchSrc,
; 698  : 		_In_ int nChars) throw()
; 699  : 	{
; 700  : 		memcpy_s( pchDest, nDestLen*sizeof( XCHAR ),
; 701  : 			pchSrc, nChars*sizeof( XCHAR ) );
; 702  : 	}
; 703  : 
; 704  : 	_ATL_INSECURE_DEPRECATE("CSimpleStringT::CopyCharsOverlapped must be passed a buffer size")
; 705  : 	static void __cdecl CopyCharsOverlapped(
; 706  : 		_Out_writes_(nChars) XCHAR* pchDest,
; 707  : 		_In_reads_(nChars) const XCHAR* pchSrc,
; 708  : 		_In_ int nChars) throw()
; 709  : 	{
; 710  : 		#pragma warning (push)
; 711  : 		#pragma warning(disable : 4996)
; 712  : 		memmove( pchDest, pchSrc, nChars*sizeof( XCHAR ) );
; 713  : 		#pragma warning (pop)
; 714  : 	}
; 715  : 	static void __cdecl CopyCharsOverlapped(
; 716  : 		_Out_writes_to_(nDestLen, nDestLen) XCHAR* pchDest,
; 717  : 		_In_ size_t nDestLen,
; 718  : 		_In_reads_(nChars) const XCHAR* pchSrc,
; 719  : 		_In_ int nChars) throw()
; 720  : 	{
; 721  : 		memmove_s( pchDest, nDestLen*sizeof( XCHAR ),
; 722  : 			pchSrc, nChars*sizeof( XCHAR ) );
; 723  : 	}
; 724  : 	static int __cdecl StringLength(_In_opt_z_ const char* psz) throw()
; 725  : 	{
; 726  : 		if( psz == NULL )
; 727  : 		{
; 728  : 			return( 0 );

  002ab	33 c9		 xor	 ecx, ecx
$LN292@PreScan:

; 606  : 		SetString( pszSrc, StringLength( pszSrc ) );

  002ad	51		 push	 ecx
  002ae	56		 push	 esi
  002af	8d 4d ec	 lea	 ecx, DWORD PTR _strFile$6[ebp]
  002b2	e8 00 00 00 00	 call	 ?SetString@?$CSimpleStringT@D$0A@@ATL@@QAEXPBDH@Z ; ATL::CSimpleStringT<char,0>::SetString
$LN267@PreScan:
; File C:\IAGOS\server\v18\Source\Source\_Common\script.cpp

; 354  : 			CHAR* pOldProg = m_pProg;

  002b7	8b 47 18	 mov	 eax, DWORD PTR [edi+24]

; 355  : 			CHAR* pOldBuf = m_pBuf;
; 356  : 			int nOldSize = m_nProgSize;
; 357  : 			m_pProg = m_pBuf = 0;
; 358  : 			CScanner::Load( strFile );

  002ba	8b cf		 mov	 ecx, edi
  002bc	8b 75 ec	 mov	 esi, DWORD PTR _strFile$6[ebp]
  002bf	8b 5f 0c	 mov	 ebx, DWORD PTR [edi+12]
  002c2	6a 01		 push	 1
  002c4	89 45 f0	 mov	 DWORD PTR _pOldProg$1$[ebp], eax
  002c7	8b 47 1c	 mov	 eax, DWORD PTR [edi+28]
  002ca	56		 push	 esi
  002cb	c7 45 fc 04 00
	00 00		 mov	 DWORD PTR __$EHRec$[ebp+8], 4
  002d2	89 45 e4	 mov	 DWORD PTR _pOldBuf$1$[ebp], eax
  002d5	c7 47 1c 00 00
	00 00		 mov	 DWORD PTR [edi+28], 0
  002dc	c7 47 18 00 00
	00 00		 mov	 DWORD PTR [edi+24], 0
  002e3	e8 00 00 00 00	 call	 ?Load@CScanner@@QAEHPBDH@Z ; CScanner::Load

; 359  : 			PreScan(); 

  002e8	8b cf		 mov	 ecx, edi
  002ea	e8 00 00 00 00	 call	 ?PreScan@CScript@@QAEXXZ ; CScript::PreScan

; 360  : 			CScanner::Free();

  002ef	8b cf		 mov	 ecx, edi
  002f1	e8 00 00 00 00	 call	 ?Free@CScanner@@QAEXXZ	; CScanner::Free

; 361  : 			m_nProgSize = nOldSize;
; 362  : 			m_pProg = pOldProg;

  002f6	8b 45 f0	 mov	 eax, DWORD PTR _pOldProg$1$[ebp]
  002f9	89 47 18	 mov	 DWORD PTR [edi+24], eax

; 363  : 			m_pBuf = pOldBuf; 

  002fc	8b 45 e4	 mov	 eax, DWORD PTR _pOldBuf$1$[ebp]
  002ff	89 5f 0c	 mov	 DWORD PTR [edi+12], ebx
  00302	89 47 1c	 mov	 DWORD PTR [edi+28], eax

; 364  : 			tok = 0;

  00305	c7 87 44 08 00
	00 00 00 00 00	 mov	 DWORD PTR [edi+2116], 0

; 365  : 		}

  0030f	e9 07 01 00 00	 jmp	 $LN26@PreScan
$LN19@PreScan:

; 366  : 		else if(tok==VAR) 

  00314	83 f8 02	 cmp	 eax, 2
  00317	75 13		 jne	 SHORT $LN21@PreScan

; 367  : 		{ 
; 368  : 			// is global var 
; 369  : 			PutBack(); 

  00319	8b 07		 mov	 eax, DWORD PTR [edi]
  0031b	8b cf		 mov	 ecx, edi
  0031d	ff 50 10	 call	 DWORD PTR [eax+16]

; 370  : 			DeclGlobal();

  00320	8b cf		 mov	 ecx, edi
  00322	e8 00 00 00 00	 call	 ?DeclGlobal@CScript@@QAEXXZ ; CScript::DeclGlobal

; 371  : 		}

  00327	e9 1e 01 00 00	 jmp	 $LN2@PreScan
$LN21@PreScan:

; 372  : 		else if(tokenType==IDENTIFIER) 

  0032c	83 bf 40 08 00
	00 02		 cmp	 DWORD PTR [edi+2112], 2
  00333	8b 77 3c	 mov	 esi, DWORD PTR [edi+60]
  00336	0f 85 00 01 00
	00		 jne	 $LN23@PreScan
; File C:\Program Files\Microsoft Visual Studio\2022\Professional\VC\Tools\MSVC\14.44.35207\atlmfc\include\afxstr.h

; 56   : 		return( AfxGetStringManager() );

  0033c	e8 00 00 00 00	 call	 ?AfxGetStringManager@@YGPAUIAtlStringMgr@ATL@@XZ ; AfxGetStringManager
  00341	8b c8		 mov	 ecx, eax
; File C:\Program Files\Microsoft Visual Studio\2022\Professional\VC\Tools\MSVC\14.44.35207\atlmfc\include\atlsimpstr.h

; 209  : 		ATLENSURE( pStringMgr != NULL );

  00343	85 c9		 test	 ecx, ecx
  00345	0f 84 3c 01 00
	00		 je	 $LN355@PreScan

; 210  : 		CStringData* pData = pStringMgr->GetNilString();

  0034b	8b 01		 mov	 eax, DWORD PTR [ecx]
  0034d	ff 50 0c	 call	 DWORD PTR [eax+12]

; 211  : 		Attach( pData );

  00350	83 c0 10	 add	 eax, 16			; 00000010H
  00353	89 45 ec	 mov	 DWORD PTR _strTemp$7[ebp], eax
; File C:\Program Files\Microsoft Visual Studio\2022\Professional\VC\Tools\MSVC\14.44.35207\atlmfc\include\cstringt.h

; 1052 : 		CThisSimpleString( StringTraits::GetDefaultManager() )

  00356	c7 45 fc 05 00
	00 00		 mov	 DWORD PTR __$EHRec$[ebp+8], 5

; 2712 : 		if( (pv != NULL) && IS_INTRESOURCE( pv ) )

  0035d	85 f6		 test	 esi, esi
  0035f	74 2a		 je	 SHORT $LN382@PreScan
  00361	f7 c6 00 00 ff
	ff		 test	 esi, -65536		; ffff0000H
  00367	75 0e		 jne	 SHORT $LN331@PreScan

; 2713 : 		{
; 2714 : 			UINT nID = LOWORD( reinterpret_cast< DWORD_PTR >( pv ) );

  00369	0f b7 c6	 movzx	 eax, si

; 2715 : 			(nID);
; 2716 : #ifdef _ATL_USE_WINAPI_FAMILY_DESKTOP_APP
; 2717 : 			if( !LoadString( nID ) )

  0036c	8d 4d ec	 lea	 ecx, DWORD PTR _strTemp$7[ebp]
  0036f	50		 push	 eax
  00370	e8 00 00 00 00	 call	 ?LoadStringA@?$CStringT@DV?$StrTraitMFC@DV?$ChTraitsCRT@D@ATL@@@@@ATL@@QAEHI@Z ; ATL::CStringT<char,StrTraitMFC<char,ATL::ChTraitsCRT<char> > >::LoadStringA

; 1054 : 		if( !CheckImplicitLoad( pszSrc ) )

  00375	eb 20		 jmp	 SHORT $LN305@PreScan
$LN331@PreScan:
; File C:\Program Files\Microsoft Visual Studio\2022\Professional\VC\Tools\MSVC\14.44.35207\atlmfc\include\atlsimpstr.h

; 730  : 		return( int( strlen( psz ) ) );

  00377	8b ce		 mov	 ecx, esi
  00379	8d 51 01	 lea	 edx, DWORD PTR [ecx+1]
  0037c	0f 1f 40 00	 npad	 4
$LL390@PreScan:
  00380	8a 01		 mov	 al, BYTE PTR [ecx]
  00382	41		 inc	 ecx
  00383	84 c0		 test	 al, al
  00385	75 f9		 jne	 SHORT $LL390@PreScan
  00387	2b ca		 sub	 ecx, edx
  00389	eb 02		 jmp	 SHORT $LN330@PreScan
$LN382@PreScan:

; 607  : 	}
; 608  : 	void SetString(
; 609  : 		_In_reads_opt_(nLength) PCXSTR pszSrc,
; 610  : 		_In_ int nLength)
; 611  : 	{
; 612  : 		if( nLength == 0 )
; 613  : 		{
; 614  : 			Empty();
; 615  : 		}
; 616  : 		else
; 617  : 		{
; 618  : 			// It is possible that pszSrc points to a location inside of our
; 619  : 			// buffer.  GetBuffer() might change m_pszData if (1) the buffer
; 620  : 			// is shared or (2) the buffer is too small to hold the new
; 621  : 			// string.  We detect this aliasing, and modify pszSrc to point
; 622  : 			// into the newly allocated buffer instead.
; 623  : 
; 624  : 			if(pszSrc == NULL)
; 625  : 				AtlThrow(E_INVALIDARG);
; 626  : 
; 627  : 			UINT nOldLength = GetLength();
; 628  : 			UINT_PTR nOffset = pszSrc-GetString();
; 629  : 			// If 0 <= nOffset <= nOldLength, then pszSrc points into our
; 630  : 			// buffer
; 631  : 
; 632  : 			PXSTR pszBuffer = GetBuffer( nLength );
; 633  : 			if( nOffset <= nOldLength )
; 634  : 			{
; 635  : 				CopyCharsOverlapped( pszBuffer, GetAllocLength(),
; 636  : 					pszBuffer+nOffset, nLength );
; 637  : 			}
; 638  : 			else
; 639  : 			{
; 640  : 				memcpy_s( pszBuffer, GetAllocLength() * sizeof( XCHAR ), pszSrc, nLength * sizeof( XCHAR ));
; 641  : 			}
; 642  : 			ReleaseBufferSetLength( nLength );
; 643  : 		}
; 644  : 	}
; 645  : 
; 646  : public:
; 647  : 	friend CSimpleStringT operator+(
; 648  : 		_In_ const CSimpleStringT& str1,
; 649  : 		_In_ const CSimpleStringT& str2)
; 650  : 	{
; 651  : 		CSimpleStringT s( str1.GetManager() );
; 652  : 
; 653  : 		Concatenate( s, str1, str1.GetLength(), str2, str2.GetLength() );
; 654  : 
; 655  : 		return( s );
; 656  : 	}
; 657  : 
; 658  : 	friend CSimpleStringT operator+(
; 659  : 		_In_ const CSimpleStringT& str1,
; 660  : 		_In_z_ PCXSTR psz2)
; 661  : 	{
; 662  : 		CSimpleStringT s( str1.GetManager() );
; 663  : 
; 664  : 		Concatenate( s, str1, str1.GetLength(), psz2, StringLength( psz2 ) );
; 665  : 
; 666  : 		return( s );
; 667  : 	}
; 668  : 
; 669  : 	friend CSimpleStringT operator+(
; 670  : 		_In_z_ PCXSTR psz1,
; 671  : 		_In_ const CSimpleStringT& str2)
; 672  : 	{
; 673  : 		CSimpleStringT s( str2.GetManager() );
; 674  : 
; 675  : 		Concatenate( s, psz1, StringLength( psz1 ), str2, str2.GetLength() );
; 676  : 
; 677  : 		return( s );
; 678  : 	}
; 679  : 
; 680  : 	_ATL_INSECURE_DEPRECATE("CSimpleStringT::CopyChars must be passed a buffer size")
; 681  : 	static void __cdecl CopyChars(
; 682  : 		_Out_writes_(nChars) XCHAR* pchDest,
; 683  : 		_In_reads_opt_(nChars) const XCHAR* pchSrc,
; 684  : 		_In_ int nChars) throw()
; 685  : 	{
; 686  : 		if (pchSrc != NULL)
; 687  : 		{
; 688  : 			#pragma warning (push)
; 689  : 			#pragma warning(disable : 4996)
; 690  : 			memcpy( pchDest, pchSrc, nChars*sizeof( XCHAR ) );
; 691  : 			#pragma warning (pop)
; 692  : 		}
; 693  : 	}
; 694  : 	static void __cdecl CopyChars(
; 695  : 		_Out_writes_to_(nDestLen,nChars) XCHAR* pchDest,
; 696  : 		_In_ size_t nDestLen,
; 697  : 		_In_reads_opt_(nChars) const XCHAR* pchSrc,
; 698  : 		_In_ int nChars) throw()
; 699  : 	{
; 700  : 		memcpy_s( pchDest, nDestLen*sizeof( XCHAR ),
; 701  : 			pchSrc, nChars*sizeof( XCHAR ) );
; 702  : 	}
; 703  : 
; 704  : 	_ATL_INSECURE_DEPRECATE("CSimpleStringT::CopyCharsOverlapped must be passed a buffer size")
; 705  : 	static void __cdecl CopyCharsOverlapped(
; 706  : 		_Out_writes_(nChars) XCHAR* pchDest,
; 707  : 		_In_reads_(nChars) const XCHAR* pchSrc,
; 708  : 		_In_ int nChars) throw()
; 709  : 	{
; 710  : 		#pragma warning (push)
; 711  : 		#pragma warning(disable : 4996)
; 712  : 		memmove( pchDest, pchSrc, nChars*sizeof( XCHAR ) );
; 713  : 		#pragma warning (pop)
; 714  : 	}
; 715  : 	static void __cdecl CopyCharsOverlapped(
; 716  : 		_Out_writes_to_(nDestLen, nDestLen) XCHAR* pchDest,
; 717  : 		_In_ size_t nDestLen,
; 718  : 		_In_reads_(nChars) const XCHAR* pchSrc,
; 719  : 		_In_ int nChars) throw()
; 720  : 	{
; 721  : 		memmove_s( pchDest, nDestLen*sizeof( XCHAR ),
; 722  : 			pchSrc, nChars*sizeof( XCHAR ) );
; 723  : 	}
; 724  : 	static int __cdecl StringLength(_In_opt_z_ const char* psz) throw()
; 725  : 	{
; 726  : 		if( psz == NULL )
; 727  : 		{
; 728  : 			return( 0 );

  0038b	33 c9		 xor	 ecx, ecx
$LN330@PreScan:

; 606  : 		SetString( pszSrc, StringLength( pszSrc ) );

  0038d	51		 push	 ecx
  0038e	56		 push	 esi
  0038f	8d 4d ec	 lea	 ecx, DWORD PTR _strTemp$7[ebp]
  00392	e8 00 00 00 00	 call	 ?SetString@?$CSimpleStringT@D$0A@@ATL@@QAEXPBDH@Z ; ATL::CSimpleStringT<char,0>::SetString
$LN305@PreScan:
; File C:\IAGOS\server\v18\Source\Source\_Common\script.cpp

; 376  : 			GetTkn();

  00397	6a 00		 push	 0
  00399	8b cf		 mov	 ecx, edi
  0039b	c7 45 fc 06 00
	00 00		 mov	 DWORD PTR __$EHRec$[ebp+8], 6
  003a2	e8 00 00 00 00	 call	 ?GetTkn@CScript@@QAEHH@Z ; CScript::GetTkn

; 377  : 			if(*token=='(') 

  003a7	8b 47 3c	 mov	 eax, DWORD PTR [edi+60]
  003aa	8b 75 ec	 mov	 esi, DWORD PTR _strTemp$7[ebp]
  003ad	80 38 28	 cmp	 BYTE PTR [eax], 40	; 00000028H
  003b0	75 62		 jne	 SHORT $LN25@PreScan

; 378  : 			{ 
; 379  : 				// must be assume a function 
; 380  : 				funcTable[funcIndex].loc = m_pProg;

  003b2	8b 87 38 0b 00
	00		 mov	 eax, DWORD PTR [edi+2872]

; 381  : 				strcpy(funcTable[funcIndex++].name,strTemp);

  003b8	8b d6		 mov	 edx, esi
  003ba	8b c8		 mov	 ecx, eax
  003bc	c1 e1 04	 shl	 ecx, 4
  003bf	03 c8		 add	 ecx, eax
  003c1	8b 47 18	 mov	 eax, DWORD PTR [edi+24]
  003c4	89 84 8f 7c 0b
	00 00		 mov	 DWORD PTR [edi+ecx*4+2940], eax
  003cb	8b 8f 38 0b 00
	00		 mov	 ecx, DWORD PTR [edi+2872]
  003d1	8b c1		 mov	 eax, ecx
  003d3	c1 e0 04	 shl	 eax, 4
  003d6	05 cf 02 00 00	 add	 eax, 719		; 000002cfH
  003db	03 c1		 add	 eax, ecx
  003dd	8d 1c 87	 lea	 ebx, DWORD PTR [edi+eax*4]
  003e0	8d 41 01	 lea	 eax, DWORD PTR [ecx+1]
  003e3	2b da		 sub	 ebx, edx
  003e5	89 87 38 0b 00
	00		 mov	 DWORD PTR [edi+2872], eax
  003eb	0f 1f 44 00 00	 npad	 5
$LL29@PreScan:
  003f0	8a 02		 mov	 al, BYTE PTR [edx]
  003f2	8d 52 01	 lea	 edx, DWORD PTR [edx+1]
  003f5	88 44 1a ff	 mov	 BYTE PTR [edx+ebx-1], al
  003f9	84 c0		 test	 al, al
  003fb	75 f3		 jne	 SHORT $LL29@PreScan

; 382  : 				while(*m_pProg!=')') 

  003fd	8b 47 18	 mov	 eax, DWORD PTR [edi+24]
  00400	80 38 29	 cmp	 BYTE PTR [eax], 41	; 00000029H
  00403	74 09		 je	 SHORT $LN9@PreScan
$LL8@PreScan:

; 383  : 					m_pProg++;	

  00405	40		 inc	 eax
  00406	89 47 18	 mov	 DWORD PTR [edi+24], eax
  00409	80 38 29	 cmp	 BYTE PTR [eax], 41	; 00000029H
  0040c	75 f7		 jne	 SHORT $LL8@PreScan
$LN9@PreScan:

; 384  : 				m_pProg++;

  0040e	40		 inc	 eax
  0040f	89 47 18	 mov	 DWORD PTR [edi+24], eax

; 385  : 				// m_pProg points to opening cyrly brace of function 
; 386  : 			}

  00412	eb 07		 jmp	 SHORT $LN26@PreScan
$LN25@PreScan:

; 387  : 			else 
; 388  : 				PutBack();

  00414	8b 07		 mov	 eax, DWORD PTR [edi]
  00416	8b cf		 mov	 ecx, edi
  00418	ff 50 10	 call	 DWORD PTR [eax+16]
$LN26@PreScan:

; 391  : 			brace++;
; 392  : 	} 
; 393  : 	while( tok != FINISHED );

  0041b	c7 45 fc ff ff
	ff ff		 mov	 DWORD PTR __$EHRec$[ebp+8], -1
  00422	83 c6 f0	 add	 esi, -16		; fffffff0H
  00425	83 c8 ff	 or	 eax, -1
  00428	f0 0f c1 46 0c	 lock	  xadd	 DWORD PTR [esi+12], eax
  0042d	48		 dec	 eax
  0042e	85 c0		 test	 eax, eax
  00430	7f 18		 jg	 SHORT $LN2@PreScan
  00432	8b 0e		 mov	 ecx, DWORD PTR [esi]
  00434	56		 push	 esi
  00435	8b 01		 mov	 eax, DWORD PTR [ecx]
  00437	ff 50 04	 call	 DWORD PTR [eax+4]
  0043a	eb 0e		 jmp	 SHORT $LN2@PreScan
$LN23@PreScan:

; 389  : 		}
; 390  : 		else if(*token=='{') 

  0043c	80 3e 7b	 cmp	 BYTE PTR [esi], 123	; 0000007bH
  0043f	b8 01 00 00 00	 mov	 eax, 1
  00444	0f 44 d8	 cmove	 ebx, eax
  00447	89 5d e8	 mov	 DWORD PTR _brace$1$[ebp], ebx
$LN2@PreScan:

; 391  : 			brace++;
; 392  : 	} 
; 393  : 	while( tok != FINISHED );

  0044a	83 bf 44 08 00
	00 15		 cmp	 DWORD PTR [edi+2116], 21 ; 00000015H
  00451	74 08		 je	 SHORT $LN353@PreScan
  00453	8b 5d e8	 mov	 ebx, DWORD PTR _brace$1$[ebp]
  00456	e9 35 fc ff ff	 jmp	 $LL4@PreScan
$LN353@PreScan:

; 394  : 
; 395  : 	m_pProg = p;

  0045b	8b 45 e0	 mov	 eax, DWORD PTR _p$1$[ebp]
  0045e	89 47 18	 mov	 DWORD PTR [edi+24], eax
$LN352@PreScan:

; 396  : }

  00461	8b 4d f4	 mov	 ecx, DWORD PTR __$EHRec$[ebp]
  00464	64 89 0d 00 00
	00 00		 mov	 DWORD PTR fs:0, ecx
  0046b	59		 pop	 ecx
  0046c	5f		 pop	 edi
  0046d	5e		 pop	 esi
  0046e	5b		 pop	 ebx
  0046f	8b e5		 mov	 esp, ebp
  00471	5d		 pop	 ebp
  00472	c3		 ret	 0
$LN346@PreScan:
; File C:\Program Files\Microsoft Visual Studio\2022\Professional\VC\Tools\MSVC\14.44.35207\include\xmemory

; 219  :     _STL_VERIFY(_Back_shift >= _Min_back_shift && _Back_shift <= _Non_user_size, "invalid argument");

  00473	6a 00		 push	 0
  00475	6a 00		 push	 0
  00477	6a 00		 push	 0
  00479	6a 00		 push	 0
  0047b	6a 00		 push	 0
  0047d	e8 00 00 00 00	 call	 __invoke_watson
$LN349@PreScan:
; File C:\Program Files\Microsoft Visual Studio\2022\Professional\VC\Tools\MSVC\14.44.35207\include\xtree

; 1649 :             _Throw_tree_length_error();

  00482	e8 00 00 00 00	 call	 ?_Throw_tree_length_error@std@@YAXXZ ; std::_Throw_tree_length_error
$LN355@PreScan:
; File C:\Program Files\Microsoft Visual Studio\2022\Professional\VC\Tools\MSVC\14.44.35207\atlmfc\include\atlsimpstr.h

; 209  : 		ATLENSURE( pStringMgr != NULL );

  00487	68 05 40 00 80	 push	 -2147467259		; 80004005H
  0048c	e8 00 00 00 00	 call	 ?AtlThrowImpl@ATL@@YGXJ@Z ; ATL::AtlThrowImpl
$LN394@PreScan:
  00491	cc		 int	 3
_TEXT	ENDS
;	COMDAT text$x
text$x	SEGMENT
__unwindfunclet$?PreScan@CScript@@QAEXXZ$4:
  00000	8d 4d d8	 lea	 ecx, DWORD PTR __Newnode$5[ebp]
  00003	e9 00 00 00 00	 jmp	 ??1?$_Alloc_construct_ptr@V?$allocator@U?$_Tree_node@U?$pair@$$CBV?$basic_string@DU?$char_traits@D@std@@V?$allocator@D@2@@std@@H@std@@PAX@std@@@std@@@std@@QAE@XZ ; std::_Alloc_construct_ptr<std::allocator<std::_Tree_node<std::pair<std::basic_string<char,std::char_traits<char>,std::allocator<char> > const ,int>,void *> > >::~_Alloc_construct_ptr<std::allocator<std::_Tree_node<std::pair<std::basic_string<char,std::char_traits<char>,std::allocator<char> > const ,int>,void *> > >
__unwindfunclet$?PreScan@CScript@@QAEXXZ$3:
  00008	8d 4d d8	 lea	 ecx, DWORD PTR __Newnode$5[ebp]
  0000b	e9 00 00 00 00	 jmp	 ??1?$_Tree_temp_node_alloc@V?$allocator@U?$_Tree_node@U?$pair@$$CBV?$basic_string@DU?$char_traits@D@std@@V?$allocator@D@2@@std@@H@std@@PAX@std@@@std@@@std@@QAE@XZ
__unwindfunclet$?PreScan@CScript@@QAEXXZ$2:
  00010	8d 4d d8	 lea	 ecx, DWORD PTR __Newnode$5[ebp]
  00013	e9 00 00 00 00	 jmp	 ??1?$_Tree_temp_node@V?$allocator@U?$_Tree_node@U?$pair@$$CBV?$basic_string@DU?$char_traits@D@std@@V?$allocator@D@2@@std@@H@std@@PAX@std@@@std@@@std@@QAE@XZ ; std::_Tree_temp_node<std::allocator<std::_Tree_node<std::pair<std::basic_string<char,std::char_traits<char>,std::allocator<char> > const ,int>,void *> > >::~_Tree_temp_node<std::allocator<std::_Tree_node<std::pair<std::basic_string<char,std::char_traits<char>,std::allocator<char> > const ,int>,void *> > >
__unwindfunclet$?PreScan@CScript@@QAEXXZ$14:
  00018	8d 4d ec	 lea	 ecx, DWORD PTR _strFile$6[ebp]
  0001b	e9 00 00 00 00	 jmp	 ??1?$CSimpleStringT@D$0A@@ATL@@QAE@XZ ; ATL::CSimpleStringT<char,0>::~CSimpleStringT<char,0>
__unwindfunclet$?PreScan@CScript@@QAEXXZ$0:
  00020	8d 4d ec	 lea	 ecx, DWORD PTR _strFile$6[ebp]
  00023	e9 00 00 00 00	 jmp	 ??1?$CStringT@DV?$StrTraitMFC@DV?$ChTraitsCRT@D@ATL@@@@@ATL@@QAE@XZ ; ATL::CStringT<char,StrTraitMFC<char,ATL::ChTraitsCRT<char> > >::~CStringT<char,StrTraitMFC<char,ATL::ChTraitsCRT<char> > >
__unwindfunclet$?PreScan@CScript@@QAEXXZ$15:
  00028	8d 4d ec	 lea	 ecx, DWORD PTR _strTemp$7[ebp]
  0002b	e9 00 00 00 00	 jmp	 ??1?$CSimpleStringT@D$0A@@ATL@@QAE@XZ ; ATL::CSimpleStringT<char,0>::~CSimpleStringT<char,0>
__unwindfunclet$?PreScan@CScript@@QAEXXZ$1:
  00030	8d 4d ec	 lea	 ecx, DWORD PTR _strTemp$7[ebp]
  00033	e9 00 00 00 00	 jmp	 ??1?$CStringT@DV?$StrTraitMFC@DV?$ChTraitsCRT@D@ATL@@@@@ATL@@QAE@XZ ; ATL::CStringT<char,StrTraitMFC<char,ATL::ChTraitsCRT<char> > >::~CStringT<char,StrTraitMFC<char,ATL::ChTraitsCRT<char> > >
  00038	cc		 int	 3
  00039	cc		 int	 3
  0003a	cc		 int	 3
  0003b	cc		 int	 3
  0003c	cc		 int	 3
__ehhandler$?PreScan@CScript@@QAEXXZ:
  0003d	90		 npad	 1
  0003e	90		 npad	 1
  0003f	8b 54 24 08	 mov	 edx, DWORD PTR [esp+8]
  00043	8d 42 0c	 lea	 eax, DWORD PTR [edx+12]
  00046	8b 4a bc	 mov	 ecx, DWORD PTR [edx-68]
  00049	33 c8		 xor	 ecx, eax
  0004b	e8 00 00 00 00	 call	 @__security_check_cookie@4
  00050	b8 00 00 00 00	 mov	 eax, OFFSET __ehfuncinfo$?PreScan@CScript@@QAEXXZ
  00055	e9 00 00 00 00	 jmp	 ___CxxFrameHandler3
text$x	ENDS
?PreScan@CScript@@QAEXXZ ENDP				; CScript::PreScan
; Function compile flags: /Ogtp
; File C:\IAGOS\server\v18\Source\Source\_Common\script.cpp
;	COMDAT ?Free@CScript@@QAEXXZ
_TEXT	SEGMENT
?Free@CScript@@QAEXXZ PROC				; CScript::Free, COMDAT
; _this$ = ecx

; 467  : {

  00000	56		 push	 esi
  00001	8b f1		 mov	 esi, ecx

; 468  : 	CScanner::Free(); 

  00003	e8 00 00 00 00	 call	 ?Free@CScanner@@QAEXXZ	; CScanner::Free

; 469  : 	process = INTERPRITER;

  00008	c7 86 58 08 00
	00 00 00 00 00	 mov	 DWORD PTR [esi+2136], 0

; 470  : 	m_pOldProg       = 0;

  00012	c7 86 60 08 00
	00 00 00 00 00	 mov	 DWORD PTR [esi+2144], 0

; 471  : #if !defined(__REMOVE_SCIRPT_060712)
; 472  : 	functos       = 0; // index to top of function call stack

  0001c	c7 86 00 1e 00
	00 00 00 00 00	 mov	 DWORD PTR [esi+7680], 0

; 473  : 	funcIndex     = 0; // index to into function table

  00026	c7 86 38 0b 00
	00 00 00 00 00	 mov	 DWORD PTR [esi+2872], 0

; 474  : 	gVarIndex     = 0; // index into global variable table

  00030	c7 86 64 08 00
	00 00 00 00 00	 mov	 DWORD PTR [esi+2148], 0

; 475  : 	lvartos       = 0; // index into local variable stack

  0003a	c7 86 08 1e 00
	00 00 00 00 00	 mov	 DWORD PTR [esi+7688], 0

; 476  : 	labeltos      = 0; // index into local label table

  00044	c7 86 0c 1e 00
	00 00 00 00 00	 mov	 DWORD PTR [esi+7692], 0

; 477  : 	retValue      = 0; // function return value

  0004e	c7 86 10 1e 00
	00 00 00 00 00	 mov	 DWORD PTR [esi+7696], 0

; 478  : 	blocktos      = 0; //

  00058	c7 86 18 1e 00
	00 00 00 00 00	 mov	 DWORD PTR [esi+7704], 0

; 479  : 	answerCnt     = 0;

  00062	c7 86 04 1e 00
	00 00 00 00 00	 mov	 DWORD PTR [esi+7684], 0

; 480  : 	labelIndex    =-1;

  0006c	c7 86 1c 1e 00
	00 ff ff ff ff	 mov	 DWORD PTR [esi+7708], -1

; 481  : 	retSign	      = 0;

  00076	c7 86 14 1e 00
	00 00 00 00 00	 mov	 DWORD PTR [esi+7700], 0
  00080	5e		 pop	 esi

; 482  : #endif // !defined(__REMOVE_SCIRPT_060712)
; 483  : }

  00081	c3		 ret	 0
?Free@CScript@@QAEXXZ ENDP				; CScript::Free
_TEXT	ENDS
; Function compile flags: /Ogtp
; File C:\IAGOS\server\v18\Source\Source\_Common\script.cpp
;	COMDAT ?Load@CScript@@QAEHPBDHH@Z
_TEXT	SEGMENT
_lpszFileName$ = 8					; size = 4
_bMultiByte$ = 12					; size = 4
_nProcess$ = 16						; size = 4
?Load@CScript@@QAEHPBDHH@Z PROC				; CScript::Load, COMDAT
; _this$ = ecx

; 485  : {

  00000	55		 push	 ebp
  00001	8b ec		 mov	 ebp, esp
  00003	56		 push	 esi

; 486  : 	if( !CScanner::Load( lpszFileName, bMultiByte ) ) 

  00004	ff 75 0c	 push	 DWORD PTR _bMultiByte$[ebp]
  00007	8b f1		 mov	 esi, ecx
  00009	ff 75 08	 push	 DWORD PTR _lpszFileName$[ebp]
  0000c	e8 00 00 00 00	 call	 ?Load@CScanner@@QAEHPBDH@Z ; CScanner::Load
  00011	85 c0		 test	 eax, eax
  00013	75 05		 jne	 SHORT $LN2@Load
  00015	5e		 pop	 esi

; 498  : #endif
; 499  : 
; 500  : 	return TRUE;
; 501  : }

  00016	5d		 pop	 ebp
  00017	c2 0c 00	 ret	 12			; 0000000cH
$LN2@Load:

; 487  : 		return 0;
; 488  : 
; 489  : #if defined(__REMOVE_SCIRPT_060712)
; 490  : 	process = nProcess;
; 491  : #else
; 492  : 	if(nProcess == INTERPRITER)

  0001a	83 7d 10 00	 cmp	 DWORD PTR _nProcess$[ebp], 0
  0001e	75 14		 jne	 SHORT $LN3@Load

; 493  : 	{
; 494  : 		process = nProcess;

  00020	c7 86 58 08 00
	00 00 00 00 00	 mov	 DWORD PTR [esi+2136], 0

; 498  : #endif
; 499  : 
; 500  : 	return TRUE;
; 501  : }

  0002a	b8 01 00 00 00	 mov	 eax, 1
  0002f	5e		 pop	 esi
  00030	5d		 pop	 ebp
  00031	c2 0c 00	 ret	 12			; 0000000cH
$LN3@Load:

; 495  : 		return TRUE;
; 496  : 	}
; 497  : 	Compile();

  00034	8b ce		 mov	 ecx, esi
  00036	e8 00 00 00 00	 call	 ?Compile@CScript@@QAEXXZ ; CScript::Compile

; 498  : #endif
; 499  : 
; 500  : 	return TRUE;
; 501  : }

  0003b	b8 01 00 00 00	 mov	 eax, 1
  00040	5e		 pop	 esi
  00041	5d		 pop	 ebp
  00042	c2 0c 00	 ret	 12			; 0000000cH
?Load@CScript@@QAEHPBDHH@Z ENDP				; CScript::Load
_TEXT	ENDS
; Function compile flags: /Ogtp
; File C:\IAGOS\server\v18\Source\Source\_Common\script.cpp
;	COMDAT ?GetLineNum@CScript@@UAEHPAD@Z
_TEXT	SEGMENT
_lpProg$ = 8						; size = 4
?GetLineNum@CScript@@UAEHPAD@Z PROC			; CScript::GetLineNum, COMDAT
; _this$ = ecx

; 148  : 	if( m_pOldProg == NULL )

  00000	8b 81 60 08 00
	00		 mov	 eax, DWORD PTR [ecx+2144]
  00006	85 c0		 test	 eax, eax
  00008	75 09		 jne	 SHORT $LN2@GetLineNum

; 149  : 		return CScanner::GetLineNum();

  0000a	50		 push	 eax

; 151  : }

  0000b	e8 00 00 00 00	 call	 ?GetLineNum@CScanner@@UAEHPAX@Z ; CScanner::GetLineNum
  00010	c2 04 00	 ret	 4
$LN2@GetLineNum:

; 150  : 	return CScanner::GetLineNum( m_pOldProg );

  00013	50		 push	 eax

; 151  : }

  00014	e8 00 00 00 00	 call	 ?GetLineNum@CScanner@@UAEHPAX@Z ; CScanner::GetLineNum
  00019	c2 04 00	 ret	 4
?GetLineNum@CScript@@UAEHPAD@Z ENDP			; CScript::GetLineNum
_TEXT	ENDS
; Function compile flags: /Ogtp
; File C:\IAGOS\server\v18\Source\Source\_Common\script.cpp
; File C:\IAGOS\server\v18\Source\Source\_Common\Scanner.h
; File C:\IAGOS\server\v18\Source\Source\_Common\script.cpp
;	COMDAT ?GoMark@CScript@@UAEXXZ
_TEXT	SEGMENT
?GoMark@CScript@@UAEXXZ PROC				; CScript::GoMark, COMDAT
; _this$ = ecx

; 267  : 	// define 
; 268  : 	if( m_bMarkInDefine == TRUE )

  00000	83 b9 5c 08 00
	00 01		 cmp	 DWORD PTR [ecx+2140], 1
  00007	8b 81 60 08 00
	00		 mov	 eax, DWORD PTR [ecx+2144]
  0000d	75 0f		 jne	 SHORT $LN2@GoMark

; 269  : 	{
; 270  : 		if( m_pOldProg == NULL )

  0000f	85 c0		 test	 eax, eax
  00011	75 19		 jne	 SHORT $LN5@GoMark

; 271  : 		{
; 272  : 			m_pOldProg = m_pProg; 

  00013	8b 41 18	 mov	 eax, DWORD PTR [ecx+24]
  00016	89 81 60 08 00
	00		 mov	 DWORD PTR [ecx+2144], eax
  0001c	eb 0e		 jmp	 SHORT $LN5@GoMark
$LN2@GoMark:

; 273  : 		}
; 274  : 	}
; 275  : 	else
; 276  : 	{
; 277  : 		if( m_pOldProg )

  0001e	85 c0		 test	 eax, eax
  00020	74 0a		 je	 SHORT $LN5@GoMark

; 278  : 		{
; 279  : 			m_pOldProg = NULL;

  00022	c7 81 60 08 00
	00 00 00 00 00	 mov	 DWORD PTR [ecx+2144], 0
$LN5@GoMark:
; File C:\IAGOS\server\v18\Source\Source\_Common\Scanner.h

; 69   : 	virtual void	GoMark() { if( m_lpMark ) m_pProg = m_lpMark; }

  0002c	8b 41 14	 mov	 eax, DWORD PTR [ecx+20]
  0002f	85 c0		 test	 eax, eax
  00031	74 03		 je	 SHORT $LN8@GoMark
  00033	89 41 18	 mov	 DWORD PTR [ecx+24], eax
$LN8@GoMark:
; File C:\IAGOS\server\v18\Source\Source\_Common\script.cpp

; 283  : }

  00036	c3		 ret	 0
?GoMark@CScript@@UAEXXZ ENDP				; CScript::GoMark
_TEXT	ENDS
; Function compile flags: /Ogtp
; File C:\IAGOS\server\v18\Source\Source\_Common\script.cpp
;	COMDAT ?SetMark@CScript@@UAEXXZ
_TEXT	SEGMENT
?SetMark@CScript@@UAEXXZ PROC				; CScript::SetMark, COMDAT
; _this$ = ecx

; 258  : 	CScanner::SetMark();

  00000	8b 41 18	 mov	 eax, DWORD PTR [ecx+24]
  00003	89 41 14	 mov	 DWORD PTR [ecx+20], eax

; 259  : 	// Is in Define?
; 260  : 	if( m_pOldProg )
; 261  : 		m_bMarkInDefine = TRUE;
; 262  : 	else
; 263  : 		m_bMarkInDefine = FALSE;
; 264  : }

  00006	33 c0		 xor	 eax, eax
  00008	39 81 60 08 00
	00		 cmp	 DWORD PTR [ecx+2144], eax
  0000e	0f 95 c0	 setne	 al
  00011	89 81 5c 08 00
	00		 mov	 DWORD PTR [ecx+2140], eax
  00017	c3		 ret	 0
?SetMark@CScript@@UAEXXZ ENDP				; CScript::SetMark
_TEXT	ENDS
; Function compile flags: /Ogtp
; File C:\IAGOS\server\v18\Source\Source\_Common\script.cpp
; File C:\Program Files\Microsoft Visual Studio\2022\Professional\VC\Tools\MSVC\14.44.35207\atlmfc\include\afxstr.h
; File C:\Program Files\Microsoft Visual Studio\2022\Professional\VC\Tools\MSVC\14.44.35207\atlmfc\include\atlsimpstr.h
; File C:\IAGOS\server\v18\Source\Source\_Common\script.cpp
; File C:\Program Files\Microsoft Visual Studio\2022\Professional\VC\Tools\MSVC\14.44.35207\atlmfc\include\atlsimpstr.h
; File C:\IAGOS\server\v18\Source\Source\_Common\script.cpp
; File C:\Program Files\Microsoft Visual Studio\2022\Professional\VC\Tools\MSVC\14.44.35207\atlmfc\include\atlsimpstr.h
; File C:\IAGOS\server\v18\Source\Source\_Common\script.cpp
;	COMDAT ?SntxErr@CScript@@UAEXPBDH@Z
_TEXT	SEGMENT
_string$ = -100						; size = 4
_lpszHeader$GSCopy$1$ = -100				; size = 4
_str$ = -96						; size = 80
__$ArrayPad$ = -16					; size = 4
__$EHRec$ = -12						; size = 12
_lpszHeader$ = 8					; size = 4
_error$ = 12						; size = 4
?SntxErr@CScript@@UAEXPBDH@Z PROC			; CScript::SntxErr, COMDAT
; _this$ = ecx

; 126  : {

  00000	55		 push	 ebp
  00001	8b ec		 mov	 ebp, esp
  00003	6a ff		 push	 -1
  00005	68 00 00 00 00	 push	 __ehhandler$?SntxErr@CScript@@UAEXPBDH@Z
  0000a	64 a1 00 00 00
	00		 mov	 eax, DWORD PTR fs:0
  00010	50		 push	 eax
  00011	83 ec 5c	 sub	 esp, 92			; 0000005cH
  00014	a1 00 00 00 00	 mov	 eax, DWORD PTR ___security_cookie
  00019	33 c5		 xor	 eax, ebp
  0001b	89 45 f0	 mov	 DWORD PTR __$ArrayPad$[ebp], eax
  0001e	53		 push	 ebx
  0001f	56		 push	 esi
  00020	57		 push	 edi
  00021	50		 push	 eax
  00022	8d 45 f4	 lea	 eax, DWORD PTR __$EHRec$[ebp]
  00025	64 a3 00 00 00
	00		 mov	 DWORD PTR fs:0, eax
  0002b	8b d9		 mov	 ebx, ecx

; 127  : 	if( m_bErrorCheck == FALSE )

  0002d	83 bb 54 08 00
	00 00		 cmp	 DWORD PTR [ebx+2132], 0
  00034	8b 75 08	 mov	 esi, DWORD PTR _lpszHeader$[ebp]
  00037	89 75 9c	 mov	 DWORD PTR _lpszHeader$GSCopy$1$[ebp], esi
  0003a	0f 84 21 01 00
	00		 je	 $LN35@SntxErr

; 128  : 		return;
; 129  : 	SetMark();

  00040	8b 03		 mov	 eax, DWORD PTR [ebx]
  00042	ff 50 04	 call	 DWORD PTR [eax+4]

; 130  : 	PutBack();

  00045	8b 03		 mov	 eax, DWORD PTR [ebx]
  00047	8b cb		 mov	 ecx, ebx
  00049	ff 50 10	 call	 DWORD PTR [eax+16]

; 131  : 	BYTE str[80];
; 132  : 	int nLen = strlen(m_pProg);

  0004c	8b 4b 18	 mov	 ecx, DWORD PTR [ebx+24]
  0004f	8b f9		 mov	 edi, ecx
  00051	8d 57 01	 lea	 edx, DWORD PTR [edi+1]
$LL49@SntxErr:
  00054	8a 07		 mov	 al, BYTE PTR [edi]
  00056	47		 inc	 edi
  00057	84 c0		 test	 al, al
  00059	75 f9		 jne	 SHORT $LL49@SntxErr
  0005b	2b fa		 sub	 edi, edx

; 133  : 	if(nLen > 79) nLen = 79;

  0005d	83 ff 4f	 cmp	 edi, 79			; 0000004fH
  00060	7e 07		 jle	 SHORT $LN6@SntxErr
  00062	bf 4f 00 00 00	 mov	 edi, 79			; 0000004fH
  00067	eb 0d		 jmp	 SHORT $LN48@SntxErr
$LN6@SntxErr:

; 134  : 	for(int i = 0; i < nLen; i++)

  00069	8b c7		 mov	 eax, edi
  0006b	85 ff		 test	 edi, edi
  0006d	7e 47		 jle	 SHORT $LN3@SntxErr
  0006f	33 f6		 xor	 esi, esi
  00071	83 f8 10	 cmp	 eax, 16			; 00000010H
  00074	72 31		 jb	 SHORT $LL39@SntxErr
$LN48@SntxErr:
  00076	8d 41 ff	 lea	 eax, DWORD PTR [ecx-1]
  00079	33 f6		 xor	 esi, esi
  0007b	8d 55 a0	 lea	 edx, DWORD PTR _str$[ebp]
  0007e	03 c7		 add	 eax, edi
  00080	3b d0		 cmp	 edx, eax
  00082	8d 54 3d 9f	 lea	 edx, DWORD PTR _str$[ebp+edi-1]
  00086	77 04		 ja	 SHORT $LN41@SntxErr
  00088	3b d1		 cmp	 edx, ecx
  0008a	73 1b		 jae	 SHORT $LL39@SntxErr
$LN41@SntxErr:
  0008c	57		 push	 edi
  0008d	51		 push	 ecx
  0008e	8d 45 a0	 lea	 eax, DWORD PTR _str$[ebp]
  00091	50		 push	 eax
  00092	e8 00 00 00 00	 call	 _memcpy
  00097	83 c4 0c	 add	 esp, 12			; 0000000cH
  0009a	66 0f 1f 44 00
	00		 npad	 6
$LL4@SntxErr:
  000a0	46		 inc	 esi
  000a1	3b f7		 cmp	 esi, edi
  000a3	7c fb		 jl	 SHORT $LL4@SntxErr
  000a5	eb 0c		 jmp	 SHORT $LN52@SntxErr
$LL39@SntxErr:

; 135  : 		str[i] = m_pProg[i];

  000a7	8a 04 31	 mov	 al, BYTE PTR [ecx+esi]
  000aa	88 44 35 a0	 mov	 BYTE PTR _str$[ebp+esi], al
  000ae	46		 inc	 esi
  000af	3b f7		 cmp	 esi, edi
  000b1	7c f4		 jl	 SHORT $LL39@SntxErr
$LN52@SntxErr:

; 136  : 	str[nLen] = 0; 

  000b3	8b 75 9c	 mov	 esi, DWORD PTR _lpszHeader$GSCopy$1$[ebp]
$LN3@SntxErr:
  000b6	83 ff 50	 cmp	 edi, 80			; 00000050H
  000b9	0f 83 c0 00 00
	00		 jae	 $LN10@SntxErr
  000bf	c6 44 3d a0 00	 mov	 BYTE PTR _str$[ebp+edi], 0
; File C:\Program Files\Microsoft Visual Studio\2022\Professional\VC\Tools\MSVC\14.44.35207\atlmfc\include\afxstr.h

; 56   : 		return( AfxGetStringManager() );

  000c4	e8 00 00 00 00	 call	 ?AfxGetStringManager@@YGPAUIAtlStringMgr@ATL@@XZ ; AfxGetStringManager
  000c9	8b c8		 mov	 ecx, eax
; File C:\Program Files\Microsoft Visual Studio\2022\Professional\VC\Tools\MSVC\14.44.35207\atlmfc\include\atlsimpstr.h

; 209  : 		ATLENSURE( pStringMgr != NULL );

  000cb	85 c9		 test	 ecx, ecx
  000cd	0f 84 b1 00 00
	00		 je	 $LN54@SntxErr

; 210  : 		CStringData* pData = pStringMgr->GetNilString();

  000d3	8b 01		 mov	 eax, DWORD PTR [ecx]
  000d5	ff 50 0c	 call	 DWORD PTR [eax+12]

; 211  : 		Attach( pData );

  000d8	83 c0 10	 add	 eax, 16			; 00000010H
  000db	89 45 9c	 mov	 DWORD PTR _string$[ebp], eax
; File C:\IAGOS\server\v18\Source\Source\_Common\script.cpp

; 137  : 	CString string; 

  000de	8b 03		 mov	 eax, DWORD PTR [ebx]

; 138  : 	if( lpszHeader )

  000e0	8d 4d a0	 lea	 ecx, DWORD PTR _str$[ebp]
  000e3	c7 45 fc 00 00
	00 00		 mov	 DWORD PTR __$EHRec$[ebp+8], 0
  000ea	51		 push	 ecx
  000eb	8b cb		 mov	 ecx, ebx
  000ed	8b 40 24	 mov	 eax, DWORD PTR [eax+36]
  000f0	85 f6		 test	 esi, esi
  000f2	74 1f		 je	 SHORT $LN7@SntxErr

; 139  : 		string.Format( "FileName %s(%d) : %s : %s", m_strFileName, GetLineNum(), lpszHeader, str );

  000f4	56		 push	 esi
  000f5	6a 00		 push	 0
  000f7	ff d0		 call	 eax
  000f9	50		 push	 eax
  000fa	ff b3 50 08 00
	00		 push	 DWORD PTR [ebx+2128]
  00100	8d 45 9c	 lea	 eax, DWORD PTR _string$[ebp]
  00103	68 00 00 00 00	 push	 OFFSET ??_C@_0BK@LCEEEJHE@FileName?5?$CFs?$CI?$CFd?$CJ?5?3?5?$CFs?5?3?5?$CFs@
  00108	50		 push	 eax
  00109	e8 00 00 00 00	 call	 ?Format@?$CStringT@DV?$StrTraitMFC@DV?$ChTraitsCRT@D@ATL@@@@@ATL@@QAAXPBDZZ ; ATL::CStringT<char,StrTraitMFC<char,ATL::ChTraitsCRT<char> > >::Format
  0010e	83 c4 18	 add	 esp, 24			; 00000018H
  00111	eb 1c		 jmp	 SHORT $LN8@SntxErr
$LN7@SntxErr:

; 140  : 	else
; 141  : 		string.Format( "FileName %s(%d) : %s", m_strFileName, GetLineNum(), str );

  00113	6a 00		 push	 0
  00115	ff d0		 call	 eax
  00117	50		 push	 eax
  00118	ff b3 50 08 00
	00		 push	 DWORD PTR [ebx+2128]
  0011e	8d 45 9c	 lea	 eax, DWORD PTR _string$[ebp]
  00121	68 00 00 00 00	 push	 OFFSET ??_C@_0BF@GGDBDKKB@FileName?5?$CFs?$CI?$CFd?$CJ?5?3?5?$CFs@
  00126	50		 push	 eax
  00127	e8 00 00 00 00	 call	 ?Format@?$CStringT@DV?$StrTraitMFC@DV?$ChTraitsCRT@D@ATL@@@@@ATL@@QAAXPBDZZ ; ATL::CStringT<char,StrTraitMFC<char,ATL::ChTraitsCRT<char> > >::Format
  0012c	83 c4 14	 add	 esp, 20			; 00000014H
$LN8@SntxErr:

; 142  : 
; 143  : 	Error( string );

  0012f	8b 75 9c	 mov	 esi, DWORD PTR _string$[ebp]
  00132	56		 push	 esi
  00133	e8 00 00 00 00	 call	 ?Error@@YAPBDPBDZZ	; Error

; 144  : 	GoMark();

  00138	8b 03		 mov	 eax, DWORD PTR [ebx]
  0013a	83 c4 04	 add	 esp, 4
  0013d	8b cb		 mov	 ecx, ebx
  0013f	ff 50 08	 call	 DWORD PTR [eax+8]

; 145  : }

  00142	c7 45 fc ff ff
	ff ff		 mov	 DWORD PTR __$EHRec$[ebp+8], -1
; File C:\Program Files\Microsoft Visual Studio\2022\Professional\VC\Tools\MSVC\14.44.35207\atlmfc\include\atlsimpstr.h

; 804  : 		return( reinterpret_cast< CStringData* >( m_pszData )-1 );

  00149	83 c6 f0	 add	 esi, -16		; fffffff0H

; 92   : 		if( _InterlockedDecrement( &nRefs ) <= 0 )

  0014c	83 c8 ff	 or	 eax, -1
  0014f	f0 0f c1 46 0c	 lock	  xadd	 DWORD PTR [esi+12], eax
  00154	48		 dec	 eax
  00155	85 c0		 test	 eax, eax
  00157	7f 08		 jg	 SHORT $LN35@SntxErr

; 93   : 		{
; 94   : 			pStringMgr->Free( this );

  00159	8b 0e		 mov	 ecx, DWORD PTR [esi]
  0015b	56		 push	 esi
  0015c	8b 01		 mov	 eax, DWORD PTR [ecx]
  0015e	ff 50 04	 call	 DWORD PTR [eax+4]
$LN35@SntxErr:
; File C:\IAGOS\server\v18\Source\Source\_Common\script.cpp

; 145  : }

  00161	8b 4d f4	 mov	 ecx, DWORD PTR __$EHRec$[ebp]
  00164	64 89 0d 00 00
	00 00		 mov	 DWORD PTR fs:0, ecx
  0016b	59		 pop	 ecx
  0016c	5f		 pop	 edi
  0016d	5e		 pop	 esi
  0016e	5b		 pop	 ebx
  0016f	8b 4d f0	 mov	 ecx, DWORD PTR __$ArrayPad$[ebp]
  00172	33 cd		 xor	 ecx, ebp
  00174	e8 00 00 00 00	 call	 @__security_check_cookie@4
  00179	8b e5		 mov	 esp, ebp
  0017b	5d		 pop	 ebp
  0017c	c2 08 00	 ret	 8
$LN10@SntxErr:

; 136  : 	str[nLen] = 0; 

  0017f	e8 00 00 00 00	 call	 ___report_rangecheckfailure
$LN54@SntxErr:
; File C:\Program Files\Microsoft Visual Studio\2022\Professional\VC\Tools\MSVC\14.44.35207\atlmfc\include\atlsimpstr.h

; 209  : 		ATLENSURE( pStringMgr != NULL );

  00184	68 05 40 00 80	 push	 -2147467259		; 80004005H
  00189	e8 00 00 00 00	 call	 ?AtlThrowImpl@ATL@@YGXJ@Z ; ATL::AtlThrowImpl
$LN51@SntxErr:
  0018e	cc		 int	 3
_TEXT	ENDS
;	COMDAT text$x
text$x	SEGMENT
__unwindfunclet$?SntxErr@CScript@@UAEXPBDH@Z$0:
  00000	8d 4d 9c	 lea	 ecx, DWORD PTR _string$[ebp]
  00003	e9 00 00 00 00	 jmp	 ??1?$CStringT@DV?$StrTraitMFC@DV?$ChTraitsCRT@D@ATL@@@@@ATL@@QAE@XZ ; ATL::CStringT<char,StrTraitMFC<char,ATL::ChTraitsCRT<char> > >::~CStringT<char,StrTraitMFC<char,ATL::ChTraitsCRT<char> > >
  00008	cc		 int	 3
  00009	cc		 int	 3
  0000a	cc		 int	 3
  0000b	cc		 int	 3
  0000c	cc		 int	 3
__ehhandler$?SntxErr@CScript@@UAEXPBDH@Z:
  0000d	90		 npad	 1
  0000e	90		 npad	 1
  0000f	8b 54 24 08	 mov	 edx, DWORD PTR [esp+8]
  00013	8d 42 0c	 lea	 eax, DWORD PTR [edx+12]
  00016	8b 4a 94	 mov	 ecx, DWORD PTR [edx-108]
  00019	33 c8		 xor	 ecx, eax
  0001b	e8 00 00 00 00	 call	 @__security_check_cookie@4
  00020	8b 4a fc	 mov	 ecx, DWORD PTR [edx-4]
  00023	33 c8		 xor	 ecx, eax
  00025	e8 00 00 00 00	 call	 @__security_check_cookie@4
  0002a	b8 00 00 00 00	 mov	 eax, OFFSET __ehfuncinfo$?SntxErr@CScript@@UAEXPBDH@Z
  0002f	e9 00 00 00 00	 jmp	 ___CxxFrameHandler3
text$x	ENDS
?SntxErr@CScript@@UAEXPBDH@Z ENDP			; CScript::SntxErr
; Function compile flags: /Ogtp
; File C:\IAGOS\server\v18\Source\Source\_Common\script.cpp
;	COMDAT ?GetDefineNum@CScript@@SAHPBD@Z
_TEXT	SEGMENT
_nValue$ = -4						; size = 4
_lpId$ = 8						; size = 4
?GetDefineNum@CScript@@SAHPBD@Z PROC			; CScript::GetDefineNum, COMDAT

; 524  : {

  00000	55		 push	 ebp
  00001	8b ec		 mov	 ebp, esp
  00003	51		 push	 ecx

; 525  : 	int nValue;
; 526  : 	if(LookupDefine(lpId,nValue) == FALSE)

  00004	8d 45 fc	 lea	 eax, DWORD PTR _nValue$[ebp]
  00007	50		 push	 eax
  00008	ff 75 08	 push	 DWORD PTR _lpId$[ebp]
  0000b	e8 00 00 00 00	 call	 ?LookupDefine@CScript@@SAHPBDAAH@Z ; CScript::LookupDefine
  00010	8b 4d fc	 mov	 ecx, DWORD PTR _nValue$[ebp]
  00013	83 ca ff	 or	 edx, -1
  00016	83 c4 08	 add	 esp, 8
  00019	85 c0		 test	 eax, eax
  0001b	0f 44 ca	 cmove	 ecx, edx
  0001e	8b c1		 mov	 eax, ecx

; 527  : 		return -1;
; 528  : 	return nValue;
; 529  : }

  00020	8b e5		 mov	 esp, ebp
  00022	5d		 pop	 ebp
  00023	c3		 ret	 0
?GetDefineNum@CScript@@SAHPBD@Z ENDP			; CScript::GetDefineNum
_TEXT	ENDS
; Function compile flags: /Ogtp
; File C:\IAGOS\server\v18\Source\Source\_Common\script.cpp
; File C:\Program Files\Microsoft Visual Studio\2022\Professional\VC\Tools\MSVC\14.44.35207\include\xstring
; File C:\IAGOS\server\v18\Source\Source\_Common\script.cpp
; File C:\Program Files\Microsoft Visual Studio\2022\Professional\VC\Tools\MSVC\14.44.35207\include\xstring
; File C:\IAGOS\server\v18\Source\Source\_Common\script.cpp
; File C:\Program Files\Microsoft Visual Studio\2022\Professional\VC\Tools\MSVC\14.44.35207\include\xstring
; File C:\Program Files\Microsoft Visual Studio\2022\Professional\VC\Tools\MSVC\14.44.35207\include\xtree
; File C:\IAGOS\server\v18\Source\Source\_Common\script.cpp
; File C:\Program Files\Microsoft Visual Studio\2022\Professional\VC\Tools\MSVC\14.44.35207\include\xtree
; File C:\IAGOS\server\v18\Source\Source\_Common\script.cpp
; File C:\Program Files\Microsoft Visual Studio\2022\Professional\VC\Tools\MSVC\14.44.35207\include\xtree
; File C:\Program Files\Microsoft Visual Studio\2022\Professional\VC\Tools\MSVC\14.44.35207\include\xstring
; File C:\Program Files\Microsoft Visual Studio\2022\Professional\VC\Tools\MSVC\14.44.35207\include\__msvc_string_view.hpp
; File C:\Program Files\Microsoft Visual Studio\2022\Professional\VC\Tools\MSVC\14.44.35207\include\xstring
; File C:\Program Files\Microsoft Visual Studio\2022\Professional\VC\Tools\MSVC\14.44.35207\include\__msvc_string_view.hpp
; File C:\Program Files\Microsoft Visual Studio\2022\Professional\VC\Tools\MSVC\14.44.35207\include\xstring
; File C:\Program Files\Microsoft Visual Studio\2022\Professional\VC\Tools\MSVC\14.44.35207\include\__msvc_string_view.hpp
; File C:\Program Files\Microsoft Visual Studio\2022\Professional\VC\Tools\MSVC\14.44.35207\include\xstring
; File C:\Program Files\Microsoft Visual Studio\2022\Professional\VC\Tools\MSVC\14.44.35207\include\__msvc_string_view.hpp
; File C:\Program Files\Microsoft Visual Studio\2022\Professional\VC\Tools\MSVC\14.44.35207\include\xstring
; File C:\Program Files\Microsoft Visual Studio\2022\Professional\VC\Tools\MSVC\14.44.35207\include\xmemory
; File C:\Program Files\Microsoft Visual Studio\2022\Professional\VC\Tools\MSVC\14.44.35207\include\xstring
; File C:\Program Files\Microsoft Visual Studio\2022\Professional\VC\Tools\MSVC\14.44.35207\include\xmemory
; File C:\Program Files\Microsoft Visual Studio\2022\Professional\VC\Tools\MSVC\14.44.35207\include\xstring
; File C:\Program Files\Microsoft Visual Studio\2022\Professional\VC\Tools\MSVC\14.44.35207\include\xmemory
; File C:\Program Files\Microsoft Visual Studio\2022\Professional\VC\Tools\MSVC\14.44.35207\include\xstring
; File C:\Program Files\Microsoft Visual Studio\2022\Professional\VC\Tools\MSVC\14.44.35207\include\__msvc_string_view.hpp
; File C:\Program Files\Microsoft Visual Studio\2022\Professional\VC\Tools\MSVC\14.44.35207\include\xstring
; File C:\Program Files\Microsoft Visual Studio\2022\Professional\VC\Tools\MSVC\14.44.35207\include\__msvc_string_view.hpp
; File C:\Program Files\Microsoft Visual Studio\2022\Professional\VC\Tools\MSVC\14.44.35207\include\xstring
; File C:\Program Files\Microsoft Visual Studio\2022\Professional\VC\Tools\MSVC\14.44.35207\include\__msvc_string_view.hpp
; File C:\Program Files\Microsoft Visual Studio\2022\Professional\VC\Tools\MSVC\14.44.35207\include\xstring
; File C:\Program Files\Microsoft Visual Studio\2022\Professional\VC\Tools\MSVC\14.44.35207\include\__msvc_string_view.hpp
; File C:\Program Files\Microsoft Visual Studio\2022\Professional\VC\Tools\MSVC\14.44.35207\include\xstring
; File C:\Program Files\Microsoft Visual Studio\2022\Professional\VC\Tools\MSVC\14.44.35207\include\xmemory
; File C:\Program Files\Microsoft Visual Studio\2022\Professional\VC\Tools\MSVC\14.44.35207\include\xstring
; File C:\Program Files\Microsoft Visual Studio\2022\Professional\VC\Tools\MSVC\14.44.35207\include\xmemory
; File C:\Program Files\Microsoft Visual Studio\2022\Professional\VC\Tools\MSVC\14.44.35207\include\xstring
; File C:\Program Files\Microsoft Visual Studio\2022\Professional\VC\Tools\MSVC\14.44.35207\include\xmemory
; File C:\Program Files\Microsoft Visual Studio\2022\Professional\VC\Tools\MSVC\14.44.35207\include\xstring
; File C:\Program Files\Microsoft Visual Studio\2022\Professional\VC\Tools\MSVC\14.44.35207\include\__msvc_string_view.hpp
; File C:\Program Files\Microsoft Visual Studio\2022\Professional\VC\Tools\MSVC\14.44.35207\include\xstring
; File C:\Program Files\Microsoft Visual Studio\2022\Professional\VC\Tools\MSVC\14.44.35207\include\__msvc_string_view.hpp
; File C:\Program Files\Microsoft Visual Studio\2022\Professional\VC\Tools\MSVC\14.44.35207\include\xstring
; File C:\Program Files\Microsoft Visual Studio\2022\Professional\VC\Tools\MSVC\14.44.35207\include\__msvc_string_view.hpp
; File C:\IAGOS\server\v18\Source\Source\_Common\script.cpp
; File C:\Program Files\Microsoft Visual Studio\2022\Professional\VC\Tools\MSVC\14.44.35207\include\xstring
; File C:\Program Files\Microsoft Visual Studio\2022\Professional\VC\Tools\MSVC\14.44.35207\atlmfc\include\afxcoll.inl
; File C:\Program Files\Microsoft Visual Studio\2022\Professional\VC\Tools\MSVC\14.44.35207\include\xtree
; File C:\IAGOS\server\v18\Source\Source\_Common\script.cpp
; File C:\Program Files\Microsoft Visual Studio\2022\Professional\VC\Tools\MSVC\14.44.35207\include\xstring
; File C:\Program Files\Microsoft Visual Studio\2022\Professional\VC\Tools\MSVC\14.44.35207\include\xmemory
; File C:\Program Files\Microsoft Visual Studio\2022\Professional\VC\Tools\MSVC\14.44.35207\include\xstring
; File C:\Program Files\Microsoft Visual Studio\2022\Professional\VC\Tools\MSVC\14.44.35207\include\xmemory
; File C:\IAGOS\server\v18\Source\Source\_Common\script.cpp
; File C:\Program Files\Microsoft Visual Studio\2022\Professional\VC\Tools\MSVC\14.44.35207\include\xmemory
; File C:\Program Files\Microsoft Visual Studio\2022\Professional\VC\Tools\MSVC\14.44.35207\include\xstring
; File C:\IAGOS\server\v18\Source\Source\_Common\script.cpp
;	COMDAT ?GetFindIdToArray@CScript@@SAXPBDPAVCStringArray@@@Z
_TEXT	SEGMENT
_pStrArray$GSCopy$1$ = -64				; size = 4
_lpStrDef$GSCopy$1$ = -60				; size = 4
__Count$1$ = -56					; size = 4
__Result$1$ = -52					; size = 4
__Result$2$ = -52					; size = 4
$T2 = -48						; size = 4
__Old_capacity$1$ = -44					; size = 4
$T3 = -44						; size = 4
_strValue$ = -40					; size = 24
__$ArrayPad$ = -16					; size = 4
__$EHRec$ = -12						; size = 12
_lpStrDef$ = 8						; size = 4
_pStrArray$ = 12					; size = 4
?GetFindIdToArray@CScript@@SAXPBDPAVCStringArray@@@Z PROC ; CScript::GetFindIdToArray, COMDAT

; 535  : {

  00000	55		 push	 ebp
  00001	8b ec		 mov	 ebp, esp
  00003	6a ff		 push	 -1
  00005	68 00 00 00 00	 push	 __ehhandler$?GetFindIdToArray@CScript@@SAXPBDPAVCStringArray@@@Z
  0000a	64 a1 00 00 00
	00		 mov	 eax, DWORD PTR fs:0
  00010	50		 push	 eax
  00011	83 ec 34	 sub	 esp, 52			; 00000034H
  00014	a1 00 00 00 00	 mov	 eax, DWORD PTR ___security_cookie
  00019	33 c5		 xor	 eax, ebp
  0001b	89 45 f0	 mov	 DWORD PTR __$ArrayPad$[ebp], eax
  0001e	56		 push	 esi
  0001f	57		 push	 edi
  00020	50		 push	 eax
  00021	8d 45 f4	 lea	 eax, DWORD PTR __$EHRec$[ebp]
  00024	64 a3 00 00 00
	00		 mov	 DWORD PTR fs:0, eax
  0002a	8b 45 08	 mov	 eax, DWORD PTR _lpStrDef$[ebp]
  0002d	0f 57 c0	 xorps	 xmm0, xmm0
; File C:\Program Files\Microsoft Visual Studio\2022\Professional\VC\Tools\MSVC\14.44.35207\include\xstring

; 861  :         _My_data._Myres  = _Small_string_capacity;

  00030	bf 0f 00 00 00	 mov	 edi, 15			; 0000000fH
; File C:\IAGOS\server\v18\Source\Source\_Common\script.cpp

; 535  : {

  00035	89 45 c4	 mov	 DWORD PTR _lpStrDef$GSCopy$1$[ebp], eax
  00038	8b 45 0c	 mov	 eax, DWORD PTR _pStrArray$[ebp]
; File C:\Program Files\Microsoft Visual Studio\2022\Professional\VC\Tools\MSVC\14.44.35207\include\xstring

; 493  :         _CONSTEXPR20 _Bxty() noexcept : _Buf() {} // user-provided, for fancy pointers

  0003b	0f 11 45 d8	 movups	 XMMWORD PTR _strValue$[ebp], xmm0
; File C:\IAGOS\server\v18\Source\Source\_Common\script.cpp

; 535  : {

  0003f	89 45 c0	 mov	 DWORD PTR _pStrArray$GSCopy$1$[ebp], eax
; File C:\Program Files\Microsoft Visual Studio\2022\Professional\VC\Tools\MSVC\14.44.35207\include\xstring

; 860  :         _My_data._Mysize = 0;

  00042	c7 45 e8 00 00
	00 00		 mov	 DWORD PTR _strValue$[ebp+16], 0

; 861  :         _My_data._Myres  = _Small_string_capacity;

  00049	89 7d d4	 mov	 DWORD PTR __Old_capacity$1$[ebp], edi
  0004c	89 7d ec	 mov	 DWORD PTR _strValue$[ebp+20], edi

; 862  :         _My_data._Activate_SSO_buffer();
; 863  : 
; 864  :         // the _Traits::assign is last so the codegen doesn't think the char write can alias this
; 865  :         _Traits::assign(_My_data._Bx._Buf[0], _Elem());

  0004f	c6 45 d8 00	 mov	 BYTE PTR _strValue$[ebp], 0
; File C:\Program Files\Microsoft Visual Studio\2022\Professional\VC\Tools\MSVC\14.44.35207\include\xtree

; 37   :     _Tree_unchecked_const_iterator(_Nodeptr _Pnode, const _Mytree* _Plist) noexcept : _Ptr(_Pnode) {

  00053	a1 00 00 00 00	 mov	 eax, DWORD PTR ?m_defines@CScript@@2V?$map@V?$basic_string@DU?$char_traits@D@std@@V?$allocator@D@2@@std@@HU?$less@V?$basic_string@DU?$char_traits@D@std@@V?$allocator@D@2@@std@@@2@V?$allocator@U?$pair@$$CBV?$basic_string@DU?$char_traits@D@std@@V?$allocator@D@2@@std@@H@std@@@2@@std@@A
; File C:\IAGOS\server\v18\Source\Source\_Common\script.cpp

; 536  : 	string strValue; 

  00058	c7 45 fc 00 00
	00 00		 mov	 DWORD PTR __$EHRec$[ebp+8], 0
; File C:\Program Files\Microsoft Visual Studio\2022\Professional\VC\Tools\MSVC\14.44.35207\include\xtree

; 37   :     _Tree_unchecked_const_iterator(_Nodeptr _Pnode, const _Mytree* _Plist) noexcept : _Ptr(_Pnode) {

  0005f	8b 30		 mov	 esi, DWORD PTR [eax]

; 237  :         return !(*this == _Right);

  00061	3b f0		 cmp	 esi, eax
; File C:\IAGOS\server\v18\Source\Source\_Common\script.cpp

; 539  : 	for( it = m_defines.begin(); it != m_defines.end(); ++it )

  00063	0f 84 df 01 00
	00		 je	 $LN272@GetFindIdT
  00069	0f 1f 80 00 00
	00 00		 npad	 7
$LL4@GetFindIdT:
; File C:\Program Files\Microsoft Visual Studio\2022\Professional\VC\Tools\MSVC\14.44.35207\include\xtree

; 185  :         return this->_Ptr->_Myval;

  00070	8d 46 10	 lea	 eax, DWORD PTR [esi+16]
; File C:\Program Files\Microsoft Visual Studio\2022\Professional\VC\Tools\MSVC\14.44.35207\include\xstring

; 1395 :         if (this == _STD addressof(_Right)) {

  00073	8d 4d d8	 lea	 ecx, DWORD PTR _strValue$[ebp]
  00076	3b c8		 cmp	 ecx, eax
  00078	0f 84 1f 01 00
	00		 je	 $LN120@GetFindIdT

; 453  :         return _Myres > _Small_string_capacity;

  0007e	83 78 14 0f	 cmp	 DWORD PTR [eax+20], 15	; 0000000fH

; 444  :         const value_type* _Result = _Bx._Buf;

  00082	8b c8		 mov	 ecx, eax
  00084	89 45 cc	 mov	 DWORD PTR __Result$1$[ebp], eax

; 445  :         if (_Large_mode_engaged()) {

  00087	76 05		 jbe	 SHORT $LN98@GetFindIdT

; 446  :             _Result = _Unfancy(_Bx._Ptr);

  00089	8b 08		 mov	 ecx, DWORD PTR [eax]
  0008b	89 4d cc	 mov	 DWORD PTR __Result$1$[ebp], ecx
$LN98@GetFindIdT:

; 1434 :         assign(_Right._Mypair._Myval2._Myptr(), _Right._Mypair._Myval2._Mysize);

  0008e	8b 40 10	 mov	 eax, DWORD PTR [eax+16]
  00091	89 45 c8	 mov	 DWORD PTR __Count$1$[ebp], eax

; 1618 :         if (_Count <= _Mypair._Myval2._Myres) {

  00094	3b c7		 cmp	 eax, edi
  00096	77 25		 ja	 SHORT $LN105@GetFindIdT

; 453  :         return _Myres > _Small_string_capacity;

  00098	83 7d d4 0f	 cmp	 DWORD PTR __Old_capacity$1$[ebp], 15 ; 0000000fH

; 435  :         value_type* _Result = _Bx._Buf;

  0009c	8d 7d d8	 lea	 edi, DWORD PTR _strValue$[ebp]
; File C:\Program Files\Microsoft Visual Studio\2022\Professional\VC\Tools\MSVC\14.44.35207\include\__msvc_string_view.hpp

; 174  :         _CSTD memmove(_First1, _First2, _Count * sizeof(_Elem));

  0009f	50		 push	 eax
; File C:\Program Files\Microsoft Visual Studio\2022\Professional\VC\Tools\MSVC\14.44.35207\include\xstring

; 436  :         if (_Large_mode_engaged()) {

  000a0	0f 47 7d d8	 cmova	 edi, DWORD PTR _strValue$[ebp]
; File C:\Program Files\Microsoft Visual Studio\2022\Professional\VC\Tools\MSVC\14.44.35207\include\__msvc_string_view.hpp

; 174  :         _CSTD memmove(_First1, _First2, _Count * sizeof(_Elem));

  000a4	51		 push	 ecx
  000a5	57		 push	 edi
; File C:\Program Files\Microsoft Visual Studio\2022\Professional\VC\Tools\MSVC\14.44.35207\include\xstring

; 1621 :             _Mypair._Myval2._Mysize = _Count;

  000a6	89 45 e8	 mov	 DWORD PTR _strValue$[ebp+16], eax
; File C:\Program Files\Microsoft Visual Studio\2022\Professional\VC\Tools\MSVC\14.44.35207\include\__msvc_string_view.hpp

; 174  :         _CSTD memmove(_First1, _First2, _Count * sizeof(_Elem));

  000a9	e8 00 00 00 00	 call	 _memmove
; File C:\Program Files\Microsoft Visual Studio\2022\Professional\VC\Tools\MSVC\14.44.35207\include\xstring

; 1623 :             _Traits::assign(_Old_ptr[_Count], _Elem());

  000ae	8b 45 c8	 mov	 eax, DWORD PTR __Count$1$[ebp]
; File C:\Program Files\Microsoft Visual Studio\2022\Professional\VC\Tools\MSVC\14.44.35207\include\__msvc_string_view.hpp

; 174  :         _CSTD memmove(_First1, _First2, _Count * sizeof(_Elem));

  000b1	83 c4 0c	 add	 esp, 12			; 0000000cH
; File C:\Program Files\Microsoft Visual Studio\2022\Professional\VC\Tools\MSVC\14.44.35207\include\xstring

; 1623 :             _Traits::assign(_Old_ptr[_Count], _Elem());

  000b4	c6 04 07 00	 mov	 BYTE PTR [edi+eax], 0

; 1624 :             _ASAN_STRING_CREATE(*this);
; 1625 :             return *this;

  000b8	e9 da 00 00 00	 jmp	 $LN276@GetFindIdT
$LN105@GetFindIdT:

; 2998 :         if (_New_size > max_size()) {

  000bd	3d ff ff ff 7f	 cmp	 eax, 2147483647		; 7fffffffH
  000c2	0f 87 d7 01 00
	00		 ja	 $LN253@GetFindIdT

; 2978 :         const size_type _Masked = _Requested | _Alloc_mask;

  000c8	8b c8		 mov	 ecx, eax

; 2979 :         if (_Masked > _Max) { // the mask overflows, settle for max_size()

  000ca	b8 ff ff ff 7f	 mov	 eax, 2147483647		; 7fffffffH
  000cf	83 c9 0f	 or	 ecx, 15			; 0000000fH
  000d2	3b c8		 cmp	 ecx, eax
  000d4	76 10		 jbe	 SHORT $LN126@GetFindIdT

; 2980 :             return _Max;

  000d6	89 45 d4	 mov	 DWORD PTR $T3[ebp], eax
  000d9	b8 00 00 00 80	 mov	 eax, -2147483648	; 80000000H
; File C:\Program Files\Microsoft Visual Studio\2022\Professional\VC\Tools\MSVC\14.44.35207\include\xmemory

; 253  :             return _Allocate_manually_vector_aligned<_Traits>(_Bytes);

  000de	50		 push	 eax
  000df	e8 00 00 00 00	 call	 ??$_Allocate_manually_vector_aligned@U_Default_allocate_traits@std@@@std@@YAPAXI@Z ; std::_Allocate_manually_vector_aligned<std::_Default_allocate_traits>
  000e4	eb 4a		 jmp	 SHORT $LN278@GetFindIdT
$LN126@GetFindIdT:
; File C:\Program Files\Microsoft Visual Studio\2022\Professional\VC\Tools\MSVC\14.44.35207\include\xstring

; 2983 :         if (_Old > _Max - _Old / 2) { // similarly, geometric overflows

  000e6	8b d7		 mov	 edx, edi
  000e8	d1 ea		 shr	 edx, 1
  000ea	2b c2		 sub	 eax, edx
  000ec	3b f8		 cmp	 edi, eax
  000ee	76 15		 jbe	 SHORT $LN127@GetFindIdT

; 2984 :             return _Max;

  000f0	b8 ff ff ff 7f	 mov	 eax, 2147483647		; 7fffffffH
  000f5	89 45 d4	 mov	 DWORD PTR $T3[ebp], eax
  000f8	b8 00 00 00 80	 mov	 eax, -2147483648	; 80000000H
; File C:\Program Files\Microsoft Visual Studio\2022\Professional\VC\Tools\MSVC\14.44.35207\include\xmemory

; 253  :             return _Allocate_manually_vector_aligned<_Traits>(_Bytes);

  000fd	50		 push	 eax
  000fe	e8 00 00 00 00	 call	 ??$_Allocate_manually_vector_aligned@U_Default_allocate_traits@std@@@std@@YAPAXI@Z ; std::_Allocate_manually_vector_aligned<std::_Default_allocate_traits>
  00103	eb 2b		 jmp	 SHORT $LN278@GetFindIdT
$LN127@GetFindIdT:
; File C:\Program Files\Microsoft Visual Studio\2022\Professional\VC\Tools\MSVC\14.44.35207\include\xstring

; 2987 :         return (_STD max)(_Masked, _Old + _Old / 2);

  00105	8d 04 3a	 lea	 eax, DWORD PTR [edx+edi]
  00108	3b c8		 cmp	 ecx, eax
  0010a	0f 42 c8	 cmovb	 ecx, eax
  0010d	89 4d d4	 mov	 DWORD PTR $T3[ebp], ecx

; 825  :         ++_Capacity; // Take null terminator into consideration

  00110	8d 41 01	 lea	 eax, DWORD PTR [ecx+1]
; File C:\Program Files\Microsoft Visual Studio\2022\Professional\VC\Tools\MSVC\14.44.35207\include\xmemory

; 227  :     if (_Bytes == 0) {

  00113	85 c0		 test	 eax, eax
  00115	75 04		 jne	 SHORT $LN140@GetFindIdT

; 228  :         return nullptr;

  00117	33 d2		 xor	 edx, edx
  00119	eb 1d		 jmp	 SHORT $LN277@GetFindIdT
$LN140@GetFindIdT:

; 229  :     }
; 230  : 
; 231  : #if _HAS_CXX20 // TRANSITION, GH-1532
; 232  :     if (_STD is_constant_evaluated()) {
; 233  :         return _Traits::_Allocate(_Bytes);
; 234  :     }
; 235  : #endif // _HAS_CXX20
; 236  : 
; 237  : #ifdef __cpp_aligned_new
; 238  :     if constexpr (_Align > __STDCPP_DEFAULT_NEW_ALIGNMENT__) {
; 239  :         size_t _Passed_align = _Align;
; 240  : #if defined(_M_IX86) || defined(_M_X64)
; 241  :         if (_Bytes >= _Big_allocation_threshold) {
; 242  :             // boost the alignment of big allocations to help autovectorization
; 243  :             _Passed_align = (_STD max)(_Align, _Big_allocation_alignment);
; 244  :         }
; 245  : #endif // defined(_M_IX86) || defined(_M_X64)
; 246  :         return _Traits::_Allocate_aligned(_Bytes, _Passed_align);
; 247  :     } else
; 248  : #endif // defined(__cpp_aligned_new)
; 249  :     {
; 250  : #if defined(_M_IX86) || defined(_M_X64)
; 251  :         if (_Bytes >= _Big_allocation_threshold) {

  0011b	3d 00 10 00 00	 cmp	 eax, 4096		; 00001000H
  00120	72 08		 jb	 SHORT $LN141@GetFindIdT

; 253  :             return _Allocate_manually_vector_aligned<_Traits>(_Bytes);

  00122	50		 push	 eax
  00123	e8 00 00 00 00	 call	 ??$_Allocate_manually_vector_aligned@U_Default_allocate_traits@std@@@std@@YAPAXI@Z ; std::_Allocate_manually_vector_aligned<std::_Default_allocate_traits>
  00128	eb 06		 jmp	 SHORT $LN278@GetFindIdT
$LN141@GetFindIdT:

; 136  :         return ::operator new(_Bytes);

  0012a	50		 push	 eax
  0012b	e8 00 00 00 00	 call	 ??2@YAPAXI@Z		; operator new
$LN278@GetFindIdT:
; File C:\Program Files\Microsoft Visual Studio\2022\Professional\VC\Tools\MSVC\14.44.35207\include\xstring

; 3009 :         _Mypair._Myval2._Mysize = _New_size;

  00130	8b 4d d4	 mov	 ecx, DWORD PTR $T3[ebp]
  00133	8b d0		 mov	 edx, eax
  00135	83 c4 04	 add	 esp, 4
$LN277@GetFindIdT:
  00138	8b 45 c8	 mov	 eax, DWORD PTR __Count$1$[ebp]
; File C:\Program Files\Microsoft Visual Studio\2022\Professional\VC\Tools\MSVC\14.44.35207\include\__msvc_string_view.hpp

; 121  :         _CSTD memcpy(_First1, _First2, _Count * sizeof(_Elem));

  0013b	50		 push	 eax
  0013c	ff 75 cc	 push	 DWORD PTR __Result$1$[ebp]
; File C:\Program Files\Microsoft Visual Studio\2022\Professional\VC\Tools\MSVC\14.44.35207\include\xstring

; 3009 :         _Mypair._Myval2._Mysize = _New_size;

  0013f	89 55 d0	 mov	 DWORD PTR $T2[ebp], edx
; File C:\Program Files\Microsoft Visual Studio\2022\Professional\VC\Tools\MSVC\14.44.35207\include\__msvc_string_view.hpp

; 121  :         _CSTD memcpy(_First1, _First2, _Count * sizeof(_Elem));

  00142	52		 push	 edx
; File C:\Program Files\Microsoft Visual Studio\2022\Professional\VC\Tools\MSVC\14.44.35207\include\xstring

; 3009 :         _Mypair._Myval2._Mysize = _New_size;

  00143	89 45 e8	 mov	 DWORD PTR _strValue$[ebp+16], eax

; 3010 :         _Mypair._Myval2._Myres  = _New_capacity;

  00146	89 4d ec	 mov	 DWORD PTR _strValue$[ebp+20], ecx
; File C:\Program Files\Microsoft Visual Studio\2022\Professional\VC\Tools\MSVC\14.44.35207\include\__msvc_string_view.hpp

; 121  :         _CSTD memcpy(_First1, _First2, _Count * sizeof(_Elem));

  00149	e8 00 00 00 00	 call	 _memcpy
; File C:\Program Files\Microsoft Visual Studio\2022\Professional\VC\Tools\MSVC\14.44.35207\include\xstring

; 1632 :                 _Traits::assign(_New_ptr[_Count], _Elem());

  0014e	8b 45 c8	 mov	 eax, DWORD PTR __Count$1$[ebp]
; File C:\Program Files\Microsoft Visual Studio\2022\Professional\VC\Tools\MSVC\14.44.35207\include\__msvc_string_view.hpp

; 121  :         _CSTD memcpy(_First1, _First2, _Count * sizeof(_Elem));

  00151	83 c4 0c	 add	 esp, 12			; 0000000cH
; File C:\Program Files\Microsoft Visual Studio\2022\Professional\VC\Tools\MSVC\14.44.35207\include\xstring

; 1632 :                 _Traits::assign(_New_ptr[_Count], _Elem());

  00154	8b 4d d0	 mov	 ecx, DWORD PTR $T2[ebp]
  00157	c6 04 01 00	 mov	 BYTE PTR [ecx+eax], 0

; 3012 :         if (_Old_capacity > _Small_string_capacity) {

  0015b	83 ff 0f	 cmp	 edi, 15			; 0000000fH
  0015e	76 34		 jbe	 SHORT $LN119@GetFindIdT
; File C:\Program Files\Microsoft Visual Studio\2022\Professional\VC\Tools\MSVC\14.44.35207\include\xmemory

; 985  :         _STD _Deallocate<_New_alignof<_Ty>>(_Ptr, sizeof(_Ty) * _Count);

  00160	8b 4d d8	 mov	 ecx, DWORD PTR _strValue$[ebp]
; File C:\Program Files\Microsoft Visual Studio\2022\Professional\VC\Tools\MSVC\14.44.35207\include\xstring

; 852  :         _Al.deallocate(_Old_ptr, _Capacity + 1); // +1 for null terminator

  00163	47		 inc	 edi
; File C:\Program Files\Microsoft Visual Studio\2022\Professional\VC\Tools\MSVC\14.44.35207\include\xmemory

; 985  :         _STD _Deallocate<_New_alignof<_Ty>>(_Ptr, sizeof(_Ty) * _Count);

  00164	8b c1		 mov	 eax, ecx

; 284  :         if (_Bytes >= _Big_allocation_threshold) {

  00166	81 ff 00 10 00
	00		 cmp	 edi, 4096		; 00001000H
  0016c	72 14		 jb	 SHORT $LN163@GetFindIdT

; 205  :     const uintptr_t _Ptr_container   = _Ptr_user[-1];

  0016e	8b 48 fc	 mov	 ecx, DWORD PTR [eax-4]
  00171	83 c7 23	 add	 edi, 35			; 00000023H
  00174	2b c1		 sub	 eax, ecx

; 219  :     _STL_VERIFY(_Back_shift >= _Min_back_shift && _Back_shift <= _Non_user_size, "invalid argument");

  00176	83 c0 fc	 add	 eax, -4			; fffffffcH
  00179	83 f8 1f	 cmp	 eax, 31			; 0000001fH
  0017c	0f 87 0e 01 00
	00		 ja	 $LN240@GetFindIdT
$LN163@GetFindIdT:

; 289  :         ::operator delete(_Ptr, _Bytes);

  00182	57		 push	 edi
  00183	51		 push	 ecx
  00184	e8 00 00 00 00	 call	 ??3@YAXPAXI@Z		; operator delete
; File C:\Program Files\Microsoft Visual Studio\2022\Professional\VC\Tools\MSVC\14.44.35207\include\xstring

; 3014 :             _Mypair._Myval2._Bx._Ptr = _New_ptr;

  00189	8b 45 d0	 mov	 eax, DWORD PTR $T2[ebp]
; File C:\Program Files\Microsoft Visual Studio\2022\Professional\VC\Tools\MSVC\14.44.35207\include\xmemory

; 289  :         ::operator delete(_Ptr, _Bytes);

  0018c	83 c4 08	 add	 esp, 8
; File C:\Program Files\Microsoft Visual Studio\2022\Professional\VC\Tools\MSVC\14.44.35207\include\xstring

; 3014 :             _Mypair._Myval2._Bx._Ptr = _New_ptr;

  0018f	89 45 d8	 mov	 DWORD PTR _strValue$[ebp], eax

; 3015 :         } else {

  00192	eb 03		 jmp	 SHORT $LN276@GetFindIdT
$LN119@GetFindIdT:

; 3016 :             _Construct_in_place(_Mypair._Myval2._Bx._Ptr, _New_ptr);

  00194	89 4d d8	 mov	 DWORD PTR _strValue$[ebp], ecx
$LN276@GetFindIdT:
; File C:\Program Files\Microsoft Visual Studio\2022\Professional\VC\Tools\MSVC\14.44.35207\include\__msvc_string_view.hpp

; 459  :         return _CSTD strlen(reinterpret_cast<const char*>(_First));

  00197	8b 7d ec	 mov	 edi, DWORD PTR _strValue$[ebp+20]
  0019a	89 7d d4	 mov	 DWORD PTR __Old_capacity$1$[ebp], edi
$LN120@GetFindIdT:
  0019d	8b 4d c4	 mov	 ecx, DWORD PTR _lpStrDef$GSCopy$1$[ebp]
  001a0	8d 51 01	 lea	 edx, DWORD PTR [ecx+1]
$LL270@GetFindIdT:
  001a3	8a 01		 mov	 al, BYTE PTR [ecx]
  001a5	41		 inc	 ecx
  001a6	84 c0		 test	 al, al
  001a8	75 f9		 jne	 SHORT $LL270@GetFindIdT
  001aa	2b ca		 sub	 ecx, edx
; File C:\Program Files\Microsoft Visual Studio\2022\Professional\VC\Tools\MSVC\14.44.35207\include\xstring

; 444  :         const value_type* _Result = _Bx._Buf;

  001ac	8d 45 d8	 lea	 eax, DWORD PTR _strValue$[ebp]
; File C:\Program Files\Microsoft Visual Studio\2022\Professional\VC\Tools\MSVC\14.44.35207\include\__msvc_string_view.hpp

; 641  :     if (_Needle_size > _Hay_size || _Start_at > _Hay_size - _Needle_size) {

  001af	8b 55 e8	 mov	 edx, DWORD PTR _strValue$[ebp+16]
; File C:\Program Files\Microsoft Visual Studio\2022\Professional\VC\Tools\MSVC\14.44.35207\include\xstring

; 453  :         return _Myres > _Small_string_capacity;

  001b2	83 ff 0f	 cmp	 edi, 15			; 0000000fH

; 445  :         if (_Large_mode_engaged()) {

  001b5	0f 47 45 d8	 cmova	 eax, DWORD PTR _strValue$[ebp]
  001b9	89 45 cc	 mov	 DWORD PTR __Result$2$[ebp], eax
; File C:\Program Files\Microsoft Visual Studio\2022\Professional\VC\Tools\MSVC\14.44.35207\include\__msvc_string_view.hpp

; 641  :     if (_Needle_size > _Hay_size || _Start_at > _Hay_size - _Needle_size) {

  001bc	3b ca		 cmp	 ecx, edx
  001be	77 3f		 ja	 SHORT $LN2@GetFindIdT

; 642  :         // xpos cannot exist, report failure
; 643  :         // N4950 [string.view.find]/3 says:
; 644  :         // 1. _Start_at <= xpos
; 645  :         // 2. xpos + _Needle_size <= _Hay_size;
; 646  :         // therefore:
; 647  :         // 3. _Needle_size <= _Hay_size (by 2) (checked above)
; 648  :         // 4. _Start_at + _Needle_size <= _Hay_size (substitute 1 into 2)
; 649  :         // 5. _Start_at <= _Hay_size - _Needle_size (4, move _Needle_size to other side) (also checked above)
; 650  :         return static_cast<size_t>(-1);
; 651  :     }
; 652  : 
; 653  :     if (_Needle_size == 0) { // empty string always matches if xpos is possible

  001c0	85 c9		 test	 ecx, ecx
  001c2	74 1d		 je	 SHORT $LN268@GetFindIdT

; 654  :         return _Start_at;
; 655  :     }
; 656  : 
; 657  : #if _USE_STD_VECTOR_ALGORITHMS
; 658  :     if constexpr (_Is_implementation_handled_char_traits<_Traits> && sizeof(typename _Traits::char_type) <= 2) {
; 659  :         if (!_STD _Is_constant_evaluated()) {
; 660  :             const auto _End = _Haystack + _Hay_size;
; 661  :             const auto _Ptr = _STD _Search_vectorized(_Haystack + _Start_at, _End, _Needle, _Needle_size);

  001c4	51		 push	 ecx
  001c5	ff 75 c4	 push	 DWORD PTR _lpStrDef$GSCopy$1$[ebp]
  001c8	8d 3c 02	 lea	 edi, DWORD PTR [edx+eax]
  001cb	57		 push	 edi
  001cc	50		 push	 eax
  001cd	e8 00 00 00 00	 call	 ??$_Search_vectorized@$$CBD$$CBD@std@@YAPBDQBD00I@Z ; std::_Search_vectorized<char const ,char const >
  001d2	83 c4 10	 add	 esp, 16			; 00000010H

; 662  : 
; 663  :             if (_Ptr != _End) {

  001d5	3b c7		 cmp	 eax, edi
  001d7	74 20		 je	 SHORT $LN271@GetFindIdT

; 664  :                 return static_cast<size_t>(_Ptr - _Haystack);

  001d9	2b 45 cc	 sub	 eax, DWORD PTR __Result$2$[ebp]
; File C:\IAGOS\server\v18\Source\Source\_Common\script.cpp

; 542  : 		if( strValue.find( lpStrDef ) == 0 )	// ŔÎµ¦˝ş 0żˇĽ­ ĂŁľŇŔ¸¸é °á°úąčż­żˇ łÖ´Â´Ů.

  001dc	75 1b		 jne	 SHORT $LN271@GetFindIdT
  001de	8b 7d ec	 mov	 edi, DWORD PTR _strValue$[ebp+20]
$LN268@GetFindIdT:
; File C:\Program Files\Microsoft Visual Studio\2022\Professional\VC\Tools\MSVC\14.44.35207\include\xstring

; 453  :         return _Myres > _Small_string_capacity;

  001e1	83 ff 0f	 cmp	 edi, 15			; 0000000fH

; 444  :         const value_type* _Result = _Bx._Buf;

  001e4	8d 45 d8	 lea	 eax, DWORD PTR _strValue$[ebp]

; 445  :         if (_Large_mode_engaged()) {

  001e7	0f 47 45 d8	 cmova	 eax, DWORD PTR _strValue$[ebp]
; File C:\Program Files\Microsoft Visual Studio\2022\Professional\VC\Tools\MSVC\14.44.35207\atlmfc\include\afxcoll.inl

; 316  : 		SetAtGrow(nIndex, newElement);

  001eb	50		 push	 eax
  001ec	8b 45 c0	 mov	 eax, DWORD PTR _pStrArray$GSCopy$1$[ebp]
  001ef	8b c8		 mov	 ecx, eax
  001f1	ff 70 08	 push	 DWORD PTR [eax+8]
  001f4	e8 00 00 00 00	 call	 ?SetAtGrow@CStringArray@@QAEXHPBD@Z ; CStringArray::SetAtGrow
$LN271@GetFindIdT:
; File C:\Program Files\Microsoft Visual Studio\2022\Professional\VC\Tools\MSVC\14.44.35207\include\xtree

; 50   :         if (_Ptr->_Right->_Isnil) { // climb looking for right subtree

  001f9	8b 7d ec	 mov	 edi, DWORD PTR _strValue$[ebp+20]
  001fc	89 7d d4	 mov	 DWORD PTR __Old_capacity$1$[ebp], edi
$LN2@GetFindIdT:
  001ff	8b 46 08	 mov	 eax, DWORD PTR [esi+8]
  00202	80 78 0d 00	 cmp	 BYTE PTR [eax+13], 0
  00206	74 1d		 je	 SHORT $LN58@GetFindIdT

; 51   :             _Nodeptr _Pnode;
; 52   :             while (!(_Pnode = _Ptr->_Parent)->_Isnil && _Ptr == _Pnode->_Right) {

  00208	8b 46 04	 mov	 eax, DWORD PTR [esi+4]
  0020b	80 78 0d 00	 cmp	 BYTE PTR [eax+13], 0
  0020f	75 10		 jne	 SHORT $LN57@GetFindIdT
$LL56@GetFindIdT:
  00211	3b 70 08	 cmp	 esi, DWORD PTR [eax+8]
  00214	75 0b		 jne	 SHORT $LN57@GetFindIdT

; 53   :                 _Ptr = _Pnode; // ==> parent while right subtree

  00216	8b f0		 mov	 esi, eax
  00218	8b 40 04	 mov	 eax, DWORD PTR [eax+4]
  0021b	80 78 0d 00	 cmp	 BYTE PTR [eax+13], 0
  0021f	74 f0		 je	 SHORT $LL56@GetFindIdT
$LN57@GetFindIdT:

; 54   :             }
; 55   : 
; 56   :             _Ptr = _Pnode; // ==> parent (head if end())

  00221	8b f0		 mov	 esi, eax

; 57   :         } else {

  00223	eb 17		 jmp	 SHORT $LN258@GetFindIdT
$LN58@GetFindIdT:

; 58   :             _Ptr = _Mytree::_Min(_Ptr->_Right); // ==> smallest of right subtree

  00225	8b f0		 mov	 esi, eax

; 476  :         while (!_Pnode->_Left->_Isnil) {

  00227	8b 0e		 mov	 ecx, DWORD PTR [esi]
  00229	80 79 0d 00	 cmp	 BYTE PTR [ecx+13], 0
  0022d	75 0d		 jne	 SHORT $LN258@GetFindIdT
  0022f	90		 npad	 1
$LL63@GetFindIdT:
  00230	8b 01		 mov	 eax, DWORD PTR [ecx]

; 477  :             _Pnode = _Pnode->_Left;

  00232	8b f1		 mov	 esi, ecx
  00234	8b c8		 mov	 ecx, eax
  00236	80 78 0d 00	 cmp	 BYTE PTR [eax+13], 0
  0023a	74 f4		 je	 SHORT $LL63@GetFindIdT
$LN258@GetFindIdT:

; 237  :         return !(*this == _Right);

  0023c	3b 35 00 00 00
	00		 cmp	 esi, DWORD PTR ?m_defines@CScript@@2V?$map@V?$basic_string@DU?$char_traits@D@std@@V?$allocator@D@2@@std@@HU?$less@V?$basic_string@DU?$char_traits@D@std@@V?$allocator@D@2@@std@@@2@V?$allocator@U?$pair@$$CBV?$basic_string@DU?$char_traits@D@std@@V?$allocator@D@2@@std@@H@std@@@2@@std@@A
; File C:\IAGOS\server\v18\Source\Source\_Common\script.cpp

; 539  : 	for( it = m_defines.begin(); it != m_defines.end(); ++it )

  00242	0f 85 28 fe ff
	ff		 jne	 $LL4@GetFindIdT
$LN272@GetFindIdT:
; File C:\Program Files\Microsoft Visual Studio\2022\Professional\VC\Tools\MSVC\14.44.35207\include\xstring

; 453  :         return _Myres > _Small_string_capacity;

  00248	83 ff 0f	 cmp	 edi, 15			; 0000000fH

; 3083 :         if (_My_data._Large_mode_engaged()) {

  0024b	76 28		 jbe	 SHORT $LN236@GetFindIdT
; File C:\Program Files\Microsoft Visual Studio\2022\Professional\VC\Tools\MSVC\14.44.35207\include\xmemory

; 985  :         _STD _Deallocate<_New_alignof<_Ty>>(_Ptr, sizeof(_Ty) * _Count);

  0024d	8b 4d d8	 mov	 ecx, DWORD PTR _strValue$[ebp]
; File C:\Program Files\Microsoft Visual Studio\2022\Professional\VC\Tools\MSVC\14.44.35207\include\xstring

; 852  :         _Al.deallocate(_Old_ptr, _Capacity + 1); // +1 for null terminator

  00250	47		 inc	 edi
; File C:\Program Files\Microsoft Visual Studio\2022\Professional\VC\Tools\MSVC\14.44.35207\include\xmemory

; 985  :         _STD _Deallocate<_New_alignof<_Ty>>(_Ptr, sizeof(_Ty) * _Count);

  00251	8b c1		 mov	 eax, ecx

; 284  :         if (_Bytes >= _Big_allocation_threshold) {

  00253	81 ff 00 10 00
	00		 cmp	 edi, 4096		; 00001000H
  00259	72 10		 jb	 SHORT $LN241@GetFindIdT

; 205  :     const uintptr_t _Ptr_container   = _Ptr_user[-1];

  0025b	8b 48 fc	 mov	 ecx, DWORD PTR [eax-4]
  0025e	83 c7 23	 add	 edi, 35			; 00000023H
  00261	2b c1		 sub	 eax, ecx

; 219  :     _STL_VERIFY(_Back_shift >= _Min_back_shift && _Back_shift <= _Non_user_size, "invalid argument");

  00263	83 c0 fc	 add	 eax, -4			; fffffffcH
  00266	83 f8 1f	 cmp	 eax, 31			; 0000001fH
  00269	77 25		 ja	 SHORT $LN240@GetFindIdT
$LN241@GetFindIdT:

; 289  :         ::operator delete(_Ptr, _Bytes);

  0026b	57		 push	 edi
  0026c	51		 push	 ecx
  0026d	e8 00 00 00 00	 call	 ??3@YAXPAXI@Z		; operator delete
  00272	83 c4 08	 add	 esp, 8
$LN236@GetFindIdT:
; File C:\IAGOS\server\v18\Source\Source\_Common\script.cpp

; 545  : }

  00275	8b 4d f4	 mov	 ecx, DWORD PTR __$EHRec$[ebp]
  00278	64 89 0d 00 00
	00 00		 mov	 DWORD PTR fs:0, ecx
  0027f	59		 pop	 ecx
  00280	5f		 pop	 edi
  00281	5e		 pop	 esi
  00282	8b 4d f0	 mov	 ecx, DWORD PTR __$ArrayPad$[ebp]
  00285	33 cd		 xor	 ecx, ebp
  00287	e8 00 00 00 00	 call	 @__security_check_cookie@4
  0028c	8b e5		 mov	 esp, ebp
  0028e	5d		 pop	 ebp
  0028f	c3		 ret	 0
$LN240@GetFindIdT:
; File C:\Program Files\Microsoft Visual Studio\2022\Professional\VC\Tools\MSVC\14.44.35207\include\xmemory

; 219  :     _STL_VERIFY(_Back_shift >= _Min_back_shift && _Back_shift <= _Non_user_size, "invalid argument");

  00290	6a 00		 push	 0
  00292	6a 00		 push	 0
  00294	6a 00		 push	 0
  00296	6a 00		 push	 0
  00298	6a 00		 push	 0
  0029a	e8 00 00 00 00	 call	 __invoke_watson
$LN253@GetFindIdT:
; File C:\Program Files\Microsoft Visual Studio\2022\Professional\VC\Tools\MSVC\14.44.35207\include\xstring

; 2999 :             _Xlen_string(); // result too long

  0029f	e8 00 00 00 00	 call	 ?_Xlen_string@std@@YAXXZ ; std::_Xlen_string
$LN275@GetFindIdT:
  002a4	cc		 int	 3
_TEXT	ENDS
;	COMDAT text$x
text$x	SEGMENT
__unwindfunclet$?GetFindIdToArray@CScript@@SAXPBDPAVCStringArray@@@Z$0:
  00000	8d 4d d8	 lea	 ecx, DWORD PTR _strValue$[ebp]
  00003	e9 00 00 00 00	 jmp	 ??1?$basic_string@DU?$char_traits@D@std@@V?$allocator@D@2@@std@@QAE@XZ ; std::basic_string<char,std::char_traits<char>,std::allocator<char> >::~basic_string<char,std::char_traits<char>,std::allocator<char> >
  00008	cc		 int	 3
  00009	cc		 int	 3
  0000a	cc		 int	 3
  0000b	cc		 int	 3
  0000c	cc		 int	 3
__ehhandler$?GetFindIdToArray@CScript@@SAXPBDPAVCStringArray@@@Z:
  0000d	90		 npad	 1
  0000e	90		 npad	 1
  0000f	8b 54 24 08	 mov	 edx, DWORD PTR [esp+8]
  00013	8d 42 0c	 lea	 eax, DWORD PTR [edx+12]
  00016	8b 4a c0	 mov	 ecx, DWORD PTR [edx-64]
  00019	33 c8		 xor	 ecx, eax
  0001b	e8 00 00 00 00	 call	 @__security_check_cookie@4
  00020	8b 4a fc	 mov	 ecx, DWORD PTR [edx-4]
  00023	33 c8		 xor	 ecx, eax
  00025	e8 00 00 00 00	 call	 @__security_check_cookie@4
  0002a	b8 00 00 00 00	 mov	 eax, OFFSET __ehfuncinfo$?GetFindIdToArray@CScript@@SAXPBDPAVCStringArray@@@Z
  0002f	e9 00 00 00 00	 jmp	 ___CxxFrameHandler3
text$x	ENDS
?GetFindIdToArray@CScript@@SAXPBDPAVCStringArray@@@Z ENDP ; CScript::GetFindIdToArray
; Function compile flags: /Ogtp
; File C:\IAGOS\server\v18\Source\Source\_Common\script.cpp
; File C:\Program Files\Microsoft Visual Studio\2022\Professional\VC\Tools\MSVC\14.44.35207\include\xtree
; File C:\Program Files\Microsoft Visual Studio\2022\Professional\VC\Tools\MSVC\14.44.35207\include\type_traits
; File C:\Program Files\Microsoft Visual Studio\2022\Professional\VC\Tools\MSVC\14.44.35207\include\xtree
; File C:\Program Files\Microsoft Visual Studio\2022\Professional\VC\Tools\MSVC\14.44.35207\include\xstring
; File C:\Program Files\Microsoft Visual Studio\2022\Professional\VC\Tools\MSVC\14.44.35207\include\xmemory
; File C:\Program Files\Microsoft Visual Studio\2022\Professional\VC\Tools\MSVC\14.44.35207\include\xstring
; File C:\Program Files\Microsoft Visual Studio\2022\Professional\VC\Tools\MSVC\14.44.35207\include\xmemory
; File C:\Program Files\Microsoft Visual Studio\2022\Professional\VC\Tools\MSVC\14.44.35207\include\xtree
; File C:\IAGOS\server\v18\Source\Source\_Common\script.cpp
; File C:\Program Files\Microsoft Visual Studio\2022\Professional\VC\Tools\MSVC\14.44.35207\include\xmemory
; File C:\IAGOS\server\v18\Source\Source\_Common\script.cpp
;	COMDAT ?LookupDefine@CScript@@SAHPBDAAH@Z
_TEXT	SEGMENT
__Loc$1 = -40						; size = 12
$T2 = -28						; size = 24
__$ArrayPad$ = -4					; size = 4
_lpszString$ = 8					; size = 4
_rValue$ = 12						; size = 4
?LookupDefine@CScript@@SAHPBDAAH@Z PROC			; CScript::LookupDefine, COMDAT

; 505  : {

  00000	55		 push	 ebp
  00001	8b ec		 mov	 ebp, esp
  00003	83 ec 28	 sub	 esp, 40			; 00000028H
  00006	a1 00 00 00 00	 mov	 eax, DWORD PTR ___security_cookie
  0000b	33 c5		 xor	 eax, ebp
  0000d	89 45 fc	 mov	 DWORD PTR __$ArrayPad$[ebp], eax
  00010	8b 45 08	 mov	 eax, DWORD PTR _lpszString$[ebp]

; 506  : 	map< string, int >::iterator it = m_defines.find( lpszString );

  00013	8d 4d e4	 lea	 ecx, DWORD PTR $T2[ebp]
  00016	53		 push	 ebx
  00017	8b 5d 0c	 mov	 ebx, DWORD PTR _rValue$[ebp]
  0001a	56		 push	 esi
  0001b	57		 push	 edi
  0001c	50		 push	 eax
  0001d	e8 00 00 00 00	 call	 ??0?$basic_string@DU?$char_traits@D@std@@V?$allocator@D@2@@std@@QAE@QBD@Z ; std::basic_string<char,std::char_traits<char>,std::allocator<char> >::basic_string<char,std::char_traits<char>,std::allocator<char> >
; File C:\Program Files\Microsoft Visual Studio\2022\Professional\VC\Tools\MSVC\14.44.35207\include\xtree

; 1384 :         const _Tree_find_result<_Nodeptr> _Loc = _Find_lower_bound(_Keyval);

  00022	8d 45 e4	 lea	 eax, DWORD PTR $T2[ebp]
  00025	b9 00 00 00 00	 mov	 ecx, OFFSET ?m_defines@CScript@@2V?$map@V?$basic_string@DU?$char_traits@D@std@@V?$allocator@D@2@@std@@HU?$less@V?$basic_string@DU?$char_traits@D@std@@V?$allocator@D@2@@std@@@2@V?$allocator@U?$pair@$$CBV?$basic_string@DU?$char_traits@D@std@@V?$allocator@D@2@@std@@H@std@@@2@@std@@A ; CScript::m_defines
  0002a	50		 push	 eax
  0002b	8d 45 d8	 lea	 eax, DWORD PTR __Loc$1[ebp]
  0002e	50		 push	 eax
  0002f	e8 00 00 00 00	 call	 ??$_Find_lower_bound@V?$basic_string@DU?$char_traits@D@std@@V?$allocator@D@2@@std@@@?$_Tree@V?$_Tmap_traits@V?$basic_string@DU?$char_traits@D@std@@V?$allocator@D@2@@std@@HU?$less@V?$basic_string@DU?$char_traits@D@std@@V?$allocator@D@2@@std@@@2@V?$allocator@U?$pair@$$CBV?$basic_string@DU?$char_traits@D@std@@V?$allocator@D@2@@std@@H@std@@@2@$0A@@std@@@std@@IBE?AU?$_Tree_find_result@PAU?$_Tree_node@U?$pair@$$CBV?$basic_string@DU?$char_traits@D@std@@V?$allocator@D@2@@std@@H@std@@PAX@std@@@1@ABV?$basic_string@DU?$char_traits@D@std@@V?$allocator@D@2@@1@@Z ; std::_Tree<std::_Tmap_traits<std::basic_string<char,std::char_traits<char>,std::allocator<char> >,int,std::less<std::basic_string<char,std::char_traits<char>,std::allocator<char> > >,std::allocator<std::pair<std::basic_string<char,std::char_traits<char>,std::allocator<char> > const ,int> >,0> >::_Find_lower_bound<std::basic_string<char,std::char_traits<char>,std::allocator<char> > >

; 1624 :         return !_Bound->_Isnil && !_DEBUG_LT_PRED(_Getcomp(), _Keyval, _Traits::_Kfn(_Bound->_Myval));

  00034	8b 75 e0	 mov	 esi, DWORD PTR __Loc$1[ebp+8]
  00037	8b 3d 00 00 00
	00		 mov	 edi, DWORD PTR ?m_defines@CScript@@2V?$map@V?$basic_string@DU?$char_traits@D@std@@V?$allocator@D@2@@std@@HU?$less@V?$basic_string@DU?$char_traits@D@std@@V?$allocator@D@2@@std@@@2@V?$allocator@U?$pair@$$CBV?$basic_string@DU?$char_traits@D@std@@V?$allocator@D@2@@std@@H@std@@@2@@std@@A
  0003d	80 7e 0d 00	 cmp	 BYTE PTR [esi+13], 0
  00041	75 14		 jne	 SHORT $LN9@LookupDefi
  00043	8d 46 10	 lea	 eax, DWORD PTR [esi+16]
; File C:\Program Files\Microsoft Visual Studio\2022\Professional\VC\Tools\MSVC\14.44.35207\include\type_traits

; 2380 :         return _Left < _Right;

  00046	50		 push	 eax
  00047	8d 45 e4	 lea	 eax, DWORD PTR $T2[ebp]
  0004a	50		 push	 eax
  0004b	e8 00 00 00 00	 call	 ??$?MDU?$char_traits@D@std@@V?$allocator@D@1@@std@@YA_NABV?$basic_string@DU?$char_traits@D@std@@V?$allocator@D@2@@0@0@Z ; std::operator<<char,std::char_traits<char>,std::allocator<char> >
  00050	83 c4 08	 add	 esp, 8
; File C:\Program Files\Microsoft Visual Studio\2022\Professional\VC\Tools\MSVC\14.44.35207\include\xtree

; 1624 :         return !_Bound->_Isnil && !_DEBUG_LT_PRED(_Getcomp(), _Keyval, _Traits::_Kfn(_Bound->_Myval));

  00053	84 c0		 test	 al, al
  00055	74 02		 je	 SHORT $LN8@LookupDefi
$LN9@LookupDefi:

; 1389 :         return _Get_scary()->_Myhead;

  00057	8b f7		 mov	 esi, edi
$LN8@LookupDefi:
; File C:\Program Files\Microsoft Visual Studio\2022\Professional\VC\Tools\MSVC\14.44.35207\include\xstring

; 453  :         return _Myres > _Small_string_capacity;

  00059	8b 4d f8	 mov	 ecx, DWORD PTR $T2[ebp+20]
  0005c	83 f9 0f	 cmp	 ecx, 15			; 0000000fH

; 3083 :         if (_My_data._Large_mode_engaged()) {

  0005f	76 2e		 jbe	 SHORT $LN47@LookupDefi
; File C:\Program Files\Microsoft Visual Studio\2022\Professional\VC\Tools\MSVC\14.44.35207\include\xmemory

; 985  :         _STD _Deallocate<_New_alignof<_Ty>>(_Ptr, sizeof(_Ty) * _Count);

  00061	8b 55 e4	 mov	 edx, DWORD PTR $T2[ebp]
; File C:\Program Files\Microsoft Visual Studio\2022\Professional\VC\Tools\MSVC\14.44.35207\include\xstring

; 852  :         _Al.deallocate(_Old_ptr, _Capacity + 1); // +1 for null terminator

  00064	41		 inc	 ecx
; File C:\Program Files\Microsoft Visual Studio\2022\Professional\VC\Tools\MSVC\14.44.35207\include\xmemory

; 985  :         _STD _Deallocate<_New_alignof<_Ty>>(_Ptr, sizeof(_Ty) * _Count);

  00065	8b c2		 mov	 eax, edx

; 284  :         if (_Bytes >= _Big_allocation_threshold) {

  00067	81 f9 00 10 00
	00		 cmp	 ecx, 4096		; 00001000H
  0006d	72 10		 jb	 SHORT $LN52@LookupDefi

; 205  :     const uintptr_t _Ptr_container   = _Ptr_user[-1];

  0006f	8b 50 fc	 mov	 edx, DWORD PTR [eax-4]
  00072	83 c1 23	 add	 ecx, 35			; 00000023H
  00075	2b c2		 sub	 eax, edx

; 219  :     _STL_VERIFY(_Back_shift >= _Min_back_shift && _Back_shift <= _Non_user_size, "invalid argument");

  00077	83 c0 fc	 add	 eax, -4			; fffffffcH
  0007a	83 f8 1f	 cmp	 eax, 31			; 0000001fH
  0007d	77 42		 ja	 SHORT $LN94@LookupDefi
$LN52@LookupDefi:

; 289  :         ::operator delete(_Ptr, _Bytes);

  0007f	51		 push	 ecx
  00080	52		 push	 edx
  00081	e8 00 00 00 00	 call	 ??3@YAXPAXI@Z		; operator delete
  00086	8b 3d 00 00 00
	00		 mov	 edi, DWORD PTR ?m_defines@CScript@@2V?$map@V?$basic_string@DU?$char_traits@D@std@@V?$allocator@D@2@@std@@HU?$less@V?$basic_string@DU?$char_traits@D@std@@V?$allocator@D@2@@std@@@2@V?$allocator@U?$pair@$$CBV?$basic_string@DU?$char_traits@D@std@@V?$allocator@D@2@@std@@H@std@@@2@@std@@A
  0008c	83 c4 08	 add	 esp, 8
$LN47@LookupDefi:
; File C:\Program Files\Microsoft Visual Studio\2022\Professional\VC\Tools\MSVC\14.44.35207\include\xtree

; 37   :     _Tree_unchecked_const_iterator(_Nodeptr _Pnode, const _Mytree* _Plist) noexcept : _Ptr(_Pnode) {

  0008f	3b f7		 cmp	 esi, edi
; File C:\IAGOS\server\v18\Source\Source\_Common\script.cpp

; 507  : 	if( it != m_defines.end() )

  00091	74 1b		 je	 SHORT $LN2@LookupDefi

; 508  : 	{
; 509  : 		rValue = it->second;

  00093	8b 46 28	 mov	 eax, DWORD PTR [esi+40]
  00096	5f		 pop	 edi
  00097	89 03		 mov	 DWORD PTR [ebx], eax

; 510  : 		return TRUE;

  00099	b8 01 00 00 00	 mov	 eax, 1

; 514  : }

  0009e	5e		 pop	 esi
  0009f	5b		 pop	 ebx
  000a0	8b 4d fc	 mov	 ecx, DWORD PTR __$ArrayPad$[ebp]
  000a3	33 cd		 xor	 ecx, ebp
  000a5	e8 00 00 00 00	 call	 @__security_check_cookie@4
  000aa	8b e5		 mov	 esp, ebp
  000ac	5d		 pop	 ebp
  000ad	c3		 ret	 0
$LN2@LookupDefi:
  000ae	8b 4d fc	 mov	 ecx, DWORD PTR __$ArrayPad$[ebp]
  000b1	33 c0		 xor	 eax, eax
  000b3	5f		 pop	 edi
  000b4	5e		 pop	 esi
  000b5	33 cd		 xor	 ecx, ebp
  000b7	5b		 pop	 ebx
  000b8	e8 00 00 00 00	 call	 @__security_check_cookie@4
  000bd	8b e5		 mov	 esp, ebp
  000bf	5d		 pop	 ebp
  000c0	c3		 ret	 0
$LN94@LookupDefi:
; File C:\Program Files\Microsoft Visual Studio\2022\Professional\VC\Tools\MSVC\14.44.35207\include\xmemory

; 219  :     _STL_VERIFY(_Back_shift >= _Min_back_shift && _Back_shift <= _Non_user_size, "invalid argument");

  000c1	6a 00		 push	 0
  000c3	6a 00		 push	 0
  000c5	6a 00		 push	 0
  000c7	6a 00		 push	 0
  000c9	6a 00		 push	 0
  000cb	e8 00 00 00 00	 call	 __invoke_watson
$LN92@LookupDefi:
  000d0	cc		 int	 3
?LookupDefine@CScript@@SAHPBDAAH@Z ENDP			; CScript::LookupDefine
_TEXT	ENDS
; Function compile flags: /Ogtp
; File C:\IAGOS\server\v18\Source\Source\_Common\script.cpp
;	COMDAT ?SetIValue@CScript@@QAAXHZZ
_TEXT	SEGMENT
_this$ = 8						; size = 4
_nVal$ = 12						; size = 4
?SetIValue@CScript@@QAAXHZZ PROC			; CScript::SetIValue, COMDAT

; 796  : {

  00000	55		 push	 ebp
  00001	8b ec		 mov	 ebp, esp

; 800  : 	while( nVal != -1 )

  00003	8b 4d 0c	 mov	 ecx, DWORD PTR _nVal$[ebp]
  00006	83 f9 ff	 cmp	 ecx, -1
  00009	74 1d		 je	 SHORT $LN3@SetIValue

; 797  : 	va_list args;
; 798  : 	va_start( args, nVal );
; 799  : 	int i = 0;

  0000b	8b 45 08	 mov	 eax, DWORD PTR _this$[ebp]
  0000e	8d 55 0c	 lea	 edx, DWORD PTR _nVal$[ebp]
  00011	05 28 1e 00 00	 add	 eax, 7720		; 00001e28H
$LL2@SetIValue:

; 801  : 	{
; 802  : 		m_anInternalVal[ i++ ] = nVal;

  00016	89 08		 mov	 DWORD PTR [eax], ecx

; 803  : 		nVal = va_arg( args, int );

  00018	8d 52 04	 lea	 edx, DWORD PTR [edx+4]
  0001b	8b 0a		 mov	 ecx, DWORD PTR [edx]
  0001d	8d 40 04	 lea	 eax, DWORD PTR [eax+4]
  00020	89 4d 0c	 mov	 DWORD PTR _nVal$[ebp], ecx
  00023	83 f9 ff	 cmp	 ecx, -1
  00026	75 ee		 jne	 SHORT $LL2@SetIValue
$LN3@SetIValue:

; 804  : 	}
; 805  : 	va_end( args );
; 806  : }

  00028	5d		 pop	 ebp
  00029	c3		 ret	 0
?SetIValue@CScript@@QAAXHZZ ENDP			; CScript::SetIValue
_TEXT	ENDS
; Function compile flags: /Ogtp
; File C:\IAGOS\server\v18\Source\Source\_Common\script.cpp
;	COMDAT ?FindEob@CScript@@QAEXXZ
_TEXT	SEGMENT
?FindEob@CScript@@QAEXXZ PROC				; CScript::FindEob, COMDAT
; _this$ = ecx

; 1482 : {

  00000	53		 push	 ebx
  00001	56		 push	 esi
  00002	57		 push	 edi
  00003	8b f9		 mov	 edi, ecx

; 1483 : 	int brace = 0;

  00005	33 db		 xor	 ebx, ebx
$LL4@FindEob:

; 1484 : 	for(;;) {
; 1485 : 		GetToken();

  00007	8b 07		 mov	 eax, DWORD PTR [edi]
  00009	8b cf		 mov	 ecx, edi
  0000b	6a 00		 push	 0
  0000d	ff 50 14	 call	 DWORD PTR [eax+20]

; 1486 : 		if(*token==';'&&!brace) break;

  00010	8b 47 3c	 mov	 eax, DWORD PTR [edi+60]
  00013	8a 00		 mov	 al, BYTE PTR [eax]
  00015	3c 3b		 cmp	 al, 59			; 0000003bH
  00017	75 08		 jne	 SHORT $LN7@FindEob
  00019	85 db		 test	 ebx, ebx
$LN35@FindEob:

; 1495 : 			}
; 1496 : 		}
; 1497 : 	}
; 1498 : }

  0001b	75 ea		 jne	 SHORT $LL4@FindEob
  0001d	5f		 pop	 edi
  0001e	5e		 pop	 esi
  0001f	5b		 pop	 ebx
  00020	c3		 ret	 0
$LN7@FindEob:

; 1487 : 		else if(*token=='{') brace++;

  00021	3c 7b		 cmp	 al, 123			; 0000007bH
  00023	75 03		 jne	 SHORT $LN9@FindEob
  00025	43		 inc	 ebx
  00026	eb df		 jmp	 SHORT $LL4@FindEob
$LN9@FindEob:

; 1488 : 		else if(*token=='}') { if(!(--brace)) break; }

  00028	3c 7d		 cmp	 al, 125			; 0000007dH
  0002a	75 05		 jne	 SHORT $LN11@FindEob
  0002c	83 eb 01	 sub	 ebx, 1
  0002f	eb ea		 jmp	 SHORT $LN35@FindEob
$LN11@FindEob:

; 1489 : 		else if(*token=='(') {

  00031	3c 28		 cmp	 al, 40			; 00000028H
  00033	75 d2		 jne	 SHORT $LL4@FindEob

; 1490 : 			int bra = 1;

  00035	be 01 00 00 00	 mov	 esi, 1
  0003a	66 0f 1f 44 00
	00		 npad	 6
$LL5@FindEob:

; 1491 : 			while(bra) {
; 1492 : 				GetToken();

  00040	8b 07		 mov	 eax, DWORD PTR [edi]
  00042	8b cf		 mov	 ecx, edi
  00044	6a 00		 push	 0
  00046	ff 50 14	 call	 DWORD PTR [eax+20]

; 1493 : 				if(*token=='(') bra++;

  00049	8b 47 3c	 mov	 eax, DWORD PTR [edi+60]

; 1494 : 				if(*token==')') bra--;

  0004c	8d 4e 01	 lea	 ecx, DWORD PTR [esi+1]
  0004f	80 38 28	 cmp	 BYTE PTR [eax], 40	; 00000028H
  00052	0f 45 ce	 cmovne	 ecx, esi
  00055	80 38 29	 cmp	 BYTE PTR [eax], 41	; 00000029H
  00058	8d 71 ff	 lea	 esi, DWORD PTR [ecx-1]
  0005b	0f 45 f1	 cmovne	 esi, ecx
  0005e	85 f6		 test	 esi, esi
  00060	75 de		 jne	 SHORT $LL5@FindEob
  00062	eb a3		 jmp	 SHORT $LL4@FindEob
?FindEob@CScript@@QAEXXZ ENDP				; CScript::FindEob
_TEXT	ENDS
; Function compile flags: /Ogtp
; File C:\IAGOS\server\v18\Source\Source\_Common\script.cpp
;	COMDAT ?Compute@CScript@@QAEXPAH@Z
_TEXT	SEGMENT
_value$ = 8						; size = 4
?Compute@CScript@@QAEXPAH@Z PROC			; CScript::Compute, COMDAT
; _this$ = ecx

; 808  : {

  00000	55		 push	 ebp
  00001	8b ec		 mov	 ebp, esp
  00003	56		 push	 esi
  00004	8b f1		 mov	 esi, ecx

; 809  : 	GetToken();

  00006	6a 00		 push	 0
  00008	8b 06		 mov	 eax, DWORD PTR [esi]
  0000a	ff 50 14	 call	 DWORD PTR [eax+20]

; 810  : 	if(!*token) 

  0000d	8b 46 3c	 mov	 eax, DWORD PTR [esi+60]
  00010	8b ce		 mov	 ecx, esi
  00012	8b 16		 mov	 edx, DWORD PTR [esi]
  00014	80 38 00	 cmp	 BYTE PTR [eax], 0
  00017	75 0c		 jne	 SHORT $LN2@Compute

; 811  : 		SntxErr( NULL, NO_EXP);

  00019	6a 02		 push	 2
  0001b	6a 00		 push	 0
  0001d	ff 52 18	 call	 DWORD PTR [edx+24]
  00020	5e		 pop	 esi

; 816  : 	}
; 817  : }

  00021	5d		 pop	 ebp
  00022	c2 04 00	 ret	 4
$LN2@Compute:

; 812  : 	else
; 813  : 	{
; 814  : 		EvalExp0(value);

  00025	ff 75 08	 push	 DWORD PTR _value$[ebp]
  00028	ff 52 1c	 call	 DWORD PTR [edx+28]

; 815  : 		PutBack(); // return last token read to input stream 

  0002b	8b 06		 mov	 eax, DWORD PTR [esi]
  0002d	8b ce		 mov	 ecx, esi
  0002f	ff 50 10	 call	 DWORD PTR [eax+16]
  00032	5e		 pop	 esi

; 816  : 	}
; 817  : }

  00033	5d		 pop	 ebp
  00034	c2 04 00	 ret	 4
?Compute@CScript@@QAEXPAH@Z ENDP			; CScript::Compute
_TEXT	ENDS
; Function compile flags: /Ogtp
; File C:\IAGOS\server\v18\Source\Source\_Common\script.cpp
;	COMDAT ?InterpBlock@CScript@@QAEHH@Z
_TEXT	SEGMENT
_value$ = -76						; size = 4
_block$1$ = -69						; size = 1
_tpTkn$ = -68						; size = 64
__$ArrayPad$ = -4					; size = 4
_aaa$ = 8						; size = 4
?InterpBlock@CScript@@QAEHH@Z PROC			; CScript::InterpBlock, COMDAT
; _this$ = ecx

; 922  : {

  00000	55		 push	 ebp
  00001	8b ec		 mov	 ebp, esp
  00003	83 ec 4c	 sub	 esp, 76			; 0000004cH
  00006	a1 00 00 00 00	 mov	 eax, DWORD PTR ___security_cookie
  0000b	33 c5		 xor	 eax, ebp
  0000d	89 45 fc	 mov	 DWORD PTR __$ArrayPad$[ebp], eax
  00010	53		 push	 ebx
  00011	56		 push	 esi

; 923  : 	int value,c,brk = 0;
; 924  : 	char block = 0;

  00012	32 db		 xor	 bl, bl
  00014	8b f1		 mov	 esi, ecx

; 925  : 	char tpTkn[64];
; 926  : 	CHAR* p;
; 927  : 
; 928  : 	if(aaa) 

  00016	83 7d 08 00	 cmp	 DWORD PTR _aaa$[ebp], 0
  0001a	57		 push	 edi
  0001b	88 5d bb	 mov	 BYTE PTR _block$1$[ebp], bl
  0001e	74 10		 je	 SHORT $LL4@InterpBloc

; 929  : 	{
; 930  : 		block = 1; blocktos++;

  00020	ff 86 18 1e 00
	00		 inc	 DWORD PTR [esi+7704]
  00026	b3 01		 mov	 bl, 1
  00028	88 5d bb	 mov	 BYTE PTR _block$1$[ebp], bl
  0002b	0f 1f 44 00 00	 npad	 5
$LL4@InterpBloc:

; 931  : 	}
; 932  : 	do {
; 933  : 		tokenType = GetToken();

  00030	8b 06		 mov	 eax, DWORD PTR [esi]
  00032	8b ce		 mov	 ecx, esi
  00034	6a 00		 push	 0
  00036	ff 50 14	 call	 DWORD PTR [eax+20]
  00039	89 86 40 08 00
	00		 mov	 DWORD PTR [esi+2112], eax

; 934  : 
; 935  : 		// if interpreting single statement, return on first semicolon 
; 936  : 		// see what kind of token is up 
; 937  : 		if(tokenType==IDENTIFIER) 

  0003f	83 f8 02	 cmp	 eax, 2
  00042	75 79		 jne	 SHORT $LN14@InterpBloc

; 938  : 		{
; 939  : 			p = m_pProg;	
; 940  : 			strcpy( tpTkn, token );

  00044	8b 4e 3c	 mov	 ecx, DWORD PTR [esi+60]
  00047	8d 55 bc	 lea	 edx, DWORD PTR _tpTkn$[ebp]
  0004a	8b 7e 18	 mov	 edi, DWORD PTR [esi+24]
  0004d	2b d1		 sub	 edx, ecx
  0004f	90		 npad	 1
$LL46@InterpBloc:
  00050	8a 01		 mov	 al, BYTE PTR [ecx]
  00052	8d 49 01	 lea	 ecx, DWORD PTR [ecx+1]
  00055	88 44 0a ff	 mov	 BYTE PTR [edx+ecx-1], al
  00059	84 c0		 test	 al, al
  0005b	75 f3		 jne	 SHORT $LL46@InterpBloc

; 941  : 			GetToken();

  0005d	8b 06		 mov	 eax, DWORD PTR [esi]
  0005f	8b ce		 mov	 ecx, esi
  00061	6a 00		 push	 0
  00063	ff 50 14	 call	 DWORD PTR [eax+20]

; 942  : 			if(*token!=':') 

  00066	8b 4e 3c	 mov	 ecx, DWORD PTR [esi+60]
  00069	80 39 3a	 cmp	 BYTE PTR [ecx], 58	; 0000003aH
  0006c	0f 84 93 01 00
	00		 je	 $LN11@InterpBloc

; 943  : 			{
; 944  : 				strcpy(token,tpTkn);

  00072	8d 55 bc	 lea	 edx, DWORD PTR _tpTkn$[ebp]
$LL47@InterpBloc:
  00075	8a 02		 mov	 al, BYTE PTR [edx]
  00077	8d 52 01	 lea	 edx, DWORD PTR [edx+1]
  0007a	88 01		 mov	 BYTE PTR [ecx], al
  0007c	8d 49 01	 lea	 ecx, DWORD PTR [ecx+1]
  0007f	84 c0		 test	 al, al
  00081	75 f2		 jne	 SHORT $LL47@InterpBloc

; 945  : 				m_pProg = p;
; 946  : 				// not a keyword, so process expression 
; 947  : 				PutBack(); //  restore token to input stream

  00083	8b 06		 mov	 eax, DWORD PTR [esi]
  00085	8b ce		 mov	 ecx, esi
  00087	89 7e 18	 mov	 DWORD PTR [esi+24], edi
  0008a	ff 50 10	 call	 DWORD PTR [eax+16]

; 948  : 						   //  for further processing by Compute() 
; 949  : 				Compute(&value); // process the expression 

  0008d	8d 45 b4	 lea	 eax, DWORD PTR _value$[ebp]
  00090	8b ce		 mov	 ecx, esi
  00092	50		 push	 eax
  00093	e8 00 00 00 00	 call	 ?Compute@CScript@@QAEXPAH@Z ; CScript::Compute

; 950  : 				GetToken();

  00098	8b 06		 mov	 eax, DWORD PTR [esi]
  0009a	8b ce		 mov	 ecx, esi
  0009c	6a 00		 push	 0
  0009e	ff 50 14	 call	 DWORD PTR [eax+20]

; 951  : 				if(*token!=';') SntxErr( NULL, SEMI_EXPECTED);

  000a1	8b 46 3c	 mov	 eax, DWORD PTR [esi+60]
  000a4	80 38 3b	 cmp	 BYTE PTR [eax], 59	; 0000003bH
  000a7	0f 84 58 01 00
	00		 je	 $LN11@InterpBloc
  000ad	8b 06		 mov	 eax, DWORD PTR [esi]
  000af	8b ce		 mov	 ecx, esi
  000b1	6a 06		 push	 6
  000b3	6a 00		 push	 0
  000b5	ff 50 18	 call	 DWORD PTR [eax+24]

; 952  : 			}
; 953  : 		}

  000b8	e9 48 01 00 00	 jmp	 $LN11@InterpBloc
$LN14@InterpBloc:

; 954  : 		else
; 955  : 		if(tokenType==BLOCK) 

  000bd	83 f8 07	 cmp	 eax, 7
  000c0	75 25		 jne	 SHORT $LN18@InterpBloc

; 956  : 		{ // If block delimiter 
; 957  : 			if(*token=='{') 

  000c2	8b 46 3c	 mov	 eax, DWORD PTR [esi+60]
  000c5	8b 8e 18 1e 00
	00		 mov	 ecx, DWORD PTR [esi+7704]
  000cb	80 38 7b	 cmp	 BYTE PTR [eax], 123	; 0000007bH
  000ce	0f 85 8d 01 00
	00		 jne	 $LN20@InterpBloc

; 958  : 			{    // is a block 
; 959  : 				block = 1;         // interpreting block, not statement 

  000d4	b3 01		 mov	 bl, 1

; 960  : 				blocktos++;

  000d6	8d 41 01	 lea	 eax, DWORD PTR [ecx+1]
  000d9	88 5d bb	 mov	 BYTE PTR _block$1$[ebp], bl
  000dc	89 86 18 1e 00
	00		 mov	 DWORD PTR [esi+7704], eax

; 966  : 			}
; 967  : 		}

  000e2	e9 1e 01 00 00	 jmp	 $LN11@InterpBloc
$LN18@InterpBloc:

; 968  : 		else 									 // is keyword 
; 969  : 		switch(tok) 

  000e7	8b 86 44 08 00
	00		 mov	 eax, DWORD PTR [esi+2116]
  000ed	83 c0 fe	 add	 eax, -2			; fffffffeH
  000f0	83 f8 14	 cmp	 eax, 20			; 00000014H
  000f3	0f 87 0c 01 00
	00		 ja	 $LN11@InterpBloc
  000f9	ff 24 85 00 00
	00 00		 jmp	 DWORD PTR $LN92@InterpBloc[eax*4]
$LN22@InterpBloc:

; 970  : 		{
; 971  : 			case VAR: 	 // declare local variables 
; 972  : 				PutBack();

  00100	8b 06		 mov	 eax, DWORD PTR [esi]
  00102	8b ce		 mov	 ecx, esi
  00104	ff 50 10	 call	 DWORD PTR [eax+16]

; 973  : 				DeclLocal();

  00107	8b ce		 mov	 ecx, esi
  00109	e8 00 00 00 00	 call	 ?DeclLocal@CScript@@QAEXXZ ; CScript::DeclLocal

; 974  : 				break;

  0010e	e9 f2 00 00 00	 jmp	 $LN11@InterpBloc
$LN23@InterpBloc:

; 975  : 			case DEFINE:
; 976  : 				ExecDefine();

  00113	8b ce		 mov	 ecx, esi
  00115	e8 00 00 00 00	 call	 ?ExecDefine@CScript@@QAEXXZ ; CScript::ExecDefine

; 977  : 				break;

  0011a	e9 e6 00 00 00	 jmp	 $LN11@InterpBloc
$LN24@InterpBloc:

; 978  : 			case RETURN: // return from function call 
; 979  : 				FuncRet(); 

  0011f	8b ce		 mov	 ecx, esi
  00121	e8 00 00 00 00	 call	 ?FuncRet@CScript@@QAEXXZ ; CScript::FuncRet

; 980  : 				retSign = 1;

  00126	c7 86 14 1e 00
	00 01 00 00 00	 mov	 DWORD PTR [esi+7700], 1

; 981  : 				break;

  00130	e9 d0 00 00 00	 jmp	 $LN11@InterpBloc
$LN25@InterpBloc:

; 982  : 			case IF: // process an if statement  
; 983  : 				ExecIf();

  00135	8b ce		 mov	 ecx, esi
  00137	e8 00 00 00 00	 call	 ?ExecIf@CScript@@QAEXXZ	; CScript::ExecIf

; 984  : 				break;

  0013c	e9 c4 00 00 00	 jmp	 $LN11@InterpBloc
$LN26@InterpBloc:

; 985  : 			case ELSE:   // process an else statement 
; 986  : 				FindEob(); // find end of else block and continue execution 

  00141	8b ce		 mov	 ecx, esi
  00143	e8 00 00 00 00	 call	 ?FindEob@CScript@@QAEXXZ ; CScript::FindEob

; 987  : 				break;

  00148	e9 b8 00 00 00	 jmp	 $LN11@InterpBloc
$LN27@InterpBloc:

; 988  : 			case WHILE:  // process a while loop 
; 989  : 				ExecWhile();

  0014d	8b ce		 mov	 ecx, esi
  0014f	e8 00 00 00 00	 call	 ?ExecWhile@CScript@@QAEXXZ ; CScript::ExecWhile

; 990  : 				break;

  00154	e9 ac 00 00 00	 jmp	 $LN11@InterpBloc
$LN28@InterpBloc:

; 991  : 			case DO:     // process a do-while loop 
; 992  : 				ExecDo();

  00159	8b ce		 mov	 ecx, esi
  0015b	e8 00 00 00 00	 call	 ?ExecDo@CScript@@QAEXXZ	; CScript::ExecDo

; 993  : 				break;

  00160	e9 a0 00 00 00	 jmp	 $LN11@InterpBloc
$LN29@InterpBloc:

; 994  : 			case FOR:
; 995  : 				ExecFor();

  00165	8b ce		 mov	 ecx, esi
  00167	e8 00 00 00 00	 call	 ?ExecFor@CScript@@QAEXXZ ; CScript::ExecFor

; 996  : 				break;

  0016c	e9 94 00 00 00	 jmp	 $LN11@InterpBloc
$LL9@InterpBloc:

; 999  : 				return 2;
; 1000 : 			case DEFAULT:
; 1001 : 			case CASE:
; 1002 : 				do GetToken(); while(*token!=':');

  00171	8b 06		 mov	 eax, DWORD PTR [esi]
  00173	8b ce		 mov	 ecx, esi
  00175	6a 00		 push	 0
  00177	ff 50 14	 call	 DWORD PTR [eax+20]
  0017a	8b 46 3c	 mov	 eax, DWORD PTR [esi+60]
  0017d	80 38 3a	 cmp	 BYTE PTR [eax], 58	; 0000003aH
  00180	75 ef		 jne	 SHORT $LL9@InterpBloc

; 1003 : 				break;

  00182	e9 7e 00 00 00	 jmp	 $LN11@InterpBloc
$LN34@InterpBloc:

; 1004 : 			case SWITCH:
; 1005 : 				ExecSwitch();

  00187	8b ce		 mov	 ecx, esi
  00189	e8 00 00 00 00	 call	 ?ExecSwitch@CScript@@QAEXXZ ; CScript::ExecSwitch

; 1006 : 				break;				

  0018e	eb 75		 jmp	 SHORT $LN11@InterpBloc
$LN35@InterpBloc:

; 1007 : 			case GOTO:
; 1008 : 				GetToken();

  00190	8b 06		 mov	 eax, DWORD PTR [esi]
  00192	8b ce		 mov	 ecx, esi
  00194	6a 00		 push	 0
  00196	ff 50 14	 call	 DWORD PTR [eax+20]

; 1009 : 				for(c = callStack[functos-1].label; c < labeltos; c++)

  00199	8b 86 00 1e 00
	00		 mov	 eax, DWORD PTR [esi+7680]
  0019f	03 c0		 add	 eax, eax
  001a1	8b bc c6 54 1d
	00 00		 mov	 edi, DWORD PTR [esi+eax*8+7508]
  001a8	3b be 0c 1e 00
	00		 cmp	 edi, DWORD PTR [esi+7692]
  001ae	7d 55		 jge	 SHORT $LN11@InterpBloc

; 1010 : 					if(!strcmp(labelTable[c].name,token)) { labelIndex = c; break; }

  001b0	8d 1c fd 17 02
	00 00		 lea	 ebx, DWORD PTR [edi*8+535]
  001b7	03 df		 add	 ebx, edi
  001b9	8d 1c de	 lea	 ebx, DWORD PTR [esi+ebx*8]
  001bc	0f 1f 40 00	 npad	 4
$LL12@InterpBloc:
  001c0	8b 46 3c	 mov	 eax, DWORD PTR [esi+60]
  001c3	8b cb		 mov	 ecx, ebx
$LL93@InterpBloc:
  001c5	8a 11		 mov	 dl, BYTE PTR [ecx]
  001c7	3a 10		 cmp	 dl, BYTE PTR [eax]
  001c9	75 1a		 jne	 SHORT $LN94@InterpBloc
  001cb	84 d2		 test	 dl, dl
  001cd	74 12		 je	 SHORT $LN95@InterpBloc
  001cf	8a 51 01	 mov	 dl, BYTE PTR [ecx+1]
  001d2	3a 50 01	 cmp	 dl, BYTE PTR [eax+1]
  001d5	75 0e		 jne	 SHORT $LN94@InterpBloc
  001d7	83 c1 02	 add	 ecx, 2
  001da	83 c0 02	 add	 eax, 2
  001dd	84 d2		 test	 dl, dl
  001df	75 e4		 jne	 SHORT $LL93@InterpBloc
$LN95@InterpBloc:
  001e1	33 c0		 xor	 eax, eax
  001e3	eb 05		 jmp	 SHORT $LN96@InterpBloc
$LN94@InterpBloc:
  001e5	1b c0		 sbb	 eax, eax
  001e7	83 c8 01	 or	 eax, 1
$LN96@InterpBloc:
  001ea	85 c0		 test	 eax, eax
  001ec	74 0e		 je	 SHORT $LN53@InterpBloc

; 1009 : 				for(c = callStack[functos-1].label; c < labeltos; c++)

  001ee	47		 inc	 edi
  001ef	83 c3 48	 add	 ebx, 72			; 00000048H
  001f2	3b be 0c 1e 00
	00		 cmp	 edi, DWORD PTR [esi+7692]
  001f8	7c c6		 jl	 SHORT $LL12@InterpBloc

; 1028 : 				return 1;
; 1029 : 			if( labelTable[labelIndex].block < blocktos ) 

  001fa	eb 06		 jmp	 SHORT $LN135@InterpBloc
$LN53@InterpBloc:

; 1010 : 					if(!strcmp(labelTable[c].name,token)) { labelIndex = c; break; }

  001fc	89 be 1c 1e 00
	00		 mov	 DWORD PTR [esi+7708], edi
$LN135@InterpBloc:

; 1014 : 		}
; 1015 : 		if( retSign ) 

  00202	8a 5d bb	 mov	 bl, BYTE PTR _block$1$[ebp]
$LN11@InterpBloc:
  00205	83 be 14 1e 00
	00 00		 cmp	 DWORD PTR [esi+7700], 0
  0020c	0f 85 9d 00 00
	00		 jne	 $LN54@InterpBloc

; 1023 : 			return 0;
; 1024 : 		}
; 1025 : 		if( labelIndex!=-1 ) 

  00212	8b 86 1c 1e 00
	00		 mov	 eax, DWORD PTR [esi+7708]
  00218	83 f8 ff	 cmp	 eax, -1
  0021b	74 2a		 je	 SHORT $LN2@InterpBloc

; 1026 : 		{
; 1027 : 			if( !block ) 

  0021d	84 db		 test	 bl, bl
  0021f	74 76		 je	 SHORT $LN55@InterpBloc

; 1028 : 				return 1;
; 1029 : 			if( labelTable[labelIndex].block < blocktos ) 

  00221	8b 8e 18 1e 00
	00		 mov	 ecx, DWORD PTR [esi+7704]
  00227	8d 04 c0	 lea	 eax, DWORD PTR [eax+eax*8]
  0022a	39 8c c6 fc 10
	00 00		 cmp	 DWORD PTR [esi+eax*8+4348], ecx
  00231	7c 5b		 jl	 SHORT $LN56@InterpBloc

; 1032 : 				return 1;
; 1033 : 			}
; 1034 : 			else 
; 1035 : 			{
; 1036 : 				m_pProg = labelTable[labelIndex].loc;

  00233	8b 84 c6 f8 10
	00 00		 mov	 eax, DWORD PTR [esi+eax*8+4344]
  0023a	89 46 18	 mov	 DWORD PTR [esi+24], eax

; 1037 : 				labelIndex = -1;

  0023d	c7 86 1c 1e 00
	00 ff ff ff ff	 mov	 DWORD PTR [esi+7708], -1
$LN2@InterpBloc:

; 1038 : 			}
; 1039 : 		}
; 1040 : 	} while( tok != FINISHED && block );

  00247	83 be 44 08 00
	00 15		 cmp	 DWORD PTR [esi+2116], 21 ; 00000015H
  0024e	0f 84 91 00 00
	00		 je	 $LN136@InterpBloc
  00254	84 db		 test	 bl, bl
  00256	0f 85 d4 fd ff
	ff		 jne	 $LL4@InterpBloc
  0025c	e9 84 00 00 00	 jmp	 $LN136@InterpBloc
$LN20@InterpBloc:

; 961  : 			}
; 962  : 			else 
; 963  : 			{
; 964  : 				blocktos--;

  00261	8d 41 ff	 lea	 eax, DWORD PTR [ecx-1]
  00264	89 86 18 1e 00
	00		 mov	 DWORD PTR [esi+7704], eax

; 965  : 				return 0;          // is a }, so return 

  0026a	eb 79		 jmp	 SHORT $LN136@InterpBloc
$LN30@InterpBloc:

; 997  : 			case BREAK:
; 998  : 				if( block ) blocktos--;

  0026c	84 db		 test	 bl, bl
  0026e	74 06		 je	 SHORT $LN31@InterpBloc
  00270	ff 8e 18 1e 00
	00		 dec	 DWORD PTR [esi+7704]
$LN31@InterpBloc:
  00276	5f		 pop	 edi

; 1041 : 
; 1042 : 	return 0;
; 1043 : }

  00277	5e		 pop	 esi
  00278	b8 02 00 00 00	 mov	 eax, 2
  0027d	5b		 pop	 ebx
  0027e	8b 4d fc	 mov	 ecx, DWORD PTR __$ArrayPad$[ebp]
  00281	33 cd		 xor	 ecx, ebp
  00283	e8 00 00 00 00	 call	 @__security_check_cookie@4
  00288	8b e5		 mov	 esp, ebp
  0028a	5d		 pop	 ebp
  0028b	c2 04 00	 ret	 4
$LN56@InterpBloc:

; 1030 : 			{
; 1031 : 				blocktos--; 

  0028e	8d 41 ff	 lea	 eax, DWORD PTR [ecx-1]
  00291	89 86 18 1e 00
	00		 mov	 DWORD PTR [esi+7704], eax
$LN55@InterpBloc:

; 1041 : 
; 1042 : 	return 0;
; 1043 : }

  00297	5f		 pop	 edi
  00298	5e		 pop	 esi
  00299	b8 01 00 00 00	 mov	 eax, 1
  0029e	5b		 pop	 ebx
  0029f	8b 4d fc	 mov	 ecx, DWORD PTR __$ArrayPad$[ebp]
  002a2	33 cd		 xor	 ecx, ebp
  002a4	e8 00 00 00 00	 call	 @__security_check_cookie@4
  002a9	8b e5		 mov	 esp, ebp
  002ab	5d		 pop	 ebp
  002ac	c2 04 00	 ret	 4
$LN54@InterpBloc:

; 1016 : 		{
; 1017 : 			// retSignŔş şí·°Ŕ¸·Î ¸®Äż˝Ăşę µČ »óĹÂ¸¦ °čĽÓ ¸®ĹĎÇĎ°Ô ÇŘÁŘ´Ů.
; 1018 : 			// ¸®Äż˝Ăşę »óĹÂŔÇ Ľ­şę ÇÔĽöżˇĽ­ returnÇŃ´Ů. ÄÚµĺ 3
; 1019 : 			if( blocktos-- != 1 )	

  002af	8b 8e 18 1e 00
	00		 mov	 ecx, DWORD PTR [esi+7704]
  002b5	8d 41 ff	 lea	 eax, DWORD PTR [ecx-1]
  002b8	89 86 18 1e 00
	00		 mov	 DWORD PTR [esi+7704], eax
  002be	83 f9 01	 cmp	 ecx, 1
  002c1	74 18		 je	 SHORT $LN39@InterpBloc

; 1041 : 
; 1042 : 	return 0;
; 1043 : }

  002c3	5f		 pop	 edi
  002c4	5e		 pop	 esi
  002c5	b8 03 00 00 00	 mov	 eax, 3
  002ca	5b		 pop	 ebx
  002cb	8b 4d fc	 mov	 ecx, DWORD PTR __$ArrayPad$[ebp]
  002ce	33 cd		 xor	 ecx, ebp
  002d0	e8 00 00 00 00	 call	 @__security_check_cookie@4
  002d5	8b e5		 mov	 esp, ebp
  002d7	5d		 pop	 ebp
  002d8	c2 04 00	 ret	 4
$LN39@InterpBloc:

; 1020 : 				return 3;
; 1021 : 			// ¸đµç şí·°ŔÇ Ŕç±Í ČŁĂâŔĚ ¸®ĹĎµÇ¸é retSignŔ» 0Ŕ¸·Î ¸®ĽÂÇŃ´Ů.
; 1022 : 			retSign = 0; 

  002db	c7 86 14 1e 00
	00 00 00 00 00	 mov	 DWORD PTR [esi+7700], 0
$LN136@InterpBloc:

; 1041 : 
; 1042 : 	return 0;
; 1043 : }

  002e5	8b 4d fc	 mov	 ecx, DWORD PTR __$ArrayPad$[ebp]
  002e8	33 c0		 xor	 eax, eax
  002ea	5f		 pop	 edi
  002eb	5e		 pop	 esi
  002ec	33 cd		 xor	 ecx, ebp
  002ee	5b		 pop	 ebx
  002ef	e8 00 00 00 00	 call	 @__security_check_cookie@4
  002f4	8b e5		 mov	 esp, ebp
  002f6	5d		 pop	 ebp
  002f7	c2 04 00	 ret	 4
$LN37@InterpBloc:

; 1011 : 				break;
; 1012 : 			case END:
; 1013 : 				exit(0);

  002fa	6a 00		 push	 0
  002fc	e8 00 00 00 00	 call	 _exit
$LN134@InterpBloc:
  00301	0f 1f 00	 npad	 3
$LN92@InterpBloc:

; 1041 : 
; 1042 : 	return 0;
; 1043 : }

  00304	00 00 00 00	 DD	 $LN22@InterpBloc
  00308	00 00 00 00	 DD	 $LN25@InterpBloc
  0030c	00 00 00 00	 DD	 $LN26@InterpBloc
  00310	00 00 00 00	 DD	 $LN29@InterpBloc
  00314	00 00 00 00	 DD	 $LN28@InterpBloc
  00318	00 00 00 00	 DD	 $LN27@InterpBloc
  0031c	00 00 00 00	 DD	 $LN30@InterpBloc
  00320	00 00 00 00	 DD	 $LN34@InterpBloc
  00324	00 00 00 00	 DD	 $LN11@InterpBloc
  00328	00 00 00 00	 DD	 $LN11@InterpBloc
  0032c	00 00 00 00	 DD	 $LN11@InterpBloc
  00330	00 00 00 00	 DD	 $LL9@InterpBloc
  00334	00 00 00 00	 DD	 $LL9@InterpBloc
  00338	00 00 00 00	 DD	 $LN35@InterpBloc
  0033c	00 00 00 00	 DD	 $LN24@InterpBloc
  00340	00 00 00 00	 DD	 $LN11@InterpBloc
  00344	00 00 00 00	 DD	 $LN23@InterpBloc
  00348	00 00 00 00	 DD	 $LN11@InterpBloc
  0034c	00 00 00 00	 DD	 $LN11@InterpBloc
  00350	00 00 00 00	 DD	 $LN11@InterpBloc
  00354	00 00 00 00	 DD	 $LN37@InterpBloc
?InterpBlock@CScript@@QAEHH@Z ENDP			; CScript::InterpBlock
_TEXT	ENDS
; Function compile flags: /Ogtp
; File C:\IAGOS\server\v18\Source\Source\_Common\script.cpp
;	COMDAT ?Run@CScript@@QAEHXZ
_TEXT	SEGMENT
?Run@CScript@@QAEHXZ PROC				; CScript::Run, COMDAT
; _this$ = ecx

; 767  : {

  00000	56		 push	 esi
  00001	8b f1		 mov	 esi, ecx

; 768  : 	m_dwDef = 2;
; 769  : 	m_pProg        = m_pBuf;

  00003	8b 46 1c	 mov	 eax, DWORD PTR [esi+28]
  00006	c7 46 10 02 00
	00 00		 mov	 DWORD PTR [esi+16], 2
  0000d	89 46 18	 mov	 DWORD PTR [esi+24], eax

; 770  : 	m_pOldProg     = 0;

  00010	c7 86 60 08 00
	00 00 00 00 00	 mov	 DWORD PTR [esi+2144], 0

; 771  : 	functos     = 0; 

  0001a	c7 86 00 1e 00
	00 00 00 00 00	 mov	 DWORD PTR [esi+7680], 0

; 772  : 	funcIndex   = 0; 

  00024	c7 86 38 0b 00
	00 00 00 00 00	 mov	 DWORD PTR [esi+2872], 0

; 773  : 	gVarIndex   = 0; 

  0002e	c7 86 64 08 00
	00 00 00 00 00	 mov	 DWORD PTR [esi+2148], 0

; 774  : 	lvartos     = 0; 

  00038	c7 86 08 1e 00
	00 00 00 00 00	 mov	 DWORD PTR [esi+7688], 0

; 775  : 	labeltos    = 0; 

  00042	c7 86 0c 1e 00
	00 00 00 00 00	 mov	 DWORD PTR [esi+7692], 0

; 776  : 	retValue    = 0; 

  0004c	c7 86 10 1e 00
	00 00 00 00 00	 mov	 DWORD PTR [esi+7696], 0

; 777  : 	blocktos    = 0; 

  00056	c7 86 18 1e 00
	00 00 00 00 00	 mov	 DWORD PTR [esi+7704], 0

; 778  : 	answerCnt   = 0;

  00060	c7 86 04 1e 00
	00 00 00 00 00	 mov	 DWORD PTR [esi+7684], 0

; 779  : 	labelIndex  =-1;

  0006a	c7 86 1c 1e 00
	00 ff ff ff ff	 mov	 DWORD PTR [esi+7708], -1

; 780  : 	retSign	    = 0;

  00074	c7 86 14 1e 00
	00 00 00 00 00	 mov	 DWORD PTR [esi+7700], 0

; 781  : 	PreScan();

  0007e	e8 00 00 00 00	 call	 ?PreScan@CScript@@QAEXXZ ; CScript::PreScan

; 782  : 	m_pProg = FindFunc("main");

  00083	68 00 00 00 00	 push	 OFFSET ??_C@_04GHJNJNPO@main@
  00088	8b ce		 mov	 ecx, esi
  0008a	e8 00 00 00 00	 call	 ?FindFunc@CScript@@QAEPADPAD@Z ; CScript::FindFunc

; 783  : 	m_pProg--;
; 784  : 	strcpy(token,"main");

  0008f	8b 4e 3c	 mov	 ecx, DWORD PTR [esi+60]
  00092	48		 dec	 eax
  00093	89 46 18	 mov	 DWORD PTR [esi+24], eax
  00096	a1 00 00 00 00	 mov	 eax, DWORD PTR ??_C@_04GHJNJNPO@main@
  0009b	89 01		 mov	 DWORD PTR [ecx], eax
  0009d	a0 04 00 00 00	 mov	 al, BYTE PTR ??_C@_04GHJNJNPO@main@+4
  000a2	88 41 04	 mov	 BYTE PTR [ecx+4], al

; 785  : 	Call();	

  000a5	8b ce		 mov	 ecx, esi
  000a7	e8 00 00 00 00	 call	 ?Call@CScript@@QAEXXZ	; CScript::Call

; 786  : 
; 787  : 	
; 788  : 	m_anInternalVal[0] = retValue; 

  000ac	8b 86 10 1e 00
	00		 mov	 eax, DWORD PTR [esi+7696]
  000b2	89 86 28 1e 00
	00		 mov	 DWORD PTR [esi+7720], eax

; 789  : 	return TRUE;

  000b8	b8 01 00 00 00	 mov	 eax, 1
  000bd	5e		 pop	 esi

; 790  : }

  000be	c3		 ret	 0
?Run@CScript@@QAEHXZ ENDP				; CScript::Run
_TEXT	ENDS
; Function compile flags: /Ogtp
; File C:\IAGOS\server\v18\Source\Source\_Common\script.cpp
;	COMDAT ?atom@CScript@@UAEXPAH@Z
_TEXT	SEGMENT
_value$ = 8						; size = 4
?atom@CScript@@UAEXPAH@Z PROC				; CScript::atom, COMDAT
; _this$ = ecx

; 872  : {

  00000	55		 push	 ebp
  00001	8b ec		 mov	 ebp, esp
  00003	56		 push	 esi
  00004	8b f1		 mov	 esi, ecx
  00006	57		 push	 edi

; 873  : 	int i;
; 874  : 	switch(tokenType) 

  00007	8b 86 40 08 00
	00		 mov	 eax, DWORD PTR [esi+2112]
  0000d	8b 4e 3c	 mov	 ecx, DWORD PTR [esi+60]
  00010	83 e8 01	 sub	 eax, 1
  00013	0f 84 bf 00 00
	00		 je	 $LN10@atom
  00019	83 e8 01	 sub	 eax, 1
  0001c	74 3c		 je	 SHORT $LN4@atom
  0001e	83 e8 01	 sub	 eax, 1
  00021	74 1a		 je	 SHORT $LN9@atom

; 904  : 				m_pProg = pProg;
; 905  : 
; 906  : 				GetToken();
; 907  : 			}
; 908  : 			return;
; 909  : 		default:
; 910  : 			if(*token!=')')    // Process empty expression 

  00023	80 39 29	 cmp	 BYTE PTR [ecx], 41	; 00000029H
  00026	0f 84 dc 00 00
	00		 je	 $LN11@atom

; 911  : 				SntxErr( NULL, SYNTAX); // syntax error 

  0002c	8b 06		 mov	 eax, DWORD PTR [esi]
  0002e	8b ce		 mov	 ecx, esi
  00030	6a 00		 push	 0
  00032	6a 00		 push	 0
  00034	ff 50 18	 call	 DWORD PTR [eax+24]
  00037	5f		 pop	 edi

; 912  : 	}
; 913  : }

  00038	5e		 pop	 esi
  00039	5d		 pop	 ebp
  0003a	c2 04 00	 ret	 4
$LN9@atom:

; 891  : 			return;
; 892  : 		case NUMBER: // is numeric constant 
; 893  : 			*value = atoi(token);

  0003d	51		 push	 ecx
  0003e	e8 00 00 00 00	 call	 _atoi
  00043	8b 4d 08	 mov	 ecx, DWORD PTR _value$[ebp]
  00046	83 c4 04	 add	 esp, 4
  00049	89 01		 mov	 DWORD PTR [ecx], eax

; 912  : 	}
; 913  : }

  0004b	8b ce		 mov	 ecx, esi
  0004d	8b 06		 mov	 eax, DWORD PTR [esi]
  0004f	6a 00		 push	 0
  00051	ff 50 14	 call	 DWORD PTR [eax+20]
  00054	5f		 pop	 edi
  00055	5e		 pop	 esi
  00056	5d		 pop	 ebp
  00057	c2 04 00	 ret	 4
$LN4@atom:

; 875  : 	{
; 876  : 		case IDENTIFIER:
; 877  : 			i = InternalFunc(token);

  0005a	51		 push	 ecx
  0005b	8b ce		 mov	 ecx, esi
  0005d	e8 00 00 00 00	 call	 ?InternalFunc@CScript@@QAEHPAD@Z ; CScript::InternalFunc

; 878  : 			if(i!=-1) 

  00062	83 f8 ff	 cmp	 eax, -1
  00065	74 27		 je	 SHORT $LN5@atom

; 879  : 			{ // Call "standard libray" function 
; 880  : 				retValue = (*interFunc[i].p)(this);

  00067	8b 04 c5 04 00
	00 00		 mov	 eax, DWORD PTR ?interFunc@@3PAUInterFuncType@@A[eax*8+4]
  0006e	56		 push	 esi
  0006f	ff d0		 call	 eax

; 890  : 			GetToken();

  00071	8b 4d 08	 mov	 ecx, DWORD PTR _value$[ebp]
  00074	83 c4 04	 add	 esp, 4
  00077	89 86 10 1e 00
	00		 mov	 DWORD PTR [esi+7696], eax
  0007d	89 01		 mov	 DWORD PTR [ecx], eax

; 912  : 	}
; 913  : }

  0007f	8b ce		 mov	 ecx, esi
  00081	8b 06		 mov	 eax, DWORD PTR [esi]
  00083	6a 00		 push	 0
  00085	ff 50 14	 call	 DWORD PTR [eax+20]
  00088	5f		 pop	 edi
  00089	5e		 pop	 esi
  0008a	5d		 pop	 ebp
  0008b	c2 04 00	 ret	 4
$LN5@atom:

; 881  : 				*value = retValue;
; 882  : 			}
; 883  : 			else
; 884  : 			if(FindFunc(token)) 

  0008e	8b 7e 3c	 mov	 edi, DWORD PTR [esi+60]
  00091	8b ce		 mov	 ecx, esi
  00093	57		 push	 edi
  00094	e8 00 00 00 00	 call	 ?FindFunc@CScript@@QAEPADPAD@Z ; CScript::FindFunc
  00099	8b ce		 mov	 ecx, esi
  0009b	85 c0		 test	 eax, eax
  0009d	74 1f		 je	 SHORT $LN7@atom

; 885  : 			{ // Call user-defined function 
; 886  : 				Call();

  0009f	e8 00 00 00 00	 call	 ?Call@CScript@@QAEXXZ	; CScript::Call

; 890  : 			GetToken();

  000a4	8b 4d 08	 mov	 ecx, DWORD PTR _value$[ebp]
  000a7	8b 86 10 1e 00
	00		 mov	 eax, DWORD PTR [esi+7696]

; 912  : 	}
; 913  : }

  000ad	6a 00		 push	 0
  000af	89 01		 mov	 DWORD PTR [ecx], eax
  000b1	8b ce		 mov	 ecx, esi
  000b3	8b 06		 mov	 eax, DWORD PTR [esi]
  000b5	ff 50 14	 call	 DWORD PTR [eax+20]
  000b8	5f		 pop	 edi
  000b9	5e		 pop	 esi
  000ba	5d		 pop	 ebp
  000bb	c2 04 00	 ret	 4
$LN7@atom:

; 887  : 				*value = retValue;
; 888  : 			}
; 889  : 			else *value = FindVar(token); // fet var's value 

  000be	57		 push	 edi
  000bf	e8 00 00 00 00	 call	 ?FindVar@CScript@@QAEHPAD@Z ; CScript::FindVar

; 890  : 			GetToken();

  000c4	8b 4d 08	 mov	 ecx, DWORD PTR _value$[ebp]

; 912  : 	}
; 913  : }

  000c7	6a 00		 push	 0
  000c9	89 01		 mov	 DWORD PTR [ecx], eax
  000cb	8b ce		 mov	 ecx, esi
  000cd	8b 06		 mov	 eax, DWORD PTR [esi]
  000cf	ff 50 14	 call	 DWORD PTR [eax+20]
  000d2	5f		 pop	 edi
  000d3	5e		 pop	 esi
  000d4	5d		 pop	 ebp
  000d5	c2 04 00	 ret	 4
$LN10@atom:

; 894  : 			GetToken();
; 895  : 			return;
; 896  : 		case DELIMITER: // see if cahracter constant 
; 897  : 			if(*token=='\'') 

  000d8	80 39 27	 cmp	 BYTE PTR [ecx], 39	; 00000027H
  000db	75 2b		 jne	 SHORT $LN11@atom

; 898  : 			{
; 899  : 				CHAR* pProg = (CHAR*)m_pProg;

  000dd	8b 7e 18	 mov	 edi, DWORD PTR [esi+24]

; 900  : 				*value = *pProg;

  000e0	8b 45 08	 mov	 eax, DWORD PTR _value$[ebp]
  000e3	0f be 0f	 movsx	 ecx, BYTE PTR [edi]
  000e6	89 08		 mov	 DWORD PTR [eax], ecx

; 901  : 				pProg++;
; 902  : 				if(*pProg!='\'') SntxErr( NULL, QUOTE_EXPECTED);

  000e8	80 7f 01 27	 cmp	 BYTE PTR [edi+1], 39	; 00000027H
  000ec	74 0b		 je	 SHORT $LN12@atom
  000ee	8b 06		 mov	 eax, DWORD PTR [esi]
  000f0	8b ce		 mov	 ecx, esi
  000f2	6a 0e		 push	 14			; 0000000eH
  000f4	6a 00		 push	 0
  000f6	ff 50 18	 call	 DWORD PTR [eax+24]
$LN12@atom:

; 903  : 				pProg++;

  000f9	8d 47 02	 lea	 eax, DWORD PTR [edi+2]

; 912  : 	}
; 913  : }

  000fc	8b ce		 mov	 ecx, esi
  000fe	89 46 18	 mov	 DWORD PTR [esi+24], eax
  00101	8b 06		 mov	 eax, DWORD PTR [esi]
  00103	6a 00		 push	 0
  00105	ff 50 14	 call	 DWORD PTR [eax+20]
$LN11@atom:
  00108	5f		 pop	 edi
  00109	5e		 pop	 esi
  0010a	5d		 pop	 ebp
  0010b	c2 04 00	 ret	 4
?atom@CScript@@UAEXPAH@Z ENDP				; CScript::atom
_TEXT	ENDS
; Function compile flags: /Ogtp
; File C:\IAGOS\server\v18\Source\Source\_Common\script.cpp
;	COMDAT ?EvalExp0@CScript@@UAEXPAH@Z
_TEXT	SEGMENT
_op$1$ = -37						; size = 1
_temp$ = -36						; size = 31
__$ArrayPad$ = -4					; size = 4
_value$ = 8						; size = 4
?EvalExp0@CScript@@UAEXPAH@Z PROC			; CScript::EvalExp0, COMDAT
; _this$ = ecx

; 820  : {

  00000	55		 push	 ebp
  00001	8b ec		 mov	 ebp, esp
  00003	83 ec 28	 sub	 esp, 40			; 00000028H
  00006	a1 00 00 00 00	 mov	 eax, DWORD PTR ___security_cookie
  0000b	33 c5		 xor	 eax, ebp
  0000d	89 45 fc	 mov	 DWORD PTR __$ArrayPad$[ebp], eax
  00010	53		 push	 ebx
  00011	8b 5d 08	 mov	 ebx, DWORD PTR _value$[ebp]
  00014	56		 push	 esi
  00015	57		 push	 edi
  00016	8b f9		 mov	 edi, ecx

; 821  : 	char temp[ID_LEN]; // holds name of val receiving the assignment 
; 822  : 	int temp_tok;
; 823  : 
; 824  : 	if(tokenType == IDENTIFIER) 

  00018	83 bf 40 08 00
	00 02		 cmp	 DWORD PTR [edi+2112], 2
  0001f	0f 85 36 01 00
	00		 jne	 $LN17@EvalExp0

; 825  : 	{
; 826  : 		if(IsVar(token)) 

  00025	8b 77 3c	 mov	 esi, DWORD PTR [edi+60]
  00028	56		 push	 esi
  00029	e8 00 00 00 00	 call	 ?IsVar@CScript@@QAEHPAD@Z ; CScript::IsVar
  0002e	85 c0		 test	 eax, eax
  00030	0f 84 25 01 00
	00		 je	 $LN17@EvalExp0

; 827  : 		{ // if a var, see if assignment 
; 828  : 			strcpy(temp,token);

  00036	8d 4d dc	 lea	 ecx, DWORD PTR _temp$[ebp]
  00039	2b ce		 sub	 ecx, esi
  0003b	0f 1f 44 00 00	 npad	 5
$LL19@EvalExp0:
  00040	8a 06		 mov	 al, BYTE PTR [esi]
  00042	8d 76 01	 lea	 esi, DWORD PTR [esi+1]
  00045	88 44 31 ff	 mov	 BYTE PTR [ecx+esi-1], al
  00049	84 c0		 test	 al, al
  0004b	75 f3		 jne	 SHORT $LL19@EvalExp0

; 829  : 			temp_tok = tokenType;
; 830  : 			GetToken();

  0004d	8b 07		 mov	 eax, DWORD PTR [edi]
  0004f	8b cf		 mov	 ecx, edi
  00051	6a 00		 push	 0
  00053	ff 50 14	 call	 DWORD PTR [eax+20]

; 831  : 			char op;
; 832  : 			op =  *token;

  00056	8b 57 3c	 mov	 edx, DWORD PTR [edi+60]
  00059	8a 0a		 mov	 cl, BYTE PTR [edx]
  0005b	88 4d db	 mov	 BYTE PTR _op$1$[ebp], cl

; 833  : 			if( ( op=='+' ||op=='-' || op=='|' || op=='&' ) && *m_pProg == '=' ) 

  0005e	80 f9 2b	 cmp	 cl, 43			; 0000002bH
  00061	74 13		 je	 SHORT $LN8@EvalExp0
  00063	80 f9 2d	 cmp	 cl, 45			; 0000002dH
  00066	74 0e		 je	 SHORT $LN8@EvalExp0
  00068	80 f9 7c	 cmp	 cl, 124			; 0000007cH
  0006b	74 09		 je	 SHORT $LN8@EvalExp0
  0006d	80 f9 26	 cmp	 cl, 38			; 00000026H
  00070	0f 85 85 00 00
	00		 jne	 $LN6@EvalExp0
$LN8@EvalExp0:
  00076	8b 47 18	 mov	 eax, DWORD PTR [edi+24]
  00079	80 38 3d	 cmp	 BYTE PTR [eax], 61	; 0000003dH
  0007c	75 7d		 jne	 SHORT $LN6@EvalExp0

; 834  : 			{
; 835  : 				GetToken();

  0007e	8b 07		 mov	 eax, DWORD PTR [edi]
  00080	8b cf		 mov	 ecx, edi
  00082	6a 00		 push	 0
  00084	ff 50 14	 call	 DWORD PTR [eax+20]

; 836  : 				GetToken();

  00087	8b 07		 mov	 eax, DWORD PTR [edi]
  00089	8b cf		 mov	 ecx, edi
  0008b	6a 00		 push	 0
  0008d	ff 50 14	 call	 DWORD PTR [eax+20]

; 837  : 				EvalExp0(value); // get value to assign 

  00090	8b 07		 mov	 eax, DWORD PTR [edi]
  00092	8b cf		 mov	 ecx, edi
  00094	53		 push	 ebx
  00095	ff 50 1c	 call	 DWORD PTR [eax+28]

; 838  : 				int *pnValue = GetVarPtr( temp );

  00098	8d 45 dc	 lea	 eax, DWORD PTR _temp$[ebp]
  0009b	8b cf		 mov	 ecx, edi
  0009d	50		 push	 eax
  0009e	e8 00 00 00 00	 call	 ?GetVarPtr@CScript@@QAEPAHPAD@Z ; CScript::GetVarPtr
  000a3	8b f0		 mov	 esi, eax

; 839  : 				if( pnValue )

  000a5	85 f6		 test	 esi, esi
  000a7	0f 84 ae 00 00
	00		 je	 $LN17@EvalExp0

; 840  : 				{
; 841  : 					switch( op )

  000ad	0f be 4d db	 movsx	 ecx, BYTE PTR _op$1$[ebp]
  000b1	83 c1 da	 add	 ecx, -38		; ffffffdaH
  000b4	83 f9 56	 cmp	 ecx, 86			; 00000056H
  000b7	0f 87 9e 00 00
	00		 ja	 $LN17@EvalExp0
  000bd	0f b6 89 00 00
	00 00		 movzx	 ecx, BYTE PTR $LN27@EvalExp0[ecx]
  000c4	ff 24 8d 00 00
	00 00		 jmp	 DWORD PTR $LN28@EvalExp0[ecx*4]
$LN10@EvalExp0:

; 842  : 					{
; 843  : 					case '+': *pnValue += *value; break; // += Ăł¸® 

  000cb	8b 03		 mov	 eax, DWORD PTR [ebx]
  000cd	01 06		 add	 DWORD PTR [esi], eax
  000cf	e9 87 00 00 00	 jmp	 $LN17@EvalExp0
$LN11@EvalExp0:

; 844  : 					case '-': *pnValue -= *value; break; // -= Ăł¸® 

  000d4	8b 03		 mov	 eax, DWORD PTR [ebx]
  000d6	29 06		 sub	 DWORD PTR [esi], eax
  000d8	e9 7e 00 00 00	 jmp	 $LN17@EvalExp0
$LN12@EvalExp0:

; 845  : 					case '*': *pnValue *= *value; break; // *= Ăł¸® 

  000dd	8b 06		 mov	 eax, DWORD PTR [esi]
  000df	0f af 03	 imul	 eax, DWORD PTR [ebx]
  000e2	89 06		 mov	 DWORD PTR [esi], eax
  000e4	eb 75		 jmp	 SHORT $LN17@EvalExp0
$LN13@EvalExp0:

; 846  : 					case '/': *pnValue /= *value; break; // /= Ăł¸® 

  000e6	8b 06		 mov	 eax, DWORD PTR [esi]
  000e8	99		 cdq
  000e9	f7 3b		 idiv	 DWORD PTR [ebx]
  000eb	89 06		 mov	 DWORD PTR [esi], eax
  000ed	eb 6c		 jmp	 SHORT $LN17@EvalExp0
$LN14@EvalExp0:

; 847  : 					case '|': *pnValue |= *value; break; // |= Ăł¸® 

  000ef	8b 03		 mov	 eax, DWORD PTR [ebx]
  000f1	09 06		 or	 DWORD PTR [esi], eax
  000f3	eb 66		 jmp	 SHORT $LN17@EvalExp0
$LN15@EvalExp0:

; 848  : 					case '&': *pnValue &= *value; break; // &= Ăł¸® 

  000f5	8b 03		 mov	 eax, DWORD PTR [ebx]
  000f7	21 06		 and	 DWORD PTR [esi], eax

; 849  : 					}
; 850  : 				}
; 851  : 			}

  000f9	eb 60		 jmp	 SHORT $LN17@EvalExp0
$LN6@EvalExp0:

; 852  : 			else
; 853  : 			if(*token=='=' && *(token+1)!='=') 

  000fb	80 f9 3d	 cmp	 cl, 61			; 0000003dH
  000fe	75 36		 jne	 SHORT $LN16@EvalExp0
  00100	38 4a 01	 cmp	 BYTE PTR [edx+1], cl
  00103	74 31		 je	 SHORT $LN16@EvalExp0

; 854  : 			{ // is an assignment 
; 855  : 				GetToken();

  00105	8b 07		 mov	 eax, DWORD PTR [edi]
  00107	8b cf		 mov	 ecx, edi
  00109	6a 00		 push	 0
  0010b	ff 50 14	 call	 DWORD PTR [eax+20]

; 856  : 				EvalExp0(value); // get value to assign 

  0010e	8b 07		 mov	 eax, DWORD PTR [edi]
  00110	8b cf		 mov	 ecx, edi
  00112	53		 push	 ebx
  00113	ff 50 1c	 call	 DWORD PTR [eax+28]

; 857  : 				AssignVar(temp,*value); // assign the value 

  00116	ff 33		 push	 DWORD PTR [ebx]
  00118	8d 45 dc	 lea	 eax, DWORD PTR _temp$[ebp]
  0011b	8b cf		 mov	 ecx, edi
  0011d	50		 push	 eax
  0011e	e8 00 00 00 00	 call	 ?AssignVar@CScript@@QAEXPADH@Z ; CScript::AssignVar
  00123	5f		 pop	 edi

; 869  : }

  00124	5e		 pop	 esi
  00125	5b		 pop	 ebx
  00126	8b 4d fc	 mov	 ecx, DWORD PTR __$ArrayPad$[ebp]
  00129	33 cd		 xor	 ecx, ebp
  0012b	e8 00 00 00 00	 call	 @__security_check_cookie@4
  00130	8b e5		 mov	 esp, ebp
  00132	5d		 pop	 ebp
  00133	c2 04 00	 ret	 4
$LN16@EvalExp0:

; 858  : 				return;
; 859  : 			}
; 860  : 			else 
; 861  : 			{ // not an assignment 
; 862  : 				PutBack(); // restore original token 

  00136	8b 07		 mov	 eax, DWORD PTR [edi]
  00138	8b cf		 mov	 ecx, edi
  0013a	ff 50 10	 call	 DWORD PTR [eax+16]

; 863  : 				strcpy(token,temp);

  0013d	8b 57 3c	 mov	 edx, DWORD PTR [edi+60]
  00140	8d 4d dc	 lea	 ecx, DWORD PTR _temp$[ebp]
$LL20@EvalExp0:
  00143	8a 01		 mov	 al, BYTE PTR [ecx]
  00145	8d 49 01	 lea	 ecx, DWORD PTR [ecx+1]
  00148	88 02		 mov	 BYTE PTR [edx], al
  0014a	8d 52 01	 lea	 edx, DWORD PTR [edx+1]
  0014d	84 c0		 test	 al, al
  0014f	75 f2		 jne	 SHORT $LL20@EvalExp0

; 864  : 				tokenType = temp_tok;

  00151	c7 87 40 08 00
	00 02 00 00 00	 mov	 DWORD PTR [edi+2112], 2
$LN17@EvalExp0:

; 865  : 			}
; 866  : 		}
; 867  : 	}
; 868  : 	EvalExp1(value);

  0015b	53		 push	 ebx
  0015c	8b cf		 mov	 ecx, edi
  0015e	e8 00 00 00 00	 call	 ?EvalExp1@CParser@@IAEXPAH@Z ; CParser::EvalExp1

; 869  : }

  00163	8b 4d fc	 mov	 ecx, DWORD PTR __$ArrayPad$[ebp]
  00166	5f		 pop	 edi
  00167	5e		 pop	 esi
  00168	33 cd		 xor	 ecx, ebp
  0016a	5b		 pop	 ebx
  0016b	e8 00 00 00 00	 call	 @__security_check_cookie@4
  00170	8b e5		 mov	 esp, ebp
  00172	5d		 pop	 ebp
  00173	c2 04 00	 ret	 4
  00176	66 90		 npad	 2
$LN28@EvalExp0:
  00178	00 00 00 00	 DD	 $LN15@EvalExp0
  0017c	00 00 00 00	 DD	 $LN12@EvalExp0
  00180	00 00 00 00	 DD	 $LN10@EvalExp0
  00184	00 00 00 00	 DD	 $LN11@EvalExp0
  00188	00 00 00 00	 DD	 $LN13@EvalExp0
  0018c	00 00 00 00	 DD	 $LN14@EvalExp0
  00190	00 00 00 00	 DD	 $LN17@EvalExp0
$LN27@EvalExp0:
  00194	00		 DB	 0
  00195	06		 DB	 6
  00196	06		 DB	 6
  00197	06		 DB	 6
  00198	01		 DB	 1
  00199	02		 DB	 2
  0019a	06		 DB	 6
  0019b	03		 DB	 3
  0019c	06		 DB	 6
  0019d	04		 DB	 4
  0019e	06		 DB	 6
  0019f	06		 DB	 6
  001a0	06		 DB	 6
  001a1	06		 DB	 6
  001a2	06		 DB	 6
  001a3	06		 DB	 6
  001a4	06		 DB	 6
  001a5	06		 DB	 6
  001a6	06		 DB	 6
  001a7	06		 DB	 6
  001a8	06		 DB	 6
  001a9	06		 DB	 6
  001aa	06		 DB	 6
  001ab	06		 DB	 6
  001ac	06		 DB	 6
  001ad	06		 DB	 6
  001ae	06		 DB	 6
  001af	06		 DB	 6
  001b0	06		 DB	 6
  001b1	06		 DB	 6
  001b2	06		 DB	 6
  001b3	06		 DB	 6
  001b4	06		 DB	 6
  001b5	06		 DB	 6
  001b6	06		 DB	 6
  001b7	06		 DB	 6
  001b8	06		 DB	 6
  001b9	06		 DB	 6
  001ba	06		 DB	 6
  001bb	06		 DB	 6
  001bc	06		 DB	 6
  001bd	06		 DB	 6
  001be	06		 DB	 6
  001bf	06		 DB	 6
  001c0	06		 DB	 6
  001c1	06		 DB	 6
  001c2	06		 DB	 6
  001c3	06		 DB	 6
  001c4	06		 DB	 6
  001c5	06		 DB	 6
  001c6	06		 DB	 6
  001c7	06		 DB	 6
  001c8	06		 DB	 6
  001c9	06		 DB	 6
  001ca	06		 DB	 6
  001cb	06		 DB	 6
  001cc	06		 DB	 6
  001cd	06		 DB	 6
  001ce	06		 DB	 6
  001cf	06		 DB	 6
  001d0	06		 DB	 6
  001d1	06		 DB	 6
  001d2	06		 DB	 6
  001d3	06		 DB	 6
  001d4	06		 DB	 6
  001d5	06		 DB	 6
  001d6	06		 DB	 6
  001d7	06		 DB	 6
  001d8	06		 DB	 6
  001d9	06		 DB	 6
  001da	06		 DB	 6
  001db	06		 DB	 6
  001dc	06		 DB	 6
  001dd	06		 DB	 6
  001de	06		 DB	 6
  001df	06		 DB	 6
  001e0	06		 DB	 6
  001e1	06		 DB	 6
  001e2	06		 DB	 6
  001e3	06		 DB	 6
  001e4	06		 DB	 6
  001e5	06		 DB	 6
  001e6	06		 DB	 6
  001e7	06		 DB	 6
  001e8	06		 DB	 6
  001e9	06		 DB	 6
  001ea	05		 DB	 5
?EvalExp0@CScript@@UAEXPAH@Z ENDP			; CScript::EvalExp0
_TEXT	ENDS
; Function compile flags: /Ogtp
; File C:\IAGOS\server\v18\Source\Source\_Common\script.cpp
;	COMDAT ?ExecSwitch@CScript@@QAEXXZ
_TEXT	SEGMENT
_begin$1$ = -12						; size = 4
_cond$ = -8						; size = 4
_cond2$ = -4						; size = 4
?ExecSwitch@CScript@@QAEXXZ PROC			; CScript::ExecSwitch, COMDAT
; _this$ = ecx

; 1437 : {

  00000	55		 push	 ebp
  00001	8b ec		 mov	 ebp, esp
  00003	83 ec 0c	 sub	 esp, 12			; 0000000cH
  00006	53		 push	 ebx
  00007	56		 push	 esi
  00008	8b f1		 mov	 esi, ecx

; 1438 : 	int cond,cond2,block = 0;

  0000a	33 db		 xor	 ebx, ebx
  0000c	57		 push	 edi

; 1439 : 	char *def   = 0;

  0000d	33 ff		 xor	 edi, edi

; 1440 : 	char *begin = m_pProg;

  0000f	8b 46 18	 mov	 eax, DWORD PTR [esi+24]
  00012	89 45 f4	 mov	 DWORD PTR _begin$1$[ebp], eax

; 1441 : 
; 1442 : 	Compute(&cond);

  00015	8d 45 f8	 lea	 eax, DWORD PTR _cond$[ebp]
  00018	50		 push	 eax
  00019	e8 00 00 00 00	 call	 ?Compute@CScript@@QAEXPAH@Z ; CScript::Compute
  0001e	66 90		 npad	 2
$LL4@ExecSwitch:

; 1443 : 
; 1444 : 	for(;;) {
; 1445 : 		GetToken();

  00020	8b 06		 mov	 eax, DWORD PTR [esi]
  00022	8b ce		 mov	 ecx, esi
  00024	6a 00		 push	 0
  00026	ff 50 14	 call	 DWORD PTR [eax+20]

; 1446 : 		if(*token=='{') {

  00029	8b 46 3c	 mov	 eax, DWORD PTR [esi+60]
  0002c	8a 00		 mov	 al, BYTE PTR [eax]
  0002e	3c 7b		 cmp	 al, 123			; 0000007bH
  00030	75 1b		 jne	 SHORT $LN5@ExecSwitch

; 1447 : 			if(block) {

  00032	85 db		 test	 ebx, ebx
  00034	74 10		 je	 SHORT $LN7@ExecSwitch

; 1448 : 				PutBack();

  00036	8b 06		 mov	 eax, DWORD PTR [esi]
  00038	8b ce		 mov	 ecx, esi
  0003a	ff 50 10	 call	 DWORD PTR [eax+16]

; 1449 : 				FindEob();

  0003d	8b ce		 mov	 ecx, esi
  0003f	e8 00 00 00 00	 call	 ?FindEob@CScript@@QAEXXZ ; CScript::FindEob

; 1450 : 			}

  00044	eb da		 jmp	 SHORT $LL4@ExecSwitch
$LN7@ExecSwitch:

; 1451 : 			else block = 1;

  00046	bb 01 00 00 00	 mov	 ebx, 1

; 1452 : 		}

  0004b	eb d3		 jmp	 SHORT $LL4@ExecSwitch
$LN5@ExecSwitch:

; 1453 : 		else
; 1454 : 		if(*token=='}') {

  0004d	3c 7d		 cmp	 al, 125			; 0000007dH
  0004f	74 35		 je	 SHORT $LN21@ExecSwitch

; 1459 : 				}
; 1460 : 			}
; 1461 : 			break;
; 1462 : 		}
; 1463 : 		else
; 1464 : 		if(!def) {

  00051	85 ff		 test	 edi, edi
  00053	75 cb		 jne	 SHORT $LL4@ExecSwitch

; 1465 : 			if(tok == CASE) {

  00055	8b 86 44 08 00
	00		 mov	 eax, DWORD PTR [esi+2116]
  0005b	83 f8 0d	 cmp	 eax, 13			; 0000000dH
  0005e	75 13		 jne	 SHORT $LN14@ExecSwitch

; 1466 : 				Compute(&cond2);

  00060	8d 45 fc	 lea	 eax, DWORD PTR _cond2$[ebp]
  00063	8b ce		 mov	 ecx, esi
  00065	50		 push	 eax
  00066	e8 00 00 00 00	 call	 ?Compute@CScript@@QAEXPAH@Z ; CScript::Compute

; 1467 : 				if(cond2==cond) {

  0006b	8b 45 fc	 mov	 eax, DWORD PTR _cond2$[ebp]
  0006e	3b 45 f8	 cmp	 eax, DWORD PTR _cond$[ebp]

; 1468 : 					GetToken(); // bypass ':'
; 1469 : 					def = m_pProg;
; 1470 : 				}
; 1471 : 			}

  00071	eb 03		 jmp	 SHORT $LN33@ExecSwitch
$LN14@ExecSwitch:

; 1472 : 			else
; 1473 : 			if(tok == DEFAULT) {

  00073	83 f8 0e	 cmp	 eax, 14			; 0000000eH
$LN33@ExecSwitch:

; 1443 : 
; 1444 : 	for(;;) {
; 1445 : 		GetToken();

  00076	75 a8		 jne	 SHORT $LL4@ExecSwitch
  00078	8b 06		 mov	 eax, DWORD PTR [esi]
  0007a	8b ce		 mov	 ecx, esi
  0007c	6a 00		 push	 0
  0007e	ff 50 14	 call	 DWORD PTR [eax+20]
  00081	8b 7e 18	 mov	 edi, DWORD PTR [esi+24]
  00084	eb 9a		 jmp	 SHORT $LL4@ExecSwitch
$LN21@ExecSwitch:

; 1455 : 			if(def) {

  00086	85 ff		 test	 edi, edi
  00088	74 1e		 je	 SHORT $LN12@ExecSwitch

; 1456 : 				m_pProg = def;
; 1457 : 				if(InterpBlock(1) == 2) {

  0008a	6a 01		 push	 1
  0008c	8b ce		 mov	 ecx, esi
  0008e	89 7e 18	 mov	 DWORD PTR [esi+24], edi
  00091	e8 00 00 00 00	 call	 ?InterpBlock@CScript@@QAEHH@Z ; CScript::InterpBlock
  00096	83 f8 02	 cmp	 eax, 2
  00099	75 0d		 jne	 SHORT $LN12@ExecSwitch

; 1458 : 					m_pProg = begin; FindEob();

  0009b	8b 45 f4	 mov	 eax, DWORD PTR _begin$1$[ebp]
  0009e	8b ce		 mov	 ecx, esi
  000a0	89 46 18	 mov	 DWORD PTR [esi+24], eax
  000a3	e8 00 00 00 00	 call	 ?FindEob@CScript@@QAEXXZ ; CScript::FindEob
$LN12@ExecSwitch:

; 1474 : 				GetToken(); // bypass ':'
; 1475 : 				def = m_pProg;
; 1476 : 			}
; 1477 : 		}
; 1478 : 	}
; 1479 : }

  000a8	5f		 pop	 edi
  000a9	5e		 pop	 esi
  000aa	5b		 pop	 ebx
  000ab	8b e5		 mov	 esp, ebp
  000ad	5d		 pop	 ebp
  000ae	c3		 ret	 0
?ExecSwitch@CScript@@QAEXXZ ENDP			; CScript::ExecSwitch
_TEXT	ENDS
; Function compile flags: /Ogtp
; File C:\IAGOS\server\v18\Source\Source\_Common\script.cpp
;	COMDAT ?ExecFor@CScript@@QAEXXZ
_TEXT	SEGMENT
_temp$1$ = -8						; size = 4
_cond$ = -4						; size = 4
?ExecFor@CScript@@QAEXXZ PROC				; CScript::ExecFor, COMDAT
; _this$ = ecx

; 1396 : {

  00000	55		 push	 ebp
  00001	8b ec		 mov	 ebp, esp
  00003	83 ec 08	 sub	 esp, 8
  00006	53		 push	 ebx
  00007	56		 push	 esi
  00008	8b f1		 mov	 esi, ecx
  0000a	57		 push	 edi

; 1397 : 	int cond;
; 1398 : 	char *temp, *temp2;
; 1399 : 	int brace;
; 1400 : 
; 1401 : 	GetToken();

  0000b	6a 00		 push	 0
  0000d	8b 06		 mov	 eax, DWORD PTR [esi]
  0000f	ff 50 14	 call	 DWORD PTR [eax+20]

; 1402 : 	Compute(&cond); // initialization expression 

  00012	8d 45 fc	 lea	 eax, DWORD PTR _cond$[ebp]
  00015	8b ce		 mov	 ecx, esi
  00017	50		 push	 eax
  00018	e8 00 00 00 00	 call	 ?Compute@CScript@@QAEXPAH@Z ; CScript::Compute

; 1403 : 	if(*token!=';') SntxErr( NULL, SEMI_EXPECTED);

  0001d	8b 46 3c	 mov	 eax, DWORD PTR [esi+60]
  00020	80 38 3b	 cmp	 BYTE PTR [eax], 59	; 0000003bH
  00023	74 0b		 je	 SHORT $LN9@ExecFor
  00025	8b 06		 mov	 eax, DWORD PTR [esi]
  00027	8b ce		 mov	 ecx, esi
  00029	6a 06		 push	 6
  0002b	6a 00		 push	 0
  0002d	ff 50 18	 call	 DWORD PTR [eax+24]
$LN9@ExecFor:

; 1404 : 	m_pProg++; // get past the ; 

  00030	8b 46 18	 mov	 eax, DWORD PTR [esi+24]
  00033	40		 inc	 eax
  00034	89 45 f8	 mov	 DWORD PTR _temp$1$[ebp], eax
$LN33@ExecFor:

; 1405 : 	temp = m_pProg;
; 1406 : 	for(;;) {
; 1407 : 		cond = 1; // ´ŮŔ˝ ComputeżˇĽ­ şń±ł´ë»óŔĚ ľřŔ¸¸é (;;) cond = 1Ŕ» ŔŻÁöÇĎż© ą«ÇŃ·çÇÁ¸¦ µą°Ô ÇŃ´Ů. 

  00037	89 46 18	 mov	 DWORD PTR [esi+24], eax

; 1408 : 		Compute(&cond); // check the condition 

  0003a	8b ce		 mov	 ecx, esi
  0003c	8d 45 fc	 lea	 eax, DWORD PTR _cond$[ebp]
  0003f	c7 45 fc 01 00
	00 00		 mov	 DWORD PTR _cond$[ebp], 1
  00046	50		 push	 eax
  00047	e8 00 00 00 00	 call	 ?Compute@CScript@@QAEXPAH@Z ; CScript::Compute

; 1409 : 		if(*token!=';') SntxErr( NULL, SEMI_EXPECTED);

  0004c	8b 46 3c	 mov	 eax, DWORD PTR [esi+60]
  0004f	80 38 3b	 cmp	 BYTE PTR [eax], 59	; 0000003bH
  00052	74 0b		 je	 SHORT $LN10@ExecFor
  00054	8b 06		 mov	 eax, DWORD PTR [esi]
  00056	8b ce		 mov	 ecx, esi
  00058	6a 06		 push	 6
  0005a	6a 00		 push	 0
  0005c	ff 50 18	 call	 DWORD PTR [eax+24]
$LN10@ExecFor:

; 1410 : 		m_pProg++; // get past the ; 

  0005f	ff 46 18	 inc	 DWORD PTR [esi+24]

; 1411 : 		temp2 = m_pProg;
; 1412 : 
; 1413 : 		// find the start of the for block 
; 1414 : 		brace = 1;

  00062	bf 01 00 00 00	 mov	 edi, 1
  00067	8b 5e 18	 mov	 ebx, DWORD PTR [esi+24]
  0006a	66 0f 1f 44 00
	00		 npad	 6
$LL5@ExecFor:

; 1415 : 		while(brace) {
; 1416 : 			GetToken();

  00070	8b 06		 mov	 eax, DWORD PTR [esi]
  00072	8b ce		 mov	 ecx, esi
  00074	6a 00		 push	 0
  00076	ff 50 14	 call	 DWORD PTR [eax+20]

; 1417 : 			if(*token=='(') brace++;

  00079	8b 46 3c	 mov	 eax, DWORD PTR [esi+60]

; 1418 : 			if(*token==')') brace--;

  0007c	8d 4f 01	 lea	 ecx, DWORD PTR [edi+1]
  0007f	80 38 28	 cmp	 BYTE PTR [eax], 40	; 00000028H
  00082	0f 45 cf	 cmovne	 ecx, edi
  00085	80 38 29	 cmp	 BYTE PTR [eax], 41	; 00000029H
  00088	8d 79 ff	 lea	 edi, DWORD PTR [ecx-1]
  0008b	0f 45 f9	 cmovne	 edi, ecx
  0008e	85 ff		 test	 edi, edi
  00090	75 de		 jne	 SHORT $LL5@ExecFor

; 1419 : 		}
; 1420 : 		if(cond) {

  00092	8b ce		 mov	 ecx, esi
  00094	39 7d fc	 cmp	 DWORD PTR _cond$[ebp], edi
  00097	74 34		 je	 SHORT $LN13@ExecFor

; 1421 : 			char *begin = m_pProg;

  00099	8b 7e 18	 mov	 edi, DWORD PTR [esi+24]

; 1422 : 			switch(InterpBlock()) {

  0009c	6a 00		 push	 0
  0009e	e8 00 00 00 00	 call	 ?InterpBlock@CScript@@QAEHH@Z ; CScript::InterpBlock
  000a3	83 e8 01	 sub	 eax, 1
  000a6	74 2a		 je	 SHORT $LN3@ExecFor
  000a8	83 e8 01	 sub	 eax, 1
  000ab	74 1b		 je	 SHORT $LN15@ExecFor
  000ad	83 e8 01	 sub	 eax, 1
  000b0	74 20		 je	 SHORT $LN3@ExecFor

; 1424 : 				case 1:	case 3: return;
; 1425 : 			}
; 1426 : 		}
; 1427 : 		else  { // otherwise, skip around loop 
; 1428 : 			FindEob();
; 1429 : 			return;
; 1430 : 		}
; 1431 : 		m_pProg = temp2;
; 1432 : 		Compute(&cond); // do the increment 

  000b2	8d 45 fc	 lea	 eax, DWORD PTR _cond$[ebp]
  000b5	89 5e 18	 mov	 DWORD PTR [esi+24], ebx
  000b8	50		 push	 eax
  000b9	8b ce		 mov	 ecx, esi
  000bb	e8 00 00 00 00	 call	 ?Compute@CScript@@QAEXPAH@Z ; CScript::Compute

; 1433 : 		m_pProg = temp; // loop back to top 

  000c0	8b 45 f8	 mov	 eax, DWORD PTR _temp$1$[ebp]
  000c3	e9 6f ff ff ff	 jmp	 $LN33@ExecFor
$LN15@ExecFor:

; 1423 : 				case 2: m_pProg = begin; FindEob();

  000c8	89 7e 18	 mov	 DWORD PTR [esi+24], edi
  000cb	8b ce		 mov	 ecx, esi
$LN13@ExecFor:

; 1434 : 	}
; 1435 : }

  000cd	e8 00 00 00 00	 call	 ?FindEob@CScript@@QAEXXZ ; CScript::FindEob
$LN3@ExecFor:
  000d2	5f		 pop	 edi
  000d3	5e		 pop	 esi
  000d4	5b		 pop	 ebx
  000d5	8b e5		 mov	 esp, ebp
  000d7	5d		 pop	 ebp
  000d8	c3		 ret	 0
?ExecFor@CScript@@QAEXXZ ENDP				; CScript::ExecFor
_TEXT	ENDS
; Function compile flags: /Ogtp
; File C:\IAGOS\server\v18\Source\Source\_Common\script.cpp
;	COMDAT ?ExecDo@CScript@@QAEXXZ
_TEXT	SEGMENT
_cond$ = -4						; size = 4
?ExecDo@CScript@@QAEXXZ PROC				; CScript::ExecDo, COMDAT
; _this$ = ecx

; 1377 : {

  00000	55		 push	 ebp
  00001	8b ec		 mov	 ebp, esp
  00003	51		 push	 ecx
  00004	53		 push	 ebx
  00005	56		 push	 esi
  00006	8b f1		 mov	 esi, ecx
  00008	57		 push	 edi

; 1378 : 	int cond;	
; 1379 : 	PutBack();

  00009	8b 06		 mov	 eax, DWORD PTR [esi]
  0000b	ff 50 10	 call	 DWORD PTR [eax+16]

; 1380 : 	CHAR* temp = m_pProg; // save location of top of do loop
; 1381 : 	GetToken();  // get start of loop

  0000e	8b 06		 mov	 eax, DWORD PTR [esi]
  00010	8b ce		 mov	 ecx, esi
  00012	8b 7e 18	 mov	 edi, DWORD PTR [esi+24]
  00015	6a 00		 push	 0
  00017	ff 50 14	 call	 DWORD PTR [eax+20]

; 1382 : 	CHAR* begin = m_pProg;

  0001a	8b 5e 18	 mov	 ebx, DWORD PTR [esi+24]

; 1383 : 	switch(InterpBlock()) 

  0001d	8b ce		 mov	 ecx, esi
  0001f	6a 00		 push	 0
  00021	e8 00 00 00 00	 call	 ?InterpBlock@CScript@@QAEHH@Z ; CScript::InterpBlock
  00026	83 e8 01	 sub	 eax, 1
  00029	74 53		 je	 SHORT $LN5@ExecDo
  0002b	83 e8 01	 sub	 eax, 1
  0002e	74 3d		 je	 SHORT $LN4@ExecDo
  00030	83 e8 01	 sub	 eax, 1
  00033	74 49		 je	 SHORT $LN5@ExecDo

; 1386 : 		case 1:	case 3: return;
; 1387 : 	}
; 1388 : 	GetToken();

  00035	8b 06		 mov	 eax, DWORD PTR [esi]
  00037	8b ce		 mov	 ecx, esi
  00039	6a 00		 push	 0
  0003b	ff 50 14	 call	 DWORD PTR [eax+20]

; 1389 : 	if(tok!=WHILE) 

  0003e	83 be 44 08 00
	00 07		 cmp	 DWORD PTR [esi+2116], 7
  00045	74 0b		 je	 SHORT $LN7@ExecDo

; 1390 : 		SntxErr( NULL, WHILE_EXPECTED);

  00047	8b 06		 mov	 eax, DWORD PTR [esi]
  00049	8b ce		 mov	 ecx, esi
  0004b	6a 0d		 push	 13			; 0000000dH
  0004d	6a 00		 push	 0
  0004f	ff 50 18	 call	 DWORD PTR [eax+24]
$LN7@ExecDo:

; 1391 : 	Compute(&cond);       // check the loop condition

  00052	8d 45 fc	 lea	 eax, DWORD PTR _cond$[ebp]
  00055	8b ce		 mov	 ecx, esi
  00057	50		 push	 eax
  00058	e8 00 00 00 00	 call	 ?Compute@CScript@@QAEXPAH@Z ; CScript::Compute

; 1392 : 	if( cond ) 

  0005d	83 7d fc 00	 cmp	 DWORD PTR _cond$[ebp], 0
  00061	74 1b		 je	 SHORT $LN5@ExecDo

; 1393 : 		m_pProg = temp; // if true loop; otherwise, cotinue on

  00063	89 7e 18	 mov	 DWORD PTR [esi+24], edi
  00066	5f		 pop	 edi

; 1394 : }

  00067	5e		 pop	 esi
  00068	5b		 pop	 ebx
  00069	8b e5		 mov	 esp, ebp
  0006b	5d		 pop	 ebp
  0006c	c3		 ret	 0
$LN4@ExecDo:

; 1384 : 	{
; 1385 : 		case 2:	m_pProg = begin; FindEob(); FindEob(); // bypassed block and while

  0006d	8b ce		 mov	 ecx, esi
  0006f	89 5e 18	 mov	 DWORD PTR [esi+24], ebx
  00072	e8 00 00 00 00	 call	 ?FindEob@CScript@@QAEXXZ ; CScript::FindEob
  00077	8b ce		 mov	 ecx, esi
  00079	e8 00 00 00 00	 call	 ?FindEob@CScript@@QAEXXZ ; CScript::FindEob
$LN5@ExecDo:

; 1394 : }

  0007e	5f		 pop	 edi
  0007f	5e		 pop	 esi
  00080	5b		 pop	 ebx
  00081	8b e5		 mov	 esp, ebp
  00083	5d		 pop	 ebp
  00084	c3		 ret	 0
?ExecDo@CScript@@QAEXXZ ENDP				; CScript::ExecDo
_TEXT	ENDS
; Function compile flags: /Ogtp
; File C:\IAGOS\server\v18\Source\Source\_Common\script.cpp
;	COMDAT ?ExecWhile@CScript@@QAEXXZ
_TEXT	SEGMENT
_cond$ = -4						; size = 4
?ExecWhile@CScript@@QAEXXZ PROC				; CScript::ExecWhile, COMDAT
; _this$ = ecx

; 1354 : {

  00000	55		 push	 ebp
  00001	8b ec		 mov	 ebp, esp
  00003	51		 push	 ecx
  00004	53		 push	 ebx
  00005	56		 push	 esi
  00006	8b f1		 mov	 esi, ecx

; 1355 : 	int cond;
; 1356 : 	PutBack();

  00008	8b 06		 mov	 eax, DWORD PTR [esi]
  0000a	ff 50 10	 call	 DWORD PTR [eax+16]

; 1357 : 	CHAR* temp = m_pProg; // save location of top of while loop
; 1358 : 	GetToken();

  0000d	8b 06		 mov	 eax, DWORD PTR [esi]
  0000f	8b ce		 mov	 ecx, esi
  00011	8b 5e 18	 mov	 ebx, DWORD PTR [esi+24]
  00014	6a 00		 push	 0
  00016	ff 50 14	 call	 DWORD PTR [eax+20]

; 1359 : 	Compute(&cond); // check the conditional expression

  00019	8d 45 fc	 lea	 eax, DWORD PTR _cond$[ebp]
  0001c	8b ce		 mov	 ecx, esi
  0001e	50		 push	 eax
  0001f	e8 00 00 00 00	 call	 ?Compute@CScript@@QAEXPAH@Z ; CScript::Compute

; 1360 : 	if(cond) 

  00024	83 7d fc 00	 cmp	 DWORD PTR _cond$[ebp], 0
  00028	8b ce		 mov	 ecx, esi
  0002a	74 35		 je	 SHORT $LN4@ExecWhile

; 1361 : 	{
; 1362 : 		CHAR* begin = m_pProg;

  0002c	57		 push	 edi
  0002d	8b 7e 18	 mov	 edi, DWORD PTR [esi+24]

; 1363 : 		switch( InterpBlock() ) 

  00030	6a 00		 push	 0
  00032	e8 00 00 00 00	 call	 ?InterpBlock@CScript@@QAEHH@Z ; CScript::InterpBlock
  00037	83 e8 01	 sub	 eax, 1
  0003a	74 0d		 je	 SHORT $LN14@ExecWhile
  0003c	83 e8 01	 sub	 eax, 1
  0003f	74 0f		 je	 SHORT $LN6@ExecWhile
  00041	83 e8 01	 sub	 eax, 1
  00044	74 03		 je	 SHORT $LN14@ExecWhile

; 1372 : 		return;
; 1373 : 	}
; 1374 : 	m_pProg = temp; // loop back to top

  00046	89 5e 18	 mov	 DWORD PTR [esi+24], ebx
$LN14@ExecWhile:
  00049	5f		 pop	 edi
  0004a	5e		 pop	 esi

; 1375 : }

  0004b	5b		 pop	 ebx
  0004c	8b e5		 mov	 esp, ebp
  0004e	5d		 pop	 ebp
  0004f	c3		 ret	 0
$LN6@ExecWhile:

; 1364 : 		{
; 1365 : 			case 2: m_pProg = begin; FindEob();

  00050	8b ce		 mov	 ecx, esi
  00052	89 7e 18	 mov	 DWORD PTR [esi+24], edi
  00055	e8 00 00 00 00	 call	 ?FindEob@CScript@@QAEXXZ ; CScript::FindEob
  0005a	5f		 pop	 edi
  0005b	5e		 pop	 esi

; 1375 : }

  0005c	5b		 pop	 ebx
  0005d	8b e5		 mov	 esp, ebp
  0005f	5d		 pop	 ebp
  00060	c3		 ret	 0
$LN4@ExecWhile:

; 1366 : 			case 1:	case 3: return;
; 1367 : 		}
; 1368 : 	}
; 1369 : 	else 
; 1370 : 	{ // otherwise, skip around loop
; 1371 : 		FindEob();

  00061	e8 00 00 00 00	 call	 ?FindEob@CScript@@QAEXXZ ; CScript::FindEob
  00066	5e		 pop	 esi

; 1375 : }

  00067	5b		 pop	 ebx
  00068	8b e5		 mov	 esp, ebp
  0006a	5d		 pop	 ebp
  0006b	c3		 ret	 0
?ExecWhile@CScript@@QAEXXZ ENDP				; CScript::ExecWhile
_TEXT	ENDS
; Function compile flags: /Ogtp
; File C:\IAGOS\server\v18\Source\Source\_Common\script.cpp
;	COMDAT ?ExecIf@CScript@@QAEXXZ
_TEXT	SEGMENT
_cond$ = -8						; size = 4
_flag$1$ = -4						; size = 4
?ExecIf@CScript@@QAEXXZ PROC				; CScript::ExecIf, COMDAT
; _this$ = ecx

; 1294 : {

  00000	55		 push	 ebp
  00001	8b ec		 mov	 ebp, esp
  00003	83 ec 08	 sub	 esp, 8
  00006	56		 push	 esi
  00007	57		 push	 edi

; 1295 : 	int cond; 
; 1296 : 	CHAR* begin;
; 1297 : 
; 1298 : 	Compute(&cond); // get left expression

  00008	8d 45 f8	 lea	 eax, DWORD PTR _cond$[ebp]
  0000b	8b f1		 mov	 esi, ecx
  0000d	50		 push	 eax
  0000e	e8 00 00 00 00	 call	 ?Compute@CScript@@QAEXPAH@Z ; CScript::Compute

; 1299 : 
; 1300 : 	if(cond) 

  00013	83 7d f8 00	 cmp	 DWORD PTR _cond$[ebp], 0
  00017	8b ce		 mov	 ecx, esi
  00019	6a 00		 push	 0
  0001b	0f 85 b0 00 00
	00		 jne	 $LN47@ExecIf

; 1301 : 	{ // is true so process target of IF
; 1302 : 		begin = m_pProg;
; 1303 : 		switch(InterpBlock()) 
; 1304 : 		{
; 1305 : 			case 2:	m_pProg = begin; FindEob();
; 1306 : 			case 1: case 3: return;
; 1307 : 		}
; 1308 : 	}
; 1309 : 	else 
; 1310 : 	{    // otherwise skip around IF block and process the ELSE, if present
; 1311 : 		GetToken();

  00021	8b 06		 mov	 eax, DWORD PTR [esi]
  00023	ff 50 14	 call	 DWORD PTR [eax+20]

; 1312 : 		if(*token!='{') 

  00026	8b 46 3c	 mov	 eax, DWORD PTR [esi+60]
  00029	80 38 7b	 cmp	 BYTE PTR [eax], 123	; 0000007bH
  0002c	74 74		 je	 SHORT $LN14@ExecIf

; 1313 : 		{
; 1314 : 			int flag = 0, iff = 0;

  0002e	53		 push	 ebx
  0002f	33 c0		 xor	 eax, eax
  00031	33 db		 xor	 ebx, ebx
$LL6@ExecIf:

; 1315 : 			for(;;) 
; 1316 : 			{
; 1317 : 				if(flag && (!iff || (iff && tok!=ELSE)))

  00033	85 c0		 test	 eax, eax
  00035	74 10		 je	 SHORT $LN31@ExecIf
  00037	85 db		 test	 ebx, ebx
  00039	74 09		 je	 SHORT $LN32@ExecIf
  0003b	83 be 44 08 00
	00 04		 cmp	 DWORD PTR [esi+2116], 4
  00042	74 27		 je	 SHORT $LN33@ExecIf
$LN32@ExecIf:
  00044	5b		 pop	 ebx

; 1332 : 			}
; 1333 : 		}

  00045	eb 72		 jmp	 SHORT $LN15@ExecIf
$LN31@ExecIf:

; 1318 : 					break;
; 1319 : 				if(tok==IF) {

  00047	8b 86 44 08 00
	00		 mov	 eax, DWORD PTR [esi+2116]
  0004d	83 f8 03	 cmp	 eax, 3
  00050	75 14		 jne	 SHORT $LN18@ExecIf

; 1320 : 					iff++; flag = 0;

  00052	33 c0		 xor	 eax, eax

; 1329 : 					flag = 1;
; 1330 : 				}
; 1331 : 				GetToken();

  00054	8b ce		 mov	 ecx, esi
  00056	89 45 fc	 mov	 DWORD PTR _flag$1$[ebp], eax
  00059	43		 inc	 ebx
  0005a	8b 06		 mov	 eax, DWORD PTR [esi]
  0005c	6a 00		 push	 0
  0005e	ff 50 14	 call	 DWORD PTR [eax+20]
  00061	8b 45 fc	 mov	 eax, DWORD PTR _flag$1$[ebp]
  00064	eb cd		 jmp	 SHORT $LL6@ExecIf
$LN18@ExecIf:

; 1321 : 				}
; 1322 : 				else
; 1323 : 				if(tok==ELSE) {

  00066	83 f8 04	 cmp	 eax, 4
  00069	75 14		 jne	 SHORT $LN20@ExecIf
$LN33@ExecIf:

; 1324 : 					iff--; flag = 0;

  0006b	33 c0		 xor	 eax, eax

; 1329 : 					flag = 1;
; 1330 : 				}
; 1331 : 				GetToken();

  0006d	8b ce		 mov	 ecx, esi
  0006f	89 45 fc	 mov	 DWORD PTR _flag$1$[ebp], eax
  00072	4b		 dec	 ebx
  00073	8b 06		 mov	 eax, DWORD PTR [esi]
  00075	6a 00		 push	 0
  00077	ff 50 14	 call	 DWORD PTR [eax+20]
  0007a	8b 45 fc	 mov	 eax, DWORD PTR _flag$1$[ebp]
  0007d	eb b4		 jmp	 SHORT $LL6@ExecIf
$LN20@ExecIf:

; 1325 : 				}
; 1326 : 				else {
; 1327 : 					PutBack();

  0007f	8b 06		 mov	 eax, DWORD PTR [esi]
  00081	8b ce		 mov	 ecx, esi
  00083	ff 50 10	 call	 DWORD PTR [eax+16]

; 1328 : 					FindEob();

  00086	8b ce		 mov	 ecx, esi
  00088	e8 00 00 00 00	 call	 ?FindEob@CScript@@QAEXXZ ; CScript::FindEob

; 1329 : 					flag = 1;
; 1330 : 				}
; 1331 : 				GetToken();

  0008d	8b 06		 mov	 eax, DWORD PTR [esi]
  0008f	8b ce		 mov	 ecx, esi
  00091	6a 00		 push	 0
  00093	c7 45 fc 01 00
	00 00		 mov	 DWORD PTR _flag$1$[ebp], 1
  0009a	ff 50 14	 call	 DWORD PTR [eax+20]
  0009d	8b 45 fc	 mov	 eax, DWORD PTR _flag$1$[ebp]
  000a0	eb 91		 jmp	 SHORT $LL6@ExecIf
$LN14@ExecIf:

; 1334 : 		else 
; 1335 : 		{
; 1336 : 			PutBack();

  000a2	8b 06		 mov	 eax, DWORD PTR [esi]
  000a4	8b ce		 mov	 ecx, esi
  000a6	ff 50 10	 call	 DWORD PTR [eax+16]

; 1337 : 			FindEob(); // find start of next line

  000a9	8b ce		 mov	 ecx, esi
  000ab	e8 00 00 00 00	 call	 ?FindEob@CScript@@QAEXXZ ; CScript::FindEob

; 1338 : 			GetToken();

  000b0	8b 06		 mov	 eax, DWORD PTR [esi]
  000b2	8b ce		 mov	 ecx, esi
  000b4	6a 00		 push	 0
  000b6	ff 50 14	 call	 DWORD PTR [eax+20]
$LN15@ExecIf:

; 1339 : 		}
; 1340 : 		if( tok != ELSE ) 

  000b9	83 be 44 08 00
	00 04		 cmp	 DWORD PTR [esi+2116], 4
  000c0	8b ce		 mov	 ecx, esi
  000c2	74 0b		 je	 SHORT $LN22@ExecIf

; 1341 : 		{
; 1342 : 			PutBack(); // restore token if no ELSE if present

  000c4	8b 06		 mov	 eax, DWORD PTR [esi]
  000c6	ff 50 10	 call	 DWORD PTR [eax+16]
  000c9	5f		 pop	 edi

; 1347 : 		{
; 1348 : 			case 2:	m_pProg = begin; FindEob();
; 1349 : 			case 1: case 3: return;
; 1350 : 		}
; 1351 : 	}
; 1352 : }

  000ca	5e		 pop	 esi
  000cb	8b e5		 mov	 esp, ebp
  000cd	5d		 pop	 ebp
  000ce	c3		 ret	 0
$LN22@ExecIf:

; 1343 : 			return;
; 1344 : 		}
; 1345 : 		begin = m_pProg;
; 1346 : 		switch( InterpBlock() ) 

  000cf	6a 00		 push	 0
$LN47@ExecIf:

; 1347 : 		{
; 1348 : 			case 2:	m_pProg = begin; FindEob();
; 1349 : 			case 1: case 3: return;
; 1350 : 		}
; 1351 : 	}
; 1352 : }

  000d1	8b 7e 18	 mov	 edi, DWORD PTR [esi+24]
  000d4	e8 00 00 00 00	 call	 ?InterpBlock@CScript@@QAEHH@Z ; CScript::InterpBlock
  000d9	83 e8 01	 sub	 eax, 1
  000dc	74 0f		 je	 SHORT $LN24@ExecIf
  000de	83 e8 01	 sub	 eax, 1
  000e1	75 0a		 jne	 SHORT $LN24@ExecIf
  000e3	8b ce		 mov	 ecx, esi
  000e5	89 7e 18	 mov	 DWORD PTR [esi+24], edi
  000e8	e8 00 00 00 00	 call	 ?FindEob@CScript@@QAEXXZ ; CScript::FindEob
$LN24@ExecIf:
  000ed	5f		 pop	 edi
  000ee	5e		 pop	 esi
  000ef	8b e5		 mov	 esp, ebp
  000f1	5d		 pop	 ebp
  000f2	c3		 ret	 0
?ExecIf@CScript@@QAEXXZ ENDP				; CScript::ExecIf
_TEXT	ENDS
; Function compile flags: /Ogtp
; File C:\IAGOS\server\v18\Source\Source\_Common\script.cpp
;	COMDAT ?IsVar@CScript@@QAEHPAD@Z
_TEXT	SEGMENT
_this$1$ = -4						; size = 4
_s$ = 8							; size = 4
?IsVar@CScript@@QAEHPAD@Z PROC				; CScript::IsVar, COMDAT
; _this$ = ecx

; 1270 : {

  00000	55		 push	 ebp
  00001	8b ec		 mov	 ebp, esp
  00003	51		 push	 ecx

; 1271 : 	// first, see if it's a local variable 
; 1272 : 	for( int i = callStack[functos-1].var; i < lvartos; i++)

  00004	8b 81 00 1e 00
	00		 mov	 eax, DWORD PTR [ecx+7680]
  0000a	8b 55 08	 mov	 edx, DWORD PTR _s$[ebp]
  0000d	05 d5 01 00 00	 add	 eax, 469		; 000001d5H
  00012	03 c0		 add	 eax, eax
  00014	89 4d fc	 mov	 DWORD PTR _this$1$[ebp], ecx
  00017	53		 push	 ebx
  00018	8b 99 08 1e 00
	00		 mov	 ebx, DWORD PTR [ecx+7688]
  0001e	56		 push	 esi
  0001f	8b 34 c1	 mov	 esi, DWORD PTR [ecx+eax*8]
  00022	57		 push	 edi
  00023	3b f3		 cmp	 esi, ebx
  00025	7d 47		 jge	 SHORT $LN3@IsVar
  00027	8d 3c f5 bd 01
	00 00		 lea	 edi, DWORD PTR [esi*8+445]
  0002e	03 fe		 add	 edi, esi
  00030	8d 3c f9	 lea	 edi, DWORD PTR [ecx+edi*8]
$LL4@IsVar:

; 1273 : 		if(!strcmp(localVarStack[i].varName,s))

  00033	8b ca		 mov	 ecx, edx
  00035	8b c7		 mov	 eax, edi
$LL21@IsVar:
  00037	8a 10		 mov	 dl, BYTE PTR [eax]
  00039	3a 11		 cmp	 dl, BYTE PTR [ecx]
  0003b	75 1a		 jne	 SHORT $LN22@IsVar
  0003d	84 d2		 test	 dl, dl
  0003f	74 12		 je	 SHORT $LN23@IsVar
  00041	8a 50 01	 mov	 dl, BYTE PTR [eax+1]
  00044	3a 51 01	 cmp	 dl, BYTE PTR [ecx+1]
  00047	75 0e		 jne	 SHORT $LN22@IsVar
  00049	83 c0 02	 add	 eax, 2
  0004c	83 c1 02	 add	 ecx, 2
  0004f	84 d2		 test	 dl, dl
  00051	75 e4		 jne	 SHORT $LL21@IsVar
$LN23@IsVar:
  00053	33 c0		 xor	 eax, eax
  00055	eb 05		 jmp	 SHORT $LN24@IsVar
$LN22@IsVar:
  00057	1b c0		 sbb	 eax, eax
  00059	83 c8 01	 or	 eax, 1
$LN24@IsVar:
  0005c	85 c0		 test	 eax, eax
  0005e	74 63		 je	 SHORT $LN14@IsVar

; 1271 : 	// first, see if it's a local variable 
; 1272 : 	for( int i = callStack[functos-1].var; i < lvartos; i++)

  00060	8b 55 08	 mov	 edx, DWORD PTR _s$[ebp]
  00063	46		 inc	 esi
  00064	83 c7 48	 add	 edi, 72			; 00000048H
  00067	3b f3		 cmp	 esi, ebx
  00069	7c c8		 jl	 SHORT $LL4@IsVar
  0006b	8b 4d fc	 mov	 ecx, DWORD PTR _this$1$[ebp]
$LN3@IsVar:

; 1274 : 			return 1;
; 1275 : 	// otherwise, try global bars 
; 1276 : 	for( int i = 0; i < gVarIndex; i++)

  0006e	8b 99 64 08 00
	00		 mov	 ebx, DWORD PTR [ecx+2148]
  00074	33 f6		 xor	 esi, esi
  00076	85 db		 test	 ebx, ebx
  00078	7e 3e		 jle	 SHORT $LN6@IsVar
  0007a	8d b9 68 08 00
	00		 lea	 edi, DWORD PTR [ecx+2152]
$LL7@IsVar:

; 1277 : 		if(!strcmp(globalVars[i].varName,s))

  00080	8b c2		 mov	 eax, edx
  00082	8b cf		 mov	 ecx, edi
$LL25@IsVar:
  00084	8a 11		 mov	 dl, BYTE PTR [ecx]
  00086	3a 10		 cmp	 dl, BYTE PTR [eax]
  00088	75 1a		 jne	 SHORT $LN26@IsVar
  0008a	84 d2		 test	 dl, dl
  0008c	74 12		 je	 SHORT $LN27@IsVar
  0008e	8a 51 01	 mov	 dl, BYTE PTR [ecx+1]
  00091	3a 50 01	 cmp	 dl, BYTE PTR [eax+1]
  00094	75 0e		 jne	 SHORT $LN26@IsVar
  00096	83 c1 02	 add	 ecx, 2
  00099	83 c0 02	 add	 eax, 2
  0009c	84 d2		 test	 dl, dl
  0009e	75 e4		 jne	 SHORT $LL25@IsVar
$LN27@IsVar:
  000a0	33 c0		 xor	 eax, eax
  000a2	eb 05		 jmp	 SHORT $LN28@IsVar
$LN26@IsVar:
  000a4	1b c0		 sbb	 eax, eax
  000a6	83 c8 01	 or	 eax, 1
$LN28@IsVar:
  000a9	85 c0		 test	 eax, eax
  000ab	74 16		 je	 SHORT $LN14@IsVar

; 1274 : 			return 1;
; 1275 : 	// otherwise, try global bars 
; 1276 : 	for( int i = 0; i < gVarIndex; i++)

  000ad	8b 55 08	 mov	 edx, DWORD PTR _s$[ebp]
  000b0	46		 inc	 esi
  000b1	83 c7 48	 add	 edi, 72			; 00000048H
  000b4	3b f3		 cmp	 esi, ebx
  000b6	7c c8		 jl	 SHORT $LL7@IsVar
$LN6@IsVar:
  000b8	5f		 pop	 edi

; 1278 : 			return 1;
; 1279 : 	return 0;
; 1280 : }

  000b9	5e		 pop	 esi
  000ba	33 c0		 xor	 eax, eax
  000bc	5b		 pop	 ebx
  000bd	8b e5		 mov	 esp, ebp
  000bf	5d		 pop	 ebp
  000c0	c2 04 00	 ret	 4
$LN14@IsVar:
  000c3	5f		 pop	 edi
  000c4	5e		 pop	 esi
  000c5	b8 01 00 00 00	 mov	 eax, 1
  000ca	5b		 pop	 ebx
  000cb	8b e5		 mov	 esp, ebp
  000cd	5d		 pop	 ebp
  000ce	c2 04 00	 ret	 4
?IsVar@CScript@@QAEHPAD@Z ENDP				; CScript::IsVar
_TEXT	ENDS
; Function compile flags: /Ogtp
; File C:\IAGOS\server\v18\Source\Source\_Common\script.cpp
;	COMDAT ?FindVar@CScript@@QAEHPAD@Z
_TEXT	SEGMENT
_this$1$ = -4						; size = 4
_s$ = 8							; size = 4
?FindVar@CScript@@QAEHPAD@Z PROC			; CScript::FindVar, COMDAT
; _this$ = ecx

; 1257 : {

  00000	55		 push	 ebp
  00001	8b ec		 mov	 ebp, esp
  00003	51		 push	 ecx

; 1258 : 	// first, see if it's a local variable 
; 1259 : 	for( int i = callStack[functos-1].var; i < lvartos; i++)

  00004	8b 81 00 1e 00
	00		 mov	 eax, DWORD PTR [ecx+7680]
  0000a	8b 55 08	 mov	 edx, DWORD PTR _s$[ebp]
  0000d	05 d5 01 00 00	 add	 eax, 469		; 000001d5H
  00012	03 c0		 add	 eax, eax
  00014	89 4d fc	 mov	 DWORD PTR _this$1$[ebp], ecx
  00017	53		 push	 ebx
  00018	8b 99 08 1e 00
	00		 mov	 ebx, DWORD PTR [ecx+7688]
  0001e	56		 push	 esi
  0001f	8b 34 c1	 mov	 esi, DWORD PTR [ecx+eax*8]
  00022	57		 push	 edi
  00023	3b f3		 cmp	 esi, ebx
  00025	7d 47		 jge	 SHORT $LN3@FindVar
  00027	8d 3c f5 bd 01
	00 00		 lea	 edi, DWORD PTR [esi*8+445]
  0002e	03 fe		 add	 edi, esi
  00030	8d 3c f9	 lea	 edi, DWORD PTR [ecx+edi*8]
$LL4@FindVar:

; 1260 : 		if(!strcmp(localVarStack[i].varName,s))

  00033	8b ca		 mov	 ecx, edx
  00035	8b c7		 mov	 eax, edi
$LL21@FindVar:
  00037	8a 10		 mov	 dl, BYTE PTR [eax]
  00039	3a 11		 cmp	 dl, BYTE PTR [ecx]
  0003b	75 1a		 jne	 SHORT $LN22@FindVar
  0003d	84 d2		 test	 dl, dl
  0003f	74 12		 je	 SHORT $LN23@FindVar
  00041	8a 50 01	 mov	 dl, BYTE PTR [eax+1]
  00044	3a 51 01	 cmp	 dl, BYTE PTR [ecx+1]
  00047	75 0e		 jne	 SHORT $LN22@FindVar
  00049	83 c0 02	 add	 eax, 2
  0004c	83 c1 02	 add	 ecx, 2
  0004f	84 d2		 test	 dl, dl
  00051	75 e4		 jne	 SHORT $LL21@FindVar
$LN23@FindVar:
  00053	33 c0		 xor	 eax, eax
  00055	eb 05		 jmp	 SHORT $LN24@FindVar
$LN22@FindVar:
  00057	1b c0		 sbb	 eax, eax
  00059	83 c8 01	 or	 eax, 1
$LN24@FindVar:
  0005c	85 c0		 test	 eax, eax
  0005e	74 44		 je	 SHORT $LN13@FindVar

; 1258 : 	// first, see if it's a local variable 
; 1259 : 	for( int i = callStack[functos-1].var; i < lvartos; i++)

  00060	8b 55 08	 mov	 edx, DWORD PTR _s$[ebp]
  00063	46		 inc	 esi
  00064	83 c7 48	 add	 edi, 72			; 00000048H
  00067	3b f3		 cmp	 esi, ebx
  00069	7c c8		 jl	 SHORT $LL4@FindVar

; 1264 : 		if(!strcmp(globalVars[i].varName,s))

  0006b	8b 4d fc	 mov	 ecx, DWORD PTR _this$1$[ebp]
$LN3@FindVar:

; 1262 : 	// otherwise, try global vars 
; 1263 : 	for( int i = 0; i < gVarIndex; i++)

  0006e	8b 99 64 08 00
	00		 mov	 ebx, DWORD PTR [ecx+2148]
  00074	33 f6		 xor	 esi, esi
  00076	85 db		 test	 ebx, ebx
  00078	7e 57		 jle	 SHORT $LN6@FindVar
  0007a	8d b9 68 08 00
	00		 lea	 edi, DWORD PTR [ecx+2152]
$LL7@FindVar:

; 1264 : 		if(!strcmp(globalVars[i].varName,s))

  00080	8b c2		 mov	 eax, edx
  00082	8b cf		 mov	 ecx, edi
$LL25@FindVar:
  00084	8a 11		 mov	 dl, BYTE PTR [ecx]
  00086	3a 10		 cmp	 dl, BYTE PTR [eax]
  00088	75 30		 jne	 SHORT $LN26@FindVar
  0008a	84 d2		 test	 dl, dl
  0008c	74 12		 je	 SHORT $LN27@FindVar
  0008e	8a 51 01	 mov	 dl, BYTE PTR [ecx+1]
  00091	3a 50 01	 cmp	 dl, BYTE PTR [eax+1]
  00094	75 24		 jne	 SHORT $LN26@FindVar
  00096	83 c1 02	 add	 ecx, 2
  00099	83 c0 02	 add	 eax, 2
  0009c	84 d2		 test	 dl, dl
  0009e	75 e4		 jne	 SHORT $LL25@FindVar
$LN27@FindVar:
  000a0	33 c0		 xor	 eax, eax
  000a2	eb 1b		 jmp	 SHORT $LN28@FindVar
$LN13@FindVar:

; 1261 : 			return localVarStack[i].value;

  000a4	8b 4d fc	 mov	 ecx, DWORD PTR _this$1$[ebp]
  000a7	8d 04 f6	 lea	 eax, DWORD PTR [esi+esi*8]
  000aa	5f		 pop	 edi

; 1267 : 	return 0;
; 1268 : }

  000ab	5e		 pop	 esi
  000ac	5b		 pop	 ebx
  000ad	8b 84 c1 2c 0e
	00 00		 mov	 eax, DWORD PTR [ecx+eax*8+3628]
  000b4	8b e5		 mov	 esp, ebp
  000b6	5d		 pop	 ebp
  000b7	c2 04 00	 ret	 4
$LN26@FindVar:

; 1264 : 		if(!strcmp(globalVars[i].varName,s))

  000ba	1b c0		 sbb	 eax, eax
  000bc	83 c8 01	 or	 eax, 1
$LN28@FindVar:
  000bf	85 c0		 test	 eax, eax
  000c1	74 22		 je	 SHORT $LN14@FindVar

; 1262 : 	// otherwise, try global vars 
; 1263 : 	for( int i = 0; i < gVarIndex; i++)

  000c3	8b 55 08	 mov	 edx, DWORD PTR _s$[ebp]
  000c6	46		 inc	 esi
  000c7	83 c7 48	 add	 edi, 72			; 00000048H
  000ca	3b f3		 cmp	 esi, ebx
  000cc	7c b2		 jl	 SHORT $LL7@FindVar

; 1264 : 		if(!strcmp(globalVars[i].varName,s))

  000ce	8b 4d fc	 mov	 ecx, DWORD PTR _this$1$[ebp]
$LN6@FindVar:

; 1266 : 	SntxErr( NULL, NOT_VAR); // vaiable not found 

  000d1	8b 01		 mov	 eax, DWORD PTR [ecx]
  000d3	6a 04		 push	 4
  000d5	6a 00		 push	 0
  000d7	ff 50 18	 call	 DWORD PTR [eax+24]
  000da	5f		 pop	 edi

; 1267 : 	return 0;
; 1268 : }

  000db	5e		 pop	 esi
  000dc	33 c0		 xor	 eax, eax
  000de	5b		 pop	 ebx
  000df	8b e5		 mov	 esp, ebp
  000e1	5d		 pop	 ebp
  000e2	c2 04 00	 ret	 4
$LN14@FindVar:

; 1265 : 			return globalVars[i].value;

  000e5	8b 4d fc	 mov	 ecx, DWORD PTR _this$1$[ebp]
  000e8	8d 04 f6	 lea	 eax, DWORD PTR [esi+esi*8]
  000eb	5f		 pop	 edi

; 1267 : 	return 0;
; 1268 : }

  000ec	5e		 pop	 esi
  000ed	5b		 pop	 ebx
  000ee	8b 84 c1 ac 08
	00 00		 mov	 eax, DWORD PTR [ecx+eax*8+2220]
  000f5	8b e5		 mov	 esp, ebp
  000f7	5d		 pop	 ebp
  000f8	c2 04 00	 ret	 4
?FindVar@CScript@@QAEHPAD@Z ENDP			; CScript::FindVar
_TEXT	ENDS
; Function compile flags: /Ogtp
; File C:\IAGOS\server\v18\Source\Source\_Common\script.cpp
;	COMDAT ?GetVarPtr@CScript@@QAEPAHPAD@Z
_TEXT	SEGMENT
_this$1$ = -4						; size = 4
_varName$ = 8						; size = 4
?GetVarPtr@CScript@@QAEPAHPAD@Z PROC			; CScript::GetVarPtr, COMDAT
; _this$ = ecx

; 1235 : {

  00000	55		 push	 ebp
  00001	8b ec		 mov	 ebp, esp
  00003	51		 push	 ecx

; 1236 : 	// first, see if it's a loca variable 
; 1237 : 	for(int i = callStack[functos-1].var; i < lvartos; i++) 

  00004	8b 81 00 1e 00
	00		 mov	 eax, DWORD PTR [ecx+7680]
  0000a	8b 55 08	 mov	 edx, DWORD PTR _varName$[ebp]
  0000d	05 d5 01 00 00	 add	 eax, 469		; 000001d5H
  00012	03 c0		 add	 eax, eax
  00014	89 4d fc	 mov	 DWORD PTR _this$1$[ebp], ecx
  00017	53		 push	 ebx
  00018	8b 99 08 1e 00
	00		 mov	 ebx, DWORD PTR [ecx+7688]
  0001e	56		 push	 esi
  0001f	8b 34 c1	 mov	 esi, DWORD PTR [ecx+eax*8]
  00022	57		 push	 edi
  00023	3b f3		 cmp	 esi, ebx
  00025	7d 48		 jge	 SHORT $LN3@GetVarPtr
  00027	8d 04 f6	 lea	 eax, DWORD PTR [esi+esi*8]
  0002a	8d 3c c1	 lea	 edi, DWORD PTR [ecx+eax*8]
  0002d	0f 1f 00	 npad	 3
$LL4@GetVarPtr:

; 1238 : 	{
; 1239 : 		if(!strcmp(localVarStack[i].varName,varName)) 

  00030	8b ca		 mov	 ecx, edx
  00032	8d 87 e8 0d 00
	00		 lea	 eax, DWORD PTR [edi+3560]
$LL21@GetVarPtr:
  00038	8a 10		 mov	 dl, BYTE PTR [eax]
  0003a	3a 11		 cmp	 dl, BYTE PTR [ecx]
  0003c	75 1a		 jne	 SHORT $LN22@GetVarPtr
  0003e	84 d2		 test	 dl, dl
  00040	74 12		 je	 SHORT $LN23@GetVarPtr
  00042	8a 50 01	 mov	 dl, BYTE PTR [eax+1]
  00045	3a 51 01	 cmp	 dl, BYTE PTR [ecx+1]
  00048	75 0e		 jne	 SHORT $LN22@GetVarPtr
  0004a	83 c0 02	 add	 eax, 2
  0004d	83 c1 02	 add	 ecx, 2
  00050	84 d2		 test	 dl, dl
  00052	75 e4		 jne	 SHORT $LL21@GetVarPtr
$LN23@GetVarPtr:
  00054	33 c0		 xor	 eax, eax
  00056	eb 05		 jmp	 SHORT $LN24@GetVarPtr
$LN22@GetVarPtr:
  00058	1b c0		 sbb	 eax, eax
  0005a	83 c8 01	 or	 eax, 1
$LN24@GetVarPtr:
  0005d	85 c0		 test	 eax, eax
  0005f	74 47		 je	 SHORT $LN13@GetVarPtr

; 1236 : 	// first, see if it's a loca variable 
; 1237 : 	for(int i = callStack[functos-1].var; i < lvartos; i++) 

  00061	8b 55 08	 mov	 edx, DWORD PTR _varName$[ebp]
  00064	46		 inc	 esi
  00065	83 c7 48	 add	 edi, 72			; 00000048H
  00068	3b f3		 cmp	 esi, ebx
  0006a	7c c4		 jl	 SHORT $LL4@GetVarPtr

; 1246 : 	{
; 1247 : 		if(!strcmp(globalVars[i].varName,varName)) 

  0006c	8b 4d fc	 mov	 ecx, DWORD PTR _this$1$[ebp]
$LN3@GetVarPtr:

; 1242 : 		}
; 1243 : 	}
; 1244 : 	// if not local, try global var table 
; 1245 : 	for( int i = 0; i < gVarIndex; i++)

  0006f	8b 99 64 08 00
	00		 mov	 ebx, DWORD PTR [ecx+2148]
  00075	33 ff		 xor	 edi, edi
  00077	85 db		 test	 ebx, ebx
  00079	7e 53		 jle	 SHORT $LN6@GetVarPtr
  0007b	8b f1		 mov	 esi, ecx
  0007d	0f 1f 00	 npad	 3
$LL7@GetVarPtr:

; 1246 : 	{
; 1247 : 		if(!strcmp(globalVars[i].varName,varName)) 

  00080	8b c2		 mov	 eax, edx
  00082	8d 8e 68 08 00
	00		 lea	 ecx, DWORD PTR [esi+2152]
$LL25@GetVarPtr:
  00088	8a 11		 mov	 dl, BYTE PTR [ecx]
  0008a	3a 10		 cmp	 dl, BYTE PTR [eax]
  0008c	75 29		 jne	 SHORT $LN26@GetVarPtr
  0008e	84 d2		 test	 dl, dl
  00090	74 12		 je	 SHORT $LN27@GetVarPtr
  00092	8a 51 01	 mov	 dl, BYTE PTR [ecx+1]
  00095	3a 50 01	 cmp	 dl, BYTE PTR [eax+1]
  00098	75 1d		 jne	 SHORT $LN26@GetVarPtr
  0009a	83 c1 02	 add	 ecx, 2
  0009d	83 c0 02	 add	 eax, 2
  000a0	84 d2		 test	 dl, dl
  000a2	75 e4		 jne	 SHORT $LL25@GetVarPtr
$LN27@GetVarPtr:
  000a4	33 c0		 xor	 eax, eax
  000a6	eb 14		 jmp	 SHORT $LN28@GetVarPtr
$LN13@GetVarPtr:

; 1240 : 		{
; 1241 : 			return &localVarStack[i].value;

  000a8	8d 87 2c 0e 00
	00		 lea	 eax, DWORD PTR [edi+3628]
  000ae	5f		 pop	 edi

; 1253 : 	return NULL;
; 1254 : }

  000af	5e		 pop	 esi
  000b0	5b		 pop	 ebx
  000b1	8b e5		 mov	 esp, ebp
  000b3	5d		 pop	 ebp
  000b4	c2 04 00	 ret	 4
$LN26@GetVarPtr:

; 1246 : 	{
; 1247 : 		if(!strcmp(globalVars[i].varName,varName)) 

  000b7	1b c0		 sbb	 eax, eax
  000b9	83 c8 01	 or	 eax, 1
$LN28@GetVarPtr:
  000bc	85 c0		 test	 eax, eax
  000be	74 22		 je	 SHORT $LN14@GetVarPtr

; 1242 : 		}
; 1243 : 	}
; 1244 : 	// if not local, try global var table 
; 1245 : 	for( int i = 0; i < gVarIndex; i++)

  000c0	8b 55 08	 mov	 edx, DWORD PTR _varName$[ebp]
  000c3	47		 inc	 edi
  000c4	83 c6 48	 add	 esi, 72			; 00000048H
  000c7	3b fb		 cmp	 edi, ebx
  000c9	7c b5		 jl	 SHORT $LL7@GetVarPtr

; 1246 : 	{
; 1247 : 		if(!strcmp(globalVars[i].varName,varName)) 

  000cb	8b 4d fc	 mov	 ecx, DWORD PTR _this$1$[ebp]
$LN6@GetVarPtr:

; 1250 : 		}
; 1251 : 	}
; 1252 : 	SntxErr( NULL, NOT_VAR); // variable not found 

  000ce	8b 01		 mov	 eax, DWORD PTR [ecx]
  000d0	6a 04		 push	 4
  000d2	6a 00		 push	 0
  000d4	ff 50 18	 call	 DWORD PTR [eax+24]
  000d7	5f		 pop	 edi

; 1253 : 	return NULL;
; 1254 : }

  000d8	5e		 pop	 esi
  000d9	33 c0		 xor	 eax, eax
  000db	5b		 pop	 ebx
  000dc	8b e5		 mov	 esp, ebp
  000de	5d		 pop	 ebp
  000df	c2 04 00	 ret	 4
$LN14@GetVarPtr:
  000e2	5f		 pop	 edi

; 1248 : 		{
; 1249 : 			return &globalVars[i].value;

  000e3	8d 86 ac 08 00
	00		 lea	 eax, DWORD PTR [esi+2220]

; 1253 : 	return NULL;
; 1254 : }

  000e9	5e		 pop	 esi
  000ea	5b		 pop	 ebx
  000eb	8b e5		 mov	 esp, ebp
  000ed	5d		 pop	 ebp
  000ee	c2 04 00	 ret	 4
?GetVarPtr@CScript@@QAEPAHPAD@Z ENDP			; CScript::GetVarPtr
_TEXT	ENDS
; Function compile flags: /Ogtp
; File C:\IAGOS\server\v18\Source\Source\_Common\script.cpp
;	COMDAT ?AssignVar@CScript@@QAEXPADH@Z
_TEXT	SEGMENT
_this$1$ = -4						; size = 4
_varName$ = 8						; size = 4
_value$ = 12						; size = 4
?AssignVar@CScript@@QAEXPADH@Z PROC			; CScript::AssignVar, COMDAT
; _this$ = ecx

; 1220 : {

  00000	55		 push	 ebp
  00001	8b ec		 mov	 ebp, esp
  00003	51		 push	 ecx

; 1221 : 	// first, see if it's a loca variable 
; 1222 : 	for(int i = callStack[functos-1].var; i < lvartos; i++) {

  00004	8b 81 00 1e 00
	00		 mov	 eax, DWORD PTR [ecx+7680]
  0000a	8b 55 08	 mov	 edx, DWORD PTR _varName$[ebp]
  0000d	05 d5 01 00 00	 add	 eax, 469		; 000001d5H
  00012	03 c0		 add	 eax, eax
  00014	89 4d fc	 mov	 DWORD PTR _this$1$[ebp], ecx
  00017	53		 push	 ebx
  00018	8b 99 08 1e 00
	00		 mov	 ebx, DWORD PTR [ecx+7688]
  0001e	56		 push	 esi
  0001f	8b 34 c1	 mov	 esi, DWORD PTR [ecx+eax*8]
  00022	57		 push	 edi
  00023	3b f3		 cmp	 esi, ebx
  00025	7d 47		 jge	 SHORT $LN3@AssignVar
  00027	8d 3c f5 bd 01
	00 00		 lea	 edi, DWORD PTR [esi*8+445]
  0002e	03 fe		 add	 edi, esi
  00030	8d 3c f9	 lea	 edi, DWORD PTR [ecx+edi*8]
$LL4@AssignVar:

; 1223 : 		if(!strcmp(localVarStack[i].varName,varName)) {

  00033	8b ca		 mov	 ecx, edx
  00035	8b c7		 mov	 eax, edi
$LL21@AssignVar:
  00037	8a 10		 mov	 dl, BYTE PTR [eax]
  00039	3a 11		 cmp	 dl, BYTE PTR [ecx]
  0003b	75 1a		 jne	 SHORT $LN22@AssignVar
  0003d	84 d2		 test	 dl, dl
  0003f	74 12		 je	 SHORT $LN23@AssignVar
  00041	8a 50 01	 mov	 dl, BYTE PTR [eax+1]
  00044	3a 51 01	 cmp	 dl, BYTE PTR [ecx+1]
  00047	75 0e		 jne	 SHORT $LN22@AssignVar
  00049	83 c0 02	 add	 eax, 2
  0004c	83 c1 02	 add	 ecx, 2
  0004f	84 d2		 test	 dl, dl
  00051	75 e4		 jne	 SHORT $LL21@AssignVar
$LN23@AssignVar:
  00053	33 c0		 xor	 eax, eax
  00055	eb 05		 jmp	 SHORT $LN24@AssignVar
$LN22@AssignVar:
  00057	1b c0		 sbb	 eax, eax
  00059	83 c8 01	 or	 eax, 1
$LN24@AssignVar:
  0005c	85 c0		 test	 eax, eax
  0005e	74 44		 je	 SHORT $LN13@AssignVar

; 1221 : 	// first, see if it's a loca variable 
; 1222 : 	for(int i = callStack[functos-1].var; i < lvartos; i++) {

  00060	8b 55 08	 mov	 edx, DWORD PTR _varName$[ebp]
  00063	46		 inc	 esi
  00064	83 c7 48	 add	 edi, 72			; 00000048H
  00067	3b f3		 cmp	 esi, ebx
  00069	7c c8		 jl	 SHORT $LL4@AssignVar

; 1229 : 		if(!strcmp(globalVars[i].varName,varName)) {

  0006b	8b 4d fc	 mov	 ecx, DWORD PTR _this$1$[ebp]
$LN3@AssignVar:

; 1225 : 		}
; 1226 : 	}
; 1227 : 	// if not local, try global var table 
; 1228 : 	for( int i = 0; i < gVarIndex; i++)

  0006e	8b 99 64 08 00
	00		 mov	 ebx, DWORD PTR [ecx+2148]
  00074	33 f6		 xor	 esi, esi
  00076	85 db		 test	 ebx, ebx
  00078	7e 5a		 jle	 SHORT $LN6@AssignVar
  0007a	8d b9 68 08 00
	00		 lea	 edi, DWORD PTR [ecx+2152]
$LL7@AssignVar:

; 1229 : 		if(!strcmp(globalVars[i].varName,varName)) {

  00080	8b c2		 mov	 eax, edx
  00082	8b cf		 mov	 ecx, edi
$LL25@AssignVar:
  00084	8a 11		 mov	 dl, BYTE PTR [ecx]
  00086	3a 10		 cmp	 dl, BYTE PTR [eax]
  00088	75 33		 jne	 SHORT $LN26@AssignVar
  0008a	84 d2		 test	 dl, dl
  0008c	74 12		 je	 SHORT $LN27@AssignVar
  0008e	8a 51 01	 mov	 dl, BYTE PTR [ecx+1]
  00091	3a 50 01	 cmp	 dl, BYTE PTR [eax+1]
  00094	75 27		 jne	 SHORT $LN26@AssignVar
  00096	83 c1 02	 add	 ecx, 2
  00099	83 c0 02	 add	 eax, 2
  0009c	84 d2		 test	 dl, dl
  0009e	75 e4		 jne	 SHORT $LL25@AssignVar
$LN27@AssignVar:
  000a0	33 c0		 xor	 eax, eax
  000a2	eb 1e		 jmp	 SHORT $LN28@AssignVar
$LN13@AssignVar:

; 1224 : 			localVarStack[i].value = value;	return;

  000a4	8b 55 fc	 mov	 edx, DWORD PTR _this$1$[ebp]
  000a7	8d 0c f6	 lea	 ecx, DWORD PTR [esi+esi*8]
  000aa	8b 45 0c	 mov	 eax, DWORD PTR _value$[ebp]
  000ad	5f		 pop	 edi

; 1233 : }

  000ae	5e		 pop	 esi
  000af	89 84 ca 2c 0e
	00 00		 mov	 DWORD PTR [edx+ecx*8+3628], eax
  000b6	5b		 pop	 ebx
  000b7	8b e5		 mov	 esp, ebp
  000b9	5d		 pop	 ebp
  000ba	c2 08 00	 ret	 8
$LN26@AssignVar:

; 1229 : 		if(!strcmp(globalVars[i].varName,varName)) {

  000bd	1b c0		 sbb	 eax, eax
  000bf	83 c8 01	 or	 eax, 1
$LN28@AssignVar:
  000c2	85 c0		 test	 eax, eax
  000c4	74 20		 je	 SHORT $LN14@AssignVar

; 1225 : 		}
; 1226 : 	}
; 1227 : 	// if not local, try global var table 
; 1228 : 	for( int i = 0; i < gVarIndex; i++)

  000c6	8b 55 08	 mov	 edx, DWORD PTR _varName$[ebp]
  000c9	46		 inc	 esi
  000ca	83 c7 48	 add	 edi, 72			; 00000048H
  000cd	3b f3		 cmp	 esi, ebx
  000cf	7c af		 jl	 SHORT $LL7@AssignVar

; 1229 : 		if(!strcmp(globalVars[i].varName,varName)) {

  000d1	8b 4d fc	 mov	 ecx, DWORD PTR _this$1$[ebp]
$LN6@AssignVar:

; 1231 : 		}
; 1232 : 	SntxErr( NULL, NOT_VAR); // variable not found 

  000d4	8b 01		 mov	 eax, DWORD PTR [ecx]
  000d6	6a 04		 push	 4
  000d8	6a 00		 push	 0
  000da	ff 50 18	 call	 DWORD PTR [eax+24]
  000dd	5f		 pop	 edi

; 1233 : }

  000de	5e		 pop	 esi
  000df	5b		 pop	 ebx
  000e0	8b e5		 mov	 esp, ebp
  000e2	5d		 pop	 ebp
  000e3	c2 08 00	 ret	 8
$LN14@AssignVar:

; 1230 : 			globalVars[i].value = value; return;

  000e6	8b 55 fc	 mov	 edx, DWORD PTR _this$1$[ebp]
  000e9	8d 0c f6	 lea	 ecx, DWORD PTR [esi+esi*8]
  000ec	8b 45 0c	 mov	 eax, DWORD PTR _value$[ebp]
  000ef	5f		 pop	 edi

; 1233 : }

  000f0	5e		 pop	 esi
  000f1	89 84 ca ac 08
	00 00		 mov	 DWORD PTR [edx+ecx*8+2220], eax
  000f8	5b		 pop	 ebx
  000f9	8b e5		 mov	 esp, ebp
  000fb	5d		 pop	 ebp
  000fc	c2 08 00	 ret	 8
?AssignVar@CScript@@QAEXPADH@Z ENDP			; CScript::AssignVar
_TEXT	ENDS
; Function compile flags: /Ogtp
; File C:\IAGOS\server\v18\Source\Source\_Common\script.cpp
;	COMDAT ?FuncPush@CScript@@QAEXUFuncInfo@@@Z
_TEXT	SEGMENT
_fi$ = 8						; size = 16
?FuncPush@CScript@@QAEXUFuncInfo@@@Z PROC		; CScript::FuncPush, COMDAT
; _this$ = ecx

; 1213 : {

  00000	55		 push	 ebp
  00001	8b ec		 mov	 ebp, esp
  00003	56		 push	 esi
  00004	8b f1		 mov	 esi, ecx

; 1214 : 	if(functos > NUM_FUNC)

  00006	83 be 00 1e 00
	00 0a		 cmp	 DWORD PTR [esi+7680], 10 ; 0000000aH
  0000d	7e 09		 jle	 SHORT $LN2@FuncPush

; 1215 : 		SntxErr( NULL, NEST_FUNC);

  0000f	8b 06		 mov	 eax, DWORD PTR [esi]
  00011	6a 0a		 push	 10			; 0000000aH
  00013	6a 00		 push	 0
  00015	ff 50 18	 call	 DWORD PTR [eax+24]
$LN2@FuncPush:

; 1216 : 	callStack[functos] = fi;

  00018	8b 86 00 1e 00
	00		 mov	 eax, DWORD PTR [esi+7680]
  0001e	0f 10 45 08	 movups	 xmm0, XMMWORD PTR _fi$[ebp]
  00022	05 d6 01 00 00	 add	 eax, 470		; 000001d6H
  00027	03 c0		 add	 eax, eax
  00029	0f 11 04 c6	 movups	 XMMWORD PTR [esi+eax*8], xmm0

; 1217 : 	functos++;

  0002d	ff 86 00 1e 00
	00		 inc	 DWORD PTR [esi+7680]
  00033	5e		 pop	 esi

; 1218 : }

  00034	5d		 pop	 ebp
  00035	c2 10 00	 ret	 16			; 00000010H
?FuncPush@CScript@@QAEXUFuncInfo@@@Z ENDP		; CScript::FuncPush
_TEXT	ENDS
; Function compile flags: /Ogtp
; File C:\IAGOS\server\v18\Source\Source\_Common\script.cpp
;	COMDAT ?FuncPop@CScript@@QAE?AUFuncInfo@@XZ
_TEXT	SEGMENT
___$ReturnUdt$ = 8					; size = 4
?FuncPop@CScript@@QAE?AUFuncInfo@@XZ PROC		; CScript::FuncPop, COMDAT
; _this$ = ecx

; 1207 : {

  00000	55		 push	 ebp
  00001	8b ec		 mov	 ebp, esp
  00003	56		 push	 esi
  00004	8b f1		 mov	 esi, ecx

; 1208 : 	functos--;

  00006	83 86 00 1e 00
	00 ff		 add	 DWORD PTR [esi+7680], -1

; 1209 : 	if(functos < 0) SntxErr( NULL, RET_NOCALL);

  0000d	79 09		 jns	 SHORT $LN2@FuncPop
  0000f	8b 06		 mov	 eax, DWORD PTR [esi]
  00011	6a 0b		 push	 11			; 0000000bH
  00013	6a 00		 push	 0
  00015	ff 50 18	 call	 DWORD PTR [eax+24]
$LN2@FuncPop:

; 1210 : 	return callStack[functos];

  00018	8b 86 00 1e 00
	00		 mov	 eax, DWORD PTR [esi+7680]
  0001e	05 d6 01 00 00	 add	 eax, 470		; 000001d6H
  00023	03 c0		 add	 eax, eax
  00025	0f 10 04 c6	 movups	 xmm0, XMMWORD PTR [esi+eax*8]
  00029	8b 45 08	 mov	 eax, DWORD PTR ___$ReturnUdt$[ebp]
  0002c	5e		 pop	 esi
  0002d	0f 11 00	 movups	 XMMWORD PTR [eax], xmm0

; 1211 : }

  00030	5d		 pop	 ebp
  00031	c2 04 00	 ret	 4
?FuncPop@CScript@@QAE?AUFuncInfo@@XZ ENDP		; CScript::FuncPop
_TEXT	ENDS
; Function compile flags: /Ogtp
; File C:\IAGOS\server\v18\Source\Source\_Common\script.cpp
;	COMDAT ?LocalPush@CScript@@QAEXUVarType@@@Z
_TEXT	SEGMENT
_i$ = 8							; size = 72
?LocalPush@CScript@@QAEXUVarType@@@Z PROC		; CScript::LocalPush, COMDAT
; _this$ = ecx

; 1200 : {

  00000	55		 push	 ebp
  00001	8b ec		 mov	 ebp, esp
  00003	56		 push	 esi
  00004	8b f1		 mov	 esi, ecx

; 1201 : 	if(lvartos > NUM_LOCAL_VARS)

  00006	83 be 08 1e 00
	00 0a		 cmp	 DWORD PTR [esi+7688], 10 ; 0000000aH
  0000d	7e 09		 jle	 SHORT $LN2@LocalPush

; 1202 : 		SntxErr( NULL, TOO_MANY_LVARS);

  0000f	8b 06		 mov	 eax, DWORD PTR [esi]
  00011	6a 10		 push	 16			; 00000010H
  00013	6a 00		 push	 0
  00015	ff 50 18	 call	 DWORD PTR [eax+24]
$LN2@LocalPush:

; 1203 : 	localVarStack[lvartos] = i;

  00018	8b 86 08 1e 00
	00		 mov	 eax, DWORD PTR [esi+7688]
  0001e	0f 10 45 08	 movups	 xmm0, XMMWORD PTR _i$[ebp]
  00022	8d 04 c0	 lea	 eax, DWORD PTR [eax+eax*8]
  00025	0f 11 84 c6 e8
	0d 00 00	 movups	 XMMWORD PTR [esi+eax*8+3560], xmm0
  0002d	0f 10 45 18	 movups	 xmm0, XMMWORD PTR _i$[ebp+16]
  00031	0f 11 84 c6 f8
	0d 00 00	 movups	 XMMWORD PTR [esi+eax*8+3576], xmm0
  00039	0f 10 45 28	 movups	 xmm0, XMMWORD PTR _i$[ebp+32]
  0003d	0f 11 84 c6 08
	0e 00 00	 movups	 XMMWORD PTR [esi+eax*8+3592], xmm0
  00045	0f 10 45 38	 movups	 xmm0, XMMWORD PTR _i$[ebp+48]
  00049	0f 11 84 c6 18
	0e 00 00	 movups	 XMMWORD PTR [esi+eax*8+3608], xmm0
  00051	f3 0f 7e 45 48	 movq	 xmm0, QWORD PTR _i$[ebp+64]
  00056	66 0f d6 84 c6
	28 0e 00 00	 movq	 QWORD PTR [esi+eax*8+3624], xmm0

; 1204 : 	lvartos++;

  0005f	ff 86 08 1e 00
	00		 inc	 DWORD PTR [esi+7688]
  00065	5e		 pop	 esi

; 1205 : }

  00066	5d		 pop	 ebp
  00067	c2 48 00	 ret	 72			; 00000048H
?LocalPush@CScript@@QAEXUVarType@@@Z ENDP		; CScript::LocalPush
_TEXT	ENDS
; Function compile flags: /Ogtp
; File C:\IAGOS\server\v18\Source\Source\_Common\script.cpp
;	COMDAT ?FuncRet@CScript@@QAEXXZ
_TEXT	SEGMENT
_value$ = -4						; size = 4
?FuncRet@CScript@@QAEXXZ PROC				; CScript::FuncRet, COMDAT
; _this$ = ecx

; 1193 : {

  00000	55		 push	 ebp
  00001	8b ec		 mov	 ebp, esp
  00003	51		 push	 ecx
  00004	56		 push	 esi

; 1194 : 	int value = 0;
; 1195 : 	// get return valuem if any 
; 1196 : 	Compute(&value);

  00005	8d 45 fc	 lea	 eax, DWORD PTR _value$[ebp]
  00008	c7 45 fc 00 00
	00 00		 mov	 DWORD PTR _value$[ebp], 0
  0000f	50		 push	 eax
  00010	8b f1		 mov	 esi, ecx
  00012	e8 00 00 00 00	 call	 ?Compute@CScript@@QAEXPAH@Z ; CScript::Compute

; 1197 : 	retValue = value;

  00017	8b 45 fc	 mov	 eax, DWORD PTR _value$[ebp]
  0001a	89 86 10 1e 00
	00		 mov	 DWORD PTR [esi+7696], eax
  00020	5e		 pop	 esi

; 1198 : }

  00021	8b e5		 mov	 esp, ebp
  00023	5d		 pop	 ebp
  00024	c3		 ret	 0
?FuncRet@CScript@@QAEXXZ ENDP				; CScript::FuncRet
_TEXT	ENDS
; Function compile flags: /Ogtp
; File C:\IAGOS\server\v18\Source\Source\_Common\script.cpp
;	COMDAT ?GetArgs@CScript@@QAEXXZ
_TEXT	SEGMENT
_i$ = -204						; size = 72
_value$ = -132						; size = 4
_temp$ = -128						; size = 124
__$ArrayPad$ = -4					; size = 4
?GetArgs@CScript@@QAEXXZ PROC				; CScript::GetArgs, COMDAT
; _this$ = ecx

; 1137 : {

  00000	55		 push	 ebp
  00001	8b ec		 mov	 ebp, esp
  00003	81 ec cc 00 00
	00		 sub	 esp, 204		; 000000ccH
  00009	a1 00 00 00 00	 mov	 eax, DWORD PTR ___security_cookie
  0000e	33 c5		 xor	 eax, ebp
  00010	89 45 fc	 mov	 DWORD PTR __$ArrayPad$[ebp], eax
  00013	53		 push	 ebx
  00014	56		 push	 esi
  00015	8b f1		 mov	 esi, ecx
  00017	57		 push	 edi

; 1138 : 	int value, count, temp[NUM_PARAMS];
; 1139 : 	VarType i;
; 1140 : 	count = 0;

  00018	33 ff		 xor	 edi, edi

; 1141 : 	GetToken();

  0001a	57		 push	 edi
  0001b	8b 06		 mov	 eax, DWORD PTR [esi]
  0001d	ff 50 14	 call	 DWORD PTR [eax+20]

; 1142 : 	if( *token != '(' ) 

  00020	8b 46 3c	 mov	 eax, DWORD PTR [esi+60]
  00023	80 38 28	 cmp	 BYTE PTR [eax], 40	; 00000028H
  00026	74 0a		 je	 SHORT $LN8@GetArgs

; 1143 : 		SntxErr( NULL, PAREN_EXPECTED);

  00028	8b 06		 mov	 eax, DWORD PTR [esi]
  0002a	8b ce		 mov	 ecx, esi
  0002c	6a 0c		 push	 12			; 0000000cH
  0002e	57		 push	 edi
  0002f	ff 50 18	 call	 DWORD PTR [eax+24]
$LN8@GetArgs:

; 1144 : 
; 1145 : 	GetToken();

  00032	8b 06		 mov	 eax, DWORD PTR [esi]
  00034	8b ce		 mov	 ecx, esi
  00036	6a 00		 push	 0
  00038	ff 50 14	 call	 DWORD PTR [eax+20]

; 1146 : 	if( *token == ')' ) 

  0003b	8b 46 3c	 mov	 eax, DWORD PTR [esi+60]
  0003e	80 38 29	 cmp	 BYTE PTR [eax], 41	; 00000029H
  00041	0f 84 b6 00 00
	00		 je	 $LN6@GetArgs

; 1147 : 		return;
; 1148 : 	PutBack();

  00047	8b 06		 mov	 eax, DWORD PTR [esi]
  00049	8b ce		 mov	 ecx, esi
  0004b	ff 50 10	 call	 DWORD PTR [eax+16]
  0004e	66 90		 npad	 2
$LL4@GetArgs:

; 1149 : 
; 1150 : 	// process a comma-separated list of values 
; 1151 : 	do 
; 1152 : 	{
; 1153 : 		Compute(&value);

  00050	8d 85 7c ff ff
	ff		 lea	 eax, DWORD PTR _value$[ebp]
  00056	8b ce		 mov	 ecx, esi
  00058	50		 push	 eax
  00059	8b df		 mov	 ebx, edi
  0005b	e8 00 00 00 00	 call	 ?Compute@CScript@@QAEXPAH@Z ; CScript::Compute

; 1154 : 		temp[count] = value; // save temporarily 

  00060	8b 85 7c ff ff
	ff		 mov	 eax, DWORD PTR _value$[ebp]

; 1155 : 		GetToken();

  00066	8b ce		 mov	 ecx, esi
  00068	89 44 bd 80	 mov	 DWORD PTR _temp$[ebp+edi*4], eax
  0006c	8b 06		 mov	 eax, DWORD PTR [esi]
  0006e	6a 00		 push	 0
  00070	ff 50 14	 call	 DWORD PTR [eax+20]

; 1156 : 		count++;
; 1157 : 	} while(*token==',');

  00073	8b 46 3c	 mov	 eax, DWORD PTR [esi+60]
  00076	47		 inc	 edi
  00077	80 38 2c	 cmp	 BYTE PTR [eax], 44	; 0000002cH
  0007a	74 d4		 je	 SHORT $LL4@GetArgs

; 1158 : 
; 1159 : 	// now, push on localVarStack in reverse order 
; 1160 : 	for(count--; count >= 0; count--) 

  0007c	85 db		 test	 ebx, ebx
  0007e	0f 88 79 00 00
	00		 js	 $LN6@GetArgs
  00084	0f 10 85 64 ff
	ff ff		 movups	 xmm0, XMMWORD PTR _i$[ebp+48]
  0008b	0f 10 8d 54 ff
	ff ff		 movups	 xmm1, XMMWORD PTR _i$[ebp+32]
  00092	0f 10 95 44 ff
	ff ff		 movups	 xmm2, XMMWORD PTR _i$[ebp+16]
  00099	0f 10 9d 34 ff
	ff ff		 movups	 xmm3, XMMWORD PTR _i$[ebp]
$LL7@GetArgs:

; 1161 : 	{
; 1162 : 		i.value = temp[count];

  000a0	8b 44 9d 80	 mov	 eax, DWORD PTR _temp$[ebp+ebx*4]

; 1163 : 		i.varType = ARG;
; 1164 : 		LocalPush(i);

  000a4	83 ec 48	 sub	 esp, 72			; 00000048H
  000a7	89 85 78 ff ff
	ff		 mov	 DWORD PTR _i$[ebp+68], eax
  000ad	8b ce		 mov	 ecx, esi
  000af	8b c4		 mov	 eax, esp
  000b1	c7 85 74 ff ff
	ff 01 00 00 00	 mov	 DWORD PTR _i$[ebp+64], 1
  000bb	0f 11 18	 movups	 XMMWORD PTR [eax], xmm3
  000be	0f 11 50 10	 movups	 XMMWORD PTR [eax+16], xmm2
  000c2	0f 11 48 20	 movups	 XMMWORD PTR [eax+32], xmm1
  000c6	0f 11 40 30	 movups	 XMMWORD PTR [eax+48], xmm0
  000ca	f3 0f 7e 85 74
	ff ff ff	 movq	 xmm0, QWORD PTR _i$[ebp+64]
  000d2	66 0f d6 40 40	 movq	 QWORD PTR [eax+64], xmm0
  000d7	e8 00 00 00 00	 call	 ?LocalPush@CScript@@QAEXUVarType@@@Z ; CScript::LocalPush
  000dc	83 eb 01	 sub	 ebx, 1
  000df	0f 10 85 64 ff
	ff ff		 movups	 xmm0, XMMWORD PTR _i$[ebp+48]
  000e6	0f 10 8d 54 ff
	ff ff		 movups	 xmm1, XMMWORD PTR _i$[ebp+32]
  000ed	0f 10 95 44 ff
	ff ff		 movups	 xmm2, XMMWORD PTR _i$[ebp+16]
  000f4	0f 10 9d 34 ff
	ff ff		 movups	 xmm3, XMMWORD PTR _i$[ebp]
  000fb	79 a3		 jns	 SHORT $LL7@GetArgs
$LN6@GetArgs:

; 1165 : 	}
; 1166 : }

  000fd	8b 4d fc	 mov	 ecx, DWORD PTR __$ArrayPad$[ebp]
  00100	5f		 pop	 edi
  00101	5e		 pop	 esi
  00102	33 cd		 xor	 ecx, ebp
  00104	5b		 pop	 ebx
  00105	e8 00 00 00 00	 call	 @__security_check_cookie@4
  0010a	8b e5		 mov	 esp, ebp
  0010c	5d		 pop	 ebp
  0010d	c3		 ret	 0
?GetArgs@CScript@@QAEXXZ ENDP				; CScript::GetArgs
_TEXT	ENDS
; Function compile flags: /Ogtp
; File C:\IAGOS\server\v18\Source\Source\_Common\script.cpp
;	COMDAT ?Call@CScript@@QAEXXZ
_TEXT	SEGMENT
_fi$ = -20						; size = 16
$T1 = -20						; size = 16
_loc$1$ = -4						; size = 4
?Call@CScript@@QAEXXZ PROC				; CScript::Call, COMDAT
; _this$ = ecx

; 1101 : {

  00000	55		 push	 ebp
  00001	8b ec		 mov	 ebp, esp
  00003	83 ec 14	 sub	 esp, 20			; 00000014H
  00006	53		 push	 ebx
  00007	56		 push	 esi
  00008	8b d9		 mov	 ebx, ecx
  0000a	57		 push	 edi

; 1102 : 	char *loc;
; 1103 : 	CHAR* temp;
; 1104 : 	int lvartemp;
; 1105 : 	FuncInfo fi;
; 1106 : 
; 1107 : 	loc = FindFunc( token );     // find entry point of function

  0000b	ff 73 3c	 push	 DWORD PTR [ebx+60]
  0000e	e8 00 00 00 00	 call	 ?FindFunc@CScript@@QAEPADPAD@Z ; CScript::FindFunc
  00013	89 45 fc	 mov	 DWORD PTR _loc$1$[ebp], eax

; 1108 : 	if( loc == NULL )

  00016	8b cb		 mov	 ecx, ebx
  00018	85 c0		 test	 eax, eax
  0001a	75 10		 jne	 SHORT $LN2@Call

; 1109 : 		SntxErr( NULL, FUNC_UNDEF );   // function not defined

  0001c	8b 03		 mov	 eax, DWORD PTR [ebx]
  0001e	6a 08		 push	 8
  00020	6a 00		 push	 0
  00022	ff 50 18	 call	 DWORD PTR [eax+24]

; 1129 : 		lvartemp  = fi.var;
; 1130 : 		labeltos  = fi.label;
; 1131 : 		answerCnt = fi.answer;
; 1132 : 		lvartos   = fi.var;
; 1133 : 		blocktos  = fi.block;
; 1134 : 	}
; 1135 : }

  00025	5f		 pop	 edi
  00026	5e		 pop	 esi
  00027	5b		 pop	 ebx
  00028	8b e5		 mov	 esp, ebp
  0002a	5d		 pop	 ebp
  0002b	c3		 ret	 0
$LN2@Call:

; 1110 : 	else 
; 1111 : 	{
; 1112 : 		lvartemp = lvartos;    // save local var stack index

  0002c	8b b3 08 1e 00
	00		 mov	 esi, DWORD PTR [ebx+7688]

; 1113 : 		GetArgs(); 			   // get function arguments

  00032	e8 00 00 00 00	 call	 ?GetArgs@CScript@@QAEXXZ ; CScript::GetArgs

; 1114 : 		temp = m_pProg; 		   // save return location
; 1115 : 		fi.var    = lvartemp;
; 1116 : 		fi.label  = labeltos;

  00037	8b 83 0c 1e 00
	00		 mov	 eax, DWORD PTR [ebx+7692]

; 1117 : 		fi.answer = answerCnt;
; 1118 : 		fi.block  = blocktos;
; 1119 : 		retValue  = TRUE; // ĆăĽÇŔÇ µđĆúĆ® ¸®ĹĎ°ŞŔş 1ŔĚ´Ů.
; 1120 : 		FuncPush(fi);          // save local var stack index

  0003d	83 ec 10	 sub	 esp, 16			; 00000010H
  00040	8b 7b 18	 mov	 edi, DWORD PTR [ebx+24]
  00043	8b cb		 mov	 ecx, ebx
  00045	89 45 f0	 mov	 DWORD PTR _fi$[ebp+4], eax
  00048	8b 83 04 1e 00
	00		 mov	 eax, DWORD PTR [ebx+7684]
  0004e	89 45 f4	 mov	 DWORD PTR _fi$[ebp+8], eax
  00051	8b 83 18 1e 00
	00		 mov	 eax, DWORD PTR [ebx+7704]
  00057	89 45 f8	 mov	 DWORD PTR _fi$[ebp+12], eax
  0005a	8b c4		 mov	 eax, esp
  0005c	89 75 ec	 mov	 DWORD PTR _fi$[ebp], esi
  0005f	0f 10 45 ec	 movups	 xmm0, XMMWORD PTR _fi$[ebp]
  00063	c7 83 10 1e 00
	00 01 00 00 00	 mov	 DWORD PTR [ebx+7696], 1
  0006d	0f 11 00	 movups	 XMMWORD PTR [eax], xmm0
  00070	e8 00 00 00 00	 call	 ?FuncPush@CScript@@QAEXUFuncInfo@@@Z ; CScript::FuncPush

; 1121 : 		m_pProg      = loc; 	   // reset m_pProg to start of function

  00075	8b 45 fc	 mov	 eax, DWORD PTR _loc$1$[ebp]

; 1122 : 		GetParams(); 		   // load the functuon's parameters with the values of the arguments

  00078	8b cb		 mov	 ecx, ebx
  0007a	89 43 18	 mov	 DWORD PTR [ebx+24], eax
  0007d	e8 00 00 00 00	 call	 ?GetParams@CScript@@QAEXXZ ; CScript::GetParams

; 1123 : 		FindLabel();		   // find label and it's push label table

  00082	8b cb		 mov	 ecx, ebx
  00084	e8 00 00 00 00	 call	 ?FindLabel@CScript@@QAEXXZ ; CScript::FindLabel

; 1124 : 		blocktos  =
; 1125 : 		retSign   = 0;
; 1126 : 		InterpBlock(); 		   // interpret the function

  00089	6a 00		 push	 0
  0008b	8b cb		 mov	 ecx, ebx
  0008d	c7 83 14 1e 00
	00 00 00 00 00	 mov	 DWORD PTR [ebx+7700], 0
  00097	c7 83 18 1e 00
	00 00 00 00 00	 mov	 DWORD PTR [ebx+7704], 0
  000a1	e8 00 00 00 00	 call	 ?InterpBlock@CScript@@QAEHH@Z ; CScript::InterpBlock

; 1127 : 		m_pProg      = temp; 	   // reset the program pointer
; 1128 : 		fi        = FuncPop(); // reset the local var stack

  000a6	8d 45 ec	 lea	 eax, DWORD PTR $T1[ebp]
  000a9	89 7b 18	 mov	 DWORD PTR [ebx+24], edi
  000ac	50		 push	 eax
  000ad	8b cb		 mov	 ecx, ebx
  000af	e8 00 00 00 00	 call	 ?FuncPop@CScript@@QAE?AUFuncInfo@@XZ ; CScript::FuncPop

; 1129 : 		lvartemp  = fi.var;
; 1130 : 		labeltos  = fi.label;
; 1131 : 		answerCnt = fi.answer;
; 1132 : 		lvartos   = fi.var;
; 1133 : 		blocktos  = fi.block;
; 1134 : 	}
; 1135 : }

  000b4	5f		 pop	 edi
  000b5	5e		 pop	 esi
  000b6	0f 10 08	 movups	 xmm1, XMMWORD PTR [eax]
  000b9	0f 28 c1	 movaps	 xmm0, xmm1
  000bc	66 0f 7e 8b 08
	1e 00 00	 movd	 DWORD PTR [ebx+7688], xmm1
  000c4	66 0f 73 d8 04	 psrldq	 xmm0, 4
  000c9	66 0f 7e 83 0c
	1e 00 00	 movd	 DWORD PTR [ebx+7692], xmm0
  000d1	0f 28 c1	 movaps	 xmm0, xmm1
  000d4	66 0f 73 d8 08	 psrldq	 xmm0, 8
  000d9	66 0f 73 d9 0c	 psrldq	 xmm1, 12		; 0000000cH
  000de	66 0f 7e 83 04
	1e 00 00	 movd	 DWORD PTR [ebx+7684], xmm0
  000e6	66 0f 7e 8b 18
	1e 00 00	 movd	 DWORD PTR [ebx+7704], xmm1
  000ee	5b		 pop	 ebx
  000ef	8b e5		 mov	 esp, ebp
  000f1	5d		 pop	 ebp
  000f2	c3		 ret	 0
?Call@CScript@@QAEXXZ ENDP				; CScript::Call
_TEXT	ENDS
; Function compile flags: /Ogtp
; File C:\IAGOS\server\v18\Source\Source\_Common\script.cpp
; File C:\IAGOS\server\v18\Source\Source\_Common\script.h
; File C:\IAGOS\server\v18\Source\Source\_Common\script.cpp
;	COMDAT ?Compile@CScript@@QAEXXZ
_TEXT	SEGMENT
_cplProg$ = -264					; size = 4
_str$ = -260						; size = 256
__$ArrayPad$ = -4					; size = 4
?Compile@CScript@@QAEXXZ PROC				; CScript::Compile, COMDAT
; _this$ = ecx

; 556  : {

  00000	55		 push	 ebp
  00001	8b ec		 mov	 ebp, esp
  00003	81 ec 08 01 00
	00		 sub	 esp, 264		; 00000108H
  00009	a1 00 00 00 00	 mov	 eax, DWORD PTR ___security_cookie
  0000e	33 c5		 xor	 eax, ebp
  00010	89 45 fc	 mov	 DWORD PTR __$ArrayPad$[ebp], eax
  00013	53		 push	 ebx
  00014	56		 push	 esi
  00015	8b f1		 mov	 esi, ecx
  00017	57		 push	 edi

; 557  : 	int r = 0; 
; 558  : 	char str[256]; 
; 559  : 	LPSTR cplProg  = new CHAR[m_nProgSize];

  00018	ff 76 0c	 push	 DWORD PTR [esi+12]
  0001b	e8 00 00 00 00	 call	 ??_U@YAPAXI@Z		; operator new[]
  00020	83 c4 04	 add	 esp, 4
  00023	8b d8		 mov	 ebx, eax

; 560  : 	LPSTR pBakProg = cplProg;
; 561  : 	Write(&cplProg,"# ");

  00025	8d 85 f8 fe ff
	ff		 lea	 eax, DWORD PTR _cplProg$[ebp]
  0002b	89 9d f8 fe ff
	ff		 mov	 DWORD PTR _cplProg$[ebp], ebx
  00031	8b ce		 mov	 ecx, esi
  00033	68 00 00 00 00	 push	 OFFSET ??_C@_02KPDBPKPG@?$CD?5@
  00038	50		 push	 eax
  00039	e8 00 00 00 00	 call	 ?Write@CScript@@QAEXPAPADPAD@Z ; CScript::Write
; File C:\IAGOS\server\v18\Source\Source\_Common\script.h

; 217  : 	void			SetInterpriterMode() { process = INTERPRITER; }

  0003e	c7 86 58 08 00
	00 00 00 00 00	 mov	 DWORD PTR [esi+2136], 0
$LL4@Compile:
; File C:\IAGOS\server\v18\Source\Source\_Common\script.cpp

; 565  : 		GetToken();

  00048	8b 06		 mov	 eax, DWORD PTR [esi]
  0004a	8b ce		 mov	 ecx, esi
  0004c	6a 00		 push	 0
  0004e	ff 50 14	 call	 DWORD PTR [eax+20]

; 566  : 		switch(tokenType) 

  00051	8b 86 40 08 00
	00		 mov	 eax, DWORD PTR [esi+2112]
  00057	83 e8 02	 sub	 eax, 2
  0005a	0f 84 ea 00 00
	00		 je	 $LN17@Compile
  00060	83 e8 03	 sub	 eax, 3
  00063	74 3b		 je	 SHORT $LN20@Compile
  00065	83 e8 01	 sub	 eax, 1
  00068	8b ce		 mov	 ecx, esi
  0006a	8d 85 f8 fe ff
	ff		 lea	 eax, DWORD PTR _cplProg$[ebp]
  00070	74 08		 je	 SHORT $LN16@Compile

; 613  : 			default:
; 614  : 				Write(&cplProg,token);

  00072	ff 76 3c	 push	 DWORD PTR [esi+60]
  00075	e9 0b 01 00 00	 jmp	 $LN60@Compile
$LN16@Compile:

; 567  : 		{
; 568  : 			case STRING:
; 569  : 				Write(&cplProg,"\"");

  0007a	68 00 00 00 00	 push	 OFFSET ??_C@_01BJJEKLCA@?$CC@
  0007f	50		 push	 eax
  00080	e8 00 00 00 00	 call	 ?Write@CScript@@QAEXPAPADPAD@Z ; CScript::Write

; 570  : 				Write(&cplProg,token);

  00085	ff 76 3c	 push	 DWORD PTR [esi+60]
  00088	8d 85 f8 fe ff
	ff		 lea	 eax, DWORD PTR _cplProg$[ebp]
  0008e	8b ce		 mov	 ecx, esi
  00090	50		 push	 eax
  00091	e8 00 00 00 00	 call	 ?Write@CScript@@QAEXPAPADPAD@Z ; CScript::Write

; 571  : 				Write(&cplProg,"\"");

  00096	68 00 00 00 00	 push	 OFFSET ??_C@_01BJJEKLCA@?$CC@

; 572  : 				break;

  0009b	e9 dd 00 00 00	 jmp	 $LN61@Compile
$LN20@Compile:

; 583  : 				break;
; 584  : 			case KEYWORD:
; 585  : 				switch(cmd) 

  000a0	0f be 8e e4 0d
	00 00		 movsx	 ecx, BYTE PTR [esi+3556]
  000a7	8b c1		 mov	 eax, ecx
  000a9	83 e8 12	 sub	 eax, 18			; 00000012H
  000ac	74 5f		 je	 SHORT $LN37@Compile
  000ae	83 e8 01	 sub	 eax, 1
  000b1	74 5a		 je	 SHORT $LN37@Compile
  000b3	83 e8 01	 sub	 eax, 1
  000b6	74 30		 je	 SHORT $LN23@Compile

; 600  : 					default:
; 601  : 						str[0] = '@';	itoa(cmd,&str[1],10);

  000b8	6a 0a		 push	 10			; 0000000aH
  000ba	8d 85 fd fe ff
	ff		 lea	 eax, DWORD PTR _str$[ebp+1]
  000c0	c6 85 fc fe ff
	ff 40		 mov	 BYTE PTR _str$[ebp], 64	; 00000040H
  000c7	50		 push	 eax
  000c8	51		 push	 ecx
  000c9	e8 00 00 00 00	 call	 _itoa
  000ce	83 c4 0c	 add	 esp, 12			; 0000000cH

; 602  : 						Write(&cplProg,str);

  000d1	8d 85 fc fe ff
	ff		 lea	 eax, DWORD PTR _str$[ebp]
  000d7	8b ce		 mov	 ecx, esi
  000d9	50		 push	 eax
  000da	8d 85 f8 fe ff
	ff		 lea	 eax, DWORD PTR _cplProg$[ebp]
  000e0	50		 push	 eax
  000e1	e8 00 00 00 00	 call	 ?Write@CScript@@QAEXPAPADPAD@Z ; CScript::Write
  000e6	eb 3e		 jmp	 SHORT $LN47@Compile
$LN23@Compile:

; 591  : 						break;
; 592  : 					case ENUM: // enum
; 593  : 						GetTkn(); // {

  000e8	6a 00		 push	 0
  000ea	8b ce		 mov	 ecx, esi
  000ec	e8 00 00 00 00	 call	 ?GetTkn@CScript@@QAEHH@Z ; CScript::GetTkn
$LL13@Compile:

; 594  : 						do 
; 595  : 						{
; 596  : 							GetTkn();

  000f1	6a 00		 push	 0
  000f3	8b ce		 mov	 ecx, esi
  000f5	e8 00 00 00 00	 call	 ?GetTkn@CScript@@QAEHH@Z ; CScript::GetTkn

; 597  : 						} while(*token!='}');

  000fa	8b 46 3c	 mov	 eax, DWORD PTR [esi+60]
  000fd	80 38 7d	 cmp	 BYTE PTR [eax], 125	; 0000007dH
  00100	75 ef		 jne	 SHORT $LL13@Compile

; 598  : 						GetTkn(); // ;

  00102	6a 00		 push	 0
  00104	8b ce		 mov	 ecx, esi
  00106	e8 00 00 00 00	 call	 ?GetTkn@CScript@@QAEHH@Z ; CScript::GetTkn

; 599  : 						break;

  0010b	eb 19		 jmp	 SHORT $LN47@Compile
$LN37@Compile:

; 586  : 				{
; 587  : 					case DEFINE: // define
; 588  : 					case INCLUDE: // include
; 589  : 						while(*m_pProg!='\r'&&*m_pProg!='\0') 

  0010d	8b 46 18	 mov	 eax, DWORD PTR [esi+24]
  00110	8a 08		 mov	 cl, BYTE PTR [eax]
  00112	80 f9 0d	 cmp	 cl, 13			; 0000000dH
  00115	74 0f		 je	 SHORT $LN47@Compile
$LL9@Compile:
  00117	84 c9		 test	 cl, cl
  00119	74 0b		 je	 SHORT $LN47@Compile

; 590  : 							m_pProg++;

  0011b	40		 inc	 eax
  0011c	89 46 18	 mov	 DWORD PTR [esi+24], eax
  0011f	8a 08		 mov	 cl, BYTE PTR [eax]
  00121	80 f9 0d	 cmp	 cl, 13			; 0000000dH
  00124	75 f1		 jne	 SHORT $LL9@Compile
$LN47@Compile:

; 603  : 						break;
; 604  : 				}
; 605  : 
; 606  : 				switch(cmd) 

  00126	0f be 86 e4 0d
	00 00		 movsx	 eax, BYTE PTR [esi+3556]
  0012d	83 c0 fe	 add	 eax, -2			; fffffffeH
  00130	83 f8 0e	 cmp	 eax, 14			; 0000000eH
  00133	77 56		 ja	 SHORT $LN2@Compile
  00135	0f b6 80 00 00
	00 00		 movzx	 eax, BYTE PTR $LN45@Compile[eax]
  0013c	ff 24 85 00 00
	00 00		 jmp	 DWORD PTR $LN46@Compile[eax*4]
$LN25@Compile:

; 607  : 				{
; 608  : 				case ELSE: case DO: case VAR: case RETURN: case GOTO: case CASE: 
; 609  : 					Write(&cplProg," "); 

  00143	68 00 00 00 00	 push	 OFFSET ??_C@_01CLKCMJKC@?5@

; 610  : 					break;
; 611  : 				}
; 612  : 				break;

  00148	eb 33		 jmp	 SHORT $LN61@Compile
$LN17@Compile:

; 573  : 			case IDENTIFIER:
; 574  : 				// ŔÎĹÍłÎ ĆăĽÇ¸¸ ÄÄĆÄŔĎÇŃ´Ů.
; 575  : 				if((r=IsFunc(token))!=-1) 

  0014a	8b 7e 3c	 mov	 edi, DWORD PTR [esi+60]
  0014d	8b ce		 mov	 ecx, esi
  0014f	57		 push	 edi
  00150	e8 00 00 00 00	 call	 ?IsFunc@CScript@@QAEHPAD@Z ; CScript::IsFunc
  00155	83 f8 ff	 cmp	 eax, -1
  00158	74 22		 je	 SHORT $LN18@Compile

; 576  : 				{
; 577  : 					str[0] = '$';	
; 578  : 					itoa(r,&str[1],10);

  0015a	6a 0a		 push	 10			; 0000000aH
  0015c	8d 8d fd fe ff
	ff		 lea	 ecx, DWORD PTR _str$[ebp+1]
  00162	c6 85 fc fe ff
	ff 24		 mov	 BYTE PTR _str$[ebp], 36	; 00000024H
  00169	51		 push	 ecx
  0016a	50		 push	 eax
  0016b	e8 00 00 00 00	 call	 _itoa
  00170	83 c4 0c	 add	 esp, 12			; 0000000cH

; 579  : 					Write(&cplProg,str);

  00173	8d 85 fc fe ff
	ff		 lea	 eax, DWORD PTR _str$[ebp]
  00179	50		 push	 eax

; 580  : 				}

  0017a	eb 01		 jmp	 SHORT $LN61@Compile
$LN18@Compile:

; 581  : 				else 
; 582  : 					Write(&cplProg,token);

  0017c	57		 push	 edi
$LN61@Compile:

; 615  : 				break;
; 616  : 		}
; 617  : 	} while(tok!=FINISHED);

  0017d	8b ce		 mov	 ecx, esi
  0017f	8d 85 f8 fe ff
	ff		 lea	 eax, DWORD PTR _cplProg$[ebp]
$LN60@Compile:
  00185	50		 push	 eax
  00186	e8 00 00 00 00	 call	 ?Write@CScript@@QAEXPAPADPAD@Z ; CScript::Write
$LN2@Compile:
  0018b	83 be 44 08 00
	00 15		 cmp	 DWORD PTR [esi+2116], 21 ; 00000015H
  00192	0f 85 b0 fe ff
	ff		 jne	 $LL4@Compile

; 618  : 	CScanner::Free();	

  00198	8b ce		 mov	 ecx, esi
  0019a	e8 00 00 00 00	 call	 ?Free@CScanner@@QAEXXZ	; CScanner::Free

; 619  : 	*cplProg = 0; 

  0019f	8b 85 f8 fe ff
	ff		 mov	 eax, DWORD PTR _cplProg$[ebp]

; 620  : 	cplProg++;

  001a5	8d 78 01	 lea	 edi, DWORD PTR [eax+1]
  001a8	c6 00 00	 mov	 BYTE PTR [eax], 0
  001ab	8b c7		 mov	 eax, edi
  001ad	2b c3		 sub	 eax, ebx

; 621  : 
; 622  : 	m_pProg = new CHAR[(int)(cplProg-pBakProg)];

  001af	50		 push	 eax
  001b0	e8 00 00 00 00	 call	 ??_U@YAPAXI@Z		; operator new[]
  001b5	2b fb		 sub	 edi, ebx
  001b7	89 46 18	 mov	 DWORD PTR [esi+24], eax

; 623  : 	memcpy(m_pProg,pBakProg,(int)(cplProg-pBakProg));

  001ba	57		 push	 edi
  001bb	53		 push	 ebx
  001bc	50		 push	 eax
  001bd	e8 00 00 00 00	 call	 _memcpy

; 624  : 	safe_delete( pBakProg );

  001c2	6a 01		 push	 1
  001c4	53		 push	 ebx
  001c5	e8 00 00 00 00	 call	 ??3@YAXPAXI@Z		; operator delete

; 625  : 	m_bMemFlag = 0; 
; 626  : 	m_pBuf = m_pProg; 

  001ca	8b 46 18	 mov	 eax, DWORD PTR [esi+24]
  001cd	83 c4 18	 add	 esp, 24			; 00000018H

; 627  : 	SetCompilerMode();
; 628  : }

  001d0	8b 4d fc	 mov	 ecx, DWORD PTR __$ArrayPad$[ebp]
  001d3	c6 46 08 00	 mov	 BYTE PTR [esi+8], 0
  001d7	33 cd		 xor	 ecx, ebp
  001d9	89 46 1c	 mov	 DWORD PTR [esi+28], eax
  001dc	5f		 pop	 edi
  001dd	c7 86 58 08 00
	00 01 00 00 00	 mov	 DWORD PTR [esi+2136], 1
  001e7	5e		 pop	 esi
  001e8	5b		 pop	 ebx
  001e9	e8 00 00 00 00	 call	 @__security_check_cookie@4
  001ee	8b e5		 mov	 esp, ebp
  001f0	5d		 pop	 ebp
  001f1	c3		 ret	 0
  001f2	66 90		 npad	 2
$LN46@Compile:
  001f4	00 00 00 00	 DD	 $LN25@Compile
  001f8	00 00 00 00	 DD	 $LN2@Compile
$LN45@Compile:
  001fc	00		 DB	 0
  001fd	01		 DB	 1
  001fe	00		 DB	 0
  001ff	01		 DB	 1
  00200	00		 DB	 0
  00201	01		 DB	 1
  00202	01		 DB	 1
  00203	01		 DB	 1
  00204	01		 DB	 1
  00205	01		 DB	 1
  00206	01		 DB	 1
  00207	00		 DB	 0
  00208	01		 DB	 1
  00209	00		 DB	 0
  0020a	00		 DB	 0
?Compile@CScript@@QAEXXZ ENDP				; CScript::Compile
_TEXT	ENDS
; Function compile flags: /Ogtp
; File C:\IAGOS\server\v18\Source\Source\_Common\script.cpp
;	COMDAT ?IsFunc@CScript@@QAEHPAD@Z
_TEXT	SEGMENT
_str$ = 8						; size = 4
?IsFunc@CScript@@QAEHPAD@Z PROC				; CScript::IsFunc, COMDAT
; _this$ = ecx

; 630  : {

  00000	55		 push	 ebp
  00001	8b ec		 mov	 ebp, esp
  00003	56		 push	 esi

; 631  : 	for(int i = 0; interFunc[i].p; i++)

  00004	33 f6		 xor	 esi, esi
  00006	57		 push	 edi
  00007	39 35 04 00 00
	00		 cmp	 DWORD PTR ?interFunc@@3PAUInterFuncType@@A+4, esi
  0000d	74 4b		 je	 SHORT $LN3@IsFunc
  0000f	8b 7d 08	 mov	 edi, DWORD PTR _str$[ebp]
  00012	33 c9		 xor	 ecx, ecx
$LL4@IsFunc:

; 632  : 		if(!strcmp(interFunc[i].name,str))

  00014	8b 89 00 00 00
	00		 mov	 ecx, DWORD PTR ?interFunc@@3PAUInterFuncType@@A[ecx]
  0001a	8b c7		 mov	 eax, edi
  0001c	0f 1f 40 00	 npad	 4
$LL12@IsFunc:
  00020	8a 11		 mov	 dl, BYTE PTR [ecx]
  00022	3a 10		 cmp	 dl, BYTE PTR [eax]
  00024	75 1a		 jne	 SHORT $LN13@IsFunc
  00026	84 d2		 test	 dl, dl
  00028	74 12		 je	 SHORT $LN14@IsFunc
  0002a	8a 51 01	 mov	 dl, BYTE PTR [ecx+1]
  0002d	3a 50 01	 cmp	 dl, BYTE PTR [eax+1]
  00030	75 0e		 jne	 SHORT $LN13@IsFunc
  00032	83 c1 02	 add	 ecx, 2
  00035	83 c0 02	 add	 eax, 2
  00038	84 d2		 test	 dl, dl
  0003a	75 e4		 jne	 SHORT $LL12@IsFunc
$LN14@IsFunc:
  0003c	33 c0		 xor	 eax, eax
  0003e	eb 05		 jmp	 SHORT $LN15@IsFunc
$LN13@IsFunc:
  00040	1b c0		 sbb	 eax, eax
  00042	83 c8 01	 or	 eax, 1
$LN15@IsFunc:
  00045	85 c0		 test	 eax, eax
  00047	74 1a		 je	 SHORT $LN8@IsFunc

; 631  : 	for(int i = 0; interFunc[i].p; i++)

  00049	46		 inc	 esi
  0004a	8d 0c f5 00 00
	00 00		 lea	 ecx, DWORD PTR [esi*8]
  00051	83 b9 04 00 00
	00 00		 cmp	 DWORD PTR ?interFunc@@3PAUInterFuncType@@A[ecx+4], 0
  00058	75 ba		 jne	 SHORT $LL4@IsFunc
$LN3@IsFunc:
  0005a	5f		 pop	 edi

; 634  : 	return -1; // unknown command 

  0005b	83 c8 ff	 or	 eax, -1

; 635  : }

  0005e	5e		 pop	 esi
  0005f	5d		 pop	 ebp
  00060	c2 04 00	 ret	 4
$LN8@IsFunc:
  00063	5f		 pop	 edi

; 633  : 			return i;

  00064	8b c6		 mov	 eax, esi

; 635  : }

  00066	5e		 pop	 esi
  00067	5d		 pop	 ebp
  00068	c2 04 00	 ret	 4
?IsFunc@CScript@@QAEHPAD@Z ENDP				; CScript::IsFunc
_TEXT	ENDS
; Function compile flags: /Ogtp
; File C:\IAGOS\server\v18\Source\Source\_Common\script.cpp
;	COMDAT ?Write@CScript@@QAEXPAPADPAD@Z
_TEXT	SEGMENT
_cplProg$ = 8						; size = 4
_str$ = 12						; size = 4
?Write@CScript@@QAEXPAPADPAD@Z PROC			; CScript::Write, COMDAT
; _this$ = ecx

; 550  : {

  00000	55		 push	 ebp
  00001	8b ec		 mov	 ebp, esp

; 551  : 	while(*str) 

  00003	8b 45 0c	 mov	 eax, DWORD PTR _str$[ebp]
  00006	8a 10		 mov	 dl, BYTE PTR [eax]
  00008	84 d2		 test	 dl, dl
  0000a	74 14		 je	 SHORT $LN3@Write
  0000c	56		 push	 esi
  0000d	8b 75 08	 mov	 esi, DWORD PTR _cplProg$[ebp]
$LL2@Write:

; 552  : 		*((*cplProg)++) = *(str++);

  00010	8b 0e		 mov	 ecx, DWORD PTR [esi]
  00012	8d 40 01	 lea	 eax, DWORD PTR [eax+1]
  00015	88 11		 mov	 BYTE PTR [ecx], dl
  00017	ff 06		 inc	 DWORD PTR [esi]
  00019	8a 10		 mov	 dl, BYTE PTR [eax]
  0001b	84 d2		 test	 dl, dl
  0001d	75 f1		 jne	 SHORT $LL2@Write

; 551  : 	while(*str) 

  0001f	5e		 pop	 esi
$LN3@Write:

; 553  : }

  00020	5d		 pop	 ebp
  00021	c2 08 00	 ret	 8
?Write@CScript@@QAEXPAPADPAD@Z ENDP			; CScript::Write
_TEXT	ENDS
; Function compile flags: /Ogtp
; File C:\IAGOS\server\v18\Source\Source\_Common\script.cpp
;	COMDAT ?FindFunc@CScript@@QAEPADPAD@Z
_TEXT	SEGMENT
_this$1$ = -4						; size = 4
_name$ = 8						; size = 4
?FindFunc@CScript@@QAEPADPAD@Z PROC			; CScript::FindFunc, COMDAT
; _this$ = ecx

; 456  : {

  00000	55		 push	 ebp
  00001	8b ec		 mov	 ebp, esp
  00003	51		 push	 ecx
  00004	8b c1		 mov	 eax, ecx
  00006	53		 push	 ebx
  00007	56		 push	 esi

; 457  : 	int i;
; 458  : 	for(i = 0; i < funcIndex; i++)

  00008	33 f6		 xor	 esi, esi
  0000a	89 45 fc	 mov	 DWORD PTR _this$1$[ebp], eax
  0000d	8b 98 38 0b 00
	00		 mov	 ebx, DWORD PTR [eax+2872]
  00013	57		 push	 edi
  00014	85 db		 test	 ebx, ebx
  00016	7e 3e		 jle	 SHORT $LN3@FindFunc
  00018	8d b8 3c 0b 00
	00		 lea	 edi, DWORD PTR [eax+2876]
  0001e	66 90		 npad	 2
$LL4@FindFunc:

; 459  : 		if(!strcmp(name, funcTable[i].name))

  00020	8b 4d 08	 mov	 ecx, DWORD PTR _name$[ebp]
  00023	8b c7		 mov	 eax, edi
$LL12@FindFunc:
  00025	8a 11		 mov	 dl, BYTE PTR [ecx]
  00027	3a 10		 cmp	 dl, BYTE PTR [eax]
  00029	75 1a		 jne	 SHORT $LN13@FindFunc
  0002b	84 d2		 test	 dl, dl
  0002d	74 12		 je	 SHORT $LN14@FindFunc
  0002f	8a 51 01	 mov	 dl, BYTE PTR [ecx+1]
  00032	3a 50 01	 cmp	 dl, BYTE PTR [eax+1]
  00035	75 0e		 jne	 SHORT $LN13@FindFunc
  00037	83 c1 02	 add	 ecx, 2
  0003a	83 c0 02	 add	 eax, 2
  0003d	84 d2		 test	 dl, dl
  0003f	75 e4		 jne	 SHORT $LL12@FindFunc
$LN14@FindFunc:
  00041	33 c0		 xor	 eax, eax
  00043	eb 05		 jmp	 SHORT $LN15@FindFunc
$LN13@FindFunc:
  00045	1b c0		 sbb	 eax, eax
  00047	83 c8 01	 or	 eax, 1
$LN15@FindFunc:
  0004a	85 c0		 test	 eax, eax
  0004c	74 13		 je	 SHORT $LN8@FindFunc

; 457  : 	int i;
; 458  : 	for(i = 0; i < funcIndex; i++)

  0004e	46		 inc	 esi
  0004f	83 c7 44	 add	 edi, 68			; 00000044H
  00052	3b f3		 cmp	 esi, ebx
  00054	7c ca		 jl	 SHORT $LL4@FindFunc
$LN3@FindFunc:
  00056	5f		 pop	 edi

; 461  : 	return NULL;
; 462  : }

  00057	5e		 pop	 esi
  00058	33 c0		 xor	 eax, eax
  0005a	5b		 pop	 ebx
  0005b	8b e5		 mov	 esp, ebp
  0005d	5d		 pop	 ebp
  0005e	c2 04 00	 ret	 4
$LN8@FindFunc:

; 460  : 			return funcTable[i].loc;

  00061	8b 4d fc	 mov	 ecx, DWORD PTR _this$1$[ebp]
  00064	8b c6		 mov	 eax, esi
  00066	c1 e0 04	 shl	 eax, 4
  00069	03 c6		 add	 eax, esi
  0006b	5f		 pop	 edi

; 461  : 	return NULL;
; 462  : }

  0006c	5e		 pop	 esi
  0006d	5b		 pop	 ebx
  0006e	8b 84 81 7c 0b
	00 00		 mov	 eax, DWORD PTR [ecx+eax*4+2940]
  00075	8b e5		 mov	 esp, ebp
  00077	5d		 pop	 ebp
  00078	c2 04 00	 ret	 4
?FindFunc@CScript@@QAEPADPAD@Z ENDP			; CScript::FindFunc
_TEXT	ENDS
; Function compile flags: /Ogtp
; File C:\IAGOS\server\v18\Source\Source\_Common\script.cpp
; File C:\Program Files\Microsoft Visual Studio\2022\Professional\VC\Tools\MSVC\14.44.35207\include\utility
; File C:\Program Files\Microsoft Visual Studio\2022\Professional\VC\Tools\MSVC\14.44.35207\include\xtree
; File C:\IAGOS\server\v18\Source\Source\_Common\script.cpp
; File C:\Program Files\Microsoft Visual Studio\2022\Professional\VC\Tools\MSVC\14.44.35207\include\xtree
; File C:\Program Files\Microsoft Visual Studio\2022\Professional\VC\Tools\MSVC\14.44.35207\include\type_traits
; File C:\Program Files\Microsoft Visual Studio\2022\Professional\VC\Tools\MSVC\14.44.35207\include\xtree
; File C:\Program Files\Microsoft Visual Studio\2022\Professional\VC\Tools\MSVC\14.44.35207\include\utility
; File C:\Program Files\Microsoft Visual Studio\2022\Professional\VC\Tools\MSVC\14.44.35207\include\xtree
; File C:\Program Files\Microsoft Visual Studio\2022\Professional\VC\Tools\MSVC\14.44.35207\include\xmemory
; File C:\Program Files\Microsoft Visual Studio\2022\Professional\VC\Tools\MSVC\14.44.35207\include\xtree
; File C:\Program Files\Microsoft Visual Studio\2022\Professional\VC\Tools\MSVC\14.44.35207\include\xmemory
; File C:\Program Files\Microsoft Visual Studio\2022\Professional\VC\Tools\MSVC\14.44.35207\include\xstring
; File C:\Program Files\Microsoft Visual Studio\2022\Professional\VC\Tools\MSVC\14.44.35207\include\xmemory
; File C:\Program Files\Microsoft Visual Studio\2022\Professional\VC\Tools\MSVC\14.44.35207\include\xstring
; File C:\Program Files\Microsoft Visual Studio\2022\Professional\VC\Tools\MSVC\14.44.35207\include\xtree
; File C:\Program Files\Microsoft Visual Studio\2022\Professional\VC\Tools\MSVC\14.44.35207\include\xstring
; File C:\Program Files\Microsoft Visual Studio\2022\Professional\VC\Tools\MSVC\14.44.35207\include\xtree
; File C:\Program Files\Microsoft Visual Studio\2022\Professional\VC\Tools\MSVC\14.44.35207\include\utility
; File C:\Program Files\Microsoft Visual Studio\2022\Professional\VC\Tools\MSVC\14.44.35207\include\xtree
; File C:\Program Files\Microsoft Visual Studio\2022\Professional\VC\Tools\MSVC\14.44.35207\include\xstring
; File C:\Program Files\Microsoft Visual Studio\2022\Professional\VC\Tools\MSVC\14.44.35207\include\xtree
; File C:\Program Files\Microsoft Visual Studio\2022\Professional\VC\Tools\MSVC\14.44.35207\include\utility
; File C:\IAGOS\server\v18\Source\Source\_Common\script.cpp
; File C:\Program Files\Microsoft Visual Studio\2022\Professional\VC\Tools\MSVC\14.44.35207\include\xstring
; File C:\Program Files\Microsoft Visual Studio\2022\Professional\VC\Tools\MSVC\14.44.35207\include\xmemory
; File C:\Program Files\Microsoft Visual Studio\2022\Professional\VC\Tools\MSVC\14.44.35207\include\xstring
; File C:\Program Files\Microsoft Visual Studio\2022\Professional\VC\Tools\MSVC\14.44.35207\include\xmemory
; File C:\IAGOS\server\v18\Source\Source\_Common\script.cpp
; File C:\Program Files\Microsoft Visual Studio\2022\Professional\VC\Tools\MSVC\14.44.35207\include\xtree
; File C:\Program Files\Microsoft Visual Studio\2022\Professional\VC\Tools\MSVC\14.44.35207\include\xmemory
; File C:\IAGOS\server\v18\Source\Source\_Common\script.cpp
;	COMDAT ?ExecDefine@CScript@@QAEXXZ
_TEXT	SEGMENT
__Loc$3 = -96						; size = 12
$T4 = -84						; size = 12
$T5 = -80						; size = 8
_n$ = -72						; size = 4
_str$ = -68						; size = 24
$T6 = -44						; size = 28
__$ArrayPad$ = -16					; size = 4
__$EHRec$ = -12						; size = 12
?ExecDefine@CScript@@QAEXXZ PROC			; CScript::ExecDefine, COMDAT
; _this$ = ecx

; 400  : {

  00000	55		 push	 ebp
  00001	8b ec		 mov	 ebp, esp
  00003	6a ff		 push	 -1
  00005	68 00 00 00 00	 push	 __ehhandler$?ExecDefine@CScript@@QAEXXZ
  0000a	64 a1 00 00 00
	00		 mov	 eax, DWORD PTR fs:0
  00010	50		 push	 eax
  00011	83 ec 54	 sub	 esp, 84			; 00000054H
  00014	a1 00 00 00 00	 mov	 eax, DWORD PTR ___security_cookie
  00019	33 c5		 xor	 eax, ebp
  0001b	89 45 f0	 mov	 DWORD PTR __$ArrayPad$[ebp], eax
  0001e	56		 push	 esi
  0001f	57		 push	 edi
  00020	50		 push	 eax
  00021	8d 45 f4	 lea	 eax, DWORD PTR __$EHRec$[ebp]
  00024	64 a3 00 00 00
	00		 mov	 DWORD PTR fs:0, eax
  0002a	8b f1		 mov	 esi, ecx

; 401  : 	CScanner::GetToken( FALSE );

  0002c	6a 00		 push	 0
  0002e	e8 00 00 00 00	 call	 ?GetToken@CScanner@@UAEHH@Z ; CScanner::GetToken

; 402  : 	string str = token;

  00033	ff 76 3c	 push	 DWORD PTR [esi+60]
  00036	8d 4d bc	 lea	 ecx, DWORD PTR _str$[ebp]
  00039	e8 00 00 00 00	 call	 ??0?$basic_string@DU?$char_traits@D@std@@V?$allocator@D@2@@std@@QAE@QBD@Z ; std::basic_string<char,std::char_traits<char>,std::allocator<char> >::basic_string<char,std::char_traits<char>,std::allocator<char> >

; 403  : 	CScanner::GetToken( FALSE );

  0003e	6a 00		 push	 0
  00040	8b ce		 mov	 ecx, esi
  00042	c7 45 fc 00 00
	00 00		 mov	 DWORD PTR __$EHRec$[ebp+8], 0
  00049	e8 00 00 00 00	 call	 ?GetToken@CScanner@@UAEHH@Z ; CScanner::GetToken

; 404  : 	
; 405  : 	int n;
; 406  : 	if( tokenType == NUMBER )

  0004e	8b 86 40 08 00
	00		 mov	 eax, DWORD PTR [esi+2112]
  00054	83 f8 03	 cmp	 eax, 3
  00057	75 10		 jne	 SHORT $LN2@ExecDefine

; 407  : 		n = atoi( token );

  00059	ff 76 3c	 push	 DWORD PTR [esi+60]
  0005c	e8 00 00 00 00	 call	 _atoi
  00061	83 c4 04	 add	 esp, 4
  00064	89 45 b8	 mov	 DWORD PTR _n$[ebp], eax
  00067	eb 1d		 jmp	 SHORT $LN7@ExecDefine
$LN2@ExecDefine:

; 408  : 	else if( tokenType == HEX )

  00069	83 f8 04	 cmp	 eax, 4
  0006c	0f 85 f1 00 00
	00		 jne	 $LN4@ExecDefine

; 409  : 		sscanf( token, "%x", &n );

  00072	8d 45 b8	 lea	 eax, DWORD PTR _n$[ebp]
  00075	50		 push	 eax
  00076	68 00 00 00 00	 push	 OFFSET ??_C@_02NJNOFBBI@?$CFx@
  0007b	ff 76 3c	 push	 DWORD PTR [esi+60]
  0007e	e8 00 00 00 00	 call	 _sscanf
  00083	83 c4 0c	 add	 esp, 12			; 0000000cH
$LN7@ExecDefine:
; File C:\Program Files\Microsoft Visual Studio\2022\Professional\VC\Tools\MSVC\14.44.35207\include\utility

; 274  :         : first(_STD forward<_Other1>(_Val1)), second(_STD forward<_Other2>(_Val2)) {

  00086	8d 45 bc	 lea	 eax, DWORD PTR _str$[ebp]
  00089	50		 push	 eax
  0008a	8d 4d d4	 lea	 ecx, DWORD PTR $T6[ebp]
  0008d	e8 00 00 00 00	 call	 ??0?$basic_string@DU?$char_traits@D@std@@V?$allocator@D@2@@std@@QAE@ABV01@@Z ; std::basic_string<char,std::char_traits<char>,std::allocator<char> >::basic_string<char,std::char_traits<char>,std::allocator<char> >
  00092	8b 7d b8	 mov	 edi, DWORD PTR _n$[ebp]
  00095	89 7d ec	 mov	 DWORD PTR $T6[ebp+24], edi
; File C:\Program Files\Microsoft Visual Studio\2022\Professional\VC\Tools\MSVC\14.44.35207\include\xtree

; 1017 :             _Loc                = _Find_lower_bound(_Keyval);

  00098	8d 45 d4	 lea	 eax, DWORD PTR $T6[ebp]
; File C:\IAGOS\server\v18\Source\Source\_Common\script.cpp

; 418  : 	if( m_defines.insert( make_pair( str, n ) ).second == false )

  0009b	c6 45 fc 01	 mov	 BYTE PTR __$EHRec$[ebp+8], 1
; File C:\Program Files\Microsoft Visual Studio\2022\Professional\VC\Tools\MSVC\14.44.35207\include\xtree

; 1017 :             _Loc                = _Find_lower_bound(_Keyval);

  0009f	50		 push	 eax
  000a0	8d 45 ac	 lea	 eax, DWORD PTR $T4[ebp]
  000a3	b9 00 00 00 00	 mov	 ecx, OFFSET ?m_defines@CScript@@2V?$map@V?$basic_string@DU?$char_traits@D@std@@V?$allocator@D@2@@std@@HU?$less@V?$basic_string@DU?$char_traits@D@std@@V?$allocator@D@2@@std@@@2@V?$allocator@U?$pair@$$CBV?$basic_string@DU?$char_traits@D@std@@V?$allocator@D@2@@std@@H@std@@@2@@std@@A ; CScript::m_defines
  000a8	50		 push	 eax
  000a9	e8 00 00 00 00	 call	 ??$_Find_lower_bound@V?$basic_string@DU?$char_traits@D@std@@V?$allocator@D@2@@std@@@?$_Tree@V?$_Tmap_traits@V?$basic_string@DU?$char_traits@D@std@@V?$allocator@D@2@@std@@HU?$less@V?$basic_string@DU?$char_traits@D@std@@V?$allocator@D@2@@std@@@2@V?$allocator@U?$pair@$$CBV?$basic_string@DU?$char_traits@D@std@@V?$allocator@D@2@@std@@H@std@@@2@$0A@@std@@@std@@IBE?AU?$_Tree_find_result@PAU?$_Tree_node@U?$pair@$$CBV?$basic_string@DU?$char_traits@D@std@@V?$allocator@D@2@@std@@H@std@@PAX@std@@@1@ABV?$basic_string@DU?$char_traits@D@std@@V?$allocator@D@2@@1@@Z ; std::_Tree<std::_Tmap_traits<std::basic_string<char,std::char_traits<char>,std::allocator<char> >,int,std::less<std::basic_string<char,std::char_traits<char>,std::allocator<char> > >,std::allocator<std::pair<std::basic_string<char,std::char_traits<char>,std::allocator<char> > const ,int> >,0> >::_Find_lower_bound<std::basic_string<char,std::char_traits<char>,std::allocator<char> > >
  000ae	f3 0f 7e 00	 movq	 xmm0, QWORD PTR [eax]
  000b2	8b 40 08	 mov	 eax, DWORD PTR [eax+8]
  000b5	66 0f d6 45 a0	 movq	 QWORD PTR __Loc$3[ebp], xmm0

; 1624 :         return !_Bound->_Isnil && !_DEBUG_LT_PRED(_Getcomp(), _Keyval, _Traits::_Kfn(_Bound->_Myval));

  000ba	80 78 0d 00	 cmp	 BYTE PTR [eax+13], 0
  000be	75 21		 jne	 SHORT $LN26@ExecDefine
  000c0	83 c0 10	 add	 eax, 16			; 00000010H
; File C:\Program Files\Microsoft Visual Studio\2022\Professional\VC\Tools\MSVC\14.44.35207\include\type_traits

; 2380 :         return _Left < _Right;

  000c3	50		 push	 eax
  000c4	8d 45 d4	 lea	 eax, DWORD PTR $T6[ebp]
  000c7	50		 push	 eax
  000c8	e8 00 00 00 00	 call	 ??$?MDU?$char_traits@D@std@@V?$allocator@D@1@@std@@YA_NABV?$basic_string@DU?$char_traits@D@std@@V?$allocator@D@2@@0@0@Z ; std::operator<<char,std::char_traits<char>,std::allocator<char> >
  000cd	83 c4 08	 add	 esp, 8
; File C:\Program Files\Microsoft Visual Studio\2022\Professional\VC\Tools\MSVC\14.44.35207\include\xtree

; 1624 :         return !_Bound->_Isnil && !_DEBUG_LT_PRED(_Getcomp(), _Keyval, _Traits::_Kfn(_Bound->_Myval));

  000d0	84 c0		 test	 al, al
  000d2	75 0d		 jne	 SHORT $LN26@ExecDefine
; File C:\Program Files\Microsoft Visual Studio\2022\Professional\VC\Tools\MSVC\14.44.35207\include\utility

; 274  :         : first(_STD forward<_Other1>(_Val1)), second(_STD forward<_Other2>(_Val2)) {

  000d4	8d 4d d4	 lea	 ecx, DWORD PTR $T6[ebp]
  000d7	e8 00 00 00 00	 call	 ??1?$basic_string@DU?$char_traits@D@std@@V?$allocator@D@2@@std@@QAE@XZ ; std::basic_string<char,std::char_traits<char>,std::allocator<char> >::~basic_string<char,std::char_traits<char>,std::allocator<char> >
; File C:\Program Files\Microsoft Visual Studio\2022\Professional\VC\Tools\MSVC\14.44.35207\include\xtree

; 1019 :                 return {_Loc._Bound, false};

  000dc	e9 8d 00 00 00	 jmp	 $LN6@ExecDefine
$LN26@ExecDefine:

; 1648 :         if (max_size() == _Get_scary()->_Mysize) {

  000e1	81 3d 04 00 00
	00 5d 74 d1 05	 cmp	 DWORD PTR ?m_defines@CScript@@2V?$map@V?$basic_string@DU?$char_traits@D@std@@V?$allocator@D@2@@std@@HU?$less@V?$basic_string@DU?$char_traits@D@std@@V?$allocator@D@2@@std@@@2@V?$allocator@U?$pair@$$CBV?$basic_string@DU?$char_traits@D@std@@V?$allocator@D@2@@std@@H@std@@@2@@std@@A+4, 97612893 ; 05d1745dH
  000eb	0f 84 c8 00 00
	00		 je	 $LN245@ExecDefine

; 1023 :             _Inserted = _Tree_temp_node<_Alnode>(_Getal(), _Scary->_Myhead, _STD forward<_Valtys>(_Vals)...)._Release();

  000f1	8b 35 00 00 00
	00		 mov	 esi, DWORD PTR ?m_defines@CScript@@2V?$map@V?$basic_string@DU?$char_traits@D@std@@V?$allocator@D@2@@std@@HU?$less@V?$basic_string@DU?$char_traits@D@std@@V?$allocator@D@2@@std@@@2@V?$allocator@U?$pair@$$CBV?$basic_string@DU?$char_traits@D@std@@V?$allocator@D@2@@std@@H@std@@@2@@std@@A
; File C:\Program Files\Microsoft Visual Studio\2022\Professional\VC\Tools\MSVC\14.44.35207\include\xmemory

; 1160 :     _CONSTEXPR20 explicit _Alloc_construct_ptr(_Alloc& _Al_) : _Al(_Al_), _Ptr(nullptr) {}

  000f7	c7 45 b0 00 00
	00 00		 mov	 DWORD PTR $T5[ebp], OFFSET ?m_defines@CScript@@2V?$map@V?$basic_string@DU?$char_traits@D@std@@V?$allocator@D@2@@std@@HU?$less@V?$basic_string@DU?$char_traits@D@std@@V?$allocator@D@2@@std@@@2@V?$allocator@U?$pair@$$CBV?$basic_string@DU?$char_traits@D@std@@V?$allocator@D@2@@std@@H@std@@@2@@std@@A ; CScript::m_defines

; 136  :         return ::operator new(_Bytes);

  000fe	6a 2c		 push	 44			; 0000002cH
; File C:\Program Files\Microsoft Visual Studio\2022\Professional\VC\Tools\MSVC\14.44.35207\include\xtree

; 808  :     explicit _Tree_temp_node_alloc(_Alnode& _Al_) : _Alloc_construct_ptr<_Alnode>(_Al_) {

  00100	c6 45 fc 02	 mov	 BYTE PTR __$EHRec$[ebp+8], 2
; File C:\Program Files\Microsoft Visual Studio\2022\Professional\VC\Tools\MSVC\14.44.35207\include\xmemory

; 1167 :         _Ptr = nullptr; // if allocate throws, prevents double-free

  00104	c7 45 b4 00 00
	00 00		 mov	 DWORD PTR $T5[ebp+4], 0

; 136  :         return ::operator new(_Bytes);

  0010b	e8 00 00 00 00	 call	 ??2@YAPAXI@Z		; operator new
; File C:\Program Files\Microsoft Visual Studio\2022\Professional\VC\Tools\MSVC\14.44.35207\include\xstring

; 1286 :                 _CSTD memcpy(_My_data_mem, _Right_data_mem, _Memcpy_val_size);

  00110	0f 10 45 d4	 movups	 xmm0, XMMWORD PTR $T6[ebp]
; File C:\Program Files\Microsoft Visual Studio\2022\Professional\VC\Tools\MSVC\14.44.35207\include\xmemory

; 136  :         return ::operator new(_Bytes);

  00114	83 c4 04	 add	 esp, 4
; File C:\Program Files\Microsoft Visual Studio\2022\Professional\VC\Tools\MSVC\14.44.35207\include\xstring

; 1291 :                 _Traits::assign(_Right_data._Bx._Buf[0], _Elem());

  00117	c6 45 d4 00	 mov	 BYTE PTR $T6[ebp], 0
; File C:\Program Files\Microsoft Visual Studio\2022\Professional\VC\Tools\MSVC\14.44.35207\include\xtree

; 1042 :         return {_Scary->_Insert_node(_Loc._Location, _Inserted), true};

  0011b	b9 00 00 00 00	 mov	 ecx, OFFSET ?m_defines@CScript@@2V?$map@V?$basic_string@DU?$char_traits@D@std@@V?$allocator@D@2@@std@@HU?$less@V?$basic_string@DU?$char_traits@D@std@@V?$allocator@D@2@@std@@@2@V?$allocator@U?$pair@$$CBV?$basic_string@DU?$char_traits@D@std@@V?$allocator@D@2@@std@@H@std@@@2@@std@@A ; CScript::m_defines
; File C:\Program Files\Microsoft Visual Studio\2022\Professional\VC\Tools\MSVC\14.44.35207\include\xstring

; 1286 :                 _CSTD memcpy(_My_data_mem, _Right_data_mem, _Memcpy_val_size);

  00120	0f 11 40 10	 movups	 XMMWORD PTR [eax+16], xmm0
  00124	f3 0f 7e 45 e4	 movq	 xmm0, QWORD PTR $T6[ebp+16]
  00129	66 0f d6 40 20	 movq	 QWORD PTR [eax+32], xmm0
; File C:\Program Files\Microsoft Visual Studio\2022\Professional\VC\Tools\MSVC\14.44.35207\include\xtree

; 1042 :         return {_Scary->_Insert_node(_Loc._Location, _Inserted), true};

  0012e	50		 push	 eax
  0012f	ff 75 a4	 push	 DWORD PTR __Loc$3[ebp+4]
; File C:\Program Files\Microsoft Visual Studio\2022\Professional\VC\Tools\MSVC\14.44.35207\include\utility

; 303  :         : first(_STD forward<_Other1>(_Right.first)), second(_STD forward<_Other2>(_Right.second)) {}

  00132	89 78 28	 mov	 DWORD PTR [eax+40], edi
; File C:\Program Files\Microsoft Visual Studio\2022\Professional\VC\Tools\MSVC\14.44.35207\include\xtree

; 1042 :         return {_Scary->_Insert_node(_Loc._Location, _Inserted), true};

  00135	ff 75 a0	 push	 DWORD PTR __Loc$3[ebp]

; 831  :         _Construct_in_place(this->_Ptr->_Left, _Myhead);

  00138	89 30		 mov	 DWORD PTR [eax], esi

; 832  :         _Construct_in_place(this->_Ptr->_Parent, _Myhead);

  0013a	89 70 04	 mov	 DWORD PTR [eax+4], esi

; 833  :         _Construct_in_place(this->_Ptr->_Right, _Myhead);

  0013d	89 70 08	 mov	 DWORD PTR [eax+8], esi
; File C:\Program Files\Microsoft Visual Studio\2022\Professional\VC\Tools\MSVC\14.44.35207\include\xstring

; 1288 :                 _Right_data._Mysize = 0;

  00140	c7 45 e4 00 00
	00 00		 mov	 DWORD PTR $T6[ebp+16], 0

; 1289 :                 _Right_data._Myres  = _Small_string_capacity;

  00147	c7 45 e8 0f 00
	00 00		 mov	 DWORD PTR $T6[ebp+20], 15 ; 0000000fH
; File C:\Program Files\Microsoft Visual Studio\2022\Professional\VC\Tools\MSVC\14.44.35207\include\xtree

; 834  :         this->_Ptr->_Color = _Red;

  0014e	66 c7 40 0c 00
	00		 mov	 WORD PTR [eax+12], 0

; 1042 :         return {_Scary->_Insert_node(_Loc._Location, _Inserted), true};

  00154	e8 00 00 00 00	 call	 ?_Insert_node@?$_Tree_val@U?$_Tree_simple_types@U?$pair@$$CBV?$basic_string@DU?$char_traits@D@std@@V?$allocator@D@2@@std@@H@std@@@std@@@std@@QAEPAU?$_Tree_node@U?$pair@$$CBV?$basic_string@DU?$char_traits@D@std@@V?$allocator@D@2@@std@@H@std@@PAX@2@U?$_Tree_id@PAU?$_Tree_node@U?$pair@$$CBV?$basic_string@DU?$char_traits@D@std@@V?$allocator@D@2@@std@@H@std@@PAX@std@@@2@QAU32@@Z ; std::_Tree_val<std::_Tree_simple_types<std::pair<std::basic_string<char,std::char_traits<char>,std::allocator<char> > const ,int> > >::_Insert_node
; File C:\Program Files\Microsoft Visual Studio\2022\Professional\VC\Tools\MSVC\14.44.35207\include\utility

; 274  :         : first(_STD forward<_Other1>(_Val1)), second(_STD forward<_Other2>(_Val2)) {

  00159	8d 4d d4	 lea	 ecx, DWORD PTR $T6[ebp]
  0015c	e8 00 00 00 00	 call	 ??1?$basic_string@DU?$char_traits@D@std@@V?$allocator@D@2@@std@@QAE@XZ ; std::basic_string<char,std::char_traits<char>,std::allocator<char> >::~basic_string<char,std::char_traits<char>,std::allocator<char> >
  00161	eb 0b		 jmp	 SHORT $LN6@ExecDefine
$LN4@ExecDefine:
; File C:\IAGOS\server\v18\Source\Source\_Common\script.cpp

; 410  : 	else if( tokenType == 0 )

  00163	85 c0		 test	 eax, eax
  00165	75 07		 jne	 SHORT $LN6@ExecDefine

; 411  : 	{
; 412  : 		PutBack();

  00167	8b 06		 mov	 eax, DWORD PTR [esi]
  00169	8b ce		 mov	 ecx, esi
  0016b	ff 50 10	 call	 DWORD PTR [eax+16]
$LN6@ExecDefine:
; File C:\Program Files\Microsoft Visual Studio\2022\Professional\VC\Tools\MSVC\14.44.35207\include\xstring

; 453  :         return _Myres > _Small_string_capacity;

  0016e	8b 4d d0	 mov	 ecx, DWORD PTR _str$[ebp+20]
  00171	83 f9 0f	 cmp	 ecx, 15			; 0000000fH

; 3083 :         if (_My_data._Large_mode_engaged()) {

  00174	76 28		 jbe	 SHORT $LN229@ExecDefine
; File C:\Program Files\Microsoft Visual Studio\2022\Professional\VC\Tools\MSVC\14.44.35207\include\xmemory

; 985  :         _STD _Deallocate<_New_alignof<_Ty>>(_Ptr, sizeof(_Ty) * _Count);

  00176	8b 55 bc	 mov	 edx, DWORD PTR _str$[ebp]
; File C:\Program Files\Microsoft Visual Studio\2022\Professional\VC\Tools\MSVC\14.44.35207\include\xstring

; 852  :         _Al.deallocate(_Old_ptr, _Capacity + 1); // +1 for null terminator

  00179	41		 inc	 ecx
; File C:\Program Files\Microsoft Visual Studio\2022\Professional\VC\Tools\MSVC\14.44.35207\include\xmemory

; 985  :         _STD _Deallocate<_New_alignof<_Ty>>(_Ptr, sizeof(_Ty) * _Count);

  0017a	8b c2		 mov	 eax, edx

; 284  :         if (_Bytes >= _Big_allocation_threshold) {

  0017c	81 f9 00 10 00
	00		 cmp	 ecx, 4096		; 00001000H
  00182	72 10		 jb	 SHORT $LN234@ExecDefine

; 205  :     const uintptr_t _Ptr_container   = _Ptr_user[-1];

  00184	8b 50 fc	 mov	 edx, DWORD PTR [eax-4]
  00187	83 c1 23	 add	 ecx, 35			; 00000023H
  0018a	2b c2		 sub	 eax, edx

; 219  :     _STL_VERIFY(_Back_shift >= _Min_back_shift && _Back_shift <= _Non_user_size, "invalid argument");

  0018c	83 c0 fc	 add	 eax, -4			; fffffffcH
  0018f	83 f8 1f	 cmp	 eax, 31			; 0000001fH
  00192	77 2a		 ja	 SHORT $LN246@ExecDefine
$LN234@ExecDefine:

; 289  :         ::operator delete(_Ptr, _Bytes);

  00194	51		 push	 ecx
  00195	52		 push	 edx
  00196	e8 00 00 00 00	 call	 ??3@YAXPAXI@Z		; operator delete
  0019b	83 c4 08	 add	 esp, 8
$LN229@ExecDefine:
; File C:\IAGOS\server\v18\Source\Source\_Common\script.cpp

; 420  : }

  0019e	8b 4d f4	 mov	 ecx, DWORD PTR __$EHRec$[ebp]
  001a1	64 89 0d 00 00
	00 00		 mov	 DWORD PTR fs:0, ecx
  001a8	59		 pop	 ecx
  001a9	5f		 pop	 edi
  001aa	5e		 pop	 esi
  001ab	8b 4d f0	 mov	 ecx, DWORD PTR __$ArrayPad$[ebp]
  001ae	33 cd		 xor	 ecx, ebp
  001b0	e8 00 00 00 00	 call	 @__security_check_cookie@4
  001b5	8b e5		 mov	 esp, ebp
  001b7	5d		 pop	 ebp
  001b8	c3		 ret	 0
$LN245@ExecDefine:
; File C:\Program Files\Microsoft Visual Studio\2022\Professional\VC\Tools\MSVC\14.44.35207\include\xtree

; 1649 :             _Throw_tree_length_error();

  001b9	e8 00 00 00 00	 call	 ?_Throw_tree_length_error@std@@YAXXZ ; std::_Throw_tree_length_error
$LN246@ExecDefine:
; File C:\Program Files\Microsoft Visual Studio\2022\Professional\VC\Tools\MSVC\14.44.35207\include\xmemory

; 219  :     _STL_VERIFY(_Back_shift >= _Min_back_shift && _Back_shift <= _Non_user_size, "invalid argument");

  001be	6a 00		 push	 0
  001c0	6a 00		 push	 0
  001c2	6a 00		 push	 0
  001c4	6a 00		 push	 0
  001c6	6a 00		 push	 0
  001c8	e8 00 00 00 00	 call	 __invoke_watson
$LN243@ExecDefine:
  001cd	cc		 int	 3
_TEXT	ENDS
;	COMDAT text$x
text$x	SEGMENT
__unwindfunclet$?ExecDefine@CScript@@QAEXXZ$0:
  00000	8d 4d bc	 lea	 ecx, DWORD PTR _str$[ebp]
  00003	e9 00 00 00 00	 jmp	 ??1?$basic_string@DU?$char_traits@D@std@@V?$allocator@D@2@@std@@QAE@XZ ; std::basic_string<char,std::char_traits<char>,std::allocator<char> >::~basic_string<char,std::char_traits<char>,std::allocator<char> >
__unwindfunclet$?ExecDefine@CScript@@QAEXXZ$1:
  00008	8d 4d d4	 lea	 ecx, DWORD PTR $T6[ebp]
  0000b	e9 00 00 00 00	 jmp	 ??1?$pair@V?$basic_string@DU?$char_traits@D@std@@V?$allocator@D@2@@std@@H@std@@QAE@XZ
__unwindfunclet$?ExecDefine@CScript@@QAEXXZ$6:
  00010	8d 4d b0	 lea	 ecx, DWORD PTR $T5[ebp]
  00013	e9 00 00 00 00	 jmp	 ??1?$_Alloc_construct_ptr@V?$allocator@U?$_Tree_node@U?$pair@$$CBV?$basic_string@DU?$char_traits@D@std@@V?$allocator@D@2@@std@@H@std@@PAX@std@@@std@@@std@@QAE@XZ ; std::_Alloc_construct_ptr<std::allocator<std::_Tree_node<std::pair<std::basic_string<char,std::char_traits<char>,std::allocator<char> > const ,int>,void *> > >::~_Alloc_construct_ptr<std::allocator<std::_Tree_node<std::pair<std::basic_string<char,std::char_traits<char>,std::allocator<char> > const ,int>,void *> > >
  00018	cc		 int	 3
  00019	cc		 int	 3
  0001a	cc		 int	 3
  0001b	cc		 int	 3
  0001c	cc		 int	 3
__ehhandler$?ExecDefine@CScript@@QAEXXZ:
  0001d	90		 npad	 1
  0001e	90		 npad	 1
  0001f	8b 54 24 08	 mov	 edx, DWORD PTR [esp+8]
  00023	8d 42 0c	 lea	 eax, DWORD PTR [edx+12]
  00026	8b 4a a0	 mov	 ecx, DWORD PTR [edx-96]
  00029	33 c8		 xor	 ecx, eax
  0002b	e8 00 00 00 00	 call	 @__security_check_cookie@4
  00030	8b 4a fc	 mov	 ecx, DWORD PTR [edx-4]
  00033	33 c8		 xor	 ecx, eax
  00035	e8 00 00 00 00	 call	 @__security_check_cookie@4
  0003a	b8 00 00 00 00	 mov	 eax, OFFSET __ehfuncinfo$?ExecDefine@CScript@@QAEXXZ
  0003f	e9 00 00 00 00	 jmp	 ___CxxFrameHandler3
text$x	ENDS
?ExecDefine@CScript@@QAEXXZ ENDP			; CScript::ExecDefine
; Function compile flags: /Ogtp
; File C:\IAGOS\server\v18\Source\Source\_Common\script.cpp
;	COMDAT ?InternalFunc@CScript@@QAEHPAD@Z
_TEXT	SEGMENT
_s$ = 8							; size = 4
?InternalFunc@CScript@@QAEHPAD@Z PROC			; CScript::InternalFunc, COMDAT
; _this$ = ecx

; 442  : {

  00000	55		 push	 ebp
  00001	8b ec		 mov	 ebp, esp

; 443  : 	if(!process) // ŔÎĹÍÇÁ¸®ĹÍ

  00003	83 b9 58 08 00
	00 00		 cmp	 DWORD PTR [ecx+2136], 0
  0000a	56		 push	 esi
  0000b	57		 push	 edi
  0000c	75 65		 jne	 SHORT $LN5@InternalFu

; 444  : 	{
; 445  : 		for(int i = 0; interFunc[i].p; i++)

  0000e	33 f6		 xor	 esi, esi
  00010	39 35 04 00 00
	00		 cmp	 DWORD PTR ?interFunc@@3PAUInterFuncType@@A+4, esi
  00016	74 4a		 je	 SHORT $LN8@InternalFu
  00018	8b 7d 08	 mov	 edi, DWORD PTR _s$[ebp]
  0001b	33 c9		 xor	 ecx, ecx
  0001d	0f 1f 00	 npad	 3
$LL4@InternalFu:

; 446  : 			if(!strcmp(interFunc[i].name,s))

  00020	8b 89 00 00 00
	00		 mov	 ecx, DWORD PTR ?interFunc@@3PAUInterFuncType@@A[ecx]
  00026	8b c7		 mov	 eax, edi
$LL15@InternalFu:
  00028	8a 11		 mov	 dl, BYTE PTR [ecx]
  0002a	3a 10		 cmp	 dl, BYTE PTR [eax]
  0002c	75 1a		 jne	 SHORT $LN16@InternalFu
  0002e	84 d2		 test	 dl, dl
  00030	74 12		 je	 SHORT $LN17@InternalFu
  00032	8a 51 01	 mov	 dl, BYTE PTR [ecx+1]
  00035	3a 50 01	 cmp	 dl, BYTE PTR [eax+1]
  00038	75 0e		 jne	 SHORT $LN16@InternalFu
  0003a	83 c1 02	 add	 ecx, 2
  0003d	83 c0 02	 add	 eax, 2
  00040	84 d2		 test	 dl, dl
  00042	75 e4		 jne	 SHORT $LL15@InternalFu
$LN17@InternalFu:
  00044	33 c0		 xor	 eax, eax
  00046	eb 05		 jmp	 SHORT $LN18@InternalFu
$LN16@InternalFu:
  00048	1b c0		 sbb	 eax, eax
  0004a	83 c8 01	 or	 eax, 1
$LN18@InternalFu:
  0004d	85 c0		 test	 eax, eax
  0004f	74 1a		 je	 SHORT $LN11@InternalFu

; 444  : 	{
; 445  : 		for(int i = 0; interFunc[i].p; i++)

  00051	46		 inc	 esi
  00052	8d 0c f5 00 00
	00 00		 lea	 ecx, DWORD PTR [esi*8]
  00059	83 b9 04 00 00
	00 00		 cmp	 DWORD PTR ?interFunc@@3PAUInterFuncType@@A[ecx+4], 0
  00060	75 be		 jne	 SHORT $LL4@InternalFu
$LN8@InternalFu:
  00062	5f		 pop	 edi

; 452  : 	return -1;

  00063	83 c8 ff	 or	 eax, -1

; 453  : }

  00066	5e		 pop	 esi
  00067	5d		 pop	 ebp
  00068	c2 04 00	 ret	 4
$LN11@InternalFu:
  0006b	5f		 pop	 edi

; 447  : 				return i;

  0006c	8b c6		 mov	 eax, esi

; 453  : }

  0006e	5e		 pop	 esi
  0006f	5d		 pop	 ebp
  00070	c2 04 00	 ret	 4
$LN5@InternalFu:

; 448  : 	}
; 449  : 	else // ÄÄĆÄŔĎ 
; 450  : 	if(s[0]=='$') 

  00073	8b 45 08	 mov	 eax, DWORD PTR _s$[ebp]
  00076	80 38 24	 cmp	 BYTE PTR [eax], 36	; 00000024H
  00079	75 e7		 jne	 SHORT $LN8@InternalFu

; 451  : 		return atoi(&s[1]);

  0007b	40		 inc	 eax
  0007c	50		 push	 eax
  0007d	e8 00 00 00 00	 call	 _atoi
  00082	83 c4 04	 add	 esp, 4
  00085	5f		 pop	 edi

; 453  : }

  00086	5e		 pop	 esi
  00087	5d		 pop	 ebp
  00088	c2 04 00	 ret	 4
?InternalFunc@CScript@@QAEHPAD@Z ENDP			; CScript::InternalFunc
_TEXT	ENDS
; Function compile flags: /Ogtp
; File C:\IAGOS\server\v18\Source\Source\_Common\script.cpp
;	COMDAT ?LookUp@CScript@@QAEDPBD@Z
_TEXT	SEGMENT
_s$ = 8							; size = 4
?LookUp@CScript@@QAEDPBD@Z PROC				; CScript::LookUp, COMDAT
; _this$ = ecx

; 424  : {

  00000	55		 push	 ebp
  00001	8b ec		 mov	 ebp, esp
  00003	53		 push	 ebx
  00004	56		 push	 esi
  00005	57		 push	 edi
  00006	8b f9		 mov	 edi, ecx

; 425  : 	if(!process) // ŔÎĹÍÇÁ¸®ĹÍ 

  00008	83 bf 58 08 00
	00 00		 cmp	 DWORD PTR [edi+2136], 0
  0000f	75 6b		 jne	 SHORT $LN5@LookUp

; 426  : 	{
; 427  : 	#ifdef __REMOVE_SCIRPT_060712
; 428  : 		if( memcmp( s, "#define", 7 ) == 0 )
; 429  : 			return DEFINE;
; 430  : 	#else
; 431  : 		for(int i=0; i<22; ++i)

  00011	8b 5d 08	 mov	 ebx, DWORD PTR _s$[ebp]
  00014	33 f6		 xor	 esi, esi
  00016	66 66 0f 1f 84
	00 00 00 00 00	 npad	 10
$LL4@LookUp:

; 432  : 			if(!strcmp(_table[i].command,s)) 

  00020	8b 0c f5 00 00
	00 00		 mov	 ecx, DWORD PTR ?_table@@3PAUCommand@@A[esi*8]
  00027	8b c3		 mov	 eax, ebx
  00029	0f 1f 80 00 00
	00 00		 npad	 7
$LL15@LookUp:
  00030	8a 11		 mov	 dl, BYTE PTR [ecx]
  00032	3a 10		 cmp	 dl, BYTE PTR [eax]
  00034	75 1a		 jne	 SHORT $LN16@LookUp
  00036	84 d2		 test	 dl, dl
  00038	74 12		 je	 SHORT $LN17@LookUp
  0003a	8a 51 01	 mov	 dl, BYTE PTR [ecx+1]
  0003d	3a 50 01	 cmp	 dl, BYTE PTR [eax+1]
  00040	75 0e		 jne	 SHORT $LN16@LookUp
  00042	83 c1 02	 add	 ecx, 2
  00045	83 c0 02	 add	 eax, 2
  00048	84 d2		 test	 dl, dl
  0004a	75 e4		 jne	 SHORT $LL15@LookUp
$LN17@LookUp:
  0004c	33 c0		 xor	 eax, eax
  0004e	eb 05		 jmp	 SHORT $LN18@LookUp
$LN16@LookUp:
  00050	1b c0		 sbb	 eax, eax
  00052	83 c8 01	 or	 eax, 1
$LN18@LookUp:
  00055	85 c0		 test	 eax, eax
  00057	74 0f		 je	 SHORT $LN11@LookUp

; 426  : 	{
; 427  : 	#ifdef __REMOVE_SCIRPT_060712
; 428  : 		if( memcmp( s, "#define", 7 ) == 0 )
; 429  : 			return DEFINE;
; 430  : 	#else
; 431  : 		for(int i=0; i<22; ++i)

  00059	46		 inc	 esi
  0005a	83 fe 16	 cmp	 esi, 22			; 00000016H
  0005d	7c c1		 jl	 SHORT $LL4@LookUp
$LN8@LookUp:
  0005f	5f		 pop	 edi

; 438  : 	return 0;
; 439  : }

  00060	5e		 pop	 esi
  00061	32 c0		 xor	 al, al
  00063	5b		 pop	 ebx
  00064	5d		 pop	 ebp
  00065	c2 04 00	 ret	 4
$LN11@LookUp:

; 433  : 				return cmd = _table[i].tok;

  00068	8a 04 f5 04 00
	00 00		 mov	 al, BYTE PTR ?_table@@3PAUCommand@@A[esi*8+4]
  0006f	88 87 e4 0d 00
	00		 mov	 BYTE PTR [edi+3556], al
  00075	5f		 pop	 edi

; 438  : 	return 0;
; 439  : }

  00076	5e		 pop	 esi
  00077	5b		 pop	 ebx
  00078	5d		 pop	 ebp
  00079	c2 04 00	 ret	 4
$LN5@LookUp:

; 434  : 	#endif // __REMOVE_SCIRPT_060712
; 435  : 	}
; 436  : 	else if(s[0]=='@')  // ÄÄĆÄŔĎ

  0007c	8b 45 08	 mov	 eax, DWORD PTR _s$[ebp]
  0007f	80 38 40	 cmp	 BYTE PTR [eax], 64	; 00000040H
  00082	75 db		 jne	 SHORT $LN8@LookUp

; 437  : 		return _table[atoi(&s[1])].tok;

  00084	40		 inc	 eax
  00085	50		 push	 eax
  00086	e8 00 00 00 00	 call	 _atoi
  0008b	83 c4 04	 add	 esp, 4
  0008e	8a 04 c5 04 00
	00 00		 mov	 al, BYTE PTR ?_table@@3PAUCommand@@A[eax*8+4]
  00095	5f		 pop	 edi

; 438  : 	return 0;
; 439  : }

  00096	5e		 pop	 esi
  00097	5b		 pop	 ebx
  00098	5d		 pop	 ebp
  00099	c2 04 00	 ret	 4
?LookUp@CScript@@QAEDPBD@Z ENDP				; CScript::LookUp
_TEXT	ENDS
; Function compile flags: /Ogtp
; File C:\IAGOS\server\v18\Source\Source\_Common\script.cpp
;	COMDAT ?GetTkn@CScript@@QAEHH@Z
_TEXT	SEGMENT
_bComma$ = 8						; size = 4
?GetTkn@CScript@@QAEHH@Z PROC				; CScript::GetTkn, COMDAT
; _this$ = ecx

; 165  : {

  00000	55		 push	 ebp
  00001	8b ec		 mov	 ebp, esp
  00003	56		 push	 esi

; 166  : 	CScanner::GetToken( bComma ); 

  00004	ff 75 08	 push	 DWORD PTR _bComma$[ebp]
  00007	8b f1		 mov	 esi, ecx
  00009	e8 00 00 00 00	 call	 ?GetToken@CScanner@@UAEHH@Z ; CScanner::GetToken

; 167  : 	cmd = 0;
; 168  : 
; 169  : 	if( tokenType == DELIMITER ) 

  0000e	8b 8e 40 08 00
	00		 mov	 ecx, DWORD PTR [esi+2112]
  00014	c6 86 e4 0d 00
	00 00		 mov	 BYTE PTR [esi+3556], 0
  0001b	83 f9 01	 cmp	 ecx, 1
  0001e	75 23		 jne	 SHORT $LN2@GetTkn

; 170  : 	{
; 171  : 		if( *token == '{' || *token == '}' ) // şí·° Ăł¸®

  00020	8b 46 3c	 mov	 eax, DWORD PTR [esi+60]
  00023	8a 00		 mov	 al, BYTE PTR [eax]
  00025	3c 7b		 cmp	 al, 123			; 0000007bH
  00027	74 04		 je	 SHORT $LN5@GetTkn
  00029	3c 7d		 cmp	 al, 125			; 0000007dH
  0002b	75 0f		 jne	 SHORT $LN10@GetTkn
$LN5@GetTkn:

; 172  : 			tokenType = BLOCK;

  0002d	c7 86 40 08 00
	00 07 00 00 00	 mov	 DWORD PTR [esi+2112], 7
  00037	b9 07 00 00 00	 mov	 ecx, 7
$LN10@GetTkn:

; 183  : }

  0003c	8b c1		 mov	 eax, ecx
  0003e	5e		 pop	 esi
  0003f	5d		 pop	 ebp
  00040	c2 04 00	 ret	 4
$LN2@GetTkn:

; 173  : 	}
; 174  : 	else
; 175  : 	if( tokenType == TEMP ) 

  00043	85 c9		 test	 ecx, ecx
  00045	75 f5		 jne	 SHORT $LN10@GetTkn

; 176  : 	{
; 177  : 		if( tok = LookUp( token ) ) 

  00047	ff 76 3c	 push	 DWORD PTR [esi+60]
  0004a	8b ce		 mov	 ecx, esi
  0004c	e8 00 00 00 00	 call	 ?LookUp@CScript@@QAEDPBD@Z ; CScript::LookUp
  00051	0f be c0	 movsx	 eax, al
  00054	89 86 44 08 00
	00		 mov	 DWORD PTR [esi+2116], eax
  0005a	85 c0		 test	 eax, eax
  0005c	74 14		 je	 SHORT $LN7@GetTkn

; 178  : 			tokenType = KEYWORD;

  0005e	c7 86 40 08 00
	00 05 00 00 00	 mov	 DWORD PTR [esi+2112], 5

; 181  : 	}
; 182  : 	return tokenType;

  00068	b8 05 00 00 00	 mov	 eax, 5
  0006d	5e		 pop	 esi

; 183  : }

  0006e	5d		 pop	 ebp
  0006f	c2 04 00	 ret	 4
$LN7@GetTkn:

; 179  : 		else 
; 180  : 			tokenType = IDENTIFIER;

  00072	c7 86 40 08 00
	00 02 00 00 00	 mov	 DWORD PTR [esi+2112], 2

; 181  : 	}
; 182  : 	return tokenType;

  0007c	b8 02 00 00 00	 mov	 eax, 2
  00081	5e		 pop	 esi

; 183  : }

  00082	5d		 pop	 ebp
  00083	c2 04 00	 ret	 4
?GetTkn@CScript@@QAEHH@Z ENDP				; CScript::GetTkn
_TEXT	ENDS
; Function compile flags: /Ogtp
; File C:\IAGOS\server\v18\Source\Source\_Common\script.cpp
;	COMDAT ?GetParams@CScript@@QAEXXZ
_TEXT	SEGMENT
?GetParams@CScript@@QAEXXZ PROC				; CScript::GetParams, COMDAT
; _this$ = ecx

; 1168 : {

  00000	56		 push	 esi
  00001	8b f1		 mov	 esi, ecx
  00003	57		 push	 edi

; 1169 : 	if(!lvartos)

  00004	8b 86 08 1e 00
	00		 mov	 eax, DWORD PTR [esi+7688]
  0000a	85 c0		 test	 eax, eax
  0000c	75 0c		 jne	 SHORT $LN5@GetParams

; 1170 : 		GetToken();

  0000e	8b 06		 mov	 eax, DWORD PTR [esi]
  00010	6a 00		 push	 0
  00012	ff 50 14	 call	 DWORD PTR [eax+20]
  00015	8d 4e 3c	 lea	 ecx, DWORD PTR [esi+60]
  00018	eb 72		 jmp	 SHORT $LN3@GetParams
$LN5@GetParams:
  0001a	53		 push	 ebx

; 1171 : 	else 
; 1172 : 	{
; 1173 : 		VarType *p; int i = lvartos-1;

  0001b	8d 1c c5 b4 01
	00 00		 lea	 ebx, DWORD PTR [eax*8+436]
  00022	03 d8		 add	 ebx, eax
  00024	8d 1c de	 lea	 ebx, DWORD PTR [esi+ebx*8]
$LL4@GetParams:

; 1174 : 		do { // process comma-separated list of parameters 
; 1175 : 			GetToken();

  00027	8b 06		 mov	 eax, DWORD PTR [esi]
  00029	8b ce		 mov	 ecx, esi
  0002b	6a 00		 push	 0
  0002d	ff 50 14	 call	 DWORD PTR [eax+20]

; 1176 : 			p = &localVarStack[i];
; 1177 : 			if(*token!=')') {

  00030	8b 46 3c	 mov	 eax, DWORD PTR [esi+60]
  00033	8d 4e 3c	 lea	 ecx, DWORD PTR [esi+60]
  00036	80 38 29	 cmp	 BYTE PTR [eax], 41	; 00000029H
  00039	74 50		 je	 SHORT $LN25@GetParams

; 1178 : 				if(tok!=VAR) SntxErr( NULL, TYPE_EXPECTED);

  0003b	83 be 44 08 00
	00 02		 cmp	 DWORD PTR [esi+2116], 2
  00042	74 0b		 je	 SHORT $LN9@GetParams
  00044	8b 06		 mov	 eax, DWORD PTR [esi]
  00046	8b ce		 mov	 ecx, esi
  00048	6a 09		 push	 9
  0004a	6a 00		 push	 0
  0004c	ff 50 18	 call	 DWORD PTR [eax+24]
$LN9@GetParams:

; 1179 : 				p->varType = tokenType;

  0004f	8b 86 40 08 00
	00		 mov	 eax, DWORD PTR [esi+2112]

; 1180 : 				GetToken();

  00055	8b ce		 mov	 ecx, esi
  00057	89 43 40	 mov	 DWORD PTR [ebx+64], eax
  0005a	8b 06		 mov	 eax, DWORD PTR [esi]
  0005c	6a 00		 push	 0
  0005e	ff 50 14	 call	 DWORD PTR [eax+20]

; 1181 : 
; 1182 : 				// link parameter name with argument already on local var stack 
; 1183 : 				strcpy(p->varName,token);

  00061	8b 56 3c	 mov	 edx, DWORD PTR [esi+60]
  00064	8b c3		 mov	 eax, ebx
$LL12@GetParams:
  00066	8a 0a		 mov	 cl, BYTE PTR [edx]
  00068	8d 52 01	 lea	 edx, DWORD PTR [edx+1]
  0006b	88 08		 mov	 BYTE PTR [eax], cl
  0006d	8d 40 01	 lea	 eax, DWORD PTR [eax+1]
  00070	84 c9		 test	 cl, cl
  00072	75 f2		 jne	 SHORT $LL12@GetParams

; 1184 : 				GetToken();

  00074	8b 06		 mov	 eax, DWORD PTR [esi]
  00076	8b ce		 mov	 ecx, esi
  00078	6a 00		 push	 0
  0007a	ff 50 14	 call	 DWORD PTR [eax+20]

; 1185 : 				i--;
; 1186 : 			}
; 1187 : 			else break;
; 1188 : 		} while(*token==',');

  0007d	8b 46 3c	 mov	 eax, DWORD PTR [esi+60]
  00080	8d 4e 3c	 lea	 ecx, DWORD PTR [esi+60]
  00083	83 eb 48	 sub	 ebx, 72			; 00000048H
  00086	80 38 2c	 cmp	 BYTE PTR [eax], 44	; 0000002cH
  00089	74 9c		 je	 SHORT $LL4@GetParams
$LN25@GetParams:
  0008b	5b		 pop	 ebx
$LN3@GetParams:

; 1189 : 	}
; 1190 : 	if(*token!=')') SntxErr( NULL, PAREN_EXPECTED);

  0008c	8b 01		 mov	 eax, DWORD PTR [ecx]
  0008e	80 38 29	 cmp	 BYTE PTR [eax], 41	; 00000029H
  00091	74 0b		 je	 SHORT $LN10@GetParams
  00093	8b 06		 mov	 eax, DWORD PTR [esi]
  00095	8b ce		 mov	 ecx, esi
  00097	6a 0c		 push	 12			; 0000000cH
  00099	6a 00		 push	 0
  0009b	ff 50 18	 call	 DWORD PTR [eax+24]
$LN10@GetParams:

; 1191 : }

  0009e	5f		 pop	 edi
  0009f	5e		 pop	 esi
  000a0	c3		 ret	 0
?GetParams@CScript@@QAEXXZ ENDP				; CScript::GetParams
_TEXT	ENDS
; Function compile flags: /Ogtp
; File C:\IAGOS\server\v18\Source\Source\_Common\script.cpp
;	COMDAT ?FindLabel@CScript@@QAEXXZ
_TEXT	SEGMENT
tv385 = -69						; size = 1
_temp$ = -68						; size = 64
__$ArrayPad$ = -4					; size = 4
?FindLabel@CScript@@QAEXXZ PROC				; CScript::FindLabel, COMDAT
; _this$ = ecx

; 1065 : {

  00000	55		 push	 ebp
  00001	8b ec		 mov	 ebp, esp
  00003	83 ec 48	 sub	 esp, 72			; 00000048H
  00006	a1 00 00 00 00	 mov	 eax, DWORD PTR ___security_cookie
  0000b	33 c5		 xor	 eax, ebp
  0000d	89 45 fc	 mov	 DWORD PTR __$ArrayPad$[ebp], eax
  00010	53		 push	 ebx
  00011	56		 push	 esi
  00012	8b f1		 mov	 esi, ecx

; 1066 : 	char block = 0;

  00014	32 db		 xor	 bl, bl
  00016	57		 push	 edi

; 1067 : 	char* p = m_pProg;

  00017	8b 7e 18	 mov	 edi, DWORD PTR [esi+24]

; 1068 : 	char temp[64];
; 1069 : 	m_dwDef = 0;

  0001a	c7 46 10 00 00
	00 00		 mov	 DWORD PTR [esi+16], 0
$LL4@FindLabel:

; 1070 : 	do 
; 1071 : 	{
; 1072 : 		GetToken();

  00021	8b 06		 mov	 eax, DWORD PTR [esi]
  00023	8b ce		 mov	 ecx, esi
  00025	6a 00		 push	 0
  00027	88 5d bb	 mov	 BYTE PTR tv385[ebp], bl
  0002a	ff 50 14	 call	 DWORD PTR [eax+20]

; 1073 : 		if( tokenType == IDENTIFIER ) 

  0002d	8b 86 40 08 00
	00		 mov	 eax, DWORD PTR [esi+2112]
  00033	83 f8 02	 cmp	 eax, 2
  00036	0f 85 96 00 00
	00		 jne	 $LN5@FindLabel

; 1074 : 		{
; 1075 : 			strcpy( temp, token );

  0003c	8b 46 3c	 mov	 eax, DWORD PTR [esi+60]
  0003f	8d 55 bc	 lea	 edx, DWORD PTR _temp$[ebp]
  00042	2b d0		 sub	 edx, eax
$LL14@FindLabel:
  00044	8a 08		 mov	 cl, BYTE PTR [eax]
  00046	8d 40 01	 lea	 eax, DWORD PTR [eax+1]
  00049	88 4c 02 ff	 mov	 BYTE PTR [edx+eax-1], cl
  0004d	84 c9		 test	 cl, cl
  0004f	75 f3		 jne	 SHORT $LL14@FindLabel

; 1076 : 			GetToken();

  00051	8b 06		 mov	 eax, DWORD PTR [esi]
  00053	8b ce		 mov	 ecx, esi
  00055	6a 00		 push	 0
  00057	ff 50 14	 call	 DWORD PTR [eax+20]

; 1077 : 			if( *token==':' ) 

  0005a	8b 46 3c	 mov	 eax, DWORD PTR [esi+60]
  0005d	80 38 3a	 cmp	 BYTE PTR [eax], 58	; 0000003aH
  00060	0f 85 86 00 00
	00		 jne	 $LN2@FindLabel

; 1078 : 			{
; 1079 : 				strcpy( labelTable[ labeltos ].name, temp );

  00066	8b 86 0c 1e 00
	00		 mov	 eax, DWORD PTR [esi+7692]
  0006c	8d 4d bc	 lea	 ecx, DWORD PTR _temp$[ebp]
  0006f	8d 14 c5 17 02
	00 00		 lea	 edx, DWORD PTR [eax*8+535]
  00076	03 d0		 add	 edx, eax
  00078	8d 14 d6	 lea	 edx, DWORD PTR [esi+edx*8]
  0007b	0f 1f 44 00 00	 npad	 5
$LL15@FindLabel:
  00080	8a 01		 mov	 al, BYTE PTR [ecx]
  00082	8d 49 01	 lea	 ecx, DWORD PTR [ecx+1]
  00085	88 02		 mov	 BYTE PTR [edx], al
  00087	8d 52 01	 lea	 edx, DWORD PTR [edx+1]
  0008a	84 c0		 test	 al, al
  0008c	75 f2		 jne	 SHORT $LL15@FindLabel

; 1080 : 				labelTable[ labeltos ].loc = m_pProg;

  0008e	8b 86 0c 1e 00
	00		 mov	 eax, DWORD PTR [esi+7692]
  00094	8d 0c c0	 lea	 ecx, DWORD PTR [eax+eax*8]
  00097	8b 46 18	 mov	 eax, DWORD PTR [esi+24]
  0009a	89 84 ce f8 10
	00 00		 mov	 DWORD PTR [esi+ecx*8+4344], eax

; 1081 : 				labelTable[ labeltos ].block = block;

  000a1	8b 86 0c 1e 00
	00		 mov	 eax, DWORD PTR [esi+7692]
  000a7	0f be cb	 movsx	 ecx, bl
  000aa	8d 04 c0	 lea	 eax, DWORD PTR [eax+eax*8]
  000ad	89 8c c6 fc 10
	00 00		 mov	 DWORD PTR [esi+eax*8+4348], ecx

; 1082 : 				labeltos++;

  000b4	ff 86 0c 1e 00
	00		 inc	 DWORD PTR [esi+7692]

; 1083 : 				if( labeltos >= 45 ) 

  000ba	83 be 0c 1e 00
	00 2d		 cmp	 DWORD PTR [esi+7692], 45 ; 0000002dH
  000c1	7c 29		 jl	 SHORT $LN2@FindLabel

; 1084 : 				{
; 1085 : 					printf("label overflow");

  000c3	68 00 00 00 00	 push	 OFFSET ??_C@_0P@MHAOLNPC@label?5overflow@
  000c8	e8 00 00 00 00	 call	 _printf
  000cd	83 c4 04	 add	 esp, 4

; 1086 : 				}
; 1087 : 			}
; 1088 : 		}

  000d0	eb 1a		 jmp	 SHORT $LN2@FindLabel
$LN5@FindLabel:

; 1089 : 		else
; 1090 : 		if( tokenType == BLOCK ) 

  000d2	83 f8 07	 cmp	 eax, 7
  000d5	75 15		 jne	 SHORT $LN2@FindLabel

; 1091 : 		{ // If block delimiter 
; 1092 : 			if( *token == '{') block++;

  000d7	8b 46 3c	 mov	 eax, DWORD PTR [esi+60]

; 1093 : 			else block--;
; 1094 : 			if( !block ) { m_pProg = p;	return; }

  000da	80 38 7b	 cmp	 BYTE PTR [eax], 123	; 0000007bH
  000dd	0f 94 c3	 sete	 bl
  000e0	8d 1c 5d ff ff
	ff ff		 lea	 ebx, DWORD PTR [ebx*2-1]
  000e7	02 5d bb	 add	 bl, BYTE PTR tv385[ebp]
  000ea	74 14		 je	 SHORT $LN27@FindLabel
$LN2@FindLabel:

; 1095 : 		}
; 1096 : 	} while(tok != FINISHED);

  000ec	83 be 44 08 00
	00 15		 cmp	 DWORD PTR [esi+2116], 21 ; 00000015H
  000f3	0f 85 28 ff ff
	ff		 jne	 $LL4@FindLabel

; 1097 : 	m_pProg = p;
; 1098 : 	m_dwDef = 2;

  000f9	c7 46 10 02 00
	00 00		 mov	 DWORD PTR [esi+16], 2
$LN27@FindLabel:

; 1099 : }

  00100	8b 4d fc	 mov	 ecx, DWORD PTR __$ArrayPad$[ebp]
  00103	89 7e 18	 mov	 DWORD PTR [esi+24], edi
  00106	33 cd		 xor	 ecx, ebp
  00108	5f		 pop	 edi
  00109	5e		 pop	 esi
  0010a	5b		 pop	 ebx
  0010b	e8 00 00 00 00	 call	 @__security_check_cookie@4
  00110	8b e5		 mov	 esp, ebp
  00112	5d		 pop	 ebp
  00113	c3		 ret	 0
?FindLabel@CScript@@QAEXXZ ENDP				; CScript::FindLabel
_TEXT	ENDS
; Function compile flags: /Ogtp
; File C:\IAGOS\server\v18\Source\Source\_Common\script.cpp
;	COMDAT ?DeclLocal@CScript@@QAEXXZ
_TEXT	SEGMENT
_i$ = -76						; size = 72
__$ArrayPad$ = -4					; size = 4
?DeclLocal@CScript@@QAEXXZ PROC				; CScript::DeclLocal, COMDAT
; _this$ = ecx

; 1048 : {

  00000	55		 push	 ebp
  00001	8b ec		 mov	 ebp, esp
  00003	83 ec 4c	 sub	 esp, 76			; 0000004cH
  00006	a1 00 00 00 00	 mov	 eax, DWORD PTR ___security_cookie
  0000b	33 c5		 xor	 eax, ebp
  0000d	89 45 fc	 mov	 DWORD PTR __$ArrayPad$[ebp], eax
  00010	56		 push	 esi
  00011	8b f1		 mov	 esi, ecx

; 1049 : 	VarType i;
; 1050 : 
; 1051 : 	GetToken(); // get type 

  00013	6a 00		 push	 0
  00015	8b 06		 mov	 eax, DWORD PTR [esi]
  00017	ff 50 14	 call	 DWORD PTR [eax+20]

; 1052 : 
; 1053 : 	i.varType = tok;

  0001a	8b 86 44 08 00
	00		 mov	 eax, DWORD PTR [esi+2116]
  00020	89 45 f4	 mov	 DWORD PTR _i$[ebp+64], eax

; 1054 : 	i.value = 0; // init to 0 

  00023	c7 45 f8 00 00
	00 00		 mov	 DWORD PTR _i$[ebp+68], 0
  0002a	66 0f 1f 44 00
	00		 npad	 6
$LL4@DeclLocal:

; 1055 : 
; 1056 : 	do { // process comma-separated list 
; 1057 : 		GetToken(); // get var name 

  00030	8b 06		 mov	 eax, DWORD PTR [esi]
  00032	8b ce		 mov	 ecx, esi
  00034	6a 00		 push	 0
  00036	ff 50 14	 call	 DWORD PTR [eax+20]

; 1058 : 		strcpy(i.varName,token);

  00039	8b 46 3c	 mov	 eax, DWORD PTR [esi+60]
  0003c	8d 55 b4	 lea	 edx, DWORD PTR _i$[ebp]
  0003f	2b d0		 sub	 edx, eax
$LL7@DeclLocal:
  00041	8a 08		 mov	 cl, BYTE PTR [eax]
  00043	8d 40 01	 lea	 eax, DWORD PTR [eax+1]
  00046	88 4c 02 ff	 mov	 BYTE PTR [edx+eax-1], cl
  0004a	84 c9		 test	 cl, cl
  0004c	75 f3		 jne	 SHORT $LL7@DeclLocal

; 1059 : 		LocalPush(i);

  0004e	0f 10 45 b4	 movups	 xmm0, XMMWORD PTR _i$[ebp]
  00052	83 ec 48	 sub	 esp, 72			; 00000048H
  00055	8b ce		 mov	 ecx, esi
  00057	8b c4		 mov	 eax, esp
  00059	0f 11 00	 movups	 XMMWORD PTR [eax], xmm0
  0005c	0f 10 45 c4	 movups	 xmm0, XMMWORD PTR _i$[ebp+16]
  00060	0f 11 40 10	 movups	 XMMWORD PTR [eax+16], xmm0
  00064	0f 10 45 d4	 movups	 xmm0, XMMWORD PTR _i$[ebp+32]
  00068	0f 11 40 20	 movups	 XMMWORD PTR [eax+32], xmm0
  0006c	0f 10 45 e4	 movups	 xmm0, XMMWORD PTR _i$[ebp+48]
  00070	0f 11 40 30	 movups	 XMMWORD PTR [eax+48], xmm0
  00074	f3 0f 7e 45 f4	 movq	 xmm0, QWORD PTR _i$[ebp+64]
  00079	66 0f d6 40 40	 movq	 QWORD PTR [eax+64], xmm0
  0007e	e8 00 00 00 00	 call	 ?LocalPush@CScript@@QAEXUVarType@@@Z ; CScript::LocalPush

; 1060 : 		GetToken();

  00083	8b 06		 mov	 eax, DWORD PTR [esi]
  00085	8b ce		 mov	 ecx, esi
  00087	6a 00		 push	 0
  00089	ff 50 14	 call	 DWORD PTR [eax+20]

; 1061 : 	} while(*token==',');

  0008c	8b 46 3c	 mov	 eax, DWORD PTR [esi+60]
  0008f	8a 00		 mov	 al, BYTE PTR [eax]
  00091	3c 2c		 cmp	 al, 44			; 0000002cH
  00093	74 9b		 je	 SHORT $LL4@DeclLocal

; 1062 : 	if(*token!=';') SntxErr( NULL, SEMI_EXPECTED);

  00095	3c 3b		 cmp	 al, 59			; 0000003bH
  00097	74 0b		 je	 SHORT $LN5@DeclLocal
  00099	8b 06		 mov	 eax, DWORD PTR [esi]
  0009b	8b ce		 mov	 ecx, esi
  0009d	6a 06		 push	 6
  0009f	6a 00		 push	 0
  000a1	ff 50 18	 call	 DWORD PTR [eax+24]
$LN5@DeclLocal:

; 1063 : }

  000a4	8b 4d fc	 mov	 ecx, DWORD PTR __$ArrayPad$[ebp]
  000a7	33 cd		 xor	 ecx, ebp
  000a9	5e		 pop	 esi
  000aa	e8 00 00 00 00	 call	 @__security_check_cookie@4
  000af	8b e5		 mov	 esp, ebp
  000b1	5d		 pop	 ebp
  000b2	c3		 ret	 0
?DeclLocal@CScript@@QAEXXZ ENDP				; CScript::DeclLocal
_TEXT	ENDS
; Function compile flags: /Ogtp
; File C:\IAGOS\server\v18\Source\Source\_Common\script.cpp
;	COMDAT ?DeclGlobal@CScript@@QAEXXZ
_TEXT	SEGMENT
?DeclGlobal@CScript@@QAEXXZ PROC			; CScript::DeclGlobal, COMDAT
; _this$ = ecx

; 286  : {

  00000	56		 push	 esi
  00001	8b f1		 mov	 esi, ecx

; 287  : 	GetToken(); // get type 

  00003	6a 00		 push	 0
  00005	8b 06		 mov	 eax, DWORD PTR [esi]
  00007	ff 50 14	 call	 DWORD PTR [eax+20]

; 288  : 
; 289  : 	globalVars[gVarIndex].varType = tok;

  0000a	8b 86 64 08 00
	00		 mov	 eax, DWORD PTR [esi+2148]
  00010	8d 0c c0	 lea	 ecx, DWORD PTR [eax+eax*8]
  00013	8b 86 44 08 00
	00		 mov	 eax, DWORD PTR [esi+2116]
  00019	89 84 ce a8 08
	00 00		 mov	 DWORD PTR [esi+ecx*8+2216], eax

; 290  : 	globalVars[gVarIndex].value = 0; // init to 0 

  00020	8b 86 64 08 00
	00		 mov	 eax, DWORD PTR [esi+2148]
  00026	8d 04 c0	 lea	 eax, DWORD PTR [eax+eax*8]
  00029	c7 84 c6 ac 08
	00 00 00 00 00
	00		 mov	 DWORD PTR [esi+eax*8+2220], 0
$LL4@DeclGlobal:

; 291  : 
; 292  : 	do { // process comma-separated list 
; 293  : 		GetToken(); // get name 

  00034	8b 06		 mov	 eax, DWORD PTR [esi]
  00036	8b ce		 mov	 ecx, esi
  00038	6a 00		 push	 0
  0003a	ff 50 14	 call	 DWORD PTR [eax+20]

; 294  : 		strcpy(globalVars[gVarIndex].varName, token);

  0003d	8b 86 64 08 00
	00		 mov	 eax, DWORD PTR [esi+2148]
  00043	8b 56 3c	 mov	 edx, DWORD PTR [esi+60]
  00046	8d 04 c0	 lea	 eax, DWORD PTR [eax+eax*8]
  00049	8d 80 0d 01 00
	00		 lea	 eax, DWORD PTR [eax+269]
  0004f	8d 04 c6	 lea	 eax, DWORD PTR [esi+eax*8]
$LL7@DeclGlobal:
  00052	8a 0a		 mov	 cl, BYTE PTR [edx]
  00054	8d 52 01	 lea	 edx, DWORD PTR [edx+1]
  00057	88 08		 mov	 BYTE PTR [eax], cl
  00059	8d 40 01	 lea	 eax, DWORD PTR [eax+1]
  0005c	84 c9		 test	 cl, cl
  0005e	75 f2		 jne	 SHORT $LL7@DeclGlobal

; 295  : 		GetToken();

  00060	8b 06		 mov	 eax, DWORD PTR [esi]
  00062	8b ce		 mov	 ecx, esi
  00064	6a 00		 push	 0
  00066	ff 50 14	 call	 DWORD PTR [eax+20]

; 296  : 		gVarIndex++;
; 297  : 	} while(*token==',');

  00069	8b 46 3c	 mov	 eax, DWORD PTR [esi+60]
  0006c	ff 86 64 08 00
	00		 inc	 DWORD PTR [esi+2148]
  00072	8a 00		 mov	 al, BYTE PTR [eax]
  00074	3c 2c		 cmp	 al, 44			; 0000002cH
  00076	74 bc		 je	 SHORT $LL4@DeclGlobal

; 298  : 	if(*token!=';') SntxErr( NULL, SEMI_EXPECTED);

  00078	3c 3b		 cmp	 al, 59			; 0000003bH
  0007a	74 0b		 je	 SHORT $LN5@DeclGlobal
  0007c	8b 06		 mov	 eax, DWORD PTR [esi]
  0007e	8b ce		 mov	 ecx, esi
  00080	6a 06		 push	 6
  00082	6a 00		 push	 0
  00084	ff 50 18	 call	 DWORD PTR [eax+24]
$LN5@DeclGlobal:

; 299  : }

  00087	5e		 pop	 esi
  00088	c3		 ret	 0
?DeclGlobal@CScript@@QAEXXZ ENDP			; CScript::DeclGlobal
_TEXT	ENDS
; Function compile flags: /Ogtp
; File C:\IAGOS\server\v18\Source\Source\_Common\script.cpp
; File C:\IAGOS\server\v18\Source\Source\_Common\script.h
; File C:\IAGOS\server\v18\Source\Source\_Common\script.cpp
;	COMDAT ??1CScript@@UAE@XZ
_TEXT	SEGMENT
__$EHRec$ = -12						; size = 12
??1CScript@@UAE@XZ PROC					; CScript::~CScript, COMDAT
; _this$ = ecx

; 99   : {

  00000	55		 push	 ebp
  00001	8b ec		 mov	 ebp, esp
  00003	6a ff		 push	 -1
  00005	68 00 00 00 00	 push	 __ehhandler$??1CScript@@UAE@XZ
  0000a	64 a1 00 00 00
	00		 mov	 eax, DWORD PTR fs:0
  00010	50		 push	 eax
  00011	56		 push	 esi
  00012	a1 00 00 00 00	 mov	 eax, DWORD PTR ___security_cookie
  00017	33 c5		 xor	 eax, ebp
  00019	50		 push	 eax
  0001a	8d 45 f4	 lea	 eax, DWORD PTR __$EHRec$[ebp]
  0001d	64 a3 00 00 00
	00		 mov	 DWORD PTR fs:0, eax
  00023	8b f1		 mov	 esi, ecx
  00025	c7 06 00 00 00
	00		 mov	 DWORD PTR [esi], OFFSET ??_7CScript@@6B@

; 100  : 	Free();

  0002b	e8 00 00 00 00	 call	 ?Free@CScript@@QAEXXZ	; CScript::Free
; File C:\IAGOS\server\v18\Source\Source\_Common\script.h

; 60   : 	virtual ~CParser() { }

  00030	8b ce		 mov	 ecx, esi
  00032	c7 06 00 00 00
	00		 mov	 DWORD PTR [esi], OFFSET ??_7CParser@@6B@
  00038	e8 00 00 00 00	 call	 ??1CScanner@@UAE@XZ	; CScanner::~CScanner
; File C:\IAGOS\server\v18\Source\Source\_Common\script.cpp

; 101  : }

  0003d	8b 4d f4	 mov	 ecx, DWORD PTR __$EHRec$[ebp]
  00040	64 89 0d 00 00
	00 00		 mov	 DWORD PTR fs:0, ecx
  00047	59		 pop	 ecx
  00048	5e		 pop	 esi
  00049	8b e5		 mov	 esp, ebp
  0004b	5d		 pop	 ebp
  0004c	c3		 ret	 0
  0004d	cc		 int	 3
  0004e	cc		 int	 3
  0004f	cc		 int	 3
  00050	cc		 int	 3
  00051	cc		 int	 3
_TEXT	ENDS
;	COMDAT text$x
text$x	SEGMENT
__ehhandler$??1CScript@@UAE@XZ:
  00000	90		 npad	 1
  00001	90		 npad	 1
  00002	8b 54 24 08	 mov	 edx, DWORD PTR [esp+8]
  00006	8d 42 0c	 lea	 eax, DWORD PTR [edx+12]
  00009	8b 4a f8	 mov	 ecx, DWORD PTR [edx-8]
  0000c	33 c8		 xor	 ecx, eax
  0000e	e8 00 00 00 00	 call	 @__security_check_cookie@4
  00013	b8 00 00 00 00	 mov	 eax, OFFSET __ehfuncinfo$??1CScript@@UAE@XZ
  00018	e9 00 00 00 00	 jmp	 ___CxxFrameHandler3
text$x	ENDS
??1CScript@@UAE@XZ ENDP					; CScript::~CScript
; Function compile flags: /Ogtp
; File C:\IAGOS\server\v18\Source\Source\_Common\script.cpp
; File C:\IAGOS\server\v18\Source\Source\_Common\script.h
; File C:\IAGOS\server\v18\Source\Source\_Common\script.cpp
; File C:\IAGOS\server\v18\Source\Source\_Common\script.h
; File C:\IAGOS\server\v18\Source\Source\_Common\script.cpp
;	COMDAT ??0CScript@@QAE@H@Z
_TEXT	SEGMENT
_this$ = -4						; size = 4
_bComma$ = 8						; size = 4
??0CScript@@QAE@H@Z PROC				; CScript::CScript, COMDAT
; _this$ = ecx

; 76   : {

  00000	55		 push	 ebp
  00001	8b ec		 mov	 ebp, esp
  00003	51		 push	 ecx
  00004	56		 push	 esi
  00005	8b f1		 mov	 esi, ecx
; File C:\IAGOS\server\v18\Source\Source\_Common\script.h

; 59   : 	CParser() { }

  00007	6a 00		 push	 0
; File C:\IAGOS\server\v18\Source\Source\_Common\script.cpp

; 76   : {

  00009	89 75 fc	 mov	 DWORD PTR _this$[ebp], esi
; File C:\IAGOS\server\v18\Source\Source\_Common\script.h

; 59   : 	CParser() { }

  0000c	e8 00 00 00 00	 call	 ??0CScanner@@QAE@H@Z	; CScanner::CScanner
; File C:\IAGOS\server\v18\Source\Source\_Common\script.cpp

; 82   : 	m_bComma      = bComma;

  00011	8b 45 08	 mov	 eax, DWORD PTR _bComma$[ebp]

; 83   : 
; 84   : #if !defined(__REMOVE_SCIRPT_060712)
; 85   : 	functos       = 0; // index to top of function call stack
; 86   : 	lvartos       = 0; // index into local variable stack
; 87   : 	labeltos      = 0; // index into local label table
; 88   : 	retValue      = 0; // function return value
; 89   : 	blocktos      = 0; //
; 90   : 	answerCnt     = 0;
; 91   : 	labelIndex    =-1;
; 92   : 	retSign	      = 0;
; 93   : 	m_paTimer = NULL;
; 94   : 	ZeroMemory( m_anInternalVal, sizeof( m_anInternalVal ) );

  00014	6a 40		 push	 64			; 00000040H
  00016	89 46 04	 mov	 DWORD PTR [esi+4], eax
  00019	8d 86 28 1e 00
	00		 lea	 eax, DWORD PTR [esi+7720]
  0001f	6a 00		 push	 0
  00021	50		 push	 eax
  00022	c7 06 00 00 00
	00		 mov	 DWORD PTR [esi], OFFSET ??_7CScript@@6B@
  00028	c7 86 58 08 00
	00 00 00 00 00	 mov	 DWORD PTR [esi+2136], 0
  00032	c7 86 60 08 00
	00 00 00 00 00	 mov	 DWORD PTR [esi+2144], 0
  0003c	c7 86 64 08 00
	00 00 00 00 00	 mov	 DWORD PTR [esi+2148], 0
  00046	c7 86 38 0b 00
	00 00 00 00 00	 mov	 DWORD PTR [esi+2872], 0
  00050	c6 86 e4 0d 00
	00 00		 mov	 BYTE PTR [esi+3556], 0
  00057	c7 86 00 1e 00
	00 00 00 00 00	 mov	 DWORD PTR [esi+7680], 0
  00061	c7 86 08 1e 00
	00 00 00 00 00	 mov	 DWORD PTR [esi+7688], 0
  0006b	c7 86 0c 1e 00
	00 00 00 00 00	 mov	 DWORD PTR [esi+7692], 0
  00075	c7 86 10 1e 00
	00 00 00 00 00	 mov	 DWORD PTR [esi+7696], 0
  0007f	c7 86 18 1e 00
	00 00 00 00 00	 mov	 DWORD PTR [esi+7704], 0
  00089	c7 86 04 1e 00
	00 00 00 00 00	 mov	 DWORD PTR [esi+7684], 0
  00093	c7 86 1c 1e 00
	00 ff ff ff ff	 mov	 DWORD PTR [esi+7708], -1
  0009d	c7 86 14 1e 00
	00 00 00 00 00	 mov	 DWORD PTR [esi+7700], 0
  000a7	c7 86 20 1e 00
	00 00 00 00 00	 mov	 DWORD PTR [esi+7712], 0
  000b1	e8 00 00 00 00	 call	 _memset
  000b6	83 c4 0c	 add	 esp, 12			; 0000000cH

; 95   : #endif // !defined(__REMOVE_SCIRPT_060712)
; 96   : }

  000b9	8b c6		 mov	 eax, esi
  000bb	5e		 pop	 esi
  000bc	8b e5		 mov	 esp, ebp
  000be	5d		 pop	 ebp
  000bf	c2 04 00	 ret	 4
??0CScript@@QAE@H@Z ENDP				; CScript::CScript
_TEXT	ENDS
; Function compile flags: /Ogtp
; File C:\IAGOS\server\v18\Source\Source\_Common\script.h
;	COMDAT ??_GCParser@@UAEPAXI@Z
_TEXT	SEGMENT
___flags$ = 8						; size = 4
??_GCParser@@UAEPAXI@Z PROC				; CParser::`scalar deleting destructor', COMDAT
; _this$ = ecx
  00000	55		 push	 ebp
  00001	8b ec		 mov	 ebp, esp

; 60   : 	virtual ~CParser() { }

  00003	56		 push	 esi
  00004	8b f1		 mov	 esi, ecx
  00006	c7 06 00 00 00
	00		 mov	 DWORD PTR [esi], OFFSET ??_7CParser@@6B@
  0000c	e8 00 00 00 00	 call	 ??1CScanner@@UAE@XZ	; CScanner::~CScanner
  00011	f6 45 08 01	 test	 BYTE PTR ___flags$[ebp], 1
  00015	74 0e		 je	 SHORT $LN10@scalar
  00017	68 58 08 00 00	 push	 2136			; 00000858H
  0001c	56		 push	 esi
  0001d	e8 00 00 00 00	 call	 ??3@YAXPAXI@Z		; operator delete
  00022	83 c4 08	 add	 esp, 8
$LN10@scalar:
  00025	8b c6		 mov	 eax, esi
  00027	5e		 pop	 esi
  00028	5d		 pop	 ebp
  00029	c2 04 00	 ret	 4
??_GCParser@@UAEPAXI@Z ENDP				; CParser::`scalar deleting destructor'
_TEXT	ENDS
; Function compile flags: /Ogtp
; File C:\IAGOS\server\v18\Source\Source\_Common\script.cpp
;	COMDAT ?Compute@CParser@@QAEXPAH@Z
_TEXT	SEGMENT
_value$ = 8						; size = 4
?Compute@CParser@@QAEXPAH@Z PROC			; CParser::Compute, COMDAT
; _this$ = ecx

; 648  : 	GetToken();

  00000	8b 01		 mov	 eax, DWORD PTR [ecx]
  00002	6a 00		 push	 0
  00004	ff 50 14	 call	 DWORD PTR [eax+20]

; 649  : }

  00007	c2 04 00	 ret	 4
?Compute@CParser@@QAEXPAH@Z ENDP			; CParser::Compute
_TEXT	ENDS
; Function compile flags: /Ogtp
; File C:\IAGOS\server\v18\Source\Source\_Common\script.cpp
;	COMDAT ?Compute@CParser@@QAEXPADPAH@Z
_TEXT	SEGMENT
_initProg$ = 8						; size = 4
_value$ = 12						; size = 4
?Compute@CParser@@QAEXPADPAH@Z PROC			; CParser::Compute, COMDAT
; _this$ = ecx

; 642  : {

  00000	55		 push	 ebp
  00001	8b ec		 mov	 ebp, esp
  00003	56		 push	 esi

; 643  : 	SetProg(initProg);

  00004	ff 75 08	 push	 DWORD PTR _initProg$[ebp]
  00007	8b f1		 mov	 esi, ecx
  00009	e8 00 00 00 00	 call	 ?SetProg@CScanner@@QAEXPAX@Z ; CScanner::SetProg

; 644  : 	Compute(value);

  0000e	ff 75 0c	 push	 DWORD PTR _value$[ebp]
  00011	8b ce		 mov	 ecx, esi
  00013	e8 00 00 00 00	 call	 ?Compute@CParser@@QAEXPAH@Z ; CParser::Compute
  00018	5e		 pop	 esi

; 645  : }

  00019	5d		 pop	 ebp
  0001a	c2 08 00	 ret	 8
?Compute@CParser@@QAEXPADPAH@Z ENDP			; CParser::Compute
_TEXT	ENDS
; Function compile flags: /Ogtp
; File C:\IAGOS\server\v18\Source\Source\_Common\script.cpp
;	COMDAT ?atom@CParser@@MAEXPAH@Z
_TEXT	SEGMENT
_value$ = 8						; size = 4
?atom@CParser@@MAEXPAH@Z PROC				; CParser::atom, COMDAT
; _this$ = ecx

; 754  : {

  00000	55		 push	 ebp
  00001	8b ec		 mov	 ebp, esp
  00003	56		 push	 esi
  00004	8b f1		 mov	 esi, ecx

; 755  : 	switch(tokenType) {

  00006	83 be 40 08 00
	00 03		 cmp	 DWORD PTR [esi+2112], 3
  0000d	8b 46 3c	 mov	 eax, DWORD PTR [esi+60]
  00010	74 13		 je	 SHORT $LN4@atom

; 759  : 			return;
; 760  : 		default:
; 761  : 			if(*token!=')')    // Process empty expression 

  00012	80 38 29	 cmp	 BYTE PTR [eax], 41	; 00000029H
  00015	74 25		 je	 SHORT $LN6@atom

; 762  : 				SntxErr( NULL, SYNTAX); // syntax error 

  00017	8b 06		 mov	 eax, DWORD PTR [esi]
  00019	6a 00		 push	 0
  0001b	6a 00		 push	 0
  0001d	ff 50 18	 call	 DWORD PTR [eax+24]
  00020	5e		 pop	 esi

; 763  : 	}
; 764  : }

  00021	5d		 pop	 ebp
  00022	c2 04 00	 ret	 4
$LN4@atom:

; 756  : 		case NUMBER: // is numeric constant 
; 757  : 			*value = atoi(token);

  00025	50		 push	 eax
  00026	e8 00 00 00 00	 call	 _atoi
  0002b	8b 4d 08	 mov	 ecx, DWORD PTR _value$[ebp]
  0002e	83 c4 04	 add	 esp, 4
  00031	89 01		 mov	 DWORD PTR [ecx], eax

; 758  : 			GetToken();

  00033	8b ce		 mov	 ecx, esi
  00035	8b 06		 mov	 eax, DWORD PTR [esi]
  00037	6a 00		 push	 0
  00039	ff 50 14	 call	 DWORD PTR [eax+20]
$LN6@atom:
  0003c	5e		 pop	 esi

; 763  : 	}
; 764  : }

  0003d	5d		 pop	 ebp
  0003e	c2 04 00	 ret	 4
?atom@CParser@@MAEXPAH@Z ENDP				; CParser::atom
_TEXT	ENDS
; Function compile flags: /Ogtp
; File C:\IAGOS\server\v18\Source\Source\_Common\script.cpp
;	COMDAT ?EvalExp0@CParser@@MAEXPAH@Z
_TEXT	SEGMENT
_value$ = 8						; size = 4
?EvalExp0@CParser@@MAEXPAH@Z PROC			; CParser::EvalExp0, COMDAT
; _this$ = ecx

; 652  : {

  00000	55		 push	 ebp
  00001	8b ec		 mov	 ebp, esp

; 654  : }

  00003	5d		 pop	 ebp

; 653  : 	EvalExp1(value);

  00004	e9 00 00 00 00	 jmp	 ?EvalExp1@CParser@@IAEXPAH@Z ; CParser::EvalExp1
?EvalExp0@CParser@@MAEXPAH@Z ENDP			; CParser::EvalExp0
_TEXT	ENDS
; Function compile flags: /Ogtp
; File C:\IAGOS\server\v18\Source\Source\_Common\script.cpp
;	COMDAT ?EvalExp6@CParser@@IAEXPAH@Z
_TEXT	SEGMENT
_value$ = 8						; size = 4
?EvalExp6@CParser@@IAEXPAH@Z PROC			; CParser::EvalExp6, COMDAT
; _this$ = ecx

; 744  : {

  00000	55		 push	 ebp
  00001	8b ec		 mov	 ebp, esp
  00003	56		 push	 esi
  00004	8b f1		 mov	 esi, ecx

; 745  : 	if(*token=='(') {

  00006	8b 46 3c	 mov	 eax, DWORD PTR [esi+60]
  00009	8b 16		 mov	 edx, DWORD PTR [esi]
  0000b	80 38 28	 cmp	 BYTE PTR [eax], 40	; 00000028H
  0000e	75 30		 jne	 SHORT $LN2@EvalExp6

; 746  : 		GetToken();

  00010	6a 00		 push	 0
  00012	ff 52 14	 call	 DWORD PTR [edx+20]

; 747  : 		EvalExp0(value); // get subexpression 

  00015	8b 06		 mov	 eax, DWORD PTR [esi]
  00017	8b ce		 mov	 ecx, esi
  00019	ff 75 08	 push	 DWORD PTR _value$[ebp]
  0001c	ff 50 1c	 call	 DWORD PTR [eax+28]

; 748  : 		if(*token!=')') SntxErr( NULL, PAREN_EXPECTED);

  0001f	8b 46 3c	 mov	 eax, DWORD PTR [esi+60]
  00022	80 38 29	 cmp	 BYTE PTR [eax], 41	; 00000029H
  00025	74 0b		 je	 SHORT $LN4@EvalExp6
  00027	8b 06		 mov	 eax, DWORD PTR [esi]
  00029	8b ce		 mov	 ecx, esi
  0002b	6a 0c		 push	 12			; 0000000cH
  0002d	6a 00		 push	 0
  0002f	ff 50 18	 call	 DWORD PTR [eax+24]
$LN4@EvalExp6:

; 749  : 		GetToken();

  00032	8b 06		 mov	 eax, DWORD PTR [esi]
  00034	8b ce		 mov	 ecx, esi
  00036	6a 00		 push	 0
  00038	ff 50 14	 call	 DWORD PTR [eax+20]
  0003b	5e		 pop	 esi

; 752  : }

  0003c	5d		 pop	 ebp
  0003d	c2 04 00	 ret	 4
$LN2@EvalExp6:

; 750  : 	}
; 751  : 	else atom(value);

  00040	ff 75 08	 push	 DWORD PTR _value$[ebp]
  00043	ff 52 20	 call	 DWORD PTR [edx+32]
  00046	5e		 pop	 esi

; 752  : }

  00047	5d		 pop	 ebp
  00048	c2 04 00	 ret	 4
?EvalExp6@CParser@@IAEXPAH@Z ENDP			; CParser::EvalExp6
_TEXT	ENDS
; Function compile flags: /Ogtp
; File C:\IAGOS\server\v18\Source\Source\_Common\script.cpp
;	COMDAT ?EvalExp5@CParser@@IAEXPAH@Z
_TEXT	SEGMENT
_value$ = 8						; size = 4
?EvalExp5@CParser@@IAEXPAH@Z PROC			; CParser::EvalExp5, COMDAT
; _this$ = ecx

; 731  : {

  00000	55		 push	 ebp
  00001	8b ec		 mov	 ebp, esp
  00003	53		 push	 ebx
  00004	56		 push	 esi
  00005	57		 push	 edi
  00006	8b f9		 mov	 edi, ecx

; 732  : 	char op;
; 733  : 
; 734  : 	op = '\0';

  00008	32 db		 xor	 bl, bl

; 735  : 	if(*token=='+'||*token=='-') {

  0000a	8b 47 3c	 mov	 eax, DWORD PTR [edi+60]
  0000d	8a 00		 mov	 al, BYTE PTR [eax]
  0000f	3c 2b		 cmp	 al, 43			; 0000002bH
  00011	74 04		 je	 SHORT $LN3@EvalExp5
  00013	3c 2d		 cmp	 al, 45			; 0000002dH
  00015	75 09		 jne	 SHORT $LN2@EvalExp5
$LN3@EvalExp5:

; 736  : 		op = *token;

  00017	8a d8		 mov	 bl, al

; 737  : 		GetToken();

  00019	8b 07		 mov	 eax, DWORD PTR [edi]
  0001b	6a 00		 push	 0
  0001d	ff 50 14	 call	 DWORD PTR [eax+20]
$LN2@EvalExp5:

; 738  : 	}
; 739  : 	EvalExp6(value);

  00020	8b 75 08	 mov	 esi, DWORD PTR _value$[ebp]
  00023	8b cf		 mov	 ecx, edi
  00025	56		 push	 esi
  00026	e8 00 00 00 00	 call	 ?EvalExp6@CParser@@IAEXPAH@Z ; CParser::EvalExp6

; 740  : 	if(op)

  0002b	84 db		 test	 bl, bl
  0002d	74 0b		 je	 SHORT $LN5@EvalExp5

; 741  : 		if(op=='-') *value = -(*value);

  0002f	80 fb 2d	 cmp	 bl, 45			; 0000002dH
  00032	75 06		 jne	 SHORT $LN5@EvalExp5
  00034	8b 06		 mov	 eax, DWORD PTR [esi]
  00036	f7 d8		 neg	 eax
  00038	89 06		 mov	 DWORD PTR [esi], eax
$LN5@EvalExp5:

; 742  : }

  0003a	5f		 pop	 edi
  0003b	5e		 pop	 esi
  0003c	5b		 pop	 ebx
  0003d	5d		 pop	 ebp
  0003e	c2 04 00	 ret	 4
?EvalExp5@CParser@@IAEXPAH@Z ENDP			; CParser::EvalExp5
_TEXT	ENDS
; Function compile flags: /Ogtp
; File C:\IAGOS\server\v18\Source\Source\_Common\script.cpp
;	COMDAT ?EvalExp4@CParser@@IAEXPAH@Z
_TEXT	SEGMENT
_value$ = 8						; size = 4
_partial_value$ = 8					; size = 4
?EvalExp4@CParser@@IAEXPAH@Z PROC			; CParser::EvalExp4, COMDAT
; _this$ = ecx

; 709  : {

  00000	55		 push	 ebp
  00001	8b ec		 mov	 ebp, esp
  00003	53		 push	 ebx
  00004	56		 push	 esi

; 710  : 	char op;
; 711  : 	int partial_value;
; 712  : 
; 713  : 	EvalExp5(value);

  00005	8b 75 08	 mov	 esi, DWORD PTR _value$[ebp]
  00008	57		 push	 edi
  00009	56		 push	 esi
  0000a	8b f9		 mov	 edi, ecx
  0000c	e8 00 00 00 00	 call	 ?EvalExp5@CParser@@IAEXPAH@Z ; CParser::EvalExp5
$LL2@EvalExp4:

; 714  : 	while((op = *token) == '*' || op == '/' || op == '%') {

  00011	8b 5f 3c	 mov	 ebx, DWORD PTR [edi+60]
  00014	8a 1b		 mov	 bl, BYTE PTR [ebx]
  00016	80 fb 2a	 cmp	 bl, 42			; 0000002aH
  00019	74 0a		 je	 SHORT $LN6@EvalExp4
  0001b	80 fb 2f	 cmp	 bl, 47			; 0000002fH
  0001e	74 05		 je	 SHORT $LN6@EvalExp4
  00020	80 fb 25	 cmp	 bl, 37			; 00000025H
  00023	75 41		 jne	 SHORT $LN3@EvalExp4
$LN6@EvalExp4:

; 715  : 		GetToken();

  00025	8b 07		 mov	 eax, DWORD PTR [edi]
  00027	8b cf		 mov	 ecx, edi
  00029	6a 00		 push	 0
  0002b	ff 50 14	 call	 DWORD PTR [eax+20]

; 716  : 		EvalExp5(&partial_value);

  0002e	8d 45 08	 lea	 eax, DWORD PTR _partial_value$[ebp]
  00031	8b cf		 mov	 ecx, edi
  00033	50		 push	 eax
  00034	e8 00 00 00 00	 call	 ?EvalExp5@CParser@@IAEXPAH@Z ; CParser::EvalExp5

; 717  : 		switch(op) { // mul, div, or modulus 

  00039	80 fb 25	 cmp	 bl, 37			; 00000025H
  0003c	74 1e		 je	 SHORT $LN9@EvalExp4
  0003e	80 fb 2a	 cmp	 bl, 42			; 0000002aH
  00041	74 0f		 je	 SHORT $LN7@EvalExp4
  00043	80 fb 2f	 cmp	 bl, 47			; 0000002fH
  00046	75 c9		 jne	 SHORT $LL2@EvalExp4

; 721  : 			case '/':
; 722  : 				*value = (*value) / partial_value;

  00048	8b 06		 mov	 eax, DWORD PTR [esi]
  0004a	99		 cdq
  0004b	f7 7d 08	 idiv	 DWORD PTR _partial_value$[ebp]
  0004e	89 06		 mov	 DWORD PTR [esi], eax

; 723  : 				break;

  00050	eb bf		 jmp	 SHORT $LL2@EvalExp4
$LN7@EvalExp4:

; 718  : 			case '*':
; 719  : 				*value = *value * partial_value;

  00052	8b 06		 mov	 eax, DWORD PTR [esi]
  00054	0f af 45 08	 imul	 eax, DWORD PTR _partial_value$[ebp]
  00058	89 06		 mov	 DWORD PTR [esi], eax

; 720  : 				break;

  0005a	eb b5		 jmp	 SHORT $LL2@EvalExp4
$LN9@EvalExp4:

; 724  : 			case '%':
; 725  : 				*value = (*value) % partial_value;

  0005c	8b 06		 mov	 eax, DWORD PTR [esi]
  0005e	99		 cdq
  0005f	f7 7d 08	 idiv	 DWORD PTR _partial_value$[ebp]
  00062	89 16		 mov	 DWORD PTR [esi], edx

; 726  : 				break;
; 727  : 		}
; 728  : 	}

  00064	eb ab		 jmp	 SHORT $LL2@EvalExp4
$LN3@EvalExp4:
  00066	5f		 pop	 edi

; 729  : }

  00067	5e		 pop	 esi
  00068	5b		 pop	 ebx
  00069	5d		 pop	 ebp
  0006a	c2 04 00	 ret	 4
?EvalExp4@CParser@@IAEXPAH@Z ENDP			; CParser::EvalExp4
_TEXT	ENDS
; Function compile flags: /Ogtp
; File C:\IAGOS\server\v18\Source\Source\_Common\script.cpp
;	COMDAT ?EvalExp3@CParser@@IAEXPAH@Z
_TEXT	SEGMENT
_value$ = 8						; size = 4
_partial_value$ = 8					; size = 4
?EvalExp3@CParser@@IAEXPAH@Z PROC			; CParser::EvalExp3, COMDAT
; _this$ = ecx

; 690  : {

  00000	55		 push	 ebp
  00001	8b ec		 mov	 ebp, esp
  00003	53		 push	 ebx
  00004	56		 push	 esi

; 691  : 	char op;
; 692  : 	int partial_value;
; 693  : 
; 694  : 	EvalExp4(value);

  00005	8b 75 08	 mov	 esi, DWORD PTR _value$[ebp]
  00008	57		 push	 edi
  00009	56		 push	 esi
  0000a	8b f9		 mov	 edi, ecx
  0000c	e8 00 00 00 00	 call	 ?EvalExp4@CParser@@IAEXPAH@Z ; CParser::EvalExp4
$LL2@EvalExp3:

; 695  : 	while((op = *token) == '+' || op == '-') {

  00011	8b 47 3c	 mov	 eax, DWORD PTR [edi+60]
  00014	8a 18		 mov	 bl, BYTE PTR [eax]
  00016	80 fb 2b	 cmp	 bl, 43			; 0000002bH
  00019	74 05		 je	 SHORT $LN6@EvalExp3
  0001b	80 fb 2d	 cmp	 bl, 45			; 0000002dH
  0001e	75 2f		 jne	 SHORT $LN3@EvalExp3
$LN6@EvalExp3:

; 696  : 		GetToken();

  00020	8b 07		 mov	 eax, DWORD PTR [edi]
  00022	8b cf		 mov	 ecx, edi
  00024	6a 00		 push	 0
  00026	ff 50 14	 call	 DWORD PTR [eax+20]

; 697  : 		EvalExp4(&partial_value);

  00029	8d 45 08	 lea	 eax, DWORD PTR _partial_value$[ebp]
  0002c	8b cf		 mov	 ecx, edi
  0002e	50		 push	 eax
  0002f	e8 00 00 00 00	 call	 ?EvalExp4@CParser@@IAEXPAH@Z ; CParser::EvalExp4

; 698  : 		switch(op) { // add or subtract 

  00034	0f be c3	 movsx	 eax, bl
  00037	83 e8 2b	 sub	 eax, 43			; 0000002bH
  0003a	74 0c		 je	 SHORT $LN8@EvalExp3
  0003c	83 e8 02	 sub	 eax, 2
  0003f	75 d0		 jne	 SHORT $LL2@EvalExp3

; 699  : 			case '-':
; 700  : 				*value = *value - partial_value;

  00041	8b 45 08	 mov	 eax, DWORD PTR _partial_value$[ebp]
  00044	29 06		 sub	 DWORD PTR [esi], eax

; 701  : 				break;

  00046	eb c9		 jmp	 SHORT $LL2@EvalExp3
$LN8@EvalExp3:

; 702  : 			case '+':
; 703  : 				*value = *value + partial_value;

  00048	8b 45 08	 mov	 eax, DWORD PTR _partial_value$[ebp]
  0004b	01 06		 add	 DWORD PTR [esi], eax

; 704  : 				break;
; 705  : 		}
; 706  : 	}

  0004d	eb c2		 jmp	 SHORT $LL2@EvalExp3
$LN3@EvalExp3:
  0004f	5f		 pop	 edi

; 707  : }

  00050	5e		 pop	 esi
  00051	5b		 pop	 ebx
  00052	5d		 pop	 ebp
  00053	c2 04 00	 ret	 4
?EvalExp3@CParser@@IAEXPAH@Z ENDP			; CParser::EvalExp3
_TEXT	ENDS
; Function compile flags: /Ogtp
; File C:\IAGOS\server\v18\Source\Source\_Common\script.cpp
;	COMDAT ?EvalExp2@CParser@@IAEXPAH@Z
_TEXT	SEGMENT
_value$ = 8						; size = 4
_partial_value$ = 8					; size = 4
?EvalExp2@CParser@@IAEXPAH@Z PROC			; CParser::EvalExp2, COMDAT
; _this$ = ecx

; 670  : {

  00000	55		 push	 ebp
  00001	8b ec		 mov	 ebp, esp
  00003	53		 push	 ebx
  00004	56		 push	 esi

; 671  : 	int partial_value;
; 672  : 	char op;
; 673  : 
; 674  : 	EvalExp3(value);

  00005	8b 75 08	 mov	 esi, DWORD PTR _value$[ebp]
  00008	57		 push	 edi
  00009	56		 push	 esi
  0000a	8b f9		 mov	 edi, ecx
  0000c	e8 00 00 00 00	 call	 ?EvalExp3@CParser@@IAEXPAH@Z ; CParser::EvalExp3

; 675  : 	op = m_nDoubleOps;

  00011	8a 9f 48 08 00
	00		 mov	 bl, BYTE PTR [edi+2120]

; 676  : 	if(op) { 

  00017	84 db		 test	 bl, bl
  00019	0f 84 a4 00 00
	00		 je	 $LN2@EvalExp2

; 677  : 		GetToken();	EvalExp3(&partial_value);

  0001f	8b 07		 mov	 eax, DWORD PTR [edi]
  00021	8b cf		 mov	 ecx, edi
  00023	6a 00		 push	 0
  00025	ff 50 14	 call	 DWORD PTR [eax+20]
  00028	8d 45 08	 lea	 eax, DWORD PTR _partial_value$[ebp]
  0002b	8b cf		 mov	 ecx, edi
  0002d	50		 push	 eax
  0002e	e8 00 00 00 00	 call	 ?EvalExp3@CParser@@IAEXPAH@Z ; CParser::EvalExp3

; 678  : 		switch(op) { // perform the relational operation 

  00033	0f be c3	 movsx	 eax, bl
  00036	48		 dec	 eax
  00037	83 f8 06	 cmp	 eax, 6
  0003a	0f 87 83 00 00
	00		 ja	 $LN2@EvalExp2
  00040	ff 24 85 00 00
	00 00		 jmp	 DWORD PTR $LN13@EvalExp2[eax*4]
$LN5@EvalExp2:

; 679  : 			case LT: *value = *value <  partial_value; break;

  00047	8b 06		 mov	 eax, DWORD PTR [esi]
  00049	33 c9		 xor	 ecx, ecx
  0004b	3b 45 08	 cmp	 eax, DWORD PTR _partial_value$[ebp]
  0004e	5f		 pop	 edi
  0004f	0f 9c c1	 setl	 cl
  00052	89 0e		 mov	 DWORD PTR [esi], ecx

; 686  : 		}
; 687  : 	}
; 688  : }

  00054	5e		 pop	 esi
  00055	5b		 pop	 ebx
  00056	5d		 pop	 ebp
  00057	c2 04 00	 ret	 4
$LN6@EvalExp2:

; 680  : 			case LE: *value = *value <= partial_value; break;

  0005a	8b 06		 mov	 eax, DWORD PTR [esi]
  0005c	33 c9		 xor	 ecx, ecx
  0005e	3b 45 08	 cmp	 eax, DWORD PTR _partial_value$[ebp]
  00061	5f		 pop	 edi
  00062	0f 9e c1	 setle	 cl
  00065	89 0e		 mov	 DWORD PTR [esi], ecx

; 686  : 		}
; 687  : 	}
; 688  : }

  00067	5e		 pop	 esi
  00068	5b		 pop	 ebx
  00069	5d		 pop	 ebp
  0006a	c2 04 00	 ret	 4
$LN7@EvalExp2:

; 681  : 			case GT: *value = *value >  partial_value; break;

  0006d	8b 06		 mov	 eax, DWORD PTR [esi]
  0006f	33 c9		 xor	 ecx, ecx
  00071	3b 45 08	 cmp	 eax, DWORD PTR _partial_value$[ebp]
  00074	5f		 pop	 edi
  00075	0f 9f c1	 setg	 cl
  00078	89 0e		 mov	 DWORD PTR [esi], ecx

; 686  : 		}
; 687  : 	}
; 688  : }

  0007a	5e		 pop	 esi
  0007b	5b		 pop	 ebx
  0007c	5d		 pop	 ebp
  0007d	c2 04 00	 ret	 4
$LN8@EvalExp2:

; 682  : 			case GE: *value = *value >= partial_value; break;

  00080	8b 06		 mov	 eax, DWORD PTR [esi]
  00082	33 c9		 xor	 ecx, ecx
  00084	3b 45 08	 cmp	 eax, DWORD PTR _partial_value$[ebp]
  00087	5f		 pop	 edi
  00088	0f 9d c1	 setge	 cl
  0008b	89 0e		 mov	 DWORD PTR [esi], ecx

; 686  : 		}
; 687  : 	}
; 688  : }

  0008d	5e		 pop	 esi
  0008e	5b		 pop	 ebx
  0008f	5d		 pop	 ebp
  00090	c2 04 00	 ret	 4
$LN9@EvalExp2:

; 683  : 			case EQ: *value = *value == partial_value; break;

  00093	8b 06		 mov	 eax, DWORD PTR [esi]
  00095	33 c9		 xor	 ecx, ecx
  00097	3b 45 08	 cmp	 eax, DWORD PTR _partial_value$[ebp]
  0009a	5f		 pop	 edi
  0009b	0f 94 c1	 sete	 cl
  0009e	89 0e		 mov	 DWORD PTR [esi], ecx

; 686  : 		}
; 687  : 	}
; 688  : }

  000a0	5e		 pop	 esi
  000a1	5b		 pop	 ebx
  000a2	5d		 pop	 ebp
  000a3	c2 04 00	 ret	 4
$LN10@EvalExp2:

; 684  : 			case NE: *value = *value != partial_value; break;

  000a6	8b 06		 mov	 eax, DWORD PTR [esi]
  000a8	33 c9		 xor	 ecx, ecx
  000aa	3b 45 08	 cmp	 eax, DWORD PTR _partial_value$[ebp]
  000ad	5f		 pop	 edi
  000ae	0f 95 c1	 setne	 cl
  000b1	89 0e		 mov	 DWORD PTR [esi], ecx

; 686  : 		}
; 687  : 	}
; 688  : }

  000b3	5e		 pop	 esi
  000b4	5b		 pop	 ebx
  000b5	5d		 pop	 ebp
  000b6	c2 04 00	 ret	 4
$LN11@EvalExp2:

; 685  : 			case NT: *value = !(partial_value); break;

  000b9	33 c0		 xor	 eax, eax
  000bb	39 45 08	 cmp	 DWORD PTR _partial_value$[ebp], eax
  000be	0f 94 c0	 sete	 al
  000c1	89 06		 mov	 DWORD PTR [esi], eax
$LN2@EvalExp2:

; 686  : 		}
; 687  : 	}
; 688  : }

  000c3	5f		 pop	 edi
  000c4	5e		 pop	 esi
  000c5	5b		 pop	 ebx
  000c6	5d		 pop	 ebp
  000c7	c2 04 00	 ret	 4
  000ca	66 90		 npad	 2
$LN13@EvalExp2:
  000cc	00 00 00 00	 DD	 $LN5@EvalExp2
  000d0	00 00 00 00	 DD	 $LN6@EvalExp2
  000d4	00 00 00 00	 DD	 $LN7@EvalExp2
  000d8	00 00 00 00	 DD	 $LN8@EvalExp2
  000dc	00 00 00 00	 DD	 $LN9@EvalExp2
  000e0	00 00 00 00	 DD	 $LN10@EvalExp2
  000e4	00 00 00 00	 DD	 $LN11@EvalExp2
?EvalExp2@CParser@@IAEXPAH@Z ENDP			; CParser::EvalExp2
_TEXT	ENDS
; Function compile flags: /Ogtp
; File C:\IAGOS\server\v18\Source\Source\_Common\script.cpp
;	COMDAT ?EvalExp1@CParser@@IAEXPAH@Z
_TEXT	SEGMENT
_value$ = 8						; size = 4
_partial_value$ = 8					; size = 4
?EvalExp1@CParser@@IAEXPAH@Z PROC			; CParser::EvalExp1, COMDAT
; _this$ = ecx

; 656  : {

  00000	55		 push	 ebp
  00001	8b ec		 mov	 ebp, esp
  00003	53		 push	 ebx
  00004	56		 push	 esi

; 657  : 	int partial_value; char op,op2;
; 658  : 	EvalExp2(value); op = *token; op2 = *(token+1);

  00005	8b 75 08	 mov	 esi, DWORD PTR _value$[ebp]
  00008	57		 push	 edi
  00009	56		 push	 esi
  0000a	8b f9		 mov	 edi, ecx
  0000c	e8 00 00 00 00	 call	 ?EvalExp2@CParser@@IAEXPAH@Z ; CParser::EvalExp2
  00011	8b 47 3c	 mov	 eax, DWORD PTR [edi+60]
  00014	8a 78 01	 mov	 bh, BYTE PTR [eax+1]
$LL2@EvalExp1:

; 659  : 	while(((op = *token) == '&' && (op2 = *(token+1)) == '&') || (op == '|' && op2 == '|')) 

  00017	8b 47 3c	 mov	 eax, DWORD PTR [edi+60]
  0001a	8a 18		 mov	 bl, BYTE PTR [eax]
  0001c	80 fb 26	 cmp	 bl, 38			; 00000026H
  0001f	75 07		 jne	 SHORT $LN7@EvalExp1
  00021	8a 78 01	 mov	 bh, BYTE PTR [eax+1]
  00024	3a fb		 cmp	 bh, bl
  00026	eb 07		 jmp	 SHORT $LN29@EvalExp1
$LN7@EvalExp1:
  00028	80 fb 7c	 cmp	 bl, 124			; 0000007cH
  0002b	75 56		 jne	 SHORT $LN19@EvalExp1
  0002d	3a fb		 cmp	 bh, bl
$LN29@EvalExp1:

; 660  : 	{
; 661  : 		GetToken();	EvalExp2(&partial_value);

  0002f	75 52		 jne	 SHORT $LN19@EvalExp1
  00031	8b 07		 mov	 eax, DWORD PTR [edi]
  00033	8b cf		 mov	 ecx, edi
  00035	6a 00		 push	 0
  00037	ff 50 14	 call	 DWORD PTR [eax+20]
  0003a	8d 45 08	 lea	 eax, DWORD PTR _partial_value$[ebp]
  0003d	8b cf		 mov	 ecx, edi
  0003f	50		 push	 eax
  00040	e8 00 00 00 00	 call	 ?EvalExp2@CParser@@IAEXPAH@Z ; CParser::EvalExp2

; 662  : 		switch(op) 

  00045	80 fb 26	 cmp	 bl, 38			; 00000026H
  00048	74 1f		 je	 SHORT $LN8@EvalExp1
  0004a	80 fb 7c	 cmp	 bl, 124			; 0000007cH
  0004d	75 c8		 jne	 SHORT $LL2@EvalExp1

; 665  : 			case '|': *value = *value || partial_value; break;

  0004f	83 3e 00	 cmp	 DWORD PTR [esi], 0
  00052	75 0c		 jne	 SHORT $LN13@EvalExp1
  00054	83 7d 08 00	 cmp	 DWORD PTR _partial_value$[ebp], 0
  00058	75 06		 jne	 SHORT $LN13@EvalExp1
  0005a	33 c0		 xor	 eax, eax
  0005c	89 06		 mov	 DWORD PTR [esi], eax
  0005e	eb b7		 jmp	 SHORT $LL2@EvalExp1
$LN13@EvalExp1:
  00060	b8 01 00 00 00	 mov	 eax, 1
  00065	89 06		 mov	 DWORD PTR [esi], eax
  00067	eb ae		 jmp	 SHORT $LL2@EvalExp1
$LN8@EvalExp1:

; 663  : 		{
; 664  : 			case '&': *value = *value && partial_value; break;

  00069	83 3e 00	 cmp	 DWORD PTR [esi], 0
  0006c	74 0f		 je	 SHORT $LN20@EvalExp1
  0006e	83 7d 08 00	 cmp	 DWORD PTR _partial_value$[ebp], 0
  00072	74 09		 je	 SHORT $LN20@EvalExp1
  00074	b8 01 00 00 00	 mov	 eax, 1
  00079	89 06		 mov	 DWORD PTR [esi], eax

; 666  : 		}
; 667  : 	}

  0007b	eb 9a		 jmp	 SHORT $LL2@EvalExp1
$LN20@EvalExp1:

; 663  : 		{
; 664  : 			case '&': *value = *value && partial_value; break;

  0007d	33 c0		 xor	 eax, eax
  0007f	89 06		 mov	 DWORD PTR [esi], eax

; 666  : 		}
; 667  : 	}

  00081	eb 94		 jmp	 SHORT $LL2@EvalExp1
$LN19@EvalExp1:
  00083	5f		 pop	 edi

; 668  : }

  00084	5e		 pop	 esi
  00085	5b		 pop	 ebx
  00086	5d		 pop	 ebp
  00087	c2 04 00	 ret	 4
?EvalExp1@CParser@@IAEXPAH@Z ENDP			; CParser::EvalExp1
_TEXT	ENDS
; Function compile flags: /Ogtp
; File C:\IAGOS\server\v18\Source\Source\_Common\script.cpp
;	COMDAT ?SntxErr@CParser@@UAEXPBDH@Z
_TEXT	SEGMENT
$T1 = -4						; size = 4
_lpszHeader$ = 8					; size = 4
_error$ = 12						; size = 4
?SntxErr@CParser@@UAEXPBDH@Z PROC			; CParser::SntxErr, COMDAT
; _this$ = ecx

; 53   : {

  00000	55		 push	 ebp
  00001	8b ec		 mov	 ebp, esp
  00003	51		 push	 ecx

; 54   : 	throw "fuck";

  00004	68 00 00 00 00	 push	 OFFSET __TI2PAD
  00009	8d 45 fc	 lea	 eax, DWORD PTR $T1[ebp]
  0000c	c7 45 fc 00 00
	00 00		 mov	 DWORD PTR $T1[ebp], OFFSET ??_C@_04LPNGBNLE@fuck@
  00013	50		 push	 eax
  00014	e8 00 00 00 00	 call	 __CxxThrowException@8
$LN3@SntxErr:
  00019	cc		 int	 3
?SntxErr@CParser@@UAEXPBDH@Z ENDP			; CParser::SntxErr
_TEXT	ENDS
; Function compile flags: /Ogtp
; File C:\IAGOS\server\v18\Source\Source\_Common\script.h
;	COMDAT ??1CParser@@UAE@XZ
_TEXT	SEGMENT
??1CParser@@UAE@XZ PROC					; CParser::~CParser, COMDAT
; _this$ = ecx

; 60   : 	virtual ~CParser() { }

  00000	c7 01 00 00 00
	00		 mov	 DWORD PTR [ecx], OFFSET ??_7CParser@@6B@
  00006	e9 00 00 00 00	 jmp	 ??1CScanner@@UAE@XZ	; CScanner::~CScanner
??1CParser@@UAE@XZ ENDP					; CParser::~CParser
_TEXT	ENDS
; Function compile flags: /Ogtp
; File C:\IAGOS\server\v18\Source\Source\_Common\Scanner.h
;	COMDAT ?GoMark@CScanner@@UAEXXZ
_TEXT	SEGMENT
?GoMark@CScanner@@UAEXXZ PROC				; CScanner::GoMark, COMDAT
; _this$ = ecx

; 69   : 	virtual void	GoMark() { if( m_lpMark ) m_pProg = m_lpMark; }

  00000	8b 41 14	 mov	 eax, DWORD PTR [ecx+20]
  00003	85 c0		 test	 eax, eax
  00005	74 03		 je	 SHORT $LN2@GoMark
  00007	89 41 18	 mov	 DWORD PTR [ecx+24], eax
$LN2@GoMark:
  0000a	c3		 ret	 0
?GoMark@CScanner@@UAEXXZ ENDP				; CScanner::GoMark
_TEXT	ENDS
; Function compile flags: /Ogtp
; File C:\IAGOS\server\v18\Source\Source\_Common\Scanner.h
;	COMDAT ?SetMark@CScanner@@UAEXXZ
_TEXT	SEGMENT
?SetMark@CScanner@@UAEXXZ PROC				; CScanner::SetMark, COMDAT
; _this$ = ecx

; 68   : 	virtual void	SetMark() { m_lpMark = m_pProg; }

  00000	8b 41 18	 mov	 eax, DWORD PTR [ecx+24]
  00003	89 41 14	 mov	 DWORD PTR [ecx+20], eax
  00006	c3		 ret	 0
?SetMark@CScanner@@UAEXXZ ENDP				; CScanner::SetMark
_TEXT	ENDS
; Function compile flags: /Ogtp
; File C:\Program Files\Microsoft Visual Studio\2022\Professional\VC\Tools\MSVC\14.44.35207\include\xtree
;	COMDAT ?_Throw_tree_length_error@std@@YAXXZ
_TEXT	SEGMENT
?_Throw_tree_length_error@std@@YAXXZ PROC		; std::_Throw_tree_length_error, COMDAT

; 417  :     _Xlength_error("map/set too long");

  00000	68 00 00 00 00	 push	 OFFSET ??_C@_0BB@GCADKGJO@map?1set?5too?5long@
  00005	e8 00 00 00 00	 call	 ?_Xlength_error@std@@YAXPBD@Z ; std::_Xlength_error
$LN3@Throw_tree:
  0000a	cc		 int	 3
?_Throw_tree_length_error@std@@YAXXZ ENDP		; std::_Throw_tree_length_error
_TEXT	ENDS
; Function compile flags: /Ogtp
; File C:\Program Files\Microsoft Visual Studio\2022\Professional\VC\Tools\MSVC\14.44.35207\include\xstring
; File C:\Program Files\Microsoft Visual Studio\2022\Professional\VC\Tools\MSVC\14.44.35207\include\xmemory
; File C:\Program Files\Microsoft Visual Studio\2022\Professional\VC\Tools\MSVC\14.44.35207\include\xstring
; File C:\Program Files\Microsoft Visual Studio\2022\Professional\VC\Tools\MSVC\14.44.35207\include\xmemory
; File C:\Program Files\Microsoft Visual Studio\2022\Professional\VC\Tools\MSVC\14.44.35207\include\xstring
; File C:\Program Files\Microsoft Visual Studio\2022\Professional\VC\Tools\MSVC\14.44.35207\include\xmemory
; File C:\Program Files\Microsoft Visual Studio\2022\Professional\VC\Tools\MSVC\14.44.35207\include\xstring
;	COMDAT ??1?$basic_string@DU?$char_traits@D@std@@V?$allocator@D@2@@std@@QAE@XZ
_TEXT	SEGMENT
??1?$basic_string@DU?$char_traits@D@std@@V?$allocator@D@2@@std@@QAE@XZ PROC ; std::basic_string<char,std::char_traits<char>,std::allocator<char> >::~basic_string<char,std::char_traits<char>,std::allocator<char> >, COMDAT
; _this$ = ecx

; 1382 :     _CONSTEXPR20 ~basic_string() noexcept {

  00000	56		 push	 esi
  00001	8b f1		 mov	 esi, ecx

; 453  :         return _Myres > _Small_string_capacity;

  00003	8b 4e 14	 mov	 ecx, DWORD PTR [esi+20]
  00006	83 f9 0f	 cmp	 ecx, 15			; 0000000fH

; 3083 :         if (_My_data._Large_mode_engaged()) {

  00009	76 27		 jbe	 SHORT $LN19@basic_stri
; File C:\Program Files\Microsoft Visual Studio\2022\Professional\VC\Tools\MSVC\14.44.35207\include\xmemory

; 985  :         _STD _Deallocate<_New_alignof<_Ty>>(_Ptr, sizeof(_Ty) * _Count);

  0000b	8b 06		 mov	 eax, DWORD PTR [esi]
; File C:\Program Files\Microsoft Visual Studio\2022\Professional\VC\Tools\MSVC\14.44.35207\include\xstring

; 852  :         _Al.deallocate(_Old_ptr, _Capacity + 1); // +1 for null terminator

  0000d	41		 inc	 ecx
; File C:\Program Files\Microsoft Visual Studio\2022\Professional\VC\Tools\MSVC\14.44.35207\include\xmemory

; 284  :         if (_Bytes >= _Big_allocation_threshold) {

  0000e	81 f9 00 10 00
	00		 cmp	 ecx, 4096		; 00001000H
  00014	72 12		 jb	 SHORT $LN24@basic_stri

; 205  :     const uintptr_t _Ptr_container   = _Ptr_user[-1];

  00016	8b 50 fc	 mov	 edx, DWORD PTR [eax-4]
  00019	83 c1 23	 add	 ecx, 35			; 00000023H

; 206  : 
; 207  :     // If the following asserts, it likely means that we are performing
; 208  :     // an aligned delete on memory coming from an unaligned allocation.
; 209  :     _STL_ASSERT(_Ptr_user[-2] == _Big_allocation_sentinel, "invalid argument");
; 210  : 
; 211  :     // Extra paranoia on aligned allocation/deallocation; ensure _Ptr_container is
; 212  :     // in range [_Min_back_shift, _Non_user_size]
; 213  : #ifdef _DEBUG
; 214  :     constexpr uintptr_t _Min_back_shift = 2 * sizeof(void*);
; 215  : #else // ^^^ defined(_DEBUG) / !defined(_DEBUG) vvv
; 216  :     constexpr uintptr_t _Min_back_shift = sizeof(void*);
; 217  : #endif // ^^^ !defined(_DEBUG) ^^^
; 218  :     const uintptr_t _Back_shift = reinterpret_cast<uintptr_t>(_Ptr) - _Ptr_container;

  0001c	2b c2		 sub	 eax, edx

; 219  :     _STL_VERIFY(_Back_shift >= _Min_back_shift && _Back_shift <= _Non_user_size, "invalid argument");

  0001e	83 c0 fc	 add	 eax, -4			; fffffffcH
  00021	83 f8 1f	 cmp	 eax, 31			; 0000001fH
  00024	77 1f		 ja	 SHORT $LN23@basic_stri

; 220  :     _Ptr = reinterpret_cast<void*>(_Ptr_container);

  00026	8b c2		 mov	 eax, edx
$LN24@basic_stri:

; 289  :         ::operator delete(_Ptr, _Bytes);

  00028	51		 push	 ecx
  00029	50		 push	 eax
  0002a	e8 00 00 00 00	 call	 ??3@YAXPAXI@Z		; operator delete
  0002f	83 c4 08	 add	 esp, 8
$LN19@basic_stri:
; File C:\Program Files\Microsoft Visual Studio\2022\Professional\VC\Tools\MSVC\14.44.35207\include\xstring

; 3090 :         _My_data._Mysize = 0;

  00032	c7 46 10 00 00
	00 00		 mov	 DWORD PTR [esi+16], 0

; 3091 :         _My_data._Myres  = _Small_string_capacity;

  00039	c7 46 14 0f 00
	00 00		 mov	 DWORD PTR [esi+20], 15	; 0000000fH

; 3092 :         // the _Traits::assign is last so the codegen doesn't think the char write can alias this
; 3093 :         _Traits::assign(_My_data._Bx._Buf[0], _Elem());

  00040	c6 06 00	 mov	 BYTE PTR [esi], 0
  00043	5e		 pop	 esi

; 1390 :     }

  00044	c3		 ret	 0
$LN23@basic_stri:
; File C:\Program Files\Microsoft Visual Studio\2022\Professional\VC\Tools\MSVC\14.44.35207\include\xmemory

; 219  :     _STL_VERIFY(_Back_shift >= _Min_back_shift && _Back_shift <= _Non_user_size, "invalid argument");

  00045	6a 00		 push	 0
  00047	6a 00		 push	 0
  00049	6a 00		 push	 0
  0004b	6a 00		 push	 0
  0004d	6a 00		 push	 0
  0004f	e8 00 00 00 00	 call	 __invoke_watson
$LN33@basic_stri:
  00054	cc		 int	 3
??1?$basic_string@DU?$char_traits@D@std@@V?$allocator@D@2@@std@@QAE@XZ ENDP ; std::basic_string<char,std::char_traits<char>,std::allocator<char> >::~basic_string<char,std::char_traits<char>,std::allocator<char> >
_TEXT	ENDS
; Function compile flags: /Ogtp
; File C:\Program Files\Microsoft Visual Studio\2022\Professional\VC\Tools\MSVC\14.44.35207\include\xstring
; File C:\Program Files\Microsoft Visual Studio\2022\Professional\VC\Tools\MSVC\14.44.35207\include\__msvc_string_view.hpp
; File C:\Program Files\Microsoft Visual Studio\2022\Professional\VC\Tools\MSVC\14.44.35207\include\xstring
; File C:\Program Files\Microsoft Visual Studio\2022\Professional\VC\Tools\MSVC\14.44.35207\include\__msvc_string_view.hpp
; File C:\Program Files\Microsoft Visual Studio\2022\Professional\VC\Tools\MSVC\14.44.35207\include\xstring
; File C:\Program Files\Microsoft Visual Studio\2022\Professional\VC\Tools\MSVC\14.44.35207\include\__msvc_string_view.hpp
; File C:\Program Files\Microsoft Visual Studio\2022\Professional\VC\Tools\MSVC\14.44.35207\include\xstring
; File C:\Program Files\Microsoft Visual Studio\2022\Professional\VC\Tools\MSVC\14.44.35207\include\__msvc_string_view.hpp
; File C:\Program Files\Microsoft Visual Studio\2022\Professional\VC\Tools\MSVC\14.44.35207\include\xstring
; File C:\Program Files\Microsoft Visual Studio\2022\Professional\VC\Tools\MSVC\14.44.35207\include\xmemory
; File C:\Program Files\Microsoft Visual Studio\2022\Professional\VC\Tools\MSVC\14.44.35207\include\xstring
; File C:\Program Files\Microsoft Visual Studio\2022\Professional\VC\Tools\MSVC\14.44.35207\include\xmemory
; File C:\Program Files\Microsoft Visual Studio\2022\Professional\VC\Tools\MSVC\14.44.35207\include\xstring
; File C:\Program Files\Microsoft Visual Studio\2022\Professional\VC\Tools\MSVC\14.44.35207\include\__msvc_string_view.hpp
; File C:\Program Files\Microsoft Visual Studio\2022\Professional\VC\Tools\MSVC\14.44.35207\include\xstring
; File C:\Program Files\Microsoft Visual Studio\2022\Professional\VC\Tools\MSVC\14.44.35207\include\__msvc_string_view.hpp
; File C:\Program Files\Microsoft Visual Studio\2022\Professional\VC\Tools\MSVC\14.44.35207\include\xstring
; File C:\Program Files\Microsoft Visual Studio\2022\Professional\VC\Tools\MSVC\14.44.35207\include\__msvc_string_view.hpp
; File C:\Program Files\Microsoft Visual Studio\2022\Professional\VC\Tools\MSVC\14.44.35207\include\xstring
;	COMDAT ??0?$basic_string@DU?$char_traits@D@std@@V?$allocator@D@2@@std@@QAE@QBD@Z
_TEXT	SEGMENT
$T1 = -4						; size = 4
__Ptr$ = 8						; size = 4
??0?$basic_string@DU?$char_traits@D@std@@V?$allocator@D@2@@std@@QAE@QBD@Z PROC ; std::basic_string<char,std::char_traits<char>,std::allocator<char> >::basic_string<char,std::char_traits<char>,std::allocator<char> >, COMDAT
; _this$ = ecx

; 768  :     _CONSTEXPR20 basic_string(_In_z_ const _Elem* const _Ptr) : _Mypair(_Zero_then_variadic_args_t{}) {

  00000	55		 push	 ebp
  00001	8b ec		 mov	 ebp, esp
  00003	51		 push	 ecx
  00004	53		 push	 ebx
  00005	56		 push	 esi
  00006	8b d9		 mov	 ebx, ecx
  00008	0f 57 c0	 xorps	 xmm0, xmm0
  0000b	57		 push	 edi
; File C:\Program Files\Microsoft Visual Studio\2022\Professional\VC\Tools\MSVC\14.44.35207\include\__msvc_string_view.hpp

; 459  :         return _CSTD strlen(reinterpret_cast<const char*>(_First));

  0000c	8b 7d 08	 mov	 edi, DWORD PTR __Ptr$[ebp]
  0000f	8b f7		 mov	 esi, edi
; File C:\Program Files\Microsoft Visual Studio\2022\Professional\VC\Tools\MSVC\14.44.35207\include\xstring

; 493  :         _CONSTEXPR20 _Bxty() noexcept : _Buf() {} // user-provided, for fancy pointers

  00011	0f 11 03	 movups	 XMMWORD PTR [ebx], xmm0

; 517  :     size_type _Mysize = 0; // current length of string (size)

  00014	c7 43 10 00 00
	00 00		 mov	 DWORD PTR [ebx+16], 0

; 518  :     size_type _Myres  = 0; // current storage reserved for string (capacity)

  0001b	c7 43 14 00 00
	00 00		 mov	 DWORD PTR [ebx+20], 0
; File C:\Program Files\Microsoft Visual Studio\2022\Professional\VC\Tools\MSVC\14.44.35207\include\__msvc_string_view.hpp

; 459  :         return _CSTD strlen(reinterpret_cast<const char*>(_First));

  00022	8d 4e 01	 lea	 ecx, DWORD PTR [esi+1]
$LL51@basic_stri:
  00025	8a 06		 mov	 al, BYTE PTR [esi]
  00027	46		 inc	 esi
  00028	84 c0		 test	 al, al
  0002a	75 f9		 jne	 SHORT $LL51@basic_stri
  0002c	2b f1		 sub	 esi, ecx
; File C:\Program Files\Microsoft Visual Studio\2022\Professional\VC\Tools\MSVC\14.44.35207\include\xstring

; 881  :         if (_Count > max_size()) {

  0002e	81 fe ff ff ff
	7f		 cmp	 esi, 2147483647		; 7fffffffH
  00034	0f 87 9b 00 00
	00		 ja	 $LN62@basic_stri

; 883  :         }
; 884  : 
; 885  :         auto& _Al       = _Getal();
; 886  :         auto&& _Alproxy = _GET_PROXY_ALLOCATOR(_Alty, _Al);
; 887  :         _Container_proxy_ptr<_Alty> _Proxy(_Alproxy, _My_data);
; 888  : 
; 889  :         if (_Count <= _Small_string_capacity) {

  0003a	83 fe 0f	 cmp	 esi, 15			; 0000000fH
  0003d	77 24		 ja	 SHORT $LN21@basic_stri
; File C:\Program Files\Microsoft Visual Studio\2022\Professional\VC\Tools\MSVC\14.44.35207\include\__msvc_string_view.hpp

; 121  :         _CSTD memcpy(_First1, _First2, _Count * sizeof(_Elem));

  0003f	56		 push	 esi
  00040	57		 push	 edi
  00041	53		 push	 ebx
; File C:\Program Files\Microsoft Visual Studio\2022\Professional\VC\Tools\MSVC\14.44.35207\include\xstring

; 890  :             _My_data._Mysize = _Count;

  00042	89 73 10	 mov	 DWORD PTR [ebx+16], esi

; 891  :             _My_data._Myres  = _Small_string_capacity;

  00045	c7 43 14 0f 00
	00 00		 mov	 DWORD PTR [ebx+20], 15	; 0000000fH
; File C:\Program Files\Microsoft Visual Studio\2022\Professional\VC\Tools\MSVC\14.44.35207\include\__msvc_string_view.hpp

; 121  :         _CSTD memcpy(_First1, _First2, _Count * sizeof(_Elem));

  0004c	e8 00 00 00 00	 call	 _memcpy
; File C:\Program Files\Microsoft Visual Studio\2022\Professional\VC\Tools\MSVC\14.44.35207\include\xstring

; 898  :                 _Traits::assign(_My_data._Bx._Buf[_Count], _Elem());

  00051	c6 04 1e 00	 mov	 BYTE PTR [esi+ebx], 0

; 769  :         _Construct<_Construct_strategy::_From_ptr>(_Ptr, _Convert_size<size_type>(_Traits::length(_Ptr)));
; 770  :     }

  00055	83 c4 0c	 add	 esp, 12			; 0000000cH
  00058	8b c3		 mov	 eax, ebx
  0005a	5f		 pop	 edi
  0005b	5e		 pop	 esi
  0005c	5b		 pop	 ebx
  0005d	8b e5		 mov	 esp, ebp
  0005f	5d		 pop	 ebp
  00060	c2 04 00	 ret	 4
$LN21@basic_stri:

; 2978 :         const size_type _Masked = _Requested | _Alloc_mask;

  00063	8b fe		 mov	 edi, esi
  00065	83 cf 0f	 or	 edi, 15			; 0000000fH
  00068	81 ff ff ff ff
	7f		 cmp	 edi, 2147483647		; 7fffffffH

; 2979 :         if (_Masked > _Max) { // the mask overflows, settle for max_size()

  0006e	76 12		 jbe	 SHORT $LN27@basic_stri

; 2980 :             return _Max;

  00070	b8 00 00 00 80	 mov	 eax, -2147483648	; 80000000H
  00075	bf ff ff ff 7f	 mov	 edi, 2147483647		; 7fffffffH
; File C:\Program Files\Microsoft Visual Studio\2022\Professional\VC\Tools\MSVC\14.44.35207\include\xmemory

; 253  :             return _Allocate_manually_vector_aligned<_Traits>(_Bytes);

  0007a	50		 push	 eax
  0007b	e8 00 00 00 00	 call	 ??$_Allocate_manually_vector_aligned@U_Default_allocate_traits@std@@@std@@YAPAXI@Z ; std::_Allocate_manually_vector_aligned<std::_Default_allocate_traits>
  00080	eb 26		 jmp	 SHORT $LN60@basic_stri
$LN27@basic_stri:
; File C:\Program Files\Microsoft Visual Studio\2022\Professional\VC\Tools\MSVC\14.44.35207\include\xstring

; 2987 :         return (_STD max)(_Masked, _Old + _Old / 2);

  00082	b8 16 00 00 00	 mov	 eax, 22			; 00000016H
  00087	3b f8		 cmp	 edi, eax
  00089	0f 42 f8	 cmovb	 edi, eax

; 825  :         ++_Capacity; // Take null terminator into consideration

  0008c	8d 47 01	 lea	 eax, DWORD PTR [edi+1]
; File C:\Program Files\Microsoft Visual Studio\2022\Professional\VC\Tools\MSVC\14.44.35207\include\xmemory

; 227  :     if (_Bytes == 0) {

  0008f	85 c0		 test	 eax, eax
  00091	74 18		 je	 SHORT $LN59@basic_stri
$LN41@basic_stri:

; 228  :         return nullptr;
; 229  :     }
; 230  : 
; 231  : #if _HAS_CXX20 // TRANSITION, GH-1532
; 232  :     if (_STD is_constant_evaluated()) {
; 233  :         return _Traits::_Allocate(_Bytes);
; 234  :     }
; 235  : #endif // _HAS_CXX20
; 236  : 
; 237  : #ifdef __cpp_aligned_new
; 238  :     if constexpr (_Align > __STDCPP_DEFAULT_NEW_ALIGNMENT__) {
; 239  :         size_t _Passed_align = _Align;
; 240  : #if defined(_M_IX86) || defined(_M_X64)
; 241  :         if (_Bytes >= _Big_allocation_threshold) {
; 242  :             // boost the alignment of big allocations to help autovectorization
; 243  :             _Passed_align = (_STD max)(_Align, _Big_allocation_alignment);
; 244  :         }
; 245  : #endif // defined(_M_IX86) || defined(_M_X64)
; 246  :         return _Traits::_Allocate_aligned(_Bytes, _Passed_align);
; 247  :     } else
; 248  : #endif // defined(__cpp_aligned_new)
; 249  :     {
; 250  : #if defined(_M_IX86) || defined(_M_X64)
; 251  :         if (_Bytes >= _Big_allocation_threshold) {

  00093	3d 00 10 00 00	 cmp	 eax, 4096		; 00001000H
  00098	72 08		 jb	 SHORT $LN42@basic_stri

; 253  :             return _Allocate_manually_vector_aligned<_Traits>(_Bytes);

  0009a	50		 push	 eax
  0009b	e8 00 00 00 00	 call	 ??$_Allocate_manually_vector_aligned@U_Default_allocate_traits@std@@@std@@YAPAXI@Z ; std::_Allocate_manually_vector_aligned<std::_Default_allocate_traits>
  000a0	eb 06		 jmp	 SHORT $LN60@basic_stri
$LN42@basic_stri:

; 136  :         return ::operator new(_Bytes);

  000a2	50		 push	 eax
  000a3	e8 00 00 00 00	 call	 ??2@YAPAXI@Z		; operator new
$LN60@basic_stri:
; File C:\Program Files\Microsoft Visual Studio\2022\Professional\VC\Tools\MSVC\14.44.35207\include\xstring

; 913  :         _Construct_in_place(_My_data._Bx._Ptr, _New_ptr);

  000a8	83 c4 04	 add	 esp, 4
$LN59@basic_stri:
; File C:\Program Files\Microsoft Visual Studio\2022\Professional\VC\Tools\MSVC\14.44.35207\include\__msvc_string_view.hpp

; 121  :         _CSTD memcpy(_First1, _First2, _Count * sizeof(_Elem));

  000ab	56		 push	 esi
  000ac	ff 75 08	 push	 DWORD PTR __Ptr$[ebp]
; File C:\Program Files\Microsoft Visual Studio\2022\Professional\VC\Tools\MSVC\14.44.35207\include\xstring

; 913  :         _Construct_in_place(_My_data._Bx._Ptr, _New_ptr);

  000af	89 45 fc	 mov	 DWORD PTR $T1[ebp], eax
; File C:\Program Files\Microsoft Visual Studio\2022\Professional\VC\Tools\MSVC\14.44.35207\include\__msvc_string_view.hpp

; 121  :         _CSTD memcpy(_First1, _First2, _Count * sizeof(_Elem));

  000b2	50		 push	 eax
; File C:\Program Files\Microsoft Visual Studio\2022\Professional\VC\Tools\MSVC\14.44.35207\include\xstring

; 913  :         _Construct_in_place(_My_data._Bx._Ptr, _New_ptr);

  000b3	89 03		 mov	 DWORD PTR [ebx], eax

; 914  : 
; 915  :         _My_data._Mysize = _Count;

  000b5	89 73 10	 mov	 DWORD PTR [ebx+16], esi

; 916  :         _My_data._Myres  = _New_capacity;

  000b8	89 7b 14	 mov	 DWORD PTR [ebx+20], edi
; File C:\Program Files\Microsoft Visual Studio\2022\Professional\VC\Tools\MSVC\14.44.35207\include\__msvc_string_view.hpp

; 121  :         _CSTD memcpy(_First1, _First2, _Count * sizeof(_Elem));

  000bb	e8 00 00 00 00	 call	 _memcpy
; File C:\Program Files\Microsoft Visual Studio\2022\Professional\VC\Tools\MSVC\14.44.35207\include\xstring

; 922  :             _Traits::assign(_Unfancy(_New_ptr)[_Count], _Elem());

  000c0	8b 45 fc	 mov	 eax, DWORD PTR $T1[ebp]

; 769  :         _Construct<_Construct_strategy::_From_ptr>(_Ptr, _Convert_size<size_type>(_Traits::length(_Ptr)));
; 770  :     }

  000c3	83 c4 0c	 add	 esp, 12			; 0000000cH
  000c6	5f		 pop	 edi

; 922  :             _Traits::assign(_Unfancy(_New_ptr)[_Count], _Elem());

  000c7	c6 04 30 00	 mov	 BYTE PTR [eax+esi], 0

; 769  :         _Construct<_Construct_strategy::_From_ptr>(_Ptr, _Convert_size<size_type>(_Traits::length(_Ptr)));
; 770  :     }

  000cb	8b c3		 mov	 eax, ebx
  000cd	5e		 pop	 esi
  000ce	5b		 pop	 ebx
  000cf	8b e5		 mov	 esp, ebp
  000d1	5d		 pop	 ebp
  000d2	c2 04 00	 ret	 4
$LN62@basic_stri:

; 882  :             _Xlen_string(); // result too long

  000d5	e8 00 00 00 00	 call	 ?_Xlen_string@std@@YAXXZ ; std::_Xlen_string
$LN57@basic_stri:
  000da	cc		 int	 3
??0?$basic_string@DU?$char_traits@D@std@@V?$allocator@D@2@@std@@QAE@QBD@Z ENDP ; std::basic_string<char,std::char_traits<char>,std::allocator<char> >::basic_string<char,std::char_traits<char>,std::allocator<char> >
_TEXT	ENDS
; Function compile flags: /Ogtp
; File C:\Program Files\Microsoft Visual Studio\2022\Professional\VC\Tools\MSVC\14.44.35207\include\xstring
; File C:\Program Files\Microsoft Visual Studio\2022\Professional\VC\Tools\MSVC\14.44.35207\include\__msvc_string_view.hpp
; File C:\Program Files\Microsoft Visual Studio\2022\Professional\VC\Tools\MSVC\14.44.35207\include\xstring
; File C:\Program Files\Microsoft Visual Studio\2022\Professional\VC\Tools\MSVC\14.44.35207\include\__msvc_string_view.hpp
; File C:\Program Files\Microsoft Visual Studio\2022\Professional\VC\Tools\MSVC\14.44.35207\include\xstring
; File C:\Program Files\Microsoft Visual Studio\2022\Professional\VC\Tools\MSVC\14.44.35207\include\xmemory
; File C:\Program Files\Microsoft Visual Studio\2022\Professional\VC\Tools\MSVC\14.44.35207\include\xstring
; File C:\Program Files\Microsoft Visual Studio\2022\Professional\VC\Tools\MSVC\14.44.35207\include\xmemory
; File C:\Program Files\Microsoft Visual Studio\2022\Professional\VC\Tools\MSVC\14.44.35207\include\xstring
; File C:\Program Files\Microsoft Visual Studio\2022\Professional\VC\Tools\MSVC\14.44.35207\include\__msvc_string_view.hpp
; File C:\Program Files\Microsoft Visual Studio\2022\Professional\VC\Tools\MSVC\14.44.35207\include\xstring
; File C:\Program Files\Microsoft Visual Studio\2022\Professional\VC\Tools\MSVC\14.44.35207\include\__msvc_string_view.hpp
; File C:\Program Files\Microsoft Visual Studio\2022\Professional\VC\Tools\MSVC\14.44.35207\include\xstring
; File C:\Program Files\Microsoft Visual Studio\2022\Professional\VC\Tools\MSVC\14.44.35207\include\__msvc_string_view.hpp
; File C:\Program Files\Microsoft Visual Studio\2022\Professional\VC\Tools\MSVC\14.44.35207\include\xstring
; File C:\Program Files\Microsoft Visual Studio\2022\Professional\VC\Tools\MSVC\14.44.35207\include\__msvc_string_view.hpp
; File C:\Program Files\Microsoft Visual Studio\2022\Professional\VC\Tools\MSVC\14.44.35207\include\xstring
;	COMDAT ??0?$basic_string@DU?$char_traits@D@std@@V?$allocator@D@2@@std@@QAE@ABV01@@Z
_TEXT	SEGMENT
__Right$ = 8						; size = 4
__Result$1$ = 8						; size = 4
??0?$basic_string@DU?$char_traits@D@std@@V?$allocator@D@2@@std@@QAE@ABV01@@Z PROC ; std::basic_string<char,std::char_traits<char>,std::allocator<char> >::basic_string<char,std::char_traits<char>,std::allocator<char> >, COMDAT
; _this$ = ecx

; 717  :         : _Mypair(_One_then_variadic_args_t{}, _Alty_traits::select_on_container_copy_construction(_Right._Getal())) {

  00000	55		 push	 ebp
  00001	8b ec		 mov	 ebp, esp
  00003	53		 push	 ebx

; 444  :         const value_type* _Result = _Bx._Buf;

  00004	8b 5d 08	 mov	 ebx, DWORD PTR __Right$[ebp]
  00007	0f 57 c0	 xorps	 xmm0, xmm0

; 717  :         : _Mypair(_One_then_variadic_args_t{}, _Alty_traits::select_on_container_copy_construction(_Right._Getal())) {

  0000a	57		 push	 edi
  0000b	8b f9		 mov	 edi, ecx

; 444  :         const value_type* _Result = _Bx._Buf;

  0000d	89 5d 08	 mov	 DWORD PTR __Result$1$[ebp], ebx
  00010	8b c3		 mov	 eax, ebx

; 493  :         _CONSTEXPR20 _Bxty() noexcept : _Buf() {} // user-provided, for fancy pointers

  00012	0f 11 07	 movups	 XMMWORD PTR [edi], xmm0

; 517  :     size_type _Mysize = 0; // current length of string (size)

  00015	c7 47 10 00 00
	00 00		 mov	 DWORD PTR [edi+16], 0

; 518  :     size_type _Myres  = 0; // current storage reserved for string (capacity)

  0001c	c7 47 14 00 00
	00 00		 mov	 DWORD PTR [edi+20], 0

; 453  :         return _Myres > _Small_string_capacity;

  00023	83 7b 14 0f	 cmp	 DWORD PTR [ebx+20], 15	; 0000000fH

; 445  :         if (_Large_mode_engaged()) {

  00027	76 05		 jbe	 SHORT $LN17@basic_stri

; 446  :             _Result = _Unfancy(_Bx._Ptr);

  00029	8b 03		 mov	 eax, DWORD PTR [ebx]
  0002b	89 45 08	 mov	 DWORD PTR __Result$1$[ebp], eax
$LN17@basic_stri:

; 718  :         _Construct<_Construct_strategy::_From_string>(_Right._Mypair._Myval2._Myptr(), _Right._Mypair._Myval2._Mysize);

  0002e	8b 5b 10	 mov	 ebx, DWORD PTR [ebx+16]

; 881  :         if (_Count > max_size()) {

  00031	81 fb ff ff ff
	7f		 cmp	 ebx, 2147483647		; 7fffffffH
  00037	0f 87 8d 00 00
	00		 ja	 $LN63@basic_stri

; 883  :         }
; 884  : 
; 885  :         auto& _Al       = _Getal();
; 886  :         auto&& _Alproxy = _GET_PROXY_ALLOCATOR(_Alty, _Al);
; 887  :         _Container_proxy_ptr<_Alty> _Proxy(_Alproxy, _My_data);
; 888  : 
; 889  :         if (_Count <= _Small_string_capacity) {

  0003d	83 fb 0f	 cmp	 ebx, 15			; 0000000fH
  00040	77 18		 ja	 SHORT $LN25@basic_stri

; 890  :             _My_data._Mysize = _Count;

  00042	89 5f 10	 mov	 DWORD PTR [edi+16], ebx

; 891  :             _My_data._Myres  = _Small_string_capacity;

  00045	c7 47 14 0f 00
	00 00		 mov	 DWORD PTR [edi+20], 15	; 0000000fH
; File C:\Program Files\Microsoft Visual Studio\2022\Professional\VC\Tools\MSVC\14.44.35207\include\__msvc_string_view.hpp

; 121  :         _CSTD memcpy(_First1, _First2, _Count * sizeof(_Elem));

  0004c	0f 10 00	 movups	 xmm0, XMMWORD PTR [eax]
; File C:\Program Files\Microsoft Visual Studio\2022\Professional\VC\Tools\MSVC\14.44.35207\include\xstring

; 719  :     }

  0004f	8b c7		 mov	 eax, edi
; File C:\Program Files\Microsoft Visual Studio\2022\Professional\VC\Tools\MSVC\14.44.35207\include\__msvc_string_view.hpp

; 121  :         _CSTD memcpy(_First1, _First2, _Count * sizeof(_Elem));

  00051	0f 11 07	 movups	 XMMWORD PTR [edi], xmm0
; File C:\Program Files\Microsoft Visual Studio\2022\Professional\VC\Tools\MSVC\14.44.35207\include\xstring

; 719  :     }

  00054	5f		 pop	 edi
  00055	5b		 pop	 ebx
  00056	5d		 pop	 ebp
  00057	c2 04 00	 ret	 4
$LN25@basic_stri:
  0005a	56		 push	 esi

; 2978 :         const size_type _Masked = _Requested | _Alloc_mask;

  0005b	8b f3		 mov	 esi, ebx
  0005d	83 ce 0f	 or	 esi, 15			; 0000000fH
  00060	81 fe ff ff ff
	7f		 cmp	 esi, 2147483647		; 7fffffffH

; 2979 :         if (_Masked > _Max) { // the mask overflows, settle for max_size()

  00066	76 12		 jbe	 SHORT $LN31@basic_stri

; 2980 :             return _Max;

  00068	b8 00 00 00 80	 mov	 eax, -2147483648	; 80000000H
  0006d	be ff ff ff 7f	 mov	 esi, 2147483647		; 7fffffffH
; File C:\Program Files\Microsoft Visual Studio\2022\Professional\VC\Tools\MSVC\14.44.35207\include\xmemory

; 253  :             return _Allocate_manually_vector_aligned<_Traits>(_Bytes);

  00072	50		 push	 eax
  00073	e8 00 00 00 00	 call	 ??$_Allocate_manually_vector_aligned@U_Default_allocate_traits@std@@@std@@YAPAXI@Z ; std::_Allocate_manually_vector_aligned<std::_Default_allocate_traits>
  00078	eb 2a		 jmp	 SHORT $LN61@basic_stri
$LN31@basic_stri:
; File C:\Program Files\Microsoft Visual Studio\2022\Professional\VC\Tools\MSVC\14.44.35207\include\xstring

; 2987 :         return (_STD max)(_Masked, _Old + _Old / 2);

  0007a	b8 16 00 00 00	 mov	 eax, 22			; 00000016H
  0007f	3b f0		 cmp	 esi, eax
  00081	0f 42 f0	 cmovb	 esi, eax

; 825  :         ++_Capacity; // Take null terminator into consideration

  00084	8d 46 01	 lea	 eax, DWORD PTR [esi+1]
; File C:\Program Files\Microsoft Visual Studio\2022\Professional\VC\Tools\MSVC\14.44.35207\include\xmemory

; 227  :     if (_Bytes == 0) {

  00087	85 c0		 test	 eax, eax
  00089	75 04		 jne	 SHORT $LN45@basic_stri

; 228  :         return nullptr;

  0008b	33 c9		 xor	 ecx, ecx
  0008d	eb 1a		 jmp	 SHORT $LN44@basic_stri
$LN45@basic_stri:

; 229  :     }
; 230  : 
; 231  : #if _HAS_CXX20 // TRANSITION, GH-1532
; 232  :     if (_STD is_constant_evaluated()) {
; 233  :         return _Traits::_Allocate(_Bytes);
; 234  :     }
; 235  : #endif // _HAS_CXX20
; 236  : 
; 237  : #ifdef __cpp_aligned_new
; 238  :     if constexpr (_Align > __STDCPP_DEFAULT_NEW_ALIGNMENT__) {
; 239  :         size_t _Passed_align = _Align;
; 240  : #if defined(_M_IX86) || defined(_M_X64)
; 241  :         if (_Bytes >= _Big_allocation_threshold) {
; 242  :             // boost the alignment of big allocations to help autovectorization
; 243  :             _Passed_align = (_STD max)(_Align, _Big_allocation_alignment);
; 244  :         }
; 245  : #endif // defined(_M_IX86) || defined(_M_X64)
; 246  :         return _Traits::_Allocate_aligned(_Bytes, _Passed_align);
; 247  :     } else
; 248  : #endif // defined(__cpp_aligned_new)
; 249  :     {
; 250  : #if defined(_M_IX86) || defined(_M_X64)
; 251  :         if (_Bytes >= _Big_allocation_threshold) {

  0008f	3d 00 10 00 00	 cmp	 eax, 4096		; 00001000H
  00094	72 08		 jb	 SHORT $LN46@basic_stri

; 253  :             return _Allocate_manually_vector_aligned<_Traits>(_Bytes);

  00096	50		 push	 eax
  00097	e8 00 00 00 00	 call	 ??$_Allocate_manually_vector_aligned@U_Default_allocate_traits@std@@@std@@YAPAXI@Z ; std::_Allocate_manually_vector_aligned<std::_Default_allocate_traits>
  0009c	eb 06		 jmp	 SHORT $LN61@basic_stri
$LN46@basic_stri:

; 136  :         return ::operator new(_Bytes);

  0009e	50		 push	 eax
  0009f	e8 00 00 00 00	 call	 ??2@YAPAXI@Z		; operator new
$LN61@basic_stri:
; File C:\Program Files\Microsoft Visual Studio\2022\Professional\VC\Tools\MSVC\14.44.35207\include\xstring

; 913  :         _Construct_in_place(_My_data._Bx._Ptr, _New_ptr);

  000a4	8b c8		 mov	 ecx, eax
  000a6	83 c4 04	 add	 esp, 4
$LN44@basic_stri:

; 917  :         if constexpr (_Strat == _Construct_strategy::_From_char) {
; 918  :             _Traits::assign(_Unfancy(_New_ptr), _Count, _Arg);
; 919  :             _Traits::assign(_Unfancy(_New_ptr)[_Count], _Elem());
; 920  :         } else if constexpr (_Strat == _Construct_strategy::_From_ptr) {
; 921  :             _Traits::copy(_Unfancy(_New_ptr), _Arg, _Count);
; 922  :             _Traits::assign(_Unfancy(_New_ptr)[_Count], _Elem());
; 923  :         } else { // _Strat == _Construct_strategy::_From_string
; 924  :             _Traits::copy(_Unfancy(_New_ptr), _Arg, _Count + 1);

  000a9	8d 43 01	 lea	 eax, DWORD PTR [ebx+1]
  000ac	89 0f		 mov	 DWORD PTR [edi], ecx
; File C:\Program Files\Microsoft Visual Studio\2022\Professional\VC\Tools\MSVC\14.44.35207\include\__msvc_string_view.hpp

; 121  :         _CSTD memcpy(_First1, _First2, _Count * sizeof(_Elem));

  000ae	50		 push	 eax
  000af	ff 75 08	 push	 DWORD PTR __Result$1$[ebp]
; File C:\Program Files\Microsoft Visual Studio\2022\Professional\VC\Tools\MSVC\14.44.35207\include\xstring

; 915  :         _My_data._Mysize = _Count;

  000b2	89 5f 10	 mov	 DWORD PTR [edi+16], ebx
; File C:\Program Files\Microsoft Visual Studio\2022\Professional\VC\Tools\MSVC\14.44.35207\include\__msvc_string_view.hpp

; 121  :         _CSTD memcpy(_First1, _First2, _Count * sizeof(_Elem));

  000b5	51		 push	 ecx
; File C:\Program Files\Microsoft Visual Studio\2022\Professional\VC\Tools\MSVC\14.44.35207\include\xstring

; 916  :         _My_data._Myres  = _New_capacity;

  000b6	89 77 14	 mov	 DWORD PTR [edi+20], esi
; File C:\Program Files\Microsoft Visual Studio\2022\Professional\VC\Tools\MSVC\14.44.35207\include\__msvc_string_view.hpp

; 121  :         _CSTD memcpy(_First1, _First2, _Count * sizeof(_Elem));

  000b9	e8 00 00 00 00	 call	 _memcpy
  000be	83 c4 0c	 add	 esp, 12			; 0000000cH
; File C:\Program Files\Microsoft Visual Studio\2022\Professional\VC\Tools\MSVC\14.44.35207\include\xstring

; 719  :     }

  000c1	8b c7		 mov	 eax, edi
; File C:\Program Files\Microsoft Visual Studio\2022\Professional\VC\Tools\MSVC\14.44.35207\include\__msvc_string_view.hpp

; 121  :         _CSTD memcpy(_First1, _First2, _Count * sizeof(_Elem));

  000c3	5e		 pop	 esi
; File C:\Program Files\Microsoft Visual Studio\2022\Professional\VC\Tools\MSVC\14.44.35207\include\xstring

; 719  :     }

  000c4	5f		 pop	 edi
  000c5	5b		 pop	 ebx
  000c6	5d		 pop	 ebp
  000c7	c2 04 00	 ret	 4
$LN63@basic_stri:

; 882  :             _Xlen_string(); // result too long

  000ca	e8 00 00 00 00	 call	 ?_Xlen_string@std@@YAXXZ ; std::_Xlen_string
$LN60@basic_stri:
  000cf	cc		 int	 3
??0?$basic_string@DU?$char_traits@D@std@@V?$allocator@D@2@@std@@QAE@ABV01@@Z ENDP ; std::basic_string<char,std::char_traits<char>,std::allocator<char> >::basic_string<char,std::char_traits<char>,std::allocator<char> >
_TEXT	ENDS
; Function compile flags: /Ogtp
; File C:\Program Files\Microsoft Visual Studio\2022\Professional\VC\Tools\MSVC\14.44.35207\include\xstring
;	COMDAT ?_Xlen_string@std@@YAXXZ
_TEXT	SEGMENT
?_Xlen_string@std@@YAXXZ PROC				; std::_Xlen_string, COMDAT

; 531  :     _Xlength_error("string too long");

  00000	68 00 00 00 00	 push	 OFFSET ??_C@_0BA@JFNIOLAK@string?5too?5long@
  00005	e8 00 00 00 00	 call	 ?_Xlength_error@std@@YAXPBD@Z ; std::_Xlength_error
$LN3@Xlen_strin:
  0000a	cc		 int	 3
?_Xlen_string@std@@YAXXZ ENDP				; std::_Xlen_string
_TEXT	ENDS
; Function compile flags: /Ogtp
; File C:\Program Files\Microsoft Visual Studio\2022\Professional\VC\Tools\MSVC\14.44.35207\include\xmemory
;	COMDAT ?_Throw_bad_array_new_length@std@@YAXXZ
_TEXT	SEGMENT
$T1 = -12						; size = 12
?_Throw_bad_array_new_length@std@@YAXXZ PROC		; std::_Throw_bad_array_new_length, COMDAT

; 107  : [[noreturn]] inline void _Throw_bad_array_new_length() {

  00000	55		 push	 ebp
  00001	8b ec		 mov	 ebp, esp
  00003	83 ec 0c	 sub	 esp, 12			; 0000000cH

; 108  :     _THROW(bad_array_new_length{});

  00006	8d 4d f4	 lea	 ecx, DWORD PTR $T1[ebp]
  00009	e8 00 00 00 00	 call	 ??0bad_array_new_length@std@@QAE@XZ ; std::bad_array_new_length::bad_array_new_length
  0000e	68 00 00 00 00	 push	 OFFSET __TI3?AVbad_array_new_length@std@@
  00013	8d 45 f4	 lea	 eax, DWORD PTR $T1[ebp]
  00016	50		 push	 eax
  00017	e8 00 00 00 00	 call	 __CxxThrowException@8
$LN3@Throw_bad_:
  0001c	cc		 int	 3
?_Throw_bad_array_new_length@std@@YAXXZ ENDP		; std::_Throw_bad_array_new_length
_TEXT	ENDS
; Function compile flags: /Ogtp
; File C:\Program Files\Microsoft Visual Studio\2022\Professional\VC\Tools\MSVC\14.44.35207\include\vcruntime_exception.h
;	COMDAT ??_Gbad_array_new_length@std@@UAEPAXI@Z
_TEXT	SEGMENT
___flags$ = 8						; size = 4
??_Gbad_array_new_length@std@@UAEPAXI@Z PROC		; std::bad_array_new_length::`scalar deleting destructor', COMDAT
; _this$ = ecx
  00000	55		 push	 ebp
  00001	8b ec		 mov	 ebp, esp

; 90   :     {

  00003	56		 push	 esi
  00004	8b f1		 mov	 esi, ecx

; 91   :         __std_exception_destroy(&_Data);

  00006	8d 46 04	 lea	 eax, DWORD PTR [esi+4]
  00009	c7 06 00 00 00
	00		 mov	 DWORD PTR [esi], OFFSET ??_7exception@std@@6B@
  0000f	50		 push	 eax
  00010	e8 00 00 00 00	 call	 ___std_exception_destroy
  00015	83 c4 04	 add	 esp, 4
  00018	f6 45 08 01	 test	 BYTE PTR ___flags$[ebp], 1
  0001c	74 0b		 je	 SHORT $LN18@scalar
  0001e	6a 0c		 push	 12			; 0000000cH
  00020	56		 push	 esi
  00021	e8 00 00 00 00	 call	 ??3@YAXPAXI@Z		; operator delete
  00026	83 c4 08	 add	 esp, 8
$LN18@scalar:
  00029	8b c6		 mov	 eax, esi
  0002b	5e		 pop	 esi
  0002c	5d		 pop	 ebp
  0002d	c2 04 00	 ret	 4
??_Gbad_array_new_length@std@@UAEPAXI@Z ENDP		; std::bad_array_new_length::`scalar deleting destructor'
_TEXT	ENDS
; Function compile flags: /Ogtp
; File C:\Program Files\Microsoft Visual Studio\2022\Professional\VC\Tools\MSVC\14.44.35207\include\vcruntime_exception.h
;	COMDAT ??0bad_array_new_length@std@@QAE@ABV01@@Z
_TEXT	SEGMENT
___that$ = 8						; size = 4
??0bad_array_new_length@std@@QAE@ABV01@@Z PROC		; std::bad_array_new_length::bad_array_new_length, COMDAT
; _this$ = ecx
  00000	55		 push	 ebp
  00001	8b ec		 mov	 ebp, esp

; 73   :     {

  00003	56		 push	 esi
  00004	8b f1		 mov	 esi, ecx
  00006	0f 57 c0	 xorps	 xmm0, xmm0

; 72   :         : _Data()

  00009	8d 46 04	 lea	 eax, DWORD PTR [esi+4]

; 74   :         __std_exception_copy(&_Other._Data, &_Data);

  0000c	50		 push	 eax
  0000d	c7 06 00 00 00
	00		 mov	 DWORD PTR [esi], OFFSET ??_7exception@std@@6B@
  00013	66 0f d6 00	 movq	 QWORD PTR [eax], xmm0
  00017	8b 45 08	 mov	 eax, DWORD PTR ___that$[ebp]
  0001a	83 c0 04	 add	 eax, 4
  0001d	50		 push	 eax
  0001e	e8 00 00 00 00	 call	 ___std_exception_copy
  00023	83 c4 08	 add	 esp, 8
  00026	c7 06 00 00 00
	00		 mov	 DWORD PTR [esi], OFFSET ??_7bad_array_new_length@std@@6B@
  0002c	8b c6		 mov	 eax, esi
  0002e	5e		 pop	 esi
  0002f	5d		 pop	 ebp
  00030	c2 04 00	 ret	 4
??0bad_array_new_length@std@@QAE@ABV01@@Z ENDP		; std::bad_array_new_length::bad_array_new_length
_TEXT	ENDS
; Function compile flags: /Ogtp
; File C:\Program Files\Microsoft Visual Studio\2022\Professional\VC\Tools\MSVC\14.44.35207\include\vcruntime_exception.h
;	COMDAT ??1bad_array_new_length@std@@UAE@XZ
_TEXT	SEGMENT
??1bad_array_new_length@std@@UAE@XZ PROC		; std::bad_array_new_length::~bad_array_new_length, COMDAT
; _this$ = ecx

; 91   :         __std_exception_destroy(&_Data);

  00000	8d 41 04	 lea	 eax, DWORD PTR [ecx+4]
  00003	c7 01 00 00 00
	00		 mov	 DWORD PTR [ecx], OFFSET ??_7exception@std@@6B@
  00009	50		 push	 eax
  0000a	e8 00 00 00 00	 call	 ___std_exception_destroy
  0000f	59		 pop	 ecx
  00010	c3		 ret	 0
??1bad_array_new_length@std@@UAE@XZ ENDP		; std::bad_array_new_length::~bad_array_new_length
_TEXT	ENDS
; Function compile flags: /Ogtp
; File C:\Program Files\Microsoft Visual Studio\2022\Professional\VC\Tools\MSVC\14.44.35207\include\vcruntime_exception.h
;	COMDAT ??0bad_array_new_length@std@@QAE@XZ
_TEXT	SEGMENT
??0bad_array_new_length@std@@QAE@XZ PROC		; std::bad_array_new_length::bad_array_new_length, COMDAT
; _this$ = ecx

; 144  :     {

  00000	0f 57 c0	 xorps	 xmm0, xmm0

; 145  :     }

  00003	8b c1		 mov	 eax, ecx

; 66   :         : _Data()

  00005	66 0f d6 41 04	 movq	 QWORD PTR [ecx+4], xmm0

; 67   :     {
; 68   :         _Data._What = _Message;

  0000a	c7 41 04 00 00
	00 00		 mov	 DWORD PTR [ecx+4], OFFSET ??_C@_0BF@KINCDENJ@bad?5array?5new?5length@

; 144  :     {

  00011	c7 01 00 00 00
	00		 mov	 DWORD PTR [ecx], OFFSET ??_7bad_array_new_length@std@@6B@

; 145  :     }

  00017	c3		 ret	 0
??0bad_array_new_length@std@@QAE@XZ ENDP		; std::bad_array_new_length::bad_array_new_length
_TEXT	ENDS
; Function compile flags: /Ogtp
; File C:\Program Files\Microsoft Visual Studio\2022\Professional\VC\Tools\MSVC\14.44.35207\include\vcruntime_exception.h
;	COMDAT ??_Gbad_alloc@std@@UAEPAXI@Z
_TEXT	SEGMENT
___flags$ = 8						; size = 4
??_Gbad_alloc@std@@UAEPAXI@Z PROC			; std::bad_alloc::`scalar deleting destructor', COMDAT
; _this$ = ecx
  00000	55		 push	 ebp
  00001	8b ec		 mov	 ebp, esp

; 90   :     {

  00003	56		 push	 esi
  00004	8b f1		 mov	 esi, ecx

; 91   :         __std_exception_destroy(&_Data);

  00006	8d 46 04	 lea	 eax, DWORD PTR [esi+4]
  00009	c7 06 00 00 00
	00		 mov	 DWORD PTR [esi], OFFSET ??_7exception@std@@6B@
  0000f	50		 push	 eax
  00010	e8 00 00 00 00	 call	 ___std_exception_destroy
  00015	83 c4 04	 add	 esp, 4
  00018	f6 45 08 01	 test	 BYTE PTR ___flags$[ebp], 1
  0001c	74 0b		 je	 SHORT $LN13@scalar
  0001e	6a 0c		 push	 12			; 0000000cH
  00020	56		 push	 esi
  00021	e8 00 00 00 00	 call	 ??3@YAXPAXI@Z		; operator delete
  00026	83 c4 08	 add	 esp, 8
$LN13@scalar:
  00029	8b c6		 mov	 eax, esi
  0002b	5e		 pop	 esi
  0002c	5d		 pop	 ebp
  0002d	c2 04 00	 ret	 4
??_Gbad_alloc@std@@UAEPAXI@Z ENDP			; std::bad_alloc::`scalar deleting destructor'
_TEXT	ENDS
; Function compile flags: /Ogtp
; File C:\Program Files\Microsoft Visual Studio\2022\Professional\VC\Tools\MSVC\14.44.35207\include\vcruntime_exception.h
;	COMDAT ??0bad_alloc@std@@QAE@ABV01@@Z
_TEXT	SEGMENT
___that$ = 8						; size = 4
??0bad_alloc@std@@QAE@ABV01@@Z PROC			; std::bad_alloc::bad_alloc, COMDAT
; _this$ = ecx
  00000	55		 push	 ebp
  00001	8b ec		 mov	 ebp, esp

; 73   :     {

  00003	56		 push	 esi
  00004	8b f1		 mov	 esi, ecx
  00006	0f 57 c0	 xorps	 xmm0, xmm0

; 72   :         : _Data()

  00009	8d 46 04	 lea	 eax, DWORD PTR [esi+4]

; 74   :         __std_exception_copy(&_Other._Data, &_Data);

  0000c	50		 push	 eax
  0000d	c7 06 00 00 00
	00		 mov	 DWORD PTR [esi], OFFSET ??_7exception@std@@6B@
  00013	66 0f d6 00	 movq	 QWORD PTR [eax], xmm0
  00017	8b 45 08	 mov	 eax, DWORD PTR ___that$[ebp]
  0001a	83 c0 04	 add	 eax, 4
  0001d	50		 push	 eax
  0001e	e8 00 00 00 00	 call	 ___std_exception_copy
  00023	83 c4 08	 add	 esp, 8
  00026	c7 06 00 00 00
	00		 mov	 DWORD PTR [esi], OFFSET ??_7bad_alloc@std@@6B@
  0002c	8b c6		 mov	 eax, esi
  0002e	5e		 pop	 esi
  0002f	5d		 pop	 ebp
  00030	c2 04 00	 ret	 4
??0bad_alloc@std@@QAE@ABV01@@Z ENDP			; std::bad_alloc::bad_alloc
_TEXT	ENDS
; Function compile flags: /Ogtp
; File C:\Program Files\Microsoft Visual Studio\2022\Professional\VC\Tools\MSVC\14.44.35207\include\vcruntime_exception.h
;	COMDAT ??_Gexception@std@@UAEPAXI@Z
_TEXT	SEGMENT
___flags$ = 8						; size = 4
??_Gexception@std@@UAEPAXI@Z PROC			; std::exception::`scalar deleting destructor', COMDAT
; _this$ = ecx
  00000	55		 push	 ebp
  00001	8b ec		 mov	 ebp, esp

; 90   :     {

  00003	56		 push	 esi
  00004	8b f1		 mov	 esi, ecx

; 91   :         __std_exception_destroy(&_Data);

  00006	8d 46 04	 lea	 eax, DWORD PTR [esi+4]
  00009	c7 06 00 00 00
	00		 mov	 DWORD PTR [esi], OFFSET ??_7exception@std@@6B@
  0000f	50		 push	 eax
  00010	e8 00 00 00 00	 call	 ___std_exception_destroy
  00015	83 c4 04	 add	 esp, 4
  00018	f6 45 08 01	 test	 BYTE PTR ___flags$[ebp], 1
  0001c	74 0b		 je	 SHORT $LN8@scalar
  0001e	6a 0c		 push	 12			; 0000000cH
  00020	56		 push	 esi
  00021	e8 00 00 00 00	 call	 ??3@YAXPAXI@Z		; operator delete
  00026	83 c4 08	 add	 esp, 8
$LN8@scalar:
  00029	8b c6		 mov	 eax, esi
  0002b	5e		 pop	 esi
  0002c	5d		 pop	 ebp
  0002d	c2 04 00	 ret	 4
??_Gexception@std@@UAEPAXI@Z ENDP			; std::exception::`scalar deleting destructor'
_TEXT	ENDS
; Function compile flags: /Ogtp
; File C:\Program Files\Microsoft Visual Studio\2022\Professional\VC\Tools\MSVC\14.44.35207\include\vcruntime_exception.h
;	COMDAT ?what@exception@std@@UBEPBDXZ
_TEXT	SEGMENT
?what@exception@std@@UBEPBDXZ PROC			; std::exception::what, COMDAT
; _this$ = ecx

; 96   :         return _Data._What ? _Data._What : "Unknown exception";

  00000	8b 49 04	 mov	 ecx, DWORD PTR [ecx+4]
  00003	b8 00 00 00 00	 mov	 eax, OFFSET ??_C@_0BC@EOODALEL@Unknown?5exception@
  00008	85 c9		 test	 ecx, ecx
  0000a	0f 45 c1	 cmovne	 eax, ecx

; 97   :     }

  0000d	c3		 ret	 0
?what@exception@std@@UBEPBDXZ ENDP			; std::exception::what
_TEXT	ENDS
; Function compile flags: /Ogtp
; File C:\Program Files\Microsoft Visual Studio\2022\Professional\VC\Tools\MSVC\14.44.35207\include\vcruntime_exception.h
;	COMDAT ??1exception@std@@UAE@XZ
_TEXT	SEGMENT
??1exception@std@@UAE@XZ PROC				; std::exception::~exception, COMDAT
; _this$ = ecx

; 91   :         __std_exception_destroy(&_Data);

  00000	8d 41 04	 lea	 eax, DWORD PTR [ecx+4]
  00003	c7 01 00 00 00
	00		 mov	 DWORD PTR [ecx], OFFSET ??_7exception@std@@6B@
  00009	50		 push	 eax
  0000a	e8 00 00 00 00	 call	 ___std_exception_destroy
  0000f	59		 pop	 ecx

; 92   :     }

  00010	c3		 ret	 0
??1exception@std@@UAE@XZ ENDP				; std::exception::~exception
_TEXT	ENDS
; Function compile flags: /Ogtp
; File C:\Program Files\Microsoft Visual Studio\2022\Professional\VC\Tools\MSVC\14.44.35207\include\vcruntime_exception.h
;	COMDAT ??0exception@std@@QAE@ABV01@@Z
_TEXT	SEGMENT
__Other$ = 8						; size = 4
??0exception@std@@QAE@ABV01@@Z PROC			; std::exception::exception, COMDAT
; _this$ = ecx

; 73   :     {

  00000	55		 push	 ebp
  00001	8b ec		 mov	 ebp, esp
  00003	56		 push	 esi
  00004	8b f1		 mov	 esi, ecx
  00006	0f 57 c0	 xorps	 xmm0, xmm0
  00009	8d 46 04	 lea	 eax, DWORD PTR [esi+4]

; 74   :         __std_exception_copy(&_Other._Data, &_Data);

  0000c	50		 push	 eax
  0000d	c7 06 00 00 00
	00		 mov	 DWORD PTR [esi], OFFSET ??_7exception@std@@6B@
  00013	66 0f d6 00	 movq	 QWORD PTR [eax], xmm0
  00017	8b 45 08	 mov	 eax, DWORD PTR __Other$[ebp]
  0001a	83 c0 04	 add	 eax, 4
  0001d	50		 push	 eax
  0001e	e8 00 00 00 00	 call	 ___std_exception_copy
  00023	83 c4 08	 add	 esp, 8

; 75   :     }

  00026	8b c6		 mov	 eax, esi
  00028	5e		 pop	 esi
  00029	5d		 pop	 ebp
  0002a	c2 04 00	 ret	 4
??0exception@std@@QAE@ABV01@@Z ENDP			; std::exception::exception
_TEXT	ENDS
; Function compile flags: /Ogtp
; File C:\Program Files\Microsoft Visual Studio\2022\Professional\VC\Tools\MSVC\14.44.35207\atlmfc\include\cstringt.h
; File C:\Program Files\Microsoft Visual Studio\2022\Professional\VC\Tools\MSVC\14.44.35207\atlmfc\include\afxstr.h
; File C:\Program Files\Microsoft Visual Studio\2022\Professional\VC\Tools\MSVC\14.44.35207\atlmfc\include\cstringt.h
; File C:\Program Files\Microsoft Visual Studio\2022\Professional\VC\Tools\MSVC\14.44.35207\atlmfc\include\afxstr.h
; File C:\Program Files\Microsoft Visual Studio\2022\Professional\VC\Tools\MSVC\14.44.35207\atlmfc\include\cstringt.h
; File C:\Program Files\Microsoft Visual Studio\2022\Professional\VC\Tools\MSVC\14.44.35207\atlmfc\include\atlcore.h
; File C:\Program Files\Microsoft Visual Studio\2022\Professional\VC\Tools\MSVC\14.44.35207\atlmfc\include\cstringt.h
; File C:\Program Files\Microsoft Visual Studio\2022\Professional\VC\Tools\MSVC\14.44.35207\atlmfc\include\atlsimpstr.h
; File C:\Program Files\Microsoft Visual Studio\2022\Professional\VC\Tools\MSVC\14.44.35207\atlmfc\include\cstringt.h
; File C:\Program Files\Microsoft Visual Studio\2022\Professional\VC\Tools\MSVC\14.44.35207\atlmfc\include\atlsimpstr.h
; File C:\Program Files\Microsoft Visual Studio\2022\Professional\VC\Tools\MSVC\14.44.35207\atlmfc\include\cstringt.h
; File C:\Program Files\Microsoft Visual Studio\2022\Professional\VC\Tools\MSVC\14.44.35207\atlmfc\include\atlsimpstr.h
; File C:\Program Files\Microsoft Visual Studio\2022\Professional\VC\Tools\MSVC\14.44.35207\atlmfc\include\cstringt.h
; File C:\Program Files\Microsoft Visual Studio\2022\Professional\VC\Tools\MSVC\14.44.35207\atlmfc\include\atlsimpstr.h
; File C:\Program Files\Microsoft Visual Studio\2022\Professional\VC\Tools\MSVC\14.44.35207\atlmfc\include\cstringt.h
;	COMDAT ?LoadStringA@?$CStringT@DV?$StrTraitMFC@DV?$ChTraitsCRT@D@ATL@@@@@ATL@@QAEHI@Z
_TEXT	SEGMENT
_this$1$ = -4						; size = 4
_nID$ = 8						; size = 4
_hResource$1$ = 8					; size = 4
?LoadStringA@?$CStringT@DV?$StrTraitMFC@DV?$ChTraitsCRT@D@ATL@@@@@ATL@@QAEHI@Z PROC ; ATL::CStringT<char,StrTraitMFC<char,ATL::ChTraitsCRT<char> > >::LoadStringA, COMDAT
; _this$ = ecx

; 2340 : 	{

  00000	55		 push	 ebp
  00001	8b ec		 mov	 ebp, esp
  00003	51		 push	 ecx
  00004	53		 push	 ebx
  00005	57		 push	 edi
; File C:\Program Files\Microsoft Visual Studio\2022\Professional\VC\Tools\MSVC\14.44.35207\atlmfc\include\afxstr.h

; 51   : 		return( AfxFindStringResourceHandle( nID ) );

  00006	8b 7d 08	 mov	 edi, DWORD PTR _nID$[ebp]
  00009	57		 push	 edi
; File C:\Program Files\Microsoft Visual Studio\2022\Professional\VC\Tools\MSVC\14.44.35207\atlmfc\include\cstringt.h

; 2340 : 	{

  0000a	89 4d fc	 mov	 DWORD PTR _this$1$[ebp], ecx
; File C:\Program Files\Microsoft Visual Studio\2022\Professional\VC\Tools\MSVC\14.44.35207\atlmfc\include\afxstr.h

; 51   : 		return( AfxFindStringResourceHandle( nID ) );

  0000d	e8 00 00 00 00	 call	 ?AfxFindStringResourceHandle@@YGPAUHINSTANCE__@@I@Z ; AfxFindStringResourceHandle
; File C:\Program Files\Microsoft Visual Studio\2022\Professional\VC\Tools\MSVC\14.44.35207\atlmfc\include\cstringt.h

; 2341 : 		HINSTANCE hInstance = StringTraits::FindStringResourceInstance( nID );

  00012	8b d8		 mov	 ebx, eax

; 2342 : 		if( hInstance == NULL )

  00014	85 db		 test	 ebx, ebx
  00016	75 08		 jne	 SHORT $LN2@LoadString

; 2348 : 	}

  00018	5f		 pop	 edi
  00019	5b		 pop	 ebx
  0001a	8b e5		 mov	 esp, ebp
  0001c	5d		 pop	 ebp
  0001d	c2 04 00	 ret	 4
$LN2@LoadString:
; File C:\Program Files\Microsoft Visual Studio\2022\Professional\VC\Tools\MSVC\14.44.35207\atlmfc\include\atlcore.h

; 380  : 	hResource = ::FindResourceW(hInstance, MAKEINTRESOURCEW( (((id>>4)+1) & static_cast<WORD>(~0)) ), (LPWSTR) RT_STRING);

  00020	8b c7		 mov	 eax, edi
  00022	c1 e8 04	 shr	 eax, 4
  00025	56		 push	 esi
  00026	40		 inc	 eax
  00027	6a 06		 push	 6
  00029	0f b7 c0	 movzx	 eax, ax
  0002c	50		 push	 eax
  0002d	53		 push	 ebx
  0002e	ff 15 00 00 00
	00		 call	 DWORD PTR __imp__FindResourceW@12
  00034	89 45 08	 mov	 DWORD PTR _hResource$1$[ebp], eax

; 381  : 	if( hResource == NULL )

  00037	85 c0		 test	 eax, eax
  00039	0f 84 cc 00 00
	00		 je	 $LN51@LoadString

; 338  : 	hGlobal = ::LoadResource( hInstance, hResource );

  0003f	50		 push	 eax
  00040	53		 push	 ebx
  00041	ff 15 00 00 00
	00		 call	 DWORD PTR __imp__LoadResource@8

; 339  : 	if( hGlobal == NULL )

  00047	85 c0		 test	 eax, eax
  00049	75 04		 jne	 SHORT $LN15@LoadString

; 340  : 	{
; 341  : 		return( NULL );

  0004b	33 f6		 xor	 esi, esi
  0004d	eb 43		 jmp	 SHORT $LN18@LoadString
$LN15@LoadString:

; 342  : 	}
; 343  : 
; 344  : 	pImage = (const ATLSTRINGRESOURCEIMAGE*)::LockResource( hGlobal );

  0004f	50		 push	 eax
  00050	ff 15 00 00 00
	00		 call	 DWORD PTR __imp__LockResource@4
  00056	8b f0		 mov	 esi, eax

; 345  : 	if( pImage == NULL )

  00058	85 f6		 test	 esi, esi
  0005a	74 36		 je	 SHORT $LN18@LoadString
$LN16@LoadString:

; 346  : 	{
; 347  : 		return( NULL );
; 348  : 	}
; 349  : 
; 350  : 	nResourceSize = ::SizeofResource( hInstance, hResource );

  0005c	ff 75 08	 push	 DWORD PTR _hResource$1$[ebp]
  0005f	53		 push	 ebx
  00060	ff 15 00 00 00
	00		 call	 DWORD PTR __imp__SizeofResource@8

; 351  : 	pImageEnd = (const ATLSTRINGRESOURCEIMAGE*)(LPBYTE( pImage )+nResourceSize);

  00066	8d 0c 06	 lea	 ecx, DWORD PTR [esi+eax]

; 352  : 	iIndex = id&0x000f;

  00069	83 e7 0f	 and	 edi, 15			; 0000000fH

; 353  : 
; 354  : 	while( (iIndex > 0) && (pImage < pImageEnd) )

  0006c	76 14		 jbe	 SHORT $LN14@LoadString
  0006e	66 90		 npad	 2
$LL13@LoadString:
  00070	3b f1		 cmp	 esi, ecx
  00072	73 12		 jae	 SHORT $LN50@LoadString

; 355  : 	{
; 356  : 		pImage = (const ATLSTRINGRESOURCEIMAGE*)(LPBYTE( pImage )+(sizeof( ATLSTRINGRESOURCEIMAGE )+(pImage->nLength*sizeof( WCHAR ))));

  00074	0f b7 06	 movzx	 eax, WORD PTR [esi]
  00077	8d 34 46	 lea	 esi, DWORD PTR [esi+eax*2]
  0007a	83 c6 02	 add	 esi, 2

; 357  : 		iIndex--;

  0007d	83 ef 01	 sub	 edi, 1
  00080	75 ee		 jne	 SHORT $LL13@LoadString
$LN14@LoadString:

; 358  : 	}
; 359  : 	if( pImage >= pImageEnd )

  00082	3b f1		 cmp	 esi, ecx
  00084	72 04		 jb	 SHORT $LN17@LoadString
$LN50@LoadString:

; 360  : 	{
; 361  : 		return( NULL );

  00086	33 f6		 xor	 esi, esi
  00088	eb 08		 jmp	 SHORT $LN18@LoadString
$LN17@LoadString:

; 362  : 	}
; 363  : 	if( pImage->nLength == 0 )

  0008a	33 c0		 xor	 eax, eax
  0008c	66 39 06	 cmp	 WORD PTR [esi], ax
  0008f	0f 44 f0	 cmove	 esi, eax
$LN18@LoadString:
; File C:\Program Files\Microsoft Visual Studio\2022\Professional\VC\Tools\MSVC\14.44.35207\atlmfc\include\cstringt.h

; 2356 : 		if( pImage == NULL )

  00092	85 f6		 test	 esi, esi
  00094	74 75		 je	 SHORT $LN51@LoadString

; 2359 : 		}
; 2360 : 
; 2361 : 		int nLength = StringTraits::GetBaseTypeLength( pImage->achString, pImage->nLength );

  00096	0f b7 06	 movzx	 eax, WORD PTR [esi]
  00099	8d 4e 02	 lea	 ecx, DWORD PTR [esi+2]

; 350  : 		return ::WideCharToMultiByte( _AtlGetConversionACP(), 0, pszSource, nLength, NULL, 0, NULL, NULL );

  0009c	6a 00		 push	 0
  0009e	6a 00		 push	 0
  000a0	6a 00		 push	 0
  000a2	6a 00		 push	 0
  000a4	50		 push	 eax
  000a5	51		 push	 ecx
  000a6	6a 00		 push	 0
  000a8	6a 03		 push	 3
  000aa	ff 15 00 00 00
	00		 call	 DWORD PTR __imp__WideCharToMultiByte@32

; 2361 : 		int nLength = StringTraits::GetBaseTypeLength( pImage->achString, pImage->nLength );

  000b0	8b f8		 mov	 edi, eax
; File C:\Program Files\Microsoft Visual Studio\2022\Professional\VC\Tools\MSVC\14.44.35207\atlmfc\include\atlsimpstr.h

; 808  : 		if (nLength < 0)

  000b2	85 ff		 test	 edi, edi
  000b4	78 60		 js	 SHORT $LN38@LoadString

; 804  : 		return( reinterpret_cast< CStringData* >( m_pszData )-1 );

  000b6	8b 5d fc	 mov	 ebx, DWORD PTR _this$1$[ebp]

; 812  : 		int nShared = 1-pOldData->nRefs;  // nShared < 0 means true, >= 0 means false

  000b9	ba 01 00 00 00	 mov	 edx, 1

; 804  : 		return( reinterpret_cast< CStringData* >( m_pszData )-1 );

  000be	8b 0b		 mov	 ecx, DWORD PTR [ebx]

; 812  : 		int nShared = 1-pOldData->nRefs;  // nShared < 0 means true, >= 0 means false

  000c0	2b 51 fc	 sub	 edx, DWORD PTR [ecx-4]

; 813  : 		int nTooShort = pOldData->nAllocLength-nLength;  // nTooShort < 0 means true, >= 0 means false

  000c3	8b 49 f8	 mov	 ecx, DWORD PTR [ecx-8]
  000c6	2b cf		 sub	 ecx, edi

; 814  : 		if( (nShared|nTooShort) < 0 )  // If either sign bit is set (i.e. either is less than zero), we need to copy data

  000c8	0b d1		 or	 edx, ecx
  000ca	7d 08		 jge	 SHORT $LN26@LoadString

; 815  : 		{
; 816  : 			PrepareWrite2( nLength );

  000cc	57		 push	 edi
  000cd	8b cb		 mov	 ecx, ebx
  000cf	e8 00 00 00 00	 call	 ?PrepareWrite2@?$CSimpleStringT@D$0A@@ATL@@AAEXH@Z ; ATL::CSimpleStringT<char,0>::PrepareWrite2
$LN26@LoadString:
; File C:\Program Files\Microsoft Visual Studio\2022\Professional\VC\Tools\MSVC\14.44.35207\atlmfc\include\cstringt.h

; 2363 : 		StringTraits::ConvertToBaseType( pszBuffer, nLength, pImage->achString, pImage->nLength );

  000d4	0f b7 06	 movzx	 eax, WORD PTR [esi]

; 372  : 		::WideCharToMultiByte( _AtlGetConversionACP(), 0, pszSrc, nSrcLength, pszDest, nDestLength, NULL, NULL );

  000d7	6a 00		 push	 0
  000d9	6a 00		 push	 0
  000db	57		 push	 edi
  000dc	ff 33		 push	 DWORD PTR [ebx]
  000de	50		 push	 eax
  000df	8d 46 02	 lea	 eax, DWORD PTR [esi+2]
  000e2	50		 push	 eax
  000e3	6a 00		 push	 0
  000e5	6a 03		 push	 3
  000e7	ff 15 00 00 00
	00		 call	 DWORD PTR __imp__WideCharToMultiByte@32
; File C:\Program Files\Microsoft Visual Studio\2022\Professional\VC\Tools\MSVC\14.44.35207\atlmfc\include\atlsimpstr.h

; 875  : 		if( nLength < 0 || nLength > GetData()->nAllocLength)

  000ed	8b 03		 mov	 eax, DWORD PTR [ebx]
  000ef	3b 78 f8	 cmp	 edi, DWORD PTR [eax-8]
  000f2	7f 22		 jg	 SHORT $LN38@LoadString

; 877  : 
; 878  : 		GetData()->nDataLength = nLength;

  000f4	89 78 f4	 mov	 DWORD PTR [eax-12], edi

; 879  : 		m_pszData[nLength] = 0;

  000f7	8b 03		 mov	 eax, DWORD PTR [ebx]
; File C:\Program Files\Microsoft Visual Studio\2022\Professional\VC\Tools\MSVC\14.44.35207\atlmfc\include\cstringt.h

; 2347 : 		return( LoadString( hInstance, nID ) );

  000f9	5e		 pop	 esi
; File C:\Program Files\Microsoft Visual Studio\2022\Professional\VC\Tools\MSVC\14.44.35207\atlmfc\include\atlsimpstr.h

; 879  : 		m_pszData[nLength] = 0;

  000fa	c6 04 07 00	 mov	 BYTE PTR [edi+eax], 0
; File C:\Program Files\Microsoft Visual Studio\2022\Professional\VC\Tools\MSVC\14.44.35207\atlmfc\include\cstringt.h

; 2366 : 		return( TRUE );

  000fe	b8 01 00 00 00	 mov	 eax, 1
  00103	5f		 pop	 edi

; 2348 : 	}

  00104	5b		 pop	 ebx
  00105	8b e5		 mov	 esp, ebp
  00107	5d		 pop	 ebp
  00108	c2 04 00	 ret	 4
$LN51@LoadString:

; 2347 : 		return( LoadString( hInstance, nID ) );

  0010b	5e		 pop	 esi
  0010c	5f		 pop	 edi

; 2358 : 			return( FALSE );

  0010d	33 c0		 xor	 eax, eax

; 2348 : 	}

  0010f	5b		 pop	 ebx
  00110	8b e5		 mov	 esp, ebp
  00112	5d		 pop	 ebp
  00113	c2 04 00	 ret	 4
$LN38@LoadString:
; File C:\Program Files\Microsoft Visual Studio\2022\Professional\VC\Tools\MSVC\14.44.35207\atlmfc\include\atlsimpstr.h

; 876  : 			AtlThrow(E_INVALIDARG);

  00116	68 57 00 07 80	 push	 -2147024809		; 80070057H
  0011b	e8 00 00 00 00	 call	 ?AtlThrowImpl@ATL@@YGXJ@Z ; ATL::AtlThrowImpl
$LN63@LoadString:
  00120	cc		 int	 3
?LoadStringA@?$CStringT@DV?$StrTraitMFC@DV?$ChTraitsCRT@D@ATL@@@@@ATL@@QAEHI@Z ENDP ; ATL::CStringT<char,StrTraitMFC<char,ATL::ChTraitsCRT<char> > >::LoadStringA
_TEXT	ENDS
; Function compile flags: /Ogtp
; File C:\Program Files\Microsoft Visual Studio\2022\Professional\VC\Tools\MSVC\14.44.35207\atlmfc\include\cstringt.h
; File C:\Program Files (x86)\Windows Kits\10\Include\10.0.26100.0\ucrt\stdio.h
; File C:\Program Files\Microsoft Visual Studio\2022\Professional\VC\Tools\MSVC\14.44.35207\atlmfc\include\cstringt.h
; File C:\Program Files\Microsoft Visual Studio\2022\Professional\VC\Tools\MSVC\14.44.35207\atlmfc\include\atlsimpstr.h
; File C:\Program Files\Microsoft Visual Studio\2022\Professional\VC\Tools\MSVC\14.44.35207\atlmfc\include\cstringt.h
; File C:\Program Files\Microsoft Visual Studio\2022\Professional\VC\Tools\MSVC\14.44.35207\atlmfc\include\afxstr.h
; File C:\Program Files\Microsoft Visual Studio\2022\Professional\VC\Tools\MSVC\14.44.35207\atlmfc\include\cstringt.h
; File C:\Program Files\Microsoft Visual Studio\2022\Professional\VC\Tools\MSVC\14.44.35207\atlmfc\include\atlsimpstr.h
; File C:\Program Files\Microsoft Visual Studio\2022\Professional\VC\Tools\MSVC\14.44.35207\atlmfc\include\cstringt.h
; File C:\Program Files\Microsoft Visual Studio\2022\Professional\VC\Tools\MSVC\14.44.35207\atlmfc\include\atlsimpstr.h
; File C:\Program Files\Microsoft Visual Studio\2022\Professional\VC\Tools\MSVC\14.44.35207\atlmfc\include\cstringt.h
; File C:\Program Files\Microsoft Visual Studio\2022\Professional\VC\Tools\MSVC\14.44.35207\atlmfc\include\atlsimpstr.h
; File C:\Program Files (x86)\Windows Kits\10\Include\10.0.26100.0\ucrt\stdio.h
; File C:\Program Files\Microsoft Visual Studio\2022\Professional\VC\Tools\MSVC\14.44.35207\atlmfc\include\cstringt.h
; File C:\Program Files (x86)\Windows Kits\10\Include\10.0.26100.0\ucrt\stdio.h
; File C:\Program Files\Microsoft Visual Studio\2022\Professional\VC\Tools\MSVC\14.44.35207\atlmfc\include\atlsimpstr.h
; File C:\Program Files (x86)\Windows Kits\10\Include\10.0.26100.0\ucrt\stdio.h
; File C:\Program Files\Microsoft Visual Studio\2022\Professional\VC\Tools\MSVC\14.44.35207\atlmfc\include\atlsimpstr.h
; File C:\Program Files\Microsoft Visual Studio\2022\Professional\VC\Tools\MSVC\14.44.35207\atlmfc\include\cstringt.h
; File C:\Program Files\Microsoft Visual Studio\2022\Professional\VC\Tools\MSVC\14.44.35207\atlmfc\include\atlsimpstr.h
; File C:\Program Files\Microsoft Visual Studio\2022\Professional\VC\Tools\MSVC\14.44.35207\atlmfc\include\cstringt.h
; File C:\Program Files\Microsoft Visual Studio\2022\Professional\VC\Tools\MSVC\14.44.35207\atlmfc\include\atlsimpstr.h
; File C:\Program Files\Microsoft Visual Studio\2022\Professional\VC\Tools\MSVC\14.44.35207\atlmfc\include\cstringt.h
;	COMDAT ?FormatV@?$CStringT@DV?$StrTraitMFC@DV?$ChTraitsCRT@D@ATL@@@@@ATL@@QAEXPBDPAD@Z
_TEXT	SEGMENT
tv456 = -16						; size = 4
__$EHRec$ = -12						; size = 12
_pszFormat$ = 8						; size = 4
_temp$ = 8						; size = 4
_args$ = 12						; size = 4
?FormatV@?$CStringT@DV?$StrTraitMFC@DV?$ChTraitsCRT@D@ATL@@@@@ATL@@QAEXPBDPAD@Z PROC ; ATL::CStringT<char,StrTraitMFC<char,ATL::ChTraitsCRT<char> > >::FormatV, COMDAT
; _this$ = ecx

; 2225 : 	{

  00000	55		 push	 ebp
  00001	8b ec		 mov	 ebp, esp
  00003	6a ff		 push	 -1
  00005	68 00 00 00 00	 push	 __ehhandler$?FormatV@?$CStringT@DV?$StrTraitMFC@DV?$ChTraitsCRT@D@ATL@@@@@ATL@@QAEXPBDPAD@Z
  0000a	64 a1 00 00 00
	00		 mov	 eax, DWORD PTR fs:0
  00010	50		 push	 eax
  00011	51		 push	 ecx
  00012	53		 push	 ebx
  00013	56		 push	 esi
  00014	57		 push	 edi
  00015	a1 00 00 00 00	 mov	 eax, DWORD PTR ___security_cookie
  0001a	33 c5		 xor	 eax, ebp
  0001c	50		 push	 eax
  0001d	8d 45 f4	 lea	 eax, DWORD PTR __$EHRec$[ebp]
  00020	64 a3 00 00 00
	00		 mov	 DWORD PTR fs:0, eax
  00026	8b d9		 mov	 ebx, ecx

; 2226 : 		ATLASSERT( AtlIsValidString( pszFormat ) );
; 2227 : 		if(pszFormat == NULL)

  00028	8b 75 08	 mov	 esi, DWORD PTR _pszFormat$[ebp]
  0002b	85 f6		 test	 esi, esi
  0002d	0f 84 2e 01 00
	00		 je	 $LN70@FormatV
; File C:\Program Files (x86)\Windows Kits\10\Include\10.0.26100.0\ucrt\stdio.h

; 1652 :         int const _Result = __stdio_common_vsprintf(

  00033	e8 00 00 00 00	 call	 ___local_stdio_printf_options
  00038	ff 75 0c	 push	 DWORD PTR _args$[ebp]
  0003b	89 45 f0	 mov	 DWORD PTR tv456[ebp], eax
  0003e	6a 00		 push	 0
  00040	8b 08		 mov	 ecx, DWORD PTR [eax]
  00042	56		 push	 esi
  00043	6a 00		 push	 0
  00045	6a 00		 push	 0
  00047	ff 70 04	 push	 DWORD PTR [eax+4]
  0004a	83 c9 02	 or	 ecx, 2
  0004d	51		 push	 ecx
  0004e	e8 00 00 00 00	 call	 ___stdio_common_vsprintf
  00053	8b f8		 mov	 edi, eax
  00055	83 c4 1c	 add	 esp, 28			; 0000001cH

; 1653 :             _CRT_INTERNAL_LOCAL_PRINTF_OPTIONS | _CRT_INTERNAL_PRINTF_STANDARD_SNPRINTF_BEHAVIOR,
; 1654 :             NULL, 0, _Format, _Locale, _ArgList);
; 1655 : 
; 1656 :         return _Result < 0 ? -1 : _Result;

  00058	83 c8 ff	 or	 eax, -1
  0005b	85 ff		 test	 edi, edi
  0005d	0f 48 f8	 cmovs	 edi, eax
; File C:\Program Files\Microsoft Visual Studio\2022\Professional\VC\Tools\MSVC\14.44.35207\atlmfc\include\cstringt.h

; 2232 : 		if (nLength < 0)

  00060	85 ff		 test	 edi, edi
  00062	0f 88 ef 00 00
	00		 js	 $LN87@FormatV
; File C:\Program Files\Microsoft Visual Studio\2022\Professional\VC\Tools\MSVC\14.44.35207\atlmfc\include\atlsimpstr.h

; 527  : 		IAtlStringMgr* pStringMgr = GetData()->pStringMgr;

  00068	8b 03		 mov	 eax, DWORD PTR [ebx]
  0006a	8b 48 f0	 mov	 ecx, DWORD PTR [eax-16]

; 528  : 		return pStringMgr ? pStringMgr->Clone() : NULL;

  0006d	85 c9		 test	 ecx, ecx
  0006f	74 0b		 je	 SHORT $LN13@FormatV
  00071	8b 01		 mov	 eax, DWORD PTR [ecx]
  00073	ff 50 10	 call	 DWORD PTR [eax+16]
  00076	8b c8		 mov	 ecx, eax
; File C:\Program Files\Microsoft Visual Studio\2022\Professional\VC\Tools\MSVC\14.44.35207\atlmfc\include\cstringt.h

; 1442 : 		if(pStringMgr) { return pStringMgr; }

  00078	85 c9		 test	 ecx, ecx
  0007a	75 16		 jne	 SHORT $LN28@FormatV
$LN13@FormatV:
; File C:\Program Files\Microsoft Visual Studio\2022\Professional\VC\Tools\MSVC\14.44.35207\atlmfc\include\afxstr.h

; 56   : 		return( AfxGetStringManager() );

  0007c	e8 00 00 00 00	 call	 ?AfxGetStringManager@@YGPAUIAtlStringMgr@ATL@@XZ ; AfxGetStringManager
; File C:\Program Files\Microsoft Visual Studio\2022\Professional\VC\Tools\MSVC\14.44.35207\atlmfc\include\cstringt.h

; 1445 : 		return pStringMgr->Clone();

  00081	8b c8		 mov	 ecx, eax
  00083	8b 10		 mov	 edx, DWORD PTR [eax]
  00085	ff 52 10	 call	 DWORD PTR [edx+16]
  00088	8b c8		 mov	 ecx, eax
; File C:\Program Files\Microsoft Visual Studio\2022\Professional\VC\Tools\MSVC\14.44.35207\atlmfc\include\atlsimpstr.h

; 209  : 		ATLENSURE( pStringMgr != NULL );

  0008a	85 c9		 test	 ecx, ecx
  0008c	0f 84 c5 00 00
	00		 je	 $LN87@FormatV
$LN28@FormatV:

; 210  : 		CStringData* pData = pStringMgr->GetNilString();

  00092	8b 01		 mov	 eax, DWORD PTR [ecx]
  00094	ff 50 0c	 call	 DWORD PTR [eax+12]

; 211  : 		Attach( pData );

  00097	83 c0 10	 add	 eax, 16			; 00000010H
  0009a	89 45 08	 mov	 DWORD PTR _temp$[ebp], eax
; File C:\Program Files\Microsoft Visual Studio\2022\Professional\VC\Tools\MSVC\14.44.35207\atlmfc\include\cstringt.h

; 1063 : 		CThisSimpleString( pStringMgr )

  0009d	c7 45 fc 00 00
	00 00		 mov	 DWORD PTR __$EHRec$[ebp+8], 0

; 2712 : 		if( (pv != NULL) && IS_INTRESOURCE( pv ) )

  000a4	f7 c6 00 00 ff
	ff		 test	 esi, -65536		; ffff0000H
  000aa	75 0e		 jne	 SHORT $LN86@FormatV

; 2713 : 		{
; 2714 : 			UINT nID = LOWORD( reinterpret_cast< DWORD_PTR >( pv ) );

  000ac	0f b7 c6	 movzx	 eax, si

; 2715 : 			(nID);
; 2716 : #ifdef _ATL_USE_WINAPI_FAMILY_DESKTOP_APP
; 2717 : 			if( !LoadString( nID ) )

  000af	8d 4d 08	 lea	 ecx, DWORD PTR _temp$[ebp]
  000b2	50		 push	 eax
  000b3	e8 00 00 00 00	 call	 ?LoadStringA@?$CStringT@DV?$StrTraitMFC@DV?$ChTraitsCRT@D@ATL@@@@@ATL@@QAEHI@Z ; ATL::CStringT<char,StrTraitMFC<char,ATL::ChTraitsCRT<char> > >::LoadStringA

; 1065 : 		if( !CheckImplicitLoad( pszSrc ) )

  000b8	eb 19		 jmp	 SHORT $LN24@FormatV
$LN86@FormatV:
; File C:\Program Files\Microsoft Visual Studio\2022\Professional\VC\Tools\MSVC\14.44.35207\atlmfc\include\atlsimpstr.h

; 730  : 		return( int( strlen( psz ) ) );

  000ba	8b ce		 mov	 ecx, esi
  000bc	8d 51 01	 lea	 edx, DWORD PTR [ecx+1]
  000bf	90		 npad	 1
$LL89@FormatV:
  000c0	8a 01		 mov	 al, BYTE PTR [ecx]
  000c2	41		 inc	 ecx
  000c3	84 c0		 test	 al, al
  000c5	75 f9		 jne	 SHORT $LL89@FormatV
  000c7	2b ca		 sub	 ecx, edx

; 606  : 		SetString( pszSrc, StringLength( pszSrc ) );

  000c9	51		 push	 ecx
  000ca	56		 push	 esi
  000cb	8d 4d 08	 lea	 ecx, DWORD PTR _temp$[ebp]
  000ce	e8 00 00 00 00	 call	 ?SetString@?$CSimpleStringT@D$0A@@ATL@@QAEXPBDH@Z ; ATL::CSimpleStringT<char,0>::SetString
$LN24@FormatV:

; 804  : 		return( reinterpret_cast< CStringData* >( m_pszData )-1 );

  000d3	8b 03		 mov	 eax, DWORD PTR [ebx]

; 812  : 		int nShared = 1-pOldData->nRefs;  // nShared < 0 means true, >= 0 means false

  000d5	b9 01 00 00 00	 mov	 ecx, 1
; File C:\Program Files\Microsoft Visual Studio\2022\Professional\VC\Tools\MSVC\14.44.35207\atlmfc\include\cstringt.h

; 2235 : 		CStringT temp(pszFormat, this->GetManager());

  000da	c7 45 fc 01 00
	00 00		 mov	 DWORD PTR __$EHRec$[ebp+8], 1
; File C:\Program Files\Microsoft Visual Studio\2022\Professional\VC\Tools\MSVC\14.44.35207\atlmfc\include\atlsimpstr.h

; 812  : 		int nShared = 1-pOldData->nRefs;  // nShared < 0 means true, >= 0 means false

  000e1	2b 48 fc	 sub	 ecx, DWORD PTR [eax-4]

; 813  : 		int nTooShort = pOldData->nAllocLength-nLength;  // nTooShort < 0 means true, >= 0 means false

  000e4	8b 40 f8	 mov	 eax, DWORD PTR [eax-8]
  000e7	2b c7		 sub	 eax, edi

; 814  : 		if( (nShared|nTooShort) < 0 )  // If either sign bit is set (i.e. either is less than zero), we need to copy data

  000e9	0b c8		 or	 ecx, eax
  000eb	7d 08		 jge	 SHORT $LN55@FormatV

; 815  : 		{
; 816  : 			PrepareWrite2( nLength );

  000ed	57		 push	 edi
  000ee	8b cb		 mov	 ecx, ebx
  000f0	e8 00 00 00 00	 call	 ?PrepareWrite2@?$CSimpleStringT@D$0A@@ATL@@AAEXH@Z ; ATL::CSimpleStringT<char,0>::PrepareWrite2
$LN55@FormatV:
; File C:\Program Files (x86)\Windows Kits\10\Include\10.0.26100.0\ucrt\stdio.h

; 1491 :         int const _Result = __stdio_common_vsprintf_s(

  000f5	ff 75 0c	 push	 DWORD PTR _args$[ebp]
  000f8	8b 75 08	 mov	 esi, DWORD PTR _temp$[ebp]
; File C:\Program Files\Microsoft Visual Studio\2022\Professional\VC\Tools\MSVC\14.44.35207\atlmfc\include\cstringt.h

; 2237 : 		StringTraits::Format( pszBuffer, nLength+1, temp, args );

  000fb	8d 47 01	 lea	 eax, DWORD PTR [edi+1]
; File C:\Program Files (x86)\Windows Kits\10\Include\10.0.26100.0\ucrt\stdio.h

; 1491 :         int const _Result = __stdio_common_vsprintf_s(

  000fe	6a 00		 push	 0
  00100	56		 push	 esi
  00101	50		 push	 eax
  00102	8b 45 f0	 mov	 eax, DWORD PTR tv456[ebp]
  00105	ff 33		 push	 DWORD PTR [ebx]
  00107	ff 70 04	 push	 DWORD PTR [eax+4]
  0010a	ff 30		 push	 DWORD PTR [eax]
  0010c	e8 00 00 00 00	 call	 ___stdio_common_vsprintf_s
; File C:\Program Files\Microsoft Visual Studio\2022\Professional\VC\Tools\MSVC\14.44.35207\atlmfc\include\atlsimpstr.h

; 875  : 		if( nLength < 0 || nLength > GetData()->nAllocLength)

  00111	8b 03		 mov	 eax, DWORD PTR [ebx]
; File C:\Program Files (x86)\Windows Kits\10\Include\10.0.26100.0\ucrt\stdio.h

; 1491 :         int const _Result = __stdio_common_vsprintf_s(

  00113	83 c4 1c	 add	 esp, 28			; 0000001cH
; File C:\Program Files\Microsoft Visual Studio\2022\Professional\VC\Tools\MSVC\14.44.35207\atlmfc\include\atlsimpstr.h

; 875  : 		if( nLength < 0 || nLength > GetData()->nAllocLength)

  00116	3b 78 f8	 cmp	 edi, DWORD PTR [eax-8]
  00119	7f 46		 jg	 SHORT $LN70@FormatV

; 876  : 			AtlThrow(E_INVALIDARG);
; 877  : 
; 878  : 		GetData()->nDataLength = nLength;

  0011b	89 78 f4	 mov	 DWORD PTR [eax-12], edi

; 804  : 		return( reinterpret_cast< CStringData* >( m_pszData )-1 );

  0011e	83 c6 f0	 add	 esi, -16		; fffffff0H

; 879  : 		m_pszData[nLength] = 0;

  00121	8b 03		 mov	 eax, DWORD PTR [ebx]
; File C:\Program Files\Microsoft Visual Studio\2022\Professional\VC\Tools\MSVC\14.44.35207\atlmfc\include\cstringt.h

; 2239 : 	}

  00123	c7 45 fc ff ff
	ff ff		 mov	 DWORD PTR __$EHRec$[ebp+8], -1
; File C:\Program Files\Microsoft Visual Studio\2022\Professional\VC\Tools\MSVC\14.44.35207\atlmfc\include\atlsimpstr.h

; 879  : 		m_pszData[nLength] = 0;

  0012a	c6 04 07 00	 mov	 BYTE PTR [edi+eax], 0

; 92   : 		if( _InterlockedDecrement( &nRefs ) <= 0 )

  0012e	83 c8 ff	 or	 eax, -1
  00131	f0 0f c1 46 0c	 lock	  xadd	 DWORD PTR [esi+12], eax
  00136	48		 dec	 eax
  00137	85 c0		 test	 eax, eax
  00139	7f 08		 jg	 SHORT $LN84@FormatV

; 93   : 		{
; 94   : 			pStringMgr->Free( this );

  0013b	8b 0e		 mov	 ecx, DWORD PTR [esi]
  0013d	56		 push	 esi
  0013e	8b 01		 mov	 eax, DWORD PTR [ecx]
  00140	ff 50 04	 call	 DWORD PTR [eax+4]
$LN84@FormatV:
; File C:\Program Files\Microsoft Visual Studio\2022\Professional\VC\Tools\MSVC\14.44.35207\atlmfc\include\cstringt.h

; 2239 : 	}

  00143	8b 4d f4	 mov	 ecx, DWORD PTR __$EHRec$[ebp]
  00146	64 89 0d 00 00
	00 00		 mov	 DWORD PTR fs:0, ecx
  0014d	59		 pop	 ecx
  0014e	5f		 pop	 edi
  0014f	5e		 pop	 esi
  00150	5b		 pop	 ebx
  00151	8b e5		 mov	 esp, ebp
  00153	5d		 pop	 ebp
  00154	c2 08 00	 ret	 8
$LN87@FormatV:
; File C:\Program Files\Microsoft Visual Studio\2022\Professional\VC\Tools\MSVC\14.44.35207\atlmfc\include\atlsimpstr.h

; 209  : 		ATLENSURE( pStringMgr != NULL );

  00157	68 05 40 00 80	 push	 -2147467259		; 80004005H
  0015c	e8 00 00 00 00	 call	 ?AtlThrowImpl@ATL@@YGXJ@Z ; ATL::AtlThrowImpl
$LN70@FormatV:
; File C:\Program Files\Microsoft Visual Studio\2022\Professional\VC\Tools\MSVC\14.44.35207\atlmfc\include\cstringt.h

; 2239 : 	}

  00161	68 57 00 07 80	 push	 -2147024809		; 80070057H
  00166	e8 00 00 00 00	 call	 ?AtlThrowImpl@ATL@@YGXJ@Z ; ATL::AtlThrowImpl
$LN91@FormatV:
  0016b	cc		 int	 3
_TEXT	ENDS
;	COMDAT text$x
text$x	SEGMENT
__unwindfunclet$?FormatV@?$CStringT@DV?$StrTraitMFC@DV?$ChTraitsCRT@D@ATL@@@@@ATL@@QAEXPBDPAD@Z$1:
  00000	8d 4d 08	 lea	 ecx, DWORD PTR _temp$[ebp]
  00003	e9 00 00 00 00	 jmp	 ??1?$CSimpleStringT@D$0A@@ATL@@QAE@XZ ; ATL::CSimpleStringT<char,0>::~CSimpleStringT<char,0>
__unwindfunclet$?FormatV@?$CStringT@DV?$StrTraitMFC@DV?$ChTraitsCRT@D@ATL@@@@@ATL@@QAEXPBDPAD@Z$0:
  00008	8d 4d 08	 lea	 ecx, DWORD PTR _temp$[ebp]
  0000b	e9 00 00 00 00	 jmp	 ??1?$CStringT@DV?$StrTraitMFC@DV?$ChTraitsCRT@D@ATL@@@@@ATL@@QAE@XZ ; ATL::CStringT<char,StrTraitMFC<char,ATL::ChTraitsCRT<char> > >::~CStringT<char,StrTraitMFC<char,ATL::ChTraitsCRT<char> > >
  00010	cc		 int	 3
  00011	cc		 int	 3
  00012	cc		 int	 3
  00013	cc		 int	 3
  00014	cc		 int	 3
__ehhandler$?FormatV@?$CStringT@DV?$StrTraitMFC@DV?$ChTraitsCRT@D@ATL@@@@@ATL@@QAEXPBDPAD@Z:
  00015	90		 npad	 1
  00016	90		 npad	 1
  00017	8b 54 24 08	 mov	 edx, DWORD PTR [esp+8]
  0001b	8d 42 0c	 lea	 eax, DWORD PTR [edx+12]
  0001e	8b 4a ec	 mov	 ecx, DWORD PTR [edx-20]
  00021	33 c8		 xor	 ecx, eax
  00023	e8 00 00 00 00	 call	 @__security_check_cookie@4
  00028	b8 00 00 00 00	 mov	 eax, OFFSET __ehfuncinfo$?FormatV@?$CStringT@DV?$StrTraitMFC@DV?$ChTraitsCRT@D@ATL@@@@@ATL@@QAEXPBDPAD@Z
  0002d	e9 00 00 00 00	 jmp	 ___CxxFrameHandler3
text$x	ENDS
?FormatV@?$CStringT@DV?$StrTraitMFC@DV?$ChTraitsCRT@D@ATL@@@@@ATL@@QAEXPBDPAD@Z ENDP ; ATL::CStringT<char,StrTraitMFC<char,ATL::ChTraitsCRT<char> > >::FormatV
; Function compile flags: /Ogtp
; File C:\Program Files\Microsoft Visual Studio\2022\Professional\VC\Tools\MSVC\14.44.35207\atlmfc\include\cstringt.h
;	COMDAT ?Format@?$CStringT@DV?$StrTraitMFC@DV?$ChTraitsCRT@D@ATL@@@@@ATL@@QAAXPBDZZ
_TEXT	SEGMENT
_this$ = 8						; size = 4
_pszFormat$ = 12					; size = 4
?Format@?$CStringT@DV?$StrTraitMFC@DV?$ChTraitsCRT@D@ATL@@@@@ATL@@QAAXPBDZZ PROC ; ATL::CStringT<char,StrTraitMFC<char,ATL::ChTraitsCRT<char> > >::Format, COMDAT

; 2745 : {

  00000	55		 push	 ebp
  00001	8b ec		 mov	 ebp, esp

; 2746 : 	ATLASSERT( AtlIsValidString( pszFormat ) );
; 2747 : 
; 2748 : 	va_list argList;
; 2749 : 	va_start( argList, pszFormat );
; 2750 : 	FormatV( pszFormat, argList );

  00003	8b 4d 08	 mov	 ecx, DWORD PTR _this$[ebp]
  00006	8d 45 10	 lea	 eax, DWORD PTR _pszFormat$[ebp+4]
  00009	50		 push	 eax
  0000a	ff 75 0c	 push	 DWORD PTR _pszFormat$[ebp]
  0000d	e8 00 00 00 00	 call	 ?FormatV@?$CStringT@DV?$StrTraitMFC@DV?$ChTraitsCRT@D@ATL@@@@@ATL@@QAEXPBDPAD@Z ; ATL::CStringT<char,StrTraitMFC<char,ATL::ChTraitsCRT<char> > >::FormatV

; 2751 : 	va_end( argList );
; 2752 : }

  00012	5d		 pop	 ebp
  00013	c3		 ret	 0
?Format@?$CStringT@DV?$StrTraitMFC@DV?$ChTraitsCRT@D@ATL@@@@@ATL@@QAAXPBDZZ ENDP ; ATL::CStringT<char,StrTraitMFC<char,ATL::ChTraitsCRT<char> > >::Format
_TEXT	ENDS
; Function compile flags: /Ogtp
; File C:\Program Files\Microsoft Visual Studio\2022\Professional\VC\Tools\MSVC\14.44.35207\atlmfc\include\cstringt.h
; File C:\Program Files\Microsoft Visual Studio\2022\Professional\VC\Tools\MSVC\14.44.35207\atlmfc\include\atlsimpstr.h
; File C:\Program Files\Microsoft Visual Studio\2022\Professional\VC\Tools\MSVC\14.44.35207\atlmfc\include\cstringt.h
;	COMDAT ??1?$CStringT@DV?$StrTraitMFC@DV?$ChTraitsCRT@D@ATL@@@@@ATL@@QAE@XZ
_TEXT	SEGMENT
??1?$CStringT@DV?$StrTraitMFC@DV?$ChTraitsCRT@D@ATL@@@@@ATL@@QAE@XZ PROC ; ATL::CStringT<char,StrTraitMFC<char,ATL::ChTraitsCRT<char> > >::~CStringT<char,StrTraitMFC<char,ATL::ChTraitsCRT<char> > >, COMDAT
; _this$ = ecx
; File C:\Program Files\Microsoft Visual Studio\2022\Professional\VC\Tools\MSVC\14.44.35207\atlmfc\include\atlsimpstr.h

; 804  : 		return( reinterpret_cast< CStringData* >( m_pszData )-1 );

  00000	8b 11		 mov	 edx, DWORD PTR [ecx]

; 92   : 		if( _InterlockedDecrement( &nRefs ) <= 0 )

  00002	83 c8 ff	 or	 eax, -1

; 804  : 		return( reinterpret_cast< CStringData* >( m_pszData )-1 );

  00005	83 ea 10	 sub	 edx, 16			; 00000010H

; 92   : 		if( _InterlockedDecrement( &nRefs ) <= 0 )

  00008	f0 0f c1 42 0c	 lock	  xadd	 DWORD PTR [edx+12], eax
  0000d	48		 dec	 eax
  0000e	85 c0		 test	 eax, eax
  00010	7f 08		 jg	 SHORT $LN8@CStringT

; 93   : 		{
; 94   : 			pStringMgr->Free( this );

  00012	8b 0a		 mov	 ecx, DWORD PTR [edx]
  00014	52		 push	 edx
  00015	8b 01		 mov	 eax, DWORD PTR [ecx]
  00017	ff 50 04	 call	 DWORD PTR [eax+4]
$LN8@CStringT:
; File C:\Program Files\Microsoft Visual Studio\2022\Professional\VC\Tools\MSVC\14.44.35207\atlmfc\include\cstringt.h

; 1303 : 	}

  0001a	c3		 ret	 0
??1?$CStringT@DV?$StrTraitMFC@DV?$ChTraitsCRT@D@ATL@@@@@ATL@@QAE@XZ ENDP ; ATL::CStringT<char,StrTraitMFC<char,ATL::ChTraitsCRT<char> > >::~CStringT<char,StrTraitMFC<char,ATL::ChTraitsCRT<char> > >
_TEXT	ENDS
; Function compile flags: /Ogtp
; File C:\Program Files\Microsoft Visual Studio\2022\Professional\VC\Tools\MSVC\14.44.35207\atlmfc\include\cstringt.h
; File C:\Program Files\Microsoft Visual Studio\2022\Professional\VC\Tools\MSVC\14.44.35207\atlmfc\include\afxstr.h
; File C:\Program Files\Microsoft Visual Studio\2022\Professional\VC\Tools\MSVC\14.44.35207\atlmfc\include\cstringt.h
; File C:\Program Files\Microsoft Visual Studio\2022\Professional\VC\Tools\MSVC\14.44.35207\atlmfc\include\atlsimpstr.h
; File C:\Program Files\Microsoft Visual Studio\2022\Professional\VC\Tools\MSVC\14.44.35207\atlmfc\include\cstringt.h
; File C:\Program Files\Microsoft Visual Studio\2022\Professional\VC\Tools\MSVC\14.44.35207\atlmfc\include\atlsimpstr.h
; File C:\Program Files\Microsoft Visual Studio\2022\Professional\VC\Tools\MSVC\14.44.35207\atlmfc\include\cstringt.h
;	COMDAT ??0?$CStringT@DV?$StrTraitMFC@DV?$ChTraitsCRT@D@ATL@@@@@ATL@@QAE@XZ
_TEXT	SEGMENT
??0?$CStringT@DV?$StrTraitMFC@DV?$ChTraitsCRT@D@ATL@@@@@ATL@@QAE@XZ PROC ; ATL::CStringT<char,StrTraitMFC<char,ATL::ChTraitsCRT<char> > >::CStringT<char,StrTraitMFC<char,ATL::ChTraitsCRT<char> > >, COMDAT
; _this$ = ecx

; 1015 : 	{

  00000	56		 push	 esi
  00001	8b f1		 mov	 esi, ecx
; File C:\Program Files\Microsoft Visual Studio\2022\Professional\VC\Tools\MSVC\14.44.35207\atlmfc\include\afxstr.h

; 56   : 		return( AfxGetStringManager() );

  00003	e8 00 00 00 00	 call	 ?AfxGetStringManager@@YGPAUIAtlStringMgr@ATL@@XZ ; AfxGetStringManager
; File C:\Program Files\Microsoft Visual Studio\2022\Professional\VC\Tools\MSVC\14.44.35207\atlmfc\include\cstringt.h

; 1014 : 		CThisSimpleString( StringTraits::GetDefaultManager() )

  00008	8b c8		 mov	 ecx, eax
; File C:\Program Files\Microsoft Visual Studio\2022\Professional\VC\Tools\MSVC\14.44.35207\atlmfc\include\atlsimpstr.h

; 209  : 		ATLENSURE( pStringMgr != NULL );

  0000a	85 c9		 test	 ecx, ecx
  0000c	74 0e		 je	 SHORT $LN18@CStringT

; 210  : 		CStringData* pData = pStringMgr->GetNilString();

  0000e	8b 01		 mov	 eax, DWORD PTR [ecx]
  00010	ff 50 0c	 call	 DWORD PTR [eax+12]

; 211  : 		Attach( pData );

  00013	83 c0 10	 add	 eax, 16			; 00000010H
  00016	89 06		 mov	 DWORD PTR [esi], eax
; File C:\Program Files\Microsoft Visual Studio\2022\Professional\VC\Tools\MSVC\14.44.35207\atlmfc\include\cstringt.h

; 1016 : 	}

  00018	8b c6		 mov	 eax, esi
  0001a	5e		 pop	 esi
  0001b	c3		 ret	 0
$LN18@CStringT:
; File C:\Program Files\Microsoft Visual Studio\2022\Professional\VC\Tools\MSVC\14.44.35207\atlmfc\include\atlsimpstr.h

; 209  : 		ATLENSURE( pStringMgr != NULL );

  0001c	68 05 40 00 80	 push	 -2147467259		; 80004005H
  00021	e8 00 00 00 00	 call	 ?AtlThrowImpl@ATL@@YGXJ@Z ; ATL::AtlThrowImpl
$LN16@CStringT:
  00026	cc		 int	 3
??0?$CStringT@DV?$StrTraitMFC@DV?$ChTraitsCRT@D@ATL@@@@@ATL@@QAE@XZ ENDP ; ATL::CStringT<char,StrTraitMFC<char,ATL::ChTraitsCRT<char> > >::CStringT<char,StrTraitMFC<char,ATL::ChTraitsCRT<char> > >
_TEXT	ENDS
; Function compile flags: /Ogtp
; File C:\Program Files\Microsoft Visual Studio\2022\Professional\VC\Tools\MSVC\14.44.35207\atlmfc\include\atlsimpstr.h
;	COMDAT ?Reallocate@?$CSimpleStringT@D$0A@@ATL@@AAEXH@Z
_TEXT	SEGMENT
_nLength$ = 8						; size = 4
?Reallocate@?$CSimpleStringT@D$0A@@ATL@@AAEXH@Z PROC	; ATL::CSimpleStringT<char,0>::Reallocate, COMDAT
; _this$ = ecx

; 853  : 	{

  00000	55		 push	 ebp
  00001	8b ec		 mov	 ebp, esp
  00003	56		 push	 esi

; 854  : 		CStringData* pOldData = GetData();
; 855  : 		ATLASSERT( pOldData->nAllocLength < nLength );
; 856  : 		IAtlStringMgr* pStringMgr = pOldData->pStringMgr;
; 857  : 		if ( pOldData->nAllocLength >= nLength || nLength <= 0)

  00004	8b 75 08	 mov	 esi, DWORD PTR _nLength$[ebp]
  00007	57		 push	 edi
  00008	8b f9		 mov	 edi, ecx

; 804  : 		return( reinterpret_cast< CStringData* >( m_pszData )-1 );

  0000a	8b 17		 mov	 edx, DWORD PTR [edi]
  0000c	83 ea 10	 sub	 edx, 16			; 00000010H

; 854  : 		CStringData* pOldData = GetData();
; 855  : 		ATLASSERT( pOldData->nAllocLength < nLength );
; 856  : 		IAtlStringMgr* pStringMgr = pOldData->pStringMgr;
; 857  : 		if ( pOldData->nAllocLength >= nLength || nLength <= 0)

  0000f	39 72 08	 cmp	 DWORD PTR [edx+8], esi
  00012	7d 1e		 jge	 SHORT $LN3@Reallocate
  00014	85 f6		 test	 esi, esi
  00016	7e 1a		 jle	 SHORT $LN3@Reallocate

; 860  : 			return;
; 861  : 		}
; 862  : 		CStringData* pNewData = pStringMgr->Reallocate( pOldData, nLength, sizeof( XCHAR ) );

  00018	8b 0a		 mov	 ecx, DWORD PTR [edx]
  0001a	6a 01		 push	 1
  0001c	56		 push	 esi
  0001d	52		 push	 edx
  0001e	8b 01		 mov	 eax, DWORD PTR [ecx]
  00020	ff 50 08	 call	 DWORD PTR [eax+8]

; 863  : 		if( pNewData == NULL )

  00023	85 c0		 test	 eax, eax
  00025	74 0b		 je	 SHORT $LN3@Reallocate

; 864  : 		{
; 865  : 			ThrowMemoryException();
; 866  : 		}
; 867  : 		Attach( pNewData );

  00027	83 c0 10	 add	 eax, 16			; 00000010H
  0002a	89 07		 mov	 DWORD PTR [edi], eax
  0002c	5f		 pop	 edi
  0002d	5e		 pop	 esi

; 868  : 	}

  0002e	5d		 pop	 ebp
  0002f	c2 04 00	 ret	 4
$LN3@Reallocate:

; 858  : 		{
; 859  : 			ThrowMemoryException();

  00032	e8 00 00 00 00	 call	 ?ThrowMemoryException@?$CSimpleStringT@D$0A@@ATL@@KAXXZ ; ATL::CSimpleStringT<char,0>::ThrowMemoryException
$LN12@Reallocate:
  00037	cc		 int	 3
?Reallocate@?$CSimpleStringT@D$0A@@ATL@@AAEXH@Z ENDP	; ATL::CSimpleStringT<char,0>::Reallocate
_TEXT	ENDS
; Function compile flags: /Ogtp
; File C:\Program Files\Microsoft Visual Studio\2022\Professional\VC\Tools\MSVC\14.44.35207\atlmfc\include\atlsimpstr.h
;	COMDAT ?PrepareWrite2@?$CSimpleStringT@D$0A@@ATL@@AAEXH@Z
_TEXT	SEGMENT
_nLength$ = 8						; size = 4
?PrepareWrite2@?$CSimpleStringT@D$0A@@ATL@@AAEXH@Z PROC	; ATL::CSimpleStringT<char,0>::PrepareWrite2, COMDAT
; _this$ = ecx

; 822  : 	{

  00000	55		 push	 ebp
  00001	8b ec		 mov	 ebp, esp
  00003	56		 push	 esi

; 823  : 		CStringData* pOldData = GetData();
; 824  : 		if( pOldData->nDataLength > nLength )

  00004	8b 75 08	 mov	 esi, DWORD PTR _nLength$[ebp]
  00007	57		 push	 edi
  00008	8b f9		 mov	 edi, ecx

; 804  : 		return( reinterpret_cast< CStringData* >( m_pszData )-1 );

  0000a	8b 0f		 mov	 ecx, DWORD PTR [edi]

; 823  : 		CStringData* pOldData = GetData();
; 824  : 		if( pOldData->nDataLength > nLength )

  0000c	39 71 f4	 cmp	 DWORD PTR [ecx-12], esi
  0000f	0f 4f 71 f4	 cmovg	 esi, DWORD PTR [ecx-12]

; 77   : 		return( nRefs > 1 );

  00013	83 79 fc 01	 cmp	 DWORD PTR [ecx-4], 1

; 825  : 		{
; 826  : 			nLength = pOldData->nDataLength;
; 827  : 		}
; 828  : 		if( pOldData->IsShared() )

  00017	7e 0e		 jle	 SHORT $LN3@PrepareWri

; 829  : 		{
; 830  : 			Fork( nLength );

  00019	56		 push	 esi
  0001a	8b cf		 mov	 ecx, edi
  0001c	e8 00 00 00 00	 call	 ?Fork@?$CSimpleStringT@D$0A@@ATL@@AAEXH@Z ; ATL::CSimpleStringT<char,0>::Fork
  00021	5f		 pop	 edi

; 850  : 		}
; 851  : 	}

  00022	5e		 pop	 esi
  00023	5d		 pop	 ebp
  00024	c2 04 00	 ret	 4
$LN3@PrepareWri:

; 831  : 		}
; 832  : 		else if( pOldData->nAllocLength < nLength )

  00027	8b 49 f8	 mov	 ecx, DWORD PTR [ecx-8]
  0002a	3b ce		 cmp	 ecx, esi
  0002c	7d 25		 jge	 SHORT $LN5@PrepareWri

; 833  : 		{
; 834  : 			// Grow exponentially, until we hit 1G, then by 1M thereafter.
; 835  : 			int nNewLength = pOldData->nAllocLength;
; 836  : 			if( nNewLength > 1024 * 1024 * 1024 )

  0002e	81 f9 00 00 00
	40		 cmp	 ecx, 1073741824		; 40000000H
  00034	7e 07		 jle	 SHORT $LN6@PrepareWri

; 837  : 			{
; 838  : 				nNewLength += 1024 * 1024;

  00036	b8 00 00 10 00	 mov	 eax, 1048576		; 00100000H

; 839  : 			}

  0003b	eb 07		 jmp	 SHORT $LN7@PrepareWri
$LN6@PrepareWri:

; 840  : 			else
; 841  : 			{
; 842  : 				// Exponential growth factor is 1.5.
; 843  : 				nNewLength = nNewLength + nNewLength / 2;

  0003d	8b c1		 mov	 eax, ecx
  0003f	99		 cdq
  00040	2b c2		 sub	 eax, edx
  00042	d1 f8		 sar	 eax, 1
$LN7@PrepareWri:

; 844  : 			}
; 845  : 			if( nNewLength < nLength )

  00044	03 c1		 add	 eax, ecx

; 846  : 			{
; 847  : 				nNewLength = nLength;
; 848  : 			}
; 849  : 			Reallocate( nNewLength );

  00046	8b cf		 mov	 ecx, edi
  00048	3b c6		 cmp	 eax, esi
  0004a	0f 4d f0	 cmovge	 esi, eax
  0004d	56		 push	 esi
  0004e	e8 00 00 00 00	 call	 ?Reallocate@?$CSimpleStringT@D$0A@@ATL@@AAEXH@Z ; ATL::CSimpleStringT<char,0>::Reallocate
$LN5@PrepareWri:

; 850  : 		}
; 851  : 	}

  00053	5f		 pop	 edi
  00054	5e		 pop	 esi
  00055	5d		 pop	 ebp
  00056	c2 04 00	 ret	 4
?PrepareWrite2@?$CSimpleStringT@D$0A@@ATL@@AAEXH@Z ENDP	; ATL::CSimpleStringT<char,0>::PrepareWrite2
_TEXT	ENDS
; Function compile flags: /Ogtp
; File C:\Program Files\Microsoft Visual Studio\2022\Professional\VC\Tools\MSVC\14.44.35207\atlmfc\include\atlsimpstr.h
; File C:\Program Files (x86)\Windows Kits\10\Include\10.0.26100.0\ucrt\corecrt_memcpy_s.h
; File C:\Program Files\Microsoft Visual Studio\2022\Professional\VC\Tools\MSVC\14.44.35207\atlmfc\include\atlsimpstr.h
;	COMDAT ?Fork@?$CSimpleStringT@D$0A@@ATL@@AAEXH@Z
_TEXT	SEGMENT
_this$1$ = -12						; size = 4
_nOldLength$1$ = -8					; size = 4
__Source$1$ = -4					; size = 4
_nLength$ = 8						; size = 4
_pNewData$1$ = 8					; size = 4
?Fork@?$CSimpleStringT@D$0A@@ATL@@AAEXH@Z PROC		; ATL::CSimpleStringT<char,0>::Fork, COMDAT
; _this$ = ecx

; 787  : 	{

  00000	55		 push	 ebp
  00001	8b ec		 mov	 ebp, esp
  00003	83 ec 0c	 sub	 esp, 12			; 0000000cH
  00006	8b c1		 mov	 eax, ecx
  00008	89 45 f4	 mov	 DWORD PTR _this$1$[ebp], eax
  0000b	53		 push	 ebx
  0000c	56		 push	 esi

; 804  : 		return( reinterpret_cast< CStringData* >( m_pszData )-1 );

  0000d	8b 00		 mov	 eax, DWORD PTR [eax]

; 790  : 		CStringData* pNewData = pOldData->pStringMgr->Clone()->Allocate( nLength, sizeof( XCHAR ) );

  0000f	8b 48 f0	 mov	 ecx, DWORD PTR [eax-16]

; 804  : 		return( reinterpret_cast< CStringData* >( m_pszData )-1 );

  00012	8d 58 f0	 lea	 ebx, DWORD PTR [eax-16]
  00015	89 45 fc	 mov	 DWORD PTR __Source$1$[ebp], eax

; 787  : 	{

  00018	57		 push	 edi

; 788  : 		CStringData* pOldData = GetData();
; 789  : 		int nOldLength = pOldData->nDataLength;

  00019	8b 7b 04	 mov	 edi, DWORD PTR [ebx+4]

; 790  : 		CStringData* pNewData = pOldData->pStringMgr->Clone()->Allocate( nLength, sizeof( XCHAR ) );

  0001c	8b 01		 mov	 eax, DWORD PTR [ecx]
  0001e	89 7d f8	 mov	 DWORD PTR _nOldLength$1$[ebp], edi
  00021	ff 50 10	 call	 DWORD PTR [eax+16]
  00024	8b 75 08	 mov	 esi, DWORD PTR _nLength$[ebp]
  00027	8b c8		 mov	 ecx, eax
  00029	6a 01		 push	 1
  0002b	56		 push	 esi
  0002c	8b 10		 mov	 edx, DWORD PTR [eax]
  0002e	ff 12		 call	 DWORD PTR [edx]
  00030	89 45 08	 mov	 DWORD PTR _pNewData$1$[ebp], eax

; 791  : 		if( pNewData == NULL )

  00033	85 c0		 test	 eax, eax
  00035	74 6c		 je	 SHORT $LN25@Fork

; 794  : 		}
; 795  : 		int nCharsToCopy = ((nOldLength < nLength) ? nOldLength : nLength)+1;  // Copy '\0'

  00037	3b fe		 cmp	 edi, esi
  00039	0f 4c f7	 cmovl	 esi, edi

; 796  : 		memcpy_s( PXSTR( pNewData->data() ), nCharsToCopy * sizeof( XCHAR ),

  0003c	8d 78 10	 lea	 edi, DWORD PTR [eax+16]
  0003f	83 c6 01	 add	 esi, 1
; File C:\Program Files (x86)\Windows Kits\10\Include\10.0.26100.0\ucrt\corecrt_memcpy_s.h

; 47   :         if (_SourceSize == 0)

  00042	74 33		 je	 SHORT $LN11@Fork

; 48   :         {
; 49   :             return 0;
; 50   :         }
; 51   : 
; 52   :         _CRT_MEMCPY_S_VALIDATE_RETURN_ERRCODE(_Destination != NULL, EINVAL);

  00044	85 ff		 test	 edi, edi
  00046	74 1f		 je	 SHORT $LN23@Fork

; 53   :         if (_Source == NULL || _DestinationSize < _SourceSize)

  00048	8b 45 fc	 mov	 eax, DWORD PTR __Source$1$[ebp]
  0004b	56		 push	 esi
  0004c	85 c0		 test	 eax, eax
  0004e	74 0c		 je	 SHORT $LN10@Fork

; 56   : 
; 57   :             _CRT_MEMCPY_S_VALIDATE_RETURN_ERRCODE(_Source != NULL,                 EINVAL);
; 58   :             _CRT_MEMCPY_S_VALIDATE_RETURN_ERRCODE(_DestinationSize >= _SourceSize, ERANGE);
; 59   : 
; 60   :             // Unreachable, but required to suppress /analyze warnings:
; 61   :             return EINVAL;
; 62   :         }
; 63   :         memcpy(_Destination, _Source, _SourceSize);

  00050	50		 push	 eax
  00051	57		 push	 edi
  00052	e8 00 00 00 00	 call	 _memcpy
  00057	83 c4 0c	 add	 esp, 12			; 0000000cH
  0005a	eb 1b		 jmp	 SHORT $LN11@Fork
$LN10@Fork:

; 54   :         {
; 55   :             memset(_Destination, 0, _DestinationSize);

  0005c	6a 00		 push	 0
  0005e	57		 push	 edi
  0005f	e8 00 00 00 00	 call	 _memset
  00064	83 c4 0c	 add	 esp, 12			; 0000000cH
$LN23@Fork:
; File C:\Program Files\Microsoft Visual Studio\2022\Professional\VC\Tools\MSVC\14.44.35207\atlmfc\include\atlsimpstr.h

; 798  : 		pNewData->nDataLength = nOldLength;

  00067	e8 00 00 00 00	 call	 __errno
  0006c	c7 00 16 00 00
	00		 mov	 DWORD PTR [eax], 22	; 00000016H
  00072	e8 00 00 00 00	 call	 __invalid_parameter_noinfo
$LN11@Fork:
  00077	8b 4d 08	 mov	 ecx, DWORD PTR _pNewData$1$[ebp]
  0007a	8b 45 f8	 mov	 eax, DWORD PTR _nOldLength$1$[ebp]
  0007d	89 41 04	 mov	 DWORD PTR [ecx+4], eax

; 92   : 		if( _InterlockedDecrement( &nRefs ) <= 0 )

  00080	83 c8 ff	 or	 eax, -1
  00083	f0 0f c1 43 0c	 lock	  xadd	 DWORD PTR [ebx+12], eax
  00088	48		 dec	 eax
  00089	85 c0		 test	 eax, eax
  0008b	7f 08		 jg	 SHORT $LN15@Fork

; 93   : 		{
; 94   : 			pStringMgr->Free( this );

  0008d	8b 0b		 mov	 ecx, DWORD PTR [ebx]
  0008f	53		 push	 ebx
  00090	8b 01		 mov	 eax, DWORD PTR [ecx]
  00092	ff 50 04	 call	 DWORD PTR [eax+4]
$LN15@Fork:

; 799  : 		pOldData->Release();
; 800  : 		Attach( pNewData );

  00095	8b 45 f4	 mov	 eax, DWORD PTR _this$1$[ebp]
  00098	89 38		 mov	 DWORD PTR [eax], edi

; 801  : 	}

  0009a	5f		 pop	 edi
  0009b	5e		 pop	 esi
  0009c	5b		 pop	 ebx
  0009d	8b e5		 mov	 esp, ebp
  0009f	5d		 pop	 ebp
  000a0	c2 04 00	 ret	 4
$LN25@Fork:

; 792  : 		{
; 793  : 			ThrowMemoryException();

  000a3	e8 00 00 00 00	 call	 ?ThrowMemoryException@?$CSimpleStringT@D$0A@@ATL@@KAXXZ ; ATL::CSimpleStringT<char,0>::ThrowMemoryException
$LN22@Fork:
  000a8	cc		 int	 3
?Fork@?$CSimpleStringT@D$0A@@ATL@@AAEXH@Z ENDP		; ATL::CSimpleStringT<char,0>::Fork
_TEXT	ENDS
; Function compile flags: /Ogtp
; File C:\Program Files\Microsoft Visual Studio\2022\Professional\VC\Tools\MSVC\14.44.35207\atlmfc\include\atlsimpstr.h
;	COMDAT ?ThrowMemoryException@?$CSimpleStringT@D$0A@@ATL@@KAXXZ
_TEXT	SEGMENT
?ThrowMemoryException@?$CSimpleStringT@D$0A@@ATL@@KAXXZ PROC ; ATL::CSimpleStringT<char,0>::ThrowMemoryException, COMDAT

; 777  : 		AtlThrow( E_OUTOFMEMORY );

  00000	68 0e 00 07 80	 push	 -2147024882		; 8007000eH
  00005	e8 00 00 00 00	 call	 ?AtlThrowImpl@ATL@@YGXJ@Z ; ATL::AtlThrowImpl
$LN3@ThrowMemor:
  0000a	cc		 int	 3
?ThrowMemoryException@?$CSimpleStringT@D$0A@@ATL@@KAXXZ ENDP ; ATL::CSimpleStringT<char,0>::ThrowMemoryException
_TEXT	ENDS
; Function compile flags: /Ogtp
; File C:\Program Files\Microsoft Visual Studio\2022\Professional\VC\Tools\MSVC\14.44.35207\atlmfc\include\atlsimpstr.h
; File C:\Program Files (x86)\Windows Kits\10\Include\10.0.26100.0\ucrt\corecrt_memcpy_s.h
; File C:\Program Files\Microsoft Visual Studio\2022\Professional\VC\Tools\MSVC\14.44.35207\atlmfc\include\atlsimpstr.h
; File C:\Program Files (x86)\Windows Kits\10\Include\10.0.26100.0\ucrt\corecrt_memcpy_s.h
; File C:\Program Files\Microsoft Visual Studio\2022\Professional\VC\Tools\MSVC\14.44.35207\atlmfc\include\atlsimpstr.h
;	COMDAT ?SetString@?$CSimpleStringT@D$0A@@ATL@@QAEXPBDH@Z
_TEXT	SEGMENT
_pszSrc$ = 8						; size = 4
_nOldLength$1$ = 8					; size = 4
_nLength$ = 12						; size = 4
_nOffset$1$ = 12					; size = 4
?SetString@?$CSimpleStringT@D$0A@@ATL@@QAEXPBDH@Z PROC	; ATL::CSimpleStringT<char,0>::SetString, COMDAT
; _this$ = ecx

; 611  : 	{

  00000	55		 push	 ebp
  00001	8b ec		 mov	 ebp, esp
  00003	56		 push	 esi

; 612  : 		if( nLength == 0 )

  00004	8b 75 0c	 mov	 esi, DWORD PTR _nLength$[ebp]
  00007	57		 push	 edi
  00008	8b f9		 mov	 edi, ecx
  0000a	85 f6		 test	 esi, esi
  0000c	75 58		 jne	 SHORT $LN2@SetString

; 804  : 		return( reinterpret_cast< CStringData* >( m_pszData )-1 );

  0000e	8b 07		 mov	 eax, DWORD PTR [edi]

; 443  : 		if( pOldData->nDataLength == 0 )

  00010	83 78 f4 00	 cmp	 DWORD PTR [eax-12], 0

; 804  : 		return( reinterpret_cast< CStringData* >( m_pszData )-1 );

  00014	8d 50 f0	 lea	 edx, DWORD PTR [eax-16]

; 442  : 		IAtlStringMgr* pStringMgr = pOldData->pStringMgr;

  00017	8b 32		 mov	 esi, DWORD PTR [edx]

; 443  : 		if( pOldData->nDataLength == 0 )

  00019	74 1f		 je	 SHORT $LN72@SetString

; 73   : 		return nRefs < 0;

  0001b	83 7a 0c 00	 cmp	 DWORD PTR [edx+12], 0
  0001f	8d 4a 0c	 lea	 ecx, DWORD PTR [edx+12]

; 448  : 		if( pOldData->IsLocked() )

  00022	7d 1c		 jge	 SHORT $LN10@SetString

; 875  : 		if( nLength < 0 || nLength > GetData()->nAllocLength)

  00024	83 78 f8 00	 cmp	 DWORD PTR [eax-8], 0
  00028	0f 8c 0b 01 00
	00		 jl	 $LN71@SetString

; 877  : 
; 878  : 		GetData()->nDataLength = nLength;

  0002e	c7 40 f4 00 00
	00 00		 mov	 DWORD PTR [eax-12], 0

; 879  : 		m_pszData[nLength] = 0;

  00035	8b 07		 mov	 eax, DWORD PTR [edi]
  00037	c6 00 00	 mov	 BYTE PTR [eax], 0
$LN72@SetString:
  0003a	5f		 pop	 edi

; 638  : 			else
; 639  : 			{
; 640  : 				memcpy_s( pszBuffer, GetAllocLength() * sizeof( XCHAR ), pszSrc, nLength * sizeof( XCHAR ));
; 641  : 			}
; 642  : 			ReleaseBufferSetLength( nLength );
; 643  : 		}
; 644  : 	}

  0003b	5e		 pop	 esi
  0003c	5d		 pop	 ebp
  0003d	c2 08 00	 ret	 8
$LN10@SetString:

; 92   : 		if( _InterlockedDecrement( &nRefs ) <= 0 )

  00040	83 c8 ff	 or	 eax, -1
  00043	f0 0f c1 01	 lock	  xadd	 DWORD PTR [ecx], eax
  00047	48		 dec	 eax
  00048	85 c0		 test	 eax, eax
  0004a	7f 08		 jg	 SHORT $LN27@SetString

; 93   : 		{
; 94   : 			pStringMgr->Free( this );

  0004c	8b 0a		 mov	 ecx, DWORD PTR [edx]
  0004e	52		 push	 edx
  0004f	8b 01		 mov	 eax, DWORD PTR [ecx]
  00051	ff 50 04	 call	 DWORD PTR [eax+4]
$LN27@SetString:

; 456  : 			CStringData* pNewData = pStringMgr->GetNilString();

  00054	8b 06		 mov	 eax, DWORD PTR [esi]
  00056	8b ce		 mov	 ecx, esi
  00058	ff 50 0c	 call	 DWORD PTR [eax+12]

; 457  : 			Attach( pNewData );

  0005b	83 c0 10	 add	 eax, 16			; 00000010H
  0005e	89 07		 mov	 DWORD PTR [edi], eax
  00060	5f		 pop	 edi

; 638  : 			else
; 639  : 			{
; 640  : 				memcpy_s( pszBuffer, GetAllocLength() * sizeof( XCHAR ), pszSrc, nLength * sizeof( XCHAR ));
; 641  : 			}
; 642  : 			ReleaseBufferSetLength( nLength );
; 643  : 		}
; 644  : 	}

  00061	5e		 pop	 esi
  00062	5d		 pop	 ebp
  00063	c2 08 00	 ret	 8
$LN2@SetString:
  00066	53		 push	 ebx

; 613  : 		{
; 614  : 			Empty();
; 615  : 		}
; 616  : 		else
; 617  : 		{
; 618  : 			// It is possible that pszSrc points to a location inside of our
; 619  : 			// buffer.  GetBuffer() might change m_pszData if (1) the buffer
; 620  : 			// is shared or (2) the buffer is too small to hold the new
; 621  : 			// string.  We detect this aliasing, and modify pszSrc to point
; 622  : 			// into the newly allocated buffer instead.
; 623  : 
; 624  : 			if(pszSrc == NULL)

  00067	8b 5d 08	 mov	 ebx, DWORD PTR _pszSrc$[ebp]
  0006a	85 db		 test	 ebx, ebx
  0006c	0f 84 c7 00 00
	00		 je	 $LN71@SetString

; 523  : 		return( GetData()->nDataLength );

  00072	8b 07		 mov	 eax, DWORD PTR [edi]

; 625  : 				AtlThrow(E_INVALIDARG);
; 626  : 
; 627  : 			UINT nOldLength = GetLength();
; 628  : 			UINT_PTR nOffset = pszSrc-GetString();

  00074	8b d3		 mov	 edx, ebx
  00076	2b d0		 sub	 edx, eax
  00078	89 55 0c	 mov	 DWORD PTR _nOffset$1$[ebp], edx
  0007b	8b 48 f4	 mov	 ecx, DWORD PTR [eax-12]
  0007e	89 4d 08	 mov	 DWORD PTR _nOldLength$1$[ebp], ecx

; 808  : 		if (nLength < 0)

  00081	85 f6		 test	 esi, esi
  00083	0f 88 b0 00 00
	00		 js	 $LN71@SetString

; 809  : 			AtlThrow(E_INVALIDARG);
; 810  : 
; 811  : 		CStringData* pOldData = GetData();
; 812  : 		int nShared = 1-pOldData->nRefs;  // nShared < 0 means true, >= 0 means false

  00089	b9 01 00 00 00	 mov	 ecx, 1
  0008e	2b 48 fc	 sub	 ecx, DWORD PTR [eax-4]

; 813  : 		int nTooShort = pOldData->nAllocLength-nLength;  // nTooShort < 0 means true, >= 0 means false

  00091	8b 40 f8	 mov	 eax, DWORD PTR [eax-8]
  00094	2b c6		 sub	 eax, esi

; 814  : 		if( (nShared|nTooShort) < 0 )  // If either sign bit is set (i.e. either is less than zero), we need to copy data

  00096	0b c8		 or	 ecx, eax
  00098	7d 0b		 jge	 SHORT $LN38@SetString

; 815  : 		{
; 816  : 			PrepareWrite2( nLength );

  0009a	56		 push	 esi
  0009b	8b cf		 mov	 ecx, edi
  0009d	e8 00 00 00 00	 call	 ?PrepareWrite2@?$CSimpleStringT@D$0A@@ATL@@AAEXH@Z ; ATL::CSimpleStringT<char,0>::PrepareWrite2
  000a2	8b 55 0c	 mov	 edx, DWORD PTR _nOffset$1$[ebp]
$LN38@SetString:

; 629  : 			// If 0 <= nOffset <= nOldLength, then pszSrc points into our
; 630  : 			// buffer
; 631  : 
; 632  : 			PXSTR pszBuffer = GetBuffer( nLength );

  000a5	8b 07		 mov	 eax, DWORD PTR [edi]
  000a7	8b 48 f8	 mov	 ecx, DWORD PTR [eax-8]

; 633  : 			if( nOffset <= nOldLength )

  000aa	3b 55 08	 cmp	 edx, DWORD PTR _nOldLength$1$[ebp]
  000ad	77 35		 ja	 SHORT $LN5@SetString

; 634  : 			{
; 635  : 				CopyCharsOverlapped( pszBuffer, GetAllocLength(),

  000af	03 d0		 add	 edx, eax
; File C:\Program Files (x86)\Windows Kits\10\Include\10.0.26100.0\ucrt\corecrt_memcpy_s.h

; 81   :         _CRT_MEMCPY_S_VALIDATE_RETURN_ERRCODE(_Destination != NULL,            EINVAL);

  000b1	85 c0		 test	 eax, eax
  000b3	75 0d		 jne	 SHORT $LN51@SetString
  000b5	e8 00 00 00 00	 call	 __errno
  000ba	c7 00 16 00 00
	00		 mov	 DWORD PTR [eax], 22	; 00000016H
  000c0	eb 5b		 jmp	 SHORT $LN97@SetString
$LN51@SetString:

; 82   :         _CRT_MEMCPY_S_VALIDATE_RETURN_ERRCODE(_Source != NULL,                 EINVAL);

  000c2	85 d2		 test	 edx, edx
  000c4	75 0d		 jne	 SHORT $LN52@SetString
  000c6	e8 00 00 00 00	 call	 __errno
  000cb	c7 00 16 00 00
	00		 mov	 DWORD PTR [eax], 22	; 00000016H
  000d1	eb 4a		 jmp	 SHORT $LN97@SetString
$LN52@SetString:

; 83   :         _CRT_MEMCPY_S_VALIDATE_RETURN_ERRCODE(_DestinationSize >= _SourceSize, ERANGE);

  000d3	3b ce		 cmp	 ecx, esi
  000d5	72 3b		 jb	 SHORT $LN98@SetString

; 84   : 
; 85   :         memmove(_Destination, _Source, _SourceSize);

  000d7	56		 push	 esi
  000d8	52		 push	 edx
  000d9	50		 push	 eax
  000da	e8 00 00 00 00	 call	 _memmove
  000df	83 c4 0c	 add	 esp, 12			; 0000000cH
; File C:\Program Files\Microsoft Visual Studio\2022\Professional\VC\Tools\MSVC\14.44.35207\atlmfc\include\atlsimpstr.h

; 637  : 			}

  000e2	eb 3e		 jmp	 SHORT $LN65@SetString
$LN5@SetString:
; File C:\Program Files (x86)\Windows Kits\10\Include\10.0.26100.0\ucrt\corecrt_memcpy_s.h

; 52   :         _CRT_MEMCPY_S_VALIDATE_RETURN_ERRCODE(_Destination != NULL, EINVAL);

  000e4	85 c0		 test	 eax, eax
  000e6	75 0d		 jne	 SHORT $LN61@SetString
  000e8	e8 00 00 00 00	 call	 __errno
  000ed	c7 00 16 00 00
	00		 mov	 DWORD PTR [eax], 22	; 00000016H
  000f3	eb 28		 jmp	 SHORT $LN97@SetString
$LN61@SetString:

; 53   :         if (_Source == NULL || _DestinationSize < _SourceSize)

  000f5	3b ce		 cmp	 ecx, esi
  000f7	72 0d		 jb	 SHORT $LN63@SetString

; 56   : 
; 57   :             _CRT_MEMCPY_S_VALIDATE_RETURN_ERRCODE(_Source != NULL,                 EINVAL);
; 58   :             _CRT_MEMCPY_S_VALIDATE_RETURN_ERRCODE(_DestinationSize >= _SourceSize, ERANGE);
; 59   : 
; 60   :             // Unreachable, but required to suppress /analyze warnings:
; 61   :             return EINVAL;
; 62   :         }
; 63   :         memcpy(_Destination, _Source, _SourceSize);

  000f9	56		 push	 esi
  000fa	53		 push	 ebx
  000fb	50		 push	 eax
  000fc	e8 00 00 00 00	 call	 _memcpy
  00101	83 c4 0c	 add	 esp, 12			; 0000000cH
  00104	eb 1c		 jmp	 SHORT $LN65@SetString
$LN63@SetString:

; 54   :         {
; 55   :             memset(_Destination, 0, _DestinationSize);

  00106	51		 push	 ecx
  00107	6a 00		 push	 0
  00109	50		 push	 eax
  0010a	e8 00 00 00 00	 call	 _memset
  0010f	83 c4 0c	 add	 esp, 12			; 0000000cH
$LN98@SetString:
; File C:\Program Files\Microsoft Visual Studio\2022\Professional\VC\Tools\MSVC\14.44.35207\atlmfc\include\atlsimpstr.h

; 875  : 		if( nLength < 0 || nLength > GetData()->nAllocLength)

  00112	e8 00 00 00 00	 call	 __errno
  00117	c7 00 22 00 00
	00		 mov	 DWORD PTR [eax], 34	; 00000022H
$LN97@SetString:
  0011d	e8 00 00 00 00	 call	 __invalid_parameter_noinfo
$LN65@SetString:
  00122	8b 07		 mov	 eax, DWORD PTR [edi]
  00124	5b		 pop	 ebx
  00125	3b 70 f8	 cmp	 esi, DWORD PTR [eax-8]
  00128	7f 0f		 jg	 SHORT $LN71@SetString

; 877  : 
; 878  : 		GetData()->nDataLength = nLength;

  0012a	89 70 f4	 mov	 DWORD PTR [eax-12], esi

; 879  : 		m_pszData[nLength] = 0;

  0012d	8b 07		 mov	 eax, DWORD PTR [edi]
  0012f	5f		 pop	 edi
  00130	c6 04 06 00	 mov	 BYTE PTR [esi+eax], 0

; 638  : 			else
; 639  : 			{
; 640  : 				memcpy_s( pszBuffer, GetAllocLength() * sizeof( XCHAR ), pszSrc, nLength * sizeof( XCHAR ));
; 641  : 			}
; 642  : 			ReleaseBufferSetLength( nLength );
; 643  : 		}
; 644  : 	}

  00134	5e		 pop	 esi
  00135	5d		 pop	 ebp
  00136	c2 08 00	 ret	 8
$LN71@SetString:

; 876  : 			AtlThrow(E_INVALIDARG);

  00139	68 57 00 07 80	 push	 -2147024809		; 80070057H
  0013e	e8 00 00 00 00	 call	 ?AtlThrowImpl@ATL@@YGXJ@Z ; ATL::AtlThrowImpl
$LN96@SetString:
  00143	cc		 int	 3
?SetString@?$CSimpleStringT@D$0A@@ATL@@QAEXPBDH@Z ENDP	; ATL::CSimpleStringT<char,0>::SetString
_TEXT	ENDS
; Function compile flags: /Ogtp
; File C:\Program Files\Microsoft Visual Studio\2022\Professional\VC\Tools\MSVC\14.44.35207\atlmfc\include\atlsimpstr.h
;	COMDAT ??1?$CSimpleStringT@D$0A@@ATL@@QAE@XZ
_TEXT	SEGMENT
??1?$CSimpleStringT@D$0A@@ATL@@QAE@XZ PROC		; ATL::CSimpleStringT<char,0>::~CSimpleStringT<char,0>, COMDAT
; _this$ = ecx

; 804  : 		return( reinterpret_cast< CStringData* >( m_pszData )-1 );

  00000	8b 11		 mov	 edx, DWORD PTR [ecx]

; 92   : 		if( _InterlockedDecrement( &nRefs ) <= 0 )

  00002	83 c8 ff	 or	 eax, -1

; 804  : 		return( reinterpret_cast< CStringData* >( m_pszData )-1 );

  00005	83 ea 10	 sub	 edx, 16			; 00000010H

; 92   : 		if( _InterlockedDecrement( &nRefs ) <= 0 )

  00008	f0 0f c1 42 0c	 lock	  xadd	 DWORD PTR [edx+12], eax
  0000d	48		 dec	 eax
  0000e	85 c0		 test	 eax, eax
  00010	7f 08		 jg	 SHORT $LN6@CSimpleStr

; 93   : 		{
; 94   : 			pStringMgr->Free( this );

  00012	8b 0a		 mov	 ecx, DWORD PTR [edx]
  00014	52		 push	 edx
  00015	8b 01		 mov	 eax, DWORD PTR [ecx]
  00017	ff 50 04	 call	 DWORD PTR [eax+4]
$LN6@CSimpleStr:

; 265  : 		CStringData* pData = GetData();
; 266  : 		pData->Release();
; 267  : 	}

  0001a	c3		 ret	 0
??1?$CSimpleStringT@D$0A@@ATL@@QAE@XZ ENDP		; ATL::CSimpleStringT<char,0>::~CSimpleStringT<char,0>
_TEXT	ENDS
; Function compile flags: /Ogtp
; File C:\Program Files\Microsoft Visual Studio\2022\Professional\VC\Tools\MSVC\14.44.35207\atlmfc\include\atlexcept.h
;	COMDAT ?AtlThrowImpl@ATL@@YGXJ@Z
_TEXT	SEGMENT
_hr$ = 8						; size = 4
?AtlThrowImpl@ATL@@YGXJ@Z PROC				; ATL::AtlThrowImpl, COMDAT

; 69   : {

  00000	55		 push	 ebp
  00001	8b ec		 mov	 ebp, esp

; 70   : 	ATLTRACE(atlTraceException, 0, _T("AtlThrow: hr = 0x%x\n"), hr );
; 71   : #ifdef _AFX
; 72   : 	if( hr == E_OUTOFMEMORY )

  00003	8b 45 08	 mov	 eax, DWORD PTR _hr$[ebp]
  00006	3d 0e 00 07 80	 cmp	 eax, -2147024882	; 8007000eH
  0000b	75 05		 jne	 SHORT $LN2@AtlThrowIm

; 73   : 	{
; 74   : 		AfxThrowMemoryException();

  0000d	e8 00 00 00 00	 call	 ?AfxThrowMemoryException@@YGXXZ ; AfxThrowMemoryException
$LN2@AtlThrowIm:

; 75   : 	}
; 76   : 	else
; 77   : 	{
; 78   : 		AfxThrowOleException( hr );

  00012	50		 push	 eax
  00013	e8 00 00 00 00	 call	 ?AfxThrowOleException@@YGXJ@Z ; AfxThrowOleException
$LN5@AtlThrowIm:
  00018	cc		 int	 3
?AtlThrowImpl@ATL@@YGXJ@Z ENDP				; ATL::AtlThrowImpl
_TEXT	ENDS
; Function compile flags: /Ogtp
; File C:\Program Files (x86)\Windows Kits\10\Include\10.0.26100.0\ucrt\stdio.h
;	COMDAT _sscanf
_TEXT	SEGMENT
__Buffer$ = 8						; size = 4
__Format$ = 12						; size = 4
_sscanf	PROC						; COMDAT

; 2247 :     {

  00000	55		 push	 ebp
  00001	8b ec		 mov	 ebp, esp

; 2153 :         return __stdio_common_vsscanf(

  00003	8d 45 10	 lea	 eax, DWORD PTR __Format$[ebp+4]
  00006	50		 push	 eax
  00007	6a 00		 push	 0
  00009	ff 75 0c	 push	 DWORD PTR __Format$[ebp]
  0000c	6a ff		 push	 -1
  0000e	ff 75 08	 push	 DWORD PTR __Buffer$[ebp]
  00011	e8 00 00 00 00	 call	 ___local_stdio_scanf_options
  00016	ff 70 04	 push	 DWORD PTR [eax+4]
  00019	ff 30		 push	 DWORD PTR [eax]
  0001b	e8 00 00 00 00	 call	 ___stdio_common_vsscanf
  00020	83 c4 1c	 add	 esp, 28			; 0000001cH

; 2248 :         int _Result;
; 2249 :         va_list _ArgList;
; 2250 :         __crt_va_start(_ArgList, _Format);
; 2251 :         _Result = _vsscanf_l(_Buffer, _Format, NULL, _ArgList);
; 2252 :         __crt_va_end(_ArgList);
; 2253 :         return _Result;
; 2254 :     }

  00023	5d		 pop	 ebp
  00024	c3		 ret	 0
_sscanf	ENDP
_TEXT	ENDS
; Function compile flags: /Ogtp
; File C:\Program Files (x86)\Windows Kits\10\Include\10.0.26100.0\ucrt\stdio.h
;	COMDAT _printf
_TEXT	SEGMENT
__Format$ = 8						; size = 4
_printf	PROC						; COMDAT

; 956  :     {

  00000	55		 push	 ebp
  00001	8b ec		 mov	 ebp, esp
  00003	56		 push	 esi

; 957  :         int _Result;
; 958  :         va_list _ArgList;
; 959  :         __crt_va_start(_ArgList, _Format);
; 960  :         _Result = _vfprintf_l(stdout, _Format, NULL, _ArgList);

  00004	8b 75 08	 mov	 esi, DWORD PTR __Format$[ebp]
  00007	6a 01		 push	 1
  00009	e8 00 00 00 00	 call	 ___acrt_iob_func
  0000e	83 c4 04	 add	 esp, 4

; 645  :         return __stdio_common_vfprintf(_CRT_INTERNAL_LOCAL_PRINTF_OPTIONS, _Stream, _Format, _Locale, _ArgList);

  00011	8d 4d 0c	 lea	 ecx, DWORD PTR __Format$[ebp+4]
  00014	51		 push	 ecx
  00015	6a 00		 push	 0
  00017	56		 push	 esi
  00018	50		 push	 eax
  00019	e8 00 00 00 00	 call	 ___local_stdio_printf_options
  0001e	ff 70 04	 push	 DWORD PTR [eax+4]
  00021	ff 30		 push	 DWORD PTR [eax]
  00023	e8 00 00 00 00	 call	 ___stdio_common_vfprintf
  00028	83 c4 18	 add	 esp, 24			; 00000018H

; 961  :         __crt_va_end(_ArgList);
; 962  :         return _Result;

  0002b	5e		 pop	 esi

; 963  :     }

  0002c	5d		 pop	 ebp
  0002d	c3		 ret	 0
_printf	ENDP
_TEXT	ENDS
; Function compile flags: /Ogtp
; File C:\Program Files (x86)\Windows Kits\10\Include\10.0.26100.0\ucrt\corecrt_stdio_config.h
;	COMDAT ___local_stdio_scanf_options
_TEXT	SEGMENT
___local_stdio_scanf_options PROC			; COMDAT

; 101  :         static unsigned __int64 _OptionsStorage;
; 102  :         return &_OptionsStorage;

  00000	b8 00 00 00 00	 mov	 eax, OFFSET ?_OptionsStorage@?1??__local_stdio_scanf_options@@9@4_KA ; `__local_stdio_scanf_options'::`2'::_OptionsStorage

; 103  :     }

  00005	c3		 ret	 0
___local_stdio_scanf_options ENDP
_TEXT	ENDS
; Function compile flags: /Ogtp
; File C:\Program Files (x86)\Windows Kits\10\Include\10.0.26100.0\ucrt\corecrt_stdio_config.h
;	COMDAT ___local_stdio_printf_options
_TEXT	SEGMENT
___local_stdio_printf_options PROC			; COMDAT

; 91   :         static unsigned __int64 _OptionsStorage;
; 92   :         return &_OptionsStorage;

  00000	b8 00 00 00 00	 mov	 eax, OFFSET ?_OptionsStorage@?1??__local_stdio_printf_options@@9@4_KA ; `__local_stdio_printf_options'::`2'::_OptionsStorage

; 93   :     }

  00005	c3		 ret	 0
___local_stdio_printf_options ENDP
_TEXT	ENDS
; Function compile flags: /Ogtp
; File C:\IAGOS\server\v18\Source\Source\_Common\script.cpp
;	COMDAT ?__empty_global_delete@@YAXPAXI@Z
_TEXT	SEGMENT
___formal$ = 8						; size = 4
___formal$ = 12						; size = 4
?__empty_global_delete@@YAXPAXI@Z PROC			; __empty_global_delete, COMDAT

  00000	c2 00 00	 ret	 0
?__empty_global_delete@@YAXPAXI@Z ENDP			; __empty_global_delete
_TEXT	ENDS
; Function compile flags: /Ogtp
; File C:\IAGOS\server\v18\Source\Source\_Common\script.cpp
;	COMDAT ?__empty_global_delete@@YAXPAX@Z
_TEXT	SEGMENT
___formal$ = 8						; size = 4
?__empty_global_delete@@YAXPAX@Z PROC			; __empty_global_delete, COMDAT

  00000	c2 00 00	 ret	 0
?__empty_global_delete@@YAXPAX@Z ENDP			; __empty_global_delete
_TEXT	ENDS
END
