; Listing generated by Microsoft (R) Optimizing Compiler Version 19.44.35225.0 

	TITLE	C:\IAGOS\server\v18\Source\Output\DatabaseServer\Release\SecretRoomDBMng.obj
	.686P
	.XMM
	include listing.inc
	.model	flat

INCLUDELIB LIBCMT
INCLUDELIB OLDNAMES

PUBLIC	?__empty_global_delete@@YAXPAX@Z		; __empty_global_delete
PUBLIC	?__empty_global_delete@@YAXPAXI@Z		; __empty_global_delete
PUBLIC	___local_stdio_printf_options
PUBLIC	_sprintf
PUBLIC	??0exception@std@@QAE@ABV01@@Z			; std::exception::exception
PUBLIC	??1exception@std@@UAE@XZ			; std::exception::~exception
PUBLIC	?what@exception@std@@UBEPBDXZ			; std::exception::what
PUBLIC	??_Gexception@std@@UAEPAXI@Z			; std::exception::`scalar deleting destructor'
PUBLIC	??0bad_alloc@std@@QAE@ABV01@@Z			; std::bad_alloc::bad_alloc
PUBLIC	??_Gbad_alloc@std@@UAEPAXI@Z			; std::bad_alloc::`scalar deleting destructor'
PUBLIC	??0bad_array_new_length@std@@QAE@XZ		; std::bad_array_new_length::bad_array_new_length
PUBLIC	??1bad_array_new_length@std@@UAE@XZ		; std::bad_array_new_length::~bad_array_new_length
PUBLIC	??0bad_array_new_length@std@@QAE@ABV01@@Z	; std::bad_array_new_length::bad_array_new_length
PUBLIC	??_Gbad_array_new_length@std@@UAEPAXI@Z		; std::bad_array_new_length::`scalar deleting destructor'
PUBLIC	?_Throw_bad_array_new_length@std@@YAXXZ		; std::_Throw_bad_array_new_length
PUBLIC	??1?$vector@KV?$allocator@K@std@@@std@@QAE@XZ	; std::vector<unsigned long,std::allocator<unsigned long> >::~vector<unsigned long,std::allocator<unsigned long> >
PUBLIC	?_Change_array@?$vector@KV?$allocator@K@std@@@std@@AAEXQAKII@Z ; std::vector<unsigned long,std::allocator<unsigned long> >::_Change_array
PUBLIC	?_Xlength@?$vector@KV?$allocator@K@std@@@std@@CAXXZ ; std::vector<unsigned long,std::allocator<unsigned long> >::_Xlength
PUBLIC	??$_Allocate_manually_vector_aligned@U_Default_allocate_traits@std@@@std@@YAPAXI@Z ; std::_Allocate_manually_vector_aligned<std::_Default_allocate_traits>
PUBLIC	?OnTimer@CDbController@@UAEXXZ			; CDbController::OnTimer
PUBLIC	??0CSecretRoomDbController@@QAE@XZ		; CSecretRoomDbController::CSecretRoomDbController
PUBLIC	??1CSecretRoomDbController@@UAE@XZ		; CSecretRoomDbController::~CSecretRoomDbController
PUBLIC	?Handler@CSecretRoomDbController@@UAEXPAUtagDB_OVERLAPPED_PLUS@@K@Z ; CSecretRoomDbController::Handler
PUBLIC	?LoadSecretRoom@CSecretRoomDbController@@AAEXK@Z ; CSecretRoomDbController::LoadSecretRoom
PUBLIC	?InsertTenderToDB@CSecretRoomDbController@@AAEXEKH@Z ; CSecretRoomDbController::InsertTenderToDB
PUBLIC	?UpdateTenderToDB@CSecretRoomDbController@@AAEXEKHDKHH@Z ; CSecretRoomDbController::UpdateTenderToDB
PUBLIC	?InsertLineUpMemberToDB@CSecretRoomDbController@@AAEXEKAAV?$vector@KV?$allocator@K@std@@@std@@@Z ; CSecretRoomDbController::InsertLineUpMemberToDB
PUBLIC	??_GCSecretRoomDbController@@UAEPAXI@Z		; CSecretRoomDbController::`scalar deleting destructor'
PUBLIC	??0CSecretRoomDBMng@@QAE@XZ			; CSecretRoomDBMng::CSecretRoomDBMng
PUBLIC	??1CSecretRoomDBMng@@QAE@XZ			; CSecretRoomDBMng::~CSecretRoomDBMng
PUBLIC	?GetInstance@CSecretRoomDBMng@@SAPAV1@XZ	; CSecretRoomDBMng::GetInstance
PUBLIC	?PostRequest@CSecretRoomDBMng@@QAEHHPAEHK@Z	; CSecretRoomDBMng::PostRequest
PUBLIC	??0?$vector@HV?$allocator@H@std@@@std@@QAE@XZ	; std::vector<int,std::allocator<int> >::vector<int,std::allocator<int> >
PUBLIC	??1?$vector@HV?$allocator@H@std@@@std@@QAE@XZ	; std::vector<int,std::allocator<int> >::~vector<int,std::allocator<int> >
PUBLIC	?_Xlength@?$vector@HV?$allocator@H@std@@@std@@CAXXZ ; std::vector<int,std::allocator<int> >::_Xlength
PUBLIC	??$?5H@CAr@@QAEAAV0@AAH@Z			; CAr::operator>><int>
PUBLIC	??$?5K@CAr@@QAEAAV0@AAK@Z			; CAr::operator>><unsigned long>
PUBLIC	??$?5E@CAr@@QAEAAV0@AAE@Z			; CAr::operator>><unsigned char>
PUBLIC	??$?5D@CAr@@QAEAAV0@AAD@Z			; CAr::operator>><char>
PUBLIC	??1?$vector@EV?$allocator@E@std@@@std@@QAE@XZ	; std::vector<unsigned char,std::allocator<unsigned char> >::~vector<unsigned char,std::allocator<unsigned char> >
PUBLIC	?_Xlength@?$vector@EV?$allocator@E@std@@@std@@CAXXZ ; std::vector<unsigned char,std::allocator<unsigned char> >::_Xlength
PUBLIC	??$_Emplace_reallocate@H@?$vector@HV?$allocator@H@std@@@std@@AAEPAHQAH$$QAH@Z ; std::vector<int,std::allocator<int> >::_Emplace_reallocate<int>
PUBLIC	??$_Emplace_reallocate@E@?$vector@EV?$allocator@E@std@@@std@@AAEPAEQAE$$QAE@Z ; std::vector<unsigned char,std::allocator<unsigned char> >::_Emplace_reallocate<unsigned char>
PUBLIC	??$_Copy_memmove@PAHPAH@std@@YAPAHPAH00@Z	; std::_Copy_memmove<int *,int *>
PUBLIC	??$_Copy_memmove@PAKPAK@std@@YAPAKPAK00@Z	; std::_Copy_memmove<unsigned long *,unsigned long *>
PUBLIC	??$_Copy_memmove@PAEPAE@std@@YAPAEPAE00@Z	; std::_Copy_memmove<unsigned char *,unsigned char *>
PUBLIC	??$_Copy_memmove_tail@PAH@std@@YAPAHQBDQAHII@Z	; std::_Copy_memmove_tail<int *>
PUBLIC	??$_Copy_memmove_tail@PAK@std@@YAPAKQBDQAKII@Z	; std::_Copy_memmove_tail<unsigned long *>
PUBLIC	??$_Copy_memmove_tail@PAE@std@@YAPAEQBDQAEII@Z	; std::_Copy_memmove_tail<unsigned char *>
PUBLIC	?_OptionsStorage@?1??__local_stdio_printf_options@@9@4_KA ; `__local_stdio_printf_options'::`2'::_OptionsStorage
PUBLIC	??_7exception@std@@6B@				; std::exception::`vftable'
PUBLIC	??_C@_0BC@EOODALEL@Unknown?5exception@		; `string'
PUBLIC	??_7bad_alloc@std@@6B@				; std::bad_alloc::`vftable'
PUBLIC	??_7bad_array_new_length@std@@6B@		; std::bad_array_new_length::`vftable'
PUBLIC	??_C@_0BF@KINCDENJ@bad?5array?5new?5length@	; `string'
PUBLIC	??_R0?AVexception@std@@@8			; std::exception `RTTI Type Descriptor'
PUBLIC	__CT??_R0?AVexception@std@@@8??0exception@std@@QAE@ABV01@@Z12
PUBLIC	__TI3?AVbad_array_new_length@std@@
PUBLIC	__CTA3?AVbad_array_new_length@std@@
PUBLIC	??_R0?AVbad_array_new_length@std@@@8		; std::bad_array_new_length `RTTI Type Descriptor'
PUBLIC	__CT??_R0?AVbad_array_new_length@std@@@8??0bad_array_new_length@std@@QAE@ABV01@@Z12
PUBLIC	??_R0?AVbad_alloc@std@@@8			; std::bad_alloc `RTTI Type Descriptor'
PUBLIC	__CT??_R0?AVbad_alloc@std@@@8??0bad_alloc@std@@QAE@ABV01@@Z12
PUBLIC	??_C@_09GBAEEKDE@?$CFs?0?5?$CFd?7?$CFs@		; `string'
PUBLIC	??_C@_0BA@FOIKENOD@vector?5too?5long@		; `string'
PUBLIC	??_R4exception@std@@6B@				; std::exception::`RTTI Complete Object Locator'
PUBLIC	??_R3exception@std@@8				; std::exception::`RTTI Class Hierarchy Descriptor'
PUBLIC	??_R2exception@std@@8				; std::exception::`RTTI Base Class Array'
PUBLIC	??_R1A@?0A@EA@exception@std@@8			; std::exception::`RTTI Base Class Descriptor at (0,-1,0,64)'
PUBLIC	??_R4bad_array_new_length@std@@6B@		; std::bad_array_new_length::`RTTI Complete Object Locator'
PUBLIC	??_R3bad_array_new_length@std@@8		; std::bad_array_new_length::`RTTI Class Hierarchy Descriptor'
PUBLIC	??_R2bad_array_new_length@std@@8		; std::bad_array_new_length::`RTTI Base Class Array'
PUBLIC	??_R1A@?0A@EA@bad_array_new_length@std@@8	; std::bad_array_new_length::`RTTI Base Class Descriptor at (0,-1,0,64)'
PUBLIC	??_R1A@?0A@EA@bad_alloc@std@@8			; std::bad_alloc::`RTTI Base Class Descriptor at (0,-1,0,64)'
PUBLIC	??_R3bad_alloc@std@@8				; std::bad_alloc::`RTTI Class Hierarchy Descriptor'
PUBLIC	??_R2bad_alloc@std@@8				; std::bad_alloc::`RTTI Base Class Array'
PUBLIC	??_R4bad_alloc@std@@6B@				; std::bad_alloc::`RTTI Complete Object Locator'
PUBLIC	??_7CSecretRoomDbController@@6B@		; CSecretRoomDbController::`vftable'
PUBLIC	??_C@_0DG@LLEPPCHM@CSecretRoomDBMng?5?9?5m_SRDbContro@ ; `string'
PUBLIC	??_C@_0DJ@KPDDDLOH@SECRET_ROOM_STR?5?8S1?8?0?5?8?$CF02d?8?0?50@ ; `string'
PUBLIC	??_C@_0EF@DJMJOFIF@C?3?2IAGOS?2server?2v18?2Source?2Sour@ ; `string'
PUBLIC	??_C@_06DJGFEEME@nTimes@			; `string'
PUBLIC	??_C@_0DK@PIHLKIG@SECRET_ROOM_STR?5?8S2?8?0?5?8?$CF02d?8?0?5?$CF@ ; `string'
PUBLIC	??_C@_0L@LBNAINBN@nContinent@			; `string'
PUBLIC	??_C@_09MHDEIN@m_idGuild@			; `string'
PUBLIC	??_C@_06BIHJGOPK@nPenya@			; `string'
PUBLIC	??_C@_0DJ@DCPFIIMD@SECRET_ROOM_MEMBER_STR?5?8S2?8?0?5?8?$CF@ ; `string'
PUBLIC	??_C@_0L@FONFFEJF@m_idPlayer@			; `string'
PUBLIC	??_C@_0DP@BOHJKIPD@SECRET_ROOM_STR?5?8I1?8?0?5?8?$CF02d?8?0?5?$CF@ ; `string'
PUBLIC	??_C@_0ED@ODGBHELB@SECRET_ROOM_STR?5?8U2?8?0?5?8?$CF02d?8?0?5?$CF@ ; `string'
PUBLIC	??_C@_0EA@IECOBPGC@SECRET_ROOM_STR?5?8U1?8?0?5?8?$CF02d?8?0?5?$CF@ ; `string'
PUBLIC	??_C@_0DJ@KCPMHBBH@SECRET_ROOM_MEMBER_STR?5?8D1?8?0?5?8?$CF@ ; `string'
PUBLIC	??_C@_0DM@DPPKLHMA@SECRET_ROOM_MEMBER_STR?5?8I1?8?0?5?8?$CF@ ; `string'
PUBLIC	??_R4CSecretRoomDbController@@6B@		; CSecretRoomDbController::`RTTI Complete Object Locator'
PUBLIC	??_R0?AVCSecretRoomDbController@@@8		; CSecretRoomDbController `RTTI Type Descriptor'
PUBLIC	??_R3CSecretRoomDbController@@8			; CSecretRoomDbController::`RTTI Class Hierarchy Descriptor'
PUBLIC	??_R2CSecretRoomDbController@@8			; CSecretRoomDbController::`RTTI Base Class Array'
PUBLIC	??_R1A@?0A@EA@CSecretRoomDbController@@8	; CSecretRoomDbController::`RTTI Base Class Descriptor at (0,-1,0,64)'
PUBLIC	??_R1A@?0A@EA@CDbController@@8			; CDbController::`RTTI Base Class Descriptor at (0,-1,0,64)'
PUBLIC	??_R0?AVCDbController@@@8			; CDbController `RTTI Type Descriptor'
PUBLIC	??_R3CDbController@@8				; CDbController::`RTTI Class Hierarchy Descriptor'
PUBLIC	??_R2CDbController@@8				; CDbController::`RTTI Base Class Array'
EXTRN	??2@YAPAXI@Z:PROC				; operator new
EXTRN	??3@YAXPAXI@Z:PROC				; operator delete
EXTRN	_atexit:PROC
EXTRN	__Init_thread_header:PROC
EXTRN	__Init_thread_abort:PROC
EXTRN	__Init_thread_footer:PROC
EXTRN	__invoke_watson:PROC
EXTRN	___stdio_common_vsprintf:PROC
EXTRN	?_Xlength_error@std@@YAXPBD@Z:PROC		; std::_Xlength_error
EXTRN	___std_exception_copy:PROC
EXTRN	___std_exception_destroy:PROC
EXTRN	??_Eexception@std@@UAEPAXI@Z:PROC		; std::exception::`vector deleting destructor'
EXTRN	??_Ebad_alloc@std@@UAEPAXI@Z:PROC		; std::bad_alloc::`vector deleting destructor'
EXTRN	??_Ebad_array_new_length@std@@UAEPAXI@Z:PROC	; std::bad_array_new_length::`vector deleting destructor'
EXTRN	?Error@@YAPBDPBDZZ:PROC				; Error
EXTRN	?WriteLog@@YAXPBDZZ:PROC			; WriteLog
EXTRN	?Exec@CQuery@@QAEHPBD@Z:PROC			; CQuery::Exec
EXTRN	?Fetch@CQuery@@QAEHXZ:PROC			; CQuery::Fetch
EXTRN	?GetInt@CQuery@@QAEHPAD@Z:PROC			; CQuery::GetInt
EXTRN	??0CAr@@QAE@PAXI@Z:PROC				; CAr::CAr
EXTRN	??1CAr@@QAE@XZ:PROC				; CAr::~CAr
EXTRN	??0CDbController@@QAE@XZ:PROC			; CDbController::CDbController
EXTRN	??1CDbController@@UAE@XZ:PROC			; CDbController::~CDbController
EXTRN	?CreateDbHandler@CDbController@@QAEHK@Z:PROC	; CDbController::CreateDbHandler
EXTRN	?CloseDbHandler@CDbController@@QAEXXZ:PROC	; CDbController::CloseDbHandler
EXTRN	?PostRequest@CDbController@@QAEHHPAEHK@Z:PROC	; CDbController::PostRequest
EXTRN	??_ECSecretRoomDbController@@UAEPAXI@Z:PROC	; CSecretRoomDbController::`vector deleting destructor'
EXTRN	?GetInstance@CDPTrans@@SAPAV1@XZ:PROC		; CDPTrans::GetInstance
EXTRN	?SendSecretRoomInfoClear@CDPTrans@@QAEXK@Z:PROC	; CDPTrans::SendSecretRoomInfoClear
EXTRN	?SendSecretRoomTenderInfo@CDPTrans@@QAEXEKHAAV?$vector@KV?$allocator@K@std@@@std@@K@Z:PROC ; CDPTrans::SendSecretRoomTenderInfo
EXTRN	@__security_check_cookie@4:PROC
EXTRN	__CxxThrowException@8:PROC
EXTRN	___CxxFrameHandler3:PROC
EXTRN	__chkstk:PROC
EXTRN	_memmove:PROC
EXTRN	_memset:PROC
EXTRN	__Init_thread_epoch:DWORD
EXTRN	??_7type_info@@6B@:QWORD			; type_info::`vftable'
EXTRN	?g_appInfo@@3UAppInfo@@A:QWORD			; g_appInfo
EXTRN	___security_cookie:DWORD
EXTRN	__tls_array:DWORD
EXTRN	__tls_index:DWORD
;	COMDAT ?_OptionsStorage@?1??__local_stdio_printf_options@@9@4_KA
_BSS	SEGMENT
?_OptionsStorage@?1??__local_stdio_printf_options@@9@4_KA DQ 01H DUP (?) ; `__local_stdio_printf_options'::`2'::_OptionsStorage
_BSS	ENDS
;	COMDAT ?sSecretRoomDBMng@?1??GetInstance@CSecretRoomDBMng@@SAPAV2@XZ@4V2@A
_BSS	SEGMENT
?sSecretRoomDBMng@?1??GetInstance@CSecretRoomDBMng@@SAPAV2@XZ@4V2@A DB 018H DUP (?) ; `CSecretRoomDBMng::GetInstance'::`2'::sSecretRoomDBMng
_BSS	ENDS
;	COMDAT ?$TSS0@?1??GetInstance@CSecretRoomDBMng@@SAPAV2@XZ@4HA
_BSS	SEGMENT
?$TSS0@?1??GetInstance@CSecretRoomDBMng@@SAPAV2@XZ@4HA DD 01H DUP (?) ; `CSecretRoomDBMng::GetInstance'::`2'::$TSS0
_BSS	ENDS
;	COMDAT ??_R2CDbController@@8
rdata$r	SEGMENT
??_R2CDbController@@8 DD FLAT:??_R1A@?0A@EA@CDbController@@8 ; CDbController::`RTTI Base Class Array'
rdata$r	ENDS
;	COMDAT ??_R3CDbController@@8
rdata$r	SEGMENT
??_R3CDbController@@8 DD 00H				; CDbController::`RTTI Class Hierarchy Descriptor'
	DD	00H
	DD	01H
	DD	FLAT:??_R2CDbController@@8
rdata$r	ENDS
;	COMDAT ??_R0?AVCDbController@@@8
data$rs	SEGMENT
??_R0?AVCDbController@@@8 DD FLAT:??_7type_info@@6B@	; CDbController `RTTI Type Descriptor'
	DD	00H
	DB	'.?AVCDbController@@', 00H
data$rs	ENDS
;	COMDAT ??_R1A@?0A@EA@CDbController@@8
rdata$r	SEGMENT
??_R1A@?0A@EA@CDbController@@8 DD FLAT:??_R0?AVCDbController@@@8 ; CDbController::`RTTI Base Class Descriptor at (0,-1,0,64)'
	DD	00H
	DD	00H
	DD	0ffffffffH
	DD	00H
	DD	040H
	DD	FLAT:??_R3CDbController@@8
rdata$r	ENDS
;	COMDAT ??_R1A@?0A@EA@CSecretRoomDbController@@8
rdata$r	SEGMENT
??_R1A@?0A@EA@CSecretRoomDbController@@8 DD FLAT:??_R0?AVCSecretRoomDbController@@@8 ; CSecretRoomDbController::`RTTI Base Class Descriptor at (0,-1,0,64)'
	DD	01H
	DD	00H
	DD	0ffffffffH
	DD	00H
	DD	040H
	DD	FLAT:??_R3CSecretRoomDbController@@8
rdata$r	ENDS
;	COMDAT ??_R2CSecretRoomDbController@@8
rdata$r	SEGMENT
??_R2CSecretRoomDbController@@8 DD FLAT:??_R1A@?0A@EA@CSecretRoomDbController@@8 ; CSecretRoomDbController::`RTTI Base Class Array'
	DD	FLAT:??_R1A@?0A@EA@CDbController@@8
rdata$r	ENDS
;	COMDAT ??_R3CSecretRoomDbController@@8
rdata$r	SEGMENT
??_R3CSecretRoomDbController@@8 DD 00H			; CSecretRoomDbController::`RTTI Class Hierarchy Descriptor'
	DD	00H
	DD	02H
	DD	FLAT:??_R2CSecretRoomDbController@@8
rdata$r	ENDS
;	COMDAT ??_R0?AVCSecretRoomDbController@@@8
data$rs	SEGMENT
??_R0?AVCSecretRoomDbController@@@8 DD FLAT:??_7type_info@@6B@ ; CSecretRoomDbController `RTTI Type Descriptor'
	DD	00H
	DB	'.?AVCSecretRoomDbController@@', 00H
data$rs	ENDS
;	COMDAT ??_R4CSecretRoomDbController@@6B@
rdata$r	SEGMENT
??_R4CSecretRoomDbController@@6B@ DD 00H		; CSecretRoomDbController::`RTTI Complete Object Locator'
	DD	00H
	DD	00H
	DD	FLAT:??_R0?AVCSecretRoomDbController@@@8
	DD	FLAT:??_R3CSecretRoomDbController@@8
rdata$r	ENDS
;	COMDAT ??_C@_0DM@DPPKLHMA@SECRET_ROOM_MEMBER_STR?5?8I1?8?0?5?8?$CF@
CONST	SEGMENT
??_C@_0DM@DPPKLHMA@SECRET_ROOM_MEMBER_STR?5?8I1?8?0?5?8?$CF@ DB 'SECRET_R'
	DB	'OOM_MEMBER_STR ''I1'', ''%02d'', %d, %d, ''%06d'', ''%07d''', 00H ; `string'
CONST	ENDS
;	COMDAT ??_C@_0DJ@KCPMHBBH@SECRET_ROOM_MEMBER_STR?5?8D1?8?0?5?8?$CF@
CONST	SEGMENT
??_C@_0DJ@KCPMHBBH@SECRET_ROOM_MEMBER_STR?5?8D1?8?0?5?8?$CF@ DB 'SECRET_R'
	DB	'OOM_MEMBER_STR ''D1'', ''%02d'', %d, %d, ''%06d'', ''0''', 00H ; `string'
CONST	ENDS
;	COMDAT ??_C@_0EA@IECOBPGC@SECRET_ROOM_STR?5?8U1?8?0?5?8?$CF02d?8?0?5?$CF@
CONST	SEGMENT
??_C@_0EA@IECOBPGC@SECRET_ROOM_STR?5?8U1?8?0?5?8?$CF02d?8?0?5?$CF@ DB 'SE'
	DB	'CRET_ROOM_STR ''U1'', ''%02d'', %d, %d, ''%06d'', %d, ''%c'','
	DB	' 0, 0, 0', 00H				; `string'
CONST	ENDS
;	COMDAT ??_C@_0ED@ODGBHELB@SECRET_ROOM_STR?5?8U2?8?0?5?8?$CF02d?8?0?5?$CF@
CONST	SEGMENT
??_C@_0ED@ODGBHELB@SECRET_ROOM_STR?5?8U2?8?0?5?8?$CF02d?8?0?5?$CF@ DB 'SE'
	DB	'CRET_ROOM_STR ''U2'', ''%02d'', %d, %d, ''%06d'', %d, ''%c'','
	DB	' %d, %d, %d', 00H				; `string'
CONST	ENDS
;	COMDAT ??_C@_0DP@BOHJKIPD@SECRET_ROOM_STR?5?8I1?8?0?5?8?$CF02d?8?0?5?$CF@
CONST	SEGMENT
??_C@_0DP@BOHJKIPD@SECRET_ROOM_STR?5?8I1?8?0?5?8?$CF02d?8?0?5?$CF@ DB 'SE'
	DB	'CRET_ROOM_STR ''I1'', ''%02d'', %d, %d, ''%06d'', %d, ''T'', '
	DB	'0, 0, 0', 00H				; `string'
CONST	ENDS
;	COMDAT ??_C@_0L@FONFFEJF@m_idPlayer@
CONST	SEGMENT
??_C@_0L@FONFFEJF@m_idPlayer@ DB 'm_idPlayer', 00H	; `string'
CONST	ENDS
;	COMDAT ??_C@_0DJ@DCPFIIMD@SECRET_ROOM_MEMBER_STR?5?8S2?8?0?5?8?$CF@
CONST	SEGMENT
??_C@_0DJ@DCPFIIMD@SECRET_ROOM_MEMBER_STR?5?8S2?8?0?5?8?$CF@ DB 'SECRET_R'
	DB	'OOM_MEMBER_STR ''S2'', ''%02d'', %d, %d, ''%06d'', ''0''', 00H ; `string'
CONST	ENDS
;	COMDAT ??_C@_06BIHJGOPK@nPenya@
CONST	SEGMENT
??_C@_06BIHJGOPK@nPenya@ DB 'nPenya', 00H		; `string'
CONST	ENDS
;	COMDAT ??_C@_09MHDEIN@m_idGuild@
CONST	SEGMENT
??_C@_09MHDEIN@m_idGuild@ DB 'm_idGuild', 00H		; `string'
CONST	ENDS
;	COMDAT ??_C@_0L@LBNAINBN@nContinent@
CONST	SEGMENT
??_C@_0L@LBNAINBN@nContinent@ DB 'nContinent', 00H	; `string'
CONST	ENDS
;	COMDAT ??_C@_0DK@PIHLKIG@SECRET_ROOM_STR?5?8S2?8?0?5?8?$CF02d?8?0?5?$CF@
CONST	SEGMENT
??_C@_0DK@PIHLKIG@SECRET_ROOM_STR?5?8S2?8?0?5?8?$CF02d?8?0?5?$CF@ DB 'SEC'
	DB	'RET_ROOM_STR ''S2'', ''%02d'', %d, 0, ''0'', 0, ''T'', 0, 0, '
	DB	'0', 00H					; `string'
CONST	ENDS
;	COMDAT ??_C@_06DJGFEEME@nTimes@
CONST	SEGMENT
??_C@_06DJGFEEME@nTimes@ DB 'nTimes', 00H		; `string'
CONST	ENDS
;	COMDAT ??_C@_0EF@DJMJOFIF@C?3?2IAGOS?2server?2v18?2Source?2Sour@
CONST	SEGMENT
??_C@_0EF@DJMJOFIF@C?3?2IAGOS?2server?2v18?2Source?2Sour@ DB 'C:\IAGOS\se'
	DB	'rver\v18\Source\Source\DatabaseServer\SecretRoomDBMng.cpp', 00H ; `string'
CONST	ENDS
;	COMDAT ??_C@_0DJ@KPDDDLOH@SECRET_ROOM_STR?5?8S1?8?0?5?8?$CF02d?8?0?50@
CONST	SEGMENT
??_C@_0DJ@KPDDDLOH@SECRET_ROOM_STR?5?8S1?8?0?5?8?$CF02d?8?0?50@ DB 'SECRE'
	DB	'T_ROOM_STR ''S1'', ''%02d'', 0, 0, ''0'', 0, ''T'', 0, 0, 0', 00H ; `string'
CONST	ENDS
;	COMDAT ??_C@_0DG@LLEPPCHM@CSecretRoomDBMng?5?9?5m_SRDbContro@
CONST	SEGMENT
??_C@_0DG@LLEPPCHM@CSecretRoomDBMng?5?9?5m_SRDbContro@ DB 'CSecretRoomDBM'
	DB	'ng - m_SRDbController.CreateDbHandler()', 00H ; `string'
CONST	ENDS
;	COMDAT ??_7CSecretRoomDbController@@6B@
CONST	SEGMENT
??_7CSecretRoomDbController@@6B@ DD FLAT:??_R4CSecretRoomDbController@@6B@ ; CSecretRoomDbController::`vftable'
	DD	FLAT:??_ECSecretRoomDbController@@UAEPAXI@Z
	DD	FLAT:?Handler@CSecretRoomDbController@@UAEXPAUtagDB_OVERLAPPED_PLUS@@K@Z
	DD	FLAT:?OnTimer@CDbController@@UAEXXZ
CONST	ENDS
;	COMDAT ??_R4bad_alloc@std@@6B@
rdata$r	SEGMENT
??_R4bad_alloc@std@@6B@ DD 00H				; std::bad_alloc::`RTTI Complete Object Locator'
	DD	00H
	DD	00H
	DD	FLAT:??_R0?AVbad_alloc@std@@@8
	DD	FLAT:??_R3bad_alloc@std@@8
rdata$r	ENDS
;	COMDAT ??_R2bad_alloc@std@@8
rdata$r	SEGMENT
??_R2bad_alloc@std@@8 DD FLAT:??_R1A@?0A@EA@bad_alloc@std@@8 ; std::bad_alloc::`RTTI Base Class Array'
	DD	FLAT:??_R1A@?0A@EA@exception@std@@8
rdata$r	ENDS
;	COMDAT ??_R3bad_alloc@std@@8
rdata$r	SEGMENT
??_R3bad_alloc@std@@8 DD 00H				; std::bad_alloc::`RTTI Class Hierarchy Descriptor'
	DD	00H
	DD	02H
	DD	FLAT:??_R2bad_alloc@std@@8
rdata$r	ENDS
;	COMDAT ??_R1A@?0A@EA@bad_alloc@std@@8
rdata$r	SEGMENT
??_R1A@?0A@EA@bad_alloc@std@@8 DD FLAT:??_R0?AVbad_alloc@std@@@8 ; std::bad_alloc::`RTTI Base Class Descriptor at (0,-1,0,64)'
	DD	01H
	DD	00H
	DD	0ffffffffH
	DD	00H
	DD	040H
	DD	FLAT:??_R3bad_alloc@std@@8
rdata$r	ENDS
;	COMDAT ??_R1A@?0A@EA@bad_array_new_length@std@@8
rdata$r	SEGMENT
??_R1A@?0A@EA@bad_array_new_length@std@@8 DD FLAT:??_R0?AVbad_array_new_length@std@@@8 ; std::bad_array_new_length::`RTTI Base Class Descriptor at (0,-1,0,64)'
	DD	02H
	DD	00H
	DD	0ffffffffH
	DD	00H
	DD	040H
	DD	FLAT:??_R3bad_array_new_length@std@@8
rdata$r	ENDS
;	COMDAT ??_R2bad_array_new_length@std@@8
rdata$r	SEGMENT
??_R2bad_array_new_length@std@@8 DD FLAT:??_R1A@?0A@EA@bad_array_new_length@std@@8 ; std::bad_array_new_length::`RTTI Base Class Array'
	DD	FLAT:??_R1A@?0A@EA@bad_alloc@std@@8
	DD	FLAT:??_R1A@?0A@EA@exception@std@@8
rdata$r	ENDS
;	COMDAT ??_R3bad_array_new_length@std@@8
rdata$r	SEGMENT
??_R3bad_array_new_length@std@@8 DD 00H			; std::bad_array_new_length::`RTTI Class Hierarchy Descriptor'
	DD	00H
	DD	03H
	DD	FLAT:??_R2bad_array_new_length@std@@8
rdata$r	ENDS
;	COMDAT ??_R4bad_array_new_length@std@@6B@
rdata$r	SEGMENT
??_R4bad_array_new_length@std@@6B@ DD 00H		; std::bad_array_new_length::`RTTI Complete Object Locator'
	DD	00H
	DD	00H
	DD	FLAT:??_R0?AVbad_array_new_length@std@@@8
	DD	FLAT:??_R3bad_array_new_length@std@@8
rdata$r	ENDS
;	COMDAT ??_R1A@?0A@EA@exception@std@@8
rdata$r	SEGMENT
??_R1A@?0A@EA@exception@std@@8 DD FLAT:??_R0?AVexception@std@@@8 ; std::exception::`RTTI Base Class Descriptor at (0,-1,0,64)'
	DD	00H
	DD	00H
	DD	0ffffffffH
	DD	00H
	DD	040H
	DD	FLAT:??_R3exception@std@@8
rdata$r	ENDS
;	COMDAT ??_R2exception@std@@8
rdata$r	SEGMENT
??_R2exception@std@@8 DD FLAT:??_R1A@?0A@EA@exception@std@@8 ; std::exception::`RTTI Base Class Array'
rdata$r	ENDS
;	COMDAT ??_R3exception@std@@8
rdata$r	SEGMENT
??_R3exception@std@@8 DD 00H				; std::exception::`RTTI Class Hierarchy Descriptor'
	DD	00H
	DD	01H
	DD	FLAT:??_R2exception@std@@8
rdata$r	ENDS
;	COMDAT ??_R4exception@std@@6B@
rdata$r	SEGMENT
??_R4exception@std@@6B@ DD 00H				; std::exception::`RTTI Complete Object Locator'
	DD	00H
	DD	00H
	DD	FLAT:??_R0?AVexception@std@@@8
	DD	FLAT:??_R3exception@std@@8
rdata$r	ENDS
;	COMDAT ??_C@_0BA@FOIKENOD@vector?5too?5long@
CONST	SEGMENT
??_C@_0BA@FOIKENOD@vector?5too?5long@ DB 'vector too long', 00H ; `string'
CONST	ENDS
;	COMDAT ??_C@_09GBAEEKDE@?$CFs?0?5?$CFd?7?$CFs@
CONST	SEGMENT
??_C@_09GBAEEKDE@?$CFs?0?5?$CFd?7?$CFs@ DB '%s, %d', 09H, '%s', 00H ; `string'
CONST	ENDS
;	COMDAT __CT??_R0?AVbad_alloc@std@@@8??0bad_alloc@std@@QAE@ABV01@@Z12
xdata$x	SEGMENT
__CT??_R0?AVbad_alloc@std@@@8??0bad_alloc@std@@QAE@ABV01@@Z12 DD 010H
	DD	FLAT:??_R0?AVbad_alloc@std@@@8
	DD	00H
	DD	0ffffffffH
	ORG $+4
	DD	0cH
	DD	FLAT:??0bad_alloc@std@@QAE@ABV01@@Z
xdata$x	ENDS
;	COMDAT ??_R0?AVbad_alloc@std@@@8
data$r	SEGMENT
??_R0?AVbad_alloc@std@@@8 DD FLAT:??_7type_info@@6B@	; std::bad_alloc `RTTI Type Descriptor'
	DD	00H
	DB	'.?AVbad_alloc@std@@', 00H
data$r	ENDS
;	COMDAT __CT??_R0?AVbad_array_new_length@std@@@8??0bad_array_new_length@std@@QAE@ABV01@@Z12
xdata$x	SEGMENT
__CT??_R0?AVbad_array_new_length@std@@@8??0bad_array_new_length@std@@QAE@ABV01@@Z12 DD 00H
	DD	FLAT:??_R0?AVbad_array_new_length@std@@@8
	DD	00H
	DD	0ffffffffH
	ORG $+4
	DD	0cH
	DD	FLAT:??0bad_array_new_length@std@@QAE@ABV01@@Z
xdata$x	ENDS
;	COMDAT ??_R0?AVbad_array_new_length@std@@@8
data$r	SEGMENT
??_R0?AVbad_array_new_length@std@@@8 DD FLAT:??_7type_info@@6B@ ; std::bad_array_new_length `RTTI Type Descriptor'
	DD	00H
	DB	'.?AVbad_array_new_length@std@@', 00H
data$r	ENDS
;	COMDAT __CTA3?AVbad_array_new_length@std@@
xdata$x	SEGMENT
__CTA3?AVbad_array_new_length@std@@ DD 03H
	DD	FLAT:__CT??_R0?AVbad_array_new_length@std@@@8??0bad_array_new_length@std@@QAE@ABV01@@Z12
	DD	FLAT:__CT??_R0?AVbad_alloc@std@@@8??0bad_alloc@std@@QAE@ABV01@@Z12
	DD	FLAT:__CT??_R0?AVexception@std@@@8??0exception@std@@QAE@ABV01@@Z12
xdata$x	ENDS
;	COMDAT __TI3?AVbad_array_new_length@std@@
xdata$x	SEGMENT
__TI3?AVbad_array_new_length@std@@ DD 00H
	DD	FLAT:??1bad_array_new_length@std@@UAE@XZ
	DD	00H
	DD	FLAT:__CTA3?AVbad_array_new_length@std@@
xdata$x	ENDS
;	COMDAT __CT??_R0?AVexception@std@@@8??0exception@std@@QAE@ABV01@@Z12
xdata$x	SEGMENT
__CT??_R0?AVexception@std@@@8??0exception@std@@QAE@ABV01@@Z12 DD 00H
	DD	FLAT:??_R0?AVexception@std@@@8
	DD	00H
	DD	0ffffffffH
	ORG $+4
	DD	0cH
	DD	FLAT:??0exception@std@@QAE@ABV01@@Z
xdata$x	ENDS
;	COMDAT ??_R0?AVexception@std@@@8
data$r	SEGMENT
??_R0?AVexception@std@@@8 DD FLAT:??_7type_info@@6B@	; std::exception `RTTI Type Descriptor'
	DD	00H
	DB	'.?AVexception@std@@', 00H
data$r	ENDS
;	COMDAT ??_C@_0BF@KINCDENJ@bad?5array?5new?5length@
CONST	SEGMENT
??_C@_0BF@KINCDENJ@bad?5array?5new?5length@ DB 'bad array new length', 00H ; `string'
CONST	ENDS
;	COMDAT ??_7bad_array_new_length@std@@6B@
CONST	SEGMENT
??_7bad_array_new_length@std@@6B@ DD FLAT:??_R4bad_array_new_length@std@@6B@ ; std::bad_array_new_length::`vftable'
	DD	FLAT:??_Ebad_array_new_length@std@@UAEPAXI@Z
	DD	FLAT:?what@exception@std@@UBEPBDXZ
CONST	ENDS
;	COMDAT ??_7bad_alloc@std@@6B@
CONST	SEGMENT
??_7bad_alloc@std@@6B@ DD FLAT:??_R4bad_alloc@std@@6B@	; std::bad_alloc::`vftable'
	DD	FLAT:??_Ebad_alloc@std@@UAEPAXI@Z
	DD	FLAT:?what@exception@std@@UBEPBDXZ
CONST	ENDS
;	COMDAT ??_C@_0BC@EOODALEL@Unknown?5exception@
CONST	SEGMENT
??_C@_0BC@EOODALEL@Unknown?5exception@ DB 'Unknown exception', 00H ; `string'
CONST	ENDS
;	COMDAT ??_7exception@std@@6B@
CONST	SEGMENT
??_7exception@std@@6B@ DD FLAT:??_R4exception@std@@6B@	; std::exception::`vftable'
	DD	FLAT:??_Eexception@std@@UAEPAXI@Z
	DD	FLAT:?what@exception@std@@UBEPBDXZ
CONST	ENDS
;	COMDAT xdata$x
xdata$x	SEGMENT
__unwindtable$?GetInstance@CSecretRoomDBMng@@SAPAV1@XZ DD 0ffffffffH
	DD	FLAT:__unwindfunclet$?GetInstance@CSecretRoomDBMng@@SAPAV1@XZ$0
__ehfuncinfo$?GetInstance@CSecretRoomDBMng@@SAPAV1@XZ DD 019930522H
	DD	01H
	DD	FLAT:__unwindtable$?GetInstance@CSecretRoomDBMng@@SAPAV1@XZ
	DD	2 DUP(00H)
	DD	2 DUP(00H)
	DD	00H
	DD	01H
xdata$x	ENDS
;	COMDAT xdata$x
xdata$x	SEGMENT
__ehfuncinfo$??1CSecretRoomDBMng@@QAE@XZ DD 019930522H
	DD	00H
	DD	00H
	DD	2 DUP(00H)
	DD	2 DUP(00H)
	DD	00H
	DD	05H
xdata$x	ENDS
;	COMDAT xdata$x
xdata$x	SEGMENT
__unwindtable$??0CSecretRoomDBMng@@QAE@XZ DD 0ffffffffH
	DD	FLAT:__unwindfunclet$??0CSecretRoomDBMng@@QAE@XZ$0
__ehfuncinfo$??0CSecretRoomDBMng@@QAE@XZ DD 019930522H
	DD	01H
	DD	FLAT:__unwindtable$??0CSecretRoomDBMng@@QAE@XZ
	DD	2 DUP(00H)
	DD	2 DUP(00H)
	DD	00H
	DD	01H
xdata$x	ENDS
;	COMDAT xdata$x
xdata$x	SEGMENT
__unwindtable$?LoadSecretRoom@CSecretRoomDbController@@AAEXK@Z DD 0ffffffffH
	DD	FLAT:__unwindfunclet$?LoadSecretRoom@CSecretRoomDbController@@AAEXK@Z$0
	DD	00H
	DD	FLAT:__unwindfunclet$?LoadSecretRoom@CSecretRoomDbController@@AAEXK@Z$1
	DD	01H
	DD	FLAT:__unwindfunclet$?LoadSecretRoom@CSecretRoomDbController@@AAEXK@Z$2
	DD	02H
	DD	FLAT:__unwindfunclet$?LoadSecretRoom@CSecretRoomDbController@@AAEXK@Z$3
__ehfuncinfo$?LoadSecretRoom@CSecretRoomDbController@@AAEXK@Z DD 019930522H
	DD	04H
	DD	FLAT:__unwindtable$?LoadSecretRoom@CSecretRoomDbController@@AAEXK@Z
	DD	2 DUP(00H)
	DD	2 DUP(00H)
	DD	00H
	DD	01H
xdata$x	ENDS
;	COMDAT xdata$x
xdata$x	SEGMENT
__unwindtable$?Handler@CSecretRoomDbController@@UAEXPAUtagDB_OVERLAPPED_PLUS@@K@Z DD 0ffffffffH
	DD	FLAT:__unwindfunclet$?Handler@CSecretRoomDbController@@UAEXPAUtagDB_OVERLAPPED_PLUS@@K@Z$0
	DD	0ffffffffH
	DD	FLAT:__unwindfunclet$?Handler@CSecretRoomDbController@@UAEXPAUtagDB_OVERLAPPED_PLUS@@K@Z$1
	DD	0ffffffffH
	DD	FLAT:__unwindfunclet$?Handler@CSecretRoomDbController@@UAEXPAUtagDB_OVERLAPPED_PLUS@@K@Z$2
	DD	02H
	DD	FLAT:__unwindfunclet$?Handler@CSecretRoomDbController@@UAEXPAUtagDB_OVERLAPPED_PLUS@@K@Z$3
__ehfuncinfo$?Handler@CSecretRoomDbController@@UAEXPAUtagDB_OVERLAPPED_PLUS@@K@Z DD 019930522H
	DD	04H
	DD	FLAT:__unwindtable$?Handler@CSecretRoomDbController@@UAEXPAUtagDB_OVERLAPPED_PLUS@@K@Z
	DD	2 DUP(00H)
	DD	2 DUP(00H)
	DD	00H
	DD	01H
xdata$x	ENDS
; Function compile flags: /Ogtp
; File C:\Program Files\Microsoft Visual Studio\2022\Professional\VC\Tools\MSVC\14.44.35207\include\xutility
;	COMDAT ??$_Copy_memmove_tail@PAE@std@@YAPAEQBDQAEII@Z
_TEXT	SEGMENT
__First_ch$ = 8						; size = 4
__Dest$ = 12						; size = 4
__Byte_count$ = 16					; size = 4
__Object_count$ = 20					; size = 4
??$_Copy_memmove_tail@PAE@std@@YAPAEQBDQAEII@Z PROC	; std::_Copy_memmove_tail<unsigned char *>, COMDAT

; 4747 :     const char* const _First_ch, const _OutCtgIt _Dest, const size_t _Byte_count, const size_t _Object_count) {

  00000	55		 push	 ebp
  00001	8b ec		 mov	 ebp, esp
  00003	56		 push	 esi

; 4748 :     _STL_INTERNAL_CHECK(_Byte_count == _Object_count * sizeof(*_Dest));
; 4749 :     const auto _Dest_ptr = _STD _To_address(_Dest);
; 4750 :     const auto _Dest_ch  = const_cast<char*>(reinterpret_cast<const volatile char*>(_Dest_ptr));
; 4751 :     _CSTD memmove(_Dest_ch, _First_ch, _Byte_count);

  00004	8b 75 0c	 mov	 esi, DWORD PTR __Dest$[ebp]
  00007	57		 push	 edi
  00008	8b 7d 10	 mov	 edi, DWORD PTR __Byte_count$[ebp]
  0000b	57		 push	 edi
  0000c	ff 75 08	 push	 DWORD PTR __First_ch$[ebp]
  0000f	56		 push	 esi
  00010	e8 00 00 00 00	 call	 _memmove
  00015	83 c4 0c	 add	 esp, 12			; 0000000cH

; 4752 :     if constexpr (is_pointer_v<_OutCtgIt>) {
; 4753 :         (void) _Object_count;
; 4754 :         // CodeQL [SM02986] This cast is correct: we're bypassing pointer arithmetic for performance.
; 4755 :         return reinterpret_cast<_OutCtgIt>(_Dest_ch + _Byte_count);

  00018	8d 04 3e	 lea	 eax, DWORD PTR [esi+edi]
  0001b	5f		 pop	 edi
  0001c	5e		 pop	 esi

; 4756 :     } else {
; 4757 :         return _Dest + static_cast<_Iter_diff_t<_OutCtgIt>>(_Object_count);
; 4758 :     }
; 4759 : }

  0001d	5d		 pop	 ebp
  0001e	c3		 ret	 0
??$_Copy_memmove_tail@PAE@std@@YAPAEQBDQAEII@Z ENDP	; std::_Copy_memmove_tail<unsigned char *>
_TEXT	ENDS
; Function compile flags: /Ogtp
; File C:\Program Files\Microsoft Visual Studio\2022\Professional\VC\Tools\MSVC\14.44.35207\include\xutility
;	COMDAT ??$_Copy_memmove_tail@PAK@std@@YAPAKQBDQAKII@Z
_TEXT	SEGMENT
__First_ch$ = 8						; size = 4
__Dest$ = 12						; size = 4
__Byte_count$ = 16					; size = 4
__Object_count$ = 20					; size = 4
??$_Copy_memmove_tail@PAK@std@@YAPAKQBDQAKII@Z PROC	; std::_Copy_memmove_tail<unsigned long *>, COMDAT

; 4747 :     const char* const _First_ch, const _OutCtgIt _Dest, const size_t _Byte_count, const size_t _Object_count) {

  00000	55		 push	 ebp
  00001	8b ec		 mov	 ebp, esp
  00003	56		 push	 esi

; 4748 :     _STL_INTERNAL_CHECK(_Byte_count == _Object_count * sizeof(*_Dest));
; 4749 :     const auto _Dest_ptr = _STD _To_address(_Dest);
; 4750 :     const auto _Dest_ch  = const_cast<char*>(reinterpret_cast<const volatile char*>(_Dest_ptr));
; 4751 :     _CSTD memmove(_Dest_ch, _First_ch, _Byte_count);

  00004	8b 75 0c	 mov	 esi, DWORD PTR __Dest$[ebp]
  00007	57		 push	 edi
  00008	8b 7d 10	 mov	 edi, DWORD PTR __Byte_count$[ebp]
  0000b	57		 push	 edi
  0000c	ff 75 08	 push	 DWORD PTR __First_ch$[ebp]
  0000f	56		 push	 esi
  00010	e8 00 00 00 00	 call	 _memmove
  00015	83 c4 0c	 add	 esp, 12			; 0000000cH

; 4752 :     if constexpr (is_pointer_v<_OutCtgIt>) {
; 4753 :         (void) _Object_count;
; 4754 :         // CodeQL [SM02986] This cast is correct: we're bypassing pointer arithmetic for performance.
; 4755 :         return reinterpret_cast<_OutCtgIt>(_Dest_ch + _Byte_count);

  00018	8d 04 3e	 lea	 eax, DWORD PTR [esi+edi]
  0001b	5f		 pop	 edi
  0001c	5e		 pop	 esi

; 4756 :     } else {
; 4757 :         return _Dest + static_cast<_Iter_diff_t<_OutCtgIt>>(_Object_count);
; 4758 :     }
; 4759 : }

  0001d	5d		 pop	 ebp
  0001e	c3		 ret	 0
??$_Copy_memmove_tail@PAK@std@@YAPAKQBDQAKII@Z ENDP	; std::_Copy_memmove_tail<unsigned long *>
_TEXT	ENDS
; Function compile flags: /Ogtp
; File C:\Program Files\Microsoft Visual Studio\2022\Professional\VC\Tools\MSVC\14.44.35207\include\xutility
;	COMDAT ??$_Copy_memmove_tail@PAH@std@@YAPAHQBDQAHII@Z
_TEXT	SEGMENT
__First_ch$ = 8						; size = 4
__Dest$ = 12						; size = 4
__Byte_count$ = 16					; size = 4
__Object_count$ = 20					; size = 4
??$_Copy_memmove_tail@PAH@std@@YAPAHQBDQAHII@Z PROC	; std::_Copy_memmove_tail<int *>, COMDAT

; 4747 :     const char* const _First_ch, const _OutCtgIt _Dest, const size_t _Byte_count, const size_t _Object_count) {

  00000	55		 push	 ebp
  00001	8b ec		 mov	 ebp, esp
  00003	56		 push	 esi

; 4748 :     _STL_INTERNAL_CHECK(_Byte_count == _Object_count * sizeof(*_Dest));
; 4749 :     const auto _Dest_ptr = _STD _To_address(_Dest);
; 4750 :     const auto _Dest_ch  = const_cast<char*>(reinterpret_cast<const volatile char*>(_Dest_ptr));
; 4751 :     _CSTD memmove(_Dest_ch, _First_ch, _Byte_count);

  00004	8b 75 0c	 mov	 esi, DWORD PTR __Dest$[ebp]
  00007	57		 push	 edi
  00008	8b 7d 10	 mov	 edi, DWORD PTR __Byte_count$[ebp]
  0000b	57		 push	 edi
  0000c	ff 75 08	 push	 DWORD PTR __First_ch$[ebp]
  0000f	56		 push	 esi
  00010	e8 00 00 00 00	 call	 _memmove
  00015	83 c4 0c	 add	 esp, 12			; 0000000cH

; 4752 :     if constexpr (is_pointer_v<_OutCtgIt>) {
; 4753 :         (void) _Object_count;
; 4754 :         // CodeQL [SM02986] This cast is correct: we're bypassing pointer arithmetic for performance.
; 4755 :         return reinterpret_cast<_OutCtgIt>(_Dest_ch + _Byte_count);

  00018	8d 04 3e	 lea	 eax, DWORD PTR [esi+edi]
  0001b	5f		 pop	 edi
  0001c	5e		 pop	 esi

; 4756 :     } else {
; 4757 :         return _Dest + static_cast<_Iter_diff_t<_OutCtgIt>>(_Object_count);
; 4758 :     }
; 4759 : }

  0001d	5d		 pop	 ebp
  0001e	c3		 ret	 0
??$_Copy_memmove_tail@PAH@std@@YAPAHQBDQAHII@Z ENDP	; std::_Copy_memmove_tail<int *>
_TEXT	ENDS
; Function compile flags: /Ogtp
; File C:\Program Files\Microsoft Visual Studio\2022\Professional\VC\Tools\MSVC\14.44.35207\include\xutility
;	COMDAT ??$_Copy_memmove@PAEPAE@std@@YAPAEPAE00@Z
_TEXT	SEGMENT
__First$ = 8						; size = 4
__Last$ = 12						; size = 4
__Dest$ = 16						; size = 4
??$_Copy_memmove@PAEPAE@std@@YAPAEPAE00@Z PROC		; std::_Copy_memmove<unsigned char *,unsigned char *>, COMDAT

; 4762 : _OutCtgIt _Copy_memmove(_CtgIt _First, _CtgIt _Last, _OutCtgIt _Dest) {

  00000	55		 push	 ebp
  00001	8b ec		 mov	 ebp, esp

; 4763 :     _STL_INTERNAL_CHECK(_First <= _Last);
; 4764 :     const auto _First_ptr    = _STD _To_address(_First);
; 4765 :     const auto _Last_ptr     = _STD _To_address(_Last);
; 4766 :     const auto _Object_count = static_cast<size_t>(_Last_ptr - _First_ptr);

  00003	8b 4d 08	 mov	 ecx, DWORD PTR __First$[ebp]
  00006	8b 45 0c	 mov	 eax, DWORD PTR __Last$[ebp]
  00009	2b c1		 sub	 eax, ecx

; 4767 :     const auto _First_ch     = const_cast<const char*>(reinterpret_cast<const volatile char*>(_First_ptr));
; 4768 :     const auto _Last_ch      = const_cast<const char*>(reinterpret_cast<const volatile char*>(_Last_ptr));
; 4769 :     const auto _Byte_count   = static_cast<size_t>(_Last_ch - _First_ch);
; 4770 :     return _STD _Copy_memmove_tail(_First_ch, _STD move(_Dest), _Byte_count, _Object_count);

  0000b	50		 push	 eax
  0000c	50		 push	 eax
  0000d	ff 75 10	 push	 DWORD PTR __Dest$[ebp]
  00010	51		 push	 ecx
  00011	e8 00 00 00 00	 call	 ??$_Copy_memmove_tail@PAE@std@@YAPAEQBDQAEII@Z ; std::_Copy_memmove_tail<unsigned char *>
  00016	83 c4 10	 add	 esp, 16			; 00000010H

; 4771 : }

  00019	5d		 pop	 ebp
  0001a	c3		 ret	 0
??$_Copy_memmove@PAEPAE@std@@YAPAEPAE00@Z ENDP		; std::_Copy_memmove<unsigned char *,unsigned char *>
_TEXT	ENDS
; Function compile flags: /Ogtp
; File C:\Program Files\Microsoft Visual Studio\2022\Professional\VC\Tools\MSVC\14.44.35207\include\xutility
;	COMDAT ??$_Copy_memmove@PAKPAK@std@@YAPAKPAK00@Z
_TEXT	SEGMENT
__First$ = 8						; size = 4
__Last$ = 12						; size = 4
__Dest$ = 16						; size = 4
??$_Copy_memmove@PAKPAK@std@@YAPAKPAK00@Z PROC		; std::_Copy_memmove<unsigned long *,unsigned long *>, COMDAT

; 4762 : _OutCtgIt _Copy_memmove(_CtgIt _First, _CtgIt _Last, _OutCtgIt _Dest) {

  00000	55		 push	 ebp
  00001	8b ec		 mov	 ebp, esp

; 4763 :     _STL_INTERNAL_CHECK(_First <= _Last);
; 4764 :     const auto _First_ptr    = _STD _To_address(_First);
; 4765 :     const auto _Last_ptr     = _STD _To_address(_Last);
; 4766 :     const auto _Object_count = static_cast<size_t>(_Last_ptr - _First_ptr);

  00003	8b 55 08	 mov	 edx, DWORD PTR __First$[ebp]
  00006	8b 4d 0c	 mov	 ecx, DWORD PTR __Last$[ebp]
  00009	2b ca		 sub	 ecx, edx
  0000b	8b c1		 mov	 eax, ecx
  0000d	c1 f8 02	 sar	 eax, 2

; 4767 :     const auto _First_ch     = const_cast<const char*>(reinterpret_cast<const volatile char*>(_First_ptr));
; 4768 :     const auto _Last_ch      = const_cast<const char*>(reinterpret_cast<const volatile char*>(_Last_ptr));
; 4769 :     const auto _Byte_count   = static_cast<size_t>(_Last_ch - _First_ch);
; 4770 :     return _STD _Copy_memmove_tail(_First_ch, _STD move(_Dest), _Byte_count, _Object_count);

  00010	50		 push	 eax
  00011	51		 push	 ecx
  00012	ff 75 10	 push	 DWORD PTR __Dest$[ebp]
  00015	52		 push	 edx
  00016	e8 00 00 00 00	 call	 ??$_Copy_memmove_tail@PAK@std@@YAPAKQBDQAKII@Z ; std::_Copy_memmove_tail<unsigned long *>
  0001b	83 c4 10	 add	 esp, 16			; 00000010H

; 4771 : }

  0001e	5d		 pop	 ebp
  0001f	c3		 ret	 0
??$_Copy_memmove@PAKPAK@std@@YAPAKPAK00@Z ENDP		; std::_Copy_memmove<unsigned long *,unsigned long *>
_TEXT	ENDS
; Function compile flags: /Ogtp
; File C:\Program Files\Microsoft Visual Studio\2022\Professional\VC\Tools\MSVC\14.44.35207\include\xutility
;	COMDAT ??$_Copy_memmove@PAHPAH@std@@YAPAHPAH00@Z
_TEXT	SEGMENT
__First$ = 8						; size = 4
__Last$ = 12						; size = 4
__Dest$ = 16						; size = 4
??$_Copy_memmove@PAHPAH@std@@YAPAHPAH00@Z PROC		; std::_Copy_memmove<int *,int *>, COMDAT

; 4762 : _OutCtgIt _Copy_memmove(_CtgIt _First, _CtgIt _Last, _OutCtgIt _Dest) {

  00000	55		 push	 ebp
  00001	8b ec		 mov	 ebp, esp

; 4763 :     _STL_INTERNAL_CHECK(_First <= _Last);
; 4764 :     const auto _First_ptr    = _STD _To_address(_First);
; 4765 :     const auto _Last_ptr     = _STD _To_address(_Last);
; 4766 :     const auto _Object_count = static_cast<size_t>(_Last_ptr - _First_ptr);

  00003	8b 55 08	 mov	 edx, DWORD PTR __First$[ebp]
  00006	8b 4d 0c	 mov	 ecx, DWORD PTR __Last$[ebp]
  00009	2b ca		 sub	 ecx, edx
  0000b	8b c1		 mov	 eax, ecx
  0000d	c1 f8 02	 sar	 eax, 2

; 4767 :     const auto _First_ch     = const_cast<const char*>(reinterpret_cast<const volatile char*>(_First_ptr));
; 4768 :     const auto _Last_ch      = const_cast<const char*>(reinterpret_cast<const volatile char*>(_Last_ptr));
; 4769 :     const auto _Byte_count   = static_cast<size_t>(_Last_ch - _First_ch);
; 4770 :     return _STD _Copy_memmove_tail(_First_ch, _STD move(_Dest), _Byte_count, _Object_count);

  00010	50		 push	 eax
  00011	51		 push	 ecx
  00012	ff 75 10	 push	 DWORD PTR __Dest$[ebp]
  00015	52		 push	 edx
  00016	e8 00 00 00 00	 call	 ??$_Copy_memmove_tail@PAH@std@@YAPAHQBDQAHII@Z ; std::_Copy_memmove_tail<int *>
  0001b	83 c4 10	 add	 esp, 16			; 00000010H

; 4771 : }

  0001e	5d		 pop	 ebp
  0001f	c3		 ret	 0
??$_Copy_memmove@PAHPAH@std@@YAPAHPAH00@Z ENDP		; std::_Copy_memmove<int *,int *>
_TEXT	ENDS
; Function compile flags: /Ogtp
; File C:\Program Files\Microsoft Visual Studio\2022\Professional\VC\Tools\MSVC\14.44.35207\include\vector
; File C:\Program Files\Microsoft Visual Studio\2022\Professional\VC\Tools\MSVC\14.44.35207\include\xmemory
; File C:\Program Files\Microsoft Visual Studio\2022\Professional\VC\Tools\MSVC\14.44.35207\include\vector
; File C:\Program Files\Microsoft Visual Studio\2022\Professional\VC\Tools\MSVC\14.44.35207\include\xmemory
; File C:\Program Files\Microsoft Visual Studio\2022\Professional\VC\Tools\MSVC\14.44.35207\include\vector
; File C:\Program Files\Microsoft Visual Studio\2022\Professional\VC\Tools\MSVC\14.44.35207\include\xmemory
; File C:\Program Files\Microsoft Visual Studio\2022\Professional\VC\Tools\MSVC\14.44.35207\include\vector
; File C:\Program Files\Microsoft Visual Studio\2022\Professional\VC\Tools\MSVC\14.44.35207\include\xmemory
; File C:\Program Files\Microsoft Visual Studio\2022\Professional\VC\Tools\MSVC\14.44.35207\include\vector
; File C:\Program Files\Microsoft Visual Studio\2022\Professional\VC\Tools\MSVC\14.44.35207\include\xmemory
; File C:\Program Files\Microsoft Visual Studio\2022\Professional\VC\Tools\MSVC\14.44.35207\include\vector
; File C:\Program Files\Microsoft Visual Studio\2022\Professional\VC\Tools\MSVC\14.44.35207\include\xmemory
; File C:\Program Files\Microsoft Visual Studio\2022\Professional\VC\Tools\MSVC\14.44.35207\include\vector
; File C:\Program Files\Microsoft Visual Studio\2022\Professional\VC\Tools\MSVC\14.44.35207\include\xmemory
; File C:\Program Files\Microsoft Visual Studio\2022\Professional\VC\Tools\MSVC\14.44.35207\include\vector
; File C:\Program Files\Microsoft Visual Studio\2022\Professional\VC\Tools\MSVC\14.44.35207\include\xmemory
; File C:\Program Files\Microsoft Visual Studio\2022\Professional\VC\Tools\MSVC\14.44.35207\include\vector
;	COMDAT ??$_Emplace_reallocate@E@?$vector@EV?$allocator@E@std@@@std@@AAEPAEQAE$$QAE@Z
_TEXT	SEGMENT
__Newsize$1$ = -12					; size = 4
__Whereoff$1$ = -8					; size = 4
tv614 = -4						; size = 4
tv630 = -4						; size = 4
__Whereptr$ = 8						; size = 4
_<_Val_0>$ = 12						; size = 4
??$_Emplace_reallocate@E@?$vector@EV?$allocator@E@std@@@std@@AAEPAEQAE$$QAE@Z PROC ; std::vector<unsigned char,std::allocator<unsigned char> >::_Emplace_reallocate<unsigned char>, COMDAT
; _this$ = ecx

; 875  :     _CONSTEXPR20 pointer _Emplace_reallocate(const pointer _Whereptr, _Valty&&... _Val) {

  00000	55		 push	 ebp
  00001	8b ec		 mov	 ebp, esp
  00003	83 ec 0c	 sub	 esp, 12			; 0000000cH

; 876  :         // reallocate and insert by perfectly forwarding _Val at _Whereptr
; 877  :         _Alty& _Al        = _Getal();
; 878  :         auto& _My_data    = _Mypair._Myval2;
; 879  :         pointer& _Myfirst = _My_data._Myfirst;
; 880  :         pointer& _Mylast  = _My_data._Mylast;
; 881  : 
; 882  :         _STL_INTERNAL_CHECK(_Mylast == _My_data._Myend); // check that we have no unused capacity
; 883  : 
; 884  :         const auto _Whereoff = static_cast<size_type>(_Whereptr - _Myfirst);

  00006	8b 45 08	 mov	 eax, DWORD PTR __Whereptr$[ebp]
  00009	56		 push	 esi
  0000a	8b f1		 mov	 esi, ecx
  0000c	8b 0e		 mov	 ecx, DWORD PTR [esi]
  0000e	2b c1		 sub	 eax, ecx
  00010	89 45 f8	 mov	 DWORD PTR __Whereoff$1$[ebp], eax

; 885  :         const auto _Oldsize  = static_cast<size_type>(_Mylast - _Myfirst);

  00013	8b 46 04	 mov	 eax, DWORD PTR [esi+4]
  00016	2b c1		 sub	 eax, ecx

; 886  : 
; 887  :         if (_Oldsize == max_size()) {

  00018	3d ff ff ff 7f	 cmp	 eax, 2147483647		; 7fffffffH
  0001d	0f 84 f0 00 00
	00		 je	 $LN105@Emplace_re

; 1924 :         return static_cast<size_type>(_My_data._Myend - _My_data._Myfirst);

  00023	8b 56 08	 mov	 edx, DWORD PTR [esi+8]
  00026	2b d1		 sub	 edx, ecx
  00028	53		 push	 ebx
  00029	57		 push	 edi

; 889  :         }
; 890  : 
; 891  :         const size_type _Newsize = _Oldsize + 1;

  0002a	8d 78 01	 lea	 edi, DWORD PTR [eax+1]

; 2011 :         if (_Oldcapacity > _Max - _Oldcapacity / 2) {

  0002d	8b ca		 mov	 ecx, edx
  0002f	d1 e9		 shr	 ecx, 1
  00031	b8 ff ff ff 7f	 mov	 eax, 2147483647		; 7fffffffH
  00036	2b c1		 sub	 eax, ecx

; 889  :         }
; 890  : 
; 891  :         const size_type _Newsize = _Oldsize + 1;

  00038	89 7d f4	 mov	 DWORD PTR __Newsize$1$[ebp], edi

; 2011 :         if (_Oldcapacity > _Max - _Oldcapacity / 2) {

  0003b	3b d0		 cmp	 edx, eax
  0003d	76 0d		 jbe	 SHORT $LN8@Emplace_re

; 2012 :             return _Max; // geometric growth would overflow

  0003f	bb ff ff ff 7f	 mov	 ebx, 2147483647		; 7fffffffH
; File C:\Program Files\Microsoft Visual Studio\2022\Professional\VC\Tools\MSVC\14.44.35207\include\xmemory

; 253  :             return _Allocate_manually_vector_aligned<_Traits>(_Bytes);

  00044	53		 push	 ebx
  00045	e8 00 00 00 00	 call	 ??$_Allocate_manually_vector_aligned@U_Default_allocate_traits@std@@@std@@YAPAXI@Z ; std::_Allocate_manually_vector_aligned<std::_Default_allocate_traits>
  0004a	eb 29		 jmp	 SHORT $LN103@Emplace_re
$LN8@Emplace_re:
; File C:\Program Files\Microsoft Visual Studio\2022\Professional\VC\Tools\MSVC\14.44.35207\include\vector

; 2015 :         const size_type _Geometric = _Oldcapacity + _Oldcapacity / 2;

  0004c	8d 04 11	 lea	 eax, DWORD PTR [ecx+edx]
; File C:\Program Files\Microsoft Visual Studio\2022\Professional\VC\Tools\MSVC\14.44.35207\include\xmemory

; 227  :     if (_Bytes == 0) {

  0004f	8b df		 mov	 ebx, edi
  00051	3b c7		 cmp	 eax, edi
  00053	0f 43 d8	 cmovae	 ebx, eax
  00056	8b c3		 mov	 eax, ebx
  00058	85 db		 test	 ebx, ebx
  0005a	75 04		 jne	 SHORT $LN19@Emplace_re

; 228  :         return nullptr;

  0005c	33 ff		 xor	 edi, edi
  0005e	eb 1a		 jmp	 SHORT $LN18@Emplace_re
$LN19@Emplace_re:

; 229  :     }
; 230  : 
; 231  : #if _HAS_CXX20 // TRANSITION, GH-1532
; 232  :     if (_STD is_constant_evaluated()) {
; 233  :         return _Traits::_Allocate(_Bytes);
; 234  :     }
; 235  : #endif // _HAS_CXX20
; 236  : 
; 237  : #ifdef __cpp_aligned_new
; 238  :     if constexpr (_Align > __STDCPP_DEFAULT_NEW_ALIGNMENT__) {
; 239  :         size_t _Passed_align = _Align;
; 240  : #if defined(_M_IX86) || defined(_M_X64)
; 241  :         if (_Bytes >= _Big_allocation_threshold) {
; 242  :             // boost the alignment of big allocations to help autovectorization
; 243  :             _Passed_align = (_STD max)(_Align, _Big_allocation_alignment);
; 244  :         }
; 245  : #endif // defined(_M_IX86) || defined(_M_X64)
; 246  :         return _Traits::_Allocate_aligned(_Bytes, _Passed_align);
; 247  :     } else
; 248  : #endif // defined(__cpp_aligned_new)
; 249  :     {
; 250  : #if defined(_M_IX86) || defined(_M_X64)
; 251  :         if (_Bytes >= _Big_allocation_threshold) {

  00060	3d 00 10 00 00	 cmp	 eax, 4096		; 00001000H
  00065	72 08		 jb	 SHORT $LN20@Emplace_re

; 253  :             return _Allocate_manually_vector_aligned<_Traits>(_Bytes);

  00067	53		 push	 ebx
  00068	e8 00 00 00 00	 call	 ??$_Allocate_manually_vector_aligned@U_Default_allocate_traits@std@@@std@@YAPAXI@Z ; std::_Allocate_manually_vector_aligned<std::_Default_allocate_traits>
  0006d	eb 06		 jmp	 SHORT $LN103@Emplace_re
$LN20@Emplace_re:

; 136  :         return ::operator new(_Bytes);

  0006f	50		 push	 eax
  00070	e8 00 00 00 00	 call	 ??2@YAPAXI@Z		; operator new
$LN103@Emplace_re:
; File C:\Program Files\Microsoft Visual Studio\2022\Professional\VC\Tools\MSVC\14.44.35207\include\vector

; 900  :         _Alty_traits::construct(_Al, _STD _Unfancy(_Newvec + _Whereoff), _STD forward<_Valty>(_Val)...);

  00075	8b f8		 mov	 edi, eax
  00077	83 c4 04	 add	 esp, 4
$LN18@Emplace_re:
  0007a	8b 45 0c	 mov	 eax, DWORD PTR _<_Val_0>$[ebp]
  0007d	8b 4d f8	 mov	 ecx, DWORD PTR __Whereoff$1$[ebp]
  00080	03 cf		 add	 ecx, edi
  00082	89 4d fc	 mov	 DWORD PTR tv614[ebp], ecx
  00085	8a 00		 mov	 al, BYTE PTR [eax]
  00087	88 01		 mov	 BYTE PTR [ecx], al

; 901  :         _Constructed_first = _Newvec + _Whereoff;
; 902  : 
; 903  :         if (_Whereptr == _Mylast) { // at back, provide strong guarantee

  00089	8b 4e 04	 mov	 ecx, DWORD PTR [esi+4]
  0008c	8b 45 08	 mov	 eax, DWORD PTR __Whereptr$[ebp]
  0008f	8b 16		 mov	 edx, DWORD PTR [esi]
  00091	3b c1		 cmp	 eax, ecx
  00093	75 04		 jne	 SHORT $LN3@Emplace_re
; File C:\Program Files\Microsoft Visual Studio\2022\Professional\VC\Tools\MSVC\14.44.35207\include\xmemory

; 1992 :             _STD _Copy_memmove(_UFirst, _ULast, _STD _Unfancy(_Dest));

  00095	8b c7		 mov	 eax, edi
; File C:\Program Files\Microsoft Visual Studio\2022\Professional\VC\Tools\MSVC\14.44.35207\include\vector

; 909  :         } else { // provide basic guarantee

  00097	eb 15		 jmp	 SHORT $LN46@Emplace_re
$LN3@Emplace_re:
; File C:\Program Files\Microsoft Visual Studio\2022\Professional\VC\Tools\MSVC\14.44.35207\include\xmemory

; 1992 :             _STD _Copy_memmove(_UFirst, _ULast, _STD _Unfancy(_Dest));

  00099	57		 push	 edi
  0009a	50		 push	 eax
  0009b	52		 push	 edx
  0009c	e8 00 00 00 00	 call	 ??$_Copy_memmove@PAEPAE@std@@YAPAEPAE00@Z ; std::_Copy_memmove<unsigned char *,unsigned char *>
; File C:\Program Files\Microsoft Visual Studio\2022\Professional\VC\Tools\MSVC\14.44.35207\include\vector

; 912  :             _STD _Uninitialized_move(_Whereptr, _Mylast, _Newvec + _Whereoff + 1, _Al);

  000a1	8b 45 fc	 mov	 eax, DWORD PTR tv614[ebp]
; File C:\Program Files\Microsoft Visual Studio\2022\Professional\VC\Tools\MSVC\14.44.35207\include\xmemory

; 1992 :             _STD _Copy_memmove(_UFirst, _ULast, _STD _Unfancy(_Dest));

  000a4	83 c4 0c	 add	 esp, 12			; 0000000cH
  000a7	8b 55 08	 mov	 edx, DWORD PTR __Whereptr$[ebp]
; File C:\Program Files\Microsoft Visual Studio\2022\Professional\VC\Tools\MSVC\14.44.35207\include\vector

; 912  :             _STD _Uninitialized_move(_Whereptr, _Mylast, _Newvec + _Whereoff + 1, _Al);

  000aa	40		 inc	 eax
; File C:\Program Files\Microsoft Visual Studio\2022\Professional\VC\Tools\MSVC\14.44.35207\include\xmemory

; 1992 :             _STD _Copy_memmove(_UFirst, _ULast, _STD _Unfancy(_Dest));

  000ab	8b 4e 04	 mov	 ecx, DWORD PTR [esi+4]
$LN46@Emplace_re:
; File C:\Program Files\Microsoft Visual Studio\2022\Professional\VC\Tools\MSVC\14.44.35207\include\vector

; 915  :         _Guard._New_begin = nullptr;

  000ae	50		 push	 eax
  000af	51		 push	 ecx
  000b0	52		 push	 edx
  000b1	e8 00 00 00 00	 call	 ??$_Copy_memmove@PAEPAE@std@@YAPAEPAE00@Z ; std::_Copy_memmove<unsigned char *,unsigned char *>

; 2069 :         if (_Myfirst) { // destroy and deallocate old array

  000b6	8b 06		 mov	 eax, DWORD PTR [esi]

; 915  :         _Guard._New_begin = nullptr;

  000b8	83 c4 0c	 add	 esp, 12			; 0000000cH

; 2069 :         if (_Myfirst) { // destroy and deallocate old array

  000bb	85 c0		 test	 eax, eax
  000bd	74 29		 je	 SHORT $LN66@Emplace_re

; 2070 :             _STD _Destroy_range(_Myfirst, _Mylast, _Al);
; 2071 :             _ASAN_VECTOR_REMOVE;
; 2072 :             _Al.deallocate(_Myfirst, static_cast<size_type>(_Myend - _Myfirst));

  000bf	8b 4e 08	 mov	 ecx, DWORD PTR [esi+8]
  000c2	2b c8		 sub	 ecx, eax
; File C:\Program Files\Microsoft Visual Studio\2022\Professional\VC\Tools\MSVC\14.44.35207\include\xmemory

; 284  :         if (_Bytes >= _Big_allocation_threshold) {

  000c4	81 f9 00 10 00
	00		 cmp	 ecx, 4096		; 00001000H
  000ca	72 12		 jb	 SHORT $LN71@Emplace_re

; 205  :     const uintptr_t _Ptr_container   = _Ptr_user[-1];

  000cc	8b 50 fc	 mov	 edx, DWORD PTR [eax-4]
  000cf	83 c1 23	 add	 ecx, 35			; 00000023H

; 206  : 
; 207  :     // If the following asserts, it likely means that we are performing
; 208  :     // an aligned delete on memory coming from an unaligned allocation.
; 209  :     _STL_ASSERT(_Ptr_user[-2] == _Big_allocation_sentinel, "invalid argument");
; 210  : 
; 211  :     // Extra paranoia on aligned allocation/deallocation; ensure _Ptr_container is
; 212  :     // in range [_Min_back_shift, _Non_user_size]
; 213  : #ifdef _DEBUG
; 214  :     constexpr uintptr_t _Min_back_shift = 2 * sizeof(void*);
; 215  : #else // ^^^ defined(_DEBUG) / !defined(_DEBUG) vvv
; 216  :     constexpr uintptr_t _Min_back_shift = sizeof(void*);
; 217  : #endif // ^^^ !defined(_DEBUG) ^^^
; 218  :     const uintptr_t _Back_shift = reinterpret_cast<uintptr_t>(_Ptr) - _Ptr_container;

  000d2	2b c2		 sub	 eax, edx

; 219  :     _STL_VERIFY(_Back_shift >= _Min_back_shift && _Back_shift <= _Non_user_size, "invalid argument");

  000d4	83 c0 fc	 add	 eax, -4			; fffffffcH
  000d7	83 f8 1f	 cmp	 eax, 31			; 0000001fH
  000da	77 28		 ja	 SHORT $LN70@Emplace_re

; 220  :     _Ptr = reinterpret_cast<void*>(_Ptr_container);

  000dc	8b c2		 mov	 eax, edx
$LN71@Emplace_re:

; 289  :         ::operator delete(_Ptr, _Bytes);

  000de	51		 push	 ecx
  000df	50		 push	 eax
  000e0	e8 00 00 00 00	 call	 ??3@YAXPAXI@Z		; operator delete
  000e5	83 c4 08	 add	 esp, 8
$LN66@Emplace_re:
; File C:\Program Files\Microsoft Visual Studio\2022\Professional\VC\Tools\MSVC\14.44.35207\include\vector

; 2076 :         _Mylast  = _Newvec + _Newsize;

  000e8	8b 4d f4	 mov	 ecx, DWORD PTR __Newsize$1$[ebp]

; 916  :         _Change_array(_Newvec, _Newsize, _Newcapacity);
; 917  :         return _Newvec + _Whereoff;

  000eb	8b 45 fc	 mov	 eax, DWORD PTR tv614[ebp]

; 2076 :         _Mylast  = _Newvec + _Newsize;

  000ee	03 cf		 add	 ecx, edi
  000f0	89 3e		 mov	 DWORD PTR [esi], edi
  000f2	89 4e 04	 mov	 DWORD PTR [esi+4], ecx

; 2077 :         _Myend   = _Newvec + _Newcapacity;

  000f5	8d 0c 1f	 lea	 ecx, DWORD PTR [edi+ebx]

; 916  :         _Change_array(_Newvec, _Newsize, _Newcapacity);
; 917  :         return _Newvec + _Whereoff;

  000f8	5f		 pop	 edi
  000f9	5b		 pop	 ebx

; 2077 :         _Myend   = _Newvec + _Newcapacity;

  000fa	89 4e 08	 mov	 DWORD PTR [esi+8], ecx

; 918  :     }

  000fd	5e		 pop	 esi
  000fe	8b e5		 mov	 esp, ebp
  00100	5d		 pop	 ebp
  00101	c2 08 00	 ret	 8
$LN70@Emplace_re:
; File C:\Program Files\Microsoft Visual Studio\2022\Professional\VC\Tools\MSVC\14.44.35207\include\xmemory

; 219  :     _STL_VERIFY(_Back_shift >= _Min_back_shift && _Back_shift <= _Non_user_size, "invalid argument");

  00104	6a 00		 push	 0
  00106	6a 00		 push	 0
  00108	6a 00		 push	 0
  0010a	6a 00		 push	 0
  0010c	6a 00		 push	 0
  0010e	e8 00 00 00 00	 call	 __invoke_watson
$LN105@Emplace_re:
; File C:\Program Files\Microsoft Visual Studio\2022\Professional\VC\Tools\MSVC\14.44.35207\include\vector

; 888  :             _Xlength();

  00113	e8 00 00 00 00	 call	 ?_Xlength@?$vector@EV?$allocator@E@std@@@std@@CAXXZ ; std::vector<unsigned char,std::allocator<unsigned char> >::_Xlength
$LN102@Emplace_re:
  00118	cc		 int	 3
??$_Emplace_reallocate@E@?$vector@EV?$allocator@E@std@@@std@@AAEPAEQAE$$QAE@Z ENDP ; std::vector<unsigned char,std::allocator<unsigned char> >::_Emplace_reallocate<unsigned char>
_TEXT	ENDS
; Function compile flags: /Ogtp
; File C:\Program Files\Microsoft Visual Studio\2022\Professional\VC\Tools\MSVC\14.44.35207\include\vector
; File C:\Program Files\Microsoft Visual Studio\2022\Professional\VC\Tools\MSVC\14.44.35207\include\xmemory
; File C:\Program Files\Microsoft Visual Studio\2022\Professional\VC\Tools\MSVC\14.44.35207\include\vector
; File C:\Program Files\Microsoft Visual Studio\2022\Professional\VC\Tools\MSVC\14.44.35207\include\xmemory
; File C:\Program Files\Microsoft Visual Studio\2022\Professional\VC\Tools\MSVC\14.44.35207\include\vector
; File C:\Program Files\Microsoft Visual Studio\2022\Professional\VC\Tools\MSVC\14.44.35207\include\xmemory
; File C:\Program Files\Microsoft Visual Studio\2022\Professional\VC\Tools\MSVC\14.44.35207\include\vector
; File C:\Program Files\Microsoft Visual Studio\2022\Professional\VC\Tools\MSVC\14.44.35207\include\xmemory
; File C:\Program Files\Microsoft Visual Studio\2022\Professional\VC\Tools\MSVC\14.44.35207\include\vector
; File C:\Program Files\Microsoft Visual Studio\2022\Professional\VC\Tools\MSVC\14.44.35207\include\xmemory
; File C:\Program Files\Microsoft Visual Studio\2022\Professional\VC\Tools\MSVC\14.44.35207\include\vector
; File C:\Program Files\Microsoft Visual Studio\2022\Professional\VC\Tools\MSVC\14.44.35207\include\xmemory
; File C:\Program Files\Microsoft Visual Studio\2022\Professional\VC\Tools\MSVC\14.44.35207\include\vector
; File C:\Program Files\Microsoft Visual Studio\2022\Professional\VC\Tools\MSVC\14.44.35207\include\xmemory
; File C:\Program Files\Microsoft Visual Studio\2022\Professional\VC\Tools\MSVC\14.44.35207\include\vector
; File C:\Program Files\Microsoft Visual Studio\2022\Professional\VC\Tools\MSVC\14.44.35207\include\xmemory
; File C:\Program Files\Microsoft Visual Studio\2022\Professional\VC\Tools\MSVC\14.44.35207\include\vector
;	COMDAT ??$_Emplace_reallocate@H@?$vector@HV?$allocator@H@std@@@std@@AAEPAHQAH$$QAH@Z
_TEXT	SEGMENT
__Newsize$1$ = -12					; size = 4
tv652 = -8						; size = 4
tv650 = -4						; size = 4
__Whereptr$ = 8						; size = 4
_<_Val_0>$ = 12						; size = 4
??$_Emplace_reallocate@H@?$vector@HV?$allocator@H@std@@@std@@AAEPAHQAH$$QAH@Z PROC ; std::vector<int,std::allocator<int> >::_Emplace_reallocate<int>, COMDAT
; _this$ = ecx

; 875  :     _CONSTEXPR20 pointer _Emplace_reallocate(const pointer _Whereptr, _Valty&&... _Val) {

  00000	55		 push	 ebp
  00001	8b ec		 mov	 ebp, esp
  00003	83 ec 0c	 sub	 esp, 12			; 0000000cH
  00006	53		 push	 ebx

; 876  :         // reallocate and insert by perfectly forwarding _Val at _Whereptr
; 877  :         _Alty& _Al        = _Getal();
; 878  :         auto& _My_data    = _Mypair._Myval2;
; 879  :         pointer& _Myfirst = _My_data._Myfirst;
; 880  :         pointer& _Mylast  = _My_data._Mylast;
; 881  : 
; 882  :         _STL_INTERNAL_CHECK(_Mylast == _My_data._Myend); // check that we have no unused capacity
; 883  : 
; 884  :         const auto _Whereoff = static_cast<size_type>(_Whereptr - _Myfirst);

  00007	8b 5d 08	 mov	 ebx, DWORD PTR __Whereptr$[ebp]
  0000a	56		 push	 esi
  0000b	8b f1		 mov	 esi, ecx
  0000d	57		 push	 edi
  0000e	8b 0e		 mov	 ecx, DWORD PTR [esi]
  00010	2b d9		 sub	 ebx, ecx

; 885  :         const auto _Oldsize  = static_cast<size_type>(_Mylast - _Myfirst);

  00012	8b 46 04	 mov	 eax, DWORD PTR [esi+4]
  00015	2b c1		 sub	 eax, ecx
  00017	c1 fb 02	 sar	 ebx, 2
  0001a	c1 f8 02	 sar	 eax, 2

; 886  : 
; 887  :         if (_Oldsize == max_size()) {

  0001d	3d ff ff ff 3f	 cmp	 eax, 1073741823		; 3fffffffH
  00022	0f 84 13 01 00
	00		 je	 $LN111@Emplace_re

; 1924 :         return static_cast<size_type>(_My_data._Myend - _My_data._Myfirst);

  00028	8b 56 08	 mov	 edx, DWORD PTR [esi+8]

; 889  :         }
; 890  : 
; 891  :         const size_type _Newsize = _Oldsize + 1;

  0002b	8d 78 01	 lea	 edi, DWORD PTR [eax+1]

; 1924 :         return static_cast<size_type>(_My_data._Myend - _My_data._Myfirst);

  0002e	2b d1		 sub	 edx, ecx

; 889  :         }
; 890  : 
; 891  :         const size_type _Newsize = _Oldsize + 1;

  00030	89 7d f4	 mov	 DWORD PTR __Newsize$1$[ebp], edi

; 1924 :         return static_cast<size_type>(_My_data._Myend - _My_data._Myfirst);

  00033	c1 fa 02	 sar	 edx, 2

; 2011 :         if (_Oldcapacity > _Max - _Oldcapacity / 2) {

  00036	b8 ff ff ff 3f	 mov	 eax, 1073741823		; 3fffffffH
  0003b	8b ca		 mov	 ecx, edx
  0003d	d1 e9		 shr	 ecx, 1
  0003f	2b c1		 sub	 eax, ecx
  00041	3b d0		 cmp	 edx, eax
  00043	76 14		 jbe	 SHORT $LN8@Emplace_re

; 2012 :             return _Max; // geometric growth would overflow

  00045	b8 fc ff ff ff	 mov	 eax, -4			; fffffffcH
  0004a	c7 45 f8 fc ff
	ff ff		 mov	 DWORD PTR tv652[ebp], -4 ; fffffffcH
; File C:\Program Files\Microsoft Visual Studio\2022\Professional\VC\Tools\MSVC\14.44.35207\include\xmemory

; 253  :             return _Allocate_manually_vector_aligned<_Traits>(_Bytes);

  00051	50		 push	 eax
  00052	e8 00 00 00 00	 call	 ??$_Allocate_manually_vector_aligned@U_Default_allocate_traits@std@@@std@@YAPAXI@Z ; std::_Allocate_manually_vector_aligned<std::_Default_allocate_traits>
  00057	eb 3d		 jmp	 SHORT $LN109@Emplace_re
$LN8@Emplace_re:
; File C:\Program Files\Microsoft Visual Studio\2022\Professional\VC\Tools\MSVC\14.44.35207\include\vector

; 2015 :         const size_type _Geometric = _Oldcapacity + _Oldcapacity / 2;

  00059	8d 04 11	 lea	 eax, DWORD PTR [ecx+edx]
; File C:\Program Files\Microsoft Visual Studio\2022\Professional\VC\Tools\MSVC\14.44.35207\include\xmemory

; 117  :         if (_Count > _Max_possible) {

  0005c	8b cf		 mov	 ecx, edi
  0005e	3b c7		 cmp	 eax, edi
  00060	0f 43 c8	 cmovae	 ecx, eax
  00063	81 f9 ff ff ff
	3f		 cmp	 ecx, 1073741823		; 3fffffffH
  00069	0f 87 d1 00 00
	00		 ja	 $LN112@Emplace_re

; 119  :         }
; 120  :     }
; 121  : 
; 122  :     return _Count * _Ty_size;

  0006f	8d 04 8d 00 00
	00 00		 lea	 eax, DWORD PTR [ecx*4]
  00076	89 45 f8	 mov	 DWORD PTR tv652[ebp], eax

; 227  :     if (_Bytes == 0) {

  00079	85 c0		 test	 eax, eax
  0007b	75 04		 jne	 SHORT $LN23@Emplace_re

; 228  :         return nullptr;

  0007d	33 ff		 xor	 edi, edi
  0007f	eb 1a		 jmp	 SHORT $LN22@Emplace_re
$LN23@Emplace_re:

; 229  :     }
; 230  : 
; 231  : #if _HAS_CXX20 // TRANSITION, GH-1532
; 232  :     if (_STD is_constant_evaluated()) {
; 233  :         return _Traits::_Allocate(_Bytes);
; 234  :     }
; 235  : #endif // _HAS_CXX20
; 236  : 
; 237  : #ifdef __cpp_aligned_new
; 238  :     if constexpr (_Align > __STDCPP_DEFAULT_NEW_ALIGNMENT__) {
; 239  :         size_t _Passed_align = _Align;
; 240  : #if defined(_M_IX86) || defined(_M_X64)
; 241  :         if (_Bytes >= _Big_allocation_threshold) {
; 242  :             // boost the alignment of big allocations to help autovectorization
; 243  :             _Passed_align = (_STD max)(_Align, _Big_allocation_alignment);
; 244  :         }
; 245  : #endif // defined(_M_IX86) || defined(_M_X64)
; 246  :         return _Traits::_Allocate_aligned(_Bytes, _Passed_align);
; 247  :     } else
; 248  : #endif // defined(__cpp_aligned_new)
; 249  :     {
; 250  : #if defined(_M_IX86) || defined(_M_X64)
; 251  :         if (_Bytes >= _Big_allocation_threshold) {

  00081	3d 00 10 00 00	 cmp	 eax, 4096		; 00001000H
  00086	72 08		 jb	 SHORT $LN24@Emplace_re

; 253  :             return _Allocate_manually_vector_aligned<_Traits>(_Bytes);

  00088	50		 push	 eax
  00089	e8 00 00 00 00	 call	 ??$_Allocate_manually_vector_aligned@U_Default_allocate_traits@std@@@std@@YAPAXI@Z ; std::_Allocate_manually_vector_aligned<std::_Default_allocate_traits>
  0008e	eb 06		 jmp	 SHORT $LN109@Emplace_re
$LN24@Emplace_re:

; 136  :         return ::operator new(_Bytes);

  00090	50		 push	 eax
  00091	e8 00 00 00 00	 call	 ??2@YAPAXI@Z		; operator new
$LN109@Emplace_re:
; File C:\Program Files\Microsoft Visual Studio\2022\Professional\VC\Tools\MSVC\14.44.35207\include\vector

; 900  :         _Alty_traits::construct(_Al, _STD _Unfancy(_Newvec + _Whereoff), _STD forward<_Valty>(_Val)...);

  00096	8b f8		 mov	 edi, eax
  00098	83 c4 04	 add	 esp, 4
$LN22@Emplace_re:
  0009b	8b 45 0c	 mov	 eax, DWORD PTR _<_Val_0>$[ebp]
  0009e	8d 0c 9f	 lea	 ecx, DWORD PTR [edi+ebx*4]

; 901  :         _Constructed_first = _Newvec + _Whereoff;
; 902  : 
; 903  :         if (_Whereptr == _Mylast) { // at back, provide strong guarantee

  000a1	8b 5d 08	 mov	 ebx, DWORD PTR __Whereptr$[ebp]
  000a4	89 4d fc	 mov	 DWORD PTR tv650[ebp], ecx
  000a7	8b 00		 mov	 eax, DWORD PTR [eax]
  000a9	89 01		 mov	 DWORD PTR [ecx], eax
  000ab	8b 46 04	 mov	 eax, DWORD PTR [esi+4]
  000ae	8b 0e		 mov	 ecx, DWORD PTR [esi]
  000b0	3b d8		 cmp	 ebx, eax
  000b2	75 07		 jne	 SHORT $LN3@Emplace_re

; 909  :         } else { // provide basic guarantee

  000b4	8b 5d fc	 mov	 ebx, DWORD PTR tv650[ebp]
; File C:\Program Files\Microsoft Visual Studio\2022\Professional\VC\Tools\MSVC\14.44.35207\include\xmemory

; 1992 :             _STD _Copy_memmove(_UFirst, _ULast, _STD _Unfancy(_Dest));

  000b7	8b d7		 mov	 edx, edi
; File C:\Program Files\Microsoft Visual Studio\2022\Professional\VC\Tools\MSVC\14.44.35207\include\vector

; 909  :         } else { // provide basic guarantee

  000b9	eb 16		 jmp	 SHORT $LN52@Emplace_re
$LN3@Emplace_re:
; File C:\Program Files\Microsoft Visual Studio\2022\Professional\VC\Tools\MSVC\14.44.35207\include\xmemory

; 1992 :             _STD _Copy_memmove(_UFirst, _ULast, _STD _Unfancy(_Dest));

  000bb	57		 push	 edi
  000bc	53		 push	 ebx
  000bd	51		 push	 ecx
  000be	e8 00 00 00 00	 call	 ??$_Copy_memmove@PAHPAH@std@@YAPAHPAH00@Z ; std::_Copy_memmove<int *,int *>
  000c3	8b 46 04	 mov	 eax, DWORD PTR [esi+4]
  000c6	8b cb		 mov	 ecx, ebx
; File C:\Program Files\Microsoft Visual Studio\2022\Professional\VC\Tools\MSVC\14.44.35207\include\vector

; 912  :             _STD _Uninitialized_move(_Whereptr, _Mylast, _Newvec + _Whereoff + 1, _Al);

  000c8	8b 5d fc	 mov	 ebx, DWORD PTR tv650[ebp]
; File C:\Program Files\Microsoft Visual Studio\2022\Professional\VC\Tools\MSVC\14.44.35207\include\xmemory

; 1992 :             _STD _Copy_memmove(_UFirst, _ULast, _STD _Unfancy(_Dest));

  000cb	83 c4 0c	 add	 esp, 12			; 0000000cH
; File C:\Program Files\Microsoft Visual Studio\2022\Professional\VC\Tools\MSVC\14.44.35207\include\vector

; 912  :             _STD _Uninitialized_move(_Whereptr, _Mylast, _Newvec + _Whereoff + 1, _Al);

  000ce	8d 53 04	 lea	 edx, DWORD PTR [ebx+4]
$LN52@Emplace_re:

; 913  :         }
; 914  : 
; 915  :         _Guard._New_begin = nullptr;

  000d1	52		 push	 edx
  000d2	50		 push	 eax
  000d3	51		 push	 ecx
  000d4	e8 00 00 00 00	 call	 ??$_Copy_memmove@PAHPAH@std@@YAPAHPAH00@Z ; std::_Copy_memmove<int *,int *>

; 2069 :         if (_Myfirst) { // destroy and deallocate old array

  000d9	8b 06		 mov	 eax, DWORD PTR [esi]

; 913  :         }
; 914  : 
; 915  :         _Guard._New_begin = nullptr;

  000db	83 c4 0c	 add	 esp, 12			; 0000000cH

; 2069 :         if (_Myfirst) { // destroy and deallocate old array

  000de	85 c0		 test	 eax, eax
  000e0	74 2c		 je	 SHORT $LN72@Emplace_re

; 2070 :             _STD _Destroy_range(_Myfirst, _Mylast, _Al);
; 2071 :             _ASAN_VECTOR_REMOVE;
; 2072 :             _Al.deallocate(_Myfirst, static_cast<size_type>(_Myend - _Myfirst));

  000e2	8b 4e 08	 mov	 ecx, DWORD PTR [esi+8]
  000e5	2b c8		 sub	 ecx, eax
; File C:\Program Files\Microsoft Visual Studio\2022\Professional\VC\Tools\MSVC\14.44.35207\include\xmemory

; 985  :         _STD _Deallocate<_New_alignof<_Ty>>(_Ptr, sizeof(_Ty) * _Count);

  000e7	83 e1 fc	 and	 ecx, -4			; fffffffcH

; 284  :         if (_Bytes >= _Big_allocation_threshold) {

  000ea	81 f9 00 10 00
	00		 cmp	 ecx, 4096		; 00001000H
  000f0	72 12		 jb	 SHORT $LN77@Emplace_re

; 205  :     const uintptr_t _Ptr_container   = _Ptr_user[-1];

  000f2	8b 50 fc	 mov	 edx, DWORD PTR [eax-4]
  000f5	83 c1 23	 add	 ecx, 35			; 00000023H

; 206  : 
; 207  :     // If the following asserts, it likely means that we are performing
; 208  :     // an aligned delete on memory coming from an unaligned allocation.
; 209  :     _STL_ASSERT(_Ptr_user[-2] == _Big_allocation_sentinel, "invalid argument");
; 210  : 
; 211  :     // Extra paranoia on aligned allocation/deallocation; ensure _Ptr_container is
; 212  :     // in range [_Min_back_shift, _Non_user_size]
; 213  : #ifdef _DEBUG
; 214  :     constexpr uintptr_t _Min_back_shift = 2 * sizeof(void*);
; 215  : #else // ^^^ defined(_DEBUG) / !defined(_DEBUG) vvv
; 216  :     constexpr uintptr_t _Min_back_shift = sizeof(void*);
; 217  : #endif // ^^^ !defined(_DEBUG) ^^^
; 218  :     const uintptr_t _Back_shift = reinterpret_cast<uintptr_t>(_Ptr) - _Ptr_container;

  000f8	2b c2		 sub	 eax, edx

; 219  :     _STL_VERIFY(_Back_shift >= _Min_back_shift && _Back_shift <= _Non_user_size, "invalid argument");

  000fa	83 c0 fc	 add	 eax, -4			; fffffffcH
  000fd	83 f8 1f	 cmp	 eax, 31			; 0000001fH
  00100	77 2a		 ja	 SHORT $LN76@Emplace_re

; 220  :     _Ptr = reinterpret_cast<void*>(_Ptr_container);

  00102	8b c2		 mov	 eax, edx
$LN77@Emplace_re:

; 289  :         ::operator delete(_Ptr, _Bytes);

  00104	51		 push	 ecx
  00105	50		 push	 eax
  00106	e8 00 00 00 00	 call	 ??3@YAXPAXI@Z		; operator delete
  0010b	83 c4 08	 add	 esp, 8
$LN72@Emplace_re:
; File C:\Program Files\Microsoft Visual Studio\2022\Professional\VC\Tools\MSVC\14.44.35207\include\vector

; 2076 :         _Mylast  = _Newvec + _Newsize;

  0010e	8b 45 f4	 mov	 eax, DWORD PTR __Newsize$1$[ebp]
  00111	89 3e		 mov	 DWORD PTR [esi], edi
  00113	8d 0c 87	 lea	 ecx, DWORD PTR [edi+eax*4]

; 916  :         _Change_array(_Newvec, _Newsize, _Newcapacity);
; 917  :         return _Newvec + _Whereoff;

  00116	8b c3		 mov	 eax, ebx

; 2076 :         _Mylast  = _Newvec + _Newsize;

  00118	89 4e 04	 mov	 DWORD PTR [esi+4], ecx

; 2077 :         _Myend   = _Newvec + _Newcapacity;

  0011b	8b 4d f8	 mov	 ecx, DWORD PTR tv652[ebp]
  0011e	03 cf		 add	 ecx, edi

; 918  :     }

  00120	5f		 pop	 edi

; 2077 :         _Myend   = _Newvec + _Newcapacity;

  00121	89 4e 08	 mov	 DWORD PTR [esi+8], ecx

; 918  :     }

  00124	5e		 pop	 esi
  00125	5b		 pop	 ebx
  00126	8b e5		 mov	 esp, ebp
  00128	5d		 pop	 ebp
  00129	c2 08 00	 ret	 8
$LN76@Emplace_re:
; File C:\Program Files\Microsoft Visual Studio\2022\Professional\VC\Tools\MSVC\14.44.35207\include\xmemory

; 219  :     _STL_VERIFY(_Back_shift >= _Min_back_shift && _Back_shift <= _Non_user_size, "invalid argument");

  0012c	6a 00		 push	 0
  0012e	6a 00		 push	 0
  00130	6a 00		 push	 0
  00132	6a 00		 push	 0
  00134	6a 00		 push	 0
  00136	e8 00 00 00 00	 call	 __invoke_watson
$LN111@Emplace_re:
; File C:\Program Files\Microsoft Visual Studio\2022\Professional\VC\Tools\MSVC\14.44.35207\include\vector

; 888  :             _Xlength();

  0013b	e8 00 00 00 00	 call	 ?_Xlength@?$vector@HV?$allocator@H@std@@@std@@CAXXZ ; std::vector<int,std::allocator<int> >::_Xlength
$LN112@Emplace_re:
; File C:\Program Files\Microsoft Visual Studio\2022\Professional\VC\Tools\MSVC\14.44.35207\include\xmemory

; 118  :             _Throw_bad_array_new_length(); // multiply overflow

  00140	e8 00 00 00 00	 call	 ?_Throw_bad_array_new_length@std@@YAXXZ ; std::_Throw_bad_array_new_length
$LN108@Emplace_re:
  00145	cc		 int	 3
??$_Emplace_reallocate@H@?$vector@HV?$allocator@H@std@@@std@@AAEPAHQAH$$QAH@Z ENDP ; std::vector<int,std::allocator<int> >::_Emplace_reallocate<int>
_TEXT	ENDS
; Function compile flags: /Ogtp
; File C:\Program Files\Microsoft Visual Studio\2022\Professional\VC\Tools\MSVC\14.44.35207\include\vector
;	COMDAT ?_Xlength@?$vector@EV?$allocator@E@std@@@std@@CAXXZ
_TEXT	SEGMENT
?_Xlength@?$vector@EV?$allocator@E@std@@@std@@CAXXZ PROC ; std::vector<unsigned char,std::allocator<unsigned char> >::_Xlength, COMDAT

; 2184 :         _Xlength_error("vector too long");

  00000	68 00 00 00 00	 push	 OFFSET ??_C@_0BA@FOIKENOD@vector?5too?5long@
  00005	e8 00 00 00 00	 call	 ?_Xlength_error@std@@YAXPBD@Z ; std::_Xlength_error
$LN3@Xlength:
  0000a	cc		 int	 3
?_Xlength@?$vector@EV?$allocator@E@std@@@std@@CAXXZ ENDP ; std::vector<unsigned char,std::allocator<unsigned char> >::_Xlength
_TEXT	ENDS
; Function compile flags: /Ogtp
; File C:\Program Files\Microsoft Visual Studio\2022\Professional\VC\Tools\MSVC\14.44.35207\include\vector
; File C:\Program Files\Microsoft Visual Studio\2022\Professional\VC\Tools\MSVC\14.44.35207\include\xmemory
; File C:\Program Files\Microsoft Visual Studio\2022\Professional\VC\Tools\MSVC\14.44.35207\include\vector
; File C:\Program Files\Microsoft Visual Studio\2022\Professional\VC\Tools\MSVC\14.44.35207\include\xmemory
; File C:\Program Files\Microsoft Visual Studio\2022\Professional\VC\Tools\MSVC\14.44.35207\include\vector
; File C:\Program Files\Microsoft Visual Studio\2022\Professional\VC\Tools\MSVC\14.44.35207\include\xmemory
; File C:\Program Files\Microsoft Visual Studio\2022\Professional\VC\Tools\MSVC\14.44.35207\include\vector
;	COMDAT ??1?$vector@EV?$allocator@E@std@@@std@@QAE@XZ
_TEXT	SEGMENT
??1?$vector@EV?$allocator@E@std@@@std@@QAE@XZ PROC	; std::vector<unsigned char,std::allocator<unsigned char> >::~vector<unsigned char,std::allocator<unsigned char> >, COMDAT
; _this$ = ecx

; 829  :     _CONSTEXPR20 ~vector() noexcept {

  00000	56		 push	 esi
  00001	8b f1		 mov	 esi, ecx

; 2090 :         if (_Myfirst) { // destroy and deallocate old array

  00003	8b 06		 mov	 eax, DWORD PTR [esi]
  00005	85 c0		 test	 eax, eax
  00007	74 3d		 je	 SHORT $LN5@vector

; 2091 :             _STD _Destroy_range(_Myfirst, _Mylast, _Al);
; 2092 :             _ASAN_VECTOR_REMOVE;
; 2093 :             _Al.deallocate(_Myfirst, static_cast<size_type>(_Myend - _Myfirst));

  00009	8b 4e 08	 mov	 ecx, DWORD PTR [esi+8]
  0000c	2b c8		 sub	 ecx, eax
; File C:\Program Files\Microsoft Visual Studio\2022\Professional\VC\Tools\MSVC\14.44.35207\include\xmemory

; 284  :         if (_Bytes >= _Big_allocation_threshold) {

  0000e	81 f9 00 10 00
	00		 cmp	 ecx, 4096		; 00001000H
  00014	72 12		 jb	 SHORT $LN18@vector

; 205  :     const uintptr_t _Ptr_container   = _Ptr_user[-1];

  00016	8b 50 fc	 mov	 edx, DWORD PTR [eax-4]
  00019	83 c1 23	 add	 ecx, 35			; 00000023H

; 206  : 
; 207  :     // If the following asserts, it likely means that we are performing
; 208  :     // an aligned delete on memory coming from an unaligned allocation.
; 209  :     _STL_ASSERT(_Ptr_user[-2] == _Big_allocation_sentinel, "invalid argument");
; 210  : 
; 211  :     // Extra paranoia on aligned allocation/deallocation; ensure _Ptr_container is
; 212  :     // in range [_Min_back_shift, _Non_user_size]
; 213  : #ifdef _DEBUG
; 214  :     constexpr uintptr_t _Min_back_shift = 2 * sizeof(void*);
; 215  : #else // ^^^ defined(_DEBUG) / !defined(_DEBUG) vvv
; 216  :     constexpr uintptr_t _Min_back_shift = sizeof(void*);
; 217  : #endif // ^^^ !defined(_DEBUG) ^^^
; 218  :     const uintptr_t _Back_shift = reinterpret_cast<uintptr_t>(_Ptr) - _Ptr_container;

  0001c	2b c2		 sub	 eax, edx

; 219  :     _STL_VERIFY(_Back_shift >= _Min_back_shift && _Back_shift <= _Non_user_size, "invalid argument");

  0001e	83 c0 fc	 add	 eax, -4			; fffffffcH
  00021	83 f8 1f	 cmp	 eax, 31			; 0000001fH
  00024	77 22		 ja	 SHORT $LN17@vector

; 220  :     _Ptr = reinterpret_cast<void*>(_Ptr_container);

  00026	8b c2		 mov	 eax, edx
$LN18@vector:

; 289  :         ::operator delete(_Ptr, _Bytes);

  00028	51		 push	 ecx
  00029	50		 push	 eax
  0002a	e8 00 00 00 00	 call	 ??3@YAXPAXI@Z		; operator delete
; File C:\Program Files\Microsoft Visual Studio\2022\Professional\VC\Tools\MSVC\14.44.35207\include\vector

; 2095 :             _Myfirst = nullptr;

  0002f	c7 06 00 00 00
	00		 mov	 DWORD PTR [esi], 0
; File C:\Program Files\Microsoft Visual Studio\2022\Professional\VC\Tools\MSVC\14.44.35207\include\xmemory

; 289  :         ::operator delete(_Ptr, _Bytes);

  00035	83 c4 08	 add	 esp, 8
; File C:\Program Files\Microsoft Visual Studio\2022\Professional\VC\Tools\MSVC\14.44.35207\include\vector

; 2096 :             _Mylast  = nullptr;

  00038	c7 46 04 00 00
	00 00		 mov	 DWORD PTR [esi+4], 0

; 2097 :             _Myend   = nullptr;

  0003f	c7 46 08 00 00
	00 00		 mov	 DWORD PTR [esi+8], 0
$LN5@vector:
  00046	5e		 pop	 esi

; 835  :     }

  00047	c3		 ret	 0
$LN17@vector:
; File C:\Program Files\Microsoft Visual Studio\2022\Professional\VC\Tools\MSVC\14.44.35207\include\xmemory

; 219  :     _STL_VERIFY(_Back_shift >= _Min_back_shift && _Back_shift <= _Non_user_size, "invalid argument");

  00048	6a 00		 push	 0
  0004a	6a 00		 push	 0
  0004c	6a 00		 push	 0
  0004e	6a 00		 push	 0
  00050	6a 00		 push	 0
  00052	e8 00 00 00 00	 call	 __invoke_watson
$LN26@vector:
  00057	cc		 int	 3
??1?$vector@EV?$allocator@E@std@@@std@@QAE@XZ ENDP	; std::vector<unsigned char,std::allocator<unsigned char> >::~vector<unsigned char,std::allocator<unsigned char> >
_TEXT	ENDS
; Function compile flags: /Ogtp
; File C:\IAGOS\server\v18\Source\Source\_Network\Misc\Include\Ar.h
;	COMDAT ??$?5D@CAr@@QAEAAV0@AAD@Z
_TEXT	SEGMENT
_t$ = 8							; size = 4
??$?5D@CAr@@QAEAAV0@AAD@Z PROC				; CAr::operator>><char>, COMDAT
; _this$ = ecx

; 302  : {

  00000	55		 push	 ebp
  00001	8b ec		 mov	 ebp, esp
  00003	8b d1		 mov	 edx, ecx

; 303  : 	if (m_lpBufCur + sizeof(T) <= m_lpBufMax)

  00005	8b 4a 08	 mov	 ecx, DWORD PTR [edx+8]
  00008	8d 41 01	 lea	 eax, DWORD PTR [ecx+1]
  0000b	3b 42 0c	 cmp	 eax, DWORD PTR [edx+12]
  0000e	8b 45 08	 mov	 eax, DWORD PTR _t$[ebp]
  00011	77 0d		 ja	 SHORT $LN2@operator

; 304  : 	{
; 305  : 		t = *(UNALIGNED T*)m_lpBufCur;

  00013	8a 09		 mov	 cl, BYTE PTR [ecx]
  00015	88 08		 mov	 BYTE PTR [eax], cl

; 312  : 	}
; 313  : 	return *this;
; 314  : }

  00017	8b c2		 mov	 eax, edx
  00019	ff 42 08	 inc	 DWORD PTR [edx+8]
  0001c	5d		 pop	 ebp
  0001d	c2 04 00	 ret	 4
$LN2@operator:

; 306  : 		m_lpBufCur += sizeof(T);
; 307  : 	}
; 308  : 	else
; 309  : 	{
; 310  : 		t = T();

  00020	c6 00 00	 mov	 BYTE PTR [eax], 0

; 311  : 		m_lpBufCur = m_lpBufMax;

  00023	8b 42 0c	 mov	 eax, DWORD PTR [edx+12]
  00026	89 42 08	 mov	 DWORD PTR [edx+8], eax

; 312  : 	}
; 313  : 	return *this;
; 314  : }

  00029	8b c2		 mov	 eax, edx
  0002b	5d		 pop	 ebp
  0002c	c2 04 00	 ret	 4
??$?5D@CAr@@QAEAAV0@AAD@Z ENDP				; CAr::operator>><char>
_TEXT	ENDS
; Function compile flags: /Ogtp
; File C:\IAGOS\server\v18\Source\Source\_Network\Misc\Include\Ar.h
;	COMDAT ??$?5E@CAr@@QAEAAV0@AAE@Z
_TEXT	SEGMENT
_t$ = 8							; size = 4
??$?5E@CAr@@QAEAAV0@AAE@Z PROC				; CAr::operator>><unsigned char>, COMDAT
; _this$ = ecx

; 302  : {

  00000	55		 push	 ebp
  00001	8b ec		 mov	 ebp, esp
  00003	8b d1		 mov	 edx, ecx

; 303  : 	if (m_lpBufCur + sizeof(T) <= m_lpBufMax)

  00005	8b 4a 08	 mov	 ecx, DWORD PTR [edx+8]
  00008	8d 41 01	 lea	 eax, DWORD PTR [ecx+1]
  0000b	3b 42 0c	 cmp	 eax, DWORD PTR [edx+12]
  0000e	8b 45 08	 mov	 eax, DWORD PTR _t$[ebp]
  00011	77 0d		 ja	 SHORT $LN2@operator

; 304  : 	{
; 305  : 		t = *(UNALIGNED T*)m_lpBufCur;

  00013	8a 09		 mov	 cl, BYTE PTR [ecx]
  00015	88 08		 mov	 BYTE PTR [eax], cl

; 312  : 	}
; 313  : 	return *this;
; 314  : }

  00017	8b c2		 mov	 eax, edx
  00019	ff 42 08	 inc	 DWORD PTR [edx+8]
  0001c	5d		 pop	 ebp
  0001d	c2 04 00	 ret	 4
$LN2@operator:

; 306  : 		m_lpBufCur += sizeof(T);
; 307  : 	}
; 308  : 	else
; 309  : 	{
; 310  : 		t = T();

  00020	c6 00 00	 mov	 BYTE PTR [eax], 0

; 311  : 		m_lpBufCur = m_lpBufMax;

  00023	8b 42 0c	 mov	 eax, DWORD PTR [edx+12]
  00026	89 42 08	 mov	 DWORD PTR [edx+8], eax

; 312  : 	}
; 313  : 	return *this;
; 314  : }

  00029	8b c2		 mov	 eax, edx
  0002b	5d		 pop	 ebp
  0002c	c2 04 00	 ret	 4
??$?5E@CAr@@QAEAAV0@AAE@Z ENDP				; CAr::operator>><unsigned char>
_TEXT	ENDS
; Function compile flags: /Ogtp
;	COMDAT ??__FsSecretRoomDBMng@?1??GetInstance@CSecretRoomDBMng@@SAPAV1@XZ@YAXXZ
text$yd	SEGMENT
??__FsSecretRoomDBMng@?1??GetInstance@CSecretRoomDBMng@@SAPAV1@XZ@YAXXZ PROC ; `CSecretRoomDBMng::GetInstance'::`2'::`dynamic atexit destructor for 'sSecretRoomDBMng'', COMDAT
  00000	b9 00 00 00 00	 mov	 ecx, OFFSET ?sSecretRoomDBMng@?1??GetInstance@CSecretRoomDBMng@@SAPAV2@XZ@4V2@A
  00005	e9 00 00 00 00	 jmp	 ??1CSecretRoomDBMng@@QAE@XZ ; CSecretRoomDBMng::~CSecretRoomDBMng
??__FsSecretRoomDBMng@?1??GetInstance@CSecretRoomDBMng@@SAPAV1@XZ@YAXXZ ENDP ; `CSecretRoomDBMng::GetInstance'::`2'::`dynamic atexit destructor for 'sSecretRoomDBMng''
text$yd	ENDS
; Function compile flags: /Ogtp
; File C:\IAGOS\server\v18\Source\Source\_Network\Misc\Include\Ar.h
;	COMDAT ??$?5K@CAr@@QAEAAV0@AAK@Z
_TEXT	SEGMENT
_t$ = 8							; size = 4
??$?5K@CAr@@QAEAAV0@AAK@Z PROC				; CAr::operator>><unsigned long>, COMDAT
; _this$ = ecx

; 302  : {

  00000	55		 push	 ebp
  00001	8b ec		 mov	 ebp, esp
  00003	8b d1		 mov	 edx, ecx

; 303  : 	if (m_lpBufCur + sizeof(T) <= m_lpBufMax)

  00005	8b 4a 08	 mov	 ecx, DWORD PTR [edx+8]
  00008	8d 41 04	 lea	 eax, DWORD PTR [ecx+4]
  0000b	3b 42 0c	 cmp	 eax, DWORD PTR [edx+12]
  0000e	8b 45 08	 mov	 eax, DWORD PTR _t$[ebp]
  00011	77 0e		 ja	 SHORT $LN2@operator

; 304  : 	{
; 305  : 		t = *(UNALIGNED T*)m_lpBufCur;

  00013	8b 09		 mov	 ecx, DWORD PTR [ecx]
  00015	89 08		 mov	 DWORD PTR [eax], ecx

; 312  : 	}
; 313  : 	return *this;
; 314  : }

  00017	8b c2		 mov	 eax, edx
  00019	83 42 08 04	 add	 DWORD PTR [edx+8], 4
  0001d	5d		 pop	 ebp
  0001e	c2 04 00	 ret	 4
$LN2@operator:

; 306  : 		m_lpBufCur += sizeof(T);
; 307  : 	}
; 308  : 	else
; 309  : 	{
; 310  : 		t = T();

  00021	c7 00 00 00 00
	00		 mov	 DWORD PTR [eax], 0

; 311  : 		m_lpBufCur = m_lpBufMax;

  00027	8b 42 0c	 mov	 eax, DWORD PTR [edx+12]
  0002a	89 42 08	 mov	 DWORD PTR [edx+8], eax

; 312  : 	}
; 313  : 	return *this;
; 314  : }

  0002d	8b c2		 mov	 eax, edx
  0002f	5d		 pop	 ebp
  00030	c2 04 00	 ret	 4
??$?5K@CAr@@QAEAAV0@AAK@Z ENDP				; CAr::operator>><unsigned long>
_TEXT	ENDS
; Function compile flags: /Ogtp
; File C:\IAGOS\server\v18\Source\Source\_Network\Misc\Include\Ar.h
;	COMDAT ??$?5H@CAr@@QAEAAV0@AAH@Z
_TEXT	SEGMENT
_t$ = 8							; size = 4
??$?5H@CAr@@QAEAAV0@AAH@Z PROC				; CAr::operator>><int>, COMDAT
; _this$ = ecx

; 302  : {

  00000	55		 push	 ebp
  00001	8b ec		 mov	 ebp, esp
  00003	8b d1		 mov	 edx, ecx

; 303  : 	if (m_lpBufCur + sizeof(T) <= m_lpBufMax)

  00005	8b 4a 08	 mov	 ecx, DWORD PTR [edx+8]
  00008	8d 41 04	 lea	 eax, DWORD PTR [ecx+4]
  0000b	3b 42 0c	 cmp	 eax, DWORD PTR [edx+12]
  0000e	8b 45 08	 mov	 eax, DWORD PTR _t$[ebp]
  00011	77 0e		 ja	 SHORT $LN2@operator

; 304  : 	{
; 305  : 		t = *(UNALIGNED T*)m_lpBufCur;

  00013	8b 09		 mov	 ecx, DWORD PTR [ecx]
  00015	89 08		 mov	 DWORD PTR [eax], ecx

; 312  : 	}
; 313  : 	return *this;
; 314  : }

  00017	8b c2		 mov	 eax, edx
  00019	83 42 08 04	 add	 DWORD PTR [edx+8], 4
  0001d	5d		 pop	 ebp
  0001e	c2 04 00	 ret	 4
$LN2@operator:

; 306  : 		m_lpBufCur += sizeof(T);
; 307  : 	}
; 308  : 	else
; 309  : 	{
; 310  : 		t = T();

  00021	c7 00 00 00 00
	00		 mov	 DWORD PTR [eax], 0

; 311  : 		m_lpBufCur = m_lpBufMax;

  00027	8b 42 0c	 mov	 eax, DWORD PTR [edx+12]
  0002a	89 42 08	 mov	 DWORD PTR [edx+8], eax

; 312  : 	}
; 313  : 	return *this;
; 314  : }

  0002d	8b c2		 mov	 eax, edx
  0002f	5d		 pop	 ebp
  00030	c2 04 00	 ret	 4
??$?5H@CAr@@QAEAAV0@AAH@Z ENDP				; CAr::operator>><int>
_TEXT	ENDS
; Function compile flags: /Ogtp
; File C:\Program Files\Microsoft Visual Studio\2022\Professional\VC\Tools\MSVC\14.44.35207\include\vector
;	COMDAT ?_Xlength@?$vector@HV?$allocator@H@std@@@std@@CAXXZ
_TEXT	SEGMENT
?_Xlength@?$vector@HV?$allocator@H@std@@@std@@CAXXZ PROC ; std::vector<int,std::allocator<int> >::_Xlength, COMDAT

; 2184 :         _Xlength_error("vector too long");

  00000	68 00 00 00 00	 push	 OFFSET ??_C@_0BA@FOIKENOD@vector?5too?5long@
  00005	e8 00 00 00 00	 call	 ?_Xlength_error@std@@YAXPBD@Z ; std::_Xlength_error
$LN3@Xlength:
  0000a	cc		 int	 3
?_Xlength@?$vector@HV?$allocator@H@std@@@std@@CAXXZ ENDP ; std::vector<int,std::allocator<int> >::_Xlength
_TEXT	ENDS
; Function compile flags: /Ogtp
; File C:\Program Files\Microsoft Visual Studio\2022\Professional\VC\Tools\MSVC\14.44.35207\include\vector
; File C:\Program Files\Microsoft Visual Studio\2022\Professional\VC\Tools\MSVC\14.44.35207\include\xmemory
; File C:\Program Files\Microsoft Visual Studio\2022\Professional\VC\Tools\MSVC\14.44.35207\include\vector
; File C:\Program Files\Microsoft Visual Studio\2022\Professional\VC\Tools\MSVC\14.44.35207\include\xmemory
; File C:\Program Files\Microsoft Visual Studio\2022\Professional\VC\Tools\MSVC\14.44.35207\include\vector
; File C:\Program Files\Microsoft Visual Studio\2022\Professional\VC\Tools\MSVC\14.44.35207\include\xmemory
; File C:\Program Files\Microsoft Visual Studio\2022\Professional\VC\Tools\MSVC\14.44.35207\include\vector
;	COMDAT ??1?$vector@HV?$allocator@H@std@@@std@@QAE@XZ
_TEXT	SEGMENT
??1?$vector@HV?$allocator@H@std@@@std@@QAE@XZ PROC	; std::vector<int,std::allocator<int> >::~vector<int,std::allocator<int> >, COMDAT
; _this$ = ecx

; 829  :     _CONSTEXPR20 ~vector() noexcept {

  00000	56		 push	 esi
  00001	8b f1		 mov	 esi, ecx

; 2090 :         if (_Myfirst) { // destroy and deallocate old array

  00003	8b 06		 mov	 eax, DWORD PTR [esi]
  00005	85 c0		 test	 eax, eax
  00007	74 40		 je	 SHORT $LN5@vector

; 2091 :             _STD _Destroy_range(_Myfirst, _Mylast, _Al);
; 2092 :             _ASAN_VECTOR_REMOVE;
; 2093 :             _Al.deallocate(_Myfirst, static_cast<size_type>(_Myend - _Myfirst));

  00009	8b 4e 08	 mov	 ecx, DWORD PTR [esi+8]
  0000c	2b c8		 sub	 ecx, eax
; File C:\Program Files\Microsoft Visual Studio\2022\Professional\VC\Tools\MSVC\14.44.35207\include\xmemory

; 985  :         _STD _Deallocate<_New_alignof<_Ty>>(_Ptr, sizeof(_Ty) * _Count);

  0000e	83 e1 fc	 and	 ecx, -4			; fffffffcH

; 284  :         if (_Bytes >= _Big_allocation_threshold) {

  00011	81 f9 00 10 00
	00		 cmp	 ecx, 4096		; 00001000H
  00017	72 12		 jb	 SHORT $LN18@vector

; 205  :     const uintptr_t _Ptr_container   = _Ptr_user[-1];

  00019	8b 50 fc	 mov	 edx, DWORD PTR [eax-4]
  0001c	83 c1 23	 add	 ecx, 35			; 00000023H

; 206  : 
; 207  :     // If the following asserts, it likely means that we are performing
; 208  :     // an aligned delete on memory coming from an unaligned allocation.
; 209  :     _STL_ASSERT(_Ptr_user[-2] == _Big_allocation_sentinel, "invalid argument");
; 210  : 
; 211  :     // Extra paranoia on aligned allocation/deallocation; ensure _Ptr_container is
; 212  :     // in range [_Min_back_shift, _Non_user_size]
; 213  : #ifdef _DEBUG
; 214  :     constexpr uintptr_t _Min_back_shift = 2 * sizeof(void*);
; 215  : #else // ^^^ defined(_DEBUG) / !defined(_DEBUG) vvv
; 216  :     constexpr uintptr_t _Min_back_shift = sizeof(void*);
; 217  : #endif // ^^^ !defined(_DEBUG) ^^^
; 218  :     const uintptr_t _Back_shift = reinterpret_cast<uintptr_t>(_Ptr) - _Ptr_container;

  0001f	2b c2		 sub	 eax, edx

; 219  :     _STL_VERIFY(_Back_shift >= _Min_back_shift && _Back_shift <= _Non_user_size, "invalid argument");

  00021	83 c0 fc	 add	 eax, -4			; fffffffcH
  00024	83 f8 1f	 cmp	 eax, 31			; 0000001fH
  00027	77 22		 ja	 SHORT $LN17@vector

; 220  :     _Ptr = reinterpret_cast<void*>(_Ptr_container);

  00029	8b c2		 mov	 eax, edx
$LN18@vector:

; 289  :         ::operator delete(_Ptr, _Bytes);

  0002b	51		 push	 ecx
  0002c	50		 push	 eax
  0002d	e8 00 00 00 00	 call	 ??3@YAXPAXI@Z		; operator delete
; File C:\Program Files\Microsoft Visual Studio\2022\Professional\VC\Tools\MSVC\14.44.35207\include\vector

; 2095 :             _Myfirst = nullptr;

  00032	c7 06 00 00 00
	00		 mov	 DWORD PTR [esi], 0
; File C:\Program Files\Microsoft Visual Studio\2022\Professional\VC\Tools\MSVC\14.44.35207\include\xmemory

; 289  :         ::operator delete(_Ptr, _Bytes);

  00038	83 c4 08	 add	 esp, 8
; File C:\Program Files\Microsoft Visual Studio\2022\Professional\VC\Tools\MSVC\14.44.35207\include\vector

; 2096 :             _Mylast  = nullptr;

  0003b	c7 46 04 00 00
	00 00		 mov	 DWORD PTR [esi+4], 0

; 2097 :             _Myend   = nullptr;

  00042	c7 46 08 00 00
	00 00		 mov	 DWORD PTR [esi+8], 0
$LN5@vector:
  00049	5e		 pop	 esi

; 835  :     }

  0004a	c3		 ret	 0
$LN17@vector:
; File C:\Program Files\Microsoft Visual Studio\2022\Professional\VC\Tools\MSVC\14.44.35207\include\xmemory

; 219  :     _STL_VERIFY(_Back_shift >= _Min_back_shift && _Back_shift <= _Non_user_size, "invalid argument");

  0004b	6a 00		 push	 0
  0004d	6a 00		 push	 0
  0004f	6a 00		 push	 0
  00051	6a 00		 push	 0
  00053	6a 00		 push	 0
  00055	e8 00 00 00 00	 call	 __invoke_watson
$LN26@vector:
  0005a	cc		 int	 3
??1?$vector@HV?$allocator@H@std@@@std@@QAE@XZ ENDP	; std::vector<int,std::allocator<int> >::~vector<int,std::allocator<int> >
_TEXT	ENDS
; Function compile flags: /Ogtp
; File C:\Program Files\Microsoft Visual Studio\2022\Professional\VC\Tools\MSVC\14.44.35207\include\vector
;	COMDAT ??0?$vector@HV?$allocator@H@std@@@std@@QAE@XZ
_TEXT	SEGMENT
??0?$vector@HV?$allocator@H@std@@@std@@QAE@XZ PROC	; std::vector<int,std::allocator<int> >::vector<int,std::allocator<int> >, COMDAT
; _this$ = ecx

; 400  :     _CONSTEXPR20 _Vector_val() noexcept : _Myfirst(), _Mylast(), _Myend() {}

  00000	c7 01 00 00 00
	00		 mov	 DWORD PTR [ecx], 0

; 671  :         _Mypair._Myval2._Alloc_proxy(_GET_PROXY_ALLOCATOR(_Alty, _Getal()));
; 672  :     }

  00006	8b c1		 mov	 eax, ecx

; 400  :     _CONSTEXPR20 _Vector_val() noexcept : _Myfirst(), _Mylast(), _Myend() {}

  00008	c7 41 04 00 00
	00 00		 mov	 DWORD PTR [ecx+4], 0
  0000f	c7 41 08 00 00
	00 00		 mov	 DWORD PTR [ecx+8], 0

; 671  :         _Mypair._Myval2._Alloc_proxy(_GET_PROXY_ALLOCATOR(_Alty, _Getal()));
; 672  :     }

  00016	c3		 ret	 0
??0?$vector@HV?$allocator@H@std@@@std@@QAE@XZ ENDP	; std::vector<int,std::allocator<int> >::vector<int,std::allocator<int> >
_TEXT	ENDS
; Function compile flags: /Ogtp
; File C:\IAGOS\server\v18\Source\Source\DatabaseServer\SecretRoomDBMng.cpp
;	COMDAT ?PostRequest@CSecretRoomDBMng@@QAEHHPAEHK@Z
_TEXT	SEGMENT
_nQuery$ = 8						; size = 4
_lpBuf$ = 12						; size = 4
_nBufSize$ = 16						; size = 4
_dwCompletionKey$ = 20					; size = 4
?PostRequest@CSecretRoomDBMng@@QAEHHPAEHK@Z PROC	; CSecretRoomDBMng::PostRequest, COMDAT
; _this$ = ecx

; 29   : {

  00000	55		 push	 ebp
  00001	8b ec		 mov	 ebp, esp

; 31   : }

  00003	5d		 pop	 ebp

; 30   : 	return m_SRDbController.PostRequest( nQuery, lpBuf, nBufSize, dwCompletionKey );

  00004	e9 00 00 00 00	 jmp	 ?PostRequest@CDbController@@QAEHHPAEHK@Z ; CDbController::PostRequest
?PostRequest@CSecretRoomDBMng@@QAEHHPAEHK@Z ENDP	; CSecretRoomDBMng::PostRequest
_TEXT	ENDS
; Function compile flags: /Ogtp
; File C:\IAGOS\server\v18\Source\Source\DatabaseServer\SecretRoomDBMng.cpp
;	COMDAT ?GetInstance@CSecretRoomDBMng@@SAPAV1@XZ
_TEXT	SEGMENT
__$EHRec$ = -12						; size = 12
?GetInstance@CSecretRoomDBMng@@SAPAV1@XZ PROC		; CSecretRoomDBMng::GetInstance, COMDAT

; 22   : {

  00000	55		 push	 ebp
  00001	8b ec		 mov	 ebp, esp
  00003	6a ff		 push	 -1
  00005	68 00 00 00 00	 push	 __ehhandler$?GetInstance@CSecretRoomDBMng@@SAPAV1@XZ
  0000a	64 a1 00 00 00
	00		 mov	 eax, DWORD PTR fs:0
  00010	50		 push	 eax
  00011	a1 00 00 00 00	 mov	 eax, DWORD PTR ___security_cookie
  00016	33 c5		 xor	 eax, ebp
  00018	50		 push	 eax
  00019	8d 45 f4	 lea	 eax, DWORD PTR __$EHRec$[ebp]
  0001c	64 a3 00 00 00
	00		 mov	 DWORD PTR fs:0, eax

; 23   : 	static CSecretRoomDBMng sSecretRoomDBMng;

  00022	64 a1 00 00 00
	00		 mov	 eax, DWORD PTR fs:__tls_array
  00028	8b 0d 00 00 00
	00		 mov	 ecx, DWORD PTR __tls_index
  0002e	8b 0c 88	 mov	 ecx, DWORD PTR [eax+ecx*4]
  00031	a1 00 00 00 00	 mov	 eax, DWORD PTR ?$TSS0@?1??GetInstance@CSecretRoomDBMng@@SAPAV2@XZ@4HA
  00036	3b 81 00 00 00
	00		 cmp	 eax, DWORD PTR __Init_thread_epoch[ecx]
  0003c	7f 14		 jg	 SHORT $LN9@GetInstanc
$LN5@GetInstanc:

; 24   : 	return &sSecretRoomDBMng;
; 25   : }

  0003e	b8 00 00 00 00	 mov	 eax, OFFSET ?sSecretRoomDBMng@?1??GetInstance@CSecretRoomDBMng@@SAPAV2@XZ@4V2@A
  00043	8b 4d f4	 mov	 ecx, DWORD PTR __$EHRec$[ebp]
  00046	64 89 0d 00 00
	00 00		 mov	 DWORD PTR fs:0, ecx
  0004d	59		 pop	 ecx
  0004e	8b e5		 mov	 esp, ebp
  00050	5d		 pop	 ebp
  00051	c3		 ret	 0
$LN9@GetInstanc:

; 23   : 	static CSecretRoomDBMng sSecretRoomDBMng;

  00052	68 00 00 00 00	 push	 OFFSET ?$TSS0@?1??GetInstance@CSecretRoomDBMng@@SAPAV2@XZ@4HA
  00057	e8 00 00 00 00	 call	 __Init_thread_header
  0005c	83 c4 04	 add	 esp, 4
  0005f	83 3d 00 00 00
	00 ff		 cmp	 DWORD PTR ?$TSS0@?1??GetInstance@CSecretRoomDBMng@@SAPAV2@XZ@4HA, -1
  00066	75 d6		 jne	 SHORT $LN5@GetInstanc
  00068	b9 00 00 00 00	 mov	 ecx, OFFSET ?sSecretRoomDBMng@?1??GetInstance@CSecretRoomDBMng@@SAPAV2@XZ@4V2@A
  0006d	c7 45 fc 00 00
	00 00		 mov	 DWORD PTR __$EHRec$[ebp+8], 0
  00074	e8 00 00 00 00	 call	 ??0CSecretRoomDBMng@@QAE@XZ ; CSecretRoomDBMng::CSecretRoomDBMng
  00079	68 00 00 00 00	 push	 OFFSET ??__FsSecretRoomDBMng@?1??GetInstance@CSecretRoomDBMng@@SAPAV1@XZ@YAXXZ ; `CSecretRoomDBMng::GetInstance'::`2'::`dynamic atexit destructor for 'sSecretRoomDBMng''
  0007e	e8 00 00 00 00	 call	 _atexit
  00083	68 00 00 00 00	 push	 OFFSET ?$TSS0@?1??GetInstance@CSecretRoomDBMng@@SAPAV2@XZ@4HA
  00088	e8 00 00 00 00	 call	 __Init_thread_footer
  0008d	83 c4 08	 add	 esp, 8
  00090	eb ac		 jmp	 SHORT $LN5@GetInstanc
_TEXT	ENDS
;	COMDAT text$x
text$x	SEGMENT
__unwindfunclet$?GetInstance@CSecretRoomDBMng@@SAPAV1@XZ$0:
  00000	68 00 00 00 00	 push	 OFFSET ?$TSS0@?1??GetInstance@CSecretRoomDBMng@@SAPAV2@XZ@4HA
  00005	e8 00 00 00 00	 call	 __Init_thread_abort
  0000a	59		 pop	 ecx
  0000b	c3		 ret	 0
  0000c	cc		 int	 3
  0000d	cc		 int	 3
  0000e	cc		 int	 3
  0000f	cc		 int	 3
  00010	cc		 int	 3
__ehhandler$?GetInstance@CSecretRoomDBMng@@SAPAV1@XZ:
  00011	90		 npad	 1
  00012	90		 npad	 1
  00013	8b 54 24 08	 mov	 edx, DWORD PTR [esp+8]
  00017	8d 42 0c	 lea	 eax, DWORD PTR [edx+12]
  0001a	8b 4a fc	 mov	 ecx, DWORD PTR [edx-4]
  0001d	33 c8		 xor	 ecx, eax
  0001f	e8 00 00 00 00	 call	 @__security_check_cookie@4
  00024	b8 00 00 00 00	 mov	 eax, OFFSET __ehfuncinfo$?GetInstance@CSecretRoomDBMng@@SAPAV1@XZ
  00029	e9 00 00 00 00	 jmp	 ___CxxFrameHandler3
text$x	ENDS
?GetInstance@CSecretRoomDBMng@@SAPAV1@XZ ENDP		; CSecretRoomDBMng::GetInstance
; Function compile flags: /Ogtp
; File C:\IAGOS\server\v18\Source\Source\DatabaseServer\SecretRoomDBMng.cpp
;	COMDAT ??1CSecretRoomDBMng@@QAE@XZ
_TEXT	SEGMENT
__$EHRec$ = -12						; size = 12
??1CSecretRoomDBMng@@QAE@XZ PROC			; CSecretRoomDBMng::~CSecretRoomDBMng, COMDAT
; _this$ = ecx

; 17   : {

  00000	55		 push	 ebp
  00001	8b ec		 mov	 ebp, esp
  00003	6a ff		 push	 -1
  00005	68 00 00 00 00	 push	 __ehhandler$??1CSecretRoomDBMng@@QAE@XZ
  0000a	64 a1 00 00 00
	00		 mov	 eax, DWORD PTR fs:0
  00010	50		 push	 eax
  00011	56		 push	 esi
  00012	a1 00 00 00 00	 mov	 eax, DWORD PTR ___security_cookie
  00017	33 c5		 xor	 eax, ebp
  00019	50		 push	 eax
  0001a	8d 45 f4	 lea	 eax, DWORD PTR __$EHRec$[ebp]
  0001d	64 a3 00 00 00
	00		 mov	 DWORD PTR fs:0, eax
  00023	8b f1		 mov	 esi, ecx

; 18   : 	m_SRDbController.CloseDbHandler();

  00025	e8 00 00 00 00	 call	 ?CloseDbHandler@CDbController@@QAEXXZ ; CDbController::CloseDbHandler

; 19   : }

  0002a	8b ce		 mov	 ecx, esi
  0002c	e8 00 00 00 00	 call	 ??1CSecretRoomDbController@@UAE@XZ ; CSecretRoomDbController::~CSecretRoomDbController
  00031	8b 4d f4	 mov	 ecx, DWORD PTR __$EHRec$[ebp]
  00034	64 89 0d 00 00
	00 00		 mov	 DWORD PTR fs:0, ecx
  0003b	59		 pop	 ecx
  0003c	5e		 pop	 esi
  0003d	8b e5		 mov	 esp, ebp
  0003f	5d		 pop	 ebp
  00040	c3		 ret	 0
  00041	cc		 int	 3
  00042	cc		 int	 3
  00043	cc		 int	 3
  00044	cc		 int	 3
  00045	cc		 int	 3
_TEXT	ENDS
;	COMDAT text$x
text$x	SEGMENT
__ehhandler$??1CSecretRoomDBMng@@QAE@XZ:
  00000	90		 npad	 1
  00001	90		 npad	 1
  00002	8b 54 24 08	 mov	 edx, DWORD PTR [esp+8]
  00006	8d 42 0c	 lea	 eax, DWORD PTR [edx+12]
  00009	8b 4a f8	 mov	 ecx, DWORD PTR [edx-8]
  0000c	33 c8		 xor	 ecx, eax
  0000e	e8 00 00 00 00	 call	 @__security_check_cookie@4
  00013	b8 00 00 00 00	 mov	 eax, OFFSET __ehfuncinfo$??1CSecretRoomDBMng@@QAE@XZ
  00018	e9 00 00 00 00	 jmp	 ___CxxFrameHandler3
text$x	ENDS
??1CSecretRoomDBMng@@QAE@XZ ENDP			; CSecretRoomDBMng::~CSecretRoomDBMng
; Function compile flags: /Ogtp
; File C:\IAGOS\server\v18\Source\Source\DatabaseServer\SecretRoomDBMng.cpp
;	COMDAT ??0CSecretRoomDBMng@@QAE@XZ
_TEXT	SEGMENT
_this$ = -16						; size = 4
__$EHRec$ = -12						; size = 12
??0CSecretRoomDBMng@@QAE@XZ PROC			; CSecretRoomDBMng::CSecretRoomDBMng, COMDAT
; _this$ = ecx

; 11   : {

  00000	55		 push	 ebp
  00001	8b ec		 mov	 ebp, esp
  00003	6a ff		 push	 -1
  00005	68 00 00 00 00	 push	 __ehhandler$??0CSecretRoomDBMng@@QAE@XZ
  0000a	64 a1 00 00 00
	00		 mov	 eax, DWORD PTR fs:0
  00010	50		 push	 eax
  00011	51		 push	 ecx
  00012	56		 push	 esi
  00013	a1 00 00 00 00	 mov	 eax, DWORD PTR ___security_cookie
  00018	33 c5		 xor	 eax, ebp
  0001a	50		 push	 eax
  0001b	8d 45 f4	 lea	 eax, DWORD PTR __$EHRec$[ebp]
  0001e	64 a3 00 00 00
	00		 mov	 DWORD PTR fs:0, eax
  00024	8b f1		 mov	 esi, ecx
  00026	89 75 f0	 mov	 DWORD PTR _this$[ebp], esi
  00029	e8 00 00 00 00	 call	 ??0CSecretRoomDbController@@QAE@XZ ; CSecretRoomDbController::CSecretRoomDbController

; 12   : 	if( !m_SRDbController.CreateDbHandler() )

  0002e	6a ff		 push	 -1
  00030	8b ce		 mov	 ecx, esi
  00032	c7 45 fc 00 00
	00 00		 mov	 DWORD PTR __$EHRec$[ebp+8], 0
  00039	e8 00 00 00 00	 call	 ?CreateDbHandler@CDbController@@QAEHK@Z ; CDbController::CreateDbHandler
  0003e	85 c0		 test	 eax, eax
  00040	75 0d		 jne	 SHORT $LN5@CSecretRoo

; 13   : 		Error( "CSecretRoomDBMng - m_SRDbController.CreateDbHandler()" );

  00042	68 00 00 00 00	 push	 OFFSET ??_C@_0DG@LLEPPCHM@CSecretRoomDBMng?5?9?5m_SRDbContro@
  00047	e8 00 00 00 00	 call	 ?Error@@YAPBDPBDZZ	; Error
  0004c	83 c4 04	 add	 esp, 4
$LN5@CSecretRoo:

; 14   : }

  0004f	8b c6		 mov	 eax, esi
  00051	8b 4d f4	 mov	 ecx, DWORD PTR __$EHRec$[ebp]
  00054	64 89 0d 00 00
	00 00		 mov	 DWORD PTR fs:0, ecx
  0005b	59		 pop	 ecx
  0005c	5e		 pop	 esi
  0005d	8b e5		 mov	 esp, ebp
  0005f	5d		 pop	 ebp
  00060	c3		 ret	 0
_TEXT	ENDS
;	COMDAT text$x
text$x	SEGMENT
__unwindfunclet$??0CSecretRoomDBMng@@QAE@XZ$0:
  00000	8b 4d f0	 mov	 ecx, DWORD PTR _this$[ebp]
  00003	e9 00 00 00 00	 jmp	 ??1CSecretRoomDbController@@UAE@XZ ; CSecretRoomDbController::~CSecretRoomDbController
  00008	cc		 int	 3
  00009	cc		 int	 3
  0000a	cc		 int	 3
  0000b	cc		 int	 3
  0000c	cc		 int	 3
__ehhandler$??0CSecretRoomDBMng@@QAE@XZ:
  0000d	90		 npad	 1
  0000e	90		 npad	 1
  0000f	8b 54 24 08	 mov	 edx, DWORD PTR [esp+8]
  00013	8d 42 0c	 lea	 eax, DWORD PTR [edx+12]
  00016	8b 4a f4	 mov	 ecx, DWORD PTR [edx-12]
  00019	33 c8		 xor	 ecx, eax
  0001b	e8 00 00 00 00	 call	 @__security_check_cookie@4
  00020	b8 00 00 00 00	 mov	 eax, OFFSET __ehfuncinfo$??0CSecretRoomDBMng@@QAE@XZ
  00025	e9 00 00 00 00	 jmp	 ___CxxFrameHandler3
text$x	ENDS
??0CSecretRoomDBMng@@QAE@XZ ENDP			; CSecretRoomDBMng::CSecretRoomDBMng
; Function compile flags: /Ogtp
;	COMDAT ??_GCSecretRoomDbController@@UAEPAXI@Z
_TEXT	SEGMENT
___flags$ = 8						; size = 4
??_GCSecretRoomDbController@@UAEPAXI@Z PROC		; CSecretRoomDbController::`scalar deleting destructor', COMDAT
; _this$ = ecx
  00000	55		 push	 ebp
  00001	8b ec		 mov	 ebp, esp
  00003	56		 push	 esi
  00004	8b f1		 mov	 esi, ecx
  00006	e8 00 00 00 00	 call	 ??1CSecretRoomDbController@@UAE@XZ ; CSecretRoomDbController::~CSecretRoomDbController
  0000b	f6 45 08 01	 test	 BYTE PTR ___flags$[ebp], 1
  0000f	74 0b		 je	 SHORT $LN5@scalar
  00011	6a 18		 push	 24			; 00000018H
  00013	56		 push	 esi
  00014	e8 00 00 00 00	 call	 ??3@YAXPAXI@Z		; operator delete
  00019	83 c4 08	 add	 esp, 8
$LN5@scalar:
  0001c	8b c6		 mov	 eax, esi
  0001e	5e		 pop	 esi
  0001f	5d		 pop	 ebp
  00020	c2 04 00	 ret	 4
??_GCSecretRoomDbController@@UAEPAXI@Z ENDP		; CSecretRoomDbController::`scalar deleting destructor'
_TEXT	ENDS
; Function compile flags: /Ogtp
; File C:\IAGOS\server\v18\Source\Source\DatabaseServer\SecretRoomDBMng.cpp
; File C:\Program Files\Microsoft Visual Studio\2022\Professional\VC\Tools\MSVC\14.44.35207\include\vector
; File C:\IAGOS\server\v18\Source\Source\DatabaseServer\SecretRoomDBMng.cpp
; File C:\Program Files\Microsoft Visual Studio\2022\Professional\VC\Tools\MSVC\14.44.35207\include\vector
; File C:\IAGOS\server\v18\Source\Source\DatabaseServer\SecretRoomDBMng.cpp
; File C:\Program Files\Microsoft Visual Studio\2022\Professional\VC\Tools\MSVC\14.44.35207\include\vector
; File C:\IAGOS\server\v18\Source\Source\DatabaseServer\SecretRoomDBMng.cpp
; File C:\Program Files\Microsoft Visual Studio\2022\Professional\VC\Tools\MSVC\14.44.35207\include\vector
; File C:\IAGOS\server\v18\Source\Source\DatabaseServer\SecretRoomDBMng.cpp
;	COMDAT ?InsertLineUpMemberToDB@CSecretRoomDbController@@AAEXEKAAV?$vector@KV?$allocator@K@std@@@std@@@Z
_TEXT	SEGMENT
_pQuery$1$ = -40972					; size = 4
tv264 = -40968						; size = 4
_szQuery$ = -40964					; size = 40960
__$ArrayPad$ = -4					; size = 4
_nContinent$ = 8					; size = 1
_dwGuildId$ = 12					; size = 4
_vecMemberId$ = 16					; size = 4
?InsertLineUpMemberToDB@CSecretRoomDbController@@AAEXEKAAV?$vector@KV?$allocator@K@std@@@std@@@Z PROC ; CSecretRoomDbController::InsertLineUpMemberToDB, COMDAT
; _this$ = ecx

; 190  : {

  00000	55		 push	 ebp
  00001	8b ec		 mov	 ebp, esp
  00003	b8 0c a0 00 00	 mov	 eax, 40972		; 0000a00cH
  00008	e8 00 00 00 00	 call	 __chkstk
  0000d	a1 00 00 00 00	 mov	 eax, DWORD PTR ___security_cookie
  00012	33 c5		 xor	 eax, ebp
  00014	89 45 fc	 mov	 DWORD PTR __$ArrayPad$[ebp], eax
  00017	53		 push	 ebx
  00018	56		 push	 esi
  00019	57		 push	 edi
  0001a	8b 7d 10	 mov	 edi, DWORD PTR _vecMemberId$[ebp]

; 191  : 	CQuery* pQuery = GetQueryObject();
; 192  : 	char szQuery[QUERY_SIZE] = {0,};

  0001d	8d 85 fc 5f ff
	ff		 lea	 eax, DWORD PTR _szQuery$[ebp]
  00023	8b d9		 mov	 ebx, ecx
  00025	68 00 a0 00 00	 push	 40960			; 0000a000H
  0002a	6a 00		 push	 0
  0002c	50		 push	 eax
  0002d	8b 73 0c	 mov	 esi, DWORD PTR [ebx+12]
  00030	89 b5 f4 5f ff
	ff		 mov	 DWORD PTR _pQuery$1$[ebp], esi
  00036	e8 00 00 00 00	 call	 _memset

; 193  : 
; 194  : 	// żěĽ± ±âÁ¸ Âü°ˇŔÚ ¸ń·Ď »čÁ¦ÇĎ°í...
; 195  : 	sprintf( szQuery, "SECRET_ROOM_MEMBER_STR 'D1', '%02d', %d, %d, '%06d', '0'",

  0003b	ff 75 0c	 push	 DWORD PTR _dwGuildId$[ebp]
  0003e	0f b6 45 08	 movzx	 eax, BYTE PTR _nContinent$[ebp]
  00042	50		 push	 eax
  00043	ff 73 14	 push	 DWORD PTR [ebx+20]
  00046	89 85 f8 5f ff
	ff		 mov	 DWORD PTR tv264[ebp], eax
  0004c	8d 85 fc 5f ff
	ff		 lea	 eax, DWORD PTR _szQuery$[ebp]
  00052	ff 35 00 00 00
	00		 push	 DWORD PTR ?g_appInfo@@3UAppInfo@@A
  00058	68 00 00 00 00	 push	 OFFSET ??_C@_0DJ@KCPMHBBH@SECRET_ROOM_MEMBER_STR?5?8D1?8?0?5?8?$CF@
  0005d	50		 push	 eax
  0005e	e8 00 00 00 00	 call	 _sprintf
  00063	83 c4 24	 add	 esp, 36			; 00000024H

; 196  : 		g_appInfo.dwSys, m_nTimes, nContinent, dwGuildId );
; 197  : 	if( pQuery->Exec( szQuery ) == FALSE )

  00066	8d 85 fc 5f ff
	ff		 lea	 eax, DWORD PTR _szQuery$[ebp]
  0006c	8b ce		 mov	 ecx, esi
  0006e	50		 push	 eax
  0006f	e8 00 00 00 00	 call	 ?Exec@CQuery@@QAEHPBD@Z	; CQuery::Exec
  00074	85 c0		 test	 eax, eax
  00076	75 11		 jne	 SHORT $LN5@InsertLine

; 198  : 	{ WriteLog( "%s, %d\t%s", __FILE__, __LINE__, szQuery ); return; }

  00078	8d 85 fc 5f ff
	ff		 lea	 eax, DWORD PTR _szQuery$[ebp]
  0007e	50		 push	 eax
  0007f	68 c6 00 00 00	 push	 198			; 000000c6H
  00084	e9 84 00 00 00	 jmp	 $LN22@InsertLine
$LN5@InsertLine:
; File C:\Program Files\Microsoft Visual Studio\2022\Professional\VC\Tools\MSVC\14.44.35207\include\vector

; 1915 :         return static_cast<size_type>(_My_data._Mylast - _My_data._Myfirst);

  00089	8b 47 04	 mov	 eax, DWORD PTR [edi+4]
; File C:\IAGOS\server\v18\Source\Source\DatabaseServer\SecretRoomDBMng.cpp

; 201  : 	for( DWORD i=0; i<vecMemberId.size(); i++ )

  0008c	33 f6		 xor	 esi, esi
; File C:\Program Files\Microsoft Visual Studio\2022\Professional\VC\Tools\MSVC\14.44.35207\include\vector

; 1915 :         return static_cast<size_type>(_My_data._Mylast - _My_data._Myfirst);

  0008e	8b 0f		 mov	 ecx, DWORD PTR [edi]
  00090	2b c1		 sub	 eax, ecx
  00092	c1 f8 02	 sar	 eax, 2
; File C:\IAGOS\server\v18\Source\Source\DatabaseServer\SecretRoomDBMng.cpp

; 201  : 	for( DWORD i=0; i<vecMemberId.size(); i++ )

  00095	85 c0		 test	 eax, eax
  00097	0f 84 82 00 00
	00		 je	 $LN3@InsertLine
  0009d	0f 1f 00	 npad	 3
$LL4@InsertLine:

; 202  : 	{
; 203  : 		sprintf( szQuery, "SECRET_ROOM_MEMBER_STR 'I1', '%02d', %d, %d, '%06d', '%07d'",

  000a0	ff 34 b1	 push	 DWORD PTR [ecx+esi*4]
  000a3	8d 85 fc 5f ff
	ff		 lea	 eax, DWORD PTR _szQuery$[ebp]
  000a9	ff 75 0c	 push	 DWORD PTR _dwGuildId$[ebp]
  000ac	ff b5 f8 5f ff
	ff		 push	 DWORD PTR tv264[ebp]
  000b2	ff 73 14	 push	 DWORD PTR [ebx+20]
  000b5	ff 35 00 00 00
	00		 push	 DWORD PTR ?g_appInfo@@3UAppInfo@@A
  000bb	68 00 00 00 00	 push	 OFFSET ??_C@_0DM@DPPKLHMA@SECRET_ROOM_MEMBER_STR?5?8I1?8?0?5?8?$CF@
  000c0	50		 push	 eax
  000c1	e8 00 00 00 00	 call	 _sprintf

; 204  : 			g_appInfo.dwSys, m_nTimes, nContinent, dwGuildId, vecMemberId[i] );
; 205  : 		if( pQuery->Exec( szQuery ) == FALSE )

  000c6	8b 8d f4 5f ff
	ff		 mov	 ecx, DWORD PTR _pQuery$1$[ebp]
  000cc	8d 85 fc 5f ff
	ff		 lea	 eax, DWORD PTR _szQuery$[ebp]
  000d2	83 c4 1c	 add	 esp, 28			; 0000001cH
  000d5	50		 push	 eax
  000d6	e8 00 00 00 00	 call	 ?Exec@CQuery@@QAEHPBD@Z	; CQuery::Exec
  000db	85 c0		 test	 eax, eax
  000dd	74 22		 je	 SHORT $LN15@InsertLine
; File C:\Program Files\Microsoft Visual Studio\2022\Professional\VC\Tools\MSVC\14.44.35207\include\vector

; 1915 :         return static_cast<size_type>(_My_data._Mylast - _My_data._Myfirst);

  000df	8b 47 04	 mov	 eax, DWORD PTR [edi+4]
; File C:\IAGOS\server\v18\Source\Source\DatabaseServer\SecretRoomDBMng.cpp

; 201  : 	for( DWORD i=0; i<vecMemberId.size(); i++ )

  000e2	46		 inc	 esi
; File C:\Program Files\Microsoft Visual Studio\2022\Professional\VC\Tools\MSVC\14.44.35207\include\vector

; 1915 :         return static_cast<size_type>(_My_data._Mylast - _My_data._Myfirst);

  000e3	8b 0f		 mov	 ecx, DWORD PTR [edi]
  000e5	2b c1		 sub	 eax, ecx
  000e7	c1 f8 02	 sar	 eax, 2
; File C:\IAGOS\server\v18\Source\Source\DatabaseServer\SecretRoomDBMng.cpp

; 201  : 	for( DWORD i=0; i<vecMemberId.size(); i++ )

  000ea	3b f0		 cmp	 esi, eax
  000ec	72 b2		 jb	 SHORT $LL4@InsertLine

; 207  : 	}
; 208  : }

  000ee	5f		 pop	 edi
  000ef	5e		 pop	 esi
  000f0	5b		 pop	 ebx
  000f1	8b 4d fc	 mov	 ecx, DWORD PTR __$ArrayPad$[ebp]
  000f4	33 cd		 xor	 ecx, ebp
  000f6	e8 00 00 00 00	 call	 @__security_check_cookie@4
  000fb	8b e5		 mov	 esp, ebp
  000fd	5d		 pop	 ebp
  000fe	c2 0c 00	 ret	 12			; 0000000cH
$LN15@InsertLine:

; 206  : 		{ WriteLog( "%s, %d\t%s", __FILE__, __LINE__, szQuery ); return; }

  00101	8d 85 fc 5f ff
	ff		 lea	 eax, DWORD PTR _szQuery$[ebp]
  00107	50		 push	 eax
  00108	68 ce 00 00 00	 push	 206			; 000000ceH
$LN22@InsertLine:

; 207  : 	}
; 208  : }

  0010d	68 00 00 00 00	 push	 OFFSET ??_C@_0EF@DJMJOFIF@C?3?2IAGOS?2server?2v18?2Source?2Sour@
  00112	68 00 00 00 00	 push	 OFFSET ??_C@_09GBAEEKDE@?$CFs?0?5?$CFd?7?$CFs@
  00117	e8 00 00 00 00	 call	 ?WriteLog@@YAXPBDZZ	; WriteLog
  0011c	83 c4 10	 add	 esp, 16			; 00000010H
$LN3@InsertLine:
  0011f	8b 4d fc	 mov	 ecx, DWORD PTR __$ArrayPad$[ebp]
  00122	5f		 pop	 edi
  00123	5e		 pop	 esi
  00124	33 cd		 xor	 ecx, ebp
  00126	5b		 pop	 ebx
  00127	e8 00 00 00 00	 call	 @__security_check_cookie@4
  0012c	8b e5		 mov	 esp, ebp
  0012e	5d		 pop	 ebp
  0012f	c2 0c 00	 ret	 12			; 0000000cH
?InsertLineUpMemberToDB@CSecretRoomDbController@@AAEXEKAAV?$vector@KV?$allocator@K@std@@@std@@@Z ENDP ; CSecretRoomDbController::InsertLineUpMemberToDB
_TEXT	ENDS
; Function compile flags: /Ogtp
; File C:\IAGOS\server\v18\Source\Source\DatabaseServer\SecretRoomDBMng.cpp
;	COMDAT ?UpdateTenderToDB@CSecretRoomDbController@@AAEXEKHDKHH@Z
_TEXT	SEGMENT
_szQuery$ = -40964					; size = 40960
__$ArrayPad$ = -4					; size = 4
_nContinent$ = 8					; size = 1
_dwGuildId$ = 12					; size = 4
_nPenya$ = 16						; size = 4
_chState$ = 20						; size = 1
_dwWorldId$ = 24					; size = 4
_nWarState$ = 28					; size = 4
_nKillCount$ = 32					; size = 4
?UpdateTenderToDB@CSecretRoomDbController@@AAEXEKHDKHH@Z PROC ; CSecretRoomDbController::UpdateTenderToDB, COMDAT
; _this$ = ecx

; 173  : {

  00000	55		 push	 ebp
  00001	8b ec		 mov	 ebp, esp
  00003	b8 04 a0 00 00	 mov	 eax, 40964		; 0000a004H
  00008	e8 00 00 00 00	 call	 __chkstk
  0000d	a1 00 00 00 00	 mov	 eax, DWORD PTR ___security_cookie
  00012	33 c5		 xor	 eax, ebp
  00014	89 45 fc	 mov	 DWORD PTR __$ArrayPad$[ebp], eax
  00017	56		 push	 esi
  00018	57		 push	 edi
  00019	8b f1		 mov	 esi, ecx

; 174  : 	CQuery* pQuery = GetQueryObject();
; 175  : 	char szQuery[QUERY_SIZE] = {0,};

  0001b	8d 85 fc 5f ff
	ff		 lea	 eax, DWORD PTR _szQuery$[ebp]
  00021	68 00 a0 00 00	 push	 40960			; 0000a000H
  00026	6a 00		 push	 0
  00028	50		 push	 eax
  00029	8b 7e 0c	 mov	 edi, DWORD PTR [esi+12]
  0002c	e8 00 00 00 00	 call	 _memset

; 176  : 
; 177  : 	// ŔÔÂű Á¤ş¸ Update
; 178  : 	if( chState == 'W' || chState == 'L' )		// ˝Â¸®, ĆĐąč ĆÇÁ¤

  00031	8a 45 14	 mov	 al, BYTE PTR _chState$[ebp]
  00034	83 c4 0c	 add	 esp, 12			; 0000000cH
  00037	3c 57		 cmp	 al, 87			; 00000057H
  00039	74 32		 je	 SHORT $LN4@UpdateTend
  0003b	3c 4c		 cmp	 al, 76			; 0000004cH
  0003d	74 2e		 je	 SHORT $LN4@UpdateTend

; 180  : 				g_appInfo.dwSys, m_nTimes, nContinent, dwGuildId, nPenya, chState, dwWorldId, nWarState, nKillCount );
; 181  : 	else	// ŔĎąÝŔűŔÎ Update( ˝ĹĂ»±Ý Ăß°ˇ ą× ĂëĽŇ )
; 182  : 		sprintf( szQuery, "SECRET_ROOM_STR 'U1', '%02d', %d, %d, '%06d', %d, '%c', 0, 0, 0",

  0003f	0f be c0	 movsx	 eax, al
  00042	50		 push	 eax
  00043	ff 75 10	 push	 DWORD PTR _nPenya$[ebp]
  00046	0f b6 45 08	 movzx	 eax, BYTE PTR _nContinent$[ebp]
  0004a	ff 75 0c	 push	 DWORD PTR _dwGuildId$[ebp]
  0004d	50		 push	 eax
  0004e	ff 76 14	 push	 DWORD PTR [esi+20]
  00051	8d 85 fc 5f ff
	ff		 lea	 eax, DWORD PTR _szQuery$[ebp]
  00057	ff 35 00 00 00
	00		 push	 DWORD PTR ?g_appInfo@@3UAppInfo@@A
  0005d	68 00 00 00 00	 push	 OFFSET ??_C@_0EA@IECOBPGC@SECRET_ROOM_STR?5?8U1?8?0?5?8?$CF02d?8?0?5?$CF@
  00062	50		 push	 eax
  00063	e8 00 00 00 00	 call	 _sprintf
  00068	83 c4 20	 add	 esp, 32			; 00000020H
  0006b	eb 35		 jmp	 SHORT $LN3@UpdateTend
$LN4@UpdateTend:

; 179  : 		sprintf( szQuery, "SECRET_ROOM_STR 'U2', '%02d', %d, %d, '%06d', %d, '%c', %d, %d, %d",

  0006d	ff 75 20	 push	 DWORD PTR _nKillCount$[ebp]
  00070	0f be c0	 movsx	 eax, al
  00073	ff 75 1c	 push	 DWORD PTR _nWarState$[ebp]
  00076	ff 75 18	 push	 DWORD PTR _dwWorldId$[ebp]
  00079	50		 push	 eax
  0007a	ff 75 10	 push	 DWORD PTR _nPenya$[ebp]
  0007d	0f b6 45 08	 movzx	 eax, BYTE PTR _nContinent$[ebp]
  00081	ff 75 0c	 push	 DWORD PTR _dwGuildId$[ebp]
  00084	50		 push	 eax
  00085	ff 76 14	 push	 DWORD PTR [esi+20]
  00088	8d 85 fc 5f ff
	ff		 lea	 eax, DWORD PTR _szQuery$[ebp]
  0008e	ff 35 00 00 00
	00		 push	 DWORD PTR ?g_appInfo@@3UAppInfo@@A
  00094	68 00 00 00 00	 push	 OFFSET ??_C@_0ED@ODGBHELB@SECRET_ROOM_STR?5?8U2?8?0?5?8?$CF02d?8?0?5?$CF@
  00099	50		 push	 eax
  0009a	e8 00 00 00 00	 call	 _sprintf
  0009f	83 c4 2c	 add	 esp, 44			; 0000002cH
$LN3@UpdateTend:

; 183  : 				g_appInfo.dwSys, m_nTimes, nContinent, dwGuildId, nPenya, chState );
; 184  : 	
; 185  : 	if( pQuery->Exec( szQuery ) == FALSE )

  000a2	8d 85 fc 5f ff
	ff		 lea	 eax, DWORD PTR _szQuery$[ebp]
  000a8	8b cf		 mov	 ecx, edi
  000aa	50		 push	 eax
  000ab	e8 00 00 00 00	 call	 ?Exec@CQuery@@QAEHPBD@Z	; CQuery::Exec
  000b0	5f		 pop	 edi
  000b1	5e		 pop	 esi
  000b2	85 c0		 test	 eax, eax
  000b4	75 1e		 jne	 SHORT $LN5@UpdateTend

; 186  : 	{ WriteLog( "%s, %d\t%s", __FILE__, __LINE__, szQuery ); return; }

  000b6	8d 85 fc 5f ff
	ff		 lea	 eax, DWORD PTR _szQuery$[ebp]
  000bc	50		 push	 eax
  000bd	68 ba 00 00 00	 push	 186			; 000000baH
  000c2	68 00 00 00 00	 push	 OFFSET ??_C@_0EF@DJMJOFIF@C?3?2IAGOS?2server?2v18?2Source?2Sour@
  000c7	68 00 00 00 00	 push	 OFFSET ??_C@_09GBAEEKDE@?$CFs?0?5?$CFd?7?$CFs@
  000cc	e8 00 00 00 00	 call	 ?WriteLog@@YAXPBDZZ	; WriteLog
  000d1	83 c4 10	 add	 esp, 16			; 00000010H
$LN5@UpdateTend:

; 187  : }

  000d4	8b 4d fc	 mov	 ecx, DWORD PTR __$ArrayPad$[ebp]
  000d7	33 cd		 xor	 ecx, ebp
  000d9	e8 00 00 00 00	 call	 @__security_check_cookie@4
  000de	8b e5		 mov	 esp, ebp
  000e0	5d		 pop	 ebp
  000e1	c2 1c 00	 ret	 28			; 0000001cH
?UpdateTenderToDB@CSecretRoomDbController@@AAEXEKHDKHH@Z ENDP ; CSecretRoomDbController::UpdateTenderToDB
_TEXT	ENDS
; Function compile flags: /Ogtp
; File C:\IAGOS\server\v18\Source\Source\DatabaseServer\SecretRoomDBMng.cpp
;	COMDAT ?InsertTenderToDB@CSecretRoomDbController@@AAEXEKH@Z
_TEXT	SEGMENT
_szQuery$ = -40964					; size = 40960
__$ArrayPad$ = -4					; size = 4
_nContinent$ = 8					; size = 1
_dwGuildId$ = 12					; size = 4
_nPenya$ = 16						; size = 4
?InsertTenderToDB@CSecretRoomDbController@@AAEXEKH@Z PROC ; CSecretRoomDbController::InsertTenderToDB, COMDAT
; _this$ = ecx

; 161  : {

  00000	55		 push	 ebp
  00001	8b ec		 mov	 ebp, esp
  00003	b8 04 a0 00 00	 mov	 eax, 40964		; 0000a004H
  00008	e8 00 00 00 00	 call	 __chkstk
  0000d	a1 00 00 00 00	 mov	 eax, DWORD PTR ___security_cookie
  00012	33 c5		 xor	 eax, ebp
  00014	89 45 fc	 mov	 DWORD PTR __$ArrayPad$[ebp], eax
  00017	56		 push	 esi
  00018	57		 push	 edi
  00019	8b f1		 mov	 esi, ecx

; 162  : 	CQuery* pQuery = GetQueryObject();
; 163  : 	char szQuery[QUERY_SIZE] = {0,};

  0001b	8d 85 fc 5f ff
	ff		 lea	 eax, DWORD PTR _szQuery$[ebp]
  00021	68 00 a0 00 00	 push	 40960			; 0000a000H
  00026	6a 00		 push	 0
  00028	50		 push	 eax
  00029	8b 7e 0c	 mov	 edi, DWORD PTR [esi+12]
  0002c	e8 00 00 00 00	 call	 _memset

; 164  : 
; 165  : 	// ŔÔÂű Á¤ş¸ Insert
; 166  : 	sprintf( szQuery, "SECRET_ROOM_STR 'I1', '%02d', %d, %d, '%06d', %d, 'T', 0, 0, 0",

  00031	ff 75 10	 push	 DWORD PTR _nPenya$[ebp]
  00034	0f b6 45 08	 movzx	 eax, BYTE PTR _nContinent$[ebp]
  00038	ff 75 0c	 push	 DWORD PTR _dwGuildId$[ebp]
  0003b	50		 push	 eax
  0003c	ff 76 14	 push	 DWORD PTR [esi+20]
  0003f	8d 85 fc 5f ff
	ff		 lea	 eax, DWORD PTR _szQuery$[ebp]
  00045	ff 35 00 00 00
	00		 push	 DWORD PTR ?g_appInfo@@3UAppInfo@@A
  0004b	68 00 00 00 00	 push	 OFFSET ??_C@_0DP@BOHJKIPD@SECRET_ROOM_STR?5?8I1?8?0?5?8?$CF02d?8?0?5?$CF@
  00050	50		 push	 eax
  00051	e8 00 00 00 00	 call	 _sprintf
  00056	83 c4 28	 add	 esp, 40			; 00000028H

; 167  : 						g_appInfo.dwSys, m_nTimes, nContinent, dwGuildId, nPenya );
; 168  : 	if( pQuery->Exec( szQuery ) == FALSE )

  00059	8d 85 fc 5f ff
	ff		 lea	 eax, DWORD PTR _szQuery$[ebp]
  0005f	8b cf		 mov	 ecx, edi
  00061	50		 push	 eax
  00062	e8 00 00 00 00	 call	 ?Exec@CQuery@@QAEHPBD@Z	; CQuery::Exec
  00067	5f		 pop	 edi
  00068	5e		 pop	 esi
  00069	85 c0		 test	 eax, eax
  0006b	75 1e		 jne	 SHORT $LN2@InsertTend

; 169  : 	{ WriteLog( "%s, %d\t%s", __FILE__, __LINE__, szQuery ); return; }

  0006d	8d 85 fc 5f ff
	ff		 lea	 eax, DWORD PTR _szQuery$[ebp]
  00073	50		 push	 eax
  00074	68 a9 00 00 00	 push	 169			; 000000a9H
  00079	68 00 00 00 00	 push	 OFFSET ??_C@_0EF@DJMJOFIF@C?3?2IAGOS?2server?2v18?2Source?2Sour@
  0007e	68 00 00 00 00	 push	 OFFSET ??_C@_09GBAEEKDE@?$CFs?0?5?$CFd?7?$CFs@
  00083	e8 00 00 00 00	 call	 ?WriteLog@@YAXPBDZZ	; WriteLog
  00088	83 c4 10	 add	 esp, 16			; 00000010H
$LN2@InsertTend:

; 170  : }

  0008b	8b 4d fc	 mov	 ecx, DWORD PTR __$ArrayPad$[ebp]
  0008e	33 cd		 xor	 ecx, ebp
  00090	e8 00 00 00 00	 call	 @__security_check_cookie@4
  00095	8b e5		 mov	 esp, ebp
  00097	5d		 pop	 ebp
  00098	c2 0c 00	 ret	 12			; 0000000cH
?InsertTenderToDB@CSecretRoomDbController@@AAEXEKH@Z ENDP ; CSecretRoomDbController::InsertTenderToDB
_TEXT	ENDS
; Function compile flags: /Ogtp
; File C:\IAGOS\server\v18\Source\Source\DatabaseServer\SecretRoomDBMng.cpp
; File C:\Program Files\Microsoft Visual Studio\2022\Professional\VC\Tools\MSVC\14.44.35207\include\vector
; File C:\IAGOS\server\v18\Source\Source\DatabaseServer\SecretRoomDBMng.cpp
; File C:\Program Files\Microsoft Visual Studio\2022\Professional\VC\Tools\MSVC\14.44.35207\include\vector
; File C:\IAGOS\server\v18\Source\Source\DatabaseServer\SecretRoomDBMng.cpp
; File C:\Program Files\Microsoft Visual Studio\2022\Professional\VC\Tools\MSVC\14.44.35207\include\vector
; File C:\IAGOS\server\v18\Source\Source\DatabaseServer\SecretRoomDBMng.cpp
; File C:\Program Files\Microsoft Visual Studio\2022\Professional\VC\Tools\MSVC\14.44.35207\include\vector
; File C:\IAGOS\server\v18\Source\Source\DatabaseServer\SecretRoomDBMng.cpp
; File C:\Program Files\Microsoft Visual Studio\2022\Professional\VC\Tools\MSVC\14.44.35207\include\vector
; File C:\IAGOS\server\v18\Source\Source\DatabaseServer\SecretRoomDBMng.cpp
; File C:\Program Files\Microsoft Visual Studio\2022\Professional\VC\Tools\MSVC\14.44.35207\include\vector
; File C:\IAGOS\server\v18\Source\Source\DatabaseServer\SecretRoomDBMng.cpp
; File C:\Program Files\Microsoft Visual Studio\2022\Professional\VC\Tools\MSVC\14.44.35207\include\vector
; File C:\Program Files\Microsoft Visual Studio\2022\Professional\VC\Tools\MSVC\14.44.35207\include\xmemory
; File C:\Program Files\Microsoft Visual Studio\2022\Professional\VC\Tools\MSVC\14.44.35207\include\vector
; File C:\Program Files\Microsoft Visual Studio\2022\Professional\VC\Tools\MSVC\14.44.35207\include\xmemory
; File C:\Program Files\Microsoft Visual Studio\2022\Professional\VC\Tools\MSVC\14.44.35207\include\vector
; File C:\Program Files\Microsoft Visual Studio\2022\Professional\VC\Tools\MSVC\14.44.35207\include\xmemory
; File C:\Program Files\Microsoft Visual Studio\2022\Professional\VC\Tools\MSVC\14.44.35207\include\vector
; File C:\Program Files\Microsoft Visual Studio\2022\Professional\VC\Tools\MSVC\14.44.35207\include\xmemory
; File C:\Program Files\Microsoft Visual Studio\2022\Professional\VC\Tools\MSVC\14.44.35207\include\vector
; File C:\Program Files\Microsoft Visual Studio\2022\Professional\VC\Tools\MSVC\14.44.35207\include\xmemory
; File C:\Program Files\Microsoft Visual Studio\2022\Professional\VC\Tools\MSVC\14.44.35207\include\vector
; File C:\IAGOS\server\v18\Source\Source\DatabaseServer\SecretRoomDBMng.cpp
; File C:\Program Files\Microsoft Visual Studio\2022\Professional\VC\Tools\MSVC\14.44.35207\include\vector
; File C:\IAGOS\server\v18\Source\Source\DatabaseServer\SecretRoomDBMng.cpp
; File C:\Program Files\Microsoft Visual Studio\2022\Professional\VC\Tools\MSVC\14.44.35207\include\vector
; File C:\IAGOS\server\v18\Source\Source\DatabaseServer\SecretRoomDBMng.cpp
; File C:\Program Files\Microsoft Visual Studio\2022\Professional\VC\Tools\MSVC\14.44.35207\include\vector
; File C:\IAGOS\server\v18\Source\Source\DatabaseServer\SecretRoomDBMng.cpp
; File C:\Program Files\Microsoft Visual Studio\2022\Professional\VC\Tools\MSVC\14.44.35207\include\vector
; File C:\IAGOS\server\v18\Source\Source\DatabaseServer\SecretRoomDBMng.cpp
; File C:\Program Files\Microsoft Visual Studio\2022\Professional\VC\Tools\MSVC\14.44.35207\include\vector
; File C:\IAGOS\server\v18\Source\Source\DatabaseServer\SecretRoomDBMng.cpp
; File C:\Program Files\Microsoft Visual Studio\2022\Professional\VC\Tools\MSVC\14.44.35207\include\vector
; File C:\IAGOS\server\v18\Source\Source\DatabaseServer\SecretRoomDBMng.cpp
; File C:\Program Files\Microsoft Visual Studio\2022\Professional\VC\Tools\MSVC\14.44.35207\include\vector
; File C:\IAGOS\server\v18\Source\Source\DatabaseServer\SecretRoomDBMng.cpp
; File C:\Program Files\Microsoft Visual Studio\2022\Professional\VC\Tools\MSVC\14.44.35207\include\vector
; File C:\Program Files\Microsoft Visual Studio\2022\Professional\VC\Tools\MSVC\14.44.35207\include\xmemory
; File C:\Program Files\Microsoft Visual Studio\2022\Professional\VC\Tools\MSVC\14.44.35207\include\vector
; File C:\Program Files\Microsoft Visual Studio\2022\Professional\VC\Tools\MSVC\14.44.35207\include\xmemory
; File C:\Program Files\Microsoft Visual Studio\2022\Professional\VC\Tools\MSVC\14.44.35207\include\vector
; File C:\Program Files\Microsoft Visual Studio\2022\Professional\VC\Tools\MSVC\14.44.35207\include\xmemory
; File C:\Program Files\Microsoft Visual Studio\2022\Professional\VC\Tools\MSVC\14.44.35207\include\vector
; File C:\Program Files\Microsoft Visual Studio\2022\Professional\VC\Tools\MSVC\14.44.35207\include\xmemory
; File C:\Program Files\Microsoft Visual Studio\2022\Professional\VC\Tools\MSVC\14.44.35207\include\vector
; File C:\Program Files\Microsoft Visual Studio\2022\Professional\VC\Tools\MSVC\14.44.35207\include\xmemory
; File C:\Program Files\Microsoft Visual Studio\2022\Professional\VC\Tools\MSVC\14.44.35207\include\vector
; File C:\IAGOS\server\v18\Source\Source\DatabaseServer\SecretRoomDBMng.cpp
; File C:\Program Files\Microsoft Visual Studio\2022\Professional\VC\Tools\MSVC\14.44.35207\include\vector
; File C:\IAGOS\server\v18\Source\Source\DatabaseServer\SecretRoomDBMng.cpp
; File C:\Program Files\Microsoft Visual Studio\2022\Professional\VC\Tools\MSVC\14.44.35207\include\vector
; File C:\Program Files\Microsoft Visual Studio\2022\Professional\VC\Tools\MSVC\14.44.35207\include\xmemory
; File C:\Program Files\Microsoft Visual Studio\2022\Professional\VC\Tools\MSVC\14.44.35207\include\vector
; File C:\Program Files\Microsoft Visual Studio\2022\Professional\VC\Tools\MSVC\14.44.35207\include\xmemory
; File C:\Program Files\Microsoft Visual Studio\2022\Professional\VC\Tools\MSVC\14.44.35207\include\vector
; File C:\IAGOS\server\v18\Source\Source\DatabaseServer\SecretRoomDBMng.cpp
; File C:\Program Files\Microsoft Visual Studio\2022\Professional\VC\Tools\MSVC\14.44.35207\include\vector
; File C:\IAGOS\server\v18\Source\Source\DatabaseServer\SecretRoomDBMng.cpp
; File C:\Program Files\Microsoft Visual Studio\2022\Professional\VC\Tools\MSVC\14.44.35207\include\vector
; File C:\IAGOS\server\v18\Source\Source\DatabaseServer\SecretRoomDBMng.cpp
; File C:\Program Files\Microsoft Visual Studio\2022\Professional\VC\Tools\MSVC\14.44.35207\include\vector
; File C:\Program Files\Microsoft Visual Studio\2022\Professional\VC\Tools\MSVC\14.44.35207\include\xmemory
; File C:\Program Files\Microsoft Visual Studio\2022\Professional\VC\Tools\MSVC\14.44.35207\include\vector
; File C:\Program Files\Microsoft Visual Studio\2022\Professional\VC\Tools\MSVC\14.44.35207\include\xmemory
; File C:\Program Files\Microsoft Visual Studio\2022\Professional\VC\Tools\MSVC\14.44.35207\include\vector
; File C:\Program Files\Microsoft Visual Studio\2022\Professional\VC\Tools\MSVC\14.44.35207\include\xmemory
; File C:\Program Files\Microsoft Visual Studio\2022\Professional\VC\Tools\MSVC\14.44.35207\include\vector
; File C:\Program Files\Microsoft Visual Studio\2022\Professional\VC\Tools\MSVC\14.44.35207\include\xmemory
; File C:\Program Files\Microsoft Visual Studio\2022\Professional\VC\Tools\MSVC\14.44.35207\include\vector
; File C:\IAGOS\server\v18\Source\Source\DatabaseServer\SecretRoomDBMng.cpp
; File C:\Program Files\Microsoft Visual Studio\2022\Professional\VC\Tools\MSVC\14.44.35207\include\vector
; File C:\Program Files\Microsoft Visual Studio\2022\Professional\VC\Tools\MSVC\14.44.35207\include\xmemory
; File C:\Program Files\Microsoft Visual Studio\2022\Professional\VC\Tools\MSVC\14.44.35207\include\vector
; File C:\Program Files\Microsoft Visual Studio\2022\Professional\VC\Tools\MSVC\14.44.35207\include\xmemory
; File C:\IAGOS\server\v18\Source\Source\DatabaseServer\SecretRoomDBMng.cpp
; File C:\Program Files\Microsoft Visual Studio\2022\Professional\VC\Tools\MSVC\14.44.35207\include\xmemory
; File C:\IAGOS\server\v18\Source\Source\DatabaseServer\SecretRoomDBMng.cpp
;	COMDAT ?LoadSecretRoom@CSecretRoomDbController@@AAEXK@Z
_TEXT	SEGMENT
_pQuery$1$ = -41056					; size = 4
$T2 = -41052						; size = 4
$T3 = -41052						; size = 4
_this$GSCopy$1$ = -41048				; size = 4
$T4 = -41044						; size = 4
_vec_nPenya$ = -41040					; size = 12
_vec_nContinent$ = -41028				; size = 12
_vec_dwGuildId$ = -41016				; size = 12
tv2243 = -41004						; size = 4
__Newsize$1$ = -41004					; size = 4
__Oldsize$1$ = -41004					; size = 4
_nCount$1$ = -41000					; size = 4
_i$1$ = -41000						; size = 4
_vec_dwMemberId$5 = -40996				; size = 12
$T6 = -40984						; size = 4
tv2240 = -40984						; size = 4
__Oldsize$1$ = -40984					; size = 4
__Newsize$1$ = -40984					; size = 4
$T7 = -40977						; size = 1
_szQuery$ = -40976					; size = 40960
__$ArrayPad$ = -16					; size = 4
__$EHRec$ = -12						; size = 12
_dpId$ = 8						; size = 4
?LoadSecretRoom@CSecretRoomDbController@@AAEXK@Z PROC	; CSecretRoomDbController::LoadSecretRoom, COMDAT
; _this$ = ecx

; 104  : {

  00000	55		 push	 ebp
  00001	8b ec		 mov	 ebp, esp
  00003	6a ff		 push	 -1
  00005	68 00 00 00 00	 push	 __ehhandler$?LoadSecretRoom@CSecretRoomDbController@@AAEXK@Z
  0000a	64 a1 00 00 00
	00		 mov	 eax, DWORD PTR fs:0
  00010	50		 push	 eax
  00011	b8 54 a0 00 00	 mov	 eax, 41044		; 0000a054H
  00016	e8 00 00 00 00	 call	 __chkstk
  0001b	a1 00 00 00 00	 mov	 eax, DWORD PTR ___security_cookie
  00020	33 c5		 xor	 eax, ebp
  00022	89 45 f0	 mov	 DWORD PTR __$ArrayPad$[ebp], eax
  00025	53		 push	 ebx
  00026	56		 push	 esi
  00027	57		 push	 edi
  00028	50		 push	 eax
  00029	8d 45 f4	 lea	 eax, DWORD PTR __$EHRec$[ebp]
  0002c	64 a3 00 00 00
	00		 mov	 DWORD PTR fs:0, eax
  00032	8b f1		 mov	 esi, ecx
  00034	89 b5 a8 5f ff
	ff		 mov	 DWORD PTR _this$GSCopy$1$[ebp], esi

; 105  : 	CDPTrans::GetInstance()->SendSecretRoomInfoClear( dpId );

  0003a	ff 75 08	 push	 DWORD PTR _dpId$[ebp]
  0003d	e8 00 00 00 00	 call	 ?GetInstance@CDPTrans@@SAPAV1@XZ ; CDPTrans::GetInstance
  00042	8b c8		 mov	 ecx, eax
  00044	e8 00 00 00 00	 call	 ?SendSecretRoomInfoClear@CDPTrans@@QAEXK@Z ; CDPTrans::SendSecretRoomInfoClear

; 106  : 	
; 107  : 	CQuery* pQuery = GetQueryObject();

  00049	8b 5e 0c	 mov	 ebx, DWORD PTR [esi+12]

; 108  : 	char szQuery[QUERY_SIZE] = {0,};

  0004c	8d 85 f0 5f ff
	ff		 lea	 eax, DWORD PTR _szQuery$[ebp]
  00052	68 00 a0 00 00	 push	 40960			; 0000a000H
  00057	6a 00		 push	 0
  00059	50		 push	 eax
  0005a	89 9d a0 5f ff
	ff		 mov	 DWORD PTR _pQuery$1$[ebp], ebx
  00060	e8 00 00 00 00	 call	 _memset
; File C:\Program Files\Microsoft Visual Studio\2022\Professional\VC\Tools\MSVC\14.44.35207\include\vector

; 400  :     _CONSTEXPR20 _Vector_val() noexcept : _Myfirst(), _Mylast(), _Myend() {}

  00065	c7 85 bc 5f ff
	ff 00 00 00 00	 mov	 DWORD PTR _vec_nContinent$[ebp], 0
  0006f	c7 85 c0 5f ff
	ff 00 00 00 00	 mov	 DWORD PTR _vec_nContinent$[ebp+4], 0
  00079	c7 85 c4 5f ff
	ff 00 00 00 00	 mov	 DWORD PTR _vec_nContinent$[ebp+8], 0
; File C:\IAGOS\server\v18\Source\Source\DatabaseServer\SecretRoomDBMng.cpp

; 111  : 	vector<BYTE> vec_nContinent;

  00083	c7 45 fc 00 00
	00 00		 mov	 DWORD PTR __$EHRec$[ebp+8], 0
; File C:\Program Files\Microsoft Visual Studio\2022\Professional\VC\Tools\MSVC\14.44.35207\include\vector

; 400  :     _CONSTEXPR20 _Vector_val() noexcept : _Myfirst(), _Mylast(), _Myend() {}

  0008a	c7 85 c8 5f ff
	ff 00 00 00 00	 mov	 DWORD PTR _vec_dwGuildId$[ebp], 0
  00094	c7 85 cc 5f ff
	ff 00 00 00 00	 mov	 DWORD PTR _vec_dwGuildId$[ebp+4], 0
  0009e	c7 85 d0 5f ff
	ff 00 00 00 00	 mov	 DWORD PTR _vec_dwGuildId$[ebp+8], 0
  000a8	c7 85 b0 5f ff
	ff 00 00 00 00	 mov	 DWORD PTR _vec_nPenya$[ebp], 0
  000b2	c7 85 b4 5f ff
	ff 00 00 00 00	 mov	 DWORD PTR _vec_nPenya$[ebp+4], 0
  000bc	c7 85 b8 5f ff
	ff 00 00 00 00	 mov	 DWORD PTR _vec_nPenya$[ebp+8], 0
; File C:\IAGOS\server\v18\Source\Source\DatabaseServer\SecretRoomDBMng.cpp

; 116  : 	sprintf( szQuery, "SECRET_ROOM_STR 'S1', '%02d', 0, 0, '0', 0, 'T', 0, 0, 0", g_appInfo.dwSys );

  000c6	ff 35 00 00 00
	00		 push	 DWORD PTR ?g_appInfo@@3UAppInfo@@A
  000cc	8d 85 f0 5f ff
	ff		 lea	 eax, DWORD PTR _szQuery$[ebp]
  000d2	c6 45 fc 02	 mov	 BYTE PTR __$EHRec$[ebp+8], 2
  000d6	68 00 00 00 00	 push	 OFFSET ??_C@_0DJ@KPDDDLOH@SECRET_ROOM_STR?5?8S1?8?0?5?8?$CF02d?8?0?50@
  000db	50		 push	 eax
  000dc	e8 00 00 00 00	 call	 _sprintf
  000e1	83 c4 18	 add	 esp, 24			; 00000018H

; 117  : 	if( pQuery->Exec( szQuery ) == FALSE )

  000e4	8d 85 f0 5f ff
	ff		 lea	 eax, DWORD PTR _szQuery$[ebp]
  000ea	8b cb		 mov	 ecx, ebx
  000ec	50		 push	 eax
  000ed	e8 00 00 00 00	 call	 ?Exec@CQuery@@QAEHPBD@Z	; CQuery::Exec
  000f2	85 c0		 test	 eax, eax
  000f4	75 0b		 jne	 SHORT $LN9@LoadSecret

; 118  : 	{ WriteLog( "%s, %d\t%s", __FILE__, __LINE__, szQuery ); return; }

  000f6	8d 85 f0 5f ff
	ff		 lea	 eax, DWORD PTR _szQuery$[ebp]
  000fc	50		 push	 eax
  000fd	6a 76		 push	 118			; 00000076H
  000ff	eb 66		 jmp	 SHORT $LN509@LoadSecret
$LN9@LoadSecret:

; 119  : 
; 120  : 	if( pQuery->Fetch() )

  00101	8b cb		 mov	 ecx, ebx
  00103	e8 00 00 00 00	 call	 ?Fetch@CQuery@@QAEHXZ	; CQuery::Fetch
  00108	85 c0		 test	 eax, eax
  0010a	74 0f		 je	 SHORT $LN498@LoadSecret

; 121  : 		m_nTimes = pQuery->GetInt( "nTimes" );

  0010c	68 00 00 00 00	 push	 OFFSET ??_C@_06DJGFEEME@nTimes@
  00111	8b cb		 mov	 ecx, ebx
  00113	e8 00 00 00 00	 call	 ?GetInt@CQuery@@QAEHPAD@Z ; CQuery::GetInt
  00118	89 46 14	 mov	 DWORD PTR [esi+20], eax
$LN498@LoadSecret:

; 122  : 	if( m_nTimes == 0 )

  0011b	8b 46 14	 mov	 eax, DWORD PTR [esi+20]
  0011e	85 c0		 test	 eax, eax
  00120	75 0c		 jne	 SHORT $LN11@LoadSecret

; 123  : 	{	
; 124  : 		m_nTimes = 1;

  00122	c7 46 14 01 00
	00 00		 mov	 DWORD PTR [esi+20], 1
  00129	e9 37 05 00 00	 jmp	 $LN312@LoadSecret
$LN11@LoadSecret:

; 125  : 		return;
; 126  : 	}
; 127  : 		
; 128  : 	// ŔÔÂű Á¤ş¸ °ˇÁ®żŔ±â('T')
; 129  : 	sprintf( szQuery, "SECRET_ROOM_STR 'S2', '%02d', %d, 0, '0', 0, 'T', 0, 0, 0", g_appInfo.dwSys, m_nTimes );

  0012e	50		 push	 eax
  0012f	ff 35 00 00 00
	00		 push	 DWORD PTR ?g_appInfo@@3UAppInfo@@A
  00135	8d 85 f0 5f ff
	ff		 lea	 eax, DWORD PTR _szQuery$[ebp]
  0013b	68 00 00 00 00	 push	 OFFSET ??_C@_0DK@PIHLKIG@SECRET_ROOM_STR?5?8S2?8?0?5?8?$CF02d?8?0?5?$CF@
  00140	50		 push	 eax
  00141	e8 00 00 00 00	 call	 _sprintf
  00146	83 c4 10	 add	 esp, 16			; 00000010H

; 130  : 	if( pQuery->Exec( szQuery ) == FALSE )

  00149	8d 85 f0 5f ff
	ff		 lea	 eax, DWORD PTR _szQuery$[ebp]
  0014f	8b cb		 mov	 ecx, ebx
  00151	50		 push	 eax
  00152	e8 00 00 00 00	 call	 ?Exec@CQuery@@QAEHPBD@Z	; CQuery::Exec
  00157	85 c0		 test	 eax, eax
  00159	75 23		 jne	 SHORT $LN12@LoadSecret

; 131  : 	{ WriteLog( "%s, %d\t%s", __FILE__, __LINE__, szQuery ); return; }

  0015b	8d 85 f0 5f ff
	ff		 lea	 eax, DWORD PTR _szQuery$[ebp]
  00161	50		 push	 eax
  00162	68 83 00 00 00	 push	 131			; 00000083H
$LN509@LoadSecret:
; File C:\Program Files\Microsoft Visual Studio\2022\Professional\VC\Tools\MSVC\14.44.35207\include\vector

; 2090 :         if (_Myfirst) { // destroy and deallocate old array

  00167	68 00 00 00 00	 push	 OFFSET ??_C@_0EF@DJMJOFIF@C?3?2IAGOS?2server?2v18?2Source?2Sour@
  0016c	68 00 00 00 00	 push	 OFFSET ??_C@_09GBAEEKDE@?$CFs?0?5?$CFd?7?$CFs@
  00171	e8 00 00 00 00	 call	 ?WriteLog@@YAXPBDZZ	; WriteLog
  00176	83 c4 10	 add	 esp, 16			; 00000010H
  00179	e9 e7 04 00 00	 jmp	 $LN312@LoadSecret
$LN12@LoadSecret:
; File C:\IAGOS\server\v18\Source\Source\DatabaseServer\SecretRoomDBMng.cpp

; 133  : 	int nCount = 0;

  0017e	33 ff		 xor	 edi, edi

; 134  : 	while( pQuery->Fetch() )

  00180	8b cb		 mov	 ecx, ebx
  00182	89 bd d8 5f ff
	ff		 mov	 DWORD PTR _nCount$1$[ebp], edi
  00188	e8 00 00 00 00	 call	 ?Fetch@CQuery@@QAEHXZ	; CQuery::Fetch
  0018d	85 c0		 test	 eax, eax
  0018f	0f 84 e0 01 00
	00		 je	 $LN497@LoadSecret
  00195	66 66 66 0f 1f
	84 00 00 00 00
	00		 npad	 11
$LL2@LoadSecret:

; 136  : 		vec_nContinent.push_back( static_cast<BYTE>( pQuery->GetInt( "nContinent" ) ) );

  001a0	68 00 00 00 00	 push	 OFFSET ??_C@_0L@LBNAINBN@nContinent@
  001a5	8b cb		 mov	 ecx, ebx
  001a7	e8 00 00 00 00	 call	 ?GetInt@CQuery@@QAEHPAD@Z ; CQuery::GetInt
; File C:\Program Files\Microsoft Visual Studio\2022\Professional\VC\Tools\MSVC\14.44.35207\include\vector

; 844  :         if (_Mylast != _My_data._Myend) {

  001ac	8b 8d c0 5f ff
	ff		 mov	 ecx, DWORD PTR _vec_nContinent$[ebp+4]
; File C:\IAGOS\server\v18\Source\Source\DatabaseServer\SecretRoomDBMng.cpp

; 136  : 		vec_nContinent.push_back( static_cast<BYTE>( pQuery->GetInt( "nContinent" ) ) );

  001b2	88 85 ef 5f ff
	ff		 mov	 BYTE PTR $T7[ebp], al
; File C:\Program Files\Microsoft Visual Studio\2022\Professional\VC\Tools\MSVC\14.44.35207\include\vector

; 844  :         if (_Mylast != _My_data._Myend) {

  001b8	3b 8d c4 5f ff
	ff		 cmp	 ecx, DWORD PTR _vec_nContinent$[ebp+8]
  001be	74 0a		 je	 SHORT $LN161@LoadSecret

; 860  :             _STD _Construct_in_place(*_Mylast, _STD forward<_Valty>(_Val)...);

  001c0	88 01		 mov	 BYTE PTR [ecx], al

; 861  :         } else {
; 862  :             _ASAN_VECTOR_EXTEND_GUARD(static_cast<size_type>(_Mylast - _My_data._Myfirst) + 1);
; 863  :             _Alty_traits::construct(_Getal(), _Unfancy(_Mylast), _STD forward<_Valty>(_Val)...);
; 864  :             _ASAN_VECTOR_RELEASE_GUARD;
; 865  :         }
; 866  : 
; 867  :         _Orphan_range(_Mylast, _Mylast);
; 868  :         _Ty& _Result = *_Mylast;
; 869  :         ++_Mylast;

  001c2	ff 85 c0 5f ff
	ff		 inc	 DWORD PTR _vec_nContinent$[ebp+4]

; 845  :             return _Emplace_back_with_unused_capacity(_STD forward<_Valty>(_Val)...);

  001c8	eb 13		 jmp	 SHORT $LN160@LoadSecret
$LN161@LoadSecret:

; 846  :         }
; 847  : 
; 848  :         return *_Emplace_reallocate(_Mylast, _STD forward<_Valty>(_Val)...);

  001ca	8d 85 ef 5f ff
	ff		 lea	 eax, DWORD PTR $T7[ebp]
  001d0	50		 push	 eax
  001d1	51		 push	 ecx
  001d2	8d 8d bc 5f ff
	ff		 lea	 ecx, DWORD PTR _vec_nContinent$[ebp]
  001d8	e8 00 00 00 00	 call	 ??$_Emplace_reallocate@E@?$vector@EV?$allocator@E@std@@@std@@AAEPAEQAE$$QAE@Z ; std::vector<unsigned char,std::allocator<unsigned char> >::_Emplace_reallocate<unsigned char>
$LN160@LoadSecret:
; File C:\IAGOS\server\v18\Source\Source\DatabaseServer\SecretRoomDBMng.cpp

; 137  : 		vec_dwGuildId.push_back( static_cast<DWORD>( pQuery->GetInt( "m_idGuild" ) ) );

  001dd	68 00 00 00 00	 push	 OFFSET ??_C@_09MHDEIN@m_idGuild@
  001e2	8b cb		 mov	 ecx, ebx
  001e4	e8 00 00 00 00	 call	 ?GetInt@CQuery@@QAEHPAD@Z ; CQuery::GetInt
; File C:\Program Files\Microsoft Visual Studio\2022\Professional\VC\Tools\MSVC\14.44.35207\include\vector

; 844  :         if (_Mylast != _My_data._Myend) {

  001e9	8b b5 cc 5f ff
	ff		 mov	 esi, DWORD PTR _vec_dwGuildId$[ebp+4]
  001ef	8b 8d d0 5f ff
	ff		 mov	 ecx, DWORD PTR _vec_dwGuildId$[ebp+8]
; File C:\IAGOS\server\v18\Source\Source\DatabaseServer\SecretRoomDBMng.cpp

; 137  : 		vec_dwGuildId.push_back( static_cast<DWORD>( pQuery->GetInt( "m_idGuild" ) ) );

  001f5	89 85 a4 5f ff
	ff		 mov	 DWORD PTR $T2[ebp], eax
; File C:\Program Files\Microsoft Visual Studio\2022\Professional\VC\Tools\MSVC\14.44.35207\include\vector

; 844  :         if (_Mylast != _My_data._Myend) {

  001fb	3b f1		 cmp	 esi, ecx
  001fd	74 0e		 je	 SHORT $LN168@LoadSecret

; 860  :             _STD _Construct_in_place(*_Mylast, _STD forward<_Valty>(_Val)...);

  001ff	89 06		 mov	 DWORD PTR [esi], eax

; 861  :         } else {
; 862  :             _ASAN_VECTOR_EXTEND_GUARD(static_cast<size_type>(_Mylast - _My_data._Myfirst) + 1);
; 863  :             _Alty_traits::construct(_Getal(), _Unfancy(_Mylast), _STD forward<_Valty>(_Val)...);
; 864  :             _ASAN_VECTOR_RELEASE_GUARD;
; 865  :         }
; 866  : 
; 867  :         _Orphan_range(_Mylast, _Mylast);
; 868  :         _Ty& _Result = *_Mylast;
; 869  :         ++_Mylast;

  00201	83 85 cc 5f ff
	ff 04		 add	 DWORD PTR _vec_dwGuildId$[ebp+4], 4

; 845  :             return _Emplace_back_with_unused_capacity(_STD forward<_Valty>(_Val)...);

  00208	e9 10 01 00 00	 jmp	 $LN243@LoadSecret
$LN168@LoadSecret:

; 875  :     _CONSTEXPR20 pointer _Emplace_reallocate(const pointer _Whereptr, _Valty&&... _Val) {

  0020d	8b 95 c8 5f ff
	ff		 mov	 edx, DWORD PTR _vec_dwGuildId$[ebp]
  00213	8b c6		 mov	 eax, esi
  00215	2b c2		 sub	 eax, edx

; 876  :         // reallocate and insert by perfectly forwarding _Val at _Whereptr
; 877  :         _Alty& _Al        = _Getal();
; 878  :         auto& _My_data    = _Mypair._Myval2;
; 879  :         pointer& _Myfirst = _My_data._Myfirst;
; 880  :         pointer& _Mylast  = _My_data._Mylast;
; 881  : 
; 882  :         _STL_INTERNAL_CHECK(_Mylast == _My_data._Myend); // check that we have no unused capacity
; 883  : 
; 884  :         const auto _Whereoff = static_cast<size_type>(_Whereptr - _Myfirst);

  00217	c1 f8 02	 sar	 eax, 2
  0021a	89 85 d4 5f ff
	ff		 mov	 DWORD PTR __Oldsize$1$[ebp], eax

; 885  :         const auto _Oldsize  = static_cast<size_type>(_Mylast - _Myfirst);
; 886  : 
; 887  :         if (_Oldsize == max_size()) {

  00220	3d ff ff ff 3f	 cmp	 eax, 1073741823		; 3fffffffH
  00225	0f 84 f9 04 00
	00		 je	 $LN476@LoadSecret

; 888  :             _Xlength();
; 889  :         }
; 890  : 
; 891  :         const size_type _Newsize = _Oldsize + 1;

  0022b	2b ca		 sub	 ecx, edx
  0022d	8d 78 01	 lea	 edi, DWORD PTR [eax+1]

; 1924 :         return static_cast<size_type>(_My_data._Myend - _My_data._Myfirst);

  00230	c1 f9 02	 sar	 ecx, 2

; 2011 :         if (_Oldcapacity > _Max - _Oldcapacity / 2) {

  00233	b8 ff ff ff 3f	 mov	 eax, 1073741823		; 3fffffffH
  00238	8b d1		 mov	 edx, ecx

; 891  :         const size_type _Newsize = _Oldsize + 1;

  0023a	89 bd e8 5f ff
	ff		 mov	 DWORD PTR __Newsize$1$[ebp], edi

; 2011 :         if (_Oldcapacity > _Max - _Oldcapacity / 2) {

  00240	d1 ea		 shr	 edx, 1
  00242	2b c2		 sub	 eax, edx
  00244	3b c8		 cmp	 ecx, eax
  00246	76 17		 jbe	 SHORT $LN179@LoadSecret

; 2012 :             return _Max; // geometric growth would overflow

  00248	b8 fc ff ff ff	 mov	 eax, -4			; fffffffcH
  0024d	c7 85 ac 5f ff
	ff ff ff ff 3f	 mov	 DWORD PTR $T4[ebp], 1073741823 ; 3fffffffH
; File C:\Program Files\Microsoft Visual Studio\2022\Professional\VC\Tools\MSVC\14.44.35207\include\xmemory

; 253  :             return _Allocate_manually_vector_aligned<_Traits>(_Bytes);

  00257	50		 push	 eax
  00258	e8 00 00 00 00	 call	 ??$_Allocate_manually_vector_aligned@U_Default_allocate_traits@std@@@std@@YAPAXI@Z ; std::_Allocate_manually_vector_aligned<std::_Default_allocate_traits>
  0025d	eb 46		 jmp	 SHORT $LN507@LoadSecret
$LN179@LoadSecret:
; File C:\Program Files\Microsoft Visual Studio\2022\Professional\VC\Tools\MSVC\14.44.35207\include\vector

; 2015 :         const size_type _Geometric = _Oldcapacity + _Oldcapacity / 2;

  0025f	8d 04 0a	 lea	 eax, DWORD PTR [edx+ecx]
; File C:\Program Files\Microsoft Visual Studio\2022\Professional\VC\Tools\MSVC\14.44.35207\include\xmemory

; 117  :         if (_Count > _Max_possible) {

  00262	8b cf		 mov	 ecx, edi
  00264	3b c7		 cmp	 eax, edi
  00266	0f 43 c8	 cmovae	 ecx, eax
  00269	89 8d ac 5f ff
	ff		 mov	 DWORD PTR $T4[ebp], ecx
  0026f	81 f9 ff ff ff
	3f		 cmp	 ecx, 1073741823		; 3fffffffH
  00275	0f 87 a4 04 00
	00		 ja	 $LN477@LoadSecret

; 118  :             _Throw_bad_array_new_length(); // multiply overflow
; 119  :         }
; 120  :     }
; 121  : 
; 122  :     return _Count * _Ty_size;

  0027b	8d 04 8d 00 00
	00 00		 lea	 eax, DWORD PTR [ecx*4]

; 227  :     if (_Bytes == 0) {

  00282	85 c0		 test	 eax, eax
  00284	75 0a		 jne	 SHORT $LN194@LoadSecret

; 228  :         return nullptr;

  00286	33 ff		 xor	 edi, edi
  00288	89 8d ac 5f ff
	ff		 mov	 DWORD PTR $T4[ebp], ecx
  0028e	eb 1a		 jmp	 SHORT $LN193@LoadSecret
$LN194@LoadSecret:

; 229  :     }
; 230  : 
; 231  : #if _HAS_CXX20 // TRANSITION, GH-1532
; 232  :     if (_STD is_constant_evaluated()) {
; 233  :         return _Traits::_Allocate(_Bytes);
; 234  :     }
; 235  : #endif // _HAS_CXX20
; 236  : 
; 237  : #ifdef __cpp_aligned_new
; 238  :     if constexpr (_Align > __STDCPP_DEFAULT_NEW_ALIGNMENT__) {
; 239  :         size_t _Passed_align = _Align;
; 240  : #if defined(_M_IX86) || defined(_M_X64)
; 241  :         if (_Bytes >= _Big_allocation_threshold) {
; 242  :             // boost the alignment of big allocations to help autovectorization
; 243  :             _Passed_align = (_STD max)(_Align, _Big_allocation_alignment);
; 244  :         }
; 245  : #endif // defined(_M_IX86) || defined(_M_X64)
; 246  :         return _Traits::_Allocate_aligned(_Bytes, _Passed_align);
; 247  :     } else
; 248  : #endif // defined(__cpp_aligned_new)
; 249  :     {
; 250  : #if defined(_M_IX86) || defined(_M_X64)
; 251  :         if (_Bytes >= _Big_allocation_threshold) {

  00290	3d 00 10 00 00	 cmp	 eax, 4096		; 00001000H
  00295	72 08		 jb	 SHORT $LN195@LoadSecret

; 253  :             return _Allocate_manually_vector_aligned<_Traits>(_Bytes);

  00297	50		 push	 eax
  00298	e8 00 00 00 00	 call	 ??$_Allocate_manually_vector_aligned@U_Default_allocate_traits@std@@@std@@YAPAXI@Z ; std::_Allocate_manually_vector_aligned<std::_Default_allocate_traits>
  0029d	eb 06		 jmp	 SHORT $LN507@LoadSecret
$LN195@LoadSecret:

; 136  :         return ::operator new(_Bytes);

  0029f	50		 push	 eax
  002a0	e8 00 00 00 00	 call	 ??2@YAPAXI@Z		; operator new
$LN507@LoadSecret:
; File C:\Program Files\Microsoft Visual Studio\2022\Professional\VC\Tools\MSVC\14.44.35207\include\vector

; 900  :         _Alty_traits::construct(_Al, _STD _Unfancy(_Newvec + _Whereoff), _STD forward<_Valty>(_Val)...);

  002a5	8b f8		 mov	 edi, eax
  002a7	83 c4 04	 add	 esp, 4
$LN193@LoadSecret:
  002aa	8b 85 d4 5f ff
	ff		 mov	 eax, DWORD PTR __Oldsize$1$[ebp]
  002b0	8b 8d a4 5f ff
	ff		 mov	 ecx, DWORD PTR $T2[ebp]
  002b6	8d 04 87	 lea	 eax, DWORD PTR [edi+eax*4]
  002b9	89 85 d4 5f ff
	ff		 mov	 DWORD PTR tv2243[ebp], eax
  002bf	89 08		 mov	 DWORD PTR [eax], ecx

; 901  :         _Constructed_first = _Newvec + _Whereoff;
; 902  : 
; 903  :         if (_Whereptr == _Mylast) { // at back, provide strong guarantee

  002c1	8b 85 cc 5f ff
	ff		 mov	 eax, DWORD PTR _vec_dwGuildId$[ebp+4]
  002c7	3b f0		 cmp	 esi, eax
  002c9	75 0a		 jne	 SHORT $LN174@LoadSecret
; File C:\Program Files\Microsoft Visual Studio\2022\Professional\VC\Tools\MSVC\14.44.35207\include\xmemory

; 1992 :             _STD _Copy_memmove(_UFirst, _ULast, _STD _Unfancy(_Dest));

  002cb	8b b5 c8 5f ff
	ff		 mov	 esi, DWORD PTR _vec_dwGuildId$[ebp]
  002d1	8b cf		 mov	 ecx, edi
; File C:\Program Files\Microsoft Visual Studio\2022\Professional\VC\Tools\MSVC\14.44.35207\include\vector

; 909  :         } else { // provide basic guarantee

  002d3	eb 1f		 jmp	 SHORT $LN223@LoadSecret
$LN174@LoadSecret:
; File C:\Program Files\Microsoft Visual Studio\2022\Professional\VC\Tools\MSVC\14.44.35207\include\xmemory

; 1992 :             _STD _Copy_memmove(_UFirst, _ULast, _STD _Unfancy(_Dest));

  002d5	57		 push	 edi
  002d6	56		 push	 esi
  002d7	ff b5 c8 5f ff
	ff		 push	 DWORD PTR _vec_dwGuildId$[ebp]
  002dd	e8 00 00 00 00	 call	 ??$_Copy_memmove@PAKPAK@std@@YAPAKPAK00@Z ; std::_Copy_memmove<unsigned long *,unsigned long *>
; File C:\Program Files\Microsoft Visual Studio\2022\Professional\VC\Tools\MSVC\14.44.35207\include\vector

; 912  :             _STD _Uninitialized_move(_Whereptr, _Mylast, _Newvec + _Whereoff + 1, _Al);

  002e2	8b 8d d4 5f ff
	ff		 mov	 ecx, DWORD PTR tv2243[ebp]
; File C:\Program Files\Microsoft Visual Studio\2022\Professional\VC\Tools\MSVC\14.44.35207\include\xmemory

; 1992 :             _STD _Copy_memmove(_UFirst, _ULast, _STD _Unfancy(_Dest));

  002e8	83 c4 0c	 add	 esp, 12			; 0000000cH
  002eb	8b 85 cc 5f ff
	ff		 mov	 eax, DWORD PTR _vec_dwGuildId$[ebp+4]
; File C:\Program Files\Microsoft Visual Studio\2022\Professional\VC\Tools\MSVC\14.44.35207\include\vector

; 912  :             _STD _Uninitialized_move(_Whereptr, _Mylast, _Newvec + _Whereoff + 1, _Al);

  002f1	83 c1 04	 add	 ecx, 4
$LN223@LoadSecret:

; 913  :         }
; 914  : 
; 915  :         _Guard._New_begin = nullptr;

  002f4	51		 push	 ecx
  002f5	50		 push	 eax
  002f6	56		 push	 esi
  002f7	e8 00 00 00 00	 call	 ??$_Copy_memmove@PAKPAK@std@@YAPAKPAK00@Z ; std::_Copy_memmove<unsigned long *,unsigned long *>
  002fc	83 c4 0c	 add	 esp, 12			; 0000000cH

; 916  :         _Change_array(_Newvec, _Newsize, _Newcapacity);

  002ff	8d 8d c8 5f ff
	ff		 lea	 ecx, DWORD PTR _vec_dwGuildId$[ebp]
  00305	ff b5 ac 5f ff
	ff		 push	 DWORD PTR $T4[ebp]
  0030b	ff b5 e8 5f ff
	ff		 push	 DWORD PTR __Newsize$1$[ebp]
  00311	57		 push	 edi
  00312	e8 00 00 00 00	 call	 ?_Change_array@?$vector@KV?$allocator@K@std@@@std@@AAEXQAKII@Z ; std::vector<unsigned long,std::allocator<unsigned long> >::_Change_array
  00317	8b bd d8 5f ff
	ff		 mov	 edi, DWORD PTR _nCount$1$[ebp]
$LN243@LoadSecret:
; File C:\IAGOS\server\v18\Source\Source\DatabaseServer\SecretRoomDBMng.cpp

; 138  : 		vec_nPenya.push_back( static_cast<int>( pQuery->GetInt( "nPenya" ) ) );

  0031d	68 00 00 00 00	 push	 OFFSET ??_C@_06BIHJGOPK@nPenya@
  00322	8b cb		 mov	 ecx, ebx
  00324	e8 00 00 00 00	 call	 ?GetInt@CQuery@@QAEHPAD@Z ; CQuery::GetInt
; File C:\Program Files\Microsoft Visual Studio\2022\Professional\VC\Tools\MSVC\14.44.35207\include\vector

; 844  :         if (_Mylast != _My_data._Myend) {

  00329	8b 8d b4 5f ff
	ff		 mov	 ecx, DWORD PTR _vec_nPenya$[ebp+4]
; File C:\IAGOS\server\v18\Source\Source\DatabaseServer\SecretRoomDBMng.cpp

; 138  : 		vec_nPenya.push_back( static_cast<int>( pQuery->GetInt( "nPenya" ) ) );

  0032f	89 85 e8 5f ff
	ff		 mov	 DWORD PTR $T6[ebp], eax
; File C:\Program Files\Microsoft Visual Studio\2022\Professional\VC\Tools\MSVC\14.44.35207\include\vector

; 844  :         if (_Mylast != _My_data._Myend) {

  00335	3b 8d b8 5f ff
	ff		 cmp	 ecx, DWORD PTR _vec_nPenya$[ebp+8]
  0033b	74 0b		 je	 SHORT $LN257@LoadSecret

; 860  :             _STD _Construct_in_place(*_Mylast, _STD forward<_Valty>(_Val)...);

  0033d	89 01		 mov	 DWORD PTR [ecx], eax

; 861  :         } else {
; 862  :             _ASAN_VECTOR_EXTEND_GUARD(static_cast<size_type>(_Mylast - _My_data._Myfirst) + 1);
; 863  :             _Alty_traits::construct(_Getal(), _Unfancy(_Mylast), _STD forward<_Valty>(_Val)...);
; 864  :             _ASAN_VECTOR_RELEASE_GUARD;
; 865  :         }
; 866  : 
; 867  :         _Orphan_range(_Mylast, _Mylast);
; 868  :         _Ty& _Result = *_Mylast;
; 869  :         ++_Mylast;

  0033f	83 85 b4 5f ff
	ff 04		 add	 DWORD PTR _vec_nPenya$[ebp+4], 4

; 845  :             return _Emplace_back_with_unused_capacity(_STD forward<_Valty>(_Val)...);

  00346	eb 13		 jmp	 SHORT $LN256@LoadSecret
$LN257@LoadSecret:

; 846  :         }
; 847  : 
; 848  :         return *_Emplace_reallocate(_Mylast, _STD forward<_Valty>(_Val)...);

  00348	8d 85 e8 5f ff
	ff		 lea	 eax, DWORD PTR $T6[ebp]
  0034e	50		 push	 eax
  0034f	51		 push	 ecx
  00350	8d 8d b0 5f ff
	ff		 lea	 ecx, DWORD PTR _vec_nPenya$[ebp]
  00356	e8 00 00 00 00	 call	 ??$_Emplace_reallocate@H@?$vector@HV?$allocator@H@std@@@std@@AAEPAHQAH$$QAH@Z ; std::vector<int,std::allocator<int> >::_Emplace_reallocate<int>
$LN256@LoadSecret:
; File C:\IAGOS\server\v18\Source\Source\DatabaseServer\SecretRoomDBMng.cpp

; 139  : 		nCount++;

  0035b	47		 inc	 edi
  0035c	8b cb		 mov	 ecx, ebx
  0035e	89 bd d8 5f ff
	ff		 mov	 DWORD PTR _nCount$1$[ebp], edi
  00364	e8 00 00 00 00	 call	 ?Fetch@CQuery@@QAEHXZ	; CQuery::Fetch
  00369	85 c0		 test	 eax, eax
  0036b	0f 85 2f fe ff
	ff		 jne	 $LL2@LoadSecret

; 140  : 	}
; 141  : 	if( nCount == 0 )

  00371	85 ff		 test	 edi, edi
  00373	75 0b		 jne	 SHORT $LN504@LoadSecret
$LN497@LoadSecret:

; 142  : 		m_nTimes++;

  00375	8b 95 a8 5f ff
	ff		 mov	 edx, DWORD PTR _this$GSCopy$1$[ebp]
  0037b	ff 42 14	 inc	 DWORD PTR [edx+20]
  0037e	eb 06		 jmp	 SHORT $LN499@LoadSecret
$LN504@LoadSecret:

; 140  : 	}
; 141  : 	if( nCount == 0 )

  00380	8b 95 a8 5f ff
	ff		 mov	 edx, DWORD PTR _this$GSCopy$1$[ebp]
$LN499@LoadSecret:
; File C:\Program Files\Microsoft Visual Studio\2022\Professional\VC\Tools\MSVC\14.44.35207\include\vector

; 1915 :         return static_cast<size_type>(_My_data._Mylast - _My_data._Myfirst);

  00386	8b 85 c0 5f ff
	ff		 mov	 eax, DWORD PTR _vec_nContinent$[ebp+4]
; File C:\IAGOS\server\v18\Source\Source\DatabaseServer\SecretRoomDBMng.cpp

; 145  : 	for( DWORD i=0; i<vec_nContinent.size(); i++ )

  0038c	33 f6		 xor	 esi, esi
; File C:\Program Files\Microsoft Visual Studio\2022\Professional\VC\Tools\MSVC\14.44.35207\include\vector

; 1915 :         return static_cast<size_type>(_My_data._Mylast - _My_data._Myfirst);

  0038e	8b 8d bc 5f ff
	ff		 mov	 ecx, DWORD PTR _vec_nContinent$[ebp]
; File C:\IAGOS\server\v18\Source\Source\DatabaseServer\SecretRoomDBMng.cpp

; 145  : 	for( DWORD i=0; i<vec_nContinent.size(); i++ )

  00394	89 b5 d8 5f ff
	ff		 mov	 DWORD PTR _i$1$[ebp], esi
; File C:\Program Files\Microsoft Visual Studio\2022\Professional\VC\Tools\MSVC\14.44.35207\include\vector

; 1915 :         return static_cast<size_type>(_My_data._Mylast - _My_data._Myfirst);

  0039a	2b c1		 sub	 eax, ecx
; File C:\IAGOS\server\v18\Source\Source\DatabaseServer\SecretRoomDBMng.cpp

; 145  : 	for( DWORD i=0; i<vec_nContinent.size(); i++ )

  0039c	0f 84 c3 02 00
	00		 je	 $LN312@LoadSecret
$LL6@LoadSecret:
; File C:\Program Files\Microsoft Visual Studio\2022\Professional\VC\Tools\MSVC\14.44.35207\include\vector

; 400  :     _CONSTEXPR20 _Vector_val() noexcept : _Myfirst(), _Mylast(), _Myend() {}

  003a2	c7 85 dc 5f ff
	ff 00 00 00 00	 mov	 DWORD PTR _vec_dwMemberId$5[ebp], 0
  003ac	c7 85 e0 5f ff
	ff 00 00 00 00	 mov	 DWORD PTR _vec_dwMemberId$5[ebp+4], 0
  003b6	c7 85 e4 5f ff
	ff 00 00 00 00	 mov	 DWORD PTR _vec_dwMemberId$5[ebp+8], 0
; File C:\IAGOS\server\v18\Source\Source\DatabaseServer\SecretRoomDBMng.cpp

; 149  : 		sprintf( szQuery, "SECRET_ROOM_MEMBER_STR 'S2', '%02d', %d, %d, '%06d', '0'",

  003c0	8b 85 c8 5f ff
	ff		 mov	 eax, DWORD PTR _vec_dwGuildId$[ebp]
  003c6	c6 45 fc 03	 mov	 BYTE PTR __$EHRec$[ebp+8], 3
  003ca	ff 34 b0	 push	 DWORD PTR [eax+esi*4]
  003cd	0f b6 04 31	 movzx	 eax, BYTE PTR [ecx+esi]
  003d1	50		 push	 eax
  003d2	ff 72 14	 push	 DWORD PTR [edx+20]
  003d5	8d 85 f0 5f ff
	ff		 lea	 eax, DWORD PTR _szQuery$[ebp]
  003db	ff 35 00 00 00
	00		 push	 DWORD PTR ?g_appInfo@@3UAppInfo@@A
  003e1	68 00 00 00 00	 push	 OFFSET ??_C@_0DJ@DCPFIIMD@SECRET_ROOM_MEMBER_STR?5?8S2?8?0?5?8?$CF@
  003e6	50		 push	 eax
  003e7	e8 00 00 00 00	 call	 _sprintf
  003ec	83 c4 18	 add	 esp, 24			; 00000018H

; 150  : 							g_appInfo.dwSys, m_nTimes, vec_nContinent[i], vec_dwGuildId[i] );
; 151  : 		if( pQuery->Exec( szQuery ) == FALSE )

  003ef	8d 85 f0 5f ff
	ff		 lea	 eax, DWORD PTR _szQuery$[ebp]
  003f5	8b cb		 mov	 ecx, ebx
  003f7	50		 push	 eax
  003f8	e8 00 00 00 00	 call	 ?Exec@CQuery@@QAEHPBD@Z	; CQuery::Exec
  003fd	85 c0		 test	 eax, eax
  003ff	0f 84 05 02 00
	00		 je	 $LN482@LoadSecret

; 153  : 		while( pQuery->Fetch() )

  00405	8b cb		 mov	 ecx, ebx
  00407	e8 00 00 00 00	 call	 ?Fetch@CQuery@@QAEHXZ	; CQuery::Fetch
  0040c	85 c0		 test	 eax, eax
  0040e	0f 84 3f 01 00
	00		 je	 $LN487@LoadSecret
$LL7@LoadSecret:

; 154  : 			vec_dwMemberId.push_back( pQuery->GetInt( "m_idPlayer" ) );

  00414	68 00 00 00 00	 push	 OFFSET ??_C@_0L@FONFFEJF@m_idPlayer@
  00419	8b cb		 mov	 ecx, ebx
  0041b	e8 00 00 00 00	 call	 ?GetInt@CQuery@@QAEHPAD@Z ; CQuery::GetInt
; File C:\Program Files\Microsoft Visual Studio\2022\Professional\VC\Tools\MSVC\14.44.35207\include\vector

; 844  :         if (_Mylast != _My_data._Myend) {

  00420	8b b5 e0 5f ff
	ff		 mov	 esi, DWORD PTR _vec_dwMemberId$5[ebp+4]
  00426	8b 8d e4 5f ff
	ff		 mov	 ecx, DWORD PTR _vec_dwMemberId$5[ebp+8]
; File C:\IAGOS\server\v18\Source\Source\DatabaseServer\SecretRoomDBMng.cpp

; 154  : 			vec_dwMemberId.push_back( pQuery->GetInt( "m_idPlayer" ) );

  0042c	89 85 a4 5f ff
	ff		 mov	 DWORD PTR $T3[ebp], eax
; File C:\Program Files\Microsoft Visual Studio\2022\Professional\VC\Tools\MSVC\14.44.35207\include\vector

; 844  :         if (_Mylast != _My_data._Myend) {

  00432	3b f1		 cmp	 esi, ecx
  00434	74 0e		 je	 SHORT $LN27@LoadSecret

; 860  :             _STD _Construct_in_place(*_Mylast, _STD forward<_Valty>(_Val)...);

  00436	89 06		 mov	 DWORD PTR [esi], eax

; 861  :         } else {
; 862  :             _ASAN_VECTOR_EXTEND_GUARD(static_cast<size_type>(_Mylast - _My_data._Myfirst) + 1);
; 863  :             _Alty_traits::construct(_Getal(), _Unfancy(_Mylast), _STD forward<_Valty>(_Val)...);
; 864  :             _ASAN_VECTOR_RELEASE_GUARD;
; 865  :         }
; 866  : 
; 867  :         _Orphan_range(_Mylast, _Mylast);
; 868  :         _Ty& _Result = *_Mylast;
; 869  :         ++_Mylast;

  00438	83 85 e0 5f ff
	ff 04		 add	 DWORD PTR _vec_dwMemberId$5[ebp+4], 4

; 845  :             return _Emplace_back_with_unused_capacity(_STD forward<_Valty>(_Val)...);

  0043f	e9 fa 00 00 00	 jmp	 $LN102@LoadSecret
$LN27@LoadSecret:

; 875  :     _CONSTEXPR20 pointer _Emplace_reallocate(const pointer _Whereptr, _Valty&&... _Val) {

  00444	8b 95 dc 5f ff
	ff		 mov	 edx, DWORD PTR _vec_dwMemberId$5[ebp]
  0044a	8b c6		 mov	 eax, esi
  0044c	2b c2		 sub	 eax, edx

; 876  :         // reallocate and insert by perfectly forwarding _Val at _Whereptr
; 877  :         _Alty& _Al        = _Getal();
; 878  :         auto& _My_data    = _Mypair._Myval2;
; 879  :         pointer& _Myfirst = _My_data._Myfirst;
; 880  :         pointer& _Mylast  = _My_data._Mylast;
; 881  : 
; 882  :         _STL_INTERNAL_CHECK(_Mylast == _My_data._Myend); // check that we have no unused capacity
; 883  : 
; 884  :         const auto _Whereoff = static_cast<size_type>(_Whereptr - _Myfirst);

  0044e	c1 f8 02	 sar	 eax, 2
  00451	89 85 e8 5f ff
	ff		 mov	 DWORD PTR __Oldsize$1$[ebp], eax

; 885  :         const auto _Oldsize  = static_cast<size_type>(_Mylast - _Myfirst);
; 886  : 
; 887  :         if (_Oldsize == max_size()) {

  00457	3d ff ff ff 3f	 cmp	 eax, 1073741823		; 3fffffffH
  0045c	0f 84 c2 02 00
	00		 je	 $LN476@LoadSecret

; 888  :             _Xlength();
; 889  :         }
; 890  : 
; 891  :         const size_type _Newsize = _Oldsize + 1;

  00462	2b ca		 sub	 ecx, edx
  00464	8d 78 01	 lea	 edi, DWORD PTR [eax+1]

; 1924 :         return static_cast<size_type>(_My_data._Myend - _My_data._Myfirst);

  00467	c1 f9 02	 sar	 ecx, 2

; 2011 :         if (_Oldcapacity > _Max - _Oldcapacity / 2) {

  0046a	b8 ff ff ff 3f	 mov	 eax, 1073741823		; 3fffffffH
  0046f	8b d1		 mov	 edx, ecx

; 891  :         const size_type _Newsize = _Oldsize + 1;

  00471	89 bd d4 5f ff
	ff		 mov	 DWORD PTR __Newsize$1$[ebp], edi

; 2011 :         if (_Oldcapacity > _Max - _Oldcapacity / 2) {

  00477	d1 ea		 shr	 edx, 1
  00479	2b c2		 sub	 eax, edx
  0047b	3b c8		 cmp	 ecx, eax
  0047d	76 12		 jbe	 SHORT $LN38@LoadSecret

; 2012 :             return _Max; // geometric growth would overflow

  0047f	b8 fc ff ff ff	 mov	 eax, -4			; fffffffcH
  00484	bb ff ff ff 3f	 mov	 ebx, 1073741823		; 3fffffffH
; File C:\Program Files\Microsoft Visual Studio\2022\Professional\VC\Tools\MSVC\14.44.35207\include\xmemory

; 253  :             return _Allocate_manually_vector_aligned<_Traits>(_Bytes);

  00489	50		 push	 eax
  0048a	e8 00 00 00 00	 call	 ??$_Allocate_manually_vector_aligned@U_Default_allocate_traits@std@@@std@@YAPAXI@Z ; std::_Allocate_manually_vector_aligned<std::_Default_allocate_traits>
  0048f	eb 3a		 jmp	 SHORT $LN508@LoadSecret
$LN38@LoadSecret:
; File C:\Program Files\Microsoft Visual Studio\2022\Professional\VC\Tools\MSVC\14.44.35207\include\vector

; 2015 :         const size_type _Geometric = _Oldcapacity + _Oldcapacity / 2;

  00491	8d 04 0a	 lea	 eax, DWORD PTR [edx+ecx]
; File C:\Program Files\Microsoft Visual Studio\2022\Professional\VC\Tools\MSVC\14.44.35207\include\xmemory

; 117  :         if (_Count > _Max_possible) {

  00494	8b df		 mov	 ebx, edi
  00496	3b c7		 cmp	 eax, edi
  00498	0f 43 d8	 cmovae	 ebx, eax
  0049b	81 fb ff ff ff
	3f		 cmp	 ebx, 1073741823		; 3fffffffH
  004a1	0f 87 78 02 00
	00		 ja	 $LN477@LoadSecret

; 118  :             _Throw_bad_array_new_length(); // multiply overflow
; 119  :         }
; 120  :     }
; 121  : 
; 122  :     return _Count * _Ty_size;

  004a7	8d 04 9d 00 00
	00 00		 lea	 eax, DWORD PTR [ebx*4]

; 227  :     if (_Bytes == 0) {

  004ae	85 c0		 test	 eax, eax
  004b0	75 04		 jne	 SHORT $LN53@LoadSecret

; 228  :         return nullptr;

  004b2	33 ff		 xor	 edi, edi
  004b4	eb 1a		 jmp	 SHORT $LN52@LoadSecret
$LN53@LoadSecret:

; 229  :     }
; 230  : 
; 231  : #if _HAS_CXX20 // TRANSITION, GH-1532
; 232  :     if (_STD is_constant_evaluated()) {
; 233  :         return _Traits::_Allocate(_Bytes);
; 234  :     }
; 235  : #endif // _HAS_CXX20
; 236  : 
; 237  : #ifdef __cpp_aligned_new
; 238  :     if constexpr (_Align > __STDCPP_DEFAULT_NEW_ALIGNMENT__) {
; 239  :         size_t _Passed_align = _Align;
; 240  : #if defined(_M_IX86) || defined(_M_X64)
; 241  :         if (_Bytes >= _Big_allocation_threshold) {
; 242  :             // boost the alignment of big allocations to help autovectorization
; 243  :             _Passed_align = (_STD max)(_Align, _Big_allocation_alignment);
; 244  :         }
; 245  : #endif // defined(_M_IX86) || defined(_M_X64)
; 246  :         return _Traits::_Allocate_aligned(_Bytes, _Passed_align);
; 247  :     } else
; 248  : #endif // defined(__cpp_aligned_new)
; 249  :     {
; 250  : #if defined(_M_IX86) || defined(_M_X64)
; 251  :         if (_Bytes >= _Big_allocation_threshold) {

  004b6	3d 00 10 00 00	 cmp	 eax, 4096		; 00001000H
  004bb	72 08		 jb	 SHORT $LN54@LoadSecret

; 253  :             return _Allocate_manually_vector_aligned<_Traits>(_Bytes);

  004bd	50		 push	 eax
  004be	e8 00 00 00 00	 call	 ??$_Allocate_manually_vector_aligned@U_Default_allocate_traits@std@@@std@@YAPAXI@Z ; std::_Allocate_manually_vector_aligned<std::_Default_allocate_traits>
  004c3	eb 06		 jmp	 SHORT $LN508@LoadSecret
$LN54@LoadSecret:

; 136  :         return ::operator new(_Bytes);

  004c5	50		 push	 eax
  004c6	e8 00 00 00 00	 call	 ??2@YAPAXI@Z		; operator new
$LN508@LoadSecret:
; File C:\Program Files\Microsoft Visual Studio\2022\Professional\VC\Tools\MSVC\14.44.35207\include\vector

; 900  :         _Alty_traits::construct(_Al, _STD _Unfancy(_Newvec + _Whereoff), _STD forward<_Valty>(_Val)...);

  004cb	8b f8		 mov	 edi, eax
  004cd	83 c4 04	 add	 esp, 4
$LN52@LoadSecret:
  004d0	8b 85 e8 5f ff
	ff		 mov	 eax, DWORD PTR __Oldsize$1$[ebp]
  004d6	8b 8d a4 5f ff
	ff		 mov	 ecx, DWORD PTR $T3[ebp]
  004dc	8d 04 87	 lea	 eax, DWORD PTR [edi+eax*4]
  004df	89 85 e8 5f ff
	ff		 mov	 DWORD PTR tv2240[ebp], eax
  004e5	89 08		 mov	 DWORD PTR [eax], ecx

; 901  :         _Constructed_first = _Newvec + _Whereoff;
; 902  : 
; 903  :         if (_Whereptr == _Mylast) { // at back, provide strong guarantee

  004e7	8b 85 e0 5f ff
	ff		 mov	 eax, DWORD PTR _vec_dwMemberId$5[ebp+4]
  004ed	3b f0		 cmp	 esi, eax
  004ef	75 0a		 jne	 SHORT $LN33@LoadSecret
; File C:\Program Files\Microsoft Visual Studio\2022\Professional\VC\Tools\MSVC\14.44.35207\include\xmemory

; 1992 :             _STD _Copy_memmove(_UFirst, _ULast, _STD _Unfancy(_Dest));

  004f1	8b b5 dc 5f ff
	ff		 mov	 esi, DWORD PTR _vec_dwMemberId$5[ebp]
  004f7	8b cf		 mov	 ecx, edi
; File C:\Program Files\Microsoft Visual Studio\2022\Professional\VC\Tools\MSVC\14.44.35207\include\vector

; 909  :         } else { // provide basic guarantee

  004f9	eb 1f		 jmp	 SHORT $LN82@LoadSecret
$LN33@LoadSecret:
; File C:\Program Files\Microsoft Visual Studio\2022\Professional\VC\Tools\MSVC\14.44.35207\include\xmemory

; 1992 :             _STD _Copy_memmove(_UFirst, _ULast, _STD _Unfancy(_Dest));

  004fb	57		 push	 edi
  004fc	56		 push	 esi
  004fd	ff b5 dc 5f ff
	ff		 push	 DWORD PTR _vec_dwMemberId$5[ebp]
  00503	e8 00 00 00 00	 call	 ??$_Copy_memmove@PAKPAK@std@@YAPAKPAK00@Z ; std::_Copy_memmove<unsigned long *,unsigned long *>
; File C:\Program Files\Microsoft Visual Studio\2022\Professional\VC\Tools\MSVC\14.44.35207\include\vector

; 912  :             _STD _Uninitialized_move(_Whereptr, _Mylast, _Newvec + _Whereoff + 1, _Al);

  00508	8b 8d e8 5f ff
	ff		 mov	 ecx, DWORD PTR tv2240[ebp]
; File C:\Program Files\Microsoft Visual Studio\2022\Professional\VC\Tools\MSVC\14.44.35207\include\xmemory

; 1992 :             _STD _Copy_memmove(_UFirst, _ULast, _STD _Unfancy(_Dest));

  0050e	83 c4 0c	 add	 esp, 12			; 0000000cH
  00511	8b 85 e0 5f ff
	ff		 mov	 eax, DWORD PTR _vec_dwMemberId$5[ebp+4]
; File C:\Program Files\Microsoft Visual Studio\2022\Professional\VC\Tools\MSVC\14.44.35207\include\vector

; 912  :             _STD _Uninitialized_move(_Whereptr, _Mylast, _Newvec + _Whereoff + 1, _Al);

  00517	83 c1 04	 add	 ecx, 4
$LN82@LoadSecret:

; 913  :         }
; 914  : 
; 915  :         _Guard._New_begin = nullptr;

  0051a	51		 push	 ecx
  0051b	50		 push	 eax
  0051c	56		 push	 esi
  0051d	e8 00 00 00 00	 call	 ??$_Copy_memmove@PAKPAK@std@@YAPAKPAK00@Z ; std::_Copy_memmove<unsigned long *,unsigned long *>
  00522	83 c4 0c	 add	 esp, 12			; 0000000cH

; 916  :         _Change_array(_Newvec, _Newsize, _Newcapacity);

  00525	8d 8d dc 5f ff
	ff		 lea	 ecx, DWORD PTR _vec_dwMemberId$5[ebp]
  0052b	53		 push	 ebx
  0052c	ff b5 d4 5f ff
	ff		 push	 DWORD PTR __Newsize$1$[ebp]
  00532	57		 push	 edi
  00533	e8 00 00 00 00	 call	 ?_Change_array@?$vector@KV?$allocator@K@std@@@std@@AAEXQAKII@Z ; std::vector<unsigned long,std::allocator<unsigned long> >::_Change_array
  00538	8b 9d a0 5f ff
	ff		 mov	 ebx, DWORD PTR _pQuery$1$[ebp]
$LN102@LoadSecret:
; File C:\IAGOS\server\v18\Source\Source\DatabaseServer\SecretRoomDBMng.cpp

; 153  : 		while( pQuery->Fetch() )

  0053e	8b cb		 mov	 ecx, ebx
  00540	e8 00 00 00 00	 call	 ?Fetch@CQuery@@QAEHXZ	; CQuery::Fetch
  00545	85 c0		 test	 eax, eax
  00547	0f 85 c7 fe ff
	ff		 jne	 $LL7@LoadSecret
  0054d	8b b5 d8 5f ff
	ff		 mov	 esi, DWORD PTR _i$1$[ebp]
$LN487@LoadSecret:

; 155  : 		
; 156  : 		CDPTrans::GetInstance()->SendSecretRoomTenderInfo( vec_nContinent[i], vec_dwGuildId[i], vec_nPenya[i], vec_dwMemberId, dpId );

  00553	8b 85 b0 5f ff
	ff		 mov	 eax, DWORD PTR _vec_nPenya$[ebp]
  00559	8d bd dc 5f ff
	ff		 lea	 edi, DWORD PTR _vec_dwMemberId$5[ebp]
  0055f	ff 75 08	 push	 DWORD PTR _dpId$[ebp]
  00562	57		 push	 edi
  00563	8b 14 b0	 mov	 edx, DWORD PTR [eax+esi*4]
  00566	8b 85 c8 5f ff
	ff		 mov	 eax, DWORD PTR _vec_dwGuildId$[ebp]
  0056c	52		 push	 edx
  0056d	8b 0c b0	 mov	 ecx, DWORD PTR [eax+esi*4]
  00570	8b 85 bc 5f ff
	ff		 mov	 eax, DWORD PTR _vec_nContinent$[ebp]
  00576	51		 push	 ecx
  00577	8a 04 30	 mov	 al, BYTE PTR [eax+esi]
  0057a	50		 push	 eax
  0057b	e8 00 00 00 00	 call	 ?GetInstance@CDPTrans@@SAPAV1@XZ ; CDPTrans::GetInstance
  00580	8b c8		 mov	 ecx, eax
  00582	e8 00 00 00 00	 call	 ?SendSecretRoomTenderInfo@CDPTrans@@QAEXEKHAAV?$vector@KV?$allocator@K@std@@@std@@K@Z ; CDPTrans::SendSecretRoomTenderInfo
; File C:\Program Files\Microsoft Visual Studio\2022\Professional\VC\Tools\MSVC\14.44.35207\include\vector

; 2090 :         if (_Myfirst) { // destroy and deallocate old array

  00587	8b 95 dc 5f ff
	ff		 mov	 edx, DWORD PTR _vec_dwMemberId$5[ebp]
; File C:\IAGOS\server\v18\Source\Source\DatabaseServer\SecretRoomDBMng.cpp

; 157  : 	}

  0058d	c6 45 fc 02	 mov	 BYTE PTR __$EHRec$[ebp+8], 2
; File C:\Program Files\Microsoft Visual Studio\2022\Professional\VC\Tools\MSVC\14.44.35207\include\vector

; 2090 :         if (_Myfirst) { // destroy and deallocate old array

  00591	85 d2		 test	 edx, edx
  00593	74 51		 je	 SHORT $LN4@LoadSecret

; 2093 :             _Al.deallocate(_Myfirst, static_cast<size_type>(_Myend - _Myfirst));

  00595	8b 8d e4 5f ff
	ff		 mov	 ecx, DWORD PTR _vec_dwMemberId$5[ebp+8]
; File C:\Program Files\Microsoft Visual Studio\2022\Professional\VC\Tools\MSVC\14.44.35207\include\xmemory

; 985  :         _STD _Deallocate<_New_alignof<_Ty>>(_Ptr, sizeof(_Ty) * _Count);

  0059b	8b c2		 mov	 eax, edx
; File C:\Program Files\Microsoft Visual Studio\2022\Professional\VC\Tools\MSVC\14.44.35207\include\vector

; 2093 :             _Al.deallocate(_Myfirst, static_cast<size_type>(_Myend - _Myfirst));

  0059d	2b ca		 sub	 ecx, edx
; File C:\Program Files\Microsoft Visual Studio\2022\Professional\VC\Tools\MSVC\14.44.35207\include\xmemory

; 985  :         _STD _Deallocate<_New_alignof<_Ty>>(_Ptr, sizeof(_Ty) * _Count);

  0059f	83 e1 fc	 and	 ecx, -4			; fffffffcH

; 284  :         if (_Bytes >= _Big_allocation_threshold) {

  005a2	81 f9 00 10 00
	00		 cmp	 ecx, 4096		; 00001000H
  005a8	72 14		 jb	 SHORT $LN356@LoadSecret

; 205  :     const uintptr_t _Ptr_container   = _Ptr_user[-1];

  005aa	8b 50 fc	 mov	 edx, DWORD PTR [eax-4]
  005ad	83 c1 23	 add	 ecx, 35			; 00000023H
  005b0	2b c2		 sub	 eax, edx

; 219  :     _STL_VERIFY(_Back_shift >= _Min_back_shift && _Back_shift <= _Non_user_size, "invalid argument");

  005b2	83 c0 fc	 add	 eax, -4			; fffffffcH
  005b5	83 f8 1f	 cmp	 eax, 31			; 0000001fH
  005b8	0f 87 6b 01 00
	00		 ja	 $LN324@LoadSecret
$LN356@LoadSecret:

; 289  :         ::operator delete(_Ptr, _Bytes);

  005be	51		 push	 ecx
  005bf	52		 push	 edx
  005c0	e8 00 00 00 00	 call	 ??3@YAXPAXI@Z		; operator delete
  005c5	83 c4 08	 add	 esp, 8
; File C:\Program Files\Microsoft Visual Studio\2022\Professional\VC\Tools\MSVC\14.44.35207\include\vector

; 2095 :             _Myfirst = nullptr;

  005c8	c7 85 dc 5f ff
	ff 00 00 00 00	 mov	 DWORD PTR _vec_dwMemberId$5[ebp], 0

; 2096 :             _Mylast  = nullptr;

  005d2	c7 85 e0 5f ff
	ff 00 00 00 00	 mov	 DWORD PTR _vec_dwMemberId$5[ebp+4], 0

; 2097 :             _Myend   = nullptr;

  005dc	c7 85 e4 5f ff
	ff 00 00 00 00	 mov	 DWORD PTR _vec_dwMemberId$5[ebp+8], 0
$LN4@LoadSecret:

; 1915 :         return static_cast<size_type>(_My_data._Mylast - _My_data._Myfirst);

  005e6	8b 85 c0 5f ff
	ff		 mov	 eax, DWORD PTR _vec_nContinent$[ebp+4]
; File C:\IAGOS\server\v18\Source\Source\DatabaseServer\SecretRoomDBMng.cpp

; 145  : 	for( DWORD i=0; i<vec_nContinent.size(); i++ )

  005ec	46		 inc	 esi
; File C:\Program Files\Microsoft Visual Studio\2022\Professional\VC\Tools\MSVC\14.44.35207\include\vector

; 1915 :         return static_cast<size_type>(_My_data._Mylast - _My_data._Myfirst);

  005ed	8b 8d bc 5f ff
	ff		 mov	 ecx, DWORD PTR _vec_nContinent$[ebp]
  005f3	2b c1		 sub	 eax, ecx
; File C:\IAGOS\server\v18\Source\Source\DatabaseServer\SecretRoomDBMng.cpp

; 145  : 	for( DWORD i=0; i<vec_nContinent.size(); i++ )

  005f5	89 b5 d8 5f ff
	ff		 mov	 DWORD PTR _i$1$[ebp], esi
  005fb	3b f0		 cmp	 esi, eax
  005fd	73 66		 jae	 SHORT $LN312@LoadSecret
  005ff	8b 95 a8 5f ff
	ff		 mov	 edx, DWORD PTR _this$GSCopy$1$[ebp]
  00605	e9 98 fd ff ff	 jmp	 $LL6@LoadSecret
$LN482@LoadSecret:

; 152  : 		{ WriteLog( "%s, %d\t%s", __FILE__, __LINE__, szQuery ); return; }

  0060a	8d 85 f0 5f ff
	ff		 lea	 eax, DWORD PTR _szQuery$[ebp]
  00610	50		 push	 eax
  00611	68 98 00 00 00	 push	 152			; 00000098H
  00616	68 00 00 00 00	 push	 OFFSET ??_C@_0EF@DJMJOFIF@C?3?2IAGOS?2server?2v18?2Source?2Sour@
  0061b	68 00 00 00 00	 push	 OFFSET ??_C@_09GBAEEKDE@?$CFs?0?5?$CFd?7?$CFs@
  00620	e8 00 00 00 00	 call	 ?WriteLog@@YAXPBDZZ	; WriteLog
; File C:\Program Files\Microsoft Visual Studio\2022\Professional\VC\Tools\MSVC\14.44.35207\include\vector

; 2090 :         if (_Myfirst) { // destroy and deallocate old array

  00625	8b 95 dc 5f ff
	ff		 mov	 edx, DWORD PTR _vec_dwMemberId$5[ebp]
; File C:\IAGOS\server\v18\Source\Source\DatabaseServer\SecretRoomDBMng.cpp

; 152  : 		{ WriteLog( "%s, %d\t%s", __FILE__, __LINE__, szQuery ); return; }

  0062b	83 c4 10	 add	 esp, 16			; 00000010H
; File C:\Program Files\Microsoft Visual Studio\2022\Professional\VC\Tools\MSVC\14.44.35207\include\vector

; 2090 :         if (_Myfirst) { // destroy and deallocate old array

  0062e	85 d2		 test	 edx, edx
  00630	74 33		 je	 SHORT $LN312@LoadSecret

; 2093 :             _Al.deallocate(_Myfirst, static_cast<size_type>(_Myend - _Myfirst));

  00632	8b 8d e4 5f ff
	ff		 mov	 ecx, DWORD PTR _vec_dwMemberId$5[ebp+8]
; File C:\Program Files\Microsoft Visual Studio\2022\Professional\VC\Tools\MSVC\14.44.35207\include\xmemory

; 985  :         _STD _Deallocate<_New_alignof<_Ty>>(_Ptr, sizeof(_Ty) * _Count);

  00638	8b c2		 mov	 eax, edx
; File C:\Program Files\Microsoft Visual Studio\2022\Professional\VC\Tools\MSVC\14.44.35207\include\vector

; 2093 :             _Al.deallocate(_Myfirst, static_cast<size_type>(_Myend - _Myfirst));

  0063a	2b ca		 sub	 ecx, edx
; File C:\Program Files\Microsoft Visual Studio\2022\Professional\VC\Tools\MSVC\14.44.35207\include\xmemory

; 985  :         _STD _Deallocate<_New_alignof<_Ty>>(_Ptr, sizeof(_Ty) * _Count);

  0063c	83 e1 fc	 and	 ecx, -4			; fffffffcH

; 284  :         if (_Bytes >= _Big_allocation_threshold) {

  0063f	81 f9 00 10 00
	00		 cmp	 ecx, 4096		; 00001000H
  00645	72 14		 jb	 SHORT $LN325@LoadSecret

; 205  :     const uintptr_t _Ptr_container   = _Ptr_user[-1];

  00647	8b 50 fc	 mov	 edx, DWORD PTR [eax-4]
  0064a	83 c1 23	 add	 ecx, 35			; 00000023H
  0064d	2b c2		 sub	 eax, edx

; 219  :     _STL_VERIFY(_Back_shift >= _Min_back_shift && _Back_shift <= _Non_user_size, "invalid argument");

  0064f	83 c0 fc	 add	 eax, -4			; fffffffcH
  00652	83 f8 1f	 cmp	 eax, 31			; 0000001fH
  00655	0f 87 ce 00 00
	00		 ja	 $LN324@LoadSecret
$LN325@LoadSecret:

; 289  :         ::operator delete(_Ptr, _Bytes);

  0065b	51		 push	 ecx
  0065c	52		 push	 edx
  0065d	e8 00 00 00 00	 call	 ??3@YAXPAXI@Z		; operator delete
  00662	83 c4 08	 add	 esp, 8
$LN312@LoadSecret:
; File C:\Program Files\Microsoft Visual Studio\2022\Professional\VC\Tools\MSVC\14.44.35207\include\vector

; 2090 :         if (_Myfirst) { // destroy and deallocate old array

  00665	8b 95 b0 5f ff
	ff		 mov	 edx, DWORD PTR _vec_nPenya$[ebp]
  0066b	85 d2		 test	 edx, edx
  0066d	74 51		 je	 SHORT $LN118@LoadSecret

; 2093 :             _Al.deallocate(_Myfirst, static_cast<size_type>(_Myend - _Myfirst));

  0066f	8b 8d b8 5f ff
	ff		 mov	 ecx, DWORD PTR _vec_nPenya$[ebp+8]
; File C:\Program Files\Microsoft Visual Studio\2022\Professional\VC\Tools\MSVC\14.44.35207\include\xmemory

; 985  :         _STD _Deallocate<_New_alignof<_Ty>>(_Ptr, sizeof(_Ty) * _Count);

  00675	8b c2		 mov	 eax, edx
; File C:\Program Files\Microsoft Visual Studio\2022\Professional\VC\Tools\MSVC\14.44.35207\include\vector

; 2093 :             _Al.deallocate(_Myfirst, static_cast<size_type>(_Myend - _Myfirst));

  00677	2b ca		 sub	 ecx, edx
; File C:\Program Files\Microsoft Visual Studio\2022\Professional\VC\Tools\MSVC\14.44.35207\include\xmemory

; 985  :         _STD _Deallocate<_New_alignof<_Ty>>(_Ptr, sizeof(_Ty) * _Count);

  00679	83 e1 fc	 and	 ecx, -4			; fffffffcH

; 284  :         if (_Bytes >= _Big_allocation_threshold) {

  0067c	81 f9 00 10 00
	00		 cmp	 ecx, 4096		; 00001000H
  00682	72 14		 jb	 SHORT $LN131@LoadSecret

; 205  :     const uintptr_t _Ptr_container   = _Ptr_user[-1];

  00684	8b 50 fc	 mov	 edx, DWORD PTR [eax-4]
  00687	83 c1 23	 add	 ecx, 35			; 00000023H
  0068a	2b c2		 sub	 eax, edx

; 219  :     _STL_VERIFY(_Back_shift >= _Min_back_shift && _Back_shift <= _Non_user_size, "invalid argument");

  0068c	83 c0 fc	 add	 eax, -4			; fffffffcH
  0068f	83 f8 1f	 cmp	 eax, 31			; 0000001fH
  00692	0f 87 a0 00 00
	00		 ja	 $LN152@LoadSecret
$LN131@LoadSecret:

; 289  :         ::operator delete(_Ptr, _Bytes);

  00698	51		 push	 ecx
  00699	52		 push	 edx
  0069a	e8 00 00 00 00	 call	 ??3@YAXPAXI@Z		; operator delete
  0069f	83 c4 08	 add	 esp, 8
; File C:\Program Files\Microsoft Visual Studio\2022\Professional\VC\Tools\MSVC\14.44.35207\include\vector

; 2095 :             _Myfirst = nullptr;

  006a2	c7 85 b0 5f ff
	ff 00 00 00 00	 mov	 DWORD PTR _vec_nPenya$[ebp], 0

; 2096 :             _Mylast  = nullptr;

  006ac	c7 85 b4 5f ff
	ff 00 00 00 00	 mov	 DWORD PTR _vec_nPenya$[ebp+4], 0

; 2097 :             _Myend   = nullptr;

  006b6	c7 85 b8 5f ff
	ff 00 00 00 00	 mov	 DWORD PTR _vec_nPenya$[ebp+8], 0
$LN118@LoadSecret:
; File C:\IAGOS\server\v18\Source\Source\DatabaseServer\SecretRoomDBMng.cpp

; 158  : }

  006c0	8d 8d c8 5f ff
	ff		 lea	 ecx, DWORD PTR _vec_dwGuildId$[ebp]
  006c6	e8 00 00 00 00	 call	 ??1?$vector@KV?$allocator@K@std@@@std@@QAE@XZ ; std::vector<unsigned long,std::allocator<unsigned long> >::~vector<unsigned long,std::allocator<unsigned long> >
; File C:\Program Files\Microsoft Visual Studio\2022\Professional\VC\Tools\MSVC\14.44.35207\include\vector

; 2090 :         if (_Myfirst) { // destroy and deallocate old array

  006cb	8b 8d bc 5f ff
	ff		 mov	 ecx, DWORD PTR _vec_nContinent$[ebp]
  006d1	85 c9		 test	 ecx, ecx
  006d3	74 2c		 je	 SHORT $LN140@LoadSecret

; 2093 :             _Al.deallocate(_Myfirst, static_cast<size_type>(_Myend - _Myfirst));

  006d5	8b 95 c4 5f ff
	ff		 mov	 edx, DWORD PTR _vec_nContinent$[ebp+8]
; File C:\Program Files\Microsoft Visual Studio\2022\Professional\VC\Tools\MSVC\14.44.35207\include\xmemory

; 985  :         _STD _Deallocate<_New_alignof<_Ty>>(_Ptr, sizeof(_Ty) * _Count);

  006db	8b c1		 mov	 eax, ecx
; File C:\Program Files\Microsoft Visual Studio\2022\Professional\VC\Tools\MSVC\14.44.35207\include\vector

; 2093 :             _Al.deallocate(_Myfirst, static_cast<size_type>(_Myend - _Myfirst));

  006dd	2b d1		 sub	 edx, ecx
; File C:\Program Files\Microsoft Visual Studio\2022\Professional\VC\Tools\MSVC\14.44.35207\include\xmemory

; 284  :         if (_Bytes >= _Big_allocation_threshold) {

  006df	81 fa 00 10 00
	00		 cmp	 edx, 4096		; 00001000H
  006e5	72 10		 jb	 SHORT $LN153@LoadSecret

; 205  :     const uintptr_t _Ptr_container   = _Ptr_user[-1];

  006e7	8b 48 fc	 mov	 ecx, DWORD PTR [eax-4]
  006ea	83 c2 23	 add	 edx, 35			; 00000023H
  006ed	2b c1		 sub	 eax, ecx

; 219  :     _STL_VERIFY(_Back_shift >= _Min_back_shift && _Back_shift <= _Non_user_size, "invalid argument");

  006ef	83 c0 fc	 add	 eax, -4			; fffffffcH
  006f2	83 f8 1f	 cmp	 eax, 31			; 0000001fH
  006f5	77 41		 ja	 SHORT $LN152@LoadSecret
$LN153@LoadSecret:

; 289  :         ::operator delete(_Ptr, _Bytes);

  006f7	52		 push	 edx
  006f8	51		 push	 ecx
  006f9	e8 00 00 00 00	 call	 ??3@YAXPAXI@Z		; operator delete
  006fe	83 c4 08	 add	 esp, 8
$LN140@LoadSecret:
; File C:\IAGOS\server\v18\Source\Source\DatabaseServer\SecretRoomDBMng.cpp

; 158  : }

  00701	8b 4d f4	 mov	 ecx, DWORD PTR __$EHRec$[ebp]
  00704	64 89 0d 00 00
	00 00		 mov	 DWORD PTR fs:0, ecx
  0070b	59		 pop	 ecx
  0070c	5f		 pop	 edi
  0070d	5e		 pop	 esi
  0070e	5b		 pop	 ebx
  0070f	8b 4d f0	 mov	 ecx, DWORD PTR __$ArrayPad$[ebp]
  00712	33 cd		 xor	 ecx, ebp
  00714	e8 00 00 00 00	 call	 @__security_check_cookie@4
  00719	8b e5		 mov	 esp, ebp
  0071b	5d		 pop	 ebp
  0071c	c2 04 00	 ret	 4
$LN477@LoadSecret:
  0071f	e8 00 00 00 00	 call	 ?_Throw_bad_array_new_length@std@@YAXXZ ; std::_Throw_bad_array_new_length
$LN476@LoadSecret:
  00724	e8 00 00 00 00	 call	 ?_Xlength@?$vector@KV?$allocator@K@std@@@std@@CAXXZ ; std::vector<unsigned long,std::allocator<unsigned long> >::_Xlength
$LN324@LoadSecret:
; File C:\Program Files\Microsoft Visual Studio\2022\Professional\VC\Tools\MSVC\14.44.35207\include\xmemory

; 219  :     _STL_VERIFY(_Back_shift >= _Min_back_shift && _Back_shift <= _Non_user_size, "invalid argument");

  00729	6a 00		 push	 0
  0072b	6a 00		 push	 0
  0072d	6a 00		 push	 0
  0072f	6a 00		 push	 0
  00731	6a 00		 push	 0
  00733	e8 00 00 00 00	 call	 __invoke_watson
$LN152@LoadSecret:
  00738	6a 00		 push	 0
  0073a	6a 00		 push	 0
  0073c	6a 00		 push	 0
  0073e	6a 00		 push	 0
  00740	6a 00		 push	 0
  00742	e8 00 00 00 00	 call	 __invoke_watson
$LN506@LoadSecret:
  00747	cc		 int	 3
_TEXT	ENDS
;	COMDAT text$x
text$x	SEGMENT
__unwindfunclet$?LoadSecretRoom@CSecretRoomDbController@@AAEXK@Z$0:
  00000	8d 8d bc 5f ff
	ff		 lea	 ecx, DWORD PTR _vec_nContinent$[ebp]
  00006	e9 00 00 00 00	 jmp	 ??1?$vector@EV?$allocator@E@std@@@std@@QAE@XZ ; std::vector<unsigned char,std::allocator<unsigned char> >::~vector<unsigned char,std::allocator<unsigned char> >
__unwindfunclet$?LoadSecretRoom@CSecretRoomDbController@@AAEXK@Z$1:
  0000b	8d 8d c8 5f ff
	ff		 lea	 ecx, DWORD PTR _vec_dwGuildId$[ebp]
  00011	e9 00 00 00 00	 jmp	 ??1?$vector@KV?$allocator@K@std@@@std@@QAE@XZ ; std::vector<unsigned long,std::allocator<unsigned long> >::~vector<unsigned long,std::allocator<unsigned long> >
__unwindfunclet$?LoadSecretRoom@CSecretRoomDbController@@AAEXK@Z$2:
  00016	8d 8d b0 5f ff
	ff		 lea	 ecx, DWORD PTR _vec_nPenya$[ebp]
  0001c	e9 00 00 00 00	 jmp	 ??1?$vector@HV?$allocator@H@std@@@std@@QAE@XZ ; std::vector<int,std::allocator<int> >::~vector<int,std::allocator<int> >
__unwindfunclet$?LoadSecretRoom@CSecretRoomDbController@@AAEXK@Z$3:
  00021	8d 8d dc 5f ff
	ff		 lea	 ecx, DWORD PTR _vec_dwMemberId$5[ebp]
  00027	e9 00 00 00 00	 jmp	 ??1?$vector@KV?$allocator@K@std@@@std@@QAE@XZ ; std::vector<unsigned long,std::allocator<unsigned long> >::~vector<unsigned long,std::allocator<unsigned long> >
  0002c	cc		 int	 3
  0002d	cc		 int	 3
  0002e	cc		 int	 3
  0002f	cc		 int	 3
  00030	cc		 int	 3
__ehhandler$?LoadSecretRoom@CSecretRoomDbController@@AAEXK@Z:
  00031	90		 npad	 1
  00032	90		 npad	 1
  00033	8b 54 24 08	 mov	 edx, DWORD PTR [esp+8]
  00037	8d 42 0c	 lea	 eax, DWORD PTR [edx+12]
  0003a	8b 8a 9c 5f ff
	ff		 mov	 ecx, DWORD PTR [edx-41060]
  00040	33 c8		 xor	 ecx, eax
  00042	e8 00 00 00 00	 call	 @__security_check_cookie@4
  00047	8b 4a fc	 mov	 ecx, DWORD PTR [edx-4]
  0004a	33 c8		 xor	 ecx, eax
  0004c	e8 00 00 00 00	 call	 @__security_check_cookie@4
  00051	b8 00 00 00 00	 mov	 eax, OFFSET __ehfuncinfo$?LoadSecretRoom@CSecretRoomDbController@@AAEXK@Z
  00056	e9 00 00 00 00	 jmp	 ___CxxFrameHandler3
text$x	ENDS
?LoadSecretRoom@CSecretRoomDbController@@AAEXK@Z ENDP	; CSecretRoomDbController::LoadSecretRoom
; Function compile flags: /Ogtp
; File C:\IAGOS\server\v18\Source\Source\DatabaseServer\SecretRoomDBMng.cpp
; File C:\Program Files\Microsoft Visual Studio\2022\Professional\VC\Tools\MSVC\14.44.35207\include\vector
; File C:\IAGOS\server\v18\Source\Source\DatabaseServer\SecretRoomDBMng.cpp
; File C:\Program Files\Microsoft Visual Studio\2022\Professional\VC\Tools\MSVC\14.44.35207\include\vector
; File C:\Program Files\Microsoft Visual Studio\2022\Professional\VC\Tools\MSVC\14.44.35207\include\xmemory
; File C:\Program Files\Microsoft Visual Studio\2022\Professional\VC\Tools\MSVC\14.44.35207\include\vector
; File C:\Program Files\Microsoft Visual Studio\2022\Professional\VC\Tools\MSVC\14.44.35207\include\xmemory
; File C:\Program Files\Microsoft Visual Studio\2022\Professional\VC\Tools\MSVC\14.44.35207\include\vector
; File C:\Program Files\Microsoft Visual Studio\2022\Professional\VC\Tools\MSVC\14.44.35207\include\xmemory
; File C:\Program Files\Microsoft Visual Studio\2022\Professional\VC\Tools\MSVC\14.44.35207\include\vector
; File C:\Program Files\Microsoft Visual Studio\2022\Professional\VC\Tools\MSVC\14.44.35207\include\xmemory
; File C:\Program Files\Microsoft Visual Studio\2022\Professional\VC\Tools\MSVC\14.44.35207\include\vector
; File C:\Program Files\Microsoft Visual Studio\2022\Professional\VC\Tools\MSVC\14.44.35207\include\xmemory
; File C:\Program Files\Microsoft Visual Studio\2022\Professional\VC\Tools\MSVC\14.44.35207\include\vector
; File C:\Program Files\Microsoft Visual Studio\2022\Professional\VC\Tools\MSVC\14.44.35207\include\xmemory
; File C:\Program Files\Microsoft Visual Studio\2022\Professional\VC\Tools\MSVC\14.44.35207\include\vector
; File C:\Program Files\Microsoft Visual Studio\2022\Professional\VC\Tools\MSVC\14.44.35207\include\xmemory
; File C:\Program Files\Microsoft Visual Studio\2022\Professional\VC\Tools\MSVC\14.44.35207\include\vector
; File C:\IAGOS\server\v18\Source\Source\DatabaseServer\SecretRoomDBMng.cpp
; File C:\Program Files\Microsoft Visual Studio\2022\Professional\VC\Tools\MSVC\14.44.35207\include\vector
; File C:\Program Files\Microsoft Visual Studio\2022\Professional\VC\Tools\MSVC\14.44.35207\include\xmemory
; File C:\Program Files\Microsoft Visual Studio\2022\Professional\VC\Tools\MSVC\14.44.35207\include\vector
; File C:\Program Files\Microsoft Visual Studio\2022\Professional\VC\Tools\MSVC\14.44.35207\include\xmemory
; File C:\Program Files\Microsoft Visual Studio\2022\Professional\VC\Tools\MSVC\14.44.35207\include\vector
; File C:\IAGOS\server\v18\Source\Source\DatabaseServer\SecretRoomDBMng.cpp
; File C:\Program Files\Microsoft Visual Studio\2022\Professional\VC\Tools\MSVC\14.44.35207\include\xmemory
; File C:\Program Files\Microsoft Visual Studio\2022\Professional\VC\Tools\MSVC\14.44.35207\include\vector
; File C:\IAGOS\server\v18\Source\Source\DatabaseServer\SecretRoomDBMng.cpp
;	COMDAT ?Handler@CSecretRoomDbController@@UAEXPAUtagDB_OVERLAPPED_PLUS@@K@Z
_TEXT	SEGMENT
_dwGuildId$3 = -32868					; size = 4
__Newsize$1$ = -32868					; size = 4
_nPenya$4 = -32864					; size = 4
_dwGuildId$5 = -32864					; size = 4
_chState$6 = -32860					; size = 1
_nContinent$7 = -32860					; size = 1
_nPenya$8 = -32856					; size = 4
_this$GSCopy$1$ = -32856				; size = 4
_nContinent$9 = -32852					; size = 1
tv913 = -32852						; size = 4
__Oldsize$1$ = -32852					; size = 4
_dwWorldId$10 = -32848					; size = 4
_nSize$11 = -32848					; size = 4
_dwGuildId$12 = -32844					; size = 4
_nKillCount$13 = -32844					; size = 4
_dwPlayerId$14 = -32844					; size = 4
_nWarState$15 = -32840					; size = 4
_nContinent$16 = -32840					; size = 1
_i$1$ = -32840						; size = 4
_vecMemberId$17 = -32836				; size = 12
_ar$18 = -32824						; size = 16404
_ar$19 = -32824						; size = 16404
_ar$20 = -16420						; size = 16404
__$ArrayPad$ = -16					; size = 4
__$EHRec$ = -12						; size = 12
_pov$ = 8						; size = 4
_dwCompletionKey$ = 12					; size = 4
?Handler@CSecretRoomDbController@@UAEXPAUtagDB_OVERLAPPED_PLUS@@K@Z PROC ; CSecretRoomDbController::Handler, COMDAT
; _this$ = ecx

; 48   : {

  00000	55		 push	 ebp
  00001	8b ec		 mov	 ebp, esp
  00003	6a ff		 push	 -1
  00005	68 00 00 00 00	 push	 __ehhandler$?Handler@CSecretRoomDbController@@UAEXPAUtagDB_OVERLAPPED_PLUS@@K@Z
  0000a	64 a1 00 00 00
	00		 mov	 eax, DWORD PTR fs:0
  00010	50		 push	 eax
  00011	b8 58 80 00 00	 mov	 eax, 32856		; 00008058H
  00016	e8 00 00 00 00	 call	 __chkstk
  0001b	a1 00 00 00 00	 mov	 eax, DWORD PTR ___security_cookie
  00020	33 c5		 xor	 eax, ebp
  00022	89 45 f0	 mov	 DWORD PTR __$ArrayPad$[ebp], eax
  00025	53		 push	 ebx
  00026	56		 push	 esi
  00027	57		 push	 edi
  00028	50		 push	 eax
  00029	8d 45 f4	 lea	 eax, DWORD PTR __$EHRec$[ebp]
  0002c	64 a3 00 00 00
	00		 mov	 DWORD PTR fs:0, eax
  00032	8b d9		 mov	 ebx, ecx
  00034	89 9d a8 7f ff
	ff		 mov	 DWORD PTR _this$GSCopy$1$[ebp], ebx
  0003a	8b 45 08	 mov	 eax, DWORD PTR _pov$[ebp]

; 49   : 	switch( pov->nQueryMode )

  0003d	8b 50 14	 mov	 edx, DWORD PTR [eax+20]
  00040	83 fa 04	 cmp	 edx, 4
  00043	0f 87 13 04 00
	00		 ja	 $LN2@Handler
  00049	ff 24 95 00 00
	00 00		 jmp	 DWORD PTR $LN169@Handler[edx*4]
$LN7@Handler:

; 50   : 	{
; 51   : 		case QUERY_SECRETROOM_LOAD:
; 52   : 			LoadSecretRoom( dwCompletionKey );

  00050	ff 75 0c	 push	 DWORD PTR _dwCompletionKey$[ebp]
  00053	e8 00 00 00 00	 call	 ?LoadSecretRoom@CSecretRoomDbController@@AAEXK@Z ; CSecretRoomDbController::LoadSecretRoom

; 53   : 			break;

  00058	e9 ff 03 00 00	 jmp	 $LN2@Handler
$LN8@Handler:

; 54   : 
; 55   : 		case QUERY_SECRETROOM_TENDER_INSERT:
; 56   : 			{
; 57   : 				CAr ar( pov->lpBuf, pov->uBufSize );

  0005d	ff 70 1c	 push	 DWORD PTR [eax+28]
  00060	8d 8d c8 7f ff
	ff		 lea	 ecx, DWORD PTR _ar$18[ebp]
  00066	ff 70 18	 push	 DWORD PTR [eax+24]
  00069	e8 00 00 00 00	 call	 ??0CAr@@QAE@PAXI@Z	; CAr::CAr

; 58   : 				BYTE nContinent; DWORD dwGuildId; int nPenya;
; 59   : 				ar >> nContinent >> dwGuildId >> nPenya;

  0006e	8d 85 a8 7f ff
	ff		 lea	 eax, DWORD PTR _nPenya$8[ebp]
  00074	c7 45 fc 00 00
	00 00		 mov	 DWORD PTR __$EHRec$[ebp+8], 0
  0007b	50		 push	 eax
  0007c	8d 85 b4 7f ff
	ff		 lea	 eax, DWORD PTR _dwGuildId$12[ebp]
  00082	50		 push	 eax
  00083	8d 85 b8 7f ff
	ff		 lea	 eax, DWORD PTR _nContinent$16[ebp]
  00089	50		 push	 eax
  0008a	8d 8d c8 7f ff
	ff		 lea	 ecx, DWORD PTR _ar$18[ebp]
  00090	e8 00 00 00 00	 call	 ??$?5E@CAr@@QAEAAV0@AAE@Z ; CAr::operator>><unsigned char>
  00095	8b c8		 mov	 ecx, eax
  00097	e8 00 00 00 00	 call	 ??$?5K@CAr@@QAEAAV0@AAK@Z ; CAr::operator>><unsigned long>
  0009c	8b c8		 mov	 ecx, eax
  0009e	e8 00 00 00 00	 call	 ??$?5H@CAr@@QAEAAV0@AAH@Z ; CAr::operator>><int>

; 60   : 				
; 61   : 				InsertTenderToDB( nContinent, dwGuildId, nPenya );

  000a3	ff b5 a8 7f ff
	ff		 push	 DWORD PTR _nPenya$8[ebp]
  000a9	8b cb		 mov	 ecx, ebx
  000ab	ff b5 b4 7f ff
	ff		 push	 DWORD PTR _dwGuildId$12[ebp]
  000b1	ff b5 b8 7f ff
	ff		 push	 DWORD PTR _nContinent$16[ebp]
  000b7	e8 00 00 00 00	 call	 ?InsertTenderToDB@CSecretRoomDbController@@AAEXEKH@Z ; CSecretRoomDbController::InsertTenderToDB

; 62   : 			}

  000bc	8d 8d c8 7f ff
	ff		 lea	 ecx, DWORD PTR _ar$18[ebp]
  000c2	e8 00 00 00 00	 call	 ??1CAr@@QAE@XZ		; CAr::~CAr

; 63   : 			break;

  000c7	e9 90 03 00 00	 jmp	 $LN2@Handler
$LN9@Handler:

; 64   : 
; 65   : 		case QUERY_SECRETROOM_TENDER_UPDATE:
; 66   : 			{
; 67   : 				CAr ar( pov->lpBuf, pov->uBufSize );

  000cc	ff 70 1c	 push	 DWORD PTR [eax+28]
  000cf	8d 8d c8 7f ff
	ff		 lea	 ecx, DWORD PTR _ar$19[ebp]
  000d5	ff 70 18	 push	 DWORD PTR [eax+24]
  000d8	e8 00 00 00 00	 call	 ??0CAr@@QAE@PAXI@Z	; CAr::CAr

; 68   : 				BYTE nContinent; DWORD dwGuildId; int nPenya; char chState;
; 69   : 				DWORD dwWorldId = 0; int nWarState = 0, nKillCount = 0;
; 70   : 				ar >> nContinent >> dwGuildId >> nPenya >> chState;

  000dd	8d 85 a4 7f ff
	ff		 lea	 eax, DWORD PTR _chState$6[ebp]
  000e3	c7 45 fc 01 00
	00 00		 mov	 DWORD PTR __$EHRec$[ebp+8], 1
  000ea	50		 push	 eax
  000eb	8d 85 a0 7f ff
	ff		 lea	 eax, DWORD PTR _nPenya$4[ebp]
  000f1	33 f6		 xor	 esi, esi
  000f3	50		 push	 eax
  000f4	8d 85 9c 7f ff
	ff		 lea	 eax, DWORD PTR _dwGuildId$3[ebp]
  000fa	89 b5 b0 7f ff
	ff		 mov	 DWORD PTR _dwWorldId$10[ebp], esi
  00100	50		 push	 eax
  00101	8d 85 ac 7f ff
	ff		 lea	 eax, DWORD PTR _nContinent$9[ebp]
  00107	89 b5 b4 7f ff
	ff		 mov	 DWORD PTR _nKillCount$13[ebp], esi
  0010d	33 ff		 xor	 edi, edi
  0010f	8d 8d c8 7f ff
	ff		 lea	 ecx, DWORD PTR _ar$19[ebp]
  00115	50		 push	 eax
  00116	89 bd b8 7f ff
	ff		 mov	 DWORD PTR _nWarState$15[ebp], edi
  0011c	e8 00 00 00 00	 call	 ??$?5E@CAr@@QAEAAV0@AAE@Z ; CAr::operator>><unsigned char>
  00121	8b c8		 mov	 ecx, eax
  00123	e8 00 00 00 00	 call	 ??$?5K@CAr@@QAEAAV0@AAK@Z ; CAr::operator>><unsigned long>
  00128	8b c8		 mov	 ecx, eax
  0012a	e8 00 00 00 00	 call	 ??$?5H@CAr@@QAEAAV0@AAH@Z ; CAr::operator>><int>
  0012f	8b c8		 mov	 ecx, eax
  00131	e8 00 00 00 00	 call	 ??$?5D@CAr@@QAEAAV0@AAD@Z ; CAr::operator>><char>

; 71   : 				if( chState == 'W' || chState == 'L' )

  00136	8b 9d a4 7f ff
	ff		 mov	 ebx, DWORD PTR _chState$6[ebp]
  0013c	80 fb 57	 cmp	 bl, 87			; 00000057H
  0013f	74 05		 je	 SHORT $LN11@Handler
  00141	80 fb 4c	 cmp	 bl, 76			; 0000004cH
  00144	75 3a		 jne	 SHORT $LN10@Handler
$LN11@Handler:

; 72   : 					ar >> dwWorldId >> nWarState >> nKillCount;

  00146	8d 85 b4 7f ff
	ff		 lea	 eax, DWORD PTR _nKillCount$13[ebp]
  0014c	50		 push	 eax
  0014d	8d 85 b8 7f ff
	ff		 lea	 eax, DWORD PTR _nWarState$15[ebp]
  00153	50		 push	 eax
  00154	8d 85 b0 7f ff
	ff		 lea	 eax, DWORD PTR _dwWorldId$10[ebp]
  0015a	50		 push	 eax
  0015b	8d 8d c8 7f ff
	ff		 lea	 ecx, DWORD PTR _ar$19[ebp]
  00161	e8 00 00 00 00	 call	 ??$?5K@CAr@@QAEAAV0@AAK@Z ; CAr::operator>><unsigned long>
  00166	8b c8		 mov	 ecx, eax
  00168	e8 00 00 00 00	 call	 ??$?5H@CAr@@QAEAAV0@AAH@Z ; CAr::operator>><int>
  0016d	8b c8		 mov	 ecx, eax
  0016f	e8 00 00 00 00	 call	 ??$?5H@CAr@@QAEAAV0@AAH@Z ; CAr::operator>><int>
  00174	8b b5 b0 7f ff
	ff		 mov	 esi, DWORD PTR _dwWorldId$10[ebp]
  0017a	8b bd b8 7f ff
	ff		 mov	 edi, DWORD PTR _nWarState$15[ebp]
$LN10@Handler:

; 73   : 
; 74   : 				UpdateTenderToDB( nContinent, dwGuildId, nPenya, chState, dwWorldId, nWarState, nKillCount );

  00180	ff b5 b4 7f ff
	ff		 push	 DWORD PTR _nKillCount$13[ebp]
  00186	8b 8d a8 7f ff
	ff		 mov	 ecx, DWORD PTR _this$GSCopy$1$[ebp]
  0018c	57		 push	 edi
  0018d	56		 push	 esi
  0018e	53		 push	 ebx
  0018f	ff b5 a0 7f ff
	ff		 push	 DWORD PTR _nPenya$4[ebp]
  00195	ff b5 9c 7f ff
	ff		 push	 DWORD PTR _dwGuildId$3[ebp]
  0019b	ff b5 ac 7f ff
	ff		 push	 DWORD PTR _nContinent$9[ebp]
  001a1	e8 00 00 00 00	 call	 ?UpdateTenderToDB@CSecretRoomDbController@@AAEXEKHDKHH@Z ; CSecretRoomDbController::UpdateTenderToDB

; 75   : 			}

  001a6	8d 8d c8 7f ff
	ff		 lea	 ecx, DWORD PTR _ar$19[ebp]
  001ac	e8 00 00 00 00	 call	 ??1CAr@@QAE@XZ		; CAr::~CAr

; 76   : 			break;

  001b1	e9 a6 02 00 00	 jmp	 $LN2@Handler
$LN12@Handler:

; 77   : 
; 78   : 		case QUERY_SECRETROOM_LINEUP_INSERT:
; 79   : 			{
; 80   : 				CAr ar( pov->lpBuf, pov->uBufSize );

  001b6	ff 70 1c	 push	 DWORD PTR [eax+28]
  001b9	8d 8d dc bf ff
	ff		 lea	 ecx, DWORD PTR _ar$20[ebp]
  001bf	ff 70 18	 push	 DWORD PTR [eax+24]
  001c2	e8 00 00 00 00	 call	 ??0CAr@@QAE@PAXI@Z	; CAr::CAr
  001c7	c7 45 fc 02 00
	00 00		 mov	 DWORD PTR __$EHRec$[ebp+8], 2
; File C:\Program Files\Microsoft Visual Studio\2022\Professional\VC\Tools\MSVC\14.44.35207\include\vector

; 400  :     _CONSTEXPR20 _Vector_val() noexcept : _Myfirst(), _Mylast(), _Myend() {}

  001ce	c7 85 bc 7f ff
	ff 00 00 00 00	 mov	 DWORD PTR _vecMemberId$17[ebp], 0
  001d8	c7 85 c0 7f ff
	ff 00 00 00 00	 mov	 DWORD PTR _vecMemberId$17[ebp+4], 0
  001e2	c7 85 c4 7f ff
	ff 00 00 00 00	 mov	 DWORD PTR _vecMemberId$17[ebp+8], 0
; File C:\IAGOS\server\v18\Source\Source\DatabaseServer\SecretRoomDBMng.cpp

; 83   : 				ar >> nContinent >> dwGuildId;

  001ec	8d 85 a0 7f ff
	ff		 lea	 eax, DWORD PTR _dwGuildId$5[ebp]
  001f2	c6 45 fc 03	 mov	 BYTE PTR __$EHRec$[ebp+8], 3
  001f6	50		 push	 eax
  001f7	8d 85 a4 7f ff
	ff		 lea	 eax, DWORD PTR _nContinent$7[ebp]
  001fd	50		 push	 eax
  001fe	8d 8d dc bf ff
	ff		 lea	 ecx, DWORD PTR _ar$20[ebp]
  00204	e8 00 00 00 00	 call	 ??$?5E@CAr@@QAEAAV0@AAE@Z ; CAr::operator>><unsigned char>
  00209	8b c8		 mov	 ecx, eax
  0020b	e8 00 00 00 00	 call	 ??$?5K@CAr@@QAEAAV0@AAK@Z ; CAr::operator>><unsigned long>

; 84   : 				ar >> nSize;

  00210	8d 85 b0 7f ff
	ff		 lea	 eax, DWORD PTR _nSize$11[ebp]
  00216	50		 push	 eax
  00217	8d 8d dc bf ff
	ff		 lea	 ecx, DWORD PTR _ar$20[ebp]
  0021d	e8 00 00 00 00	 call	 ??$?5H@CAr@@QAEAAV0@AAH@Z ; CAr::operator>><int>

; 85   : 				for( int i=0; i<nSize; i++ )

  00222	83 bd b0 7f ff
	ff 00		 cmp	 DWORD PTR _nSize$11[ebp], 0
  00229	c7 85 b8 7f ff
	ff 00 00 00 00	 mov	 DWORD PTR _i$1$[ebp], 0
  00233	0f 8e a2 01 00
	00		 jle	 $LN5@Handler
  00239	8b 9d c4 7f ff
	ff		 mov	 ebx, DWORD PTR _vecMemberId$17[ebp+8]
  0023f	8b b5 c0 7f ff
	ff		 mov	 esi, DWORD PTR _vecMemberId$17[ebp+4]
  00245	8b bd bc 7f ff
	ff		 mov	 edi, DWORD PTR _vecMemberId$17[ebp]
  0024b	0f 1f 44 00 00	 npad	 5
$LL6@Handler:

; 86   : 				{
; 87   : 					ar >> dwPlayerId;

  00250	8d 85 b4 7f ff
	ff		 lea	 eax, DWORD PTR _dwPlayerId$14[ebp]
  00256	50		 push	 eax
  00257	8d 8d dc bf ff
	ff		 lea	 ecx, DWORD PTR _ar$20[ebp]
  0025d	e8 00 00 00 00	 call	 ??$?5K@CAr@@QAEAAV0@AAK@Z ; CAr::operator>><unsigned long>
; File C:\Program Files\Microsoft Visual Studio\2022\Professional\VC\Tools\MSVC\14.44.35207\include\vector

; 844  :         if (_Mylast != _My_data._Myend) {

  00262	3b f3		 cmp	 esi, ebx
  00264	74 22		 je	 SHORT $LN31@Handler

; 860  :             _STD _Construct_in_place(*_Mylast, _STD forward<_Valty>(_Val)...);

  00266	8b 85 b4 7f ff
	ff		 mov	 eax, DWORD PTR _dwPlayerId$14[ebp]
  0026c	89 06		 mov	 DWORD PTR [esi], eax

; 861  :         } else {
; 862  :             _ASAN_VECTOR_EXTEND_GUARD(static_cast<size_type>(_Mylast - _My_data._Myfirst) + 1);
; 863  :             _Alty_traits::construct(_Getal(), _Unfancy(_Mylast), _STD forward<_Valty>(_Val)...);
; 864  :             _ASAN_VECTOR_RELEASE_GUARD;
; 865  :         }
; 866  : 
; 867  :         _Orphan_range(_Mylast, _Mylast);
; 868  :         _Ty& _Result = *_Mylast;
; 869  :         ++_Mylast;

  0026e	8b b5 c0 7f ff
	ff		 mov	 esi, DWORD PTR _vecMemberId$17[ebp+4]

; 845  :             return _Emplace_back_with_unused_capacity(_STD forward<_Valty>(_Val)...);

  00274	8b 9d c4 7f ff
	ff		 mov	 ebx, DWORD PTR _vecMemberId$17[ebp+8]

; 869  :         ++_Mylast;

  0027a	83 c6 04	 add	 esi, 4

; 845  :             return _Emplace_back_with_unused_capacity(_STD forward<_Valty>(_Val)...);

  0027d	8b bd bc 7f ff
	ff		 mov	 edi, DWORD PTR _vecMemberId$17[ebp]
  00283	e9 2e 01 00 00	 jmp	 $LN173@Handler
$LN31@Handler:

; 875  :     _CONSTEXPR20 pointer _Emplace_reallocate(const pointer _Whereptr, _Valty&&... _Val) {

  00288	8b c6		 mov	 eax, esi
  0028a	2b c7		 sub	 eax, edi

; 876  :         // reallocate and insert by perfectly forwarding _Val at _Whereptr
; 877  :         _Alty& _Al        = _Getal();
; 878  :         auto& _My_data    = _Mypair._Myval2;
; 879  :         pointer& _Myfirst = _My_data._Myfirst;
; 880  :         pointer& _Mylast  = _My_data._Mylast;
; 881  : 
; 882  :         _STL_INTERNAL_CHECK(_Mylast == _My_data._Myend); // check that we have no unused capacity
; 883  : 
; 884  :         const auto _Whereoff = static_cast<size_type>(_Whereptr - _Myfirst);

  0028c	c1 f8 02	 sar	 eax, 2
  0028f	89 85 ac 7f ff
	ff		 mov	 DWORD PTR __Oldsize$1$[ebp], eax

; 885  :         const auto _Oldsize  = static_cast<size_type>(_Mylast - _Myfirst);
; 886  : 
; 887  :         if (_Oldsize == max_size()) {

  00295	3d ff ff ff 3f	 cmp	 eax, 1073741823		; 3fffffffH
  0029a	0f 84 ee 01 00
	00		 je	 $LN159@Handler

; 889  :         }
; 890  : 
; 891  :         const size_type _Newsize = _Oldsize + 1;

  002a0	2b df		 sub	 ebx, edi
  002a2	8d 50 01	 lea	 edx, DWORD PTR [eax+1]

; 1924 :         return static_cast<size_type>(_My_data._Myend - _My_data._Myfirst);

  002a5	c1 fb 02	 sar	 ebx, 2

; 2011 :         if (_Oldcapacity > _Max - _Oldcapacity / 2) {

  002a8	b8 ff ff ff 3f	 mov	 eax, 1073741823		; 3fffffffH
  002ad	8b cb		 mov	 ecx, ebx

; 891  :         const size_type _Newsize = _Oldsize + 1;

  002af	89 95 9c 7f ff
	ff		 mov	 DWORD PTR __Newsize$1$[ebp], edx

; 2011 :         if (_Oldcapacity > _Max - _Oldcapacity / 2) {

  002b5	d1 e9		 shr	 ecx, 1
  002b7	2b c1		 sub	 eax, ecx
  002b9	3b d8		 cmp	 ebx, eax
  002bb	76 0f		 jbe	 SHORT $LN42@Handler

; 2012 :             return _Max; // geometric growth would overflow

  002bd	bb fc ff ff ff	 mov	 ebx, -4			; fffffffcH
  002c2	8b c3		 mov	 eax, ebx
; File C:\Program Files\Microsoft Visual Studio\2022\Professional\VC\Tools\MSVC\14.44.35207\include\xmemory

; 253  :             return _Allocate_manually_vector_aligned<_Traits>(_Bytes);

  002c4	50		 push	 eax
  002c5	e8 00 00 00 00	 call	 ??$_Allocate_manually_vector_aligned@U_Default_allocate_traits@std@@@std@@YAPAXI@Z ; std::_Allocate_manually_vector_aligned<std::_Default_allocate_traits>
  002ca	eb 3c		 jmp	 SHORT $LN174@Handler
$LN42@Handler:
; File C:\Program Files\Microsoft Visual Studio\2022\Professional\VC\Tools\MSVC\14.44.35207\include\vector

; 2015 :         const size_type _Geometric = _Oldcapacity + _Oldcapacity / 2;

  002cc	8d 04 19	 lea	 eax, DWORD PTR [ecx+ebx]
; File C:\Program Files\Microsoft Visual Studio\2022\Professional\VC\Tools\MSVC\14.44.35207\include\xmemory

; 117  :         if (_Count > _Max_possible) {

  002cf	8b ca		 mov	 ecx, edx
  002d1	3b c2		 cmp	 eax, edx
  002d3	0f 43 c8	 cmovae	 ecx, eax
  002d6	81 f9 ff ff ff
	3f		 cmp	 ecx, 1073741823		; 3fffffffH
  002dc	0f 87 a7 01 00
	00		 ja	 $LN160@Handler

; 119  :         }
; 120  :     }
; 121  : 
; 122  :     return _Count * _Ty_size;

  002e2	8d 1c 8d 00 00
	00 00		 lea	 ebx, DWORD PTR [ecx*4]

; 990  :         return static_cast<_Ty*>(_STD _Allocate<_New_alignof<_Ty>>(_Get_size_of_n<sizeof(_Ty)>(_Count)));

  002e9	8b c3		 mov	 eax, ebx

; 227  :     if (_Bytes == 0) {

  002eb	85 c0		 test	 eax, eax
  002ed	75 04		 jne	 SHORT $LN57@Handler

; 228  :         return nullptr;

  002ef	33 ff		 xor	 edi, edi
  002f1	eb 1a		 jmp	 SHORT $LN56@Handler
$LN57@Handler:

; 229  :     }
; 230  : 
; 231  : #if _HAS_CXX20 // TRANSITION, GH-1532
; 232  :     if (_STD is_constant_evaluated()) {
; 233  :         return _Traits::_Allocate(_Bytes);
; 234  :     }
; 235  : #endif // _HAS_CXX20
; 236  : 
; 237  : #ifdef __cpp_aligned_new
; 238  :     if constexpr (_Align > __STDCPP_DEFAULT_NEW_ALIGNMENT__) {
; 239  :         size_t _Passed_align = _Align;
; 240  : #if defined(_M_IX86) || defined(_M_X64)
; 241  :         if (_Bytes >= _Big_allocation_threshold) {
; 242  :             // boost the alignment of big allocations to help autovectorization
; 243  :             _Passed_align = (_STD max)(_Align, _Big_allocation_alignment);
; 244  :         }
; 245  : #endif // defined(_M_IX86) || defined(_M_X64)
; 246  :         return _Traits::_Allocate_aligned(_Bytes, _Passed_align);
; 247  :     } else
; 248  : #endif // defined(__cpp_aligned_new)
; 249  :     {
; 250  : #if defined(_M_IX86) || defined(_M_X64)
; 251  :         if (_Bytes >= _Big_allocation_threshold) {

  002f3	3d 00 10 00 00	 cmp	 eax, 4096		; 00001000H
  002f8	72 08		 jb	 SHORT $LN58@Handler

; 253  :             return _Allocate_manually_vector_aligned<_Traits>(_Bytes);

  002fa	50		 push	 eax
  002fb	e8 00 00 00 00	 call	 ??$_Allocate_manually_vector_aligned@U_Default_allocate_traits@std@@@std@@YAPAXI@Z ; std::_Allocate_manually_vector_aligned<std::_Default_allocate_traits>
  00300	eb 06		 jmp	 SHORT $LN174@Handler
$LN58@Handler:

; 136  :         return ::operator new(_Bytes);

  00302	50		 push	 eax
  00303	e8 00 00 00 00	 call	 ??2@YAPAXI@Z		; operator new
$LN174@Handler:
; File C:\Program Files\Microsoft Visual Studio\2022\Professional\VC\Tools\MSVC\14.44.35207\include\vector

; 900  :         _Alty_traits::construct(_Al, _STD _Unfancy(_Newvec + _Whereoff), _STD forward<_Valty>(_Val)...);

  00308	8b f8		 mov	 edi, eax
  0030a	83 c4 04	 add	 esp, 4
$LN56@Handler:
  0030d	8b 85 ac 7f ff
	ff		 mov	 eax, DWORD PTR __Oldsize$1$[ebp]
  00313	8d 0c 87	 lea	 ecx, DWORD PTR [edi+eax*4]
  00316	8b 85 b4 7f ff
	ff		 mov	 eax, DWORD PTR _dwPlayerId$14[ebp]
  0031c	89 01		 mov	 DWORD PTR [ecx], eax

; 901  :         _Constructed_first = _Newvec + _Whereoff;
; 902  : 
; 903  :         if (_Whereptr == _Mylast) { // at back, provide strong guarantee

  0031e	8b 85 c0 7f ff
	ff		 mov	 eax, DWORD PTR _vecMemberId$17[ebp+4]
  00324	89 8d ac 7f ff
	ff		 mov	 DWORD PTR tv913[ebp], ecx
  0032a	3b f0		 cmp	 esi, eax
  0032c	75 0a		 jne	 SHORT $LN37@Handler
; File C:\Program Files\Microsoft Visual Studio\2022\Professional\VC\Tools\MSVC\14.44.35207\include\xmemory

; 1992 :             _STD _Copy_memmove(_UFirst, _ULast, _STD _Unfancy(_Dest));

  0032e	8b b5 bc 7f ff
	ff		 mov	 esi, DWORD PTR _vecMemberId$17[ebp]
  00334	8b cf		 mov	 ecx, edi
; File C:\Program Files\Microsoft Visual Studio\2022\Professional\VC\Tools\MSVC\14.44.35207\include\vector

; 909  :         } else { // provide basic guarantee

  00336	eb 1f		 jmp	 SHORT $LN86@Handler
$LN37@Handler:
; File C:\Program Files\Microsoft Visual Studio\2022\Professional\VC\Tools\MSVC\14.44.35207\include\xmemory

; 1992 :             _STD _Copy_memmove(_UFirst, _ULast, _STD _Unfancy(_Dest));

  00338	57		 push	 edi
  00339	56		 push	 esi
  0033a	ff b5 bc 7f ff
	ff		 push	 DWORD PTR _vecMemberId$17[ebp]
  00340	e8 00 00 00 00	 call	 ??$_Copy_memmove@PAKPAK@std@@YAPAKPAK00@Z ; std::_Copy_memmove<unsigned long *,unsigned long *>
; File C:\Program Files\Microsoft Visual Studio\2022\Professional\VC\Tools\MSVC\14.44.35207\include\vector

; 912  :             _STD _Uninitialized_move(_Whereptr, _Mylast, _Newvec + _Whereoff + 1, _Al);

  00345	8b 8d ac 7f ff
	ff		 mov	 ecx, DWORD PTR tv913[ebp]
; File C:\Program Files\Microsoft Visual Studio\2022\Professional\VC\Tools\MSVC\14.44.35207\include\xmemory

; 1992 :             _STD _Copy_memmove(_UFirst, _ULast, _STD _Unfancy(_Dest));

  0034b	83 c4 0c	 add	 esp, 12			; 0000000cH
  0034e	8b 85 c0 7f ff
	ff		 mov	 eax, DWORD PTR _vecMemberId$17[ebp+4]
; File C:\Program Files\Microsoft Visual Studio\2022\Professional\VC\Tools\MSVC\14.44.35207\include\vector

; 912  :             _STD _Uninitialized_move(_Whereptr, _Mylast, _Newvec + _Whereoff + 1, _Al);

  00354	83 c1 04	 add	 ecx, 4
$LN86@Handler:

; 913  :         }
; 914  : 
; 915  :         _Guard._New_begin = nullptr;

  00357	51		 push	 ecx
  00358	50		 push	 eax
  00359	56		 push	 esi
  0035a	e8 00 00 00 00	 call	 ??$_Copy_memmove@PAKPAK@std@@YAPAKPAK00@Z ; std::_Copy_memmove<unsigned long *,unsigned long *>

; 2069 :         if (_Myfirst) { // destroy and deallocate old array

  0035f	8b 95 bc 7f ff
	ff		 mov	 edx, DWORD PTR _vecMemberId$17[ebp]

; 915  :         _Guard._New_begin = nullptr;

  00365	83 c4 0c	 add	 esp, 12			; 0000000cH

; 2069 :         if (_Myfirst) { // destroy and deallocate old array

  00368	85 d2		 test	 edx, edx
  0036a	74 33		 je	 SHORT $LN106@Handler

; 2072 :             _Al.deallocate(_Myfirst, static_cast<size_type>(_Myend - _Myfirst));

  0036c	8b 8d c4 7f ff
	ff		 mov	 ecx, DWORD PTR _vecMemberId$17[ebp+8]
; File C:\Program Files\Microsoft Visual Studio\2022\Professional\VC\Tools\MSVC\14.44.35207\include\xmemory

; 985  :         _STD _Deallocate<_New_alignof<_Ty>>(_Ptr, sizeof(_Ty) * _Count);

  00372	8b c2		 mov	 eax, edx
; File C:\Program Files\Microsoft Visual Studio\2022\Professional\VC\Tools\MSVC\14.44.35207\include\vector

; 2072 :             _Al.deallocate(_Myfirst, static_cast<size_type>(_Myend - _Myfirst));

  00374	2b ca		 sub	 ecx, edx
; File C:\Program Files\Microsoft Visual Studio\2022\Professional\VC\Tools\MSVC\14.44.35207\include\xmemory

; 985  :         _STD _Deallocate<_New_alignof<_Ty>>(_Ptr, sizeof(_Ty) * _Count);

  00376	83 e1 fc	 and	 ecx, -4			; fffffffcH

; 284  :         if (_Bytes >= _Big_allocation_threshold) {

  00379	81 f9 00 10 00
	00		 cmp	 ecx, 4096		; 00001000H
  0037f	72 14		 jb	 SHORT $LN111@Handler

; 205  :     const uintptr_t _Ptr_container   = _Ptr_user[-1];

  00381	8b 50 fc	 mov	 edx, DWORD PTR [eax-4]
  00384	83 c1 23	 add	 ecx, 35			; 00000023H
  00387	2b c2		 sub	 eax, edx

; 219  :     _STL_VERIFY(_Back_shift >= _Min_back_shift && _Back_shift <= _Non_user_size, "invalid argument");

  00389	83 c0 fc	 add	 eax, -4			; fffffffcH
  0038c	83 f8 1f	 cmp	 eax, 31			; 0000001fH
  0038f	0f 87 e5 00 00
	00		 ja	 $LN152@Handler
$LN111@Handler:

; 289  :         ::operator delete(_Ptr, _Bytes);

  00395	51		 push	 ecx
  00396	52		 push	 edx
  00397	e8 00 00 00 00	 call	 ??3@YAXPAXI@Z		; operator delete
  0039c	83 c4 08	 add	 esp, 8
$LN106@Handler:
; File C:\Program Files\Microsoft Visual Studio\2022\Professional\VC\Tools\MSVC\14.44.35207\include\vector

; 2076 :         _Mylast  = _Newvec + _Newsize;

  0039f	8b 85 9c 7f ff
	ff		 mov	 eax, DWORD PTR __Newsize$1$[ebp]

; 2077 :         _Myend   = _Newvec + _Newcapacity;

  003a5	03 df		 add	 ebx, edi
  003a7	89 bd bc 7f ff
	ff		 mov	 DWORD PTR _vecMemberId$17[ebp], edi
  003ad	89 9d c4 7f ff
	ff		 mov	 DWORD PTR _vecMemberId$17[ebp+8], ebx
  003b3	8d 34 87	 lea	 esi, DWORD PTR [edi+eax*4]
$LN173@Handler:
; File C:\IAGOS\server\v18\Source\Source\DatabaseServer\SecretRoomDBMng.cpp

; 85   : 				for( int i=0; i<nSize; i++ )

  003b6	8b 85 b8 7f ff
	ff		 mov	 eax, DWORD PTR _i$1$[ebp]
  003bc	40		 inc	 eax
  003bd	89 b5 c0 7f ff
	ff		 mov	 DWORD PTR _vecMemberId$17[ebp+4], esi
  003c3	89 85 b8 7f ff
	ff		 mov	 DWORD PTR _i$1$[ebp], eax
  003c9	3b 85 b0 7f ff
	ff		 cmp	 eax, DWORD PTR _nSize$11[ebp]
  003cf	0f 8c 7b fe ff
	ff		 jl	 $LL6@Handler
  003d5	8b 9d a8 7f ff
	ff		 mov	 ebx, DWORD PTR _this$GSCopy$1$[ebp]
$LN5@Handler:

; 88   : 					vecMemberId.push_back( dwPlayerId );
; 89   : 				}
; 90   : 				
; 91   : 				InsertLineUpMemberToDB( nContinent, dwGuildId, vecMemberId );

  003db	8d 85 bc 7f ff
	ff		 lea	 eax, DWORD PTR _vecMemberId$17[ebp]
  003e1	8b cb		 mov	 ecx, ebx
  003e3	50		 push	 eax
  003e4	ff b5 a0 7f ff
	ff		 push	 DWORD PTR _dwGuildId$5[ebp]
  003ea	ff b5 a4 7f ff
	ff		 push	 DWORD PTR _nContinent$7[ebp]
  003f0	e8 00 00 00 00	 call	 ?InsertLineUpMemberToDB@CSecretRoomDbController@@AAEXEKAAV?$vector@KV?$allocator@K@std@@@std@@@Z ; CSecretRoomDbController::InsertLineUpMemberToDB
; File C:\Program Files\Microsoft Visual Studio\2022\Professional\VC\Tools\MSVC\14.44.35207\include\vector

; 2090 :         if (_Myfirst) { // destroy and deallocate old array

  003f5	8b 95 bc 7f ff
	ff		 mov	 edx, DWORD PTR _vecMemberId$17[ebp]
  003fb	85 d2		 test	 edx, edx
  003fd	74 4d		 je	 SHORT $LN140@Handler

; 2093 :             _Al.deallocate(_Myfirst, static_cast<size_type>(_Myend - _Myfirst));

  003ff	8b 8d c4 7f ff
	ff		 mov	 ecx, DWORD PTR _vecMemberId$17[ebp+8]
; File C:\Program Files\Microsoft Visual Studio\2022\Professional\VC\Tools\MSVC\14.44.35207\include\xmemory

; 985  :         _STD _Deallocate<_New_alignof<_Ty>>(_Ptr, sizeof(_Ty) * _Count);

  00405	8b c2		 mov	 eax, edx
; File C:\Program Files\Microsoft Visual Studio\2022\Professional\VC\Tools\MSVC\14.44.35207\include\vector

; 2093 :             _Al.deallocate(_Myfirst, static_cast<size_type>(_Myend - _Myfirst));

  00407	2b ca		 sub	 ecx, edx
; File C:\Program Files\Microsoft Visual Studio\2022\Professional\VC\Tools\MSVC\14.44.35207\include\xmemory

; 985  :         _STD _Deallocate<_New_alignof<_Ty>>(_Ptr, sizeof(_Ty) * _Count);

  00409	83 e1 fc	 and	 ecx, -4			; fffffffcH

; 284  :         if (_Bytes >= _Big_allocation_threshold) {

  0040c	81 f9 00 10 00
	00		 cmp	 ecx, 4096		; 00001000H
  00412	72 10		 jb	 SHORT $LN153@Handler

; 205  :     const uintptr_t _Ptr_container   = _Ptr_user[-1];

  00414	8b 50 fc	 mov	 edx, DWORD PTR [eax-4]
  00417	83 c1 23	 add	 ecx, 35			; 00000023H
  0041a	2b c2		 sub	 eax, edx

; 219  :     _STL_VERIFY(_Back_shift >= _Min_back_shift && _Back_shift <= _Non_user_size, "invalid argument");

  0041c	83 c0 fc	 add	 eax, -4			; fffffffcH
  0041f	83 f8 1f	 cmp	 eax, 31			; 0000001fH
  00422	77 56		 ja	 SHORT $LN152@Handler
$LN153@Handler:

; 289  :         ::operator delete(_Ptr, _Bytes);

  00424	51		 push	 ecx
  00425	52		 push	 edx
  00426	e8 00 00 00 00	 call	 ??3@YAXPAXI@Z		; operator delete
  0042b	83 c4 08	 add	 esp, 8
; File C:\Program Files\Microsoft Visual Studio\2022\Professional\VC\Tools\MSVC\14.44.35207\include\vector

; 2095 :             _Myfirst = nullptr;

  0042e	c7 85 bc 7f ff
	ff 00 00 00 00	 mov	 DWORD PTR _vecMemberId$17[ebp], 0

; 2096 :             _Mylast  = nullptr;

  00438	c7 85 c0 7f ff
	ff 00 00 00 00	 mov	 DWORD PTR _vecMemberId$17[ebp+4], 0

; 2097 :             _Myend   = nullptr;

  00442	c7 85 c4 7f ff
	ff 00 00 00 00	 mov	 DWORD PTR _vecMemberId$17[ebp+8], 0
$LN140@Handler:
; File C:\IAGOS\server\v18\Source\Source\DatabaseServer\SecretRoomDBMng.cpp

; 92   : 			}

  0044c	8d 8d dc bf ff
	ff		 lea	 ecx, DWORD PTR _ar$20[ebp]
  00452	e8 00 00 00 00	 call	 ??1CAr@@QAE@XZ		; CAr::~CAr

; 93   : 			break;

  00457	eb 03		 jmp	 SHORT $LN2@Handler
$LN13@Handler:

; 94   : 
; 95   : 		case QUERY_SECRETROOM_CLOSED:
; 96   : 			{
; 97   : 				m_nTimes++;

  00459	ff 43 14	 inc	 DWORD PTR [ebx+20]
$LN2@Handler:

; 101  : }

  0045c	8b 4d f4	 mov	 ecx, DWORD PTR __$EHRec$[ebp]
  0045f	64 89 0d 00 00
	00 00		 mov	 DWORD PTR fs:0, ecx
  00466	59		 pop	 ecx
  00467	5f		 pop	 edi
  00468	5e		 pop	 esi
  00469	5b		 pop	 ebx
  0046a	8b 4d f0	 mov	 ecx, DWORD PTR __$ArrayPad$[ebp]
  0046d	33 cd		 xor	 ecx, ebp
  0046f	e8 00 00 00 00	 call	 @__security_check_cookie@4
  00474	8b e5		 mov	 esp, ebp
  00476	5d		 pop	 ebp
  00477	c2 08 00	 ret	 8
$LN152@Handler:
; File C:\Program Files\Microsoft Visual Studio\2022\Professional\VC\Tools\MSVC\14.44.35207\include\xmemory

; 219  :     _STL_VERIFY(_Back_shift >= _Min_back_shift && _Back_shift <= _Non_user_size, "invalid argument");

  0047a	6a 00		 push	 0
  0047c	6a 00		 push	 0
  0047e	6a 00		 push	 0
  00480	6a 00		 push	 0
  00482	6a 00		 push	 0
  00484	e8 00 00 00 00	 call	 __invoke_watson
$LN160@Handler:

; 118  :             _Throw_bad_array_new_length(); // multiply overflow

  00489	e8 00 00 00 00	 call	 ?_Throw_bad_array_new_length@std@@YAXXZ ; std::_Throw_bad_array_new_length
$LN159@Handler:
; File C:\Program Files\Microsoft Visual Studio\2022\Professional\VC\Tools\MSVC\14.44.35207\include\vector

; 888  :             _Xlength();

  0048e	e8 00 00 00 00	 call	 ?_Xlength@?$vector@KV?$allocator@K@std@@@std@@CAXXZ ; std::vector<unsigned long,std::allocator<unsigned long> >::_Xlength
$LN172@Handler:
  00493	90		 npad	 1
$LN169@Handler:
; File C:\IAGOS\server\v18\Source\Source\DatabaseServer\SecretRoomDBMng.cpp

; 101  : }

  00494	00 00 00 00	 DD	 $LN7@Handler
  00498	00 00 00 00	 DD	 $LN8@Handler
  0049c	00 00 00 00	 DD	 $LN9@Handler
  004a0	00 00 00 00	 DD	 $LN12@Handler
  004a4	00 00 00 00	 DD	 $LN13@Handler
_TEXT	ENDS
;	COMDAT text$x
text$x	SEGMENT
__unwindfunclet$?Handler@CSecretRoomDbController@@UAEXPAUtagDB_OVERLAPPED_PLUS@@K@Z$0:
  00000	8d 8d c8 7f ff
	ff		 lea	 ecx, DWORD PTR _ar$18[ebp]
  00006	e9 00 00 00 00	 jmp	 ??1CAr@@QAE@XZ		; CAr::~CAr
__unwindfunclet$?Handler@CSecretRoomDbController@@UAEXPAUtagDB_OVERLAPPED_PLUS@@K@Z$1:
  0000b	8d 8d c8 7f ff
	ff		 lea	 ecx, DWORD PTR _ar$19[ebp]
  00011	e9 00 00 00 00	 jmp	 ??1CAr@@QAE@XZ		; CAr::~CAr
__unwindfunclet$?Handler@CSecretRoomDbController@@UAEXPAUtagDB_OVERLAPPED_PLUS@@K@Z$2:
  00016	8d 8d dc bf ff
	ff		 lea	 ecx, DWORD PTR _ar$20[ebp]
  0001c	e9 00 00 00 00	 jmp	 ??1CAr@@QAE@XZ		; CAr::~CAr
__unwindfunclet$?Handler@CSecretRoomDbController@@UAEXPAUtagDB_OVERLAPPED_PLUS@@K@Z$3:
  00021	8d 8d bc 7f ff
	ff		 lea	 ecx, DWORD PTR _vecMemberId$17[ebp]
  00027	e9 00 00 00 00	 jmp	 ??1?$vector@KV?$allocator@K@std@@@std@@QAE@XZ ; std::vector<unsigned long,std::allocator<unsigned long> >::~vector<unsigned long,std::allocator<unsigned long> >
  0002c	cc		 int	 3
  0002d	cc		 int	 3
  0002e	cc		 int	 3
  0002f	cc		 int	 3
  00030	cc		 int	 3
__ehhandler$?Handler@CSecretRoomDbController@@UAEXPAUtagDB_OVERLAPPED_PLUS@@K@Z:
  00031	90		 npad	 1
  00032	90		 npad	 1
  00033	8b 54 24 08	 mov	 edx, DWORD PTR [esp+8]
  00037	8d 42 0c	 lea	 eax, DWORD PTR [edx+12]
  0003a	8b 8a 98 7f ff
	ff		 mov	 ecx, DWORD PTR [edx-32872]
  00040	33 c8		 xor	 ecx, eax
  00042	e8 00 00 00 00	 call	 @__security_check_cookie@4
  00047	8b 4a fc	 mov	 ecx, DWORD PTR [edx-4]
  0004a	33 c8		 xor	 ecx, eax
  0004c	e8 00 00 00 00	 call	 @__security_check_cookie@4
  00051	b8 00 00 00 00	 mov	 eax, OFFSET __ehfuncinfo$?Handler@CSecretRoomDbController@@UAEXPAUtagDB_OVERLAPPED_PLUS@@K@Z
  00056	e9 00 00 00 00	 jmp	 ___CxxFrameHandler3
text$x	ENDS
?Handler@CSecretRoomDbController@@UAEXPAUtagDB_OVERLAPPED_PLUS@@K@Z ENDP ; CSecretRoomDbController::Handler
; Function compile flags: /Ogtp
; File C:\IAGOS\server\v18\Source\Source\DatabaseServer\SecretRoomDBMng.cpp
;	COMDAT ??1CSecretRoomDbController@@UAE@XZ
_TEXT	SEGMENT
??1CSecretRoomDbController@@UAE@XZ PROC			; CSecretRoomDbController::~CSecretRoomDbController, COMDAT
; _this$ = ecx

; 44   : {

  00000	c7 01 00 00 00
	00		 mov	 DWORD PTR [ecx], OFFSET ??_7CSecretRoomDbController@@6B@

; 45   : }

  00006	e9 00 00 00 00	 jmp	 ??1CDbController@@UAE@XZ ; CDbController::~CDbController
??1CSecretRoomDbController@@UAE@XZ ENDP			; CSecretRoomDbController::~CSecretRoomDbController
_TEXT	ENDS
; Function compile flags: /Ogtp
; File C:\IAGOS\server\v18\Source\Source\DatabaseServer\SecretRoomDBMng.cpp
;	COMDAT ??0CSecretRoomDbController@@QAE@XZ
_TEXT	SEGMENT
_this$ = -4						; size = 4
??0CSecretRoomDbController@@QAE@XZ PROC			; CSecretRoomDbController::CSecretRoomDbController, COMDAT
; _this$ = ecx

; 40   : {

  00000	55		 push	 ebp
  00001	8b ec		 mov	 ebp, esp
  00003	51		 push	 ecx
  00004	56		 push	 esi
  00005	8b f1		 mov	 esi, ecx
  00007	89 75 fc	 mov	 DWORD PTR _this$[ebp], esi
  0000a	e8 00 00 00 00	 call	 ??0CDbController@@QAE@XZ ; CDbController::CDbController
  0000f	c7 06 00 00 00
	00		 mov	 DWORD PTR [esi], OFFSET ??_7CSecretRoomDbController@@6B@

; 41   : }

  00015	8b c6		 mov	 eax, esi
  00017	c7 46 14 00 00
	00 00		 mov	 DWORD PTR [esi+20], 0
  0001e	5e		 pop	 esi
  0001f	8b e5		 mov	 esp, ebp
  00021	5d		 pop	 ebp
  00022	c3		 ret	 0
??0CSecretRoomDbController@@QAE@XZ ENDP			; CSecretRoomDbController::CSecretRoomDbController
_TEXT	ENDS
; Function compile flags: /Ogtp
; File C:\IAGOS\server\v18\Source\Source\DatabaseServer\dbcontroller.h
;	COMDAT ?OnTimer@CDbController@@UAEXXZ
_TEXT	SEGMENT
?OnTimer@CDbController@@UAEXXZ PROC			; CDbController::OnTimer, COMDAT
; _this$ = ecx

; 26   : 	virtual void	OnTimer()	{}

  00000	c2 00 00	 ret	 0
?OnTimer@CDbController@@UAEXXZ ENDP			; CDbController::OnTimer
_TEXT	ENDS
; Function compile flags: /Ogtp
; File C:\Program Files\Microsoft Visual Studio\2022\Professional\VC\Tools\MSVC\14.44.35207\include\xmemory
;	COMDAT ??$_Allocate_manually_vector_aligned@U_Default_allocate_traits@std@@@std@@YAPAXI@Z
_TEXT	SEGMENT
__Bytes$ = 8						; size = 4
??$_Allocate_manually_vector_aligned@U_Default_allocate_traits@std@@@std@@YAPAXI@Z PROC ; std::_Allocate_manually_vector_aligned<std::_Default_allocate_traits>, COMDAT

; 182  : __declspec(allocator) void* _Allocate_manually_vector_aligned(const size_t _Bytes) {

  00000	55		 push	 ebp
  00001	8b ec		 mov	 ebp, esp

; 183  :     // allocate _Bytes manually aligned to at least _Big_allocation_alignment
; 184  :     const size_t _Block_size = _Non_user_size + _Bytes;

  00003	8b 45 08	 mov	 eax, DWORD PTR __Bytes$[ebp]
  00006	8d 48 23	 lea	 ecx, DWORD PTR [eax+35]

; 185  :     if (_Block_size <= _Bytes) {

  00009	3b c8		 cmp	 ecx, eax
  0000b	0f 86 00 00 00
	00		 jbe	 ?_Throw_bad_array_new_length@std@@YAXXZ ; std::_Throw_bad_array_new_length

; 136  :         return ::operator new(_Bytes);

  00011	51		 push	 ecx
  00012	e8 00 00 00 00	 call	 ??2@YAPAXI@Z		; operator new

; 186  :         _Throw_bad_array_new_length(); // add overflow
; 187  :     }
; 188  : 
; 189  :     const uintptr_t _Ptr_container = reinterpret_cast<uintptr_t>(_Traits::_Allocate(_Block_size));

  00017	8b c8		 mov	 ecx, eax

; 136  :         return ::operator new(_Bytes);

  00019	83 c4 04	 add	 esp, 4

; 190  :     _STL_VERIFY(_Ptr_container != 0, "invalid argument"); // validate even in release since we're doing p[-1]

  0001c	85 c9		 test	 ecx, ecx
  0001e	74 0b		 je	 SHORT $LN9@Allocate_m

; 191  :     void* const _Ptr = reinterpret_cast<void*>((_Ptr_container + _Non_user_size) & ~(_Big_allocation_alignment - 1));

  00020	8d 41 23	 lea	 eax, DWORD PTR [ecx+35]
  00023	83 e0 e0	 and	 eax, -32		; ffffffe0H

; 192  :     static_cast<uintptr_t*>(_Ptr)[-1] = _Ptr_container;

  00026	89 48 fc	 mov	 DWORD PTR [eax-4], ecx

; 193  : 
; 194  : #ifdef _DEBUG
; 195  :     static_cast<uintptr_t*>(_Ptr)[-2] = _Big_allocation_sentinel;
; 196  : #endif // defined(_DEBUG)
; 197  :     return _Ptr;
; 198  : }

  00029	5d		 pop	 ebp
  0002a	c3		 ret	 0
$LN9@Allocate_m:

; 190  :     _STL_VERIFY(_Ptr_container != 0, "invalid argument"); // validate even in release since we're doing p[-1]

  0002b	6a 00		 push	 0
  0002d	6a 00		 push	 0
  0002f	6a 00		 push	 0
  00031	6a 00		 push	 0
  00033	6a 00		 push	 0
  00035	e8 00 00 00 00	 call	 __invoke_watson
$LN7@Allocate_m:
  0003a	cc		 int	 3
??$_Allocate_manually_vector_aligned@U_Default_allocate_traits@std@@@std@@YAPAXI@Z ENDP ; std::_Allocate_manually_vector_aligned<std::_Default_allocate_traits>
_TEXT	ENDS
; Function compile flags: /Ogtp
; File C:\Program Files\Microsoft Visual Studio\2022\Professional\VC\Tools\MSVC\14.44.35207\include\vector
;	COMDAT ?_Xlength@?$vector@KV?$allocator@K@std@@@std@@CAXXZ
_TEXT	SEGMENT
?_Xlength@?$vector@KV?$allocator@K@std@@@std@@CAXXZ PROC ; std::vector<unsigned long,std::allocator<unsigned long> >::_Xlength, COMDAT

; 2184 :         _Xlength_error("vector too long");

  00000	68 00 00 00 00	 push	 OFFSET ??_C@_0BA@FOIKENOD@vector?5too?5long@
  00005	e8 00 00 00 00	 call	 ?_Xlength_error@std@@YAXPBD@Z ; std::_Xlength_error
$LN3@Xlength:
  0000a	cc		 int	 3
?_Xlength@?$vector@KV?$allocator@K@std@@@std@@CAXXZ ENDP ; std::vector<unsigned long,std::allocator<unsigned long> >::_Xlength
_TEXT	ENDS
; Function compile flags: /Ogtp
; File C:\Program Files\Microsoft Visual Studio\2022\Professional\VC\Tools\MSVC\14.44.35207\include\vector
; File C:\Program Files\Microsoft Visual Studio\2022\Professional\VC\Tools\MSVC\14.44.35207\include\xmemory
; File C:\Program Files\Microsoft Visual Studio\2022\Professional\VC\Tools\MSVC\14.44.35207\include\vector
; File C:\Program Files\Microsoft Visual Studio\2022\Professional\VC\Tools\MSVC\14.44.35207\include\xmemory
; File C:\Program Files\Microsoft Visual Studio\2022\Professional\VC\Tools\MSVC\14.44.35207\include\vector
;	COMDAT ?_Change_array@?$vector@KV?$allocator@K@std@@@std@@AAEXQAKII@Z
_TEXT	SEGMENT
__Newvec$ = 8						; size = 4
__Newsize$ = 12						; size = 4
__Newcapacity$ = 16					; size = 4
?_Change_array@?$vector@KV?$allocator@K@std@@@std@@AAEXQAKII@Z PROC ; std::vector<unsigned long,std::allocator<unsigned long> >::_Change_array, COMDAT
; _this$ = ecx

; 2059 :         const pointer _Newvec, const size_type _Newsize, const size_type _Newcapacity) noexcept {

  00000	55		 push	 ebp
  00001	8b ec		 mov	 ebp, esp
  00003	56		 push	 esi
  00004	8b f1		 mov	 esi, ecx

; 2060 :         // orphan all iterators, discard old array, acquire new array
; 2061 :         auto& _Al         = _Getal();
; 2062 :         auto& _My_data    = _Mypair._Myval2;
; 2063 :         pointer& _Myfirst = _My_data._Myfirst;
; 2064 :         pointer& _Mylast  = _My_data._Mylast;
; 2065 :         pointer& _Myend   = _My_data._Myend;
; 2066 : 
; 2067 :         _My_data._Orphan_all();
; 2068 : 
; 2069 :         if (_Myfirst) { // destroy and deallocate old array

  00006	8b 06		 mov	 eax, DWORD PTR [esi]
  00008	85 c0		 test	 eax, eax
  0000a	74 2c		 je	 SHORT $LN10@Change_arr

; 2070 :             _STD _Destroy_range(_Myfirst, _Mylast, _Al);
; 2071 :             _ASAN_VECTOR_REMOVE;
; 2072 :             _Al.deallocate(_Myfirst, static_cast<size_type>(_Myend - _Myfirst));

  0000c	8b 4e 08	 mov	 ecx, DWORD PTR [esi+8]
  0000f	2b c8		 sub	 ecx, eax
; File C:\Program Files\Microsoft Visual Studio\2022\Professional\VC\Tools\MSVC\14.44.35207\include\xmemory

; 985  :         _STD _Deallocate<_New_alignof<_Ty>>(_Ptr, sizeof(_Ty) * _Count);

  00011	83 e1 fc	 and	 ecx, -4			; fffffffcH

; 284  :         if (_Bytes >= _Big_allocation_threshold) {

  00014	81 f9 00 10 00
	00		 cmp	 ecx, 4096		; 00001000H
  0001a	72 12		 jb	 SHORT $LN15@Change_arr

; 205  :     const uintptr_t _Ptr_container   = _Ptr_user[-1];

  0001c	8b 50 fc	 mov	 edx, DWORD PTR [eax-4]
  0001f	83 c1 23	 add	 ecx, 35			; 00000023H

; 206  : 
; 207  :     // If the following asserts, it likely means that we are performing
; 208  :     // an aligned delete on memory coming from an unaligned allocation.
; 209  :     _STL_ASSERT(_Ptr_user[-2] == _Big_allocation_sentinel, "invalid argument");
; 210  : 
; 211  :     // Extra paranoia on aligned allocation/deallocation; ensure _Ptr_container is
; 212  :     // in range [_Min_back_shift, _Non_user_size]
; 213  : #ifdef _DEBUG
; 214  :     constexpr uintptr_t _Min_back_shift = 2 * sizeof(void*);
; 215  : #else // ^^^ defined(_DEBUG) / !defined(_DEBUG) vvv
; 216  :     constexpr uintptr_t _Min_back_shift = sizeof(void*);
; 217  : #endif // ^^^ !defined(_DEBUG) ^^^
; 218  :     const uintptr_t _Back_shift = reinterpret_cast<uintptr_t>(_Ptr) - _Ptr_container;

  00022	2b c2		 sub	 eax, edx

; 219  :     _STL_VERIFY(_Back_shift >= _Min_back_shift && _Back_shift <= _Non_user_size, "invalid argument");

  00024	83 c0 fc	 add	 eax, -4			; fffffffcH
  00027	83 f8 1f	 cmp	 eax, 31			; 0000001fH
  0002a	77 28		 ja	 SHORT $LN14@Change_arr

; 220  :     _Ptr = reinterpret_cast<void*>(_Ptr_container);

  0002c	8b c2		 mov	 eax, edx
$LN15@Change_arr:

; 289  :         ::operator delete(_Ptr, _Bytes);

  0002e	51		 push	 ecx
  0002f	50		 push	 eax
  00030	e8 00 00 00 00	 call	 ??3@YAXPAXI@Z		; operator delete
  00035	83 c4 08	 add	 esp, 8
$LN10@Change_arr:
; File C:\Program Files\Microsoft Visual Studio\2022\Professional\VC\Tools\MSVC\14.44.35207\include\vector

; 2075 :         _Myfirst = _Newvec;

  00038	8b 4d 08	 mov	 ecx, DWORD PTR __Newvec$[ebp]

; 2076 :         _Mylast  = _Newvec + _Newsize;

  0003b	8b 45 0c	 mov	 eax, DWORD PTR __Newsize$[ebp]
  0003e	89 0e		 mov	 DWORD PTR [esi], ecx
  00040	8d 04 81	 lea	 eax, DWORD PTR [ecx+eax*4]
  00043	89 46 04	 mov	 DWORD PTR [esi+4], eax

; 2077 :         _Myend   = _Newvec + _Newcapacity;

  00046	8b 45 10	 mov	 eax, DWORD PTR __Newcapacity$[ebp]
  00049	8d 04 81	 lea	 eax, DWORD PTR [ecx+eax*4]
  0004c	89 46 08	 mov	 DWORD PTR [esi+8], eax
  0004f	5e		 pop	 esi

; 2079 :     }

  00050	5d		 pop	 ebp
  00051	c2 0c 00	 ret	 12			; 0000000cH
$LN14@Change_arr:
; File C:\Program Files\Microsoft Visual Studio\2022\Professional\VC\Tools\MSVC\14.44.35207\include\xmemory

; 219  :     _STL_VERIFY(_Back_shift >= _Min_back_shift && _Back_shift <= _Non_user_size, "invalid argument");

  00054	6a 00		 push	 0
  00056	6a 00		 push	 0
  00058	6a 00		 push	 0
  0005a	6a 00		 push	 0
  0005c	6a 00		 push	 0
  0005e	e8 00 00 00 00	 call	 __invoke_watson
$LN22@Change_arr:
  00063	cc		 int	 3
?_Change_array@?$vector@KV?$allocator@K@std@@@std@@AAEXQAKII@Z ENDP ; std::vector<unsigned long,std::allocator<unsigned long> >::_Change_array
_TEXT	ENDS
; Function compile flags: /Ogtp
; File C:\Program Files\Microsoft Visual Studio\2022\Professional\VC\Tools\MSVC\14.44.35207\include\vector
; File C:\Program Files\Microsoft Visual Studio\2022\Professional\VC\Tools\MSVC\14.44.35207\include\xmemory
; File C:\Program Files\Microsoft Visual Studio\2022\Professional\VC\Tools\MSVC\14.44.35207\include\vector
; File C:\Program Files\Microsoft Visual Studio\2022\Professional\VC\Tools\MSVC\14.44.35207\include\xmemory
; File C:\Program Files\Microsoft Visual Studio\2022\Professional\VC\Tools\MSVC\14.44.35207\include\vector
; File C:\Program Files\Microsoft Visual Studio\2022\Professional\VC\Tools\MSVC\14.44.35207\include\xmemory
; File C:\Program Files\Microsoft Visual Studio\2022\Professional\VC\Tools\MSVC\14.44.35207\include\vector
;	COMDAT ??1?$vector@KV?$allocator@K@std@@@std@@QAE@XZ
_TEXT	SEGMENT
??1?$vector@KV?$allocator@K@std@@@std@@QAE@XZ PROC	; std::vector<unsigned long,std::allocator<unsigned long> >::~vector<unsigned long,std::allocator<unsigned long> >, COMDAT
; _this$ = ecx

; 829  :     _CONSTEXPR20 ~vector() noexcept {

  00000	56		 push	 esi
  00001	8b f1		 mov	 esi, ecx

; 2090 :         if (_Myfirst) { // destroy and deallocate old array

  00003	8b 06		 mov	 eax, DWORD PTR [esi]
  00005	85 c0		 test	 eax, eax
  00007	74 40		 je	 SHORT $LN5@vector

; 2091 :             _STD _Destroy_range(_Myfirst, _Mylast, _Al);
; 2092 :             _ASAN_VECTOR_REMOVE;
; 2093 :             _Al.deallocate(_Myfirst, static_cast<size_type>(_Myend - _Myfirst));

  00009	8b 4e 08	 mov	 ecx, DWORD PTR [esi+8]
  0000c	2b c8		 sub	 ecx, eax
; File C:\Program Files\Microsoft Visual Studio\2022\Professional\VC\Tools\MSVC\14.44.35207\include\xmemory

; 985  :         _STD _Deallocate<_New_alignof<_Ty>>(_Ptr, sizeof(_Ty) * _Count);

  0000e	83 e1 fc	 and	 ecx, -4			; fffffffcH

; 284  :         if (_Bytes >= _Big_allocation_threshold) {

  00011	81 f9 00 10 00
	00		 cmp	 ecx, 4096		; 00001000H
  00017	72 12		 jb	 SHORT $LN18@vector

; 205  :     const uintptr_t _Ptr_container   = _Ptr_user[-1];

  00019	8b 50 fc	 mov	 edx, DWORD PTR [eax-4]
  0001c	83 c1 23	 add	 ecx, 35			; 00000023H

; 206  : 
; 207  :     // If the following asserts, it likely means that we are performing
; 208  :     // an aligned delete on memory coming from an unaligned allocation.
; 209  :     _STL_ASSERT(_Ptr_user[-2] == _Big_allocation_sentinel, "invalid argument");
; 210  : 
; 211  :     // Extra paranoia on aligned allocation/deallocation; ensure _Ptr_container is
; 212  :     // in range [_Min_back_shift, _Non_user_size]
; 213  : #ifdef _DEBUG
; 214  :     constexpr uintptr_t _Min_back_shift = 2 * sizeof(void*);
; 215  : #else // ^^^ defined(_DEBUG) / !defined(_DEBUG) vvv
; 216  :     constexpr uintptr_t _Min_back_shift = sizeof(void*);
; 217  : #endif // ^^^ !defined(_DEBUG) ^^^
; 218  :     const uintptr_t _Back_shift = reinterpret_cast<uintptr_t>(_Ptr) - _Ptr_container;

  0001f	2b c2		 sub	 eax, edx

; 219  :     _STL_VERIFY(_Back_shift >= _Min_back_shift && _Back_shift <= _Non_user_size, "invalid argument");

  00021	83 c0 fc	 add	 eax, -4			; fffffffcH
  00024	83 f8 1f	 cmp	 eax, 31			; 0000001fH
  00027	77 22		 ja	 SHORT $LN17@vector

; 220  :     _Ptr = reinterpret_cast<void*>(_Ptr_container);

  00029	8b c2		 mov	 eax, edx
$LN18@vector:

; 289  :         ::operator delete(_Ptr, _Bytes);

  0002b	51		 push	 ecx
  0002c	50		 push	 eax
  0002d	e8 00 00 00 00	 call	 ??3@YAXPAXI@Z		; operator delete
; File C:\Program Files\Microsoft Visual Studio\2022\Professional\VC\Tools\MSVC\14.44.35207\include\vector

; 2095 :             _Myfirst = nullptr;

  00032	c7 06 00 00 00
	00		 mov	 DWORD PTR [esi], 0
; File C:\Program Files\Microsoft Visual Studio\2022\Professional\VC\Tools\MSVC\14.44.35207\include\xmemory

; 289  :         ::operator delete(_Ptr, _Bytes);

  00038	83 c4 08	 add	 esp, 8
; File C:\Program Files\Microsoft Visual Studio\2022\Professional\VC\Tools\MSVC\14.44.35207\include\vector

; 2096 :             _Mylast  = nullptr;

  0003b	c7 46 04 00 00
	00 00		 mov	 DWORD PTR [esi+4], 0

; 2097 :             _Myend   = nullptr;

  00042	c7 46 08 00 00
	00 00		 mov	 DWORD PTR [esi+8], 0
$LN5@vector:
  00049	5e		 pop	 esi

; 835  :     }

  0004a	c3		 ret	 0
$LN17@vector:
; File C:\Program Files\Microsoft Visual Studio\2022\Professional\VC\Tools\MSVC\14.44.35207\include\xmemory

; 219  :     _STL_VERIFY(_Back_shift >= _Min_back_shift && _Back_shift <= _Non_user_size, "invalid argument");

  0004b	6a 00		 push	 0
  0004d	6a 00		 push	 0
  0004f	6a 00		 push	 0
  00051	6a 00		 push	 0
  00053	6a 00		 push	 0
  00055	e8 00 00 00 00	 call	 __invoke_watson
$LN26@vector:
  0005a	cc		 int	 3
??1?$vector@KV?$allocator@K@std@@@std@@QAE@XZ ENDP	; std::vector<unsigned long,std::allocator<unsigned long> >::~vector<unsigned long,std::allocator<unsigned long> >
_TEXT	ENDS
; Function compile flags: /Ogtp
; File C:\Program Files\Microsoft Visual Studio\2022\Professional\VC\Tools\MSVC\14.44.35207\include\xmemory
;	COMDAT ?_Throw_bad_array_new_length@std@@YAXXZ
_TEXT	SEGMENT
$T1 = -12						; size = 12
?_Throw_bad_array_new_length@std@@YAXXZ PROC		; std::_Throw_bad_array_new_length, COMDAT

; 107  : [[noreturn]] inline void _Throw_bad_array_new_length() {

  00000	55		 push	 ebp
  00001	8b ec		 mov	 ebp, esp
  00003	83 ec 0c	 sub	 esp, 12			; 0000000cH

; 108  :     _THROW(bad_array_new_length{});

  00006	8d 4d f4	 lea	 ecx, DWORD PTR $T1[ebp]
  00009	e8 00 00 00 00	 call	 ??0bad_array_new_length@std@@QAE@XZ ; std::bad_array_new_length::bad_array_new_length
  0000e	68 00 00 00 00	 push	 OFFSET __TI3?AVbad_array_new_length@std@@
  00013	8d 45 f4	 lea	 eax, DWORD PTR $T1[ebp]
  00016	50		 push	 eax
  00017	e8 00 00 00 00	 call	 __CxxThrowException@8
$LN3@Throw_bad_:
  0001c	cc		 int	 3
?_Throw_bad_array_new_length@std@@YAXXZ ENDP		; std::_Throw_bad_array_new_length
_TEXT	ENDS
; Function compile flags: /Ogtp
; File C:\Program Files\Microsoft Visual Studio\2022\Professional\VC\Tools\MSVC\14.44.35207\include\vcruntime_exception.h
;	COMDAT ??_Gbad_array_new_length@std@@UAEPAXI@Z
_TEXT	SEGMENT
___flags$ = 8						; size = 4
??_Gbad_array_new_length@std@@UAEPAXI@Z PROC		; std::bad_array_new_length::`scalar deleting destructor', COMDAT
; _this$ = ecx
  00000	55		 push	 ebp
  00001	8b ec		 mov	 ebp, esp

; 90   :     {

  00003	56		 push	 esi
  00004	8b f1		 mov	 esi, ecx

; 91   :         __std_exception_destroy(&_Data);

  00006	8d 46 04	 lea	 eax, DWORD PTR [esi+4]
  00009	c7 06 00 00 00
	00		 mov	 DWORD PTR [esi], OFFSET ??_7exception@std@@6B@
  0000f	50		 push	 eax
  00010	e8 00 00 00 00	 call	 ___std_exception_destroy
  00015	83 c4 04	 add	 esp, 4
  00018	f6 45 08 01	 test	 BYTE PTR ___flags$[ebp], 1
  0001c	74 0b		 je	 SHORT $LN18@scalar
  0001e	6a 0c		 push	 12			; 0000000cH
  00020	56		 push	 esi
  00021	e8 00 00 00 00	 call	 ??3@YAXPAXI@Z		; operator delete
  00026	83 c4 08	 add	 esp, 8
$LN18@scalar:
  00029	8b c6		 mov	 eax, esi
  0002b	5e		 pop	 esi
  0002c	5d		 pop	 ebp
  0002d	c2 04 00	 ret	 4
??_Gbad_array_new_length@std@@UAEPAXI@Z ENDP		; std::bad_array_new_length::`scalar deleting destructor'
_TEXT	ENDS
; Function compile flags: /Ogtp
; File C:\Program Files\Microsoft Visual Studio\2022\Professional\VC\Tools\MSVC\14.44.35207\include\vcruntime_exception.h
;	COMDAT ??0bad_array_new_length@std@@QAE@ABV01@@Z
_TEXT	SEGMENT
___that$ = 8						; size = 4
??0bad_array_new_length@std@@QAE@ABV01@@Z PROC		; std::bad_array_new_length::bad_array_new_length, COMDAT
; _this$ = ecx
  00000	55		 push	 ebp
  00001	8b ec		 mov	 ebp, esp

; 73   :     {

  00003	56		 push	 esi
  00004	8b f1		 mov	 esi, ecx
  00006	0f 57 c0	 xorps	 xmm0, xmm0

; 72   :         : _Data()

  00009	8d 46 04	 lea	 eax, DWORD PTR [esi+4]

; 74   :         __std_exception_copy(&_Other._Data, &_Data);

  0000c	50		 push	 eax
  0000d	c7 06 00 00 00
	00		 mov	 DWORD PTR [esi], OFFSET ??_7exception@std@@6B@
  00013	66 0f d6 00	 movq	 QWORD PTR [eax], xmm0
  00017	8b 45 08	 mov	 eax, DWORD PTR ___that$[ebp]
  0001a	83 c0 04	 add	 eax, 4
  0001d	50		 push	 eax
  0001e	e8 00 00 00 00	 call	 ___std_exception_copy
  00023	83 c4 08	 add	 esp, 8
  00026	c7 06 00 00 00
	00		 mov	 DWORD PTR [esi], OFFSET ??_7bad_array_new_length@std@@6B@
  0002c	8b c6		 mov	 eax, esi
  0002e	5e		 pop	 esi
  0002f	5d		 pop	 ebp
  00030	c2 04 00	 ret	 4
??0bad_array_new_length@std@@QAE@ABV01@@Z ENDP		; std::bad_array_new_length::bad_array_new_length
_TEXT	ENDS
; Function compile flags: /Ogtp
; File C:\Program Files\Microsoft Visual Studio\2022\Professional\VC\Tools\MSVC\14.44.35207\include\vcruntime_exception.h
;	COMDAT ??1bad_array_new_length@std@@UAE@XZ
_TEXT	SEGMENT
??1bad_array_new_length@std@@UAE@XZ PROC		; std::bad_array_new_length::~bad_array_new_length, COMDAT
; _this$ = ecx

; 91   :         __std_exception_destroy(&_Data);

  00000	8d 41 04	 lea	 eax, DWORD PTR [ecx+4]
  00003	c7 01 00 00 00
	00		 mov	 DWORD PTR [ecx], OFFSET ??_7exception@std@@6B@
  00009	50		 push	 eax
  0000a	e8 00 00 00 00	 call	 ___std_exception_destroy
  0000f	59		 pop	 ecx
  00010	c3		 ret	 0
??1bad_array_new_length@std@@UAE@XZ ENDP		; std::bad_array_new_length::~bad_array_new_length
_TEXT	ENDS
; Function compile flags: /Ogtp
; File C:\Program Files\Microsoft Visual Studio\2022\Professional\VC\Tools\MSVC\14.44.35207\include\vcruntime_exception.h
;	COMDAT ??0bad_array_new_length@std@@QAE@XZ
_TEXT	SEGMENT
??0bad_array_new_length@std@@QAE@XZ PROC		; std::bad_array_new_length::bad_array_new_length, COMDAT
; _this$ = ecx

; 144  :     {

  00000	0f 57 c0	 xorps	 xmm0, xmm0

; 145  :     }

  00003	8b c1		 mov	 eax, ecx

; 66   :         : _Data()

  00005	66 0f d6 41 04	 movq	 QWORD PTR [ecx+4], xmm0

; 67   :     {
; 68   :         _Data._What = _Message;

  0000a	c7 41 04 00 00
	00 00		 mov	 DWORD PTR [ecx+4], OFFSET ??_C@_0BF@KINCDENJ@bad?5array?5new?5length@

; 144  :     {

  00011	c7 01 00 00 00
	00		 mov	 DWORD PTR [ecx], OFFSET ??_7bad_array_new_length@std@@6B@

; 145  :     }

  00017	c3		 ret	 0
??0bad_array_new_length@std@@QAE@XZ ENDP		; std::bad_array_new_length::bad_array_new_length
_TEXT	ENDS
; Function compile flags: /Ogtp
; File C:\Program Files\Microsoft Visual Studio\2022\Professional\VC\Tools\MSVC\14.44.35207\include\vcruntime_exception.h
;	COMDAT ??_Gbad_alloc@std@@UAEPAXI@Z
_TEXT	SEGMENT
___flags$ = 8						; size = 4
??_Gbad_alloc@std@@UAEPAXI@Z PROC			; std::bad_alloc::`scalar deleting destructor', COMDAT
; _this$ = ecx
  00000	55		 push	 ebp
  00001	8b ec		 mov	 ebp, esp

; 90   :     {

  00003	56		 push	 esi
  00004	8b f1		 mov	 esi, ecx

; 91   :         __std_exception_destroy(&_Data);

  00006	8d 46 04	 lea	 eax, DWORD PTR [esi+4]
  00009	c7 06 00 00 00
	00		 mov	 DWORD PTR [esi], OFFSET ??_7exception@std@@6B@
  0000f	50		 push	 eax
  00010	e8 00 00 00 00	 call	 ___std_exception_destroy
  00015	83 c4 04	 add	 esp, 4
  00018	f6 45 08 01	 test	 BYTE PTR ___flags$[ebp], 1
  0001c	74 0b		 je	 SHORT $LN13@scalar
  0001e	6a 0c		 push	 12			; 0000000cH
  00020	56		 push	 esi
  00021	e8 00 00 00 00	 call	 ??3@YAXPAXI@Z		; operator delete
  00026	83 c4 08	 add	 esp, 8
$LN13@scalar:
  00029	8b c6		 mov	 eax, esi
  0002b	5e		 pop	 esi
  0002c	5d		 pop	 ebp
  0002d	c2 04 00	 ret	 4
??_Gbad_alloc@std@@UAEPAXI@Z ENDP			; std::bad_alloc::`scalar deleting destructor'
_TEXT	ENDS
; Function compile flags: /Ogtp
; File C:\Program Files\Microsoft Visual Studio\2022\Professional\VC\Tools\MSVC\14.44.35207\include\vcruntime_exception.h
;	COMDAT ??0bad_alloc@std@@QAE@ABV01@@Z
_TEXT	SEGMENT
___that$ = 8						; size = 4
??0bad_alloc@std@@QAE@ABV01@@Z PROC			; std::bad_alloc::bad_alloc, COMDAT
; _this$ = ecx
  00000	55		 push	 ebp
  00001	8b ec		 mov	 ebp, esp

; 73   :     {

  00003	56		 push	 esi
  00004	8b f1		 mov	 esi, ecx
  00006	0f 57 c0	 xorps	 xmm0, xmm0

; 72   :         : _Data()

  00009	8d 46 04	 lea	 eax, DWORD PTR [esi+4]

; 74   :         __std_exception_copy(&_Other._Data, &_Data);

  0000c	50		 push	 eax
  0000d	c7 06 00 00 00
	00		 mov	 DWORD PTR [esi], OFFSET ??_7exception@std@@6B@
  00013	66 0f d6 00	 movq	 QWORD PTR [eax], xmm0
  00017	8b 45 08	 mov	 eax, DWORD PTR ___that$[ebp]
  0001a	83 c0 04	 add	 eax, 4
  0001d	50		 push	 eax
  0001e	e8 00 00 00 00	 call	 ___std_exception_copy
  00023	83 c4 08	 add	 esp, 8
  00026	c7 06 00 00 00
	00		 mov	 DWORD PTR [esi], OFFSET ??_7bad_alloc@std@@6B@
  0002c	8b c6		 mov	 eax, esi
  0002e	5e		 pop	 esi
  0002f	5d		 pop	 ebp
  00030	c2 04 00	 ret	 4
??0bad_alloc@std@@QAE@ABV01@@Z ENDP			; std::bad_alloc::bad_alloc
_TEXT	ENDS
; Function compile flags: /Ogtp
; File C:\Program Files\Microsoft Visual Studio\2022\Professional\VC\Tools\MSVC\14.44.35207\include\vcruntime_exception.h
;	COMDAT ??_Gexception@std@@UAEPAXI@Z
_TEXT	SEGMENT
___flags$ = 8						; size = 4
??_Gexception@std@@UAEPAXI@Z PROC			; std::exception::`scalar deleting destructor', COMDAT
; _this$ = ecx
  00000	55		 push	 ebp
  00001	8b ec		 mov	 ebp, esp

; 90   :     {

  00003	56		 push	 esi
  00004	8b f1		 mov	 esi, ecx

; 91   :         __std_exception_destroy(&_Data);

  00006	8d 46 04	 lea	 eax, DWORD PTR [esi+4]
  00009	c7 06 00 00 00
	00		 mov	 DWORD PTR [esi], OFFSET ??_7exception@std@@6B@
  0000f	50		 push	 eax
  00010	e8 00 00 00 00	 call	 ___std_exception_destroy
  00015	83 c4 04	 add	 esp, 4
  00018	f6 45 08 01	 test	 BYTE PTR ___flags$[ebp], 1
  0001c	74 0b		 je	 SHORT $LN8@scalar
  0001e	6a 0c		 push	 12			; 0000000cH
  00020	56		 push	 esi
  00021	e8 00 00 00 00	 call	 ??3@YAXPAXI@Z		; operator delete
  00026	83 c4 08	 add	 esp, 8
$LN8@scalar:
  00029	8b c6		 mov	 eax, esi
  0002b	5e		 pop	 esi
  0002c	5d		 pop	 ebp
  0002d	c2 04 00	 ret	 4
??_Gexception@std@@UAEPAXI@Z ENDP			; std::exception::`scalar deleting destructor'
_TEXT	ENDS
; Function compile flags: /Ogtp
; File C:\Program Files\Microsoft Visual Studio\2022\Professional\VC\Tools\MSVC\14.44.35207\include\vcruntime_exception.h
;	COMDAT ?what@exception@std@@UBEPBDXZ
_TEXT	SEGMENT
?what@exception@std@@UBEPBDXZ PROC			; std::exception::what, COMDAT
; _this$ = ecx

; 96   :         return _Data._What ? _Data._What : "Unknown exception";

  00000	8b 49 04	 mov	 ecx, DWORD PTR [ecx+4]
  00003	b8 00 00 00 00	 mov	 eax, OFFSET ??_C@_0BC@EOODALEL@Unknown?5exception@
  00008	85 c9		 test	 ecx, ecx
  0000a	0f 45 c1	 cmovne	 eax, ecx

; 97   :     }

  0000d	c3		 ret	 0
?what@exception@std@@UBEPBDXZ ENDP			; std::exception::what
_TEXT	ENDS
; Function compile flags: /Ogtp
; File C:\Program Files\Microsoft Visual Studio\2022\Professional\VC\Tools\MSVC\14.44.35207\include\vcruntime_exception.h
;	COMDAT ??1exception@std@@UAE@XZ
_TEXT	SEGMENT
??1exception@std@@UAE@XZ PROC				; std::exception::~exception, COMDAT
; _this$ = ecx

; 91   :         __std_exception_destroy(&_Data);

  00000	8d 41 04	 lea	 eax, DWORD PTR [ecx+4]
  00003	c7 01 00 00 00
	00		 mov	 DWORD PTR [ecx], OFFSET ??_7exception@std@@6B@
  00009	50		 push	 eax
  0000a	e8 00 00 00 00	 call	 ___std_exception_destroy
  0000f	59		 pop	 ecx

; 92   :     }

  00010	c3		 ret	 0
??1exception@std@@UAE@XZ ENDP				; std::exception::~exception
_TEXT	ENDS
; Function compile flags: /Ogtp
; File C:\Program Files\Microsoft Visual Studio\2022\Professional\VC\Tools\MSVC\14.44.35207\include\vcruntime_exception.h
;	COMDAT ??0exception@std@@QAE@ABV01@@Z
_TEXT	SEGMENT
__Other$ = 8						; size = 4
??0exception@std@@QAE@ABV01@@Z PROC			; std::exception::exception, COMDAT
; _this$ = ecx

; 73   :     {

  00000	55		 push	 ebp
  00001	8b ec		 mov	 ebp, esp
  00003	56		 push	 esi
  00004	8b f1		 mov	 esi, ecx
  00006	0f 57 c0	 xorps	 xmm0, xmm0
  00009	8d 46 04	 lea	 eax, DWORD PTR [esi+4]

; 74   :         __std_exception_copy(&_Other._Data, &_Data);

  0000c	50		 push	 eax
  0000d	c7 06 00 00 00
	00		 mov	 DWORD PTR [esi], OFFSET ??_7exception@std@@6B@
  00013	66 0f d6 00	 movq	 QWORD PTR [eax], xmm0
  00017	8b 45 08	 mov	 eax, DWORD PTR __Other$[ebp]
  0001a	83 c0 04	 add	 eax, 4
  0001d	50		 push	 eax
  0001e	e8 00 00 00 00	 call	 ___std_exception_copy
  00023	83 c4 08	 add	 esp, 8

; 75   :     }

  00026	8b c6		 mov	 eax, esi
  00028	5e		 pop	 esi
  00029	5d		 pop	 ebp
  0002a	c2 04 00	 ret	 4
??0exception@std@@QAE@ABV01@@Z ENDP			; std::exception::exception
_TEXT	ENDS
; Function compile flags: /Ogtp
; File C:\Program Files (x86)\Windows Kits\10\Include\10.0.26100.0\ucrt\stdio.h
;	COMDAT _sprintf
_TEXT	SEGMENT
__Buffer$ = 8						; size = 4
__Format$ = 12						; size = 4
_sprintf PROC						; COMDAT

; 1771 :     {

  00000	55		 push	 ebp
  00001	8b ec		 mov	 ebp, esp

; 1392 :         int const _Result = __stdio_common_vsprintf(

  00003	8d 45 10	 lea	 eax, DWORD PTR __Format$[ebp+4]
  00006	50		 push	 eax
  00007	6a 00		 push	 0
  00009	ff 75 0c	 push	 DWORD PTR __Format$[ebp]
  0000c	6a ff		 push	 -1
  0000e	ff 75 08	 push	 DWORD PTR __Buffer$[ebp]
  00011	e8 00 00 00 00	 call	 ___local_stdio_printf_options
  00016	8b 08		 mov	 ecx, DWORD PTR [eax]
  00018	ff 70 04	 push	 DWORD PTR [eax+4]
  0001b	83 c9 01	 or	 ecx, 1
  0001e	51		 push	 ecx
  0001f	e8 00 00 00 00	 call	 ___stdio_common_vsprintf

; 1393 :             _CRT_INTERNAL_LOCAL_PRINTF_OPTIONS | _CRT_INTERNAL_PRINTF_LEGACY_VSPRINTF_NULL_TERMINATION,
; 1394 :             _Buffer, _BufferCount, _Format, _Locale, _ArgList);
; 1395 : 
; 1396 :         return _Result < 0 ? -1 : _Result;

  00024	83 c9 ff	 or	 ecx, -1
  00027	83 c4 1c	 add	 esp, 28			; 0000001cH
  0002a	85 c0		 test	 eax, eax
  0002c	0f 48 c1	 cmovs	 eax, ecx

; 1772 :         int _Result;
; 1773 :         va_list _ArgList;
; 1774 :         __crt_va_start(_ArgList, _Format);
; 1775 : 
; 1776 :         _Result = _vsprintf_l(_Buffer, _Format, NULL, _ArgList);
; 1777 : 
; 1778 :         __crt_va_end(_ArgList);
; 1779 :         return _Result;
; 1780 :     }

  0002f	5d		 pop	 ebp
  00030	c3		 ret	 0
_sprintf ENDP
_TEXT	ENDS
; Function compile flags: /Ogtp
; File C:\Program Files (x86)\Windows Kits\10\Include\10.0.26100.0\ucrt\corecrt_stdio_config.h
;	COMDAT ___local_stdio_printf_options
_TEXT	SEGMENT
___local_stdio_printf_options PROC			; COMDAT

; 91   :         static unsigned __int64 _OptionsStorage;
; 92   :         return &_OptionsStorage;

  00000	b8 00 00 00 00	 mov	 eax, OFFSET ?_OptionsStorage@?1??__local_stdio_printf_options@@9@4_KA ; `__local_stdio_printf_options'::`2'::_OptionsStorage

; 93   :     }

  00005	c3		 ret	 0
___local_stdio_printf_options ENDP
_TEXT	ENDS
; Function compile flags: /Ogtp
; File C:\IAGOS\server\v18\Source\Source\DatabaseServer\SecretRoomDBMng.cpp
;	COMDAT ?__empty_global_delete@@YAXPAXI@Z
_TEXT	SEGMENT
___formal$ = 8						; size = 4
___formal$ = 12						; size = 4
?__empty_global_delete@@YAXPAXI@Z PROC			; __empty_global_delete, COMDAT

  00000	c2 00 00	 ret	 0
?__empty_global_delete@@YAXPAXI@Z ENDP			; __empty_global_delete
_TEXT	ENDS
; Function compile flags: /Ogtp
; File C:\IAGOS\server\v18\Source\Source\DatabaseServer\SecretRoomDBMng.cpp
;	COMDAT ?__empty_global_delete@@YAXPAX@Z
_TEXT	SEGMENT
___formal$ = 8						; size = 4
?__empty_global_delete@@YAXPAX@Z PROC			; __empty_global_delete, COMDAT

  00000	c2 00 00	 ret	 0
?__empty_global_delete@@YAXPAX@Z ENDP			; __empty_global_delete
_TEXT	ENDS
END
