; Listing generated by Microsoft (R) Optimizing Compiler Version 19.44.35225.0 

	TITLE	C:\IAGOS\server\v18\Source\Output\DatabaseServer\Release\serialnumber.obj
	.686P
	.XMM
	include listing.inc
	.model	flat

INCLUDELIB LIBCMT
INCLUDELIB OLDNAMES

PUBLIC	?__empty_global_delete@@YAXPAX@Z		; __empty_global_delete
PUBLIC	?__empty_global_delete@@YAXPAXI@Z		; __empty_global_delete
PUBLIC	??1CSerialNumber@@UAE@XZ			; CSerialNumber::~CSerialNumber
PUBLIC	?Init@CSerialNumber@@QAEXHH@Z			; CSerialNumber::Init
PUBLIC	?Get@CSerialNumber@@QAEKXZ			; CSerialNumber::Get
PUBLIC	?GetInstance@CSerialNumber@@SAPAV1@XZ		; CSerialNumber::GetInstance
PUBLIC	??_GCSerialNumber@@UAEPAXI@Z			; CSerialNumber::`scalar deleting destructor'
PUBLIC	??_7CSerialNumber@@6B@				; CSerialNumber::`vftable'
PUBLIC	??_R4CSerialNumber@@6B@				; CSerialNumber::`RTTI Complete Object Locator'
PUBLIC	??_R0?AVCSerialNumber@@@8			; CSerialNumber `RTTI Type Descriptor'
PUBLIC	??_R3CSerialNumber@@8				; CSerialNumber::`RTTI Class Hierarchy Descriptor'
PUBLIC	??_R2CSerialNumber@@8				; CSerialNumber::`RTTI Base Class Array'
PUBLIC	??_R1A@?0A@EA@CSerialNumber@@8			; CSerialNumber::`RTTI Base Class Descriptor at (0,-1,0,64)'
EXTRN	??3@YAXPAXI@Z:PROC				; operator delete
EXTRN	_atexit:PROC
EXTRN	__Init_thread_header:PROC
EXTRN	__Init_thread_footer:PROC
EXTRN	??_ECSerialNumber@@UAEPAXI@Z:PROC		; CSerialNumber::`vector deleting destructor'
EXTRN	__Init_thread_epoch:DWORD
EXTRN	??_7type_info@@6B@:QWORD			; type_info::`vftable'
EXTRN	?g_next@@3KA:DWORD				; g_next
EXTRN	__tls_array:DWORD
EXTRN	__tls_index:DWORD
;	COMDAT ?$TSS0@?1??GetInstance@CSerialNumber@@SAPAV2@XZ@4HA
_BSS	SEGMENT
?$TSS0@?1??GetInstance@CSerialNumber@@SAPAV2@XZ@4HA DD 01H DUP (?) ; `CSerialNumber::GetInstance'::`2'::$TSS0
_BSS	ENDS
;	COMDAT ??_R1A@?0A@EA@CSerialNumber@@8
rdata$r	SEGMENT
??_R1A@?0A@EA@CSerialNumber@@8 DD FLAT:??_R0?AVCSerialNumber@@@8 ; CSerialNumber::`RTTI Base Class Descriptor at (0,-1,0,64)'
	DD	00H
	DD	00H
	DD	0ffffffffH
	DD	00H
	DD	040H
	DD	FLAT:??_R3CSerialNumber@@8
rdata$r	ENDS
;	COMDAT ??_R2CSerialNumber@@8
rdata$r	SEGMENT
??_R2CSerialNumber@@8 DD FLAT:??_R1A@?0A@EA@CSerialNumber@@8 ; CSerialNumber::`RTTI Base Class Array'
rdata$r	ENDS
;	COMDAT ??_R3CSerialNumber@@8
rdata$r	SEGMENT
??_R3CSerialNumber@@8 DD 00H				; CSerialNumber::`RTTI Class Hierarchy Descriptor'
	DD	00H
	DD	01H
	DD	FLAT:??_R2CSerialNumber@@8
rdata$r	ENDS
;	COMDAT ??_R0?AVCSerialNumber@@@8
data$rs	SEGMENT
??_R0?AVCSerialNumber@@@8 DD FLAT:??_7type_info@@6B@	; CSerialNumber `RTTI Type Descriptor'
	DD	00H
	DB	'.?AVCSerialNumber@@', 00H
data$rs	ENDS
;	COMDAT ??_R4CSerialNumber@@6B@
rdata$r	SEGMENT
??_R4CSerialNumber@@6B@ DD 00H				; CSerialNumber::`RTTI Complete Object Locator'
	DD	00H
	DD	00H
	DD	FLAT:??_R0?AVCSerialNumber@@@8
	DD	FLAT:??_R3CSerialNumber@@8
rdata$r	ENDS
;	COMDAT ?sSerialNumber@?1??GetInstance@CSerialNumber@@SAPAV2@XZ@4V2@A
_DATA	SEGMENT
?sSerialNumber@?1??GetInstance@CSerialNumber@@SAPAV2@XZ@4V2@A DD FLAT:??_7CSerialNumber@@6B@ ; `CSerialNumber::GetInstance'::`2'::sSerialNumber
	DD	00H
_DATA	ENDS
;	COMDAT ??_7CSerialNumber@@6B@
CONST	SEGMENT
??_7CSerialNumber@@6B@ DD FLAT:??_R4CSerialNumber@@6B@	; CSerialNumber::`vftable'
	DD	FLAT:??_ECSerialNumber@@UAEPAXI@Z
CONST	ENDS
; Function compile flags: /Ogtp
;	COMDAT ??__FsSerialNumber@?1??GetInstance@CSerialNumber@@SAPAV1@XZ@YAXXZ
text$yd	SEGMENT
??__FsSerialNumber@?1??GetInstance@CSerialNumber@@SAPAV1@XZ@YAXXZ PROC ; `CSerialNumber::GetInstance'::`2'::`dynamic atexit destructor for 'sSerialNumber'', COMDAT
  00000	c7 05 00 00 00
	00 00 00 00 00	 mov	 DWORD PTR ?sSerialNumber@?1??GetInstance@CSerialNumber@@SAPAV2@XZ@4V2@A, OFFSET ??_7CSerialNumber@@6B@
  0000a	c3		 ret	 0
??__FsSerialNumber@?1??GetInstance@CSerialNumber@@SAPAV1@XZ@YAXXZ ENDP ; `CSerialNumber::GetInstance'::`2'::`dynamic atexit destructor for 'sSerialNumber''
text$yd	ENDS
; Function compile flags: /Ogtp
;	COMDAT ??_GCSerialNumber@@UAEPAXI@Z
_TEXT	SEGMENT
___flags$ = 8						; size = 4
??_GCSerialNumber@@UAEPAXI@Z PROC			; CSerialNumber::`scalar deleting destructor', COMDAT
; _this$ = ecx
  00000	55		 push	 ebp
  00001	8b ec		 mov	 ebp, esp
  00003	f6 45 08 01	 test	 BYTE PTR ___flags$[ebp], 1
  00007	56		 push	 esi
  00008	8b f1		 mov	 esi, ecx
  0000a	c7 06 00 00 00
	00		 mov	 DWORD PTR [esi], OFFSET ??_7CSerialNumber@@6B@
  00010	74 0b		 je	 SHORT $LN5@scalar
  00012	6a 08		 push	 8
  00014	56		 push	 esi
  00015	e8 00 00 00 00	 call	 ??3@YAXPAXI@Z		; operator delete
  0001a	83 c4 08	 add	 esp, 8
$LN5@scalar:
  0001d	8b c6		 mov	 eax, esi
  0001f	5e		 pop	 esi
  00020	5d		 pop	 ebp
  00021	c2 04 00	 ret	 4
??_GCSerialNumber@@UAEPAXI@Z ENDP			; CSerialNumber::`scalar deleting destructor'
_TEXT	ENDS
; Function compile flags: /Ogtp
; File C:\IAGOS\server\v18\Source\Source\_Common\serialnumber.cpp
;	COMDAT ?GetInstance@CSerialNumber@@SAPAV1@XZ
_TEXT	SEGMENT
?GetInstance@CSerialNumber@@SAPAV1@XZ PROC		; CSerialNumber::GetInstance, COMDAT

; 6    : 	static	CSerialNumber	sSerialNumber;

  00000	64 a1 00 00 00
	00		 mov	 eax, DWORD PTR fs:__tls_array
  00006	8b 0d 00 00 00
	00		 mov	 ecx, DWORD PTR __tls_index
  0000c	8b 0c 88	 mov	 ecx, DWORD PTR [eax+ecx*4]
  0000f	a1 00 00 00 00	 mov	 eax, DWORD PTR ?$TSS0@?1??GetInstance@CSerialNumber@@SAPAV2@XZ@4HA
  00014	3b 81 00 00 00
	00		 cmp	 eax, DWORD PTR __Init_thread_epoch[ecx]
  0001a	7f 06		 jg	 SHORT $LN10@GetInstanc
$LN7@GetInstanc:

; 7    : 	return &sSerialNumber;
; 8    : }

  0001c	b8 00 00 00 00	 mov	 eax, OFFSET ?sSerialNumber@?1??GetInstance@CSerialNumber@@SAPAV2@XZ@4V2@A
  00021	c3		 ret	 0
$LN10@GetInstanc:

; 6    : 	static	CSerialNumber	sSerialNumber;

  00022	68 00 00 00 00	 push	 OFFSET ?$TSS0@?1??GetInstance@CSerialNumber@@SAPAV2@XZ@4HA
  00027	e8 00 00 00 00	 call	 __Init_thread_header
  0002c	83 c4 04	 add	 esp, 4
  0002f	83 3d 00 00 00
	00 ff		 cmp	 DWORD PTR ?$TSS0@?1??GetInstance@CSerialNumber@@SAPAV2@XZ@4HA, -1
  00036	75 e4		 jne	 SHORT $LN7@GetInstanc
  00038	68 00 00 00 00	 push	 OFFSET ??__FsSerialNumber@?1??GetInstance@CSerialNumber@@SAPAV1@XZ@YAXXZ ; `CSerialNumber::GetInstance'::`2'::`dynamic atexit destructor for 'sSerialNumber''
  0003d	e8 00 00 00 00	 call	 _atexit
  00042	68 00 00 00 00	 push	 OFFSET ?$TSS0@?1??GetInstance@CSerialNumber@@SAPAV2@XZ@4HA
  00047	e8 00 00 00 00	 call	 __Init_thread_footer
  0004c	83 c4 08	 add	 esp, 8
  0004f	eb cb		 jmp	 SHORT $LN7@GetInstanc
?GetInstance@CSerialNumber@@SAPAV1@XZ ENDP		; CSerialNumber::GetInstance
_TEXT	ENDS
; Function compile flags: /Ogtp
; File C:\IAGOS\server\v18\Source\Source\_Common\serialnumber.cpp
; File C:\IAGOS\server\v18\Source\Source\_Common\xutil.h
; File C:\IAGOS\server\v18\Source\Source\_Common\serialnumber.cpp
;	COMDAT ?Get@CSerialNumber@@QAEKXZ
_TEXT	SEGMENT
?Get@CSerialNumber@@QAEKXZ PROC				; CSerialNumber::Get, COMDAT
; _this$ = ecx
; File C:\IAGOS\server\v18\Source\Source\_Common\xutil.h

; 16   : 	g_next = g_next * 1103515245 + 12345;// + nRandomSeed[ i++ ];

  00000	69 05 00 00 00
	00 6d 4e c6 41	 imul	 eax, DWORD PTR ?g_next@@3KA, 1103515245 ; g_next
  0000a	05 39 30 00 00	 add	 eax, 12345		; 00003039H
  0000f	a3 00 00 00 00	 mov	 DWORD PTR ?g_next@@3KA, eax ; g_next
; File C:\IAGOS\server\v18\Source\Source\_Common\serialnumber.cpp

; 19   : }

  00014	c3		 ret	 0
?Get@CSerialNumber@@QAEKXZ ENDP				; CSerialNumber::Get
_TEXT	ENDS
; Function compile flags: /Ogtp
; File C:\IAGOS\server\v18\Source\Source\_Common\serialnumber.cpp
;	COMDAT ?Init@CSerialNumber@@QAEXHH@Z
_TEXT	SEGMENT
_nServer$ = 8						; size = 4
_nMulti$ = 12						; size = 4
?Init@CSerialNumber@@QAEXHH@Z PROC			; CSerialNumber::Init, COMDAT
; _this$ = ecx

; 11   : {

  00000	55		 push	 ebp
  00001	8b ec		 mov	 ebp, esp

; 12   : 	m_lLowPart	= ( ( nServer << 28 ) & 0xf0000000 ) 

  00003	8b 55 08	 mov	 edx, DWORD PTR _nServer$[ebp]
  00006	8b 45 0c	 mov	 eax, DWORD PTR _nMulti$[ebp]
  00009	c1 e2 04	 shl	 edx, 4
  0000c	83 e0 0f	 and	 eax, 15			; 0000000fH
  0000f	0b d0		 or	 edx, eax
  00011	c1 e2 18	 shl	 edx, 24			; 00000018H
  00014	89 51 04	 mov	 DWORD PTR [ecx+4], edx

; 13   : 							| ( ( nMulti << 24 ) & 0x0f000000 );
; 14   : }

  00017	5d		 pop	 ebp
  00018	c2 08 00	 ret	 8
?Init@CSerialNumber@@QAEXHH@Z ENDP			; CSerialNumber::Init
_TEXT	ENDS
; Function compile flags: /Ogtp
; File C:\IAGOS\server\v18\Source\Source\_Common\serialnumber.h
;	COMDAT ??1CSerialNumber@@UAE@XZ
_TEXT	SEGMENT
??1CSerialNumber@@UAE@XZ PROC				; CSerialNumber::~CSerialNumber, COMDAT
; _this$ = ecx

; 11   : 	virtual	~CSerialNumber()	{}

  00000	c7 01 00 00 00
	00		 mov	 DWORD PTR [ecx], OFFSET ??_7CSerialNumber@@6B@
  00006	c3		 ret	 0
??1CSerialNumber@@UAE@XZ ENDP				; CSerialNumber::~CSerialNumber
_TEXT	ENDS
; Function compile flags: /Ogtp
; File C:\IAGOS\server\v18\Source\Source\_Common\serialnumber.cpp
;	COMDAT ?__empty_global_delete@@YAXPAXI@Z
_TEXT	SEGMENT
___formal$ = 8						; size = 4
___formal$ = 12						; size = 4
?__empty_global_delete@@YAXPAXI@Z PROC			; __empty_global_delete, COMDAT

  00000	c2 00 00	 ret	 0
?__empty_global_delete@@YAXPAXI@Z ENDP			; __empty_global_delete
_TEXT	ENDS
; Function compile flags: /Ogtp
; File C:\IAGOS\server\v18\Source\Source\_Common\serialnumber.cpp
;	COMDAT ?__empty_global_delete@@YAXPAX@Z
_TEXT	SEGMENT
___formal$ = 8						; size = 4
?__empty_global_delete@@YAXPAX@Z PROC			; __empty_global_delete, COMDAT

  00000	c2 00 00	 ret	 0
?__empty_global_delete@@YAXPAX@Z ENDP			; __empty_global_delete
_TEXT	ENDS
END
