; Listing generated by Microsoft (R) Optimizing Compiler Version 19.44.35225.0 

	TITLE	C:\IAGOS\server\v18\Source\Output\DatabaseServer\Release\spevent.obj
	.686P
	.XMM
	include listing.inc
	.model	flat

INCLUDELIB LIBCMT
INCLUDELIB OLDNAMES

PUBLIC	?__empty_global_delete@@YAXPAX@Z		; __empty_global_delete
PUBLIC	?__empty_global_delete@@YAXPAXI@Z		; __empty_global_delete
PUBLIC	___local_stdio_printf_options
PUBLIC	_sprintf
PUBLIC	?AfxCrtErrorCheck@@YAHH@Z			; AfxCrtErrorCheck
PUBLIC	?AtlThrowImpl@ATL@@YGXJ@Z			; ATL::AtlThrowImpl
PUBLIC	??1?$CSimpleStringT@D$0A@@ATL@@QAE@XZ		; ATL::CSimpleStringT<char,0>::~CSimpleStringT<char,0>
PUBLIC	?SetString@?$CSimpleStringT@D$0A@@ATL@@QAEXPBDH@Z ; ATL::CSimpleStringT<char,0>::SetString
PUBLIC	?ThrowMemoryException@?$CSimpleStringT@D$0A@@ATL@@KAXXZ ; ATL::CSimpleStringT<char,0>::ThrowMemoryException
PUBLIC	?Fork@?$CSimpleStringT@D$0A@@ATL@@AAEXH@Z	; ATL::CSimpleStringT<char,0>::Fork
PUBLIC	?PrepareWrite2@?$CSimpleStringT@D$0A@@ATL@@AAEXH@Z ; ATL::CSimpleStringT<char,0>::PrepareWrite2
PUBLIC	?Reallocate@?$CSimpleStringT@D$0A@@ATL@@AAEXH@Z	; ATL::CSimpleStringT<char,0>::Reallocate
PUBLIC	??1?$CStringT@DV?$StrTraitMFC@DV?$ChTraitsCRT@D@ATL@@@@@ATL@@QAE@XZ ; ATL::CStringT<char,StrTraitMFC<char,ATL::ChTraitsCRT<char> > >::~CStringT<char,StrTraitMFC<char,ATL::ChTraitsCRT<char> > >
PUBLIC	?LoadStringA@?$CStringT@DV?$StrTraitMFC@DV?$ChTraitsCRT@D@ATL@@@@@ATL@@QAEHI@Z ; ATL::CStringT<char,StrTraitMFC<char,ATL::ChTraitsCRT<char> > >::LoadStringA
PUBLIC	??0exception@std@@QAE@ABV01@@Z			; std::exception::exception
PUBLIC	??1exception@std@@UAE@XZ			; std::exception::~exception
PUBLIC	?what@exception@std@@UBEPBDXZ			; std::exception::what
PUBLIC	??_Gexception@std@@UAEPAXI@Z			; std::exception::`scalar deleting destructor'
PUBLIC	??0bad_alloc@std@@QAE@ABV01@@Z			; std::bad_alloc::bad_alloc
PUBLIC	??_Gbad_alloc@std@@UAEPAXI@Z			; std::bad_alloc::`scalar deleting destructor'
PUBLIC	??0bad_array_new_length@std@@QAE@XZ		; std::bad_array_new_length::bad_array_new_length
PUBLIC	??1bad_array_new_length@std@@UAE@XZ		; std::bad_array_new_length::~bad_array_new_length
PUBLIC	??0bad_array_new_length@std@@QAE@ABV01@@Z	; std::bad_array_new_length::bad_array_new_length
PUBLIC	??_Gbad_array_new_length@std@@UAEPAXI@Z		; std::bad_array_new_length::`scalar deleting destructor'
PUBLIC	?_Throw_bad_array_new_length@std@@YAXXZ		; std::_Throw_bad_array_new_length
PUBLIC	?_Throw_tree_length_error@std@@YAXXZ		; std::_Throw_tree_length_error
PUBLIC	??$_Allocate_manually_vector_aligned@U_Default_allocate_traits@std@@@std@@YAPAXI@Z ; std::_Allocate_manually_vector_aligned<std::_Default_allocate_traits>
PUBLIC	??1CSPEvent@@UAE@XZ				; CSPEvent::~CSPEvent
PUBLIC	??_GCSPEvent@@UAEPAXI@Z				; CSPEvent::`scalar deleting destructor'
PUBLIC	??0CXMasEvent@@QAE@XZ				; CXMasEvent::CXMasEvent
PUBLIC	??1CXMasEvent@@UAE@XZ				; CXMasEvent::~CXMasEvent
PUBLIC	?LoadScript@CXMasEvent@@QAEHPBD@Z		; CXMasEvent::LoadScript
PUBLIC	?IsTimeout@CXMasEvent@@QAEHH@Z			; CXMasEvent::IsTimeout
PUBLIC	?Skip@CXMasEvent@@QAEXJ@Z			; CXMasEvent::Skip
PUBLIC	?GetInstance@CXMasEvent@@SAPAV1@XZ		; CXMasEvent::GetInstance
PUBLIC	??_GCXMasEvent@@UAEPAXI@Z			; CXMasEvent::`scalar deleting destructor'
PUBLIC	??0CEventItem@@QAE@XZ				; CEventItem::CEventItem
PUBLIC	??0CEventItem@@QAE@KHH@Z			; CEventItem::CEventItem
PUBLIC	??1CEventItem@@UAE@XZ				; CEventItem::~CEventItem
PUBLIC	?IsTimeout@CEventItem@@QAEHH@Z			; CEventItem::IsTimeout
PUBLIC	?Skip@CEventItem@@QAEXJ@Z			; CEventItem::Skip
PUBLIC	?Serialize@CEventItem@@QAEXAAVCAr@@@Z		; CEventItem::Serialize
PUBLIC	??_GCEventItem@@UAEPAXI@Z			; CEventItem::`scalar deleting destructor'
PUBLIC	??1?$list@PAU_EVENT_GENERIC@@V?$allocator@PAU_EVENT_GENERIC@@@std@@@std@@QAE@XZ ; std::list<_EVENT_GENERIC *,std::allocator<_EVENT_GENERIC *> >::~list<_EVENT_GENERIC *,std::allocator<_EVENT_GENERIC *> >
PUBLIC	??1?$_Tree@V?$_Tmap_traits@HPAV?$list@PAVCEventItem@@V?$allocator@PAVCEventItem@@@std@@@std@@U?$less@H@2@V?$allocator@U?$pair@$$CBHPAV?$list@PAVCEventItem@@V?$allocator@PAVCEventItem@@@std@@@std@@@std@@@2@$0A@@std@@@std@@QAE@XZ ; std::_Tree<std::_Tmap_traits<int,std::list<CEventItem *,std::allocator<CEventItem *> > *,std::less<int>,std::allocator<std::pair<int const ,std::list<CEventItem *,std::allocator<CEventItem *> > *> >,0> >::~_Tree<std::_Tmap_traits<int,std::list<CEventItem *,std::allocator<CEventItem *> > *,std::less<int>,std::allocator<std::pair<int const ,std::list<CEventItem *,std::allocator<CEventItem *> > *> >,0> >
PUBLIC	?_Insert_node@?$_Tree_val@U?$_Tree_simple_types@U?$pair@$$CBHPAV?$list@PAVCEventItem@@V?$allocator@PAVCEventItem@@@std@@@std@@@std@@@std@@@std@@QAEPAU?$_Tree_node@U?$pair@$$CBHPAV?$list@PAVCEventItem@@V?$allocator@PAVCEventItem@@@std@@@std@@@std@@PAX@2@U?$_Tree_id@PAU?$_Tree_node@U?$pair@$$CBHPAV?$list@PAVCEventItem@@V?$allocator@PAVCEventItem@@@std@@@std@@@std@@PAX@std@@@2@QAU32@@Z ; std::_Tree_val<std::_Tree_simple_types<std::pair<int const ,std::list<CEventItem *,std::allocator<CEventItem *> > *> > >::_Insert_node
PUBLIC	??0CEventGeneric@@QAE@XZ			; CEventGeneric::CEventGeneric
PUBLIC	??1CEventGeneric@@UAE@XZ			; CEventGeneric::~CEventGeneric
PUBLIC	?Clear@CEventGeneric@@QAEXH@Z			; CEventGeneric::Clear
PUBLIC	?LoadScript@CEventGeneric@@QAEHPBD@Z		; CEventGeneric::LoadScript
PUBLIC	?AddItem@CEventGeneric@@QAEHHKHH@Z		; CEventGeneric::AddItem
PUBLIC	?GetInstance@CEventGeneric@@SAPAV1@XZ		; CEventGeneric::GetInstance
PUBLIC	?Serialize@CEventGeneric@@QAEXAAVCAr@@@Z	; CEventGeneric::Serialize
PUBLIC	?Run@CEventGeneric@@QAEHXZ			; CEventGeneric::Run
PUBLIC	?GetEvent@CEventGeneric@@QAEPAU_EVENT_GENERIC@@H@Z ; CEventGeneric::GetEvent
PUBLIC	??_GCEventGeneric@@UAEPAXI@Z			; CEventGeneric::`scalar deleting destructor'
PUBLIC	??$?6K@CAr@@QAEAAV0@ABK@Z			; CAr::operator<<<unsigned long>
PUBLIC	??$?6H@CAr@@QAEAAV0@ABH@Z			; CAr::operator<<<int>
PUBLIC	??$?5K@CAr@@QAEAAV0@AAK@Z			; CAr::operator>><unsigned long>
PUBLIC	??$?5H@CAr@@QAEAAV0@AAH@Z			; CAr::operator>><int>
PUBLIC	?push_back@?$list@PAVCEventItem@@V?$allocator@PAVCEventItem@@@std@@@std@@QAEXABQAVCEventItem@@@Z ; std::list<CEventItem *,std::allocator<CEventItem *> >::push_back
PUBLIC	??$insert@$0A@$0A@@?$_Tree@V?$_Tmap_traits@HPAV?$list@PAVCEventItem@@V?$allocator@PAVCEventItem@@@std@@@std@@U?$less@H@2@V?$allocator@U?$pair@$$CBHPAV?$list@PAVCEventItem@@V?$allocator@PAVCEventItem@@@std@@@std@@@std@@@2@$0A@@std@@@std@@QAE?AU?$pair@V?$_Tree_iterator@V?$_Tree_val@U?$_Tree_simple_types@U?$pair@$$CBHPAV?$list@PAVCEventItem@@V?$allocator@PAVCEventItem@@@std@@@std@@@std@@@std@@@std@@@std@@_N@1@$$QAU?$pair@$$CBHPAV?$list@PAVCEventItem@@V?$allocator@PAVCEventItem@@@std@@@std@@@1@@Z ; std::_Tree<std::_Tmap_traits<int,std::list<CEventItem *,std::allocator<CEventItem *> > *,std::less<int>,std::allocator<std::pair<int const ,std::list<CEventItem *,std::allocator<CEventItem *> > *> >,0> >::insert<0,0>
PUBLIC	??$_Erase_tree@V?$allocator@U?$_Tree_node@U?$pair@$$CBHPAV?$list@PAVCEventItem@@V?$allocator@PAVCEventItem@@@std@@@std@@@std@@PAX@std@@@std@@@?$_Tree_val@U?$_Tree_simple_types@U?$pair@$$CBHPAV?$list@PAVCEventItem@@V?$allocator@PAVCEventItem@@@std@@@std@@@std@@@std@@@std@@QAEXAAV?$allocator@U?$_Tree_node@U?$pair@$$CBHPAV?$list@PAVCEventItem@@V?$allocator@PAVCEventItem@@@std@@@std@@@std@@PAX@std@@@1@PAU?$_Tree_node@U?$pair@$$CBHPAV?$list@PAVCEventItem@@V?$allocator@PAVCEventItem@@@std@@@std@@@std@@PAX@1@@Z ; std::_Tree_val<std::_Tree_simple_types<std::pair<int const ,std::list<CEventItem *,std::allocator<CEventItem *> > *> > >::_Erase_tree<std::allocator<std::_Tree_node<std::pair<int const ,std::list<CEventItem *,std::allocator<CEventItem *> > *>,void *> > >
PUBLIC	??$_Find_lower_bound@H@?$_Tree@V?$_Tmap_traits@HPAV?$list@PAVCEventItem@@V?$allocator@PAVCEventItem@@@std@@@std@@U?$less@H@2@V?$allocator@U?$pair@$$CBHPAV?$list@PAVCEventItem@@V?$allocator@PAVCEventItem@@@std@@@std@@@std@@@2@$0A@@std@@@std@@IBE?AU?$_Tree_find_result@PAU?$_Tree_node@U?$pair@$$CBHPAV?$list@PAVCEventItem@@V?$allocator@PAVCEventItem@@@std@@@std@@@std@@PAX@std@@@1@ABH@Z ; std::_Tree<std::_Tmap_traits<int,std::list<CEventItem *,std::allocator<CEventItem *> > *,std::less<int>,std::allocator<std::pair<int const ,std::list<CEventItem *,std::allocator<CEventItem *> > *> >,0> >::_Find_lower_bound<int>
PUBLIC	??1?$_Alloc_construct_ptr@V?$allocator@U?$_Tree_node@U?$pair@$$CBHPAV?$list@PAVCEventItem@@V?$allocator@PAVCEventItem@@@std@@@std@@@std@@PAX@std@@@std@@@std@@QAE@XZ ; std::_Alloc_construct_ptr<std::allocator<std::_Tree_node<std::pair<int const ,std::list<CEventItem *,std::allocator<CEventItem *> > *>,void *> > >::~_Alloc_construct_ptr<std::allocator<std::_Tree_node<std::pair<int const ,std::list<CEventItem *,std::allocator<CEventItem *> > *>,void *> > >
PUBLIC	??1?$_Alloc_construct_ptr@V?$allocator@U?$_List_node@PAVCEventItem@@PAX@std@@@std@@@std@@QAE@XZ ; std::_Alloc_construct_ptr<std::allocator<std::_List_node<CEventItem *,void *> > >::~_Alloc_construct_ptr<std::allocator<std::_List_node<CEventItem *,void *> > >
PUBLIC	??1?$_Alloc_construct_ptr@V?$allocator@U?$_List_node@PAU_EVENT_GENERIC@@PAX@std@@@std@@@std@@QAE@XZ ; std::_Alloc_construct_ptr<std::allocator<std::_List_node<_EVENT_GENERIC *,void *> > >::~_Alloc_construct_ptr<std::allocator<std::_List_node<_EVENT_GENERIC *,void *> > >
PUBLIC	?_OptionsStorage@?1??__local_stdio_printf_options@@9@4_KA ; `__local_stdio_printf_options'::`2'::_OptionsStorage
PUBLIC	??_7exception@std@@6B@				; std::exception::`vftable'
PUBLIC	??_C@_0BC@EOODALEL@Unknown?5exception@		; `string'
PUBLIC	??_7bad_alloc@std@@6B@				; std::bad_alloc::`vftable'
PUBLIC	??_7bad_array_new_length@std@@6B@		; std::bad_array_new_length::`vftable'
PUBLIC	??_C@_0BF@KINCDENJ@bad?5array?5new?5length@	; `string'
PUBLIC	??_R0?AVexception@std@@@8			; std::exception `RTTI Type Descriptor'
PUBLIC	__CT??_R0?AVexception@std@@@8??0exception@std@@QAE@ABV01@@Z12
PUBLIC	__TI3?AVbad_array_new_length@std@@
PUBLIC	__CTA3?AVbad_array_new_length@std@@
PUBLIC	??_R0?AVbad_array_new_length@std@@@8		; std::bad_array_new_length `RTTI Type Descriptor'
PUBLIC	__CT??_R0?AVbad_array_new_length@std@@@8??0bad_array_new_length@std@@QAE@ABV01@@Z12
PUBLIC	??_R0?AVbad_alloc@std@@@8			; std::bad_alloc `RTTI Type Descriptor'
PUBLIC	__CT??_R0?AVbad_alloc@std@@@8??0bad_alloc@std@@QAE@ABV01@@Z12
PUBLIC	??_C@_0BB@GCADKGJO@map?1set?5too?5long@		; `string'
PUBLIC	??_C@_0O@NKNMEGII@list?5too?5long@		; `string'
PUBLIC	??_R4exception@std@@6B@				; std::exception::`RTTI Complete Object Locator'
PUBLIC	??_R3exception@std@@8				; std::exception::`RTTI Class Hierarchy Descriptor'
PUBLIC	??_R2exception@std@@8				; std::exception::`RTTI Base Class Array'
PUBLIC	??_R1A@?0A@EA@exception@std@@8			; std::exception::`RTTI Base Class Descriptor at (0,-1,0,64)'
PUBLIC	??_R4bad_array_new_length@std@@6B@		; std::bad_array_new_length::`RTTI Complete Object Locator'
PUBLIC	??_R3bad_array_new_length@std@@8		; std::bad_array_new_length::`RTTI Class Hierarchy Descriptor'
PUBLIC	??_R2bad_array_new_length@std@@8		; std::bad_array_new_length::`RTTI Base Class Array'
PUBLIC	??_R1A@?0A@EA@bad_array_new_length@std@@8	; std::bad_array_new_length::`RTTI Base Class Descriptor at (0,-1,0,64)'
PUBLIC	??_R1A@?0A@EA@bad_alloc@std@@8			; std::bad_alloc::`RTTI Base Class Descriptor at (0,-1,0,64)'
PUBLIC	??_R3bad_alloc@std@@8				; std::bad_alloc::`RTTI Class Hierarchy Descriptor'
PUBLIC	??_R2bad_alloc@std@@8				; std::bad_alloc::`RTTI Base Class Array'
PUBLIC	??_R4bad_alloc@std@@6B@				; std::bad_alloc::`RTTI Complete Object Locator'
PUBLIC	??_7CSPEvent@@6B@				; CSPEvent::`vftable'
PUBLIC	??_7CXMasEvent@@6B@				; CXMasEvent::`vftable'
PUBLIC	??_7CEventItem@@6B@				; CEventItem::`vftable'
PUBLIC	??_7CEventGeneric@@6B@				; CEventGeneric::`vftable'
PUBLIC	??_C@_05GCNIINAF@Event@				; `string'
PUBLIC	??_C@_05PABKJLOM@Title@				; `string'
PUBLIC	??_C@_01BJJEKLCA@?$CC@				; `string'
PUBLIC	??_C@_04OKOFBOPB@Time@				; `string'
PUBLIC	??_C@_04BGCMBJDA@Item@				; `string'
PUBLIC	??_C@_0L@DDJPBPFC@fExpFactor@			; `string'
PUBLIC	??_C@_0O@NDHJHAFN@fItemDropRate@		; `string'
PUBLIC	??_C@_05BEKPGMFA@Spawn@				; `string'
PUBLIC	??_C@_0DM@PNNFMCGB@m_dwFlag?$DN0x?$CF08x?0?5nId?$DN?$CFd?0?5tStart@ ; `string'
PUBLIC	??_R4CSPEvent@@6B@				; CSPEvent::`RTTI Complete Object Locator'
PUBLIC	??_R0?AVCSPEvent@@@8				; CSPEvent `RTTI Type Descriptor'
PUBLIC	??_R3CSPEvent@@8				; CSPEvent::`RTTI Class Hierarchy Descriptor'
PUBLIC	??_R2CSPEvent@@8				; CSPEvent::`RTTI Base Class Array'
PUBLIC	??_R1A@?0A@EA@CSPEvent@@8			; CSPEvent::`RTTI Base Class Descriptor at (0,-1,0,64)'
PUBLIC	??_R4CXMasEvent@@6B@				; CXMasEvent::`RTTI Complete Object Locator'
PUBLIC	??_R0?AVCXMasEvent@@@8				; CXMasEvent `RTTI Type Descriptor'
PUBLIC	??_R3CXMasEvent@@8				; CXMasEvent::`RTTI Class Hierarchy Descriptor'
PUBLIC	??_R2CXMasEvent@@8				; CXMasEvent::`RTTI Base Class Array'
PUBLIC	??_R1A@?0A@EA@CXMasEvent@@8			; CXMasEvent::`RTTI Base Class Descriptor at (0,-1,0,64)'
PUBLIC	??_R4CEventItem@@6B@				; CEventItem::`RTTI Complete Object Locator'
PUBLIC	??_R0?AVCEventItem@@@8				; CEventItem `RTTI Type Descriptor'
PUBLIC	??_R3CEventItem@@8				; CEventItem::`RTTI Class Hierarchy Descriptor'
PUBLIC	??_R2CEventItem@@8				; CEventItem::`RTTI Base Class Array'
PUBLIC	??_R1A@?0A@EA@CEventItem@@8			; CEventItem::`RTTI Base Class Descriptor at (0,-1,0,64)'
PUBLIC	??_R4CEventGeneric@@6B@				; CEventGeneric::`RTTI Complete Object Locator'
PUBLIC	??_R0?AVCEventGeneric@@@8			; CEventGeneric `RTTI Type Descriptor'
PUBLIC	??_R3CEventGeneric@@8				; CEventGeneric::`RTTI Class Hierarchy Descriptor'
PUBLIC	??_R2CEventGeneric@@8				; CEventGeneric::`RTTI Base Class Array'
PUBLIC	??_R1A@?0A@EA@CEventGeneric@@8			; CEventGeneric::`RTTI Base Class Descriptor at (0,-1,0,64)'
PUBLIC	__real@4a5bba00
EXTRN	??2@YAPAXI@Z:PROC				; operator new
EXTRN	??3@YAXPAXI@Z:PROC				; operator delete
EXTRN	_atexit:PROC
EXTRN	__Init_thread_header:PROC
EXTRN	__Init_thread_abort:PROC
EXTRN	__Init_thread_footer:PROC
EXTRN	__invalid_parameter_noinfo:PROC
EXTRN	__invoke_watson:PROC
EXTRN	__errno:PROC
EXTRN	__imp__OutputDebugStringA@4:PROC
EXTRN	__imp__GetTickCount@0:PROC
EXTRN	__imp__LoadResource@8:PROC
EXTRN	__imp__LockResource@4:PROC
EXTRN	__imp__SizeofResource@8:PROC
EXTRN	__imp__FindResourceW@12:PROC
EXTRN	__imp__lstrcpyA@8:PROC
EXTRN	__imp__WideCharToMultiByte@32:PROC
EXTRN	__mbscmp:PROC
EXTRN	__mbsstr:PROC
EXTRN	___stdio_common_vsprintf:PROC
EXTRN	__mktime64:PROC
EXTRN	__time32:PROC
EXTRN	?AfxThrowMemoryException@@YGXXZ:PROC		; AfxThrowMemoryException
EXTRN	?AfxThrowInvalidArgException@@YGXXZ:PROC	; AfxThrowInvalidArgException
EXTRN	?AfxThrowOleException@@YGXJ@Z:PROC		; AfxThrowOleException
EXTRN	?AfxFindStringResourceHandle@@YGPAUHINSTANCE__@@I@Z:PROC ; AfxFindStringResourceHandle
EXTRN	?AfxGetStringManager@@YGPAUIAtlStringMgr@ATL@@XZ:PROC ; AfxGetStringManager
EXTRN	?_Xlength_error@std@@YAXPBD@Z:PROC		; std::_Xlength_error
EXTRN	___std_exception_copy:PROC
EXTRN	___std_exception_destroy:PROC
EXTRN	??_Eexception@std@@UAEPAXI@Z:PROC		; std::exception::`vector deleting destructor'
EXTRN	??_Ebad_alloc@std@@UAEPAXI@Z:PROC		; std::bad_alloc::`vector deleting destructor'
EXTRN	??_Ebad_array_new_length@std@@UAEPAXI@Z:PROC	; std::bad_array_new_length::`vector deleting destructor'
EXTRN	?GetLanguage@@YAHXZ:PROC			; GetLanguage
EXTRN	?GetNumber@CScanner@@QAEHH@Z:PROC		; CScanner::GetNumber
EXTRN	?GetFloat@CScanner@@QAEMH@Z:PROC		; CScanner::GetFloat
EXTRN	??0CScript@@QAE@H@Z:PROC			; CScript::CScript
EXTRN	??1CScript@@UAE@XZ:PROC				; CScript::~CScript
EXTRN	?Load@CScript@@QAEHPBDHH@Z:PROC			; CScript::Load
EXTRN	?GetToken@CScript@@UAEHH@Z:PROC			; CScript::GetToken
EXTRN	?GetLastFull@CScript@@QAEXXZ:PROC		; CScript::GetLastFull
EXTRN	?Read@CAr@@QAEXPAXI@Z:PROC			; CAr::Read
EXTRN	?Write@CAr@@QAEXPBXI@Z:PROC			; CAr::Write
EXTRN	?CheckBuf@CAr@@QAEXI@Z:PROC			; CAr::CheckBuf
EXTRN	??_ECSPEvent@@UAEPAXI@Z:PROC			; CSPEvent::`vector deleting destructor'
EXTRN	??_ECXMasEvent@@UAEPAXI@Z:PROC			; CXMasEvent::`vector deleting destructor'
EXTRN	??_ECEventItem@@UAEPAXI@Z:PROC			; CEventItem::`vector deleting destructor'
EXTRN	??_ECEventGeneric@@UAEPAXI@Z:PROC		; CEventGeneric::`vector deleting destructor'
EXTRN	@__security_check_cookie@4:PROC
EXTRN	__CxxThrowException@8:PROC
EXTRN	___CxxFrameHandler3:PROC
EXTRN	__chkstk:PROC
EXTRN	__ftol3:PROC
EXTRN	_memcpy:PROC
EXTRN	_memmove:PROC
EXTRN	_memset:PROC
EXTRN	__Init_thread_epoch:DWORD
EXTRN	??_7type_info@@6B@:QWORD			; type_info::`vftable'
EXTRN	___security_cookie:DWORD
EXTRN	__fltused:DWORD
EXTRN	__tls_array:DWORD
EXTRN	__tls_index:DWORD
;	COMDAT ?_OptionsStorage@?1??__local_stdio_printf_options@@9@4_KA
_BSS	SEGMENT
?_OptionsStorage@?1??__local_stdio_printf_options@@9@4_KA DQ 01H DUP (?) ; `__local_stdio_printf_options'::`2'::_OptionsStorage
_BSS	ENDS
;	COMDAT ?sXMasEvent@?1??GetInstance@CXMasEvent@@SAPAV2@XZ@4V2@A
_BSS	SEGMENT
?sXMasEvent@?1??GetInstance@CXMasEvent@@SAPAV2@XZ@4V2@A DB 06cH DUP (?) ; `CXMasEvent::GetInstance'::`2'::sXMasEvent
_BSS	ENDS
;	COMDAT ?$TSS0@?1??GetInstance@CXMasEvent@@SAPAV2@XZ@4HA
_BSS	SEGMENT
?$TSS0@?1??GetInstance@CXMasEvent@@SAPAV2@XZ@4HA DD 01H DUP (?) ; `CXMasEvent::GetInstance'::`2'::$TSS0
_BSS	ENDS
;	COMDAT ?sEventGeneric@?1??GetInstance@CEventGeneric@@SAPAV2@XZ@4V2@A
_BSS	SEGMENT
?sEventGeneric@?1??GetInstance@CEventGeneric@@SAPAV2@XZ@4V2@A DB 018H DUP (?) ; `CEventGeneric::GetInstance'::`2'::sEventGeneric
_BSS	ENDS
;	COMDAT ?$TSS0@?1??GetInstance@CEventGeneric@@SAPAV2@XZ@4HA
_BSS	SEGMENT
?$TSS0@?1??GetInstance@CEventGeneric@@SAPAV2@XZ@4HA DD 01H DUP (?) ; `CEventGeneric::GetInstance'::`2'::$TSS0
_BSS	ENDS
;	COMDAT __real@4a5bba00
CONST	SEGMENT
__real@4a5bba00 DD 04a5bba00r			; 3.6e+06
CONST	ENDS
;	COMDAT ??_R1A@?0A@EA@CEventGeneric@@8
rdata$r	SEGMENT
??_R1A@?0A@EA@CEventGeneric@@8 DD FLAT:??_R0?AVCEventGeneric@@@8 ; CEventGeneric::`RTTI Base Class Descriptor at (0,-1,0,64)'
	DD	00H
	DD	00H
	DD	0ffffffffH
	DD	00H
	DD	040H
	DD	FLAT:??_R3CEventGeneric@@8
rdata$r	ENDS
;	COMDAT ??_R2CEventGeneric@@8
rdata$r	SEGMENT
??_R2CEventGeneric@@8 DD FLAT:??_R1A@?0A@EA@CEventGeneric@@8 ; CEventGeneric::`RTTI Base Class Array'
rdata$r	ENDS
;	COMDAT ??_R3CEventGeneric@@8
rdata$r	SEGMENT
??_R3CEventGeneric@@8 DD 00H				; CEventGeneric::`RTTI Class Hierarchy Descriptor'
	DD	00H
	DD	01H
	DD	FLAT:??_R2CEventGeneric@@8
rdata$r	ENDS
;	COMDAT ??_R0?AVCEventGeneric@@@8
data$rs	SEGMENT
??_R0?AVCEventGeneric@@@8 DD FLAT:??_7type_info@@6B@	; CEventGeneric `RTTI Type Descriptor'
	DD	00H
	DB	'.?AVCEventGeneric@@', 00H
data$rs	ENDS
;	COMDAT ??_R4CEventGeneric@@6B@
rdata$r	SEGMENT
??_R4CEventGeneric@@6B@ DD 00H				; CEventGeneric::`RTTI Complete Object Locator'
	DD	00H
	DD	00H
	DD	FLAT:??_R0?AVCEventGeneric@@@8
	DD	FLAT:??_R3CEventGeneric@@8
rdata$r	ENDS
;	COMDAT ??_R1A@?0A@EA@CEventItem@@8
rdata$r	SEGMENT
??_R1A@?0A@EA@CEventItem@@8 DD FLAT:??_R0?AVCEventItem@@@8 ; CEventItem::`RTTI Base Class Descriptor at (0,-1,0,64)'
	DD	00H
	DD	00H
	DD	0ffffffffH
	DD	00H
	DD	040H
	DD	FLAT:??_R3CEventItem@@8
rdata$r	ENDS
;	COMDAT ??_R2CEventItem@@8
rdata$r	SEGMENT
??_R2CEventItem@@8 DD FLAT:??_R1A@?0A@EA@CEventItem@@8	; CEventItem::`RTTI Base Class Array'
rdata$r	ENDS
;	COMDAT ??_R3CEventItem@@8
rdata$r	SEGMENT
??_R3CEventItem@@8 DD 00H				; CEventItem::`RTTI Class Hierarchy Descriptor'
	DD	00H
	DD	01H
	DD	FLAT:??_R2CEventItem@@8
rdata$r	ENDS
;	COMDAT ??_R0?AVCEventItem@@@8
data$rs	SEGMENT
??_R0?AVCEventItem@@@8 DD FLAT:??_7type_info@@6B@	; CEventItem `RTTI Type Descriptor'
	DD	00H
	DB	'.?AVCEventItem@@', 00H
data$rs	ENDS
;	COMDAT ??_R4CEventItem@@6B@
rdata$r	SEGMENT
??_R4CEventItem@@6B@ DD 00H				; CEventItem::`RTTI Complete Object Locator'
	DD	00H
	DD	00H
	DD	FLAT:??_R0?AVCEventItem@@@8
	DD	FLAT:??_R3CEventItem@@8
rdata$r	ENDS
;	COMDAT ??_R1A@?0A@EA@CXMasEvent@@8
rdata$r	SEGMENT
??_R1A@?0A@EA@CXMasEvent@@8 DD FLAT:??_R0?AVCXMasEvent@@@8 ; CXMasEvent::`RTTI Base Class Descriptor at (0,-1,0,64)'
	DD	01H
	DD	00H
	DD	0ffffffffH
	DD	00H
	DD	040H
	DD	FLAT:??_R3CXMasEvent@@8
rdata$r	ENDS
;	COMDAT ??_R2CXMasEvent@@8
rdata$r	SEGMENT
??_R2CXMasEvent@@8 DD FLAT:??_R1A@?0A@EA@CXMasEvent@@8	; CXMasEvent::`RTTI Base Class Array'
	DD	FLAT:??_R1A@?0A@EA@CSPEvent@@8
rdata$r	ENDS
;	COMDAT ??_R3CXMasEvent@@8
rdata$r	SEGMENT
??_R3CXMasEvent@@8 DD 00H				; CXMasEvent::`RTTI Class Hierarchy Descriptor'
	DD	00H
	DD	02H
	DD	FLAT:??_R2CXMasEvent@@8
rdata$r	ENDS
;	COMDAT ??_R0?AVCXMasEvent@@@8
data$rs	SEGMENT
??_R0?AVCXMasEvent@@@8 DD FLAT:??_7type_info@@6B@	; CXMasEvent `RTTI Type Descriptor'
	DD	00H
	DB	'.?AVCXMasEvent@@', 00H
data$rs	ENDS
;	COMDAT ??_R4CXMasEvent@@6B@
rdata$r	SEGMENT
??_R4CXMasEvent@@6B@ DD 00H				; CXMasEvent::`RTTI Complete Object Locator'
	DD	00H
	DD	00H
	DD	FLAT:??_R0?AVCXMasEvent@@@8
	DD	FLAT:??_R3CXMasEvent@@8
rdata$r	ENDS
;	COMDAT ??_R1A@?0A@EA@CSPEvent@@8
rdata$r	SEGMENT
??_R1A@?0A@EA@CSPEvent@@8 DD FLAT:??_R0?AVCSPEvent@@@8	; CSPEvent::`RTTI Base Class Descriptor at (0,-1,0,64)'
	DD	00H
	DD	00H
	DD	0ffffffffH
	DD	00H
	DD	040H
	DD	FLAT:??_R3CSPEvent@@8
rdata$r	ENDS
;	COMDAT ??_R2CSPEvent@@8
rdata$r	SEGMENT
??_R2CSPEvent@@8 DD FLAT:??_R1A@?0A@EA@CSPEvent@@8	; CSPEvent::`RTTI Base Class Array'
rdata$r	ENDS
;	COMDAT ??_R3CSPEvent@@8
rdata$r	SEGMENT
??_R3CSPEvent@@8 DD 00H					; CSPEvent::`RTTI Class Hierarchy Descriptor'
	DD	00H
	DD	01H
	DD	FLAT:??_R2CSPEvent@@8
rdata$r	ENDS
;	COMDAT ??_R0?AVCSPEvent@@@8
data$rs	SEGMENT
??_R0?AVCSPEvent@@@8 DD FLAT:??_7type_info@@6B@		; CSPEvent `RTTI Type Descriptor'
	DD	00H
	DB	'.?AVCSPEvent@@', 00H
data$rs	ENDS
;	COMDAT ??_R4CSPEvent@@6B@
rdata$r	SEGMENT
??_R4CSPEvent@@6B@ DD 00H				; CSPEvent::`RTTI Complete Object Locator'
	DD	00H
	DD	00H
	DD	FLAT:??_R0?AVCSPEvent@@@8
	DD	FLAT:??_R3CSPEvent@@8
rdata$r	ENDS
;	COMDAT ??_C@_0DM@PNNFMCGB@m_dwFlag?$DN0x?$CF08x?0?5nId?$DN?$CFd?0?5tStart@
CONST	SEGMENT
??_C@_0DM@PNNFMCGB@m_dwFlag?$DN0x?$CF08x?0?5nId?$DN?$CFd?0?5tStart@ DB 'm'
	DB	'_dwFlag=0x%08x, nId=%d, tStart=%d, tEnd=%d, t=%d, nFlag=%d', 00H ; `string'
CONST	ENDS
;	COMDAT ??_C@_05BEKPGMFA@Spawn@
CONST	SEGMENT
??_C@_05BEKPGMFA@Spawn@ DB 'Spawn', 00H			; `string'
CONST	ENDS
;	COMDAT ??_C@_0O@NDHJHAFN@fItemDropRate@
CONST	SEGMENT
??_C@_0O@NDHJHAFN@fItemDropRate@ DB 'fItemDropRate', 00H ; `string'
CONST	ENDS
;	COMDAT ??_C@_0L@DDJPBPFC@fExpFactor@
CONST	SEGMENT
??_C@_0L@DDJPBPFC@fExpFactor@ DB 'fExpFactor', 00H	; `string'
CONST	ENDS
;	COMDAT ??_C@_04BGCMBJDA@Item@
CONST	SEGMENT
??_C@_04BGCMBJDA@Item@ DB 'Item', 00H			; `string'
CONST	ENDS
;	COMDAT ??_C@_04OKOFBOPB@Time@
CONST	SEGMENT
??_C@_04OKOFBOPB@Time@ DB 'Time', 00H			; `string'
CONST	ENDS
;	COMDAT ??_C@_01BJJEKLCA@?$CC@
CONST	SEGMENT
??_C@_01BJJEKLCA@?$CC@ DB '"', 00H			; `string'
CONST	ENDS
;	COMDAT ??_C@_05PABKJLOM@Title@
CONST	SEGMENT
??_C@_05PABKJLOM@Title@ DB 'Title', 00H			; `string'
CONST	ENDS
;	COMDAT ??_C@_05GCNIINAF@Event@
CONST	SEGMENT
??_C@_05GCNIINAF@Event@ DB 'Event', 00H			; `string'
CONST	ENDS
;	COMDAT ?s_anHour@?1???0CEventItem@@QAE@KHH@Z@4PAHA
_DATA	SEGMENT
?s_anHour@?1???0CEventItem@@QAE@KHH@Z@4PAHA DD 01f9H	; `CEventItem::CEventItem'::`2'::s_anHour
	DD	0199H
	DD	0144H
	DD	0118H
	DD	0dcH
	DD	0cbH
	DD	0caH
	DD	0d4H
	DD	0e3H
	DD	0105H
	DD	012eH
	DD	015dH
	DD	023bH
	DD	02bdH
	DD	02fcH
	DD	0323H
	DD	0316H
	DD	0315H
	DD	02f2H
	DD	0351H
	DD	03a8H
	DD	03acH
	DD	0397H
	DD	02d0H
_DATA	ENDS
;	COMDAT ??_7CEventGeneric@@6B@
CONST	SEGMENT
??_7CEventGeneric@@6B@ DD FLAT:??_R4CEventGeneric@@6B@	; CEventGeneric::`vftable'
	DD	FLAT:??_ECEventGeneric@@UAEPAXI@Z
CONST	ENDS
;	COMDAT ??_7CEventItem@@6B@
CONST	SEGMENT
??_7CEventItem@@6B@ DD FLAT:??_R4CEventItem@@6B@	; CEventItem::`vftable'
	DD	FLAT:??_ECEventItem@@UAEPAXI@Z
CONST	ENDS
;	COMDAT ??_7CXMasEvent@@6B@
CONST	SEGMENT
??_7CXMasEvent@@6B@ DD FLAT:??_R4CXMasEvent@@6B@	; CXMasEvent::`vftable'
	DD	FLAT:??_ECXMasEvent@@UAEPAXI@Z
CONST	ENDS
;	COMDAT ??_7CSPEvent@@6B@
CONST	SEGMENT
??_7CSPEvent@@6B@ DD FLAT:??_R4CSPEvent@@6B@		; CSPEvent::`vftable'
	DD	FLAT:??_ECSPEvent@@UAEPAXI@Z
CONST	ENDS
;	COMDAT ??_R4bad_alloc@std@@6B@
rdata$r	SEGMENT
??_R4bad_alloc@std@@6B@ DD 00H				; std::bad_alloc::`RTTI Complete Object Locator'
	DD	00H
	DD	00H
	DD	FLAT:??_R0?AVbad_alloc@std@@@8
	DD	FLAT:??_R3bad_alloc@std@@8
rdata$r	ENDS
;	COMDAT ??_R2bad_alloc@std@@8
rdata$r	SEGMENT
??_R2bad_alloc@std@@8 DD FLAT:??_R1A@?0A@EA@bad_alloc@std@@8 ; std::bad_alloc::`RTTI Base Class Array'
	DD	FLAT:??_R1A@?0A@EA@exception@std@@8
rdata$r	ENDS
;	COMDAT ??_R3bad_alloc@std@@8
rdata$r	SEGMENT
??_R3bad_alloc@std@@8 DD 00H				; std::bad_alloc::`RTTI Class Hierarchy Descriptor'
	DD	00H
	DD	02H
	DD	FLAT:??_R2bad_alloc@std@@8
rdata$r	ENDS
;	COMDAT ??_R1A@?0A@EA@bad_alloc@std@@8
rdata$r	SEGMENT
??_R1A@?0A@EA@bad_alloc@std@@8 DD FLAT:??_R0?AVbad_alloc@std@@@8 ; std::bad_alloc::`RTTI Base Class Descriptor at (0,-1,0,64)'
	DD	01H
	DD	00H
	DD	0ffffffffH
	DD	00H
	DD	040H
	DD	FLAT:??_R3bad_alloc@std@@8
rdata$r	ENDS
;	COMDAT ??_R1A@?0A@EA@bad_array_new_length@std@@8
rdata$r	SEGMENT
??_R1A@?0A@EA@bad_array_new_length@std@@8 DD FLAT:??_R0?AVbad_array_new_length@std@@@8 ; std::bad_array_new_length::`RTTI Base Class Descriptor at (0,-1,0,64)'
	DD	02H
	DD	00H
	DD	0ffffffffH
	DD	00H
	DD	040H
	DD	FLAT:??_R3bad_array_new_length@std@@8
rdata$r	ENDS
;	COMDAT ??_R2bad_array_new_length@std@@8
rdata$r	SEGMENT
??_R2bad_array_new_length@std@@8 DD FLAT:??_R1A@?0A@EA@bad_array_new_length@std@@8 ; std::bad_array_new_length::`RTTI Base Class Array'
	DD	FLAT:??_R1A@?0A@EA@bad_alloc@std@@8
	DD	FLAT:??_R1A@?0A@EA@exception@std@@8
rdata$r	ENDS
;	COMDAT ??_R3bad_array_new_length@std@@8
rdata$r	SEGMENT
??_R3bad_array_new_length@std@@8 DD 00H			; std::bad_array_new_length::`RTTI Class Hierarchy Descriptor'
	DD	00H
	DD	03H
	DD	FLAT:??_R2bad_array_new_length@std@@8
rdata$r	ENDS
;	COMDAT ??_R4bad_array_new_length@std@@6B@
rdata$r	SEGMENT
??_R4bad_array_new_length@std@@6B@ DD 00H		; std::bad_array_new_length::`RTTI Complete Object Locator'
	DD	00H
	DD	00H
	DD	FLAT:??_R0?AVbad_array_new_length@std@@@8
	DD	FLAT:??_R3bad_array_new_length@std@@8
rdata$r	ENDS
;	COMDAT ??_R1A@?0A@EA@exception@std@@8
rdata$r	SEGMENT
??_R1A@?0A@EA@exception@std@@8 DD FLAT:??_R0?AVexception@std@@@8 ; std::exception::`RTTI Base Class Descriptor at (0,-1,0,64)'
	DD	00H
	DD	00H
	DD	0ffffffffH
	DD	00H
	DD	040H
	DD	FLAT:??_R3exception@std@@8
rdata$r	ENDS
;	COMDAT ??_R2exception@std@@8
rdata$r	SEGMENT
??_R2exception@std@@8 DD FLAT:??_R1A@?0A@EA@exception@std@@8 ; std::exception::`RTTI Base Class Array'
rdata$r	ENDS
;	COMDAT ??_R3exception@std@@8
rdata$r	SEGMENT
??_R3exception@std@@8 DD 00H				; std::exception::`RTTI Class Hierarchy Descriptor'
	DD	00H
	DD	01H
	DD	FLAT:??_R2exception@std@@8
rdata$r	ENDS
;	COMDAT ??_R4exception@std@@6B@
rdata$r	SEGMENT
??_R4exception@std@@6B@ DD 00H				; std::exception::`RTTI Complete Object Locator'
	DD	00H
	DD	00H
	DD	FLAT:??_R0?AVexception@std@@@8
	DD	FLAT:??_R3exception@std@@8
rdata$r	ENDS
;	COMDAT ??_C@_0O@NKNMEGII@list?5too?5long@
CONST	SEGMENT
??_C@_0O@NKNMEGII@list?5too?5long@ DB 'list too long', 00H ; `string'
CONST	ENDS
;	COMDAT ??_C@_0BB@GCADKGJO@map?1set?5too?5long@
CONST	SEGMENT
??_C@_0BB@GCADKGJO@map?1set?5too?5long@ DB 'map/set too long', 00H ; `string'
CONST	ENDS
;	COMDAT __CT??_R0?AVbad_alloc@std@@@8??0bad_alloc@std@@QAE@ABV01@@Z12
xdata$x	SEGMENT
__CT??_R0?AVbad_alloc@std@@@8??0bad_alloc@std@@QAE@ABV01@@Z12 DD 010H
	DD	FLAT:??_R0?AVbad_alloc@std@@@8
	DD	00H
	DD	0ffffffffH
	ORG $+4
	DD	0cH
	DD	FLAT:??0bad_alloc@std@@QAE@ABV01@@Z
xdata$x	ENDS
;	COMDAT ??_R0?AVbad_alloc@std@@@8
data$r	SEGMENT
??_R0?AVbad_alloc@std@@@8 DD FLAT:??_7type_info@@6B@	; std::bad_alloc `RTTI Type Descriptor'
	DD	00H
	DB	'.?AVbad_alloc@std@@', 00H
data$r	ENDS
;	COMDAT __CT??_R0?AVbad_array_new_length@std@@@8??0bad_array_new_length@std@@QAE@ABV01@@Z12
xdata$x	SEGMENT
__CT??_R0?AVbad_array_new_length@std@@@8??0bad_array_new_length@std@@QAE@ABV01@@Z12 DD 00H
	DD	FLAT:??_R0?AVbad_array_new_length@std@@@8
	DD	00H
	DD	0ffffffffH
	ORG $+4
	DD	0cH
	DD	FLAT:??0bad_array_new_length@std@@QAE@ABV01@@Z
xdata$x	ENDS
;	COMDAT ??_R0?AVbad_array_new_length@std@@@8
data$r	SEGMENT
??_R0?AVbad_array_new_length@std@@@8 DD FLAT:??_7type_info@@6B@ ; std::bad_array_new_length `RTTI Type Descriptor'
	DD	00H
	DB	'.?AVbad_array_new_length@std@@', 00H
data$r	ENDS
;	COMDAT __CTA3?AVbad_array_new_length@std@@
xdata$x	SEGMENT
__CTA3?AVbad_array_new_length@std@@ DD 03H
	DD	FLAT:__CT??_R0?AVbad_array_new_length@std@@@8??0bad_array_new_length@std@@QAE@ABV01@@Z12
	DD	FLAT:__CT??_R0?AVbad_alloc@std@@@8??0bad_alloc@std@@QAE@ABV01@@Z12
	DD	FLAT:__CT??_R0?AVexception@std@@@8??0exception@std@@QAE@ABV01@@Z12
xdata$x	ENDS
;	COMDAT __TI3?AVbad_array_new_length@std@@
xdata$x	SEGMENT
__TI3?AVbad_array_new_length@std@@ DD 00H
	DD	FLAT:??1bad_array_new_length@std@@UAE@XZ
	DD	00H
	DD	FLAT:__CTA3?AVbad_array_new_length@std@@
xdata$x	ENDS
;	COMDAT __CT??_R0?AVexception@std@@@8??0exception@std@@QAE@ABV01@@Z12
xdata$x	SEGMENT
__CT??_R0?AVexception@std@@@8??0exception@std@@QAE@ABV01@@Z12 DD 00H
	DD	FLAT:??_R0?AVexception@std@@@8
	DD	00H
	DD	0ffffffffH
	ORG $+4
	DD	0cH
	DD	FLAT:??0exception@std@@QAE@ABV01@@Z
xdata$x	ENDS
;	COMDAT ??_R0?AVexception@std@@@8
data$r	SEGMENT
??_R0?AVexception@std@@@8 DD FLAT:??_7type_info@@6B@	; std::exception `RTTI Type Descriptor'
	DD	00H
	DB	'.?AVexception@std@@', 00H
data$r	ENDS
;	COMDAT ??_C@_0BF@KINCDENJ@bad?5array?5new?5length@
CONST	SEGMENT
??_C@_0BF@KINCDENJ@bad?5array?5new?5length@ DB 'bad array new length', 00H ; `string'
CONST	ENDS
;	COMDAT ??_7bad_array_new_length@std@@6B@
CONST	SEGMENT
??_7bad_array_new_length@std@@6B@ DD FLAT:??_R4bad_array_new_length@std@@6B@ ; std::bad_array_new_length::`vftable'
	DD	FLAT:??_Ebad_array_new_length@std@@UAEPAXI@Z
	DD	FLAT:?what@exception@std@@UBEPBDXZ
CONST	ENDS
;	COMDAT ??_7bad_alloc@std@@6B@
CONST	SEGMENT
??_7bad_alloc@std@@6B@ DD FLAT:??_R4bad_alloc@std@@6B@	; std::bad_alloc::`vftable'
	DD	FLAT:??_Ebad_alloc@std@@UAEPAXI@Z
	DD	FLAT:?what@exception@std@@UBEPBDXZ
CONST	ENDS
;	COMDAT ??_C@_0BC@EOODALEL@Unknown?5exception@
CONST	SEGMENT
??_C@_0BC@EOODALEL@Unknown?5exception@ DB 'Unknown exception', 00H ; `string'
CONST	ENDS
;	COMDAT ??_7exception@std@@6B@
CONST	SEGMENT
??_7exception@std@@6B@ DD FLAT:??_R4exception@std@@6B@	; std::exception::`vftable'
	DD	FLAT:??_Eexception@std@@UAEPAXI@Z
	DD	FLAT:?what@exception@std@@UBEPBDXZ
CONST	ENDS
;	COMDAT xdata$x
xdata$x	SEGMENT
__unwindtable$??$?0ABQAU_EVENT_GENERIC@@@?$_List_node_emplace_op2@V?$allocator@U?$_List_node@PAU_EVENT_GENERIC@@PAX@std@@@std@@@std@@QAE@AAV?$allocator@U?$_List_node@PAU_EVENT_GENERIC@@PAX@std@@@1@ABQAU_EVENT_GENERIC@@@Z DD 0ffffffffH
	DD	FLAT:__unwindfunclet$??$?0ABQAU_EVENT_GENERIC@@@?$_List_node_emplace_op2@V?$allocator@U?$_List_node@PAU_EVENT_GENERIC@@PAX@std@@@std@@@std@@QAE@AAV?$allocator@U?$_List_node@PAU_EVENT_GENERIC@@PAX@std@@@1@ABQAU_EVENT_GENERIC@@@Z$0
__ehfuncinfo$??$?0ABQAU_EVENT_GENERIC@@@?$_List_node_emplace_op2@V?$allocator@U?$_List_node@PAU_EVENT_GENERIC@@PAX@std@@@std@@@std@@QAE@AAV?$allocator@U?$_List_node@PAU_EVENT_GENERIC@@PAX@std@@@1@ABQAU_EVENT_GENERIC@@@Z DD 019930522H
	DD	01H
	DD	FLAT:__unwindtable$??$?0ABQAU_EVENT_GENERIC@@@?$_List_node_emplace_op2@V?$allocator@U?$_List_node@PAU_EVENT_GENERIC@@PAX@std@@@std@@@std@@QAE@AAV?$allocator@U?$_List_node@PAU_EVENT_GENERIC@@PAX@std@@@1@ABQAU_EVENT_GENERIC@@@Z
	DD	2 DUP(00H)
	DD	2 DUP(00H)
	DD	00H
	DD	01H
xdata$x	ENDS
;	COMDAT xdata$x
xdata$x	SEGMENT
__unwindtable$??$?0ABQAVCEventItem@@@?$_List_node_emplace_op2@V?$allocator@U?$_List_node@PAVCEventItem@@PAX@std@@@std@@@std@@QAE@AAV?$allocator@U?$_List_node@PAVCEventItem@@PAX@std@@@1@ABQAVCEventItem@@@Z DD 0ffffffffH
	DD	FLAT:__unwindfunclet$??$?0ABQAVCEventItem@@@?$_List_node_emplace_op2@V?$allocator@U?$_List_node@PAVCEventItem@@PAX@std@@@std@@@std@@QAE@AAV?$allocator@U?$_List_node@PAVCEventItem@@PAX@std@@@1@ABQAVCEventItem@@@Z$0
__ehfuncinfo$??$?0ABQAVCEventItem@@@?$_List_node_emplace_op2@V?$allocator@U?$_List_node@PAVCEventItem@@PAX@std@@@std@@@std@@QAE@AAV?$allocator@U?$_List_node@PAVCEventItem@@PAX@std@@@1@ABQAVCEventItem@@@Z DD 019930522H
	DD	01H
	DD	FLAT:__unwindtable$??$?0ABQAVCEventItem@@@?$_List_node_emplace_op2@V?$allocator@U?$_List_node@PAVCEventItem@@PAX@std@@@std@@@std@@QAE@AAV?$allocator@U?$_List_node@PAVCEventItem@@PAX@std@@@1@ABQAVCEventItem@@@Z
	DD	2 DUP(00H)
	DD	2 DUP(00H)
	DD	00H
	DD	01H
xdata$x	ENDS
;	COMDAT xdata$x
xdata$x	SEGMENT
__unwindtable$??$?0U?$pair@$$CBHPAV?$list@PAVCEventItem@@V?$allocator@PAVCEventItem@@@std@@@std@@@std@@@?$_Tree_temp_node@V?$allocator@U?$_Tree_node@U?$pair@$$CBHPAV?$list@PAVCEventItem@@V?$allocator@PAVCEventItem@@@std@@@std@@@std@@PAX@std@@@std@@@std@@QAE@AAV?$allocator@U?$_Tree_node@U?$pair@$$CBHPAV?$list@PAVCEventItem@@V?$allocator@PAVCEventItem@@@std@@@std@@@std@@PAX@std@@@1@PAU?$_Tree_node@U?$pair@$$CBHPAV?$list@PAVCEventItem@@V?$allocator@PAVCEventItem@@@std@@@std@@@std@@PAX@1@$$QAU?$pair@$$CBHPAV?$list@PAVCEventItem@@V?$allocator@PAVCEventItem@@@std@@@std@@@1@@Z DD 0ffffffffH
	DD	FLAT:__unwindfunclet$??$?0U?$pair@$$CBHPAV?$list@PAVCEventItem@@V?$allocator@PAVCEventItem@@@std@@@std@@@std@@@?$_Tree_temp_node@V?$allocator@U?$_Tree_node@U?$pair@$$CBHPAV?$list@PAVCEventItem@@V?$allocator@PAVCEventItem@@@std@@@std@@@std@@PAX@std@@@std@@@std@@QAE@AAV?$allocator@U?$_Tree_node@U?$pair@$$CBHPAV?$list@PAVCEventItem@@V?$allocator@PAVCEventItem@@@std@@@std@@@std@@PAX@std@@@1@PAU?$_Tree_node@U?$pair@$$CBHPAV?$list@PAVCEventItem@@V?$allocator@PAVCEventItem@@@std@@@std@@@std@@PAX@1@$$QAU?$pair@$$CBHPAV?$list@PAVCEventItem@@V?$allocator@PAVCEventItem@@@std@@@std@@@1@@Z$1
__ehfuncinfo$??$?0U?$pair@$$CBHPAV?$list@PAVCEventItem@@V?$allocator@PAVCEventItem@@@std@@@std@@@std@@@?$_Tree_temp_node@V?$allocator@U?$_Tree_node@U?$pair@$$CBHPAV?$list@PAVCEventItem@@V?$allocator@PAVCEventItem@@@std@@@std@@@std@@PAX@std@@@std@@@std@@QAE@AAV?$allocator@U?$_Tree_node@U?$pair@$$CBHPAV?$list@PAVCEventItem@@V?$allocator@PAVCEventItem@@@std@@@std@@@std@@PAX@std@@@1@PAU?$_Tree_node@U?$pair@$$CBHPAV?$list@PAVCEventItem@@V?$allocator@PAVCEventItem@@@std@@@std@@@std@@PAX@1@$$QAU?$pair@$$CBHPAV?$list@PAVCEventItem@@V?$allocator@PAVCEventItem@@@std@@@std@@@1@@Z DD 019930522H
	DD	01H
	DD	FLAT:__unwindtable$??$?0U?$pair@$$CBHPAV?$list@PAVCEventItem@@V?$allocator@PAVCEventItem@@@std@@@std@@@std@@@?$_Tree_temp_node@V?$allocator@U?$_Tree_node@U?$pair@$$CBHPAV?$list@PAVCEventItem@@V?$allocator@PAVCEventItem@@@std@@@std@@@std@@PAX@std@@@std@@@std@@QAE@AAV?$allocator@U?$_Tree_node@U?$pair@$$CBHPAV?$list@PAVCEventItem@@V?$allocator@PAVCEventItem@@@std@@@std@@@std@@PAX@std@@@1@PAU?$_Tree_node@U?$pair@$$CBHPAV?$list@PAVCEventItem@@V?$allocator@PAVCEventItem@@@std@@@std@@@std@@PAX@1@$$QAU?$pair@$$CBHPAV?$list@PAVCEventItem@@V?$allocator@PAVCEventItem@@@std@@@std@@@1@@Z
	DD	2 DUP(00H)
	DD	2 DUP(00H)
	DD	00H
	DD	01H
xdata$x	ENDS
;	COMDAT xdata$x
xdata$x	SEGMENT
__unwindtable$??0?$_Tree_temp_node_alloc@V?$allocator@U?$_Tree_node@U?$pair@$$CBHPAV?$list@PAVCEventItem@@V?$allocator@PAVCEventItem@@@std@@@std@@@std@@PAX@std@@@std@@@std@@QAE@AAV?$allocator@U?$_Tree_node@U?$pair@$$CBHPAV?$list@PAVCEventItem@@V?$allocator@PAVCEventItem@@@std@@@std@@@std@@PAX@std@@@1@@Z DD 0ffffffffH
	DD	FLAT:__unwindfunclet$??0?$_Tree_temp_node_alloc@V?$allocator@U?$_Tree_node@U?$pair@$$CBHPAV?$list@PAVCEventItem@@V?$allocator@PAVCEventItem@@@std@@@std@@@std@@PAX@std@@@std@@@std@@QAE@AAV?$allocator@U?$_Tree_node@U?$pair@$$CBHPAV?$list@PAVCEventItem@@V?$allocator@PAVCEventItem@@@std@@@std@@@std@@PAX@std@@@1@@Z$0
__ehfuncinfo$??0?$_Tree_temp_node_alloc@V?$allocator@U?$_Tree_node@U?$pair@$$CBHPAV?$list@PAVCEventItem@@V?$allocator@PAVCEventItem@@@std@@@std@@@std@@PAX@std@@@std@@@std@@QAE@AAV?$allocator@U?$_Tree_node@U?$pair@$$CBHPAV?$list@PAVCEventItem@@V?$allocator@PAVCEventItem@@@std@@@std@@@std@@PAX@std@@@1@@Z DD 019930522H
	DD	01H
	DD	FLAT:__unwindtable$??0?$_Tree_temp_node_alloc@V?$allocator@U?$_Tree_node@U?$pair@$$CBHPAV?$list@PAVCEventItem@@V?$allocator@PAVCEventItem@@@std@@@std@@@std@@PAX@std@@@std@@@std@@QAE@AAV?$allocator@U?$_Tree_node@U?$pair@$$CBHPAV?$list@PAVCEventItem@@V?$allocator@PAVCEventItem@@@std@@@std@@@std@@PAX@std@@@1@@Z
	DD	2 DUP(00H)
	DD	2 DUP(00H)
	DD	00H
	DD	01H
xdata$x	ENDS
;	COMDAT xdata$x
xdata$x	SEGMENT
__unwindtable$??$_Emplace@ABQAU_EVENT_GENERIC@@@?$list@PAU_EVENT_GENERIC@@V?$allocator@PAU_EVENT_GENERIC@@@std@@@std@@QAEPAU?$_List_node@PAU_EVENT_GENERIC@@PAX@1@QAU21@ABQAU_EVENT_GENERIC@@@Z DD 0ffffffffH
	DD	FLAT:__unwindfunclet$??$_Emplace@ABQAU_EVENT_GENERIC@@@?$list@PAU_EVENT_GENERIC@@V?$allocator@PAU_EVENT_GENERIC@@@std@@@std@@QAEPAU?$_List_node@PAU_EVENT_GENERIC@@PAX@1@QAU21@ABQAU_EVENT_GENERIC@@@Z$1
__ehfuncinfo$??$_Emplace@ABQAU_EVENT_GENERIC@@@?$list@PAU_EVENT_GENERIC@@V?$allocator@PAU_EVENT_GENERIC@@@std@@@std@@QAEPAU?$_List_node@PAU_EVENT_GENERIC@@PAX@1@QAU21@ABQAU_EVENT_GENERIC@@@Z DD 019930522H
	DD	01H
	DD	FLAT:__unwindtable$??$_Emplace@ABQAU_EVENT_GENERIC@@@?$list@PAU_EVENT_GENERIC@@V?$allocator@PAU_EVENT_GENERIC@@@std@@@std@@QAEPAU?$_List_node@PAU_EVENT_GENERIC@@PAX@1@QAU21@ABQAU_EVENT_GENERIC@@@Z
	DD	2 DUP(00H)
	DD	2 DUP(00H)
	DD	00H
	DD	01H
xdata$x	ENDS
;	COMDAT xdata$x
xdata$x	SEGMENT
__unwindtable$??$_Emplace@ABQAVCEventItem@@@?$list@PAVCEventItem@@V?$allocator@PAVCEventItem@@@std@@@std@@QAEPAU?$_List_node@PAVCEventItem@@PAX@1@QAU21@ABQAVCEventItem@@@Z DD 0ffffffffH
	DD	FLAT:__unwindfunclet$??$_Emplace@ABQAVCEventItem@@@?$list@PAVCEventItem@@V?$allocator@PAVCEventItem@@@std@@@std@@QAEPAU?$_List_node@PAVCEventItem@@PAX@1@QAU21@ABQAVCEventItem@@@Z$1
__ehfuncinfo$??$_Emplace@ABQAVCEventItem@@@?$list@PAVCEventItem@@V?$allocator@PAVCEventItem@@@std@@@std@@QAEPAU?$_List_node@PAVCEventItem@@PAX@1@QAU21@ABQAVCEventItem@@@Z DD 019930522H
	DD	01H
	DD	FLAT:__unwindtable$??$_Emplace@ABQAVCEventItem@@@?$list@PAVCEventItem@@V?$allocator@PAVCEventItem@@@std@@@std@@QAEPAU?$_List_node@PAVCEventItem@@PAX@1@QAU21@ABQAVCEventItem@@@Z
	DD	2 DUP(00H)
	DD	2 DUP(00H)
	DD	00H
	DD	01H
xdata$x	ENDS
;	COMDAT xdata$x
xdata$x	SEGMENT
__unwindtable$??$_Emplace@U?$pair@$$CBHPAV?$list@PAVCEventItem@@V?$allocator@PAVCEventItem@@@std@@@std@@@std@@@?$_Tree@V?$_Tmap_traits@HPAV?$list@PAVCEventItem@@V?$allocator@PAVCEventItem@@@std@@@std@@U?$less@H@2@V?$allocator@U?$pair@$$CBHPAV?$list@PAVCEventItem@@V?$allocator@PAVCEventItem@@@std@@@std@@@std@@@2@$0A@@std@@@std@@IAE?AU?$pair@PAU?$_Tree_node@U?$pair@$$CBHPAV?$list@PAVCEventItem@@V?$allocator@PAVCEventItem@@@std@@@std@@@std@@PAX@std@@_N@1@$$QAU?$pair@$$CBHPAV?$list@PAVCEventItem@@V?$allocator@PAVCEventItem@@@std@@@std@@@1@@Z DD 0ffffffffH
	DD	FLAT:__unwindfunclet$??$_Emplace@U?$pair@$$CBHPAV?$list@PAVCEventItem@@V?$allocator@PAVCEventItem@@@std@@@std@@@std@@@?$_Tree@V?$_Tmap_traits@HPAV?$list@PAVCEventItem@@V?$allocator@PAVCEventItem@@@std@@@std@@U?$less@H@2@V?$allocator@U?$pair@$$CBHPAV?$list@PAVCEventItem@@V?$allocator@PAVCEventItem@@@std@@@std@@@std@@@2@$0A@@std@@@std@@IAE?AU?$pair@PAU?$_Tree_node@U?$pair@$$CBHPAV?$list@PAVCEventItem@@V?$allocator@PAVCEventItem@@@std@@@std@@@std@@PAX@std@@_N@1@$$QAU?$pair@$$CBHPAV?$list@PAVCEventItem@@V?$allocator@PAVCEventItem@@@std@@@std@@@1@@Z$2
__ehfuncinfo$??$_Emplace@U?$pair@$$CBHPAV?$list@PAVCEventItem@@V?$allocator@PAVCEventItem@@@std@@@std@@@std@@@?$_Tree@V?$_Tmap_traits@HPAV?$list@PAVCEventItem@@V?$allocator@PAVCEventItem@@@std@@@std@@U?$less@H@2@V?$allocator@U?$pair@$$CBHPAV?$list@PAVCEventItem@@V?$allocator@PAVCEventItem@@@std@@@std@@@std@@@2@$0A@@std@@@std@@IAE?AU?$pair@PAU?$_Tree_node@U?$pair@$$CBHPAV?$list@PAVCEventItem@@V?$allocator@PAVCEventItem@@@std@@@std@@@std@@PAX@std@@_N@1@$$QAU?$pair@$$CBHPAV?$list@PAVCEventItem@@V?$allocator@PAVCEventItem@@@std@@@std@@@1@@Z DD 019930522H
	DD	01H
	DD	FLAT:__unwindtable$??$_Emplace@U?$pair@$$CBHPAV?$list@PAVCEventItem@@V?$allocator@PAVCEventItem@@@std@@@std@@@std@@@?$_Tree@V?$_Tmap_traits@HPAV?$list@PAVCEventItem@@V?$allocator@PAVCEventItem@@@std@@@std@@U?$less@H@2@V?$allocator@U?$pair@$$CBHPAV?$list@PAVCEventItem@@V?$allocator@PAVCEventItem@@@std@@@std@@@std@@@2@$0A@@std@@@std@@IAE?AU?$pair@PAU?$_Tree_node@U?$pair@$$CBHPAV?$list@PAVCEventItem@@V?$allocator@PAVCEventItem@@@std@@@std@@@std@@PAX@std@@_N@1@$$QAU?$pair@$$CBHPAV?$list@PAVCEventItem@@V?$allocator@PAVCEventItem@@@std@@@std@@@1@@Z
	DD	2 DUP(00H)
	DD	2 DUP(00H)
	DD	00H
	DD	01H
xdata$x	ENDS
;	COMDAT xdata$x
xdata$x	SEGMENT
__unwindtable$??$insert@$0A@$0A@@?$_Tree@V?$_Tmap_traits@HPAV?$list@PAVCEventItem@@V?$allocator@PAVCEventItem@@@std@@@std@@U?$less@H@2@V?$allocator@U?$pair@$$CBHPAV?$list@PAVCEventItem@@V?$allocator@PAVCEventItem@@@std@@@std@@@std@@@2@$0A@@std@@@std@@QAE?AU?$pair@V?$_Tree_iterator@V?$_Tree_val@U?$_Tree_simple_types@U?$pair@$$CBHPAV?$list@PAVCEventItem@@V?$allocator@PAVCEventItem@@@std@@@std@@@std@@@std@@@std@@@std@@_N@1@$$QAU?$pair@$$CBHPAV?$list@PAVCEventItem@@V?$allocator@PAVCEventItem@@@std@@@std@@@1@@Z DD 0ffffffffH
	DD	FLAT:__unwindfunclet$??$insert@$0A@$0A@@?$_Tree@V?$_Tmap_traits@HPAV?$list@PAVCEventItem@@V?$allocator@PAVCEventItem@@@std@@@std@@U?$less@H@2@V?$allocator@U?$pair@$$CBHPAV?$list@PAVCEventItem@@V?$allocator@PAVCEventItem@@@std@@@std@@@std@@@2@$0A@@std@@@std@@QAE?AU?$pair@V?$_Tree_iterator@V?$_Tree_val@U?$_Tree_simple_types@U?$pair@$$CBHPAV?$list@PAVCEventItem@@V?$allocator@PAVCEventItem@@@std@@@std@@@std@@@std@@@std@@@std@@_N@1@$$QAU?$pair@$$CBHPAV?$list@PAVCEventItem@@V?$allocator@PAVCEventItem@@@std@@@std@@@1@@Z$2
__ehfuncinfo$??$insert@$0A@$0A@@?$_Tree@V?$_Tmap_traits@HPAV?$list@PAVCEventItem@@V?$allocator@PAVCEventItem@@@std@@@std@@U?$less@H@2@V?$allocator@U?$pair@$$CBHPAV?$list@PAVCEventItem@@V?$allocator@PAVCEventItem@@@std@@@std@@@std@@@2@$0A@@std@@@std@@QAE?AU?$pair@V?$_Tree_iterator@V?$_Tree_val@U?$_Tree_simple_types@U?$pair@$$CBHPAV?$list@PAVCEventItem@@V?$allocator@PAVCEventItem@@@std@@@std@@@std@@@std@@@std@@@std@@_N@1@$$QAU?$pair@$$CBHPAV?$list@PAVCEventItem@@V?$allocator@PAVCEventItem@@@std@@@std@@@1@@Z DD 019930522H
	DD	01H
	DD	FLAT:__unwindtable$??$insert@$0A@$0A@@?$_Tree@V?$_Tmap_traits@HPAV?$list@PAVCEventItem@@V?$allocator@PAVCEventItem@@@std@@@std@@U?$less@H@2@V?$allocator@U?$pair@$$CBHPAV?$list@PAVCEventItem@@V?$allocator@PAVCEventItem@@@std@@@std@@@std@@@2@$0A@@std@@@std@@QAE?AU?$pair@V?$_Tree_iterator@V?$_Tree_val@U?$_Tree_simple_types@U?$pair@$$CBHPAV?$list@PAVCEventItem@@V?$allocator@PAVCEventItem@@@std@@@std@@@std@@@std@@@std@@@std@@_N@1@$$QAU?$pair@$$CBHPAV?$list@PAVCEventItem@@V?$allocator@PAVCEventItem@@@std@@@std@@@1@@Z
	DD	2 DUP(00H)
	DD	2 DUP(00H)
	DD	00H
	DD	01H
xdata$x	ENDS
;	COMDAT xdata$x
xdata$x	SEGMENT
__unwindtable$?push_back@?$list@PAVCEventItem@@V?$allocator@PAVCEventItem@@@std@@@std@@QAEXABQAVCEventItem@@@Z DD 0ffffffffH
	DD	FLAT:__unwindfunclet$?push_back@?$list@PAVCEventItem@@V?$allocator@PAVCEventItem@@@std@@@std@@QAEXABQAVCEventItem@@@Z$1
__ehfuncinfo$?push_back@?$list@PAVCEventItem@@V?$allocator@PAVCEventItem@@@std@@@std@@QAEXABQAVCEventItem@@@Z DD 019930522H
	DD	01H
	DD	FLAT:__unwindtable$?push_back@?$list@PAVCEventItem@@V?$allocator@PAVCEventItem@@@std@@@std@@QAEXABQAVCEventItem@@@Z
	DD	2 DUP(00H)
	DD	2 DUP(00H)
	DD	00H
	DD	01H
xdata$x	ENDS
;	COMDAT xdata$x
xdata$x	SEGMENT
__unwindtable$?Serialize@CEventGeneric@@QAEXAAVCAr@@@Z DD 0ffffffffH
	DD	FLAT:__unwindfunclet$?Serialize@CEventGeneric@@QAEXAAVCAr@@@Z$12
	DD	0ffffffffH
	DD	FLAT:__unwindfunclet$?Serialize@CEventGeneric@@QAEXAAVCAr@@@Z$1
	DD	0ffffffffH
	DD	FLAT:__unwindfunclet$?Serialize@CEventGeneric@@QAEXAAVCAr@@@Z$8
	DD	0ffffffffH
	DD	FLAT:__unwindfunclet$?Serialize@CEventGeneric@@QAEXAAVCAr@@@Z$4
__ehfuncinfo$?Serialize@CEventGeneric@@QAEXAAVCAr@@@Z DD 019930522H
	DD	04H
	DD	FLAT:__unwindtable$?Serialize@CEventGeneric@@QAEXAAVCAr@@@Z
	DD	2 DUP(00H)
	DD	2 DUP(00H)
	DD	00H
	DD	01H
xdata$x	ENDS
;	COMDAT xdata$x
xdata$x	SEGMENT
__unwindtable$?GetInstance@CEventGeneric@@SAPAV1@XZ DD 0ffffffffH
	DD	FLAT:__unwindfunclet$?GetInstance@CEventGeneric@@SAPAV1@XZ$0
__ehfuncinfo$?GetInstance@CEventGeneric@@SAPAV1@XZ DD 019930522H
	DD	01H
	DD	FLAT:__unwindtable$?GetInstance@CEventGeneric@@SAPAV1@XZ
	DD	2 DUP(00H)
	DD	2 DUP(00H)
	DD	00H
	DD	01H
xdata$x	ENDS
;	COMDAT xdata$x
xdata$x	SEGMENT
__unwindtable$?AddItem@CEventGeneric@@QAEHHKHH@Z DD 0ffffffffH
	DD	FLAT:__unwindfunclet$?AddItem@CEventGeneric@@QAEHHKHH@Z$0
__ehfuncinfo$?AddItem@CEventGeneric@@QAEHHKHH@Z DD 019930522H
	DD	01H
	DD	FLAT:__unwindtable$?AddItem@CEventGeneric@@QAEHHKHH@Z
	DD	2 DUP(00H)
	DD	2 DUP(00H)
	DD	00H
	DD	01H
xdata$x	ENDS
;	COMDAT xdata$x
xdata$x	SEGMENT
__unwindtable$?LoadScript@CEventGeneric@@QAEHPBD@Z DD 0ffffffffH
	DD	FLAT:__unwindfunclet$?LoadScript@CEventGeneric@@QAEHPBD@Z$0
	DD	00H
	DD	FLAT:__unwindfunclet$?LoadScript@CEventGeneric@@QAEHPBD@Z$7
	DD	00H
	DD	FLAT:__unwindfunclet$?LoadScript@CEventGeneric@@QAEHPBD@Z$4
	DD	00H
	DD	FLAT:__unwindfunclet$?LoadScript@CEventGeneric@@QAEHPBD@Z$2
__ehfuncinfo$?LoadScript@CEventGeneric@@QAEHPBD@Z DD 019930522H
	DD	04H
	DD	FLAT:__unwindtable$?LoadScript@CEventGeneric@@QAEHPBD@Z
	DD	2 DUP(00H)
	DD	2 DUP(00H)
	DD	00H
	DD	01H
xdata$x	ENDS
;	COMDAT xdata$x
xdata$x	SEGMENT
__unwindtable$??0CEventGeneric@@QAE@XZ DD 0ffffffffH
	DD	FLAT:__unwindfunclet$??0CEventGeneric@@QAE@XZ$0
__ehfuncinfo$??0CEventGeneric@@QAE@XZ DD 019930522H
	DD	01H
	DD	FLAT:__unwindtable$??0CEventGeneric@@QAE@XZ
	DD	2 DUP(00H)
	DD	2 DUP(00H)
	DD	00H
	DD	01H
xdata$x	ENDS
;	COMDAT xdata$x
xdata$x	SEGMENT
__unwindtable$?push_back@?$list@PAU_EVENT_GENERIC@@V?$allocator@PAU_EVENT_GENERIC@@@std@@@std@@QAEXABQAU_EVENT_GENERIC@@@Z DD 0ffffffffH
	DD	FLAT:__unwindfunclet$?push_back@?$list@PAU_EVENT_GENERIC@@V?$allocator@PAU_EVENT_GENERIC@@@std@@@std@@QAEXABQAU_EVENT_GENERIC@@@Z$1
__ehfuncinfo$?push_back@?$list@PAU_EVENT_GENERIC@@V?$allocator@PAU_EVENT_GENERIC@@@std@@@std@@QAEXABQAU_EVENT_GENERIC@@@Z DD 019930522H
	DD	01H
	DD	FLAT:__unwindtable$?push_back@?$list@PAU_EVENT_GENERIC@@V?$allocator@PAU_EVENT_GENERIC@@@std@@@std@@QAEXABQAU_EVENT_GENERIC@@@Z
	DD	2 DUP(00H)
	DD	2 DUP(00H)
	DD	00H
	DD	01H
xdata$x	ENDS
;	COMDAT xdata$x
xdata$x	SEGMENT
__unwindtable$?LoadScript@CXMasEvent@@QAEHPBD@Z DD 0ffffffffH
	DD	FLAT:__unwindfunclet$?LoadScript@CXMasEvent@@QAEHPBD@Z$0
__ehfuncinfo$?LoadScript@CXMasEvent@@QAEHPBD@Z DD 019930522H
	DD	01H
	DD	FLAT:__unwindtable$?LoadScript@CXMasEvent@@QAEHPBD@Z
	DD	2 DUP(00H)
	DD	2 DUP(00H)
	DD	00H
	DD	01H
xdata$x	ENDS
;	COMDAT xdata$x
xdata$x	SEGMENT
__unwindtable$??0?$CStringT@DV?$StrTraitMFC@DV?$ChTraitsCRT@D@ATL@@@@@ATL@@QAE@PBD@Z DD 0ffffffffH
	DD	FLAT:__unwindfunclet$??0?$CStringT@DV?$StrTraitMFC@DV?$ChTraitsCRT@D@ATL@@@@@ATL@@QAE@PBD@Z$0
__ehfuncinfo$??0?$CStringT@DV?$StrTraitMFC@DV?$ChTraitsCRT@D@ATL@@@@@ATL@@QAE@PBD@Z DD 019930522H
	DD	01H
	DD	FLAT:__unwindtable$??0?$CStringT@DV?$StrTraitMFC@DV?$ChTraitsCRT@D@ATL@@@@@ATL@@QAE@PBD@Z
	DD	2 DUP(00H)
	DD	2 DUP(00H)
	DD	00H
	DD	01H
xdata$x	ENDS
; Function compile flags: /Ogtp
; File C:\Program Files\Microsoft Visual Studio\2022\Professional\VC\Tools\MSVC\14.44.35207\include\xmemory
;	COMDAT ??1?$_Alloc_construct_ptr@V?$allocator@U?$_List_node@PAU_EVENT_GENERIC@@PAX@std@@@std@@@std@@QAE@XZ
_TEXT	SEGMENT
??1?$_Alloc_construct_ptr@V?$allocator@U?$_List_node@PAU_EVENT_GENERIC@@PAX@std@@@std@@@std@@QAE@XZ PROC ; std::_Alloc_construct_ptr<std::allocator<std::_List_node<_EVENT_GENERIC *,void *> > >::~_Alloc_construct_ptr<std::allocator<std::_List_node<_EVENT_GENERIC *,void *> > >, COMDAT
; _this$ = ecx

; 1172 :         if (_Ptr) {

  00000	8b 41 04	 mov	 eax, DWORD PTR [ecx+4]
  00003	85 c0		 test	 eax, eax
  00005	74 0b		 je	 SHORT $LN10@Alloc_cons

; 289  :         ::operator delete(_Ptr, _Bytes);

  00007	6a 0c		 push	 12			; 0000000cH
  00009	50		 push	 eax
  0000a	e8 00 00 00 00	 call	 ??3@YAXPAXI@Z		; operator delete
  0000f	83 c4 08	 add	 esp, 8
$LN10@Alloc_cons:

; 1173 :             _Al.deallocate(_Ptr, 1);
; 1174 :         }
; 1175 :     }

  00012	c3		 ret	 0
??1?$_Alloc_construct_ptr@V?$allocator@U?$_List_node@PAU_EVENT_GENERIC@@PAX@std@@@std@@@std@@QAE@XZ ENDP ; std::_Alloc_construct_ptr<std::allocator<std::_List_node<_EVENT_GENERIC *,void *> > >::~_Alloc_construct_ptr<std::allocator<std::_List_node<_EVENT_GENERIC *,void *> > >
_TEXT	ENDS
; Function compile flags: /Ogtp
; File C:\Program Files\Microsoft Visual Studio\2022\Professional\VC\Tools\MSVC\14.44.35207\include\xmemory
;	COMDAT ??1?$_Alloc_construct_ptr@V?$allocator@U?$_List_node@PAVCEventItem@@PAX@std@@@std@@@std@@QAE@XZ
_TEXT	SEGMENT
??1?$_Alloc_construct_ptr@V?$allocator@U?$_List_node@PAVCEventItem@@PAX@std@@@std@@@std@@QAE@XZ PROC ; std::_Alloc_construct_ptr<std::allocator<std::_List_node<CEventItem *,void *> > >::~_Alloc_construct_ptr<std::allocator<std::_List_node<CEventItem *,void *> > >, COMDAT
; _this$ = ecx

; 1172 :         if (_Ptr) {

  00000	8b 41 04	 mov	 eax, DWORD PTR [ecx+4]
  00003	85 c0		 test	 eax, eax
  00005	74 0b		 je	 SHORT $LN10@Alloc_cons

; 289  :         ::operator delete(_Ptr, _Bytes);

  00007	6a 0c		 push	 12			; 0000000cH
  00009	50		 push	 eax
  0000a	e8 00 00 00 00	 call	 ??3@YAXPAXI@Z		; operator delete
  0000f	83 c4 08	 add	 esp, 8
$LN10@Alloc_cons:

; 1173 :             _Al.deallocate(_Ptr, 1);
; 1174 :         }
; 1175 :     }

  00012	c3		 ret	 0
??1?$_Alloc_construct_ptr@V?$allocator@U?$_List_node@PAVCEventItem@@PAX@std@@@std@@@std@@QAE@XZ ENDP ; std::_Alloc_construct_ptr<std::allocator<std::_List_node<CEventItem *,void *> > >::~_Alloc_construct_ptr<std::allocator<std::_List_node<CEventItem *,void *> > >
_TEXT	ENDS
; Function compile flags: /Ogtp
; File C:\Program Files\Microsoft Visual Studio\2022\Professional\VC\Tools\MSVC\14.44.35207\include\xmemory
;	COMDAT ??1?$_Alloc_construct_ptr@V?$allocator@U?$_Tree_node@U?$pair@$$CBHPAV?$list@PAVCEventItem@@V?$allocator@PAVCEventItem@@@std@@@std@@@std@@PAX@std@@@std@@@std@@QAE@XZ
_TEXT	SEGMENT
??1?$_Alloc_construct_ptr@V?$allocator@U?$_Tree_node@U?$pair@$$CBHPAV?$list@PAVCEventItem@@V?$allocator@PAVCEventItem@@@std@@@std@@@std@@PAX@std@@@std@@@std@@QAE@XZ PROC ; std::_Alloc_construct_ptr<std::allocator<std::_Tree_node<std::pair<int const ,std::list<CEventItem *,std::allocator<CEventItem *> > *>,void *> > >::~_Alloc_construct_ptr<std::allocator<std::_Tree_node<std::pair<int const ,std::list<CEventItem *,std::allocator<CEventItem *> > *>,void *> > >, COMDAT
; _this$ = ecx

; 1172 :         if (_Ptr) {

  00000	8b 41 04	 mov	 eax, DWORD PTR [ecx+4]
  00003	85 c0		 test	 eax, eax
  00005	74 0b		 je	 SHORT $LN10@Alloc_cons

; 289  :         ::operator delete(_Ptr, _Bytes);

  00007	6a 18		 push	 24			; 00000018H
  00009	50		 push	 eax
  0000a	e8 00 00 00 00	 call	 ??3@YAXPAXI@Z		; operator delete
  0000f	83 c4 08	 add	 esp, 8
$LN10@Alloc_cons:

; 1173 :             _Al.deallocate(_Ptr, 1);
; 1174 :         }
; 1175 :     }

  00012	c3		 ret	 0
??1?$_Alloc_construct_ptr@V?$allocator@U?$_Tree_node@U?$pair@$$CBHPAV?$list@PAVCEventItem@@V?$allocator@PAVCEventItem@@@std@@@std@@@std@@PAX@std@@@std@@@std@@QAE@XZ ENDP ; std::_Alloc_construct_ptr<std::allocator<std::_Tree_node<std::pair<int const ,std::list<CEventItem *,std::allocator<CEventItem *> > *>,void *> > >::~_Alloc_construct_ptr<std::allocator<std::_Tree_node<std::pair<int const ,std::list<CEventItem *,std::allocator<CEventItem *> > *>,void *> > >
_TEXT	ENDS
; Function compile flags: /Ogtp
; File C:\Program Files\Microsoft Visual Studio\2022\Professional\VC\Tools\MSVC\14.44.35207\include\xtree
; File C:\Program Files\Microsoft Visual Studio\2022\Professional\VC\Tools\MSVC\14.44.35207\include\type_traits
; File C:\Program Files\Microsoft Visual Studio\2022\Professional\VC\Tools\MSVC\14.44.35207\include\xtree
; File C:\Program Files\Microsoft Visual Studio\2022\Professional\VC\Tools\MSVC\14.44.35207\include\type_traits
; File C:\Program Files\Microsoft Visual Studio\2022\Professional\VC\Tools\MSVC\14.44.35207\include\xtree
;	COMDAT ??$_Find_lower_bound@H@?$_Tree@V?$_Tmap_traits@HPAV?$list@PAVCEventItem@@V?$allocator@PAVCEventItem@@@std@@@std@@U?$less@H@2@V?$allocator@U?$pair@$$CBHPAV?$list@PAVCEventItem@@V?$allocator@PAVCEventItem@@@std@@@std@@@std@@@2@$0A@@std@@@std@@IBE?AU?$_Tree_find_result@PAU?$_Tree_node@U?$pair@$$CBHPAV?$list@PAVCEventItem@@V?$allocator@PAVCEventItem@@@std@@@std@@@std@@PAX@std@@@1@ABH@Z
_TEXT	SEGMENT
___$ReturnUdt$ = 8					; size = 4
__Keyval$ = 12						; size = 4
??$_Find_lower_bound@H@?$_Tree@V?$_Tmap_traits@HPAV?$list@PAVCEventItem@@V?$allocator@PAVCEventItem@@@std@@@std@@U?$less@H@2@V?$allocator@U?$pair@$$CBHPAV?$list@PAVCEventItem@@V?$allocator@PAVCEventItem@@@std@@@std@@@std@@@2@$0A@@std@@@std@@IBE?AU?$_Tree_find_result@PAU?$_Tree_node@U?$pair@$$CBHPAV?$list@PAVCEventItem@@V?$allocator@PAVCEventItem@@@std@@@std@@@std@@PAX@std@@@1@ABH@Z PROC ; std::_Tree<std::_Tmap_traits<int,std::list<CEventItem *,std::allocator<CEventItem *> > *,std::less<int>,std::allocator<std::pair<int const ,std::list<CEventItem *,std::allocator<CEventItem *> > *> >,0> >::_Find_lower_bound<int>, COMDAT
; _this$ = ecx

; 1628 :     _Tree_find_result<_Nodeptr> _Find_lower_bound(const _Keyty& _Keyval) const {

  00000	55		 push	 ebp
  00001	8b ec		 mov	 ebp, esp

; 1629 :         const auto _Scary = _Get_scary();
; 1630 :         _Tree_find_result<_Nodeptr> _Result{{_Scary->_Myhead->_Parent, _Tree_child::_Right}, _Scary->_Myhead};

  00003	8b 09		 mov	 ecx, DWORD PTR [ecx]
  00005	8b 55 08	 mov	 edx, DWORD PTR ___$ReturnUdt$[ebp]
  00008	8b 41 04	 mov	 eax, DWORD PTR [ecx+4]
  0000b	89 02		 mov	 DWORD PTR [edx], eax
  0000d	c7 42 04 00 00
	00 00		 mov	 DWORD PTR [edx+4], 0
  00014	89 4a 08	 mov	 DWORD PTR [edx+8], ecx

; 1631 :         _Nodeptr _Trynode = _Result._Location._Parent;
; 1632 :         while (!_Trynode->_Isnil) {

  00017	80 78 0d 00	 cmp	 BYTE PTR [eax+13], 0
  0001b	75 28		 jne	 SHORT $LN13@Find_lower
; File C:\Program Files\Microsoft Visual Studio\2022\Professional\VC\Tools\MSVC\14.44.35207\include\type_traits

; 2380 :         return _Left < _Right;

  0001d	8b 4d 0c	 mov	 ecx, DWORD PTR __Keyval$[ebp]
  00020	56		 push	 esi
  00021	8b 31		 mov	 esi, DWORD PTR [ecx]
$LL2@Find_lower:
; File C:\Program Files\Microsoft Visual Studio\2022\Professional\VC\Tools\MSVC\14.44.35207\include\xtree

; 1633 :             _Result._Location._Parent = _Trynode;

  00023	89 02		 mov	 DWORD PTR [edx], eax
; File C:\Program Files\Microsoft Visual Studio\2022\Professional\VC\Tools\MSVC\14.44.35207\include\type_traits

; 2380 :         return _Left < _Right;

  00025	39 70 10	 cmp	 DWORD PTR [eax+16], esi
; File C:\Program Files\Microsoft Visual Studio\2022\Professional\VC\Tools\MSVC\14.44.35207\include\xtree

; 1634 :             if (_DEBUG_LT_PRED(_Getcomp(), _Traits::_Kfn(_Trynode->_Myval), _Keyval)) {

  00028	7d 07		 jge	 SHORT $LN4@Find_lower

; 1635 :                 _Result._Location._Child = _Tree_child::_Right;
; 1636 :                 _Trynode                 = _Trynode->_Right;

  0002a	8b 40 08	 mov	 eax, DWORD PTR [eax+8]
  0002d	33 c9		 xor	 ecx, ecx

; 1637 :             } else {

  0002f	eb 0a		 jmp	 SHORT $LN5@Find_lower
$LN4@Find_lower:

; 1638 :                 _Result._Location._Child = _Tree_child::_Left;
; 1639 :                 _Result._Bound           = _Trynode;

  00031	89 42 08	 mov	 DWORD PTR [edx+8], eax

; 1640 :                 _Trynode                 = _Trynode->_Left;

  00034	b9 01 00 00 00	 mov	 ecx, 1
  00039	8b 00		 mov	 eax, DWORD PTR [eax]
$LN5@Find_lower:

; 1631 :         _Nodeptr _Trynode = _Result._Location._Parent;
; 1632 :         while (!_Trynode->_Isnil) {

  0003b	89 4a 04	 mov	 DWORD PTR [edx+4], ecx
  0003e	80 78 0d 00	 cmp	 BYTE PTR [eax+13], 0
  00042	74 df		 je	 SHORT $LL2@Find_lower
  00044	5e		 pop	 esi
$LN13@Find_lower:

; 1641 :             }
; 1642 :         }
; 1643 : 
; 1644 :         return _Result;
; 1645 :     }

  00045	8b c2		 mov	 eax, edx
  00047	5d		 pop	 ebp
  00048	c2 08 00	 ret	 8
??$_Find_lower_bound@H@?$_Tree@V?$_Tmap_traits@HPAV?$list@PAVCEventItem@@V?$allocator@PAVCEventItem@@@std@@@std@@U?$less@H@2@V?$allocator@U?$pair@$$CBHPAV?$list@PAVCEventItem@@V?$allocator@PAVCEventItem@@@std@@@std@@@std@@@2@$0A@@std@@@std@@IBE?AU?$_Tree_find_result@PAU?$_Tree_node@U?$pair@$$CBHPAV?$list@PAVCEventItem@@V?$allocator@PAVCEventItem@@@std@@@std@@@std@@PAX@std@@@1@ABH@Z ENDP ; std::_Tree<std::_Tmap_traits<int,std::list<CEventItem *,std::allocator<CEventItem *> > *,std::less<int>,std::allocator<std::pair<int const ,std::list<CEventItem *,std::allocator<CEventItem *> > *> >,0> >::_Find_lower_bound<int>
_TEXT	ENDS
; Function compile flags: /Ogtp
; File C:\Program Files\Microsoft Visual Studio\2022\Professional\VC\Tools\MSVC\14.44.35207\include\xtree
; File C:\Program Files\Microsoft Visual Studio\2022\Professional\VC\Tools\MSVC\14.44.35207\include\utility
; File C:\Program Files\Microsoft Visual Studio\2022\Professional\VC\Tools\MSVC\14.44.35207\include\xmemory
; File C:\Program Files\Microsoft Visual Studio\2022\Professional\VC\Tools\MSVC\14.44.35207\include\xtree
;	COMDAT ??$_Erase_tree@V?$allocator@U?$_Tree_node@U?$pair@$$CBHPAV?$list@PAVCEventItem@@V?$allocator@PAVCEventItem@@@std@@@std@@@std@@PAX@std@@@std@@@?$_Tree_val@U?$_Tree_simple_types@U?$pair@$$CBHPAV?$list@PAVCEventItem@@V?$allocator@PAVCEventItem@@@std@@@std@@@std@@@std@@@std@@QAEXAAV?$allocator@U?$_Tree_node@U?$pair@$$CBHPAV?$list@PAVCEventItem@@V?$allocator@PAVCEventItem@@@std@@@std@@@std@@PAX@std@@@1@PAU?$_Tree_node@U?$pair@$$CBHPAV?$list@PAVCEventItem@@V?$allocator@PAVCEventItem@@@std@@@std@@@std@@PAX@1@@Z
_TEXT	SEGMENT
__Al$ = 8						; size = 4
__Rootnode$ = 12					; size = 4
??$_Erase_tree@V?$allocator@U?$_Tree_node@U?$pair@$$CBHPAV?$list@PAVCEventItem@@V?$allocator@PAVCEventItem@@@std@@@std@@@std@@PAX@std@@@std@@@?$_Tree_val@U?$_Tree_simple_types@U?$pair@$$CBHPAV?$list@PAVCEventItem@@V?$allocator@PAVCEventItem@@@std@@@std@@@std@@@std@@@std@@QAEXAAV?$allocator@U?$_Tree_node@U?$pair@$$CBHPAV?$list@PAVCEventItem@@V?$allocator@PAVCEventItem@@@std@@@std@@@std@@PAX@std@@@1@PAU?$_Tree_node@U?$pair@$$CBHPAV?$list@PAVCEventItem@@V?$allocator@PAVCEventItem@@@std@@@std@@@std@@PAX@1@@Z PROC ; std::_Tree_val<std::_Tree_simple_types<std::pair<int const ,std::list<CEventItem *,std::allocator<CEventItem *> > *> > >::_Erase_tree<std::allocator<std::_Tree_node<std::pair<int const ,std::list<CEventItem *,std::allocator<CEventItem *> > *>,void *> > >, COMDAT
; _this$ = ecx

; 767  :     void _Erase_tree(_Alnode& _Al, _Nodeptr _Rootnode) noexcept {

  00000	55		 push	 ebp
  00001	8b ec		 mov	 ebp, esp
  00003	53		 push	 ebx
  00004	56		 push	 esi

; 768  :         while (!_Rootnode->_Isnil) { // free subtrees, then node

  00005	8b 75 0c	 mov	 esi, DWORD PTR __Rootnode$[ebp]
  00008	8b d9		 mov	 ebx, ecx
  0000a	80 7e 0d 00	 cmp	 BYTE PTR [esi+13], 0
  0000e	75 25		 jne	 SHORT $LN34@Erase_tree
  00010	57		 push	 edi
  00011	8b 7d 08	 mov	 edi, DWORD PTR __Al$[ebp]
$LL2@Erase_tree:

; 769  :             _Erase_tree(_Al, _Rootnode->_Right);

  00014	ff 76 08	 push	 DWORD PTR [esi+8]
  00017	8b cb		 mov	 ecx, ebx
  00019	57		 push	 edi
  0001a	e8 00 00 00 00	 call	 ??$_Erase_tree@V?$allocator@U?$_Tree_node@U?$pair@$$CBHPAV?$list@PAVCEventItem@@V?$allocator@PAVCEventItem@@@std@@@std@@@std@@PAX@std@@@std@@@?$_Tree_val@U?$_Tree_simple_types@U?$pair@$$CBHPAV?$list@PAVCEventItem@@V?$allocator@PAVCEventItem@@@std@@@std@@@std@@@std@@@std@@QAEXAAV?$allocator@U?$_Tree_node@U?$pair@$$CBHPAV?$list@PAVCEventItem@@V?$allocator@PAVCEventItem@@@std@@@std@@@std@@PAX@std@@@1@PAU?$_Tree_node@U?$pair@$$CBHPAV?$list@PAVCEventItem@@V?$allocator@PAVCEventItem@@@std@@@std@@@std@@PAX@1@@Z ; std::_Tree_val<std::_Tree_simple_types<std::pair<int const ,std::list<CEventItem *,std::allocator<CEventItem *> > *> > >::_Erase_tree<std::allocator<std::_Tree_node<std::pair<int const ,std::list<CEventItem *,std::allocator<CEventItem *> > *>,void *> > >
; File C:\Program Files\Microsoft Visual Studio\2022\Professional\VC\Tools\MSVC\14.44.35207\include\utility

; 773  :     _Ty _Old_val = static_cast<_Ty&&>(_Val);

  0001f	8b c6		 mov	 eax, esi

; 774  :     _Val         = static_cast<_Other&&>(_New_val);

  00021	8b 36		 mov	 esi, DWORD PTR [esi]
; File C:\Program Files\Microsoft Visual Studio\2022\Professional\VC\Tools\MSVC\14.44.35207\include\xmemory

; 289  :         ::operator delete(_Ptr, _Bytes);

  00023	6a 18		 push	 24			; 00000018H
  00025	50		 push	 eax
  00026	e8 00 00 00 00	 call	 ??3@YAXPAXI@Z		; operator delete
  0002b	83 c4 08	 add	 esp, 8
; File C:\Program Files\Microsoft Visual Studio\2022\Professional\VC\Tools\MSVC\14.44.35207\include\xtree

; 768  :         while (!_Rootnode->_Isnil) { // free subtrees, then node

  0002e	80 7e 0d 00	 cmp	 BYTE PTR [esi+13], 0
  00032	74 e0		 je	 SHORT $LL2@Erase_tree
  00034	5f		 pop	 edi
$LN34@Erase_tree:
  00035	5e		 pop	 esi

; 770  :             _Alnode::value_type::_Freenode(_Al, _STD exchange(_Rootnode, _Rootnode->_Left));
; 771  :         }
; 772  :     }

  00036	5b		 pop	 ebx
  00037	5d		 pop	 ebp
  00038	c2 08 00	 ret	 8
??$_Erase_tree@V?$allocator@U?$_Tree_node@U?$pair@$$CBHPAV?$list@PAVCEventItem@@V?$allocator@PAVCEventItem@@@std@@@std@@@std@@PAX@std@@@std@@@?$_Tree_val@U?$_Tree_simple_types@U?$pair@$$CBHPAV?$list@PAVCEventItem@@V?$allocator@PAVCEventItem@@@std@@@std@@@std@@@std@@@std@@QAEXAAV?$allocator@U?$_Tree_node@U?$pair@$$CBHPAV?$list@PAVCEventItem@@V?$allocator@PAVCEventItem@@@std@@@std@@@std@@PAX@std@@@1@PAU?$_Tree_node@U?$pair@$$CBHPAV?$list@PAVCEventItem@@V?$allocator@PAVCEventItem@@@std@@@std@@@std@@PAX@1@@Z ENDP ; std::_Tree_val<std::_Tree_simple_types<std::pair<int const ,std::list<CEventItem *,std::allocator<CEventItem *> > *> > >::_Erase_tree<std::allocator<std::_Tree_node<std::pair<int const ,std::list<CEventItem *,std::allocator<CEventItem *> > *>,void *> > >
_TEXT	ENDS
; Function compile flags: /Ogtp
;	COMDAT ??__FsEventGeneric@?1??GetInstance@CEventGeneric@@SAPAV1@XZ@YAXXZ
text$yd	SEGMENT
??__FsEventGeneric@?1??GetInstance@CEventGeneric@@SAPAV1@XZ@YAXXZ PROC ; `CEventGeneric::GetInstance'::`2'::`dynamic atexit destructor for 'sEventGeneric'', COMDAT
  00000	b9 00 00 00 00	 mov	 ecx, OFFSET ?sEventGeneric@?1??GetInstance@CEventGeneric@@SAPAV2@XZ@4V2@A
  00005	e9 00 00 00 00	 jmp	 ??1CEventGeneric@@UAE@XZ ; CEventGeneric::~CEventGeneric
??__FsEventGeneric@?1??GetInstance@CEventGeneric@@SAPAV1@XZ@YAXXZ ENDP ; `CEventGeneric::GetInstance'::`2'::`dynamic atexit destructor for 'sEventGeneric''
text$yd	ENDS
; Function compile flags: /Ogtp
; File C:\Program Files\Microsoft Visual Studio\2022\Professional\VC\Tools\MSVC\14.44.35207\include\xtree
; File C:\Program Files\Microsoft Visual Studio\2022\Professional\VC\Tools\MSVC\14.44.35207\include\type_traits
; File C:\Program Files\Microsoft Visual Studio\2022\Professional\VC\Tools\MSVC\14.44.35207\include\xtree
; File C:\Program Files\Microsoft Visual Studio\2022\Professional\VC\Tools\MSVC\14.44.35207\include\utility
; File C:\Program Files\Microsoft Visual Studio\2022\Professional\VC\Tools\MSVC\14.44.35207\include\xtree
; File C:\Program Files\Microsoft Visual Studio\2022\Professional\VC\Tools\MSVC\14.44.35207\include\xmemory
; File C:\Program Files\Microsoft Visual Studio\2022\Professional\VC\Tools\MSVC\14.44.35207\include\xtree
; File C:\Program Files\Microsoft Visual Studio\2022\Professional\VC\Tools\MSVC\14.44.35207\include\xmemory
; File C:\Program Files\Microsoft Visual Studio\2022\Professional\VC\Tools\MSVC\14.44.35207\include\xtree
; File C:\Program Files\Microsoft Visual Studio\2022\Professional\VC\Tools\MSVC\14.44.35207\include\xmemory
; File C:\Program Files\Microsoft Visual Studio\2022\Professional\VC\Tools\MSVC\14.44.35207\include\xtree
; File C:\Program Files\Microsoft Visual Studio\2022\Professional\VC\Tools\MSVC\14.44.35207\include\utility
; File C:\Program Files\Microsoft Visual Studio\2022\Professional\VC\Tools\MSVC\14.44.35207\include\xtree
;	COMDAT ??$insert@$0A@$0A@@?$_Tree@V?$_Tmap_traits@HPAV?$list@PAVCEventItem@@V?$allocator@PAVCEventItem@@@std@@@std@@U?$less@H@2@V?$allocator@U?$pair@$$CBHPAV?$list@PAVCEventItem@@V?$allocator@PAVCEventItem@@@std@@@std@@@std@@@2@$0A@@std@@@std@@QAE?AU?$pair@V?$_Tree_iterator@V?$_Tree_val@U?$_Tree_simple_types@U?$pair@$$CBHPAV?$list@PAVCEventItem@@V?$allocator@PAVCEventItem@@@std@@@std@@@std@@@std@@@std@@@std@@_N@1@$$QAU?$pair@$$CBHPAV?$list@PAVCEventItem@@V?$allocator@PAVCEventItem@@@std@@@std@@@1@@Z
_TEXT	SEGMENT
__Loc$2 = -36						; size = 12
$T3 = -24						; size = 12
$T4 = -20						; size = 8
__$EHRec$ = -12						; size = 12
___$ReturnUdt$ = 8					; size = 4
__Val$ = 12						; size = 4
??$insert@$0A@$0A@@?$_Tree@V?$_Tmap_traits@HPAV?$list@PAVCEventItem@@V?$allocator@PAVCEventItem@@@std@@@std@@U?$less@H@2@V?$allocator@U?$pair@$$CBHPAV?$list@PAVCEventItem@@V?$allocator@PAVCEventItem@@@std@@@std@@@std@@@2@$0A@@std@@@std@@QAE?AU?$pair@V?$_Tree_iterator@V?$_Tree_val@U?$_Tree_simple_types@U?$pair@$$CBHPAV?$list@PAVCEventItem@@V?$allocator@PAVCEventItem@@@std@@@std@@@std@@@std@@@std@@@std@@_N@1@$$QAU?$pair@$$CBHPAV?$list@PAVCEventItem@@V?$allocator@PAVCEventItem@@@std@@@std@@@1@@Z PROC ; std::_Tree<std::_Tmap_traits<int,std::list<CEventItem *,std::allocator<CEventItem *> > *,std::less<int>,std::allocator<std::pair<int const ,std::list<CEventItem *,std::allocator<CEventItem *> > *> >,0> >::insert<0,0>, COMDAT
; _this$ = ecx

; 1245 :     pair<iterator, bool> insert(value_type&& _Val) {

  00000	55		 push	 ebp
  00001	8b ec		 mov	 ebp, esp
  00003	6a ff		 push	 -1
  00005	68 00 00 00 00	 push	 __ehhandler$??$insert@$0A@$0A@@?$_Tree@V?$_Tmap_traits@HPAV?$list@PAVCEventItem@@V?$allocator@PAVCEventItem@@@std@@@std@@U?$less@H@2@V?$allocator@U?$pair@$$CBHPAV?$list@PAVCEventItem@@V?$allocator@PAVCEventItem@@@std@@@std@@@std@@@2@$0A@@std@@@std@@QAE?AU?$pair@V?$_Tree_iterator@V?$_Tree_val@U?$_Tree_simple_types@U?$pair@$$CBHPAV?$list@PAVCEventItem@@V?$allocator@PAVCEventItem@@@std@@@std@@@std@@@std@@@std@@@std@@_N@1@$$QAU?$pair@$$CBHPAV?$list@PAVCEventItem@@V?$allocator@PAVCEventItem@@@std@@@std@@@1@@Z
  0000a	64 a1 00 00 00
	00		 mov	 eax, DWORD PTR fs:0
  00010	50		 push	 eax
  00011	83 ec 18	 sub	 esp, 24			; 00000018H
  00014	53		 push	 ebx
  00015	56		 push	 esi
  00016	57		 push	 edi
  00017	a1 00 00 00 00	 mov	 eax, DWORD PTR ___security_cookie
  0001c	33 c5		 xor	 eax, ebp
  0001e	50		 push	 eax
  0001f	8d 45 f4	 lea	 eax, DWORD PTR __$EHRec$[ebp]
  00022	64 a3 00 00 00
	00		 mov	 DWORD PTR fs:0, eax
  00028	8b f9		 mov	 edi, ecx

; 1017 :             _Loc                = _Find_lower_bound(_Keyval);

  0002a	8b 5d 0c	 mov	 ebx, DWORD PTR __Val$[ebp]
  0002d	8d 45 e8	 lea	 eax, DWORD PTR $T3[ebp]
  00030	53		 push	 ebx
  00031	50		 push	 eax
  00032	e8 00 00 00 00	 call	 ??$_Find_lower_bound@H@?$_Tree@V?$_Tmap_traits@HPAV?$list@PAVCEventItem@@V?$allocator@PAVCEventItem@@@std@@@std@@U?$less@H@2@V?$allocator@U?$pair@$$CBHPAV?$list@PAVCEventItem@@V?$allocator@PAVCEventItem@@@std@@@std@@@std@@@2@$0A@@std@@@std@@IBE?AU?$_Tree_find_result@PAU?$_Tree_node@U?$pair@$$CBHPAV?$list@PAVCEventItem@@V?$allocator@PAVCEventItem@@@std@@@std@@@std@@PAX@std@@@1@ABH@Z ; std::_Tree<std::_Tmap_traits<int,std::list<CEventItem *,std::allocator<CEventItem *> > *,std::less<int>,std::allocator<std::pair<int const ,std::list<CEventItem *,std::allocator<CEventItem *> > *> >,0> >::_Find_lower_bound<int>
  00037	8b 48 08	 mov	 ecx, DWORD PTR [eax+8]
  0003a	f3 0f 7e 00	 movq	 xmm0, QWORD PTR [eax]
  0003e	66 0f d6 45 dc	 movq	 QWORD PTR __Loc$2[ebp], xmm0

; 1624 :         return !_Bound->_Isnil && !_DEBUG_LT_PRED(_Getcomp(), _Keyval, _Traits::_Kfn(_Bound->_Myval));

  00043	80 79 0d 00	 cmp	 BYTE PTR [ecx+13], 0
  00047	75 0b		 jne	 SHORT $LN4@insert
; File C:\Program Files\Microsoft Visual Studio\2022\Professional\VC\Tools\MSVC\14.44.35207\include\type_traits

; 2380 :         return _Left < _Right;

  00049	8b 03		 mov	 eax, DWORD PTR [ebx]
  0004b	3b 41 10	 cmp	 eax, DWORD PTR [ecx+16]
; File C:\Program Files\Microsoft Visual Studio\2022\Professional\VC\Tools\MSVC\14.44.35207\include\xtree

; 1624 :         return !_Bound->_Isnil && !_DEBUG_LT_PRED(_Getcomp(), _Keyval, _Traits::_Kfn(_Bound->_Myval));

  0004e	7c 04		 jl	 SHORT $LN4@insert
; File C:\Program Files\Microsoft Visual Studio\2022\Professional\VC\Tools\MSVC\14.44.35207\include\utility

; 274  :         : first(_STD forward<_Other1>(_Val1)), second(_STD forward<_Other2>(_Val2)) {

  00050	32 d2		 xor	 dl, dl
; File C:\Program Files\Microsoft Visual Studio\2022\Professional\VC\Tools\MSVC\14.44.35207\include\xtree

; 1019 :                 return {_Loc._Bound, false};

  00052	eb 51		 jmp	 SHORT $LN84@insert
$LN4@insert:

; 1648 :         if (max_size() == _Get_scary()->_Mysize) {

  00054	81 7f 04 aa aa
	aa 0a		 cmp	 DWORD PTR [edi+4], 178956970 ; 0aaaaaaaH
  0005b	74 64		 je	 SHORT $LN103@insert

; 1023 :             _Inserted = _Tree_temp_node<_Alnode>(_Getal(), _Scary->_Myhead, _STD forward<_Valtys>(_Vals)...)._Release();

  0005d	8b 37		 mov	 esi, DWORD PTR [edi]
; File C:\Program Files\Microsoft Visual Studio\2022\Professional\VC\Tools\MSVC\14.44.35207\include\xmemory

; 1160 :     _CONSTEXPR20 explicit _Alloc_construct_ptr(_Alloc& _Al_) : _Al(_Al_), _Ptr(nullptr) {}

  0005f	89 7d ec	 mov	 DWORD PTR $T4[ebp], edi

; 136  :         return ::operator new(_Bytes);

  00062	6a 18		 push	 24			; 00000018H
; File C:\Program Files\Microsoft Visual Studio\2022\Professional\VC\Tools\MSVC\14.44.35207\include\xtree

; 808  :     explicit _Tree_temp_node_alloc(_Alnode& _Al_) : _Alloc_construct_ptr<_Alnode>(_Al_) {

  00064	c7 45 fc 00 00
	00 00		 mov	 DWORD PTR __$EHRec$[ebp+8], 0
; File C:\Program Files\Microsoft Visual Studio\2022\Professional\VC\Tools\MSVC\14.44.35207\include\xmemory

; 1167 :         _Ptr = nullptr; // if allocate throws, prevents double-free

  0006b	c7 45 f0 00 00
	00 00		 mov	 DWORD PTR $T4[ebp+4], 0

; 136  :         return ::operator new(_Bytes);

  00072	e8 00 00 00 00	 call	 ??2@YAPAXI@Z		; operator new
; File C:\Program Files\Microsoft Visual Studio\2022\Professional\VC\Tools\MSVC\14.44.35207\include\xtree

; 830  :         _Alnode_traits::construct(this->_Al, _STD addressof(this->_Ptr->_Myval), _STD forward<_Valtys>(_Vals)...);

  00077	8b 0b		 mov	 ecx, DWORD PTR [ebx]
; File C:\Program Files\Microsoft Visual Studio\2022\Professional\VC\Tools\MSVC\14.44.35207\include\xmemory

; 136  :         return ::operator new(_Bytes);

  00079	83 c4 04	 add	 esp, 4
; File C:\Program Files\Microsoft Visual Studio\2022\Professional\VC\Tools\MSVC\14.44.35207\include\xtree

; 830  :         _Alnode_traits::construct(this->_Al, _STD addressof(this->_Ptr->_Myval), _STD forward<_Valtys>(_Vals)...);

  0007c	8b 53 04	 mov	 edx, DWORD PTR [ebx+4]
  0007f	89 48 10	 mov	 DWORD PTR [eax+16], ecx

; 1042 :         return {_Scary->_Insert_node(_Loc._Location, _Inserted), true};

  00082	8b cf		 mov	 ecx, edi
  00084	50		 push	 eax
  00085	ff 75 e0	 push	 DWORD PTR __Loc$2[ebp+4]

; 830  :         _Alnode_traits::construct(this->_Al, _STD addressof(this->_Ptr->_Myval), _STD forward<_Valtys>(_Vals)...);

  00088	89 50 14	 mov	 DWORD PTR [eax+20], edx

; 1042 :         return {_Scary->_Insert_node(_Loc._Location, _Inserted), true};

  0008b	ff 75 dc	 push	 DWORD PTR __Loc$2[ebp]

; 831  :         _Construct_in_place(this->_Ptr->_Left, _Myhead);

  0008e	89 30		 mov	 DWORD PTR [eax], esi

; 832  :         _Construct_in_place(this->_Ptr->_Parent, _Myhead);

  00090	89 70 04	 mov	 DWORD PTR [eax+4], esi

; 833  :         _Construct_in_place(this->_Ptr->_Right, _Myhead);

  00093	89 70 08	 mov	 DWORD PTR [eax+8], esi

; 834  :         this->_Ptr->_Color = _Red;

  00096	66 c7 40 0c 00
	00		 mov	 WORD PTR [eax+12], 0

; 1042 :         return {_Scary->_Insert_node(_Loc._Location, _Inserted), true};

  0009c	e8 00 00 00 00	 call	 ?_Insert_node@?$_Tree_val@U?$_Tree_simple_types@U?$pair@$$CBHPAV?$list@PAVCEventItem@@V?$allocator@PAVCEventItem@@@std@@@std@@@std@@@std@@@std@@QAEPAU?$_Tree_node@U?$pair@$$CBHPAV?$list@PAVCEventItem@@V?$allocator@PAVCEventItem@@@std@@@std@@@std@@PAX@2@U?$_Tree_id@PAU?$_Tree_node@U?$pair@$$CBHPAV?$list@PAVCEventItem@@V?$allocator@PAVCEventItem@@@std@@@std@@@std@@PAX@std@@@2@QAU32@@Z ; std::_Tree_val<std::_Tree_simple_types<std::pair<int const ,std::list<CEventItem *,std::allocator<CEventItem *> > *> > >::_Insert_node
; File C:\Program Files\Microsoft Visual Studio\2022\Professional\VC\Tools\MSVC\14.44.35207\include\utility

; 274  :         : first(_STD forward<_Other1>(_Val1)), second(_STD forward<_Other2>(_Val2)) {

  000a1	8b c8		 mov	 ecx, eax
  000a3	b2 01		 mov	 dl, 1
$LN84@insert:
  000a5	8b 45 08	 mov	 eax, DWORD PTR ___$ReturnUdt$[ebp]
  000a8	89 08		 mov	 DWORD PTR [eax], ecx
  000aa	88 50 04	 mov	 BYTE PTR [eax+4], dl
; File C:\Program Files\Microsoft Visual Studio\2022\Professional\VC\Tools\MSVC\14.44.35207\include\xtree

; 1248 :     }

  000ad	8b 4d f4	 mov	 ecx, DWORD PTR __$EHRec$[ebp]
  000b0	64 89 0d 00 00
	00 00		 mov	 DWORD PTR fs:0, ecx
  000b7	59		 pop	 ecx
  000b8	5f		 pop	 edi
  000b9	5e		 pop	 esi
  000ba	5b		 pop	 ebx
  000bb	8b e5		 mov	 esp, ebp
  000bd	5d		 pop	 ebp
  000be	c2 08 00	 ret	 8
$LN103@insert:

; 1649 :             _Throw_tree_length_error();

  000c1	e8 00 00 00 00	 call	 ?_Throw_tree_length_error@std@@YAXXZ ; std::_Throw_tree_length_error
$LN101@insert:
  000c6	cc		 int	 3
_TEXT	ENDS
;	COMDAT text$x
text$x	SEGMENT
__unwindfunclet$??$insert@$0A@$0A@@?$_Tree@V?$_Tmap_traits@HPAV?$list@PAVCEventItem@@V?$allocator@PAVCEventItem@@@std@@@std@@U?$less@H@2@V?$allocator@U?$pair@$$CBHPAV?$list@PAVCEventItem@@V?$allocator@PAVCEventItem@@@std@@@std@@@std@@@2@$0A@@std@@@std@@QAE?AU?$pair@V?$_Tree_iterator@V?$_Tree_val@U?$_Tree_simple_types@U?$pair@$$CBHPAV?$list@PAVCEventItem@@V?$allocator@PAVCEventItem@@@std@@@std@@@std@@@std@@@std@@@std@@_N@1@$$QAU?$pair@$$CBHPAV?$list@PAVCEventItem@@V?$allocator@PAVCEventItem@@@std@@@std@@@1@@Z$2:
  00000	8d 4d ec	 lea	 ecx, DWORD PTR $T4[ebp]
  00003	e9 00 00 00 00	 jmp	 ??1?$_Alloc_construct_ptr@V?$allocator@U?$_Tree_node@U?$pair@$$CBHPAV?$list@PAVCEventItem@@V?$allocator@PAVCEventItem@@@std@@@std@@@std@@PAX@std@@@std@@@std@@QAE@XZ ; std::_Alloc_construct_ptr<std::allocator<std::_Tree_node<std::pair<int const ,std::list<CEventItem *,std::allocator<CEventItem *> > *>,void *> > >::~_Alloc_construct_ptr<std::allocator<std::_Tree_node<std::pair<int const ,std::list<CEventItem *,std::allocator<CEventItem *> > *>,void *> > >
  00008	cc		 int	 3
  00009	cc		 int	 3
  0000a	cc		 int	 3
  0000b	cc		 int	 3
  0000c	cc		 int	 3
__ehhandler$??$insert@$0A@$0A@@?$_Tree@V?$_Tmap_traits@HPAV?$list@PAVCEventItem@@V?$allocator@PAVCEventItem@@@std@@@std@@U?$less@H@2@V?$allocator@U?$pair@$$CBHPAV?$list@PAVCEventItem@@V?$allocator@PAVCEventItem@@@std@@@std@@@std@@@2@$0A@@std@@@std@@QAE?AU?$pair@V?$_Tree_iterator@V?$_Tree_val@U?$_Tree_simple_types@U?$pair@$$CBHPAV?$list@PAVCEventItem@@V?$allocator@PAVCEventItem@@@std@@@std@@@std@@@std@@@std@@@std@@_N@1@$$QAU?$pair@$$CBHPAV?$list@PAVCEventItem@@V?$allocator@PAVCEventItem@@@std@@@std@@@1@@Z:
  0000d	90		 npad	 1
  0000e	90		 npad	 1
  0000f	8b 54 24 08	 mov	 edx, DWORD PTR [esp+8]
  00013	8d 42 0c	 lea	 eax, DWORD PTR [edx+12]
  00016	8b 4a d8	 mov	 ecx, DWORD PTR [edx-40]
  00019	33 c8		 xor	 ecx, eax
  0001b	e8 00 00 00 00	 call	 @__security_check_cookie@4
  00020	b8 00 00 00 00	 mov	 eax, OFFSET __ehfuncinfo$??$insert@$0A@$0A@@?$_Tree@V?$_Tmap_traits@HPAV?$list@PAVCEventItem@@V?$allocator@PAVCEventItem@@@std@@@std@@U?$less@H@2@V?$allocator@U?$pair@$$CBHPAV?$list@PAVCEventItem@@V?$allocator@PAVCEventItem@@@std@@@std@@@std@@@2@$0A@@std@@@std@@QAE?AU?$pair@V?$_Tree_iterator@V?$_Tree_val@U?$_Tree_simple_types@U?$pair@$$CBHPAV?$list@PAVCEventItem@@V?$allocator@PAVCEventItem@@@std@@@std@@@std@@@std@@@std@@@std@@_N@1@$$QAU?$pair@$$CBHPAV?$list@PAVCEventItem@@V?$allocator@PAVCEventItem@@@std@@@std@@@1@@Z
  00025	e9 00 00 00 00	 jmp	 ___CxxFrameHandler3
text$x	ENDS
??$insert@$0A@$0A@@?$_Tree@V?$_Tmap_traits@HPAV?$list@PAVCEventItem@@V?$allocator@PAVCEventItem@@@std@@@std@@U?$less@H@2@V?$allocator@U?$pair@$$CBHPAV?$list@PAVCEventItem@@V?$allocator@PAVCEventItem@@@std@@@std@@@std@@@2@$0A@@std@@@std@@QAE?AU?$pair@V?$_Tree_iterator@V?$_Tree_val@U?$_Tree_simple_types@U?$pair@$$CBHPAV?$list@PAVCEventItem@@V?$allocator@PAVCEventItem@@@std@@@std@@@std@@@std@@@std@@@std@@_N@1@$$QAU?$pair@$$CBHPAV?$list@PAVCEventItem@@V?$allocator@PAVCEventItem@@@std@@@std@@@1@@Z ENDP ; std::_Tree<std::_Tmap_traits<int,std::list<CEventItem *,std::allocator<CEventItem *> > *,std::less<int>,std::allocator<std::pair<int const ,std::list<CEventItem *,std::allocator<CEventItem *> > *> >,0> >::insert<0,0>
; Function compile flags: /Ogtp
; File C:\Program Files\Microsoft Visual Studio\2022\Professional\VC\Tools\MSVC\14.44.35207\include\list
; File C:\Program Files\Microsoft Visual Studio\2022\Professional\VC\Tools\MSVC\14.44.35207\include\xmemory
; File C:\Program Files\Microsoft Visual Studio\2022\Professional\VC\Tools\MSVC\14.44.35207\include\list
; File C:\Program Files\Microsoft Visual Studio\2022\Professional\VC\Tools\MSVC\14.44.35207\include\xmemory
; File C:\Program Files\Microsoft Visual Studio\2022\Professional\VC\Tools\MSVC\14.44.35207\include\list
; File C:\Program Files\Microsoft Visual Studio\2022\Professional\VC\Tools\MSVC\14.44.35207\include\xmemory
; File C:\Program Files\Microsoft Visual Studio\2022\Professional\VC\Tools\MSVC\14.44.35207\include\list
;	COMDAT ?push_back@?$list@PAVCEventItem@@V?$allocator@PAVCEventItem@@@std@@@std@@QAEXABQAVCEventItem@@@Z
_TEXT	SEGMENT
__Op$2 = -20						; size = 8
__$EHRec$ = -12						; size = 12
__Val$ = 8						; size = 4
?push_back@?$list@PAVCEventItem@@V?$allocator@PAVCEventItem@@@std@@@std@@QAEXABQAVCEventItem@@@Z PROC ; std::list<CEventItem *,std::allocator<CEventItem *> >::push_back, COMDAT
; _this$ = ecx

; 1273 :     void push_back(const _Ty& _Val) {

  00000	55		 push	 ebp
  00001	8b ec		 mov	 ebp, esp
  00003	6a ff		 push	 -1
  00005	68 00 00 00 00	 push	 __ehhandler$?push_back@?$list@PAVCEventItem@@V?$allocator@PAVCEventItem@@@std@@@std@@QAEXABQAVCEventItem@@@Z
  0000a	64 a1 00 00 00
	00		 mov	 eax, DWORD PTR fs:0
  00010	50		 push	 eax
  00011	83 ec 08	 sub	 esp, 8
  00014	56		 push	 esi
  00015	57		 push	 edi
  00016	a1 00 00 00 00	 mov	 eax, DWORD PTR ___security_cookie
  0001b	33 c5		 xor	 eax, ebp
  0001d	50		 push	 eax
  0001e	8d 45 f4	 lea	 eax, DWORD PTR __$EHRec$[ebp]
  00021	64 a3 00 00 00
	00		 mov	 DWORD PTR fs:0, eax
  00027	8b f1		 mov	 esi, ecx

; 1030 :         if (_Mysize == max_size()) {

  00029	81 7e 04 55 55
	55 15		 cmp	 DWORD PTR [esi+4], 357913941 ; 15555555H

; 1274 :         _Emplace(_Mypair._Myval2._Myhead, _Val);

  00030	8b 3e		 mov	 edi, DWORD PTR [esi]

; 1030 :         if (_Mysize == max_size()) {

  00032	74 46		 je	 SHORT $LN61@push_back
; File C:\Program Files\Microsoft Visual Studio\2022\Professional\VC\Tools\MSVC\14.44.35207\include\xmemory

; 1160 :     _CONSTEXPR20 explicit _Alloc_construct_ptr(_Alloc& _Al_) : _Al(_Al_), _Ptr(nullptr) {}

  00034	89 75 ec	 mov	 DWORD PTR __Op$2[ebp], esi

; 136  :         return ::operator new(_Bytes);

  00037	6a 0c		 push	 12			; 0000000cH
; File C:\Program Files\Microsoft Visual Studio\2022\Professional\VC\Tools\MSVC\14.44.35207\include\list

; 593  :     explicit _List_node_emplace_op2(_Alnode& _Al_, _Valtys&&... _Vals) : _Alloc_construct_ptr<_Alnode>(_Al_) {

  00039	c7 45 fc 00 00
	00 00		 mov	 DWORD PTR __$EHRec$[ebp+8], 0
; File C:\Program Files\Microsoft Visual Studio\2022\Professional\VC\Tools\MSVC\14.44.35207\include\xmemory

; 1167 :         _Ptr = nullptr; // if allocate throws, prevents double-free

  00040	c7 45 f0 00 00
	00 00		 mov	 DWORD PTR __Op$2[ebp+4], 0

; 136  :         return ::operator new(_Bytes);

  00047	e8 00 00 00 00	 call	 ??2@YAPAXI@Z		; operator new
; File C:\Program Files\Microsoft Visual Studio\2022\Professional\VC\Tools\MSVC\14.44.35207\include\list

; 595  :         _Alnode_traits::construct(this->_Al, _STD addressof(this->_Ptr->_Myval), _STD forward<_Valtys>(_Vals)...);

  0004c	8b 4d 08	 mov	 ecx, DWORD PTR __Val$[ebp]
; File C:\Program Files\Microsoft Visual Studio\2022\Professional\VC\Tools\MSVC\14.44.35207\include\xmemory

; 136  :         return ::operator new(_Bytes);

  0004f	83 c4 04	 add	 esp, 4
; File C:\Program Files\Microsoft Visual Studio\2022\Professional\VC\Tools\MSVC\14.44.35207\include\list

; 595  :         _Alnode_traits::construct(this->_Al, _STD addressof(this->_Ptr->_Myval), _STD forward<_Valtys>(_Vals)...);

  00052	8b 09		 mov	 ecx, DWORD PTR [ecx]
  00054	89 48 08	 mov	 DWORD PTR [eax+8], ecx

; 1035 :         ++_Mysize;

  00057	ff 46 04	 inc	 DWORD PTR [esi+4]

; 608  :         const pointer _Insert_after = _Insert_before->_Prev;

  0005a	8b 4f 04	 mov	 ecx, DWORD PTR [edi+4]

; 609  :         _Construct_in_place(this->_Ptr->_Next, _Insert_before);

  0005d	89 38		 mov	 DWORD PTR [eax], edi

; 610  :         _Construct_in_place(this->_Ptr->_Prev, _Insert_after);

  0005f	89 48 04	 mov	 DWORD PTR [eax+4], ecx

; 611  :         const auto _Result    = this->_Ptr;
; 612  :         this->_Ptr            = pointer{};
; 613  :         _Insert_before->_Prev = _Result;

  00062	89 47 04	 mov	 DWORD PTR [edi+4], eax

; 614  :         _Insert_after->_Next  = _Result;

  00065	89 01		 mov	 DWORD PTR [ecx], eax

; 1275 :     }

  00067	8b 4d f4	 mov	 ecx, DWORD PTR __$EHRec$[ebp]
  0006a	64 89 0d 00 00
	00 00		 mov	 DWORD PTR fs:0, ecx
  00071	59		 pop	 ecx
  00072	5f		 pop	 edi
  00073	5e		 pop	 esi
  00074	8b e5		 mov	 esp, ebp
  00076	5d		 pop	 ebp
  00077	c2 04 00	 ret	 4
$LN61@push_back:

; 1031 :             _Xlength_error("list too long");

  0007a	68 00 00 00 00	 push	 OFFSET ??_C@_0O@NKNMEGII@list?5too?5long@
  0007f	e8 00 00 00 00	 call	 ?_Xlength_error@std@@YAXPBD@Z ; std::_Xlength_error
$LN59@push_back:
  00084	cc		 int	 3
_TEXT	ENDS
;	COMDAT text$x
text$x	SEGMENT
__unwindfunclet$?push_back@?$list@PAVCEventItem@@V?$allocator@PAVCEventItem@@@std@@@std@@QAEXABQAVCEventItem@@@Z$1:
  00000	8d 4d ec	 lea	 ecx, DWORD PTR __Op$2[ebp]
  00003	e9 00 00 00 00	 jmp	 ??1?$_Alloc_construct_ptr@V?$allocator@U?$_List_node@PAVCEventItem@@PAX@std@@@std@@@std@@QAE@XZ ; std::_Alloc_construct_ptr<std::allocator<std::_List_node<CEventItem *,void *> > >::~_Alloc_construct_ptr<std::allocator<std::_List_node<CEventItem *,void *> > >
  00008	cc		 int	 3
  00009	cc		 int	 3
  0000a	cc		 int	 3
  0000b	cc		 int	 3
  0000c	cc		 int	 3
__ehhandler$?push_back@?$list@PAVCEventItem@@V?$allocator@PAVCEventItem@@@std@@@std@@QAEXABQAVCEventItem@@@Z:
  0000d	90		 npad	 1
  0000e	90		 npad	 1
  0000f	8b 54 24 08	 mov	 edx, DWORD PTR [esp+8]
  00013	8d 42 0c	 lea	 eax, DWORD PTR [edx+12]
  00016	8b 4a ec	 mov	 ecx, DWORD PTR [edx-20]
  00019	33 c8		 xor	 ecx, eax
  0001b	e8 00 00 00 00	 call	 @__security_check_cookie@4
  00020	b8 00 00 00 00	 mov	 eax, OFFSET __ehfuncinfo$?push_back@?$list@PAVCEventItem@@V?$allocator@PAVCEventItem@@@std@@@std@@QAEXABQAVCEventItem@@@Z
  00025	e9 00 00 00 00	 jmp	 ___CxxFrameHandler3
text$x	ENDS
?push_back@?$list@PAVCEventItem@@V?$allocator@PAVCEventItem@@@std@@@std@@QAEXABQAVCEventItem@@@Z ENDP ; std::list<CEventItem *,std::allocator<CEventItem *> >::push_back
; Function compile flags: /Ogtp
; File C:\IAGOS\server\v18\Source\Source\_Network\Misc\Include\Ar.h
;	COMDAT ??$?5H@CAr@@QAEAAV0@AAH@Z
_TEXT	SEGMENT
_t$ = 8							; size = 4
??$?5H@CAr@@QAEAAV0@AAH@Z PROC				; CAr::operator>><int>, COMDAT
; _this$ = ecx

; 302  : {

  00000	55		 push	 ebp
  00001	8b ec		 mov	 ebp, esp
  00003	8b d1		 mov	 edx, ecx

; 303  : 	if (m_lpBufCur + sizeof(T) <= m_lpBufMax)

  00005	8b 4a 08	 mov	 ecx, DWORD PTR [edx+8]
  00008	8d 41 04	 lea	 eax, DWORD PTR [ecx+4]
  0000b	3b 42 0c	 cmp	 eax, DWORD PTR [edx+12]
  0000e	8b 45 08	 mov	 eax, DWORD PTR _t$[ebp]
  00011	77 0e		 ja	 SHORT $LN2@operator

; 304  : 	{
; 305  : 		t = *(UNALIGNED T*)m_lpBufCur;

  00013	8b 09		 mov	 ecx, DWORD PTR [ecx]
  00015	89 08		 mov	 DWORD PTR [eax], ecx

; 312  : 	}
; 313  : 	return *this;
; 314  : }

  00017	8b c2		 mov	 eax, edx
  00019	83 42 08 04	 add	 DWORD PTR [edx+8], 4
  0001d	5d		 pop	 ebp
  0001e	c2 04 00	 ret	 4
$LN2@operator:

; 306  : 		m_lpBufCur += sizeof(T);
; 307  : 	}
; 308  : 	else
; 309  : 	{
; 310  : 		t = T();

  00021	c7 00 00 00 00
	00		 mov	 DWORD PTR [eax], 0

; 311  : 		m_lpBufCur = m_lpBufMax;

  00027	8b 42 0c	 mov	 eax, DWORD PTR [edx+12]
  0002a	89 42 08	 mov	 DWORD PTR [edx+8], eax

; 312  : 	}
; 313  : 	return *this;
; 314  : }

  0002d	8b c2		 mov	 eax, edx
  0002f	5d		 pop	 ebp
  00030	c2 04 00	 ret	 4
??$?5H@CAr@@QAEAAV0@AAH@Z ENDP				; CAr::operator>><int>
_TEXT	ENDS
; Function compile flags: /Ogtp
; File C:\IAGOS\server\v18\Source\Source\_Network\Misc\Include\Ar.h
;	COMDAT ??$?5K@CAr@@QAEAAV0@AAK@Z
_TEXT	SEGMENT
_t$ = 8							; size = 4
??$?5K@CAr@@QAEAAV0@AAK@Z PROC				; CAr::operator>><unsigned long>, COMDAT
; _this$ = ecx

; 302  : {

  00000	55		 push	 ebp
  00001	8b ec		 mov	 ebp, esp
  00003	8b d1		 mov	 edx, ecx

; 303  : 	if (m_lpBufCur + sizeof(T) <= m_lpBufMax)

  00005	8b 4a 08	 mov	 ecx, DWORD PTR [edx+8]
  00008	8d 41 04	 lea	 eax, DWORD PTR [ecx+4]
  0000b	3b 42 0c	 cmp	 eax, DWORD PTR [edx+12]
  0000e	8b 45 08	 mov	 eax, DWORD PTR _t$[ebp]
  00011	77 0e		 ja	 SHORT $LN2@operator

; 304  : 	{
; 305  : 		t = *(UNALIGNED T*)m_lpBufCur;

  00013	8b 09		 mov	 ecx, DWORD PTR [ecx]
  00015	89 08		 mov	 DWORD PTR [eax], ecx

; 312  : 	}
; 313  : 	return *this;
; 314  : }

  00017	8b c2		 mov	 eax, edx
  00019	83 42 08 04	 add	 DWORD PTR [edx+8], 4
  0001d	5d		 pop	 ebp
  0001e	c2 04 00	 ret	 4
$LN2@operator:

; 306  : 		m_lpBufCur += sizeof(T);
; 307  : 	}
; 308  : 	else
; 309  : 	{
; 310  : 		t = T();

  00021	c7 00 00 00 00
	00		 mov	 DWORD PTR [eax], 0

; 311  : 		m_lpBufCur = m_lpBufMax;

  00027	8b 42 0c	 mov	 eax, DWORD PTR [edx+12]
  0002a	89 42 08	 mov	 DWORD PTR [edx+8], eax

; 312  : 	}
; 313  : 	return *this;
; 314  : }

  0002d	8b c2		 mov	 eax, edx
  0002f	5d		 pop	 ebp
  00030	c2 04 00	 ret	 4
??$?5K@CAr@@QAEAAV0@AAK@Z ENDP				; CAr::operator>><unsigned long>
_TEXT	ENDS
; Function compile flags: /Ogtp
; File C:\IAGOS\server\v18\Source\Source\_Network\Misc\Include\Ar.h
;	COMDAT ??$?6H@CAr@@QAEAAV0@ABH@Z
_TEXT	SEGMENT
_t$ = 8							; size = 4
??$?6H@CAr@@QAEAAV0@ABH@Z PROC				; CAr::operator<<<int>, COMDAT
; _this$ = ecx

; 255  : {

  00000	55		 push	 ebp
  00001	8b ec		 mov	 ebp, esp
  00003	56		 push	 esi

; 256  : 	CheckBuf(sizeof(T));

  00004	6a 04		 push	 4
  00006	8b f1		 mov	 esi, ecx
  00008	e8 00 00 00 00	 call	 ?CheckBuf@CAr@@QAEXI@Z	; CAr::CheckBuf

; 257  : 	*(UNALIGNED T*)m_lpBufCur = t;

  0000d	8b 56 08	 mov	 edx, DWORD PTR [esi+8]
  00010	8b 45 08	 mov	 eax, DWORD PTR _t$[ebp]
  00013	8b 00		 mov	 eax, DWORD PTR [eax]
  00015	89 02		 mov	 DWORD PTR [edx], eax

; 258  : 	m_lpBufCur += sizeof(T);
; 259  : 	return *this;

  00017	8b c6		 mov	 eax, esi
  00019	83 46 08 04	 add	 DWORD PTR [esi+8], 4
  0001d	5e		 pop	 esi

; 260  : }

  0001e	5d		 pop	 ebp
  0001f	c2 04 00	 ret	 4
??$?6H@CAr@@QAEAAV0@ABH@Z ENDP				; CAr::operator<<<int>
_TEXT	ENDS
; Function compile flags: /Ogtp
; File C:\IAGOS\server\v18\Source\Source\_Network\Misc\Include\Ar.h
;	COMDAT ??$?6K@CAr@@QAEAAV0@ABK@Z
_TEXT	SEGMENT
_t$ = 8							; size = 4
??$?6K@CAr@@QAEAAV0@ABK@Z PROC				; CAr::operator<<<unsigned long>, COMDAT
; _this$ = ecx

; 255  : {

  00000	55		 push	 ebp
  00001	8b ec		 mov	 ebp, esp
  00003	56		 push	 esi

; 256  : 	CheckBuf(sizeof(T));

  00004	6a 04		 push	 4
  00006	8b f1		 mov	 esi, ecx
  00008	e8 00 00 00 00	 call	 ?CheckBuf@CAr@@QAEXI@Z	; CAr::CheckBuf

; 257  : 	*(UNALIGNED T*)m_lpBufCur = t;

  0000d	8b 56 08	 mov	 edx, DWORD PTR [esi+8]
  00010	8b 45 08	 mov	 eax, DWORD PTR _t$[ebp]
  00013	8b 00		 mov	 eax, DWORD PTR [eax]
  00015	89 02		 mov	 DWORD PTR [edx], eax

; 258  : 	m_lpBufCur += sizeof(T);
; 259  : 	return *this;

  00017	8b c6		 mov	 eax, esi
  00019	83 46 08 04	 add	 DWORD PTR [esi+8], 4
  0001d	5e		 pop	 esi

; 260  : }

  0001e	5d		 pop	 ebp
  0001f	c2 04 00	 ret	 4
??$?6K@CAr@@QAEAAV0@ABK@Z ENDP				; CAr::operator<<<unsigned long>
_TEXT	ENDS
; Function compile flags: /Ogtp
;	COMDAT ??__FsXMasEvent@?1??GetInstance@CXMasEvent@@SAPAV1@XZ@YAXXZ
text$yd	SEGMENT
??__FsXMasEvent@?1??GetInstance@CXMasEvent@@SAPAV1@XZ@YAXXZ PROC ; `CXMasEvent::GetInstance'::`2'::`dynamic atexit destructor for 'sXMasEvent'', COMDAT
  00000	b9 00 00 00 00	 mov	 ecx, OFFSET ?sXMasEvent@?1??GetInstance@CXMasEvent@@SAPAV2@XZ@4V2@A
  00005	e9 00 00 00 00	 jmp	 ??1CXMasEvent@@UAE@XZ	; CXMasEvent::~CXMasEvent
??__FsXMasEvent@?1??GetInstance@CXMasEvent@@SAPAV1@XZ@YAXXZ ENDP ; `CXMasEvent::GetInstance'::`2'::`dynamic atexit destructor for 'sXMasEvent''
text$yd	ENDS
; Function compile flags: /Ogtp
;	COMDAT ??_GCEventGeneric@@UAEPAXI@Z
_TEXT	SEGMENT
___flags$ = 8						; size = 4
??_GCEventGeneric@@UAEPAXI@Z PROC			; CEventGeneric::`scalar deleting destructor', COMDAT
; _this$ = ecx
  00000	55		 push	 ebp
  00001	8b ec		 mov	 ebp, esp
  00003	56		 push	 esi
  00004	8b f1		 mov	 esi, ecx
  00006	e8 00 00 00 00	 call	 ??1CEventGeneric@@UAE@XZ ; CEventGeneric::~CEventGeneric
  0000b	f6 45 08 01	 test	 BYTE PTR ___flags$[ebp], 1
  0000f	74 0b		 je	 SHORT $LN5@scalar
  00011	6a 18		 push	 24			; 00000018H
  00013	56		 push	 esi
  00014	e8 00 00 00 00	 call	 ??3@YAXPAXI@Z		; operator delete
  00019	83 c4 08	 add	 esp, 8
$LN5@scalar:
  0001c	8b c6		 mov	 eax, esi
  0001e	5e		 pop	 esi
  0001f	5d		 pop	 ebp
  00020	c2 04 00	 ret	 4
??_GCEventGeneric@@UAEPAXI@Z ENDP			; CEventGeneric::`scalar deleting destructor'
_TEXT	ENDS
; Function compile flags: /Ogtp
; File C:\IAGOS\server\v18\Source\Source\_Common\spevent.cpp
; File C:\Program Files\Microsoft Visual Studio\2022\Professional\VC\Tools\MSVC\14.44.35207\include\list
; File C:\IAGOS\server\v18\Source\Source\_Common\spevent.cpp
; File C:\Program Files\Microsoft Visual Studio\2022\Professional\VC\Tools\MSVC\14.44.35207\include\list
; File C:\IAGOS\server\v18\Source\Source\_Common\spevent.cpp
; File C:\Program Files\Microsoft Visual Studio\2022\Professional\VC\Tools\MSVC\14.44.35207\include\list
; File C:\IAGOS\server\v18\Source\Source\_Common\spevent.cpp
;	COMDAT ?GetEvent@CEventGeneric@@QAEPAU_EVENT_GENERIC@@H@Z
_TEXT	SEGMENT
_nEvent$ = 8						; size = 4
?GetEvent@CEventGeneric@@QAEPAU_EVENT_GENERIC@@H@Z PROC	; CEventGeneric::GetEvent, COMDAT
; _this$ = ecx

; 496  : {

  00000	55		 push	 ebp
  00001	8b ec		 mov	 ebp, esp
; File C:\Program Files\Microsoft Visual Studio\2022\Professional\VC\Tools\MSVC\14.44.35207\include\list

; 1105 :         return iterator(_Mypair._Myval2._Myhead->_Next, _STD addressof(_Mypair._Myval2));

  00003	8b 51 08	 mov	 edx, DWORD PTR [ecx+8]
; File C:\IAGOS\server\v18\Source\Source\_Common\spevent.cpp

; 496  : {

  00006	56		 push	 esi
; File C:\Program Files\Microsoft Visual Studio\2022\Professional\VC\Tools\MSVC\14.44.35207\include\list

; 37   :     _List_unchecked_const_iterator(_Nodeptr _Pnode, const _Mylist* _Plist) noexcept : _Ptr(_Pnode) {

  00007	8b 02		 mov	 eax, DWORD PTR [edx]

; 202  :         return !(*this == _Right);

  00009	3b c2		 cmp	 eax, edx
; File C:\IAGOS\server\v18\Source\Source\_Common\spevent.cpp

; 497  : 	for( list<EVENT_GENERIC*>::iterator i = m_lspEvent.begin(); i != m_lspEvent.end(); ++i )

  0000b	74 12		 je	 SHORT $LN3@GetEvent
  0000d	8b 75 08	 mov	 esi, DWORD PTR _nEvent$[ebp]
$LL4@GetEvent:

; 498  : 	{
; 499  : 		PEVENT_GENERIC pEvent	= *i;

  00010	8b 48 08	 mov	 ecx, DWORD PTR [eax+8]

; 500  : 		if( pEvent->nId == nEvent )

  00013	39 31		 cmp	 DWORD PTR [ecx], esi
  00015	74 0f		 je	 SHORT $LN50@GetEvent
; File C:\Program Files\Microsoft Visual Studio\2022\Professional\VC\Tools\MSVC\14.44.35207\include\list

; 164  :         this->_Ptr = this->_Ptr->_Next;

  00017	8b 08		 mov	 ecx, DWORD PTR [eax]
  00019	8b c1		 mov	 eax, ecx

; 202  :         return !(*this == _Right);

  0001b	3b ca		 cmp	 ecx, edx
; File C:\IAGOS\server\v18\Source\Source\_Common\spevent.cpp

; 497  : 	for( list<EVENT_GENERIC*>::iterator i = m_lspEvent.begin(); i != m_lspEvent.end(); ++i )

  0001d	75 f1		 jne	 SHORT $LL4@GetEvent
$LN3@GetEvent:

; 502  : 	}
; 503  : 	return NULL;

  0001f	33 c0		 xor	 eax, eax
  00021	5e		 pop	 esi

; 504  : }

  00022	5d		 pop	 ebp
  00023	c2 04 00	 ret	 4
$LN50@GetEvent:

; 501  : 			return pEvent;

  00026	8b c1		 mov	 eax, ecx
  00028	5e		 pop	 esi

; 504  : }

  00029	5d		 pop	 ebp
  0002a	c2 04 00	 ret	 4
?GetEvent@CEventGeneric@@QAEPAU_EVENT_GENERIC@@H@Z ENDP	; CEventGeneric::GetEvent
_TEXT	ENDS
; Function compile flags: /Ogtp
; File C:\IAGOS\server\v18\Source\Source\_Common\spevent.cpp
; File C:\Program Files (x86)\Windows Kits\10\Include\10.0.26100.0\ucrt\time.h
; File C:\IAGOS\server\v18\Source\Source\_Common\spevent.cpp
; File C:\Program Files (x86)\Windows Kits\10\Include\10.0.26100.0\ucrt\time.h
; File C:\IAGOS\server\v18\Source\Source\_Common\spevent.cpp
; File C:\Program Files (x86)\Windows Kits\10\Include\10.0.26100.0\ucrt\time.h
; File C:\Program Files\Microsoft Visual Studio\2022\Professional\VC\Tools\MSVC\14.44.35207\include\list
; File C:\IAGOS\server\v18\Source\Source\_Common\spevent.cpp
; File C:\Program Files\Microsoft Visual Studio\2022\Professional\VC\Tools\MSVC\14.44.35207\include\list
; File C:\IAGOS\server\v18\Source\Source\_Common\spevent.cpp
; File C:\Program Files (x86)\Windows Kits\10\Include\10.0.26100.0\ucrt\time.h
; File C:\IAGOS\server\v18\Source\Source\_Common\spevent.cpp
; File C:\Program Files\Microsoft Visual Studio\2022\Professional\VC\Tools\MSVC\14.44.35207\include\list
; File C:\IAGOS\server\v18\Source\Source\_Common\spevent.cpp
;	COMDAT ?Run@CEventGeneric@@QAEHXZ
_TEXT	SEGMENT
_t$1$ = -532						; size = 4
_bEvent$1$ = -528					; size = 4
_pEvent$1$ = -524					; size = 4
_f$1$ = -520						; size = 4
_lpOutputString$1 = -516				; size = 512
__$ArrayPad$ = -4					; size = 4
?Run@CEventGeneric@@QAEHXZ PROC				; CEventGeneric::Run, COMDAT
; _this$ = ecx

; 469  : {

  00000	55		 push	 ebp
  00001	8b ec		 mov	 ebp, esp
  00003	81 ec 14 02 00
	00		 sub	 esp, 532		; 00000214H
  00009	a1 00 00 00 00	 mov	 eax, DWORD PTR ___security_cookie
  0000e	33 c5		 xor	 eax, ebp
  00010	89 45 fc	 mov	 DWORD PTR __$ArrayPad$[ebp], eax
  00013	53		 push	 ebx
  00014	56		 push	 esi
  00015	57		 push	 edi

; 470  : 	BOOL f	= FALSE;

  00016	33 ff		 xor	 edi, edi
  00018	8b d9		 mov	 ebx, ecx
; File C:\Program Files (x86)\Windows Kits\10\Include\10.0.26100.0\ucrt\time.h

; 428  :             return _time32(_Time);

  0001a	57		 push	 edi
; File C:\IAGOS\server\v18\Source\Source\_Common\spevent.cpp

; 470  : 	BOOL f	= FALSE;

  0001b	89 bd f8 fd ff
	ff		 mov	 DWORD PTR _f$1$[ebp], edi
; File C:\Program Files (x86)\Windows Kits\10\Include\10.0.26100.0\ucrt\time.h

; 428  :             return _time32(_Time);

  00021	e8 00 00 00 00	 call	 __time32
; File C:\IAGOS\server\v18\Source\Source\_Common\spevent.cpp

; 471  : 	time_t t	= time_null();

  00026	8b c8		 mov	 ecx, eax
; File C:\Program Files (x86)\Windows Kits\10\Include\10.0.26100.0\ucrt\time.h

; 428  :             return _time32(_Time);

  00028	83 c4 04	 add	 esp, 4
; File C:\Program Files\Microsoft Visual Studio\2022\Professional\VC\Tools\MSVC\14.44.35207\include\list

; 1105 :         return iterator(_Mypair._Myval2._Myhead->_Next, _STD addressof(_Mypair._Myval2));

  0002b	8b 43 08	 mov	 eax, DWORD PTR [ebx+8]
; File C:\IAGOS\server\v18\Source\Source\_Common\spevent.cpp

; 471  : 	time_t t	= time_null();

  0002e	89 8d ec fd ff
	ff		 mov	 DWORD PTR _t$1$[ebp], ecx
; File C:\Program Files\Microsoft Visual Studio\2022\Professional\VC\Tools\MSVC\14.44.35207\include\list

; 37   :     _List_unchecked_const_iterator(_Nodeptr _Pnode, const _Mylist* _Plist) noexcept : _Ptr(_Pnode) {

  00034	8b 30		 mov	 esi, DWORD PTR [eax]

; 202  :         return !(*this == _Right);

  00036	3b f0		 cmp	 esi, eax
; File C:\IAGOS\server\v18\Source\Source\_Common\spevent.cpp

; 472  : 	for( list<EVENT_GENERIC*>::iterator i = m_lspEvent.begin(); i != m_lspEvent.end(); ++i )

  00038	0f 84 e3 00 00
	00		 je	 $LN69@Run
  0003e	66 90		 npad	 2
$LL4@Run:

; 473  : 	{
; 474  : 		PEVENT_GENERIC pEvent	= *i;

  00040	8b 46 08	 mov	 eax, DWORD PTR [esi+8]
  00043	89 85 f4 fd ff
	ff		 mov	 DWORD PTR _pEvent$1$[ebp], eax

; 475  : 		BOOL bEvent	= ( t >= pEvent->tStart && t < pEvent->tEnd );

  00049	8d 78 0c	 lea	 edi, DWORD PTR [eax+12]
  0004c	3b 48 08	 cmp	 ecx, DWORD PTR [eax+8]
  0004f	7c 0e		 jl	 SHORT $LN68@Run
  00051	c7 85 f0 fd ff
	ff 01 00 00 00	 mov	 DWORD PTR _bEvent$1$[ebp], 1
  0005b	3b 0f		 cmp	 ecx, DWORD PTR [edi]
  0005d	7c 0a		 jl	 SHORT $LN10@Run
$LN68@Run:
  0005f	c7 85 f0 fd ff
	ff 00 00 00 00	 mov	 DWORD PTR _bEvent$1$[ebp], 0
$LN10@Run:

; 476  : 		// Ë¬
; 477  : 		char lpOutputString[512]	= { 0, };

  00069	68 00 02 00 00	 push	 512			; 00000200H
  0006e	8d 85 fc fd ff
	ff		 lea	 eax, DWORD PTR _lpOutputString$1[ebp]
  00074	6a 00		 push	 0
  00076	50		 push	 eax
  00077	e8 00 00 00 00	 call	 _memset
; File C:\Program Files (x86)\Windows Kits\10\Include\10.0.26100.0\ucrt\time.h

; 428  :             return _time32(_Time);

  0007c	6a 00		 push	 0
  0007e	e8 00 00 00 00	 call	 __time32
; File C:\IAGOS\server\v18\Source\Source\_Common\spevent.cpp

; 478  : 		sprintf( lpOutputString, "m_dwFlag=0x%08x, nId=%d, tStart=%d, tEnd=%d, t=%d, nFlag=%d", m_dwFlag, pEvent->nId, pEvent->tStart, pEvent->tEnd, time_null(), pEvent->nFlag );

  00083	8b 8d f4 fd ff
	ff		 mov	 ecx, DWORD PTR _pEvent$1$[ebp]
  00089	ff 71 04	 push	 DWORD PTR [ecx+4]
  0008c	50		 push	 eax
  0008d	ff 37		 push	 DWORD PTR [edi]
  0008f	8b f9		 mov	 edi, ecx
  00091	8d 85 fc fd ff
	ff		 lea	 eax, DWORD PTR _lpOutputString$1[ebp]
  00097	ff 77 08	 push	 DWORD PTR [edi+8]
  0009a	ff 37		 push	 DWORD PTR [edi]
  0009c	ff 73 04	 push	 DWORD PTR [ebx+4]
  0009f	68 00 00 00 00	 push	 OFFSET ??_C@_0DM@PNNFMCGB@m_dwFlag?$DN0x?$CF08x?0?5nId?$DN?$CFd?0?5tStart@
  000a4	50		 push	 eax
  000a5	e8 00 00 00 00	 call	 _sprintf
  000aa	83 c4 30	 add	 esp, 48			; 00000030H

; 479  : 		OutputDebugString( lpOutputString );

  000ad	8d 85 fc fd ff
	ff		 lea	 eax, DWORD PTR _lpOutputString$1[ebp]
  000b3	50		 push	 eax
  000b4	ff 15 00 00 00
	00		 call	 DWORD PTR __imp__OutputDebugStringA@4

; 480  : 
; 481  : 		if( bEvent && !( m_dwFlag & pEvent->nFlag ) )

  000ba	83 bd f0 fd ff
	ff 00		 cmp	 DWORD PTR _bEvent$1$[ebp], 0
  000c1	8b 4b 04	 mov	 ecx, DWORD PTR [ebx+4]
  000c4	8b 47 04	 mov	 eax, DWORD PTR [edi+4]
  000c7	74 16		 je	 SHORT $LN64@Run
  000c9	85 c1		 test	 eax, ecx
  000cb	75 2a		 jne	 SHORT $LN71@Run

; 482  : 		{
; 483  : 			m_dwFlag	|= pEvent->nFlag;

  000cd	0b c1		 or	 eax, ecx
  000cf	89 43 04	 mov	 DWORD PTR [ebx+4], eax

; 484  : 			f	= TRUE;

  000d2	b8 01 00 00 00	 mov	 eax, 1
  000d7	89 85 f8 fd ff
	ff		 mov	 DWORD PTR _f$1$[ebp], eax

; 485  : 		}

  000dd	eb 1e		 jmp	 SHORT $LN2@Run
$LN64@Run:

; 486  : 		else if( !bEvent && ( m_dwFlag & pEvent->nFlag ) )

  000df	85 c1		 test	 eax, ecx
  000e1	74 14		 je	 SHORT $LN71@Run

; 487  : 		{
; 488  : 			m_dwFlag	&= ~pEvent->nFlag;

  000e3	f7 d0		 not	 eax
  000e5	23 c1		 and	 eax, ecx
  000e7	89 43 04	 mov	 DWORD PTR [ebx+4], eax

; 489  : 			f	= TRUE;

  000ea	b8 01 00 00 00	 mov	 eax, 1
  000ef	89 85 f8 fd ff
	ff		 mov	 DWORD PTR _f$1$[ebp], eax
  000f5	eb 06		 jmp	 SHORT $LN2@Run
$LN71@Run:
; File C:\Program Files\Microsoft Visual Studio\2022\Professional\VC\Tools\MSVC\14.44.35207\include\list

; 164  :         this->_Ptr = this->_Ptr->_Next;

  000f7	8b 85 f8 fd ff
	ff		 mov	 eax, DWORD PTR _f$1$[ebp]
$LN2@Run:
  000fd	8b 0e		 mov	 ecx, DWORD PTR [esi]
  000ff	8b f1		 mov	 esi, ecx

; 202  :         return !(*this == _Right);

  00101	3b 4b 08	 cmp	 ecx, DWORD PTR [ebx+8]
; File C:\IAGOS\server\v18\Source\Source\_Common\spevent.cpp

; 472  : 	for( list<EVENT_GENERIC*>::iterator i = m_lspEvent.begin(); i != m_lspEvent.end(); ++i )

  00104	8b 8d ec fd ff
	ff		 mov	 ecx, DWORD PTR _t$1$[ebp]
  0010a	0f 85 30 ff ff
	ff		 jne	 $LL4@Run

; 490  : 		}
; 491  : 	}
; 492  : 	return f;
; 493  : }

  00110	5f		 pop	 edi
  00111	5e		 pop	 esi
  00112	5b		 pop	 ebx
  00113	8b 4d fc	 mov	 ecx, DWORD PTR __$ArrayPad$[ebp]
  00116	33 cd		 xor	 ecx, ebp
  00118	e8 00 00 00 00	 call	 @__security_check_cookie@4
  0011d	8b e5		 mov	 esp, ebp
  0011f	5d		 pop	 ebp
  00120	c3		 ret	 0
$LN69@Run:
  00121	8b 4d fc	 mov	 ecx, DWORD PTR __$ArrayPad$[ebp]
  00124	8b c7		 mov	 eax, edi
  00126	5f		 pop	 edi
  00127	5e		 pop	 esi
  00128	33 cd		 xor	 ecx, ebp
  0012a	5b		 pop	 ebx
  0012b	e8 00 00 00 00	 call	 @__security_check_cookie@4
  00130	8b e5		 mov	 esp, ebp
  00132	5d		 pop	 ebp
  00133	c3		 ret	 0
?Run@CEventGeneric@@QAEHXZ ENDP				; CEventGeneric::Run
_TEXT	ENDS
; Function compile flags: /Ogtp
; File C:\IAGOS\server\v18\Source\Source\_Common\spevent.cpp
; File C:\IAGOS\server\v18\Source\Source\_Network\Misc\Include\Ar.h
; File C:\IAGOS\server\v18\Source\Source\_Common\spevent.cpp
; File C:\Program Files\Microsoft Visual Studio\2022\Professional\VC\Tools\MSVC\14.44.35207\include\list
; File C:\IAGOS\server\v18\Source\Source\_Common\spevent.cpp
; File C:\Program Files\Microsoft Visual Studio\2022\Professional\VC\Tools\MSVC\14.44.35207\include\list
; File C:\IAGOS\server\v18\Source\Source\_Common\spevent.cpp
; File C:\Program Files\Microsoft Visual Studio\2022\Professional\VC\Tools\MSVC\14.44.35207\include\xtree
; File C:\IAGOS\server\v18\Source\Source\_Common\spevent.cpp
; File C:\Program Files\Microsoft Visual Studio\2022\Professional\VC\Tools\MSVC\14.44.35207\include\xtree
; File C:\IAGOS\server\v18\Source\Source\_Common\spevent.cpp
; File C:\Program Files\Microsoft Visual Studio\2022\Professional\VC\Tools\MSVC\14.44.35207\include\list
; File C:\IAGOS\server\v18\Source\Source\_Common\spevent.cpp
; File C:\Program Files\Microsoft Visual Studio\2022\Professional\VC\Tools\MSVC\14.44.35207\include\list
; File C:\IAGOS\server\v18\Source\Source\_Common\spevent.cpp
; File C:\Program Files\Microsoft Visual Studio\2022\Professional\VC\Tools\MSVC\14.44.35207\include\xtree
; File C:\IAGOS\server\v18\Source\Source\_Common\spevent.cpp
; File C:\IAGOS\server\v18\Source\Source\_Common\spevent.h
; File C:\IAGOS\server\v18\Source\Source\_Common\spevent.cpp
; File C:\Program Files\Microsoft Visual Studio\2022\Professional\VC\Tools\MSVC\14.44.35207\include\list
; File C:\Program Files\Microsoft Visual Studio\2022\Professional\VC\Tools\MSVC\14.44.35207\include\xmemory
; File C:\Program Files\Microsoft Visual Studio\2022\Professional\VC\Tools\MSVC\14.44.35207\include\list
; File C:\Program Files\Microsoft Visual Studio\2022\Professional\VC\Tools\MSVC\14.44.35207\include\xmemory
; File C:\Program Files\Microsoft Visual Studio\2022\Professional\VC\Tools\MSVC\14.44.35207\include\list
; File C:\Program Files\Microsoft Visual Studio\2022\Professional\VC\Tools\MSVC\14.44.35207\include\xmemory
; File C:\Program Files\Microsoft Visual Studio\2022\Professional\VC\Tools\MSVC\14.44.35207\include\list
; File C:\IAGOS\server\v18\Source\Source\_Common\spevent.cpp
; File C:\Program Files\Microsoft Visual Studio\2022\Professional\VC\Tools\MSVC\14.44.35207\include\xmemory
; File C:\Program Files\Microsoft Visual Studio\2022\Professional\VC\Tools\MSVC\14.44.35207\include\list
; File C:\Program Files\Microsoft Visual Studio\2022\Professional\VC\Tools\MSVC\14.44.35207\include\xmemory
; File C:\Program Files\Microsoft Visual Studio\2022\Professional\VC\Tools\MSVC\14.44.35207\include\list
; File C:\IAGOS\server\v18\Source\Source\_Common\spevent.cpp
; File C:\Program Files\Microsoft Visual Studio\2022\Professional\VC\Tools\MSVC\14.44.35207\include\utility
; File C:\Program Files\Microsoft Visual Studio\2022\Professional\VC\Tools\MSVC\14.44.35207\include\xtree
; File C:\IAGOS\server\v18\Source\Source\_Common\spevent.cpp
; File C:\Program Files\Microsoft Visual Studio\2022\Professional\VC\Tools\MSVC\14.44.35207\include\xtree
; File C:\Program Files\Microsoft Visual Studio\2022\Professional\VC\Tools\MSVC\14.44.35207\include\utility
; File C:\Program Files\Microsoft Visual Studio\2022\Professional\VC\Tools\MSVC\14.44.35207\include\xtree
; File C:\Program Files\Microsoft Visual Studio\2022\Professional\VC\Tools\MSVC\14.44.35207\include\type_traits
; File C:\Program Files\Microsoft Visual Studio\2022\Professional\VC\Tools\MSVC\14.44.35207\include\xtree
; File C:\Program Files\Microsoft Visual Studio\2022\Professional\VC\Tools\MSVC\14.44.35207\include\xmemory
; File C:\Program Files\Microsoft Visual Studio\2022\Professional\VC\Tools\MSVC\14.44.35207\include\xtree
; File C:\Program Files\Microsoft Visual Studio\2022\Professional\VC\Tools\MSVC\14.44.35207\include\xmemory
; File C:\Program Files\Microsoft Visual Studio\2022\Professional\VC\Tools\MSVC\14.44.35207\include\xtree
; File C:\Program Files\Microsoft Visual Studio\2022\Professional\VC\Tools\MSVC\14.44.35207\include\xmemory
; File C:\Program Files\Microsoft Visual Studio\2022\Professional\VC\Tools\MSVC\14.44.35207\include\xtree
; File C:\Program Files\Microsoft Visual Studio\2022\Professional\VC\Tools\MSVC\14.44.35207\include\utility
; File C:\Program Files\Microsoft Visual Studio\2022\Professional\VC\Tools\MSVC\14.44.35207\include\xtree
; File C:\IAGOS\server\v18\Source\Source\_Common\spevent.cpp
; File C:\Program Files\Microsoft Visual Studio\2022\Professional\VC\Tools\MSVC\14.44.35207\include\list
; File C:\Program Files\Microsoft Visual Studio\2022\Professional\VC\Tools\MSVC\14.44.35207\include\xmemory
; File C:\Program Files\Microsoft Visual Studio\2022\Professional\VC\Tools\MSVC\14.44.35207\include\list
; File C:\Program Files\Microsoft Visual Studio\2022\Professional\VC\Tools\MSVC\14.44.35207\include\xmemory
; File C:\Program Files\Microsoft Visual Studio\2022\Professional\VC\Tools\MSVC\14.44.35207\include\list
; File C:\Program Files\Microsoft Visual Studio\2022\Professional\VC\Tools\MSVC\14.44.35207\include\xmemory
; File C:\Program Files\Microsoft Visual Studio\2022\Professional\VC\Tools\MSVC\14.44.35207\include\list
; File C:\IAGOS\server\v18\Source\Source\_Common\spevent.cpp
; File C:\Program Files\Microsoft Visual Studio\2022\Professional\VC\Tools\MSVC\14.44.35207\include\list
; File C:\IAGOS\server\v18\Source\Source\_Common\spevent.cpp
; File C:\Program Files\Microsoft Visual Studio\2022\Professional\VC\Tools\MSVC\14.44.35207\include\list
; File C:\IAGOS\server\v18\Source\Source\_Common\spevent.cpp
; File C:\Program Files\Microsoft Visual Studio\2022\Professional\VC\Tools\MSVC\14.44.35207\include\xtree
; File C:\Program Files\Microsoft Visual Studio\2022\Professional\VC\Tools\MSVC\14.44.35207\include\list
; File C:\IAGOS\server\v18\Source\Source\_Common\spevent.cpp
;	COMDAT ?Serialize@CEventGeneric@@QAEXAAVCAr@@@Z
_TEXT	SEGMENT
$T2 = -92						; size = 12
__Loc$3 = -80						; size = 12
__Op$4 = -68						; size = 8
$T5 = -60						; size = 8
$T6 = -52						; size = 8
__Op$7 = -44						; size = 8
$T8 = -40						; size = 4
$T9 = -36						; size = 4
$T10 = -36						; size = 4
__Where$1$ = -36					; size = 4
$T11 = -32						; size = 4
_nEventItemListSize$12 = -32				; size = 4
__Where$1$ = -32					; size = 4
_pList$1$ = -28						; size = 4
_i$1$ = -28						; size = 4
_nEventItemSize$13 = -24				; size = 4
_nEvent$14 = -20					; size = 4
_this$1$ = -20						; size = 4
_nEventSize$15 = -16					; size = 4
_j$1$ = -16						; size = 4
__$EHRec$ = -12						; size = 12
_ar$ = 8						; size = 4
$T16 = 8						; size = 4
$T17 = 8						; size = 4
_i2$1$ = 8						; size = 4
_i$1$ = 8						; size = 4
_this$1$ = 8						; size = 4
?Serialize@CEventGeneric@@QAEXAAVCAr@@@Z PROC		; CEventGeneric::Serialize, COMDAT
; _this$ = ecx

; 411  : {

  00000	55		 push	 ebp
  00001	8b ec		 mov	 ebp, esp
  00003	6a ff		 push	 -1
  00005	68 00 00 00 00	 push	 __ehhandler$?Serialize@CEventGeneric@@QAEXAAVCAr@@@Z
  0000a	64 a1 00 00 00
	00		 mov	 eax, DWORD PTR fs:0
  00010	50		 push	 eax
  00011	83 ec 50	 sub	 esp, 80			; 00000050H
  00014	53		 push	 ebx
  00015	56		 push	 esi
  00016	57		 push	 edi
  00017	a1 00 00 00 00	 mov	 eax, DWORD PTR ___security_cookie
  0001c	33 c5		 xor	 eax, ebp
  0001e	50		 push	 eax
  0001f	8d 45 f4	 lea	 eax, DWORD PTR __$EHRec$[ebp]
  00022	64 a3 00 00 00
	00		 mov	 DWORD PTR fs:0, eax
  00028	8b f9		 mov	 edi, ecx
  0002a	89 7d ec	 mov	 DWORD PTR _this$1$[ebp], edi
; File C:\IAGOS\server\v18\Source\Source\_Network\Misc\Include\Ar.h

; 146  : 	return (m_nMode & CAr::load) == 0;

  0002d	8b 5d 08	 mov	 ebx, DWORD PTR _ar$[ebp]
  00030	f6 03 01	 test	 BYTE PTR [ebx], 1
; File C:\IAGOS\server\v18\Source\Source\_Common\spevent.cpp

; 412  : 	if( ar.IsStoring() )

  00033	0f 85 06 01 00
	00		 jne	 $LN20@Serialize

; 413  : 	{
; 414  : 		ar << (int)m_lspEvent.size();

  00039	8b 47 0c	 mov	 eax, DWORD PTR [edi+12]
  0003c	8b cb		 mov	 ecx, ebx
  0003e	89 45 08	 mov	 DWORD PTR $T16[ebp], eax
  00041	8d 45 08	 lea	 eax, DWORD PTR $T16[ebp]
  00044	50		 push	 eax
  00045	e8 00 00 00 00	 call	 ??$?6H@CAr@@QAEAAV0@ABH@Z ; CAr::operator<<<int>
; File C:\Program Files\Microsoft Visual Studio\2022\Professional\VC\Tools\MSVC\14.44.35207\include\list

; 1105 :         return iterator(_Mypair._Myval2._Myhead->_Next, _STD addressof(_Mypair._Myval2));

  0004a	8b 47 08	 mov	 eax, DWORD PTR [edi+8]

; 37   :     _List_unchecked_const_iterator(_Nodeptr _Pnode, const _Mylist* _Plist) noexcept : _Ptr(_Pnode) {

  0004d	8b 30		 mov	 esi, DWORD PTR [eax]

; 202  :         return !(*this == _Right);

  0004f	3b f0		 cmp	 esi, eax
; File C:\IAGOS\server\v18\Source\Source\_Common\spevent.cpp

; 415  : 		for( list<EVENT_GENERIC*>::iterator i = m_lspEvent.begin(); i != m_lspEvent.end(); ++i )

  00051	74 15		 je	 SHORT $LN3@Serialize
$LL4@Serialize:

; 416  : 		{
; 417  : 			PEVENT_GENERIC pEvent	= *i;
; 418  : 			ar.Write( (const void*)pEvent, sizeof(EVENT_GENERIC) );

  00053	6a 7c		 push	 124			; 0000007cH
  00055	ff 76 08	 push	 DWORD PTR [esi+8]
  00058	8b cb		 mov	 ecx, ebx
  0005a	e8 00 00 00 00	 call	 ?Write@CAr@@QAEXPBXI@Z	; CAr::Write
; File C:\Program Files\Microsoft Visual Studio\2022\Professional\VC\Tools\MSVC\14.44.35207\include\list

; 164  :         this->_Ptr = this->_Ptr->_Next;

  0005f	8b 06		 mov	 eax, DWORD PTR [esi]
  00061	8b f0		 mov	 esi, eax

; 202  :         return !(*this == _Right);

  00063	3b 47 08	 cmp	 eax, DWORD PTR [edi+8]
; File C:\IAGOS\server\v18\Source\Source\_Common\spevent.cpp

; 415  : 		for( list<EVENT_GENERIC*>::iterator i = m_lspEvent.begin(); i != m_lspEvent.end(); ++i )

  00066	75 eb		 jne	 SHORT $LL4@Serialize
$LN3@Serialize:

; 419  : 		}
; 420  : 		ar << (int)m_mapEventItemList.size();

  00068	8b 47 14	 mov	 eax, DWORD PTR [edi+20]
  0006b	8b cb		 mov	 ecx, ebx
  0006d	89 45 08	 mov	 DWORD PTR $T17[ebp], eax
  00070	8d 45 08	 lea	 eax, DWORD PTR $T17[ebp]
  00073	50		 push	 eax
  00074	e8 00 00 00 00	 call	 ??$?6H@CAr@@QAEAAV0@ABH@Z ; CAr::operator<<<int>
; File C:\Program Files\Microsoft Visual Studio\2022\Professional\VC\Tools\MSVC\14.44.35207\include\xtree

; 1142 :         return iterator(_Scary->_Myhead->_Left, _Scary);

  00079	8b 47 10	 mov	 eax, DWORD PTR [edi+16]

; 37   :     _Tree_unchecked_const_iterator(_Nodeptr _Pnode, const _Mytree* _Plist) noexcept : _Ptr(_Pnode) {

  0007c	8b 30		 mov	 esi, DWORD PTR [eax]
  0007e	89 75 08	 mov	 DWORD PTR _i2$1$[ebp], esi

; 237  :         return !(*this == _Right);

  00081	3b f0		 cmp	 esi, eax
; File C:\IAGOS\server\v18\Source\Source\_Common\spevent.cpp

; 421  : 		for( map<int, list<CEventItem*>*>::iterator i2 = m_mapEventItemList.begin(); i2 != m_mapEventItemList.end(); ++i2 )

  00083	0f 84 a2 00 00
	00		 je	 $LN15@Serialize
  00089	0f 1f 80 00 00
	00 00		 npad	 7
$LL7@Serialize:
; File C:\Program Files\Microsoft Visual Studio\2022\Professional\VC\Tools\MSVC\14.44.35207\include\xtree

; 185  :         return this->_Ptr->_Myval;

  00090	8d 46 10	 lea	 eax, DWORD PTR [esi+16]
; File C:\IAGOS\server\v18\Source\Source\_Common\spevent.cpp

; 423  : 			ar << (int)i2->first;

  00093	8b cb		 mov	 ecx, ebx
  00095	50		 push	 eax
  00096	e8 00 00 00 00	 call	 ??$?6H@CAr@@QAEAAV0@ABH@Z ; CAr::operator<<<int>

; 424  : 			list<CEventItem*>* pList	= i2->second;

  0009b	8b 7e 14	 mov	 edi, DWORD PTR [esi+20]

; 425  : 			ar << (int)pList->size();

  0009e	8b cb		 mov	 ecx, ebx
  000a0	89 7d e4	 mov	 DWORD PTR _pList$1$[ebp], edi
  000a3	8b 47 04	 mov	 eax, DWORD PTR [edi+4]
  000a6	89 45 e0	 mov	 DWORD PTR $T11[ebp], eax
  000a9	8d 45 e0	 lea	 eax, DWORD PTR $T11[ebp]
  000ac	50		 push	 eax
  000ad	e8 00 00 00 00	 call	 ??$?6H@CAr@@QAEAAV0@ABH@Z ; CAr::operator<<<int>
; File C:\Program Files\Microsoft Visual Studio\2022\Professional\VC\Tools\MSVC\14.44.35207\include\list

; 1105 :         return iterator(_Mypair._Myval2._Myhead->_Next, _STD addressof(_Mypair._Myval2));

  000b2	8b 07		 mov	 eax, DWORD PTR [edi]

; 37   :     _List_unchecked_const_iterator(_Nodeptr _Pnode, const _Mylist* _Plist) noexcept : _Ptr(_Pnode) {

  000b4	8b 38		 mov	 edi, DWORD PTR [eax]

; 202  :         return !(*this == _Right);

  000b6	3b f8		 cmp	 edi, eax
; File C:\IAGOS\server\v18\Source\Source\_Common\spevent.cpp

; 426  : 			for( list<CEventItem*>::iterator i3 = pList->begin(); i3 != pList->end(); ++i3 )

  000b8	74 1a		 je	 SHORT $LN5@Serialize
  000ba	8b 75 e4	 mov	 esi, DWORD PTR _pList$1$[ebp]
  000bd	0f 1f 00	 npad	 3
$LL10@Serialize:

; 427  : 			{
; 428  : 				CEventItem* pEventItem	= *i3;
; 429  : 				pEventItem->Serialize( ar );

  000c0	8b 4f 08	 mov	 ecx, DWORD PTR [edi+8]
  000c3	53		 push	 ebx
  000c4	e8 00 00 00 00	 call	 ?Serialize@CEventItem@@QAEXAAVCAr@@@Z ; CEventItem::Serialize
; File C:\Program Files\Microsoft Visual Studio\2022\Professional\VC\Tools\MSVC\14.44.35207\include\list

; 164  :         this->_Ptr = this->_Ptr->_Next;

  000c9	8b 07		 mov	 eax, DWORD PTR [edi]
  000cb	8b f8		 mov	 edi, eax

; 202  :         return !(*this == _Right);

  000cd	3b 06		 cmp	 eax, DWORD PTR [esi]
; File C:\IAGOS\server\v18\Source\Source\_Common\spevent.cpp

; 426  : 			for( list<CEventItem*>::iterator i3 = pList->begin(); i3 != pList->end(); ++i3 )

  000cf	75 ef		 jne	 SHORT $LL10@Serialize
  000d1	8b 75 08	 mov	 esi, DWORD PTR _i2$1$[ebp]
$LN5@Serialize:
; File C:\Program Files\Microsoft Visual Studio\2022\Professional\VC\Tools\MSVC\14.44.35207\include\xtree

; 50   :         if (_Ptr->_Right->_Isnil) { // climb looking for right subtree

  000d4	8b 46 08	 mov	 eax, DWORD PTR [esi+8]
  000d7	80 78 0d 00	 cmp	 BYTE PTR [eax+13], 0
  000db	74 20		 je	 SHORT $LN78@Serialize

; 51   :             _Nodeptr _Pnode;
; 52   :             while (!(_Pnode = _Ptr->_Parent)->_Isnil && _Ptr == _Pnode->_Right) {

  000dd	8b 46 04	 mov	 eax, DWORD PTR [esi+4]
  000e0	80 78 0d 00	 cmp	 BYTE PTR [eax+13], 0
  000e4	75 10		 jne	 SHORT $LN469@Serialize
$LL76@Serialize:
  000e6	3b 70 08	 cmp	 esi, DWORD PTR [eax+8]
  000e9	75 0b		 jne	 SHORT $LN469@Serialize

; 53   :                 _Ptr = _Pnode; // ==> parent while right subtree

  000eb	8b f0		 mov	 esi, eax
  000ed	8b 40 04	 mov	 eax, DWORD PTR [eax+4]
  000f0	80 78 0d 00	 cmp	 BYTE PTR [eax+13], 0
  000f4	74 f0		 je	 SHORT $LL76@Serialize
$LN469@Serialize:

; 54   :             }
; 55   : 
; 56   :             _Ptr = _Pnode; // ==> parent (head if end())

  000f6	8b f0		 mov	 esi, eax
  000f8	89 75 08	 mov	 DWORD PTR _i2$1$[ebp], esi

; 57   :         } else {

  000fb	eb 22		 jmp	 SHORT $LN84@Serialize
$LN78@Serialize:

; 58   :             _Ptr = _Mytree::_Min(_Ptr->_Right); // ==> smallest of right subtree

  000fd	8b f0		 mov	 esi, eax
  000ff	89 75 08	 mov	 DWORD PTR _i2$1$[ebp], esi

; 476  :         while (!_Pnode->_Left->_Isnil) {

  00102	8b 0e		 mov	 ecx, DWORD PTR [esi]
  00104	80 79 0d 00	 cmp	 BYTE PTR [ecx+13], 0
  00108	75 15		 jne	 SHORT $LN84@Serialize
  0010a	66 0f 1f 44 00
	00		 npad	 6
$LL83@Serialize:
  00110	8b 01		 mov	 eax, DWORD PTR [ecx]

; 477  :             _Pnode = _Pnode->_Left;

  00112	8b f1		 mov	 esi, ecx
  00114	89 75 08	 mov	 DWORD PTR _i2$1$[ebp], esi
  00117	8b c8		 mov	 ecx, eax
  00119	80 78 0d 00	 cmp	 BYTE PTR [eax+13], 0
  0011d	74 f1		 je	 SHORT $LL83@Serialize
$LN84@Serialize:

; 237  :         return !(*this == _Right);

  0011f	8b 45 ec	 mov	 eax, DWORD PTR _this$1$[ebp]
  00122	3b 70 10	 cmp	 esi, DWORD PTR [eax+16]
; File C:\IAGOS\server\v18\Source\Source\_Common\spevent.cpp

; 421  : 		for( map<int, list<CEventItem*>*>::iterator i2 = m_mapEventItemList.begin(); i2 != m_mapEventItemList.end(); ++i2 )

  00125	0f 85 65 ff ff
	ff		 jne	 $LL7@Serialize
$LN15@Serialize:

; 466  : }

  0012b	8b 4d f4	 mov	 ecx, DWORD PTR __$EHRec$[ebp]
  0012e	64 89 0d 00 00
	00 00		 mov	 DWORD PTR fs:0, ecx
  00135	59		 pop	 ecx
  00136	5f		 pop	 edi
  00137	5e		 pop	 esi
  00138	5b		 pop	 ebx
  00139	8b e5		 mov	 esp, ebp
  0013b	5d		 pop	 ebp
  0013c	c2 04 00	 ret	 4
$LN20@Serialize:

; 430  : 			}
; 431  : 		}
; 432  : 	}
; 433  : 	else
; 434  : 	{
; 435  : 		Clear( FALSE );

  0013f	6a 00		 push	 0
  00141	e8 00 00 00 00	 call	 ?Clear@CEventGeneric@@QAEXH@Z ; CEventGeneric::Clear

; 436  : 		int nEventSize;
; 437  : 		ar >> nEventSize;

  00146	8d 45 f0	 lea	 eax, DWORD PTR _nEventSize$15[ebp]
  00149	8b cb		 mov	 ecx, ebx
  0014b	50		 push	 eax
  0014c	e8 00 00 00 00	 call	 ??$?5H@CAr@@QAEAAV0@AAH@Z ; CAr::operator>><int>

; 438  : 		for( int i = 0; i < nEventSize; i++ )

  00151	83 7d f0 00	 cmp	 DWORD PTR _nEventSize$15[ebp], 0
  00155	c7 45 08 00 00
	00 00		 mov	 DWORD PTR _i$1$[ebp], 0
  0015c	0f 8e b5 00 00
	00		 jle	 $LN12@Serialize
  00162	83 c7 08	 add	 edi, 8
$LL13@Serialize:

; 440  : 			PEVENT_GENERIC pEvent	= new EVENT_GENERIC;

  00165	6a 7c		 push	 124			; 0000007cH
  00167	e8 00 00 00 00	 call	 ??2@YAPAXI@Z		; operator new
  0016c	8b f0		 mov	 esi, eax
  0016e	83 c4 04	 add	 esp, 4
  00171	89 75 dc	 mov	 DWORD PTR $T9[ebp], esi
  00174	85 f6		 test	 esi, esi
  00176	74 2f		 je	 SHORT $LN24@Serialize
; File C:\IAGOS\server\v18\Source\Source\_Common\spevent.h

; 44   : 		nId	= 0;

  00178	c7 06 00 00 00
	00		 mov	 DWORD PTR [esi], 0

; 45   : 		nFlag	= 0;

  0017e	c7 46 04 00 00
	00 00		 mov	 DWORD PTR [esi+4], 0

; 46   : 		tStart	= 0;

  00185	c7 46 08 00 00
	00 00		 mov	 DWORD PTR [esi+8], 0

; 47   : 		tEnd	= 0;

  0018c	c7 46 0c 00 00
	00 00		 mov	 DWORD PTR [esi+12], 0

; 48   : 		*pszTitle	= '\0';

  00193	c6 46 18 00	 mov	 BYTE PTR [esi+24], 0

; 49   : 		fExpFactor	= 1.0f;

  00197	c7 46 10 00 00
	80 3f		 mov	 DWORD PTR [esi+16], 1065353216 ; 3f800000H

; 50   : #ifdef __ITEMDROPRATE
; 51   : 		fItemDropRate = 1.0f;

  0019e	c7 46 14 00 00
	80 3f		 mov	 DWORD PTR [esi+20], 1065353216 ; 3f800000H
; File C:\IAGOS\server\v18\Source\Source\_Common\spevent.cpp

; 440  : 			PEVENT_GENERIC pEvent	= new EVENT_GENERIC;

  001a5	eb 02		 jmp	 SHORT $LN25@Serialize
$LN24@Serialize:
  001a7	33 f6		 xor	 esi, esi
$LN25@Serialize:

; 441  : 			ar.Read( (void*)pEvent, sizeof(EVENT_GENERIC) );

  001a9	6a 7c		 push	 124			; 0000007cH
  001ab	56		 push	 esi
  001ac	8b cb		 mov	 ecx, ebx
  001ae	e8 00 00 00 00	 call	 ?Read@CAr@@QAEXPAXI@Z	; CAr::Read
; File C:\Program Files\Microsoft Visual Studio\2022\Professional\VC\Tools\MSVC\14.44.35207\include\list

; 1030 :         if (_Mysize == max_size()) {

  001b3	81 7f 04 55 55
	55 15		 cmp	 DWORD PTR [edi+4], 357913941 ; 15555555H

; 1274 :         _Emplace(_Mypair._Myval2._Myhead, _Val);

  001ba	8b 07		 mov	 eax, DWORD PTR [edi]
  001bc	89 45 e0	 mov	 DWORD PTR __Where$1$[ebp], eax

; 1030 :         if (_Mysize == max_size()) {

  001bf	0f 84 1a 02 00
	00		 je	 $LN437@Serialize
; File C:\Program Files\Microsoft Visual Studio\2022\Professional\VC\Tools\MSVC\14.44.35207\include\xmemory

; 1160 :     _CONSTEXPR20 explicit _Alloc_construct_ptr(_Alloc& _Al_) : _Al(_Al_), _Ptr(nullptr) {}

  001c5	89 7d d4	 mov	 DWORD PTR __Op$7[ebp], edi

; 136  :         return ::operator new(_Bytes);

  001c8	6a 0c		 push	 12			; 0000000cH
; File C:\Program Files\Microsoft Visual Studio\2022\Professional\VC\Tools\MSVC\14.44.35207\include\list

; 593  :     explicit _List_node_emplace_op2(_Alnode& _Al_, _Valtys&&... _Vals) : _Alloc_construct_ptr<_Alnode>(_Al_) {

  001ca	c7 45 fc 00 00
	00 00		 mov	 DWORD PTR __$EHRec$[ebp+8], 0
; File C:\Program Files\Microsoft Visual Studio\2022\Professional\VC\Tools\MSVC\14.44.35207\include\xmemory

; 1167 :         _Ptr = nullptr; // if allocate throws, prevents double-free

  001d1	c7 45 d8 00 00
	00 00		 mov	 DWORD PTR __Op$7[ebp+4], 0

; 136  :         return ::operator new(_Bytes);

  001d8	e8 00 00 00 00	 call	 ??2@YAPAXI@Z		; operator new
; File C:\Program Files\Microsoft Visual Studio\2022\Professional\VC\Tools\MSVC\14.44.35207\include\list

; 608  :         const pointer _Insert_after = _Insert_before->_Prev;

  001dd	8b 55 e0	 mov	 edx, DWORD PTR __Where$1$[ebp]
; File C:\Program Files\Microsoft Visual Studio\2022\Professional\VC\Tools\MSVC\14.44.35207\include\xmemory

; 136  :         return ::operator new(_Bytes);

  001e0	83 c4 04	 add	 esp, 4
; File C:\Program Files\Microsoft Visual Studio\2022\Professional\VC\Tools\MSVC\14.44.35207\include\list

; 596  :     }

  001e3	c7 45 fc ff ff
	ff ff		 mov	 DWORD PTR __$EHRec$[ebp+8], -1

; 612  :         this->_Ptr            = pointer{};

  001ea	c7 45 d8 00 00
	00 00		 mov	 DWORD PTR __Op$7[ebp+4], 0

; 595  :         _Alnode_traits::construct(this->_Al, _STD addressof(this->_Ptr->_Myval), _STD forward<_Valtys>(_Vals)...);

  001f1	89 70 08	 mov	 DWORD PTR [eax+8], esi

; 1035 :         ++_Mysize;

  001f4	ff 47 04	 inc	 DWORD PTR [edi+4]

; 608  :         const pointer _Insert_after = _Insert_before->_Prev;

  001f7	8b 4a 04	 mov	 ecx, DWORD PTR [edx+4]

; 609  :         _Construct_in_place(this->_Ptr->_Next, _Insert_before);

  001fa	89 10		 mov	 DWORD PTR [eax], edx

; 610  :         _Construct_in_place(this->_Ptr->_Prev, _Insert_after);

  001fc	89 48 04	 mov	 DWORD PTR [eax+4], ecx

; 613  :         _Insert_before->_Prev = _Result;

  001ff	89 42 04	 mov	 DWORD PTR [edx+4], eax

; 614  :         _Insert_after->_Next  = _Result;

  00202	89 01		 mov	 DWORD PTR [ecx], eax
; File C:\IAGOS\server\v18\Source\Source\_Common\spevent.cpp

; 438  : 		for( int i = 0; i < nEventSize; i++ )

  00204	8b 45 08	 mov	 eax, DWORD PTR _i$1$[ebp]
  00207	40		 inc	 eax
  00208	89 45 08	 mov	 DWORD PTR _i$1$[ebp], eax
  0020b	3b 45 f0	 cmp	 eax, DWORD PTR _nEventSize$15[ebp]
  0020e	0f 8c 51 ff ff
	ff		 jl	 $LL13@Serialize
  00214	8b 7d ec	 mov	 edi, DWORD PTR _this$1$[ebp]
$LN12@Serialize:

; 442  : 			m_lspEvent.push_back( pEvent );
; 443  : 		}
; 444  : 		int nEventItemListSize;
; 445  : 		ar >> nEventItemListSize;

  00217	8d 45 e0	 lea	 eax, DWORD PTR _nEventItemListSize$12[ebp]
  0021a	8b cb		 mov	 ecx, ebx
  0021c	50		 push	 eax
  0021d	e8 00 00 00 00	 call	 ??$?5H@CAr@@QAEAAV0@AAH@Z ; CAr::operator>><int>

; 446  : 		for( int i = 0; i < nEventItemListSize; i++ )

  00222	83 7d e0 00	 cmp	 DWORD PTR _nEventItemListSize$12[ebp], 0
  00226	c7 45 e4 00 00
	00 00		 mov	 DWORD PTR _i$1$[ebp], 0
  0022d	0f 8e f8 fe ff
	ff		 jle	 $LN15@Serialize
  00233	8d 47 10	 lea	 eax, DWORD PTR [edi+16]
  00236	89 45 08	 mov	 DWORD PTR _this$1$[ebp], eax
  00239	0f 1f 80 00 00
	00 00		 npad	 7
$LL16@Serialize:

; 447  : 		{
; 448  : 			int nEvent;
; 449  : 			ar >> nEvent;

  00240	8d 45 ec	 lea	 eax, DWORD PTR _nEvent$14[ebp]
  00243	8b cb		 mov	 ecx, ebx
  00245	50		 push	 eax
  00246	e8 00 00 00 00	 call	 ??$?5H@CAr@@QAEAAV0@AAH@Z ; CAr::operator>><int>

; 450  : 			list<CEventItem*>* pList	= new list<CEventItem*>;

  0024b	6a 08		 push	 8
  0024d	e8 00 00 00 00	 call	 ??2@YAPAXI@Z		; operator new
  00252	8b f8		 mov	 edi, eax
  00254	83 c4 04	 add	 esp, 4
  00257	89 7d d8	 mov	 DWORD PTR $T8[ebp], edi
  0025a	c7 45 fc 01 00
	00 00		 mov	 DWORD PTR __$EHRec$[ebp+8], 1
  00261	85 ff		 test	 edi, edi
  00263	74 20		 je	 SHORT $LN26@Serialize
; File C:\Program Files\Microsoft Visual Studio\2022\Professional\VC\Tools\MSVC\14.44.35207\include\xmemory

; 136  :         return ::operator new(_Bytes);

  00265	6a 0c		 push	 12			; 0000000cH
; File C:\Program Files\Microsoft Visual Studio\2022\Professional\VC\Tools\MSVC\14.44.35207\include\list

; 353  :     _List_val() noexcept : _Myhead(), _Mysize(0) {} // initialize data

  00267	c7 07 00 00 00
	00		 mov	 DWORD PTR [edi], 0
  0026d	c7 47 04 00 00
	00 00		 mov	 DWORD PTR [edi+4], 0
; File C:\Program Files\Microsoft Visual Studio\2022\Professional\VC\Tools\MSVC\14.44.35207\include\xmemory

; 136  :         return ::operator new(_Bytes);

  00274	e8 00 00 00 00	 call	 ??2@YAPAXI@Z		; operator new
  00279	83 c4 04	 add	 esp, 4
; File C:\Program Files\Microsoft Visual Studio\2022\Professional\VC\Tools\MSVC\14.44.35207\include\list

; 1852 :         _Construct_in_place(_Newhead->_Next, _Newhead);

  0027c	89 00		 mov	 DWORD PTR [eax], eax

; 1853 :         _Construct_in_place(_Newhead->_Prev, _Newhead);

  0027e	89 40 04	 mov	 DWORD PTR [eax+4], eax

; 1854 :         _Mypair._Myval2._Myhead = _Newhead;

  00281	89 07		 mov	 DWORD PTR [edi], eax
; File C:\IAGOS\server\v18\Source\Source\_Common\spevent.cpp

; 450  : 			list<CEventItem*>* pList	= new list<CEventItem*>;

  00283	eb 02		 jmp	 SHORT $LN27@Serialize
$LN26@Serialize:
  00285	33 ff		 xor	 edi, edi
$LN27@Serialize:
; File C:\Program Files\Microsoft Visual Studio\2022\Professional\VC\Tools\MSVC\14.44.35207\include\utility

; 274  :         : first(_STD forward<_Other1>(_Val1)), second(_STD forward<_Other2>(_Val2)) {

  00287	8b 75 ec	 mov	 esi, DWORD PTR _nEvent$14[ebp]
; File C:\Program Files\Microsoft Visual Studio\2022\Professional\VC\Tools\MSVC\14.44.35207\include\xtree

; 1017 :             _Loc                = _Find_lower_bound(_Keyval);

  0028a	8d 45 cc	 lea	 eax, DWORD PTR $T6[ebp]
  0028d	8b 4d 08	 mov	 ecx, DWORD PTR _this$1$[ebp]
  00290	50		 push	 eax
  00291	8d 45 a4	 lea	 eax, DWORD PTR $T2[ebp]
; File C:\IAGOS\server\v18\Source\Source\_Common\spevent.cpp

; 450  : 			list<CEventItem*>* pList	= new list<CEventItem*>;

  00294	c7 45 fc ff ff
	ff ff		 mov	 DWORD PTR __$EHRec$[ebp+8], -1
; File C:\Program Files\Microsoft Visual Studio\2022\Professional\VC\Tools\MSVC\14.44.35207\include\xtree

; 1017 :             _Loc                = _Find_lower_bound(_Keyval);

  0029b	50		 push	 eax
; File C:\Program Files\Microsoft Visual Studio\2022\Professional\VC\Tools\MSVC\14.44.35207\include\utility

; 274  :         : first(_STD forward<_Other1>(_Val1)), second(_STD forward<_Other2>(_Val2)) {

  0029c	89 75 cc	 mov	 DWORD PTR $T6[ebp], esi
  0029f	89 7d d0	 mov	 DWORD PTR $T6[ebp+4], edi
; File C:\Program Files\Microsoft Visual Studio\2022\Professional\VC\Tools\MSVC\14.44.35207\include\xtree

; 1017 :             _Loc                = _Find_lower_bound(_Keyval);

  002a2	e8 00 00 00 00	 call	 ??$_Find_lower_bound@H@?$_Tree@V?$_Tmap_traits@HPAV?$list@PAVCEventItem@@V?$allocator@PAVCEventItem@@@std@@@std@@U?$less@H@2@V?$allocator@U?$pair@$$CBHPAV?$list@PAVCEventItem@@V?$allocator@PAVCEventItem@@@std@@@std@@@std@@@2@$0A@@std@@@std@@IBE?AU?$_Tree_find_result@PAU?$_Tree_node@U?$pair@$$CBHPAV?$list@PAVCEventItem@@V?$allocator@PAVCEventItem@@@std@@@std@@@std@@PAX@std@@@1@ABH@Z ; std::_Tree<std::_Tmap_traits<int,std::list<CEventItem *,std::allocator<CEventItem *> > *,std::less<int>,std::allocator<std::pair<int const ,std::list<CEventItem *,std::allocator<CEventItem *> > *> >,0> >::_Find_lower_bound<int>
  002a7	f3 0f 7e 00	 movq	 xmm0, QWORD PTR [eax]
  002ab	8b 40 08	 mov	 eax, DWORD PTR [eax+8]
  002ae	66 0f d6 45 b0	 movq	 QWORD PTR __Loc$3[ebp], xmm0

; 1624 :         return !_Bound->_Isnil && !_DEBUG_LT_PRED(_Getcomp(), _Keyval, _Traits::_Kfn(_Bound->_Myval));

  002b3	80 78 0d 00	 cmp	 BYTE PTR [eax+13], 0
  002b7	75 05		 jne	 SHORT $LN193@Serialize
; File C:\Program Files\Microsoft Visual Studio\2022\Professional\VC\Tools\MSVC\14.44.35207\include\type_traits

; 2380 :         return _Left < _Right;

  002b9	3b 70 10	 cmp	 esi, DWORD PTR [eax+16]
; File C:\Program Files\Microsoft Visual Studio\2022\Professional\VC\Tools\MSVC\14.44.35207\include\xtree

; 1624 :         return !_Bound->_Isnil && !_DEBUG_LT_PRED(_Getcomp(), _Keyval, _Traits::_Kfn(_Bound->_Myval));

  002bc	7d 61		 jge	 SHORT $LN273@Serialize
$LN193@Serialize:

; 1648 :         if (max_size() == _Get_scary()->_Mysize) {

  002be	8b 45 08	 mov	 eax, DWORD PTR _this$1$[ebp]
  002c1	81 78 04 aa aa
	aa 0a		 cmp	 DWORD PTR [eax+4], 178956970 ; 0aaaaaaaH
  002c8	0f 84 0c 01 00
	00		 je	 $LN439@Serialize

; 1023 :             _Inserted = _Tree_temp_node<_Alnode>(_Getal(), _Scary->_Myhead, _STD forward<_Valtys>(_Vals)...)._Release();

  002ce	8b 30		 mov	 esi, DWORD PTR [eax]
; File C:\Program Files\Microsoft Visual Studio\2022\Professional\VC\Tools\MSVC\14.44.35207\include\xmemory

; 1160 :     _CONSTEXPR20 explicit _Alloc_construct_ptr(_Alloc& _Al_) : _Al(_Al_), _Ptr(nullptr) {}

  002d0	89 45 c4	 mov	 DWORD PTR $T5[ebp], eax

; 136  :         return ::operator new(_Bytes);

  002d3	6a 18		 push	 24			; 00000018H
; File C:\Program Files\Microsoft Visual Studio\2022\Professional\VC\Tools\MSVC\14.44.35207\include\xtree

; 808  :     explicit _Tree_temp_node_alloc(_Alnode& _Al_) : _Alloc_construct_ptr<_Alnode>(_Al_) {

  002d5	c7 45 fc 02 00
	00 00		 mov	 DWORD PTR __$EHRec$[ebp+8], 2
; File C:\Program Files\Microsoft Visual Studio\2022\Professional\VC\Tools\MSVC\14.44.35207\include\xmemory

; 1167 :         _Ptr = nullptr; // if allocate throws, prevents double-free

  002dc	c7 45 c8 00 00
	00 00		 mov	 DWORD PTR $T5[ebp+4], 0

; 136  :         return ::operator new(_Bytes);

  002e3	e8 00 00 00 00	 call	 ??2@YAPAXI@Z		; operator new
; File C:\Program Files\Microsoft Visual Studio\2022\Professional\VC\Tools\MSVC\14.44.35207\include\xtree

; 830  :         _Alnode_traits::construct(this->_Al, _STD addressof(this->_Ptr->_Myval), _STD forward<_Valtys>(_Vals)...);

  002e8	8b 4d ec	 mov	 ecx, DWORD PTR _nEvent$14[ebp]
; File C:\Program Files\Microsoft Visual Studio\2022\Professional\VC\Tools\MSVC\14.44.35207\include\xmemory

; 136  :         return ::operator new(_Bytes);

  002eb	83 c4 04	 add	 esp, 4
; File C:\Program Files\Microsoft Visual Studio\2022\Professional\VC\Tools\MSVC\14.44.35207\include\xtree

; 810  :     }

  002ee	c7 45 fc ff ff
	ff ff		 mov	 DWORD PTR __$EHRec$[ebp+8], -1
; File C:\Program Files\Microsoft Visual Studio\2022\Professional\VC\Tools\MSVC\14.44.35207\include\utility

; 774  :     _Val         = static_cast<_Other&&>(_New_val);

  002f5	c7 45 c8 00 00
	00 00		 mov	 DWORD PTR $T5[ebp+4], 0
; File C:\Program Files\Microsoft Visual Studio\2022\Professional\VC\Tools\MSVC\14.44.35207\include\xtree

; 830  :         _Alnode_traits::construct(this->_Al, _STD addressof(this->_Ptr->_Myval), _STD forward<_Valtys>(_Vals)...);

  002fc	89 48 10	 mov	 DWORD PTR [eax+16], ecx

; 1042 :         return {_Scary->_Insert_node(_Loc._Location, _Inserted), true};

  002ff	8b 4d 08	 mov	 ecx, DWORD PTR _this$1$[ebp]
  00302	50		 push	 eax
  00303	ff 75 b4	 push	 DWORD PTR __Loc$3[ebp+4]

; 830  :         _Alnode_traits::construct(this->_Al, _STD addressof(this->_Ptr->_Myval), _STD forward<_Valtys>(_Vals)...);

  00306	89 78 14	 mov	 DWORD PTR [eax+20], edi

; 1042 :         return {_Scary->_Insert_node(_Loc._Location, _Inserted), true};

  00309	ff 75 b0	 push	 DWORD PTR __Loc$3[ebp]

; 831  :         _Construct_in_place(this->_Ptr->_Left, _Myhead);

  0030c	89 30		 mov	 DWORD PTR [eax], esi

; 832  :         _Construct_in_place(this->_Ptr->_Parent, _Myhead);

  0030e	89 70 04	 mov	 DWORD PTR [eax+4], esi

; 833  :         _Construct_in_place(this->_Ptr->_Right, _Myhead);

  00311	89 70 08	 mov	 DWORD PTR [eax+8], esi

; 834  :         this->_Ptr->_Color = _Red;

  00314	66 c7 40 0c 00
	00		 mov	 WORD PTR [eax+12], 0

; 1042 :         return {_Scary->_Insert_node(_Loc._Location, _Inserted), true};

  0031a	e8 00 00 00 00	 call	 ?_Insert_node@?$_Tree_val@U?$_Tree_simple_types@U?$pair@$$CBHPAV?$list@PAVCEventItem@@V?$allocator@PAVCEventItem@@@std@@@std@@@std@@@std@@@std@@QAEPAU?$_Tree_node@U?$pair@$$CBHPAV?$list@PAVCEventItem@@V?$allocator@PAVCEventItem@@@std@@@std@@@std@@PAX@2@U?$_Tree_id@PAU?$_Tree_node@U?$pair@$$CBHPAV?$list@PAVCEventItem@@V?$allocator@PAVCEventItem@@@std@@@std@@@std@@PAX@std@@@2@QAU32@@Z ; std::_Tree_val<std::_Tree_simple_types<std::pair<int const ,std::list<CEventItem *,std::allocator<CEventItem *> > *> > >::_Insert_node
$LN273@Serialize:
; File C:\IAGOS\server\v18\Source\Source\_Common\spevent.cpp

; 457  : 			ar >> nEventItemSize;

  0031f	8d 45 e8	 lea	 eax, DWORD PTR _nEventItemSize$13[ebp]
  00322	8b cb		 mov	 ecx, ebx
  00324	50		 push	 eax
  00325	e8 00 00 00 00	 call	 ??$?5H@CAr@@QAEAAV0@AAH@Z ; CAr::operator>><int>

; 458  : 			for( int j = 0; j < nEventItemSize; j++ )

  0032a	83 7d e8 00	 cmp	 DWORD PTR _nEventItemSize$13[ebp], 0
  0032e	c7 45 f0 00 00
	00 00		 mov	 DWORD PTR _j$1$[ebp], 0
  00335	7e 7f		 jle	 SHORT $LN14@Serialize
$LL19@Serialize:

; 459  : 			{
; 460  : 				CEventItem* pEventItem	= new CEventItem;

  00337	6a 78		 push	 120			; 00000078H
  00339	e8 00 00 00 00	 call	 ??2@YAPAXI@Z		; operator new
  0033e	83 c4 04	 add	 esp, 4
  00341	89 45 dc	 mov	 DWORD PTR $T10[ebp], eax
  00344	85 c0		 test	 eax, eax
  00346	74 0b		 je	 SHORT $LN28@Serialize
  00348	8b c8		 mov	 ecx, eax
  0034a	e8 00 00 00 00	 call	 ??0CEventItem@@QAE@XZ	; CEventItem::CEventItem
  0034f	8b f0		 mov	 esi, eax
  00351	eb 02		 jmp	 SHORT $LN29@Serialize
$LN28@Serialize:
  00353	33 f6		 xor	 esi, esi
$LN29@Serialize:

; 461  : 				pEventItem->Serialize( ar );

  00355	53		 push	 ebx
  00356	8b ce		 mov	 ecx, esi
  00358	e8 00 00 00 00	 call	 ?Serialize@CEventItem@@QAEXAAVCAr@@@Z ; CEventItem::Serialize
; File C:\Program Files\Microsoft Visual Studio\2022\Professional\VC\Tools\MSVC\14.44.35207\include\list

; 1030 :         if (_Mysize == max_size()) {

  0035d	81 7f 04 55 55
	55 15		 cmp	 DWORD PTR [edi+4], 357913941 ; 15555555H

; 1274 :         _Emplace(_Mypair._Myval2._Myhead, _Val);

  00364	8b 07		 mov	 eax, DWORD PTR [edi]
  00366	89 45 dc	 mov	 DWORD PTR __Where$1$[ebp], eax

; 1030 :         if (_Mysize == max_size()) {

  00369	74 74		 je	 SHORT $LN437@Serialize
; File C:\Program Files\Microsoft Visual Studio\2022\Professional\VC\Tools\MSVC\14.44.35207\include\xmemory

; 1160 :     _CONSTEXPR20 explicit _Alloc_construct_ptr(_Alloc& _Al_) : _Al(_Al_), _Ptr(nullptr) {}

  0036b	89 7d bc	 mov	 DWORD PTR __Op$4[ebp], edi

; 136  :         return ::operator new(_Bytes);

  0036e	6a 0c		 push	 12			; 0000000cH
; File C:\Program Files\Microsoft Visual Studio\2022\Professional\VC\Tools\MSVC\14.44.35207\include\list

; 593  :     explicit _List_node_emplace_op2(_Alnode& _Al_, _Valtys&&... _Vals) : _Alloc_construct_ptr<_Alnode>(_Al_) {

  00370	c7 45 fc 03 00
	00 00		 mov	 DWORD PTR __$EHRec$[ebp+8], 3
; File C:\Program Files\Microsoft Visual Studio\2022\Professional\VC\Tools\MSVC\14.44.35207\include\xmemory

; 1167 :         _Ptr = nullptr; // if allocate throws, prevents double-free

  00377	c7 45 c0 00 00
	00 00		 mov	 DWORD PTR __Op$4[ebp+4], 0

; 136  :         return ::operator new(_Bytes);

  0037e	e8 00 00 00 00	 call	 ??2@YAPAXI@Z		; operator new
; File C:\Program Files\Microsoft Visual Studio\2022\Professional\VC\Tools\MSVC\14.44.35207\include\list

; 608  :         const pointer _Insert_after = _Insert_before->_Prev;

  00383	8b 55 dc	 mov	 edx, DWORD PTR __Where$1$[ebp]
; File C:\Program Files\Microsoft Visual Studio\2022\Professional\VC\Tools\MSVC\14.44.35207\include\xmemory

; 136  :         return ::operator new(_Bytes);

  00386	83 c4 04	 add	 esp, 4
; File C:\Program Files\Microsoft Visual Studio\2022\Professional\VC\Tools\MSVC\14.44.35207\include\list

; 596  :     }

  00389	c7 45 fc ff ff
	ff ff		 mov	 DWORD PTR __$EHRec$[ebp+8], -1

; 612  :         this->_Ptr            = pointer{};

  00390	c7 45 c0 00 00
	00 00		 mov	 DWORD PTR __Op$4[ebp+4], 0

; 595  :         _Alnode_traits::construct(this->_Al, _STD addressof(this->_Ptr->_Myval), _STD forward<_Valtys>(_Vals)...);

  00397	89 70 08	 mov	 DWORD PTR [eax+8], esi

; 1035 :         ++_Mysize;

  0039a	ff 47 04	 inc	 DWORD PTR [edi+4]

; 608  :         const pointer _Insert_after = _Insert_before->_Prev;

  0039d	8b 4a 04	 mov	 ecx, DWORD PTR [edx+4]
; File C:\IAGOS\server\v18\Source\Source\_Common\spevent.cpp

; 458  : 			for( int j = 0; j < nEventItemSize; j++ )

  003a0	8b 75 f0	 mov	 esi, DWORD PTR _j$1$[ebp]
; File C:\Program Files\Microsoft Visual Studio\2022\Professional\VC\Tools\MSVC\14.44.35207\include\list

; 609  :         _Construct_in_place(this->_Ptr->_Next, _Insert_before);

  003a3	89 10		 mov	 DWORD PTR [eax], edx
; File C:\IAGOS\server\v18\Source\Source\_Common\spevent.cpp

; 458  : 			for( int j = 0; j < nEventItemSize; j++ )

  003a5	46		 inc	 esi
; File C:\Program Files\Microsoft Visual Studio\2022\Professional\VC\Tools\MSVC\14.44.35207\include\list

; 610  :         _Construct_in_place(this->_Ptr->_Prev, _Insert_after);

  003a6	89 48 04	 mov	 DWORD PTR [eax+4], ecx

; 613  :         _Insert_before->_Prev = _Result;

  003a9	89 42 04	 mov	 DWORD PTR [edx+4], eax

; 614  :         _Insert_after->_Next  = _Result;

  003ac	89 01		 mov	 DWORD PTR [ecx], eax
; File C:\IAGOS\server\v18\Source\Source\_Common\spevent.cpp

; 458  : 			for( int j = 0; j < nEventItemSize; j++ )

  003ae	89 75 f0	 mov	 DWORD PTR _j$1$[ebp], esi
  003b1	3b 75 e8	 cmp	 esi, DWORD PTR _nEventItemSize$13[ebp]
  003b4	7c 81		 jl	 SHORT $LL19@Serialize
$LN14@Serialize:

; 446  : 		for( int i = 0; i < nEventItemListSize; i++ )

  003b6	8b 75 e4	 mov	 esi, DWORD PTR _i$1$[ebp]
  003b9	46		 inc	 esi
  003ba	89 75 e4	 mov	 DWORD PTR _i$1$[ebp], esi
  003bd	3b 75 e0	 cmp	 esi, DWORD PTR _nEventItemListSize$12[ebp]
  003c0	0f 8c 7a fe ff
	ff		 jl	 $LL16@Serialize

; 466  : }

  003c6	8b 4d f4	 mov	 ecx, DWORD PTR __$EHRec$[ebp]
  003c9	64 89 0d 00 00
	00 00		 mov	 DWORD PTR fs:0, ecx
  003d0	59		 pop	 ecx
  003d1	5f		 pop	 edi
  003d2	5e		 pop	 esi
  003d3	5b		 pop	 ebx
  003d4	8b e5		 mov	 esp, ebp
  003d6	5d		 pop	 ebp
  003d7	c2 04 00	 ret	 4
$LN439@Serialize:
; File C:\Program Files\Microsoft Visual Studio\2022\Professional\VC\Tools\MSVC\14.44.35207\include\xtree

; 1649 :             _Throw_tree_length_error();

  003da	e8 00 00 00 00	 call	 ?_Throw_tree_length_error@std@@YAXXZ ; std::_Throw_tree_length_error
$LN437@Serialize:
; File C:\Program Files\Microsoft Visual Studio\2022\Professional\VC\Tools\MSVC\14.44.35207\include\list

; 1031 :             _Xlength_error("list too long");

  003df	68 00 00 00 00	 push	 OFFSET ??_C@_0O@NKNMEGII@list?5too?5long@
  003e4	e8 00 00 00 00	 call	 ?_Xlength_error@std@@YAXPBD@Z ; std::_Xlength_error
$LN471@Serialize:
  003e9	cc		 int	 3
_TEXT	ENDS
;	COMDAT text$x
text$x	SEGMENT
__unwindfunclet$?Serialize@CEventGeneric@@QAEXAAVCAr@@@Z$12:
  00000	8d 4d d4	 lea	 ecx, DWORD PTR __Op$7[ebp]
  00003	e9 00 00 00 00	 jmp	 ??1?$_Alloc_construct_ptr@V?$allocator@U?$_List_node@PAU_EVENT_GENERIC@@PAX@std@@@std@@@std@@QAE@XZ ; std::_Alloc_construct_ptr<std::allocator<std::_List_node<_EVENT_GENERIC *,void *> > >::~_Alloc_construct_ptr<std::allocator<std::_List_node<_EVENT_GENERIC *,void *> > >
__unwindfunclet$?Serialize@CEventGeneric@@QAEXAAVCAr@@@Z$1:
  00008	6a 08		 push	 8
  0000a	8b 45 d8	 mov	 eax, DWORD PTR $T8[ebp]
  0000d	50		 push	 eax
  0000e	e8 00 00 00 00	 call	 ??3@YAXPAXI@Z		; operator delete
  00013	83 c4 08	 add	 esp, 8
  00016	c3		 ret	 0
__unwindfunclet$?Serialize@CEventGeneric@@QAEXAAVCAr@@@Z$8:
  00017	8d 4d c4	 lea	 ecx, DWORD PTR $T5[ebp]
  0001a	e9 00 00 00 00	 jmp	 ??1?$_Alloc_construct_ptr@V?$allocator@U?$_Tree_node@U?$pair@$$CBHPAV?$list@PAVCEventItem@@V?$allocator@PAVCEventItem@@@std@@@std@@@std@@PAX@std@@@std@@@std@@QAE@XZ ; std::_Alloc_construct_ptr<std::allocator<std::_Tree_node<std::pair<int const ,std::list<CEventItem *,std::allocator<CEventItem *> > *>,void *> > >::~_Alloc_construct_ptr<std::allocator<std::_Tree_node<std::pair<int const ,std::list<CEventItem *,std::allocator<CEventItem *> > *>,void *> > >
__unwindfunclet$?Serialize@CEventGeneric@@QAEXAAVCAr@@@Z$4:
  0001f	8d 4d bc	 lea	 ecx, DWORD PTR __Op$4[ebp]
  00022	e9 00 00 00 00	 jmp	 ??1?$_Alloc_construct_ptr@V?$allocator@U?$_List_node@PAVCEventItem@@PAX@std@@@std@@@std@@QAE@XZ ; std::_Alloc_construct_ptr<std::allocator<std::_List_node<CEventItem *,void *> > >::~_Alloc_construct_ptr<std::allocator<std::_List_node<CEventItem *,void *> > >
  00027	cc		 int	 3
  00028	cc		 int	 3
  00029	cc		 int	 3
  0002a	cc		 int	 3
  0002b	cc		 int	 3
__ehhandler$?Serialize@CEventGeneric@@QAEXAAVCAr@@@Z:
  0002c	90		 npad	 1
  0002d	90		 npad	 1
  0002e	8b 54 24 08	 mov	 edx, DWORD PTR [esp+8]
  00032	8d 42 0c	 lea	 eax, DWORD PTR [edx+12]
  00035	8b 4a a0	 mov	 ecx, DWORD PTR [edx-96]
  00038	33 c8		 xor	 ecx, eax
  0003a	e8 00 00 00 00	 call	 @__security_check_cookie@4
  0003f	b8 00 00 00 00	 mov	 eax, OFFSET __ehfuncinfo$?Serialize@CEventGeneric@@QAEXAAVCAr@@@Z
  00044	e9 00 00 00 00	 jmp	 ___CxxFrameHandler3
text$x	ENDS
?Serialize@CEventGeneric@@QAEXAAVCAr@@@Z ENDP		; CEventGeneric::Serialize
; Function compile flags: /Ogtp
; File C:\IAGOS\server\v18\Source\Source\_Common\spevent.cpp
;	COMDAT ?GetInstance@CEventGeneric@@SAPAV1@XZ
_TEXT	SEGMENT
__$EHRec$ = -12						; size = 12
?GetInstance@CEventGeneric@@SAPAV1@XZ PROC		; CEventGeneric::GetInstance, COMDAT

; 354  : {

  00000	55		 push	 ebp
  00001	8b ec		 mov	 ebp, esp
  00003	6a ff		 push	 -1
  00005	68 00 00 00 00	 push	 __ehhandler$?GetInstance@CEventGeneric@@SAPAV1@XZ
  0000a	64 a1 00 00 00
	00		 mov	 eax, DWORD PTR fs:0
  00010	50		 push	 eax
  00011	a1 00 00 00 00	 mov	 eax, DWORD PTR ___security_cookie
  00016	33 c5		 xor	 eax, ebp
  00018	50		 push	 eax
  00019	8d 45 f4	 lea	 eax, DWORD PTR __$EHRec$[ebp]
  0001c	64 a3 00 00 00
	00		 mov	 DWORD PTR fs:0, eax

; 355  : 	static CEventGeneric	sEventGeneric;

  00022	64 a1 00 00 00
	00		 mov	 eax, DWORD PTR fs:__tls_array
  00028	8b 0d 00 00 00
	00		 mov	 ecx, DWORD PTR __tls_index
  0002e	8b 0c 88	 mov	 ecx, DWORD PTR [eax+ecx*4]
  00031	a1 00 00 00 00	 mov	 eax, DWORD PTR ?$TSS0@?1??GetInstance@CEventGeneric@@SAPAV2@XZ@4HA
  00036	3b 81 00 00 00
	00		 cmp	 eax, DWORD PTR __Init_thread_epoch[ecx]
  0003c	7f 14		 jg	 SHORT $LN9@GetInstanc
$LN5@GetInstanc:

; 356  : 	return &sEventGeneric;
; 357  : }

  0003e	b8 00 00 00 00	 mov	 eax, OFFSET ?sEventGeneric@?1??GetInstance@CEventGeneric@@SAPAV2@XZ@4V2@A
  00043	8b 4d f4	 mov	 ecx, DWORD PTR __$EHRec$[ebp]
  00046	64 89 0d 00 00
	00 00		 mov	 DWORD PTR fs:0, ecx
  0004d	59		 pop	 ecx
  0004e	8b e5		 mov	 esp, ebp
  00050	5d		 pop	 ebp
  00051	c3		 ret	 0
$LN9@GetInstanc:

; 355  : 	static CEventGeneric	sEventGeneric;

  00052	68 00 00 00 00	 push	 OFFSET ?$TSS0@?1??GetInstance@CEventGeneric@@SAPAV2@XZ@4HA
  00057	e8 00 00 00 00	 call	 __Init_thread_header
  0005c	83 c4 04	 add	 esp, 4
  0005f	83 3d 00 00 00
	00 ff		 cmp	 DWORD PTR ?$TSS0@?1??GetInstance@CEventGeneric@@SAPAV2@XZ@4HA, -1
  00066	75 d6		 jne	 SHORT $LN5@GetInstanc
  00068	b9 00 00 00 00	 mov	 ecx, OFFSET ?sEventGeneric@?1??GetInstance@CEventGeneric@@SAPAV2@XZ@4V2@A
  0006d	c7 45 fc 00 00
	00 00		 mov	 DWORD PTR __$EHRec$[ebp+8], 0
  00074	e8 00 00 00 00	 call	 ??0CEventGeneric@@QAE@XZ ; CEventGeneric::CEventGeneric
  00079	68 00 00 00 00	 push	 OFFSET ??__FsEventGeneric@?1??GetInstance@CEventGeneric@@SAPAV1@XZ@YAXXZ ; `CEventGeneric::GetInstance'::`2'::`dynamic atexit destructor for 'sEventGeneric''
  0007e	e8 00 00 00 00	 call	 _atexit
  00083	68 00 00 00 00	 push	 OFFSET ?$TSS0@?1??GetInstance@CEventGeneric@@SAPAV2@XZ@4HA
  00088	e8 00 00 00 00	 call	 __Init_thread_footer
  0008d	83 c4 08	 add	 esp, 8
  00090	eb ac		 jmp	 SHORT $LN5@GetInstanc
_TEXT	ENDS
;	COMDAT text$x
text$x	SEGMENT
__unwindfunclet$?GetInstance@CEventGeneric@@SAPAV1@XZ$0:
  00000	68 00 00 00 00	 push	 OFFSET ?$TSS0@?1??GetInstance@CEventGeneric@@SAPAV2@XZ@4HA
  00005	e8 00 00 00 00	 call	 __Init_thread_abort
  0000a	59		 pop	 ecx
  0000b	c3		 ret	 0
  0000c	cc		 int	 3
  0000d	cc		 int	 3
  0000e	cc		 int	 3
  0000f	cc		 int	 3
  00010	cc		 int	 3
__ehhandler$?GetInstance@CEventGeneric@@SAPAV1@XZ:
  00011	90		 npad	 1
  00012	90		 npad	 1
  00013	8b 54 24 08	 mov	 edx, DWORD PTR [esp+8]
  00017	8d 42 0c	 lea	 eax, DWORD PTR [edx+12]
  0001a	8b 4a fc	 mov	 ecx, DWORD PTR [edx-4]
  0001d	33 c8		 xor	 ecx, eax
  0001f	e8 00 00 00 00	 call	 @__security_check_cookie@4
  00024	b8 00 00 00 00	 mov	 eax, OFFSET __ehfuncinfo$?GetInstance@CEventGeneric@@SAPAV1@XZ
  00029	e9 00 00 00 00	 jmp	 ___CxxFrameHandler3
text$x	ENDS
?GetInstance@CEventGeneric@@SAPAV1@XZ ENDP		; CEventGeneric::GetInstance
; Function compile flags: /Ogtp
; File C:\IAGOS\server\v18\Source\Source\_Common\spevent.cpp
; File C:\Program Files\Microsoft Visual Studio\2022\Professional\VC\Tools\MSVC\14.44.35207\include\xtree
; File C:\IAGOS\server\v18\Source\Source\_Common\spevent.cpp
; File C:\Program Files\Microsoft Visual Studio\2022\Professional\VC\Tools\MSVC\14.44.35207\include\xtree
; File C:\Program Files\Microsoft Visual Studio\2022\Professional\VC\Tools\MSVC\14.44.35207\include\type_traits
; File C:\Program Files\Microsoft Visual Studio\2022\Professional\VC\Tools\MSVC\14.44.35207\include\xtree
; File C:\IAGOS\server\v18\Source\Source\_Common\spevent.cpp
; File C:\Program Files\Microsoft Visual Studio\2022\Professional\VC\Tools\MSVC\14.44.35207\include\xmemory
; File C:\Program Files\Microsoft Visual Studio\2022\Professional\VC\Tools\MSVC\14.44.35207\include\list
; File C:\Program Files\Microsoft Visual Studio\2022\Professional\VC\Tools\MSVC\14.44.35207\include\xmemory
; File C:\Program Files\Microsoft Visual Studio\2022\Professional\VC\Tools\MSVC\14.44.35207\include\list
; File C:\IAGOS\server\v18\Source\Source\_Common\spevent.cpp
; File C:\Program Files\Microsoft Visual Studio\2022\Professional\VC\Tools\MSVC\14.44.35207\include\utility
; File C:\IAGOS\server\v18\Source\Source\_Common\spevent.cpp
; File C:\Program Files\Microsoft Visual Studio\2022\Professional\VC\Tools\MSVC\14.44.35207\include\utility
; File C:\IAGOS\server\v18\Source\Source\_Common\spevent.cpp
;	COMDAT ?AddItem@CEventGeneric@@QAEHHKHH@Z
_TEXT	SEGMENT
__Loc$2 = -32						; size = 12
$T3 = -28						; size = 8
$T4 = -20						; size = 8
__$EHRec$ = -12						; size = 12
_nEvent$ = 8						; size = 4
$T5 = 8							; size = 4
_pEventItem$ = 8					; size = 4
$T6 = 8							; size = 4
_dwItemId$ = 12						; size = 4
_nMax$ = 16						; size = 4
_nNum$ = 20						; size = 4
?AddItem@CEventGeneric@@QAEHHKHH@Z PROC			; CEventGeneric::AddItem, COMDAT
; _this$ = ecx

; 334  : {

  00000	55		 push	 ebp
  00001	8b ec		 mov	 ebp, esp
  00003	6a ff		 push	 -1
  00005	68 00 00 00 00	 push	 __ehhandler$?AddItem@CEventGeneric@@QAEHHKHH@Z
  0000a	64 a1 00 00 00
	00		 mov	 eax, DWORD PTR fs:0
  00010	50		 push	 eax
  00011	83 ec 14	 sub	 esp, 20			; 00000014H
  00014	53		 push	 ebx
  00015	56		 push	 esi
  00016	57		 push	 edi
  00017	a1 00 00 00 00	 mov	 eax, DWORD PTR ___security_cookie
  0001c	33 c5		 xor	 eax, ebp
  0001e	50		 push	 eax
  0001f	8d 45 f4	 lea	 eax, DWORD PTR __$EHRec$[ebp]
  00022	64 a3 00 00 00
	00		 mov	 DWORD PTR fs:0, eax
; File C:\Program Files\Microsoft Visual Studio\2022\Professional\VC\Tools\MSVC\14.44.35207\include\xtree

; 1384 :         const _Tree_find_result<_Nodeptr> _Loc = _Find_lower_bound(_Keyval);

  00028	8d 45 08	 lea	 eax, DWORD PTR _nEvent$[ebp]
  0002b	50		 push	 eax
; File C:\IAGOS\server\v18\Source\Source\_Common\spevent.cpp

; 336  : 	map<int, list<CEventItem*>*>::iterator i	= m_mapEventItemList.find( nEvent );

  0002c	8d 79 10	 lea	 edi, DWORD PTR [ecx+16]
; File C:\Program Files\Microsoft Visual Studio\2022\Professional\VC\Tools\MSVC\14.44.35207\include\xtree

; 1384 :         const _Tree_find_result<_Nodeptr> _Loc = _Find_lower_bound(_Keyval);

  0002f	8d 45 e0	 lea	 eax, DWORD PTR __Loc$2[ebp]
  00032	8b cf		 mov	 ecx, edi
  00034	50		 push	 eax
  00035	e8 00 00 00 00	 call	 ??$_Find_lower_bound@H@?$_Tree@V?$_Tmap_traits@HPAV?$list@PAVCEventItem@@V?$allocator@PAVCEventItem@@@std@@@std@@U?$less@H@2@V?$allocator@U?$pair@$$CBHPAV?$list@PAVCEventItem@@V?$allocator@PAVCEventItem@@@std@@@std@@@std@@@2@$0A@@std@@@std@@IBE?AU?$_Tree_find_result@PAU?$_Tree_node@U?$pair@$$CBHPAV?$list@PAVCEventItem@@V?$allocator@PAVCEventItem@@@std@@@std@@@std@@PAX@std@@@1@ABH@Z ; std::_Tree<std::_Tmap_traits<int,std::list<CEventItem *,std::allocator<CEventItem *> > *,std::less<int>,std::allocator<std::pair<int const ,std::list<CEventItem *,std::allocator<CEventItem *> > *> >,0> >::_Find_lower_bound<int>

; 1624 :         return !_Bound->_Isnil && !_DEBUG_LT_PRED(_Getcomp(), _Keyval, _Traits::_Kfn(_Bound->_Myval));

  0003a	8b 75 e8	 mov	 esi, DWORD PTR __Loc$2[ebp+8]
  0003d	8b 5d 08	 mov	 ebx, DWORD PTR _nEvent$[ebp]
  00040	80 7e 0d 00	 cmp	 BYTE PTR [esi+13], 0
  00044	75 33		 jne	 SHORT $LN86@AddItem
; File C:\Program Files\Microsoft Visual Studio\2022\Professional\VC\Tools\MSVC\14.44.35207\include\type_traits

; 2380 :         return _Left < _Right;

  00046	3b 5e 10	 cmp	 ebx, DWORD PTR [esi+16]
; File C:\Program Files\Microsoft Visual Studio\2022\Professional\VC\Tools\MSVC\14.44.35207\include\xtree

; 1624 :         return !_Bound->_Isnil && !_DEBUG_LT_PRED(_Getcomp(), _Keyval, _Traits::_Kfn(_Bound->_Myval));

  00049	7c 2e		 jl	 SHORT $LN86@AddItem

; 37   :     _Tree_unchecked_const_iterator(_Nodeptr _Pnode, const _Mytree* _Plist) noexcept : _Ptr(_Pnode) {

  0004b	3b 37		 cmp	 esi, DWORD PTR [edi]
; File C:\IAGOS\server\v18\Source\Source\_Common\spevent.cpp

; 337  : 	if( i == m_mapEventItemList.end() )

  0004d	74 2a		 je	 SHORT $LN86@AddItem

; 343  : 	}
; 344  : 	else
; 345  : 	{
; 346  : 		pList	= i->second;

  0004f	8b 76 14	 mov	 esi, DWORD PTR [esi+20]
$LN3@AddItem:

; 347  : 	}
; 348  : 	CEventItem* pEventItem	= new CEventItem( dwItemId, nMax, nNum );

  00052	6a 78		 push	 120			; 00000078H
  00054	e8 00 00 00 00	 call	 ??2@YAPAXI@Z		; operator new
  00059	83 c4 04	 add	 esp, 4
  0005c	89 45 08	 mov	 DWORD PTR $T6[ebp], eax
  0005f	85 c0		 test	 eax, eax
  00061	0f 84 8a 00 00
	00		 je	 $LN8@AddItem
  00067	ff 75 14	 push	 DWORD PTR _nNum$[ebp]
  0006a	8b c8		 mov	 ecx, eax
  0006c	ff 75 10	 push	 DWORD PTR _nMax$[ebp]
  0006f	ff 75 0c	 push	 DWORD PTR _dwItemId$[ebp]
  00072	e8 00 00 00 00	 call	 ??0CEventItem@@QAE@KHH@Z ; CEventItem::CEventItem
  00077	eb 7a		 jmp	 SHORT $LN9@AddItem
$LN86@AddItem:

; 339  : 		pList	= new list<CEventItem*>;

  00079	6a 08		 push	 8
  0007b	e8 00 00 00 00	 call	 ??2@YAPAXI@Z		; operator new
  00080	8b f0		 mov	 esi, eax
  00082	83 c4 04	 add	 esp, 4
  00085	89 75 08	 mov	 DWORD PTR $T5[ebp], esi
  00088	c7 45 fc 00 00
	00 00		 mov	 DWORD PTR __$EHRec$[ebp+8], 0
  0008f	85 f6		 test	 esi, esi
  00091	74 20		 je	 SHORT $LN6@AddItem
; File C:\Program Files\Microsoft Visual Studio\2022\Professional\VC\Tools\MSVC\14.44.35207\include\xmemory

; 136  :         return ::operator new(_Bytes);

  00093	6a 0c		 push	 12			; 0000000cH
; File C:\Program Files\Microsoft Visual Studio\2022\Professional\VC\Tools\MSVC\14.44.35207\include\list

; 353  :     _List_val() noexcept : _Myhead(), _Mysize(0) {} // initialize data

  00095	c7 06 00 00 00
	00		 mov	 DWORD PTR [esi], 0
  0009b	c7 46 04 00 00
	00 00		 mov	 DWORD PTR [esi+4], 0
; File C:\Program Files\Microsoft Visual Studio\2022\Professional\VC\Tools\MSVC\14.44.35207\include\xmemory

; 136  :         return ::operator new(_Bytes);

  000a2	e8 00 00 00 00	 call	 ??2@YAPAXI@Z		; operator new
  000a7	83 c4 04	 add	 esp, 4
; File C:\Program Files\Microsoft Visual Studio\2022\Professional\VC\Tools\MSVC\14.44.35207\include\list

; 1852 :         _Construct_in_place(_Newhead->_Next, _Newhead);

  000aa	89 00		 mov	 DWORD PTR [eax], eax

; 1853 :         _Construct_in_place(_Newhead->_Prev, _Newhead);

  000ac	89 40 04	 mov	 DWORD PTR [eax+4], eax

; 1854 :         _Mypair._Myval2._Myhead = _Newhead;

  000af	89 06		 mov	 DWORD PTR [esi], eax
; File C:\IAGOS\server\v18\Source\Source\_Common\spevent.cpp

; 339  : 		pList	= new list<CEventItem*>;

  000b1	eb 02		 jmp	 SHORT $LN7@AddItem
$LN6@AddItem:
  000b3	33 f6		 xor	 esi, esi
$LN7@AddItem:

; 340  : 		bool bResult	= m_mapEventItemList.insert( map<int, list<CEventItem*>*>::value_type( nEvent, pList ) ).second;

  000b5	8d 45 ec	 lea	 eax, DWORD PTR $T4[ebp]
  000b8	c7 45 fc ff ff
	ff ff		 mov	 DWORD PTR __$EHRec$[ebp+8], -1
  000bf	50		 push	 eax
  000c0	8d 45 e4	 lea	 eax, DWORD PTR $T3[ebp]
; File C:\Program Files\Microsoft Visual Studio\2022\Professional\VC\Tools\MSVC\14.44.35207\include\utility

; 274  :         : first(_STD forward<_Other1>(_Val1)), second(_STD forward<_Other2>(_Val2)) {

  000c3	89 5d ec	 mov	 DWORD PTR $T4[ebp], ebx
; File C:\IAGOS\server\v18\Source\Source\_Common\spevent.cpp

; 340  : 		bool bResult	= m_mapEventItemList.insert( map<int, list<CEventItem*>*>::value_type( nEvent, pList ) ).second;

  000c6	50		 push	 eax
  000c7	8b cf		 mov	 ecx, edi
; File C:\Program Files\Microsoft Visual Studio\2022\Professional\VC\Tools\MSVC\14.44.35207\include\utility

; 274  :         : first(_STD forward<_Other1>(_Val1)), second(_STD forward<_Other2>(_Val2)) {

  000c9	89 75 f0	 mov	 DWORD PTR $T4[ebp+4], esi
; File C:\IAGOS\server\v18\Source\Source\_Common\spevent.cpp

; 340  : 		bool bResult	= m_mapEventItemList.insert( map<int, list<CEventItem*>*>::value_type( nEvent, pList ) ).second;

  000cc	e8 00 00 00 00	 call	 ??$insert@$0A@$0A@@?$_Tree@V?$_Tmap_traits@HPAV?$list@PAVCEventItem@@V?$allocator@PAVCEventItem@@@std@@@std@@U?$less@H@2@V?$allocator@U?$pair@$$CBHPAV?$list@PAVCEventItem@@V?$allocator@PAVCEventItem@@@std@@@std@@@std@@@2@$0A@@std@@@std@@QAE?AU?$pair@V?$_Tree_iterator@V?$_Tree_val@U?$_Tree_simple_types@U?$pair@$$CBHPAV?$list@PAVCEventItem@@V?$allocator@PAVCEventItem@@@std@@@std@@@std@@@std@@@std@@@std@@_N@1@$$QAU?$pair@$$CBHPAV?$list@PAVCEventItem@@V?$allocator@PAVCEventItem@@@std@@@std@@@1@@Z ; std::_Tree<std::_Tmap_traits<int,std::list<CEventItem *,std::allocator<CEventItem *> > *,std::less<int>,std::allocator<std::pair<int const ,std::list<CEventItem *,std::allocator<CEventItem *> > *> >,0> >::insert<0,0>

; 341  : 		if( !bResult )	// ?

  000d1	80 78 04 00	 cmp	 BYTE PTR [eax+4], 0
  000d5	0f 85 77 ff ff
	ff		 jne	 $LN3@AddItem

; 342  : 			return FALSE;

  000db	33 c0		 xor	 eax, eax

; 351  : }

  000dd	8b 4d f4	 mov	 ecx, DWORD PTR __$EHRec$[ebp]
  000e0	64 89 0d 00 00
	00 00		 mov	 DWORD PTR fs:0, ecx
  000e7	59		 pop	 ecx
  000e8	5f		 pop	 edi
  000e9	5e		 pop	 esi
  000ea	5b		 pop	 ebx
  000eb	8b e5		 mov	 esp, ebp
  000ed	5d		 pop	 ebp
  000ee	c2 10 00	 ret	 16			; 00000010H
$LN8@AddItem:

; 347  : 	}
; 348  : 	CEventItem* pEventItem	= new CEventItem( dwItemId, nMax, nNum );

  000f1	33 c0		 xor	 eax, eax
$LN9@AddItem:
  000f3	89 45 08	 mov	 DWORD PTR _pEventItem$[ebp], eax

; 349  : 	pList->push_back( pEventItem );

  000f6	8b ce		 mov	 ecx, esi
  000f8	8d 45 08	 lea	 eax, DWORD PTR _pEventItem$[ebp]
  000fb	50		 push	 eax
  000fc	e8 00 00 00 00	 call	 ?push_back@?$list@PAVCEventItem@@V?$allocator@PAVCEventItem@@@std@@@std@@QAEXABQAVCEventItem@@@Z ; std::list<CEventItem *,std::allocator<CEventItem *> >::push_back

; 350  : 	return TRUE;

  00101	b8 01 00 00 00	 mov	 eax, 1

; 351  : }

  00106	8b 4d f4	 mov	 ecx, DWORD PTR __$EHRec$[ebp]
  00109	64 89 0d 00 00
	00 00		 mov	 DWORD PTR fs:0, ecx
  00110	59		 pop	 ecx
  00111	5f		 pop	 edi
  00112	5e		 pop	 esi
  00113	5b		 pop	 ebx
  00114	8b e5		 mov	 esp, ebp
  00116	5d		 pop	 ebp
  00117	c2 10 00	 ret	 16			; 00000010H
_TEXT	ENDS
;	COMDAT text$x
text$x	SEGMENT
__unwindfunclet$?AddItem@CEventGeneric@@QAEHHKHH@Z$0:
  00000	6a 08		 push	 8
  00002	8b 45 08	 mov	 eax, DWORD PTR $T5[ebp]
  00005	50		 push	 eax
  00006	e8 00 00 00 00	 call	 ??3@YAXPAXI@Z		; operator delete
  0000b	83 c4 08	 add	 esp, 8
  0000e	c3		 ret	 0
  0000f	cc		 int	 3
  00010	cc		 int	 3
  00011	cc		 int	 3
  00012	cc		 int	 3
  00013	cc		 int	 3
__ehhandler$?AddItem@CEventGeneric@@QAEHHKHH@Z:
  00014	90		 npad	 1
  00015	90		 npad	 1
  00016	8b 54 24 08	 mov	 edx, DWORD PTR [esp+8]
  0001a	8d 42 0c	 lea	 eax, DWORD PTR [edx+12]
  0001d	8b 4a dc	 mov	 ecx, DWORD PTR [edx-36]
  00020	33 c8		 xor	 ecx, eax
  00022	e8 00 00 00 00	 call	 @__security_check_cookie@4
  00027	b8 00 00 00 00	 mov	 eax, OFFSET __ehfuncinfo$?AddItem@CEventGeneric@@QAEHHKHH@Z
  0002c	e9 00 00 00 00	 jmp	 ___CxxFrameHandler3
text$x	ENDS
?AddItem@CEventGeneric@@QAEHHKHH@Z ENDP			; CEventGeneric::AddItem
; Function compile flags: /Ogtp
; File C:\IAGOS\server\v18\Source\Source\_Common\spevent.cpp
; File C:\Program Files\Microsoft Visual Studio\2022\Professional\VC\Tools\MSVC\14.44.35207\atlmfc\include\cstringt.h
; File C:\IAGOS\server\v18\Source\Source\_Common\spevent.cpp
; File C:\IAGOS\server\v18\Source\Source\_Common\spevent.h
; File C:\IAGOS\server\v18\Source\Source\_Common\spevent.cpp
; File C:\Program Files\Microsoft Visual Studio\2022\Professional\VC\Tools\MSVC\14.44.35207\include\list
; File C:\Program Files\Microsoft Visual Studio\2022\Professional\VC\Tools\MSVC\14.44.35207\include\xmemory
; File C:\Program Files\Microsoft Visual Studio\2022\Professional\VC\Tools\MSVC\14.44.35207\include\list
; File C:\Program Files\Microsoft Visual Studio\2022\Professional\VC\Tools\MSVC\14.44.35207\include\xmemory
; File C:\Program Files\Microsoft Visual Studio\2022\Professional\VC\Tools\MSVC\14.44.35207\include\list
; File C:\Program Files\Microsoft Visual Studio\2022\Professional\VC\Tools\MSVC\14.44.35207\include\xmemory
; File C:\Program Files\Microsoft Visual Studio\2022\Professional\VC\Tools\MSVC\14.44.35207\include\list
; File C:\IAGOS\server\v18\Source\Source\_Common\spevent.cpp
; File C:\Program Files\Microsoft Visual Studio\2022\Professional\VC\Tools\MSVC\14.44.35207\atlmfc\include\cstringt.h
; File C:\IAGOS\server\v18\Source\Source\_Common\spevent.cpp
; File C:\Program Files\Microsoft Visual Studio\2022\Professional\VC\Tools\MSVC\14.44.35207\atlmfc\include\afxstr.h
; File C:\Program Files\Microsoft Visual Studio\2022\Professional\VC\Tools\MSVC\14.44.35207\atlmfc\include\atlsimpstr.h
; File C:\Program Files\Microsoft Visual Studio\2022\Professional\VC\Tools\MSVC\14.44.35207\atlmfc\include\cstringt.h
; File C:\Program Files\Microsoft Visual Studio\2022\Professional\VC\Tools\MSVC\14.44.35207\atlmfc\include\atlsimpstr.h
; File C:\Program Files\Microsoft Visual Studio\2022\Professional\VC\Tools\MSVC\14.44.35207\atlmfc\include\cstringt.h
; File C:\IAGOS\server\v18\Source\Source\_Common\spevent.cpp
; File C:\Program Files\Microsoft Visual Studio\2022\Professional\VC\Tools\MSVC\14.44.35207\atlmfc\include\cstringt.h
; File C:\Program Files\Microsoft Visual Studio\2022\Professional\VC\Tools\MSVC\14.44.35207\atlmfc\include\atlsimpstr.h
; File C:\Program Files\Microsoft Visual Studio\2022\Professional\VC\Tools\MSVC\14.44.35207\atlmfc\include\cstringt.h
; File C:\Program Files (x86)\Windows Kits\10\Include\10.0.26100.0\ucrt\corecrt_memcpy_s.h
; File C:\Program Files\Microsoft Visual Studio\2022\Professional\VC\Tools\MSVC\14.44.35207\atlmfc\include\atlchecked.h
; File C:\Program Files\Microsoft Visual Studio\2022\Professional\VC\Tools\MSVC\14.44.35207\atlmfc\include\cstringt.h
; File C:\Program Files\Microsoft Visual Studio\2022\Professional\VC\Tools\MSVC\14.44.35207\atlmfc\include\atlsimpstr.h
; File C:\IAGOS\server\v18\Source\Source\_Common\spevent.cpp
; File C:\Program Files\Microsoft Visual Studio\2022\Professional\VC\Tools\MSVC\14.44.35207\atlmfc\include\atlsimpstr.h
; File C:\Program Files (x86)\Windows Kits\10\Include\10.0.26100.0\ucrt\corecrt_memcpy_s.h
; File C:\Program Files\Microsoft Visual Studio\2022\Professional\VC\Tools\MSVC\14.44.35207\atlmfc\include\atlsimpstr.h
; File C:\IAGOS\server\v18\Source\Source\_Common\spevent.cpp
; File C:\Program Files\Microsoft Visual Studio\2022\Professional\VC\Tools\MSVC\14.44.35207\atlmfc\include\atlsimpstr.h
; File C:\IAGOS\server\v18\Source\Source\_Common\spevent.cpp
; File C:\Program Files\Microsoft Visual Studio\2022\Professional\VC\Tools\MSVC\14.44.35207\atlmfc\include\atlsimpstr.h
; File C:\IAGOS\server\v18\Source\Source\_Common\spevent.cpp
; File C:\Program Files\Microsoft Visual Studio\2022\Professional\VC\Tools\MSVC\14.44.35207\atlmfc\include\atlsimpstr.h
; File C:\IAGOS\server\v18\Source\Source\_Common\spevent.cpp
; File C:\Program Files\Microsoft Visual Studio\2022\Professional\VC\Tools\MSVC\14.44.35207\atlmfc\include\atlsimpstr.h
; File C:\IAGOS\server\v18\Source\Source\_Common\spevent.cpp
; File C:\Program Files\Microsoft Visual Studio\2022\Professional\VC\Tools\MSVC\14.44.35207\atlmfc\include\cstringt.h
; File C:\IAGOS\server\v18\Source\Source\_Common\spevent.cpp
; File C:\Program Files\Microsoft Visual Studio\2022\Professional\VC\Tools\MSVC\14.44.35207\atlmfc\include\atltime.h
; File C:\IAGOS\server\v18\Source\Source\_Common\spevent.cpp
; File C:\Program Files\Microsoft Visual Studio\2022\Professional\VC\Tools\MSVC\14.44.35207\atlmfc\include\atltime.h
; File C:\IAGOS\server\v18\Source\Source\_Common\spevent.cpp
; File C:\Program Files\Microsoft Visual Studio\2022\Professional\VC\Tools\MSVC\14.44.35207\atlmfc\include\cstringt.h
; File C:\IAGOS\server\v18\Source\Source\_Common\spevent.cpp
; File C:\Program Files\Microsoft Visual Studio\2022\Professional\VC\Tools\MSVC\14.44.35207\atlmfc\include\cstringt.h
; File C:\IAGOS\server\v18\Source\Source\_Common\spevent.cpp
; File C:\Program Files\Microsoft Visual Studio\2022\Professional\VC\Tools\MSVC\14.44.35207\atlmfc\include\cstringt.h
; File C:\IAGOS\server\v18\Source\Source\_Common\spevent.cpp
; File C:\Program Files\Microsoft Visual Studio\2022\Professional\VC\Tools\MSVC\14.44.35207\atlmfc\include\cstringt.h
; File C:\IAGOS\server\v18\Source\Source\_Common\spevent.cpp
; File C:\Program Files\Microsoft Visual Studio\2022\Professional\VC\Tools\MSVC\14.44.35207\include\list
; File C:\IAGOS\server\v18\Source\Source\_Common\spevent.cpp
; File C:\Program Files\Microsoft Visual Studio\2022\Professional\VC\Tools\MSVC\14.44.35207\atlmfc\include\atlsimpstr.h
; File C:\IAGOS\server\v18\Source\Source\_Common\spevent.cpp
;	COMDAT ?LoadScript@CEventGeneric@@QAEHPBD@Z
_TEXT	SEGMENT
__Op$2 = -7880						; size = 8
$T3 = -7872						; size = 8
$T4 = -7868						; size = 4
_nNewLength$1$ = -7868					; size = 4
__Source$1$ = -7868					; size = 4
_nLang$1$ = -7864					; size = 4
_this$GSCopy$1$ = -7860					; size = 4
_nOldLength$1$ = -7856					; size = 4
tv1914 = -7852						; size = 4
_pszEnd$1$ = -7852					; size = 4
__SourceSize$1$ = -7852					; size = 4
$T5 = -7848						; size = 4
_nCount$1$ = -7844					; size = 4
_pszStart$1$ = -7844					; size = 4
_token$6 = -7840					; size = 4
_s$ = -7836						; size = 7784
_atm$7 = -52						; size = 36
_atm$8 = -52						; size = 36
__$ArrayPad$ = -16					; size = 4
__$EHRec$ = -12						; size = 12
_lpFilename$ = 8					; size = 4
?LoadScript@CEventGeneric@@QAEHPBD@Z PROC		; CEventGeneric::LoadScript, COMDAT
; _this$ = ecx

; 185  : {

  00000	55		 push	 ebp
  00001	8b ec		 mov	 ebp, esp
  00003	6a ff		 push	 -1
  00005	68 00 00 00 00	 push	 __ehhandler$?LoadScript@CEventGeneric@@QAEHPBD@Z
  0000a	64 a1 00 00 00
	00		 mov	 eax, DWORD PTR fs:0
  00010	50		 push	 eax
  00011	b8 bc 1e 00 00	 mov	 eax, 7868		; 00001ebcH
  00016	e8 00 00 00 00	 call	 __chkstk
  0001b	a1 00 00 00 00	 mov	 eax, DWORD PTR ___security_cookie
  00020	33 c5		 xor	 eax, ebp
  00022	89 45 f0	 mov	 DWORD PTR __$ArrayPad$[ebp], eax
  00025	53		 push	 ebx
  00026	56		 push	 esi
  00027	57		 push	 edi
  00028	50		 push	 eax
  00029	8d 45 f4	 lea	 eax, DWORD PTR __$EHRec$[ebp]
  0002c	64 a3 00 00 00
	00		 mov	 DWORD PTR fs:0, eax
  00032	8b f9		 mov	 edi, ecx
  00034	89 bd 4c e1 ff
	ff		 mov	 DWORD PTR _this$GSCopy$1$[ebp], edi
  0003a	8b 75 08	 mov	 esi, DWORD PTR _lpFilename$[ebp]

; 186  : 	CScript s;

  0003d	8d 8d 64 e1 ff
	ff		 lea	 ecx, DWORD PTR _s$[ebp]
  00043	6a 00		 push	 0
  00045	e8 00 00 00 00	 call	 ??0CScript@@QAE@H@Z	; CScript::CScript

; 187  : 	if( s.Load( lpFilename ) == FALSE )

  0004a	6a 00		 push	 0
  0004c	6a 01		 push	 1
  0004e	56		 push	 esi
  0004f	8d 8d 64 e1 ff
	ff		 lea	 ecx, DWORD PTR _s$[ebp]
  00055	c7 45 fc 00 00
	00 00		 mov	 DWORD PTR __$EHRec$[ebp+8], 0
  0005c	e8 00 00 00 00	 call	 ?Load@CScript@@QAEHPBDHH@Z ; CScript::Load
  00061	85 c0		 test	 eax, eax
  00063	75 07		 jne	 SHORT $LN10@LoadScript
  00065	33 f6		 xor	 esi, esi
  00067	e9 17 08 00 00	 jmp	 $LN33@LoadScript
$LN10@LoadScript:

; 188  : 		return FALSE;
; 189  : 	s.GetToken();	// subject or FINISHED

  0006c	6a 00		 push	 0
  0006e	8d 8d 64 e1 ff
	ff		 lea	 ecx, DWORD PTR _s$[ebp]
  00074	e8 00 00 00 00	 call	 ?GetToken@CScript@@UAEHH@Z ; CScript::GetToken

; 190  : 	
; 191  : //	int nEvent	= 500;
; 192  : 
; 193  : 	while( s.tok != FINISHED )

  00079	83 bd a8 e9 ff
	ff 15		 cmp	 DWORD PTR _s$[ebp+2116], 21 ; 00000015H
  00080	0f 84 f8 07 00
	00		 je	 $LN520@LoadScript
  00086	66 66 0f 1f 84
	00 00 00 00 00	 npad	 10
$LL2@LoadScript:
; File C:\Program Files\Microsoft Visual Studio\2022\Professional\VC\Tools\MSVC\14.44.35207\atlmfc\include\cstringt.h

; 184  : 		return _mbscmp( reinterpret_cast< const unsigned char* >( pszA ), reinterpret_cast< const unsigned char* >( pszB ) );

  00090	68 00 00 00 00	 push	 OFFSET ??_C@_05GCNIINAF@Event@
  00095	ff b5 84 e1 ff
	ff		 push	 DWORD PTR _s$[ebp+32]
  0009b	e8 00 00 00 00	 call	 __mbscmp
  000a0	83 c4 08	 add	 esp, 8

; 2490 : 		return(str1.Compare(psz2) == 0);

  000a3	85 c0		 test	 eax, eax
; File C:\IAGOS\server\v18\Source\Source\_Common\spevent.cpp

; 195  : 		if( s.Token == _T( "Event" ) )

  000a5	0f 85 b9 07 00
	00		 jne	 $LN557@LoadScript

; 197  : 			PEVENT_GENERIC pEvent	= new EVENT_GENERIC;

  000ab	6a 7c		 push	 124			; 0000007cH
  000ad	e8 00 00 00 00	 call	 ??2@YAPAXI@Z		; operator new
  000b2	8b d8		 mov	 ebx, eax
  000b4	89 85 58 e1 ff
	ff		 mov	 DWORD PTR $T5[ebp], eax
  000ba	83 c4 04	 add	 esp, 4
  000bd	89 9d 44 e1 ff
	ff		 mov	 DWORD PTR $T4[ebp], ebx
  000c3	85 db		 test	 ebx, ebx
  000c5	74 2f		 je	 SHORT $LN27@LoadScript
; File C:\IAGOS\server\v18\Source\Source\_Common\spevent.h

; 44   : 		nId	= 0;

  000c7	c7 03 00 00 00
	00		 mov	 DWORD PTR [ebx], 0

; 45   : 		nFlag	= 0;

  000cd	c7 43 04 00 00
	00 00		 mov	 DWORD PTR [ebx+4], 0

; 46   : 		tStart	= 0;

  000d4	c7 43 08 00 00
	00 00		 mov	 DWORD PTR [ebx+8], 0

; 47   : 		tEnd	= 0;

  000db	c7 43 0c 00 00
	00 00		 mov	 DWORD PTR [ebx+12], 0

; 48   : 		*pszTitle	= '\0';

  000e2	c6 43 18 00	 mov	 BYTE PTR [ebx+24], 0

; 49   : 		fExpFactor	= 1.0f;

  000e6	c7 43 10 00 00
	80 3f		 mov	 DWORD PTR [ebx+16], 1065353216 ; 3f800000H

; 50   : #ifdef __ITEMDROPRATE
; 51   : 		fItemDropRate = 1.0f;

  000ed	c7 43 14 00 00
	80 3f		 mov	 DWORD PTR [ebx+20], 1065353216 ; 3f800000H
; File C:\IAGOS\server\v18\Source\Source\_Common\spevent.cpp

; 197  : 			PEVENT_GENERIC pEvent	= new EVENT_GENERIC;

  000f4	eb 08		 jmp	 SHORT $LN28@LoadScript
$LN27@LoadScript:
  000f6	33 db		 xor	 ebx, ebx
  000f8	89 9d 58 e1 ff
	ff		 mov	 DWORD PTR $T5[ebp], ebx
$LN28@LoadScript:

; 198  : 			pEvent->nId		= s.GetNumber();

  000fe	6a 00		 push	 0
  00100	8d 8d 64 e1 ff
	ff		 lea	 ecx, DWORD PTR _s$[ebp]
  00106	e8 00 00 00 00	 call	 ?GetNumber@CScanner@@QAEHH@Z ; CScanner::GetNumber
  0010b	89 03		 mov	 DWORD PTR [ebx], eax

; 199  : //			pEvent->nId	= nEvent++;
; 200  : 			pEvent->nFlag	= 0x00000001 << ( pEvent->nId - 500 );
; 201  : 			m_lspEvent.push_back( pEvent );

  0010d	8d 77 08	 lea	 esi, DWORD PTR [edi+8]
  00110	8d 88 0c fe ff
	ff		 lea	 ecx, DWORD PTR [eax-500]
  00116	b8 01 00 00 00	 mov	 eax, 1
  0011b	d3 e0		 shl	 eax, cl
  0011d	89 43 04	 mov	 DWORD PTR [ebx+4], eax
; File C:\Program Files\Microsoft Visual Studio\2022\Professional\VC\Tools\MSVC\14.44.35207\include\list

; 1030 :         if (_Mysize == max_size()) {

  00120	81 7e 04 55 55
	55 15		 cmp	 DWORD PTR [esi+4], 357913941 ; 15555555H

; 1274 :         _Emplace(_Mypair._Myval2._Myhead, _Val);

  00127	8b 3e		 mov	 edi, DWORD PTR [esi]

; 1030 :         if (_Mysize == max_size()) {

  00129	0f 84 7f 07 00
	00		 je	 $LN509@LoadScript
; File C:\Program Files\Microsoft Visual Studio\2022\Professional\VC\Tools\MSVC\14.44.35207\include\xmemory

; 1160 :     _CONSTEXPR20 explicit _Alloc_construct_ptr(_Alloc& _Al_) : _Al(_Al_), _Ptr(nullptr) {}

  0012f	89 b5 38 e1 ff
	ff		 mov	 DWORD PTR __Op$2[ebp], esi

; 136  :         return ::operator new(_Bytes);

  00135	6a 0c		 push	 12			; 0000000cH
; File C:\Program Files\Microsoft Visual Studio\2022\Professional\VC\Tools\MSVC\14.44.35207\include\list

; 593  :     explicit _List_node_emplace_op2(_Alnode& _Al_, _Valtys&&... _Vals) : _Alloc_construct_ptr<_Alnode>(_Al_) {

  00137	c6 45 fc 01	 mov	 BYTE PTR __$EHRec$[ebp+8], 1
; File C:\Program Files\Microsoft Visual Studio\2022\Professional\VC\Tools\MSVC\14.44.35207\include\xmemory

; 1167 :         _Ptr = nullptr; // if allocate throws, prevents double-free

  0013b	c7 85 3c e1 ff
	ff 00 00 00 00	 mov	 DWORD PTR __Op$2[ebp+4], 0

; 136  :         return ::operator new(_Bytes);

  00145	e8 00 00 00 00	 call	 ??2@YAPAXI@Z		; operator new

; 256  :         return _Traits::_Allocate(_Bytes);

  0014a	8b c8		 mov	 ecx, eax
; File C:\Program Files\Microsoft Visual Studio\2022\Professional\VC\Tools\MSVC\14.44.35207\include\list

; 596  :     }

  0014c	c6 45 fc 00	 mov	 BYTE PTR __$EHRec$[ebp+8], 0
; File C:\Program Files\Microsoft Visual Studio\2022\Professional\VC\Tools\MSVC\14.44.35207\include\xmemory

; 136  :         return ::operator new(_Bytes);

  00150	83 c4 04	 add	 esp, 4
; File C:\Program Files\Microsoft Visual Studio\2022\Professional\VC\Tools\MSVC\14.44.35207\include\list

; 612  :         this->_Ptr            = pointer{};

  00153	c7 85 3c e1 ff
	ff 00 00 00 00	 mov	 DWORD PTR __Op$2[ebp+4], 0

; 595  :         _Alnode_traits::construct(this->_Al, _STD addressof(this->_Ptr->_Myval), _STD forward<_Valtys>(_Vals)...);

  0015d	89 59 08	 mov	 DWORD PTR [ecx+8], ebx

; 1035 :         ++_Mysize;

  00160	ff 46 04	 inc	 DWORD PTR [esi+4]

; 608  :         const pointer _Insert_after = _Insert_before->_Prev;

  00163	8b 47 04	 mov	 eax, DWORD PTR [edi+4]

; 609  :         _Construct_in_place(this->_Ptr->_Next, _Insert_before);

  00166	89 39		 mov	 DWORD PTR [ecx], edi

; 610  :         _Construct_in_place(this->_Ptr->_Prev, _Insert_after);

  00168	89 41 04	 mov	 DWORD PTR [ecx+4], eax

; 613  :         _Insert_before->_Prev = _Result;

  0016b	89 4f 04	 mov	 DWORD PTR [edi+4], ecx

; 614  :         _Insert_after->_Next  = _Result;

  0016e	89 08		 mov	 DWORD PTR [eax], ecx
; File C:\IAGOS\server\v18\Source\Source\_Common\spevent.cpp

; 203  : 			s.GetToken();	// {

  00170	8d 8d 64 e1 ff
	ff		 lea	 ecx, DWORD PTR _s$[ebp]
  00176	6a 00		 push	 0
  00178	e8 00 00 00 00	 call	 ?GetToken@CScript@@UAEHH@Z ; CScript::GetToken

; 204  : 			s.GetToken();

  0017d	6a 00		 push	 0
  0017f	8d 8d 64 e1 ff
	ff		 lea	 ecx, DWORD PTR _s$[ebp]
  00185	e8 00 00 00 00	 call	 ?GetToken@CScript@@UAEHH@Z ; CScript::GetToken

; 205  : 			while( *s.token != '}' )

  0018a	8b 85 a0 e1 ff
	ff		 mov	 eax, DWORD PTR _s$[ebp+60]
  00190	80 38 7d	 cmp	 BYTE PTR [eax], 125	; 0000007dH
  00193	0f 84 c5 06 00
	00		 je	 $LN560@LoadScript
  00199	0f 1f 80 00 00
	00 00		 npad	 7
$LL4@LoadScript:
; File C:\Program Files\Microsoft Visual Studio\2022\Professional\VC\Tools\MSVC\14.44.35207\atlmfc\include\cstringt.h

; 184  : 		return _mbscmp( reinterpret_cast< const unsigned char* >( pszA ), reinterpret_cast< const unsigned char* >( pszB ) );

  001a0	68 00 00 00 00	 push	 OFFSET ??_C@_05PABKJLOM@Title@
  001a5	ff b5 84 e1 ff
	ff		 push	 DWORD PTR _s$[ebp+32]
  001ab	e8 00 00 00 00	 call	 __mbscmp
  001b0	83 c4 08	 add	 esp, 8

; 2490 : 		return(str1.Compare(psz2) == 0);

  001b3	85 c0		 test	 eax, eax
; File C:\IAGOS\server\v18\Source\Source\_Common\spevent.cpp

; 207  : 				if( s.Token == _T( "Title" ) )

  001b5	0f 85 a2 03 00
	00		 jne	 $LN210@LoadScript

; 208  : 				{
; 209  : 					s.GetToken();	// {

  001bb	50		 push	 eax
  001bc	8d 8d 64 e1 ff
	ff		 lea	 ecx, DWORD PTR _s$[ebp]
  001c2	e8 00 00 00 00	 call	 ?GetToken@CScript@@UAEHH@Z ; CScript::GetToken

; 210  : 					int nLang	= s.GetNumber();

  001c7	6a 00		 push	 0
  001c9	8d 8d 64 e1 ff
	ff		 lea	 ecx, DWORD PTR _s$[ebp]
  001cf	e8 00 00 00 00	 call	 ?GetNumber@CScanner@@QAEHH@Z ; CScanner::GetNumber
  001d4	89 85 48 e1 ff
	ff		 mov	 DWORD PTR _nLang$1$[ebp], eax

; 211  : 					while( *s.token != '}' )

  001da	8b 85 a0 e1 ff
	ff		 mov	 eax, DWORD PTR _s$[ebp+60]
  001e0	80 38 7d	 cmp	 BYTE PTR [eax], 125	; 0000007dH
  001e3	0f 84 59 06 00
	00		 je	 $LN25@LoadScript
  001e9	0f 1f 80 00 00
	00 00		 npad	 7
$LL6@LoadScript:

; 212  : 					{
; 213  : 						s.GetLastFull();

  001f0	8d 8d 64 e1 ff
	ff		 lea	 ecx, DWORD PTR _s$[ebp]
  001f6	e8 00 00 00 00	 call	 ?GetLastFull@CScript@@QAEXXZ ; CScript::GetLastFull

; 214  : 						CString token	= s.token;

  001fb	8b b5 a0 e1 ff
	ff		 mov	 esi, DWORD PTR _s$[ebp+60]
; File C:\Program Files\Microsoft Visual Studio\2022\Professional\VC\Tools\MSVC\14.44.35207\atlmfc\include\afxstr.h

; 56   : 		return( AfxGetStringManager() );

  00201	e8 00 00 00 00	 call	 ?AfxGetStringManager@@YGPAUIAtlStringMgr@ATL@@XZ ; AfxGetStringManager
  00206	8b c8		 mov	 ecx, eax
; File C:\Program Files\Microsoft Visual Studio\2022\Professional\VC\Tools\MSVC\14.44.35207\atlmfc\include\atlsimpstr.h

; 209  : 		ATLENSURE( pStringMgr != NULL );

  00208	85 c9		 test	 ecx, ecx
  0020a	0f 84 b7 06 00
	00		 je	 $LN484@LoadScript

; 210  : 		CStringData* pData = pStringMgr->GetNilString();

  00210	8b 01		 mov	 eax, DWORD PTR [ecx]
  00212	ff 50 0c	 call	 DWORD PTR [eax+12]

; 211  : 		Attach( pData );

  00215	83 c0 10	 add	 eax, 16			; 00000010H
  00218	89 85 60 e1 ff
	ff		 mov	 DWORD PTR _token$6[ebp], eax
; File C:\Program Files\Microsoft Visual Studio\2022\Professional\VC\Tools\MSVC\14.44.35207\atlmfc\include\cstringt.h

; 1052 : 		CThisSimpleString( StringTraits::GetDefaultManager() )

  0021e	c6 45 fc 02	 mov	 BYTE PTR __$EHRec$[ebp+8], 2

; 2712 : 		if( (pv != NULL) && IS_INTRESOURCE( pv ) )

  00222	85 f6		 test	 esi, esi
  00224	74 29		 je	 SHORT $LN540@LoadScript
  00226	f7 c6 00 00 ff
	ff		 test	 esi, -65536		; ffff0000H
  0022c	75 11		 jne	 SHORT $LN61@LoadScript

; 2713 : 		{
; 2714 : 			UINT nID = LOWORD( reinterpret_cast< DWORD_PTR >( pv ) );

  0022e	0f b7 c6	 movzx	 eax, si

; 2715 : 			(nID);
; 2716 : #ifdef _ATL_USE_WINAPI_FAMILY_DESKTOP_APP
; 2717 : 			if( !LoadString( nID ) )

  00231	8d 8d 60 e1 ff
	ff		 lea	 ecx, DWORD PTR _token$6[ebp]
  00237	50		 push	 eax
  00238	e8 00 00 00 00	 call	 ?LoadStringA@?$CStringT@DV?$StrTraitMFC@DV?$ChTraitsCRT@D@ATL@@@@@ATL@@QAEHI@Z ; ATL::CStringT<char,StrTraitMFC<char,ATL::ChTraitsCRT<char> > >::LoadStringA

; 1054 : 		if( !CheckImplicitLoad( pszSrc ) )

  0023d	eb 1f		 jmp	 SHORT $LN35@LoadScript
$LN61@LoadScript:
; File C:\Program Files\Microsoft Visual Studio\2022\Professional\VC\Tools\MSVC\14.44.35207\atlmfc\include\atlsimpstr.h

; 730  : 		return( int( strlen( psz ) ) );

  0023f	8b ce		 mov	 ecx, esi
  00241	8d 51 01	 lea	 edx, DWORD PTR [ecx+1]
$LL551@LoadScript:
  00244	8a 01		 mov	 al, BYTE PTR [ecx]
  00246	41		 inc	 ecx
  00247	84 c0		 test	 al, al
  00249	75 f9		 jne	 SHORT $LL551@LoadScript
  0024b	2b ca		 sub	 ecx, edx
  0024d	eb 02		 jmp	 SHORT $LN60@LoadScript
$LN540@LoadScript:

; 607  : 	}
; 608  : 	void SetString(
; 609  : 		_In_reads_opt_(nLength) PCXSTR pszSrc,
; 610  : 		_In_ int nLength)
; 611  : 	{
; 612  : 		if( nLength == 0 )
; 613  : 		{
; 614  : 			Empty();
; 615  : 		}
; 616  : 		else
; 617  : 		{
; 618  : 			// It is possible that pszSrc points to a location inside of our
; 619  : 			// buffer.  GetBuffer() might change m_pszData if (1) the buffer
; 620  : 			// is shared or (2) the buffer is too small to hold the new
; 621  : 			// string.  We detect this aliasing, and modify pszSrc to point
; 622  : 			// into the newly allocated buffer instead.
; 623  : 
; 624  : 			if(pszSrc == NULL)
; 625  : 				AtlThrow(E_INVALIDARG);
; 626  : 
; 627  : 			UINT nOldLength = GetLength();
; 628  : 			UINT_PTR nOffset = pszSrc-GetString();
; 629  : 			// If 0 <= nOffset <= nOldLength, then pszSrc points into our
; 630  : 			// buffer
; 631  : 
; 632  : 			PXSTR pszBuffer = GetBuffer( nLength );
; 633  : 			if( nOffset <= nOldLength )
; 634  : 			{
; 635  : 				CopyCharsOverlapped( pszBuffer, GetAllocLength(),
; 636  : 					pszBuffer+nOffset, nLength );
; 637  : 			}
; 638  : 			else
; 639  : 			{
; 640  : 				memcpy_s( pszBuffer, GetAllocLength() * sizeof( XCHAR ), pszSrc, nLength * sizeof( XCHAR ));
; 641  : 			}
; 642  : 			ReleaseBufferSetLength( nLength );
; 643  : 		}
; 644  : 	}
; 645  : 
; 646  : public:
; 647  : 	friend CSimpleStringT operator+(
; 648  : 		_In_ const CSimpleStringT& str1,
; 649  : 		_In_ const CSimpleStringT& str2)
; 650  : 	{
; 651  : 		CSimpleStringT s( str1.GetManager() );
; 652  : 
; 653  : 		Concatenate( s, str1, str1.GetLength(), str2, str2.GetLength() );
; 654  : 
; 655  : 		return( s );
; 656  : 	}
; 657  : 
; 658  : 	friend CSimpleStringT operator+(
; 659  : 		_In_ const CSimpleStringT& str1,
; 660  : 		_In_z_ PCXSTR psz2)
; 661  : 	{
; 662  : 		CSimpleStringT s( str1.GetManager() );
; 663  : 
; 664  : 		Concatenate( s, str1, str1.GetLength(), psz2, StringLength( psz2 ) );
; 665  : 
; 666  : 		return( s );
; 667  : 	}
; 668  : 
; 669  : 	friend CSimpleStringT operator+(
; 670  : 		_In_z_ PCXSTR psz1,
; 671  : 		_In_ const CSimpleStringT& str2)
; 672  : 	{
; 673  : 		CSimpleStringT s( str2.GetManager() );
; 674  : 
; 675  : 		Concatenate( s, psz1, StringLength( psz1 ), str2, str2.GetLength() );
; 676  : 
; 677  : 		return( s );
; 678  : 	}
; 679  : 
; 680  : 	_ATL_INSECURE_DEPRECATE("CSimpleStringT::CopyChars must be passed a buffer size")
; 681  : 	static void __cdecl CopyChars(
; 682  : 		_Out_writes_(nChars) XCHAR* pchDest,
; 683  : 		_In_reads_opt_(nChars) const XCHAR* pchSrc,
; 684  : 		_In_ int nChars) throw()
; 685  : 	{
; 686  : 		if (pchSrc != NULL)
; 687  : 		{
; 688  : 			#pragma warning (push)
; 689  : 			#pragma warning(disable : 4996)
; 690  : 			memcpy( pchDest, pchSrc, nChars*sizeof( XCHAR ) );
; 691  : 			#pragma warning (pop)
; 692  : 		}
; 693  : 	}
; 694  : 	static void __cdecl CopyChars(
; 695  : 		_Out_writes_to_(nDestLen,nChars) XCHAR* pchDest,
; 696  : 		_In_ size_t nDestLen,
; 697  : 		_In_reads_opt_(nChars) const XCHAR* pchSrc,
; 698  : 		_In_ int nChars) throw()
; 699  : 	{
; 700  : 		memcpy_s( pchDest, nDestLen*sizeof( XCHAR ),
; 701  : 			pchSrc, nChars*sizeof( XCHAR ) );
; 702  : 	}
; 703  : 
; 704  : 	_ATL_INSECURE_DEPRECATE("CSimpleStringT::CopyCharsOverlapped must be passed a buffer size")
; 705  : 	static void __cdecl CopyCharsOverlapped(
; 706  : 		_Out_writes_(nChars) XCHAR* pchDest,
; 707  : 		_In_reads_(nChars) const XCHAR* pchSrc,
; 708  : 		_In_ int nChars) throw()
; 709  : 	{
; 710  : 		#pragma warning (push)
; 711  : 		#pragma warning(disable : 4996)
; 712  : 		memmove( pchDest, pchSrc, nChars*sizeof( XCHAR ) );
; 713  : 		#pragma warning (pop)
; 714  : 	}
; 715  : 	static void __cdecl CopyCharsOverlapped(
; 716  : 		_Out_writes_to_(nDestLen, nDestLen) XCHAR* pchDest,
; 717  : 		_In_ size_t nDestLen,
; 718  : 		_In_reads_(nChars) const XCHAR* pchSrc,
; 719  : 		_In_ int nChars) throw()
; 720  : 	{
; 721  : 		memmove_s( pchDest, nDestLen*sizeof( XCHAR ),
; 722  : 			pchSrc, nChars*sizeof( XCHAR ) );
; 723  : 	}
; 724  : 	static int __cdecl StringLength(_In_opt_z_ const char* psz) throw()
; 725  : 	{
; 726  : 		if( psz == NULL )
; 727  : 		{
; 728  : 			return( 0 );

  0024f	33 c9		 xor	 ecx, ecx
$LN60@LoadScript:

; 606  : 		SetString( pszSrc, StringLength( pszSrc ) );

  00251	51		 push	 ecx
  00252	56		 push	 esi
  00253	8d 8d 60 e1 ff
	ff		 lea	 ecx, DWORD PTR _token$6[ebp]
  00259	e8 00 00 00 00	 call	 ?SetString@?$CSimpleStringT@D$0A@@ATL@@QAEXPBDH@Z ; ATL::CSimpleStringT<char,0>::SetString
$LN35@LoadScript:
; File C:\Program Files\Microsoft Visual Studio\2022\Professional\VC\Tools\MSVC\14.44.35207\atlmfc\include\cstringt.h

; 1622 : 			PCXSTR pszStart = this->GetString();

  0025e	8b b5 60 e1 ff
	ff		 mov	 esi, DWORD PTR _token$6[ebp]
  00264	33 db		 xor	 ebx, ebx
  00266	8b fe		 mov	 edi, esi
; File C:\IAGOS\server\v18\Source\Source\_Common\spevent.cpp

; 214  : 						CString token	= s.token;

  00268	c6 45 fc 03	 mov	 BYTE PTR __$EHRec$[ebp+8], 3
; File C:\Program Files\Microsoft Visual Studio\2022\Professional\VC\Tools\MSVC\14.44.35207\atlmfc\include\cstringt.h

; 1620 : 		int nCount = 0;

  0026c	89 9d 5c e1 ff
	ff		 mov	 DWORD PTR _nCount$1$[ebp], ebx

; 1622 : 			PCXSTR pszStart = this->GetString();

  00272	8d 47 f4	 lea	 eax, DWORD PTR [edi-12]
  00275	89 85 54 e1 ff
	ff		 mov	 DWORD PTR tv1914[ebp], eax

; 1623 : 			PCXSTR pszEnd = pszStart + this->GetLength();

  0027b	8b 00		 mov	 eax, DWORD PTR [eax]
  0027d	03 c7		 add	 eax, edi
  0027f	3b f8		 cmp	 edi, eax

; 1624 : 			while( pszStart < pszEnd )

  00281	0f 83 99 01 00
	00		 jae	 $LN139@LoadScript
  00287	8b f0		 mov	 esi, eax
  00289	0f 1f 80 00 00
	00 00		 npad	 7
$LL65@LoadScript:

; 212  : 		return reinterpret_cast< LPCSTR >( _mbsstr( reinterpret_cast< const unsigned char* >( pszBlock ),

  00290	68 00 00 00 00	 push	 OFFSET ??_C@_01BJJEKLCA@?$CC@
  00295	57		 push	 edi
  00296	e8 00 00 00 00	 call	 __mbsstr
  0029b	83 c4 08	 add	 esp, 8

; 1627 : 				while( (pszTarget = StringTraits::StringFindString( pszStart, pszOld ) ) != NULL)

  0029e	85 c0		 test	 eax, eax
  002a0	74 1c		 je	 SHORT $LN68@LoadScript
$LL67@LoadScript:

; 1628 : 				{
; 1629 : 					nCount++;
; 1630 : 					pszStart = pszTarget+nSourceLen;

  002a2	8d 78 01	 lea	 edi, DWORD PTR [eax+1]
  002a5	43		 inc	 ebx

; 212  : 		return reinterpret_cast< LPCSTR >( _mbsstr( reinterpret_cast< const unsigned char* >( pszBlock ),

  002a6	68 00 00 00 00	 push	 OFFSET ??_C@_01BJJEKLCA@?$CC@
  002ab	57		 push	 edi
  002ac	e8 00 00 00 00	 call	 __mbsstr
  002b1	83 c4 08	 add	 esp, 8

; 1627 : 				while( (pszTarget = StringTraits::StringFindString( pszStart, pszOld ) ) != NULL)

  002b4	85 c0		 test	 eax, eax
  002b6	75 ea		 jne	 SHORT $LL67@LoadScript
  002b8	89 9d 5c e1 ff
	ff		 mov	 DWORD PTR _nCount$1$[ebp], ebx
$LN68@LoadScript:

; 495  : 		return (psz != NULL) ? int( strlen( psz ) ) : 0;

  002be	85 ff		 test	 edi, edi
  002c0	74 10		 je	 SHORT $LN92@LoadScript
  002c2	8b cf		 mov	 ecx, edi
  002c4	8d 51 01	 lea	 edx, DWORD PTR [ecx+1]
$LL552@LoadScript:
  002c7	8a 01		 mov	 al, BYTE PTR [ecx]
  002c9	41		 inc	 ecx
  002ca	84 c0		 test	 al, al
  002cc	75 f9		 jne	 SHORT $LL552@LoadScript
  002ce	2b ca		 sub	 ecx, edx
  002d0	eb 02		 jmp	 SHORT $LN93@LoadScript
$LN92@LoadScript:
  002d2	33 c9		 xor	 ecx, ecx
$LN93@LoadScript:

; 1632 : 				pszStart += StringTraits::SafeStringLen( pszStart )+1;

  002d4	47		 inc	 edi
  002d5	03 f9		 add	 edi, ecx
  002d7	3b fe		 cmp	 edi, esi
  002d9	72 b5		 jb	 SHORT $LL65@LoadScript
  002db	8b b5 60 e1 ff
	ff		 mov	 esi, DWORD PTR _token$6[ebp]

; 1633 : 			}
; 1634 : 		}
; 1635 : 
; 1636 : 		// if any changes were made, make them
; 1637 : 		if( nCount > 0 )

  002e1	85 db		 test	 ebx, ebx
  002e3	0f 8e 37 01 00
	00		 jle	 $LN139@LoadScript

; 1638 : 		{
; 1639 : 			// if the buffer is too small, just
; 1640 : 			//   allocate a new buffer (slow but sure)
; 1641 : 			int nOldLength = this->GetLength();

  002e9	8b 9d 54 e1 ff
	ff		 mov	 ebx, DWORD PTR tv1914[ebp]
  002ef	8b 1b		 mov	 ebx, DWORD PTR [ebx]

; 1642 : 			int nNewLength = nOldLength+(nReplacementLen-nSourceLen)*nCount;

  002f1	8b fb		 mov	 edi, ebx
  002f3	2b bd 5c e1 ff
	ff		 sub	 edi, DWORD PTR _nCount$1$[ebp]

; 1643 : 
; 1644 : 			PXSTR pszBuffer = this->GetBuffer( __max( nNewLength, nOldLength ) );

  002f9	8b d3		 mov	 edx, ebx
  002fb	3b fb		 cmp	 edi, ebx
  002fd	89 9d 50 e1 ff
	ff		 mov	 DWORD PTR _nOldLength$1$[ebp], ebx
  00303	89 bd 44 e1 ff
	ff		 mov	 DWORD PTR _nNewLength$1$[ebp], edi
  00309	0f 4f d7	 cmovg	 edx, edi
; File C:\Program Files\Microsoft Visual Studio\2022\Professional\VC\Tools\MSVC\14.44.35207\atlmfc\include\atlsimpstr.h

; 808  : 		if (nLength < 0)

  0030c	85 d2		 test	 edx, edx
  0030e	0f 88 a4 05 00
	00		 js	 $LN485@LoadScript

; 809  : 			AtlThrow(E_INVALIDARG);
; 810  : 
; 811  : 		CStringData* pOldData = GetData();
; 812  : 		int nShared = 1-pOldData->nRefs;  // nShared < 0 means true, >= 0 means false
; 813  : 		int nTooShort = pOldData->nAllocLength-nLength;  // nTooShort < 0 means true, >= 0 means false

  00314	8b 46 f8	 mov	 eax, DWORD PTR [esi-8]
  00317	b9 01 00 00 00	 mov	 ecx, 1
  0031c	2b 4e fc	 sub	 ecx, DWORD PTR [esi-4]
  0031f	2b c2		 sub	 eax, edx

; 814  : 		if( (nShared|nTooShort) < 0 )  // If either sign bit is set (i.e. either is less than zero), we need to copy data

  00321	0b c1		 or	 eax, ecx
  00323	7d 12		 jge	 SHORT $LN102@LoadScript

; 815  : 		{
; 816  : 			PrepareWrite2( nLength );

  00325	52		 push	 edx
  00326	8d 8d 60 e1 ff
	ff		 lea	 ecx, DWORD PTR _token$6[ebp]
  0032c	e8 00 00 00 00	 call	 ?PrepareWrite2@?$CSimpleStringT@D$0A@@ATL@@AAEXH@Z ; ATL::CSimpleStringT<char,0>::PrepareWrite2
  00331	8b b5 60 e1 ff
	ff		 mov	 esi, DWORD PTR _token$6[ebp]
$LN102@LoadScript:
; File C:\Program Files\Microsoft Visual Studio\2022\Professional\VC\Tools\MSVC\14.44.35207\atlmfc\include\cstringt.h

; 1646 : 			PXSTR pszStart = pszBuffer;

  00337	8b d6		 mov	 edx, esi
  00339	89 95 5c e1 ff
	ff		 mov	 DWORD PTR _pszStart$1$[ebp], edx
  0033f	8d 04 13	 lea	 eax, DWORD PTR [ebx+edx]
  00342	89 85 54 e1 ff
	ff		 mov	 DWORD PTR _pszEnd$1$[ebp], eax

; 1647 : 			PXSTR pszEnd = pszStart+nOldLength;

  00348	3b d0		 cmp	 edx, eax

; 1648 : 
; 1649 : 			// loop again to actually do the work
; 1650 : 			while( pszStart < pszEnd )

  0034a	0f 83 b8 00 00
	00		 jae	 $LN70@LoadScript
$LL69@LoadScript:

; 212  : 		return reinterpret_cast< LPCSTR >( _mbsstr( reinterpret_cast< const unsigned char* >( pszBlock ),

  00350	68 00 00 00 00	 push	 OFFSET ??_C@_01BJJEKLCA@?$CC@
  00355	52		 push	 edx
  00356	e8 00 00 00 00	 call	 __mbsstr

; 1653 : 				while( (pszTarget = StringTraits::StringFindString( pszStart, pszOld ) ) != NULL )

  0035b	8b f8		 mov	 edi, eax

; 212  : 		return reinterpret_cast< LPCSTR >( _mbsstr( reinterpret_cast< const unsigned char* >( pszBlock ),

  0035d	83 c4 08	 add	 esp, 8

; 1653 : 				while( (pszTarget = StringTraits::StringFindString( pszStart, pszOld ) ) != NULL )

  00360	85 ff		 test	 edi, edi
  00362	74 6a		 je	 SHORT $LN72@LoadScript
$LL71@LoadScript:

; 1654 : 				{
; 1655 : 					int nBalance = nOldLength-int(pszTarget-pszBuffer+nSourceLen);

  00364	2b df		 sub	 ebx, edi

; 1656 : 					Checked::memmove_s( pszTarget+nReplacementLen, nBalance*sizeof( XCHAR ),

  00366	8d 47 01	 lea	 eax, DWORD PTR [edi+1]
  00369	4b		 dec	 ebx
  0036a	03 de		 add	 ebx, esi
; File C:\Program Files (x86)\Windows Kits\10\Include\10.0.26100.0\ucrt\corecrt_memcpy_s.h

; 76   :         if (_SourceSize == 0)

  0036c	74 26		 je	 SHORT $LN563@LoadScript

; 77   :         {
; 78   :             return 0;
; 79   :         }
; 80   : 
; 81   :         _CRT_MEMCPY_S_VALIDATE_RETURN_ERRCODE(_Destination != NULL,            EINVAL);
; 82   :         _CRT_MEMCPY_S_VALIDATE_RETURN_ERRCODE(_Source != NULL,                 EINVAL);

  0036e	85 c0		 test	 eax, eax
  00370	75 17		 jne	 SHORT $LN117@LoadScript
  00372	e8 00 00 00 00	 call	 __errno
  00377	c7 00 16 00 00
	00		 mov	 DWORD PTR [eax], 22	; 00000016H
  0037d	e8 00 00 00 00	 call	 __invalid_parameter_noinfo
  00382	b8 16 00 00 00	 mov	 eax, 22			; 00000016H
  00387	eb 0d		 jmp	 SHORT $LN114@LoadScript
$LN117@LoadScript:

; 83   :         _CRT_MEMCPY_S_VALIDATE_RETURN_ERRCODE(_DestinationSize >= _SourceSize, ERANGE);
; 84   : 
; 85   :         memmove(_Destination, _Source, _SourceSize);

  00389	53		 push	 ebx
  0038a	50		 push	 eax
  0038b	57		 push	 edi
  0038c	e8 00 00 00 00	 call	 _memmove
  00391	83 c4 0c	 add	 esp, 12			; 0000000cH
$LN563@LoadScript:
; File C:\Program Files\Microsoft Visual Studio\2022\Professional\VC\Tools\MSVC\14.44.35207\atlmfc\include\atlchecked.h

; 91   : 	ATLMFC_CRT_ERRORCHECK(::memmove_s(_S1, _S1max, _S2, _N));

  00394	33 c0		 xor	 eax, eax
$LN114@LoadScript:
  00396	50		 push	 eax
  00397	e8 00 00 00 00	 call	 ?AfxCrtErrorCheck@@YAHH@Z ; AfxCrtErrorCheck

; 73   : 	ATLMFC_CRT_ERRORCHECK(::memcpy_s(_S1, _S1max, _S2, _N));

  0039c	6a 00		 push	 0
  0039e	e8 00 00 00 00	 call	 ?AfxCrtErrorCheck@@YAHH@Z ; AfxCrtErrorCheck
; File C:\Program Files\Microsoft Visual Studio\2022\Professional\VC\Tools\MSVC\14.44.35207\atlmfc\include\cstringt.h

; 1661 : 					pszTarget[nReplacementLen+nBalance] = 0;

  003a3	c6 04 3b 00	 mov	 BYTE PTR [ebx+edi], 0

; 1662 : 					nOldLength += (nReplacementLen-nSourceLen);

  003a7	8b 9d 50 e1 ff
	ff		 mov	 ebx, DWORD PTR _nOldLength$1$[ebp]

; 212  : 		return reinterpret_cast< LPCSTR >( _mbsstr( reinterpret_cast< const unsigned char* >( pszBlock ),

  003ad	68 00 00 00 00	 push	 OFFSET ??_C@_01BJJEKLCA@?$CC@

; 1662 : 					nOldLength += (nReplacementLen-nSourceLen);

  003b2	4b		 dec	 ebx
  003b3	89 bd 5c e1 ff
	ff		 mov	 DWORD PTR _pszStart$1$[ebp], edi

; 212  : 		return reinterpret_cast< LPCSTR >( _mbsstr( reinterpret_cast< const unsigned char* >( pszBlock ),

  003b9	57		 push	 edi

; 1662 : 					nOldLength += (nReplacementLen-nSourceLen);

  003ba	89 9d 50 e1 ff
	ff		 mov	 DWORD PTR _nOldLength$1$[ebp], ebx

; 212  : 		return reinterpret_cast< LPCSTR >( _mbsstr( reinterpret_cast< const unsigned char* >( pszBlock ),

  003c0	e8 00 00 00 00	 call	 __mbsstr

; 1653 : 				while( (pszTarget = StringTraits::StringFindString( pszStart, pszOld ) ) != NULL )

  003c5	8b f8		 mov	 edi, eax

; 212  : 		return reinterpret_cast< LPCSTR >( _mbsstr( reinterpret_cast< const unsigned char* >( pszBlock ),

  003c7	83 c4 10	 add	 esp, 16			; 00000010H

; 1653 : 				while( (pszTarget = StringTraits::StringFindString( pszStart, pszOld ) ) != NULL )

  003ca	85 ff		 test	 edi, edi
  003cc	75 96		 jne	 SHORT $LL71@LoadScript
$LN72@LoadScript:

; 495  : 		return (psz != NULL) ? int( strlen( psz ) ) : 0;

  003ce	8b 95 5c e1 ff
	ff		 mov	 edx, DWORD PTR _pszStart$1$[ebp]
  003d4	85 d2		 test	 edx, edx
  003d6	74 13		 je	 SHORT $LN132@LoadScript
  003d8	8b ca		 mov	 ecx, edx
  003da	8d 79 01	 lea	 edi, DWORD PTR [ecx+1]
  003dd	0f 1f 00	 npad	 3
$LL553@LoadScript:
  003e0	8a 01		 mov	 al, BYTE PTR [ecx]
  003e2	41		 inc	 ecx
  003e3	84 c0		 test	 al, al
  003e5	75 f9		 jne	 SHORT $LL553@LoadScript
  003e7	2b cf		 sub	 ecx, edi
  003e9	eb 02		 jmp	 SHORT $LN133@LoadScript
$LN132@LoadScript:
  003eb	33 c9		 xor	 ecx, ecx
$LN133@LoadScript:

; 1664 : 				pszStart += StringTraits::SafeStringLen( pszStart )+1;

  003ed	42		 inc	 edx
  003ee	03 d1		 add	 edx, ecx
  003f0	89 95 5c e1 ff
	ff		 mov	 DWORD PTR _pszStart$1$[ebp], edx
  003f6	3b 95 54 e1 ff
	ff		 cmp	 edx, DWORD PTR _pszEnd$1$[ebp]
  003fc	0f 82 4e ff ff
	ff		 jb	 $LL69@LoadScript
  00402	8b bd 44 e1 ff
	ff		 mov	 edi, DWORD PTR _nNewLength$1$[ebp]
$LN70@LoadScript:
; File C:\Program Files\Microsoft Visual Studio\2022\Professional\VC\Tools\MSVC\14.44.35207\atlmfc\include\atlsimpstr.h

; 875  : 		if( nLength < 0 || nLength > GetData()->nAllocLength)

  00408	85 ff		 test	 edi, edi
  0040a	0f 88 a8 04 00
	00		 js	 $LN485@LoadScript
  00410	3b 7e f8	 cmp	 edi, DWORD PTR [esi-8]
  00413	0f 8f 9f 04 00
	00		 jg	 $LN485@LoadScript

; 876  : 			AtlThrow(E_INVALIDARG);
; 877  : 
; 878  : 		GetData()->nDataLength = nLength;

  00419	89 7e f4	 mov	 DWORD PTR [esi-12], edi

; 879  : 		m_pszData[nLength] = 0;

  0041c	c6 04 37 00	 mov	 BYTE PTR [edi+esi], 0
$LN139@LoadScript:
; File C:\IAGOS\server\v18\Source\Source\_Common\spevent.cpp

; 216  : 						if( nLang == ::GetLanguage() )

  00420	e8 00 00 00 00	 call	 ?GetLanguage@@YAHXZ	; GetLanguage
  00425	39 85 48 e1 ff
	ff		 cmp	 DWORD PTR _nLang$1$[ebp], eax
  0042b	0f 85 e3 00 00
	00		 jne	 $LN558@LoadScript
; File C:\Program Files\Microsoft Visual Studio\2022\Professional\VC\Tools\MSVC\14.44.35207\atlmfc\include\atlsimpstr.h

; 886  : 		IAtlStringMgr* pNewStringMgr = pData->pStringMgr->Clone();

  00431	8b 4e f0	 mov	 ecx, DWORD PTR [esi-16]
  00434	8b 01		 mov	 eax, DWORD PTR [ecx]
  00436	ff 50 10	 call	 DWORD PTR [eax+16]

; 73   : 		return nRefs < 0;

  00439	83 7e fc 00	 cmp	 DWORD PTR [esi-4], 0

; 886  : 		IAtlStringMgr* pNewStringMgr = pData->pStringMgr->Clone();

  0043d	8b c8		 mov	 ecx, eax

; 73   : 		return nRefs < 0;

  0043f	8d 46 fc	 lea	 eax, DWORD PTR [esi-4]

; 887  : 		if( !pData->IsLocked() && (pNewStringMgr == pData->pStringMgr) )

  00442	7c 10		 jl	 SHORT $LN162@LoadScript
  00444	3b 4e f0	 cmp	 ecx, DWORD PTR [esi-16]
  00447	75 0b		 jne	 SHORT $LN162@LoadScript

; 888  : 		{
; 889  : 			pNewData = pData;

  00449	8d 7e f0	 lea	 edi, DWORD PTR [esi-16]

; 69   : 		_InterlockedIncrement(&nRefs);

  0044c	f0 ff 00	 lock	  inc	 DWORD PTR [eax]

; 891  : 		}

  0044f	e9 95 00 00 00	 jmp	 $LN176@LoadScript
$LN162@LoadScript:

; 892  : 		else
; 893  : 		{
; 894  : 			pNewData = pNewStringMgr->Allocate( pData->nDataLength, sizeof( XCHAR ) );

  00454	8b 01		 mov	 eax, DWORD PTR [ecx]
  00456	6a 01		 push	 1
  00458	ff 76 f4	 push	 DWORD PTR [esi-12]
  0045b	ff 10		 call	 DWORD PTR [eax]
  0045d	8b f8		 mov	 edi, eax

; 895  : 			if( pNewData == NULL )

  0045f	85 ff		 test	 edi, edi
  00461	0f 84 5b 04 00
	00		 je	 $LN487@LoadScript

; 898  : 			}
; 899  : 			pNewData->nDataLength = pData->nDataLength;

  00467	8b 4e f4	 mov	 ecx, DWORD PTR [esi-12]

; 900  : 			memcpy_s( PXSTR( pNewData->data() ), (pNewData->nDataLength+1) * sizeof( XCHAR ),

  0046a	8b d6		 mov	 edx, esi
  0046c	89 4f 04	 mov	 DWORD PTR [edi+4], ecx
  0046f	8b 46 f4	 mov	 eax, DWORD PTR [esi-12]
  00472	83 c0 01	 add	 eax, 1
  00475	89 95 44 e1 ff
	ff		 mov	 DWORD PTR __Source$1$[ebp], edx
  0047b	8d 59 01	 lea	 ebx, DWORD PTR [ecx+1]
  0047e	89 85 54 e1 ff
	ff		 mov	 DWORD PTR __SourceSize$1$[ebp], eax
  00484	8d 4f 10	 lea	 ecx, DWORD PTR [edi+16]
; File C:\Program Files (x86)\Windows Kits\10\Include\10.0.26100.0\ucrt\corecrt_memcpy_s.h

; 47   :         if (_SourceSize == 0)

  00487	74 60		 je	 SHORT $LN176@LoadScript

; 48   :         {
; 49   :             return 0;
; 50   :         }
; 51   : 
; 52   :         _CRT_MEMCPY_S_VALIDATE_RETURN_ERRCODE(_Destination != NULL, EINVAL);

  00489	85 c9		 test	 ecx, ecx
  0048b	75 0d		 jne	 SHORT $LN172@LoadScript
  0048d	e8 00 00 00 00	 call	 __errno
  00492	c7 00 16 00 00
	00		 mov	 DWORD PTR [eax], 22	; 00000016H
  00498	eb 4a		 jmp	 SHORT $LN564@LoadScript
$LN172@LoadScript:

; 53   :         if (_Source == NULL || _DestinationSize < _SourceSize)

  0049a	85 d2		 test	 edx, edx
  0049c	74 11		 je	 SHORT $LN174@LoadScript
  0049e	3b d8		 cmp	 ebx, eax
  004a0	72 0d		 jb	 SHORT $LN174@LoadScript

; 59   : 
; 60   :             // Unreachable, but required to suppress /analyze warnings:
; 61   :             return EINVAL;
; 62   :         }
; 63   :         memcpy(_Destination, _Source, _SourceSize);

  004a2	50		 push	 eax
  004a3	52		 push	 edx
  004a4	51		 push	 ecx
  004a5	e8 00 00 00 00	 call	 _memcpy
  004aa	83 c4 0c	 add	 esp, 12			; 0000000cH
  004ad	eb 3a		 jmp	 SHORT $LN176@LoadScript
$LN174@LoadScript:

; 54   :         {
; 55   :             memset(_Destination, 0, _DestinationSize);

  004af	53		 push	 ebx
  004b0	6a 00		 push	 0
  004b2	51		 push	 ecx
  004b3	e8 00 00 00 00	 call	 _memset
  004b8	83 c4 0c	 add	 esp, 12			; 0000000cH

; 56   : 
; 57   :             _CRT_MEMCPY_S_VALIDATE_RETURN_ERRCODE(_Source != NULL,                 EINVAL);

  004bb	83 bd 44 e1 ff
	ff 00		 cmp	 DWORD PTR __Source$1$[ebp], 0
  004c2	75 0d		 jne	 SHORT $LN175@LoadScript
  004c4	e8 00 00 00 00	 call	 __errno
  004c9	c7 00 16 00 00
	00		 mov	 DWORD PTR [eax], 22	; 00000016H
  004cf	eb 13		 jmp	 SHORT $LN564@LoadScript
$LN175@LoadScript:

; 58   :             _CRT_MEMCPY_S_VALIDATE_RETURN_ERRCODE(_DestinationSize >= _SourceSize, ERANGE);

  004d1	3b 9d 54 e1 ff
	ff		 cmp	 ebx, DWORD PTR __SourceSize$1$[ebp]
  004d7	73 10		 jae	 SHORT $LN176@LoadScript
  004d9	e8 00 00 00 00	 call	 __errno
  004de	c7 00 22 00 00
	00		 mov	 DWORD PTR [eax], 34	; 00000022H
$LN564@LoadScript:
; File C:\Program Files\Microsoft Visual Studio\2022\Professional\VC\Tools\MSVC\14.44.35207\atlmfc\include\atlsimpstr.h

; 218  : 		Attach( pNewData );

  004e4	e8 00 00 00 00	 call	 __invalid_parameter_noinfo
$LN176@LoadScript:
; File C:\IAGOS\server\v18\Source\Source\_Common\spevent.cpp

; 221  : 							lstrcpy( pEvent->pszTitle, (LPCSTR)str );

  004e9	8b 9d 58 e1 ff
	ff		 mov	 ebx, DWORD PTR $T5[ebp]
; File C:\Program Files\Microsoft Visual Studio\2022\Professional\VC\Tools\MSVC\14.44.35207\atlmfc\include\atlsimpstr.h

; 218  : 		Attach( pNewData );

  004ef	8d 47 10	 lea	 eax, DWORD PTR [edi+16]
; File C:\IAGOS\server\v18\Source\Source\_Common\spevent.cpp

; 221  : 							lstrcpy( pEvent->pszTitle, (LPCSTR)str );

  004f2	50		 push	 eax
  004f3	8d 43 18	 lea	 eax, DWORD PTR [ebx+24]
  004f6	50		 push	 eax
  004f7	ff 15 00 00 00
	00		 call	 DWORD PTR __imp__lstrcpyA@8
; File C:\Program Files\Microsoft Visual Studio\2022\Professional\VC\Tools\MSVC\14.44.35207\atlmfc\include\atlsimpstr.h

; 92   : 		if( _InterlockedDecrement( &nRefs ) <= 0 )

  004fd	83 c8 ff	 or	 eax, -1
  00500	f0 0f c1 47 0c	 lock	  xadd	 DWORD PTR [edi+12], eax
  00505	48		 dec	 eax
  00506	85 c0		 test	 eax, eax
  00508	7f 10		 jg	 SHORT $LN187@LoadScript

; 93   : 		{
; 94   : 			pStringMgr->Free( this );

  0050a	8b 0f		 mov	 ecx, DWORD PTR [edi]
  0050c	57		 push	 edi
  0050d	8b 01		 mov	 eax, DWORD PTR [ecx]
  0050f	ff 50 04	 call	 DWORD PTR [eax+4]
; File C:\IAGOS\server\v18\Source\Source\_Common\spevent.cpp

; 216  : 						if( nLang == ::GetLanguage() )

  00512	eb 06		 jmp	 SHORT $LN187@LoadScript
$LN558@LoadScript:
  00514	8b 9d 58 e1 ff
	ff		 mov	 ebx, DWORD PTR $T5[ebp]
$LN187@LoadScript:

; 222  : 						}
; 223  : 						nLang	= s.GetNumber();

  0051a	6a 00		 push	 0
  0051c	8d 8d 64 e1 ff
	ff		 lea	 ecx, DWORD PTR _s$[ebp]
  00522	e8 00 00 00 00	 call	 ?GetNumber@CScanner@@QAEHH@Z ; CScanner::GetNumber
  00527	89 85 48 e1 ff
	ff		 mov	 DWORD PTR _nLang$1$[ebp], eax
; File C:\Program Files\Microsoft Visual Studio\2022\Professional\VC\Tools\MSVC\14.44.35207\atlmfc\include\atlsimpstr.h

; 804  : 		return( reinterpret_cast< CStringData* >( m_pszData )-1 );

  0052d	83 c6 f0	 add	 esi, -16		; fffffff0H
; File C:\IAGOS\server\v18\Source\Source\_Common\spevent.cpp

; 224  : 					}

  00530	c6 45 fc 00	 mov	 BYTE PTR __$EHRec$[ebp+8], 0
; File C:\Program Files\Microsoft Visual Studio\2022\Professional\VC\Tools\MSVC\14.44.35207\atlmfc\include\atlsimpstr.h

; 92   : 		if( _InterlockedDecrement( &nRefs ) <= 0 )

  00534	83 c8 ff	 or	 eax, -1
  00537	f0 0f c1 46 0c	 lock	  xadd	 DWORD PTR [esi+12], eax
  0053c	48		 dec	 eax
  0053d	85 c0		 test	 eax, eax
  0053f	7f 08		 jg	 SHORT $LN152@LoadScript

; 93   : 		{
; 94   : 			pStringMgr->Free( this );

  00541	8b 0e		 mov	 ecx, DWORD PTR [esi]
  00543	56		 push	 esi
  00544	8b 01		 mov	 eax, DWORD PTR [ecx]
  00546	ff 50 04	 call	 DWORD PTR [eax+4]
$LN152@LoadScript:
; File C:\IAGOS\server\v18\Source\Source\_Common\spevent.cpp

; 211  : 					while( *s.token != '}' )

  00549	8b 85 a0 e1 ff
	ff		 mov	 eax, DWORD PTR _s$[ebp+60]
  0054f	80 38 7d	 cmp	 BYTE PTR [eax], 125	; 0000007dH
  00552	0f 85 98 fc ff
	ff		 jne	 $LL6@LoadScript

; 225  : 				}

  00558	e9 e5 02 00 00	 jmp	 $LN25@LoadScript
$LN210@LoadScript:
; File C:\Program Files\Microsoft Visual Studio\2022\Professional\VC\Tools\MSVC\14.44.35207\atlmfc\include\cstringt.h

; 184  : 		return _mbscmp( reinterpret_cast< const unsigned char* >( pszA ), reinterpret_cast< const unsigned char* >( pszB ) );

  0055d	68 00 00 00 00	 push	 OFFSET ??_C@_04OKOFBOPB@Time@
  00562	ff b5 84 e1 ff
	ff		 push	 DWORD PTR _s$[ebp+32]
  00568	e8 00 00 00 00	 call	 __mbscmp
  0056d	83 c4 08	 add	 esp, 8

; 2490 : 		return(str1.Compare(psz2) == 0);

  00570	85 c0		 test	 eax, eax
; File C:\IAGOS\server\v18\Source\Source\_Common\spevent.cpp

; 227  : 				else if( s.Token == _T( "Time" ) )

  00572	0f 85 7b 01 00
	00		 jne	 $LN342@LoadScript

; 228  : 				{
; 229  : #ifdef __DBSERVER
; 230  : 					s.GetToken();	// {

  00578	50		 push	 eax
  00579	8d 8d 64 e1 ff
	ff		 lea	 ecx, DWORD PTR _s$[ebp]
  0057f	e8 00 00 00 00	 call	 ?GetToken@CScript@@UAEHH@Z ; CScript::GetToken

; 231  : 					int nYear	= s.GetNumber();

  00584	6a 00		 push	 0
  00586	8d 8d 64 e1 ff
	ff		 lea	 ecx, DWORD PTR _s$[ebp]
  0058c	e8 00 00 00 00	 call	 ?GetNumber@CScanner@@QAEHH@Z ; CScanner::GetNumber

; 232  : 					int nMonth	= s.GetNumber();

  00591	6a 00		 push	 0
  00593	8d 8d 64 e1 ff
	ff		 lea	 ecx, DWORD PTR _s$[ebp]
  00599	8b d8		 mov	 ebx, eax
  0059b	e8 00 00 00 00	 call	 ?GetNumber@CScanner@@QAEHH@Z ; CScanner::GetNumber

; 233  : 					int nDay	= s.GetNumber();

  005a0	6a 00		 push	 0
  005a2	8d 8d 64 e1 ff
	ff		 lea	 ecx, DWORD PTR _s$[ebp]
  005a8	8b f8		 mov	 edi, eax
  005aa	e8 00 00 00 00	 call	 ?GetNumber@CScanner@@QAEHH@Z ; CScanner::GetNumber

; 234  : 					int nHour	= s.GetNumber();

  005af	6a 00		 push	 0
  005b1	8d 8d 64 e1 ff
	ff		 lea	 ecx, DWORD PTR _s$[ebp]
  005b7	8b f0		 mov	 esi, eax
  005b9	e8 00 00 00 00	 call	 ?GetNumber@CScanner@@QAEHH@Z ; CScanner::GetNumber
  005be	8b d0		 mov	 edx, eax
; File C:\Program Files\Microsoft Visual Studio\2022\Professional\VC\Tools\MSVC\14.44.35207\atlmfc\include\atltime.h

; 436  : 	ATLENSURE( nYear >= 1970 );

  005c0	81 fb b2 07 00
	00		 cmp	 ebx, 1970		; 000007b2H
  005c6	0f 8c fb 02 00
	00		 jl	 $LN484@LoadScript

; 437  : 	ATLENSURE( nMonth >= 1 && nMonth <= 12 );

  005cc	8d 4f ff	 lea	 ecx, DWORD PTR [edi-1]
  005cf	83 f9 0b	 cmp	 ecx, 11			; 0000000bH
  005d2	0f 87 ef 02 00
	00		 ja	 $LN484@LoadScript

; 438  : 	ATLENSURE( nDay >= 1 && nDay <= 31 );

  005d8	8d 46 ff	 lea	 eax, DWORD PTR [esi-1]
  005db	83 f8 1e	 cmp	 eax, 30			; 0000001eH
  005de	0f 87 e3 02 00
	00		 ja	 $LN484@LoadScript

; 439  : 	ATLENSURE( nHour >= 0 && nHour <= 23 );

  005e4	83 fa 17	 cmp	 edx, 23			; 00000017H
  005e7	0f 87 da 02 00
	00		 ja	 $LN484@LoadScript

; 440  : 	ATLENSURE( nMin >= 0 && nMin <= 59 );
; 441  : 	ATLENSURE( nSec >= 0 && nSec <= 59 );
; 442  : 
; 443  : #pragma warning (pop)
; 444  : 
; 445  : 	struct tm atm;
; 446  : 
; 447  : 	atm.tm_sec = nSec;
; 448  : 	atm.tm_min = nMin;
; 449  : 	atm.tm_hour = nHour;
; 450  : 	atm.tm_mday = nDay;
; 451  : 	atm.tm_mon = nMonth - 1;        // tm_mon is 0 based
; 452  : 	atm.tm_year = nYear - 1900;     // tm_year is 1900 based

  005ed	8d 83 94 f8 ff
	ff		 lea	 eax, DWORD PTR [ebx-1900]
  005f3	c7 45 cc 00 00
	00 00		 mov	 DWORD PTR _atm$7[ebp], 0
  005fa	89 45 e0	 mov	 DWORD PTR _atm$7[ebp+20], eax

; 453  : 	atm.tm_isdst = nDST;
; 454  : 
; 455  : 	m_time = _mktime64(&atm);

  005fd	8d 45 cc	 lea	 eax, DWORD PTR _atm$7[ebp]
  00600	50		 push	 eax
  00601	c7 45 d0 00 00
	00 00		 mov	 DWORD PTR _atm$7[ebp+4], 0
  00608	89 55 d4	 mov	 DWORD PTR _atm$7[ebp+8], edx
  0060b	89 75 d8	 mov	 DWORD PTR _atm$7[ebp+12], esi
  0060e	89 4d dc	 mov	 DWORD PTR _atm$7[ebp+16], ecx
  00611	c7 45 ec ff ff
	ff ff		 mov	 DWORD PTR _atm$7[ebp+32], -1
  00618	e8 00 00 00 00	 call	 __mktime64
  0061d	8b c8		 mov	 ecx, eax
  0061f	83 c4 04	 add	 esp, 4
  00622	23 c2		 and	 eax, edx
  00624	83 f8 ff	 cmp	 eax, -1

; 456  : 	ATLASSUME(m_time != -1);       // indicates an illegal input time
; 457  : 	if(m_time == -1)

  00627	0f 84 8b 02 00
	00		 je	 $LN485@LoadScript
; File C:\IAGOS\server\v18\Source\Source\_Common\spevent.cpp

; 237  : 					nYear	= s.GetNumber();

  0062d	8b 85 58 e1 ff
	ff		 mov	 eax, DWORD PTR $T5[ebp]
  00633	6a 00		 push	 0
  00635	89 48 08	 mov	 DWORD PTR [eax+8], ecx
  00638	8d 8d 64 e1 ff
	ff		 lea	 ecx, DWORD PTR _s$[ebp]
  0063e	e8 00 00 00 00	 call	 ?GetNumber@CScanner@@QAEHH@Z ; CScanner::GetNumber

; 238  : 					nMonth	= s.GetNumber();

  00643	6a 00		 push	 0
  00645	8d 8d 64 e1 ff
	ff		 lea	 ecx, DWORD PTR _s$[ebp]
  0064b	8b d8		 mov	 ebx, eax
  0064d	e8 00 00 00 00	 call	 ?GetNumber@CScanner@@QAEHH@Z ; CScanner::GetNumber

; 239  : 					nDay	= s.GetNumber();

  00652	6a 00		 push	 0
  00654	8d 8d 64 e1 ff
	ff		 lea	 ecx, DWORD PTR _s$[ebp]
  0065a	8b f8		 mov	 edi, eax
  0065c	e8 00 00 00 00	 call	 ?GetNumber@CScanner@@QAEHH@Z ; CScanner::GetNumber

; 240  : 					nHour	= s.GetNumber();

  00661	6a 00		 push	 0
  00663	8d 8d 64 e1 ff
	ff		 lea	 ecx, DWORD PTR _s$[ebp]
  00669	8b f0		 mov	 esi, eax
  0066b	e8 00 00 00 00	 call	 ?GetNumber@CScanner@@QAEHH@Z ; CScanner::GetNumber
  00670	8b d0		 mov	 edx, eax
; File C:\Program Files\Microsoft Visual Studio\2022\Professional\VC\Tools\MSVC\14.44.35207\atlmfc\include\atltime.h

; 436  : 	ATLENSURE( nYear >= 1970 );

  00672	81 fb b2 07 00
	00		 cmp	 ebx, 1970		; 000007b2H
  00678	0f 8c 49 02 00
	00		 jl	 $LN484@LoadScript

; 437  : 	ATLENSURE( nMonth >= 1 && nMonth <= 12 );

  0067e	8d 4f ff	 lea	 ecx, DWORD PTR [edi-1]
  00681	83 f9 0b	 cmp	 ecx, 11			; 0000000bH
  00684	0f 87 3d 02 00
	00		 ja	 $LN484@LoadScript

; 438  : 	ATLENSURE( nDay >= 1 && nDay <= 31 );

  0068a	8d 46 ff	 lea	 eax, DWORD PTR [esi-1]
  0068d	83 f8 1e	 cmp	 eax, 30			; 0000001eH
  00690	0f 87 31 02 00
	00		 ja	 $LN484@LoadScript

; 439  : 	ATLENSURE( nHour >= 0 && nHour <= 23 );

  00696	83 fa 17	 cmp	 edx, 23			; 00000017H
  00699	0f 87 28 02 00
	00		 ja	 $LN484@LoadScript

; 440  : 	ATLENSURE( nMin >= 0 && nMin <= 59 );
; 441  : 	ATLENSURE( nSec >= 0 && nSec <= 59 );
; 442  : 
; 443  : #pragma warning (pop)
; 444  : 
; 445  : 	struct tm atm;
; 446  : 
; 447  : 	atm.tm_sec = nSec;
; 448  : 	atm.tm_min = nMin;
; 449  : 	atm.tm_hour = nHour;
; 450  : 	atm.tm_mday = nDay;
; 451  : 	atm.tm_mon = nMonth - 1;        // tm_mon is 0 based
; 452  : 	atm.tm_year = nYear - 1900;     // tm_year is 1900 based

  0069f	8d 83 94 f8 ff
	ff		 lea	 eax, DWORD PTR [ebx-1900]
  006a5	c7 45 cc 00 00
	00 00		 mov	 DWORD PTR _atm$8[ebp], 0
  006ac	89 45 e0	 mov	 DWORD PTR _atm$8[ebp+20], eax

; 453  : 	atm.tm_isdst = nDST;
; 454  : 
; 455  : 	m_time = _mktime64(&atm);

  006af	8d 45 cc	 lea	 eax, DWORD PTR _atm$8[ebp]
  006b2	50		 push	 eax
  006b3	c7 45 d0 00 00
	00 00		 mov	 DWORD PTR _atm$8[ebp+4], 0
  006ba	89 55 d4	 mov	 DWORD PTR _atm$8[ebp+8], edx
  006bd	89 75 d8	 mov	 DWORD PTR _atm$8[ebp+12], esi
  006c0	89 4d dc	 mov	 DWORD PTR _atm$8[ebp+16], ecx
  006c3	c7 45 ec ff ff
	ff ff		 mov	 DWORD PTR _atm$8[ebp+32], -1
  006ca	e8 00 00 00 00	 call	 __mktime64
  006cf	8b c8		 mov	 ecx, eax
  006d1	89 95 44 e1 ff
	ff		 mov	 DWORD PTR $T3[ebp+4], edx
  006d7	23 c2		 and	 eax, edx
  006d9	83 c4 04	 add	 esp, 4
  006dc	83 f8 ff	 cmp	 eax, -1

; 456  : 	ATLASSUME(m_time != -1);       // indicates an illegal input time
; 457  : 	if(m_time == -1)

  006df	0f 84 d3 01 00
	00		 je	 $LN485@LoadScript
; File C:\IAGOS\server\v18\Source\Source\_Common\spevent.cpp

; 242  : 					pEvent->tEnd	= (time_t)( t.GetTime() );

  006e5	8b 9d 58 e1 ff
	ff		 mov	 ebx, DWORD PTR $T5[ebp]
  006eb	89 4b 0c	 mov	 DWORD PTR [ebx+12], ecx

; 243  : 					s.GetToken();	// }
; 244  : #else	// __DBSERVER
; 245  : 					s.GetToken();
; 246  : 					s.GetToken();
; 247  : 					s.GetToken();
; 248  : 					s.GetToken();
; 249  : 					s.GetToken();
; 250  : 					s.GetToken();
; 251  : 					s.GetToken();
; 252  : 					s.GetToken();
; 253  : 					s.GetToken();
; 254  : 					s.GetToken();
; 255  : #endif	// __DBSERVER
; 256  : 				}

  006ee	e9 42 01 00 00	 jmp	 $LN565@LoadScript
$LN342@LoadScript:
; File C:\Program Files\Microsoft Visual Studio\2022\Professional\VC\Tools\MSVC\14.44.35207\atlmfc\include\cstringt.h

; 184  : 		return _mbscmp( reinterpret_cast< const unsigned char* >( pszA ), reinterpret_cast< const unsigned char* >( pszB ) );

  006f3	68 00 00 00 00	 push	 OFFSET ??_C@_04BGCMBJDA@Item@
  006f8	ff b5 84 e1 ff
	ff		 push	 DWORD PTR _s$[ebp+32]
  006fe	e8 00 00 00 00	 call	 __mbscmp
  00703	83 c4 08	 add	 esp, 8

; 2490 : 		return(str1.Compare(psz2) == 0);

  00706	85 c0		 test	 eax, eax
; File C:\IAGOS\server\v18\Source\Source\_Common\spevent.cpp

; 257  : 				else if( s.Token == _T( "Item" ) )

  00708	0f 85 7d 00 00
	00		 jne	 $LN374@LoadScript

; 258  : 				{
; 259  : #ifdef __DBSERVER
; 260  : 					s.GetToken();	// {

  0070e	50		 push	 eax
  0070f	8d 8d 64 e1 ff
	ff		 lea	 ecx, DWORD PTR _s$[ebp]
  00715	e8 00 00 00 00	 call	 ?GetToken@CScript@@UAEHH@Z ; CScript::GetToken

; 261  : 					DWORD dwItemId	= s.GetNumber();

  0071a	6a 00		 push	 0
  0071c	8d 8d 64 e1 ff
	ff		 lea	 ecx, DWORD PTR _s$[ebp]
  00722	e8 00 00 00 00	 call	 ?GetNumber@CScanner@@QAEHH@Z ; CScanner::GetNumber
  00727	8b f8		 mov	 edi, eax

; 262  : 					while( *s.token != '}' )

  00729	8b 85 a0 e1 ff
	ff		 mov	 eax, DWORD PTR _s$[ebp+60]
  0072f	80 38 7d	 cmp	 BYTE PTR [eax], 125	; 0000007dH
  00732	0f 84 0a 01 00
	00		 je	 $LN25@LoadScript
  00738	0f 1f 84 00 00
	00 00 00	 npad	 8
$LL8@LoadScript:

; 263  : 					{
; 264  : 						if( dwItemId == 0 )
; 265  : 						{
; 266  : 							//
; 267  : 						}
; 268  : 						int nMax	= s.GetNumber();

  00740	6a 00		 push	 0
  00742	8d 8d 64 e1 ff
	ff		 lea	 ecx, DWORD PTR _s$[ebp]
  00748	e8 00 00 00 00	 call	 ?GetNumber@CScanner@@QAEHH@Z ; CScanner::GetNumber

; 269  : 						int nNum	= s.GetNumber();

  0074d	6a 00		 push	 0
  0074f	8d 8d 64 e1 ff
	ff		 lea	 ecx, DWORD PTR _s$[ebp]
  00755	8b f0		 mov	 esi, eax
  00757	e8 00 00 00 00	 call	 ?GetNumber@CScanner@@QAEHH@Z ; CScanner::GetNumber

; 270  : 						if( FALSE == AddItem( pEvent->nId, dwItemId, nMax, nNum ) )

  0075c	8b 8d 4c e1 ff
	ff		 mov	 ecx, DWORD PTR _this$GSCopy$1$[ebp]
  00762	50		 push	 eax
  00763	56		 push	 esi
  00764	57		 push	 edi
  00765	ff 33		 push	 DWORD PTR [ebx]
  00767	e8 00 00 00 00	 call	 ?AddItem@CEventGeneric@@QAEHHKHH@Z ; CEventGeneric::AddItem

; 271  : 						{
; 272  : 							//
; 273  : 						}
; 274  : 						dwItemId	= s.GetNumber();

  0076c	6a 00		 push	 0
  0076e	8d 8d 64 e1 ff
	ff		 lea	 ecx, DWORD PTR _s$[ebp]
  00774	e8 00 00 00 00	 call	 ?GetNumber@CScanner@@QAEHH@Z ; CScanner::GetNumber
  00779	8b f8		 mov	 edi, eax
  0077b	8b 85 a0 e1 ff
	ff		 mov	 eax, DWORD PTR _s$[ebp+60]
  00781	80 38 7d	 cmp	 BYTE PTR [eax], 125	; 0000007dH
  00784	75 ba		 jne	 SHORT $LL8@LoadScript

; 275  : 					}
; 276  : #else	// __DBSERVER
; 277  : 					s.GetToken();
; 278  : 					s.GetToken();
; 279  : 					while( *s.token != '}' )
; 280  : 					{
; 281  : 						s.GetToken();
; 282  : 						s.GetToken();
; 283  : 						s.GetToken();
; 284  : 					}
; 285  : #endif	// __DBSERVER
; 286  : 				}

  00786	e9 b7 00 00 00	 jmp	 $LN25@LoadScript
$LN374@LoadScript:
; File C:\Program Files\Microsoft Visual Studio\2022\Professional\VC\Tools\MSVC\14.44.35207\atlmfc\include\cstringt.h

; 184  : 		return _mbscmp( reinterpret_cast< const unsigned char* >( pszA ), reinterpret_cast< const unsigned char* >( pszB ) );

  0078b	68 00 00 00 00	 push	 OFFSET ??_C@_0L@DDJPBPFC@fExpFactor@
  00790	ff b5 84 e1 ff
	ff		 push	 DWORD PTR _s$[ebp+32]
  00796	e8 00 00 00 00	 call	 __mbscmp
  0079b	83 c4 08	 add	 esp, 8

; 2490 : 		return(str1.Compare(psz2) == 0);

  0079e	85 c0		 test	 eax, eax
; File C:\IAGOS\server\v18\Source\Source\_Common\spevent.cpp

; 287  : 				else if( s.Token == _T( "fExpFactor" ) )

  007a0	75 14		 jne	 SHORT $LN447@LoadScript

; 288  : 				{
; 289  : #ifdef __DBSERVER
; 290  : 					pEvent->fExpFactor	= s.GetFloat();

  007a2	50		 push	 eax
  007a3	8d 8d 64 e1 ff
	ff		 lea	 ecx, DWORD PTR _s$[ebp]
  007a9	e8 00 00 00 00	 call	 ?GetFloat@CScanner@@QAEMH@Z ; CScanner::GetFloat
  007ae	d9 5b 10	 fstp	 DWORD PTR [ebx+16]

; 291  : #else	// __DBSERVER
; 292  : 					s.GetToken();
; 293  : #endif	// __DBSERVER
; 294  : 				}

  007b1	e9 8c 00 00 00	 jmp	 $LN25@LoadScript
$LN447@LoadScript:
; File C:\Program Files\Microsoft Visual Studio\2022\Professional\VC\Tools\MSVC\14.44.35207\atlmfc\include\cstringt.h

; 184  : 		return _mbscmp( reinterpret_cast< const unsigned char* >( pszA ), reinterpret_cast< const unsigned char* >( pszB ) );

  007b6	68 00 00 00 00	 push	 OFFSET ??_C@_0O@NDHJHAFN@fItemDropRate@
  007bb	ff b5 84 e1 ff
	ff		 push	 DWORD PTR _s$[ebp+32]
  007c1	e8 00 00 00 00	 call	 __mbscmp
  007c6	83 c4 08	 add	 esp, 8

; 2490 : 		return(str1.Compare(psz2) == 0);

  007c9	85 c0		 test	 eax, eax
; File C:\IAGOS\server\v18\Source\Source\_Common\spevent.cpp

; 296  : 				else if( s.Token == _T( "fItemDropRate" ) )

  007cb	75 11		 jne	 SHORT $LN465@LoadScript

; 297  : 				{
; 298  : #ifdef __DBSERVER
; 299  : 					pEvent->fItemDropRate = s.GetFloat();

  007cd	50		 push	 eax
  007ce	8d 8d 64 e1 ff
	ff		 lea	 ecx, DWORD PTR _s$[ebp]
  007d4	e8 00 00 00 00	 call	 ?GetFloat@CScanner@@QAEMH@Z ; CScanner::GetFloat
  007d9	d9 5b 14	 fstp	 DWORD PTR [ebx+20]

; 300  : #else	// __DBSERVER
; 301  : 					s.GetToken();
; 302  : #endif	// __DBSERVER
; 303  : 				}

  007dc	eb 64		 jmp	 SHORT $LN25@LoadScript
$LN465@LoadScript:
; File C:\Program Files\Microsoft Visual Studio\2022\Professional\VC\Tools\MSVC\14.44.35207\atlmfc\include\cstringt.h

; 184  : 		return _mbscmp( reinterpret_cast< const unsigned char* >( pszA ), reinterpret_cast< const unsigned char* >( pszB ) );

  007de	68 00 00 00 00	 push	 OFFSET ??_C@_05BEKPGMFA@Spawn@
  007e3	ff b5 84 e1 ff
	ff		 push	 DWORD PTR _s$[ebp+32]
  007e9	e8 00 00 00 00	 call	 __mbscmp
  007ee	83 c4 08	 add	 esp, 8

; 2490 : 		return(str1.Compare(psz2) == 0);

  007f1	85 c0		 test	 eax, eax
; File C:\IAGOS\server\v18\Source\Source\_Common\spevent.cpp

; 305  : 				else if( s.Token == _T( "Spawn" ) )

  007f3	75 4d		 jne	 SHORT $LN25@LoadScript

; 306  : 				{
; 307  : #if defined(__WORLDSERVER ) && defined(__EVENT_0117)
; 308  : 					s.GetToken();	// {
; 309  : 					DWORD dwType	= s.GetNumber();
; 310  : 					DWORD dwIndex	= s.GetNumber();
; 311  : 					int nMax	= s.GetNumber();
; 312  : 					float fRatio	= s.GetFloat();
; 313  : 					DWORD dwInterval	= 86400000 / nMax;	// 86400000	= 1ŔĎ
; 314  : 					AddSpawn( pEvent->nId, dwType, dwIndex, nMax, fRatio, dwInterval );
; 315  : 					s.GetToken();	// }
; 316  : #else	// __WORLDSERVER
; 317  : 					s.GetToken();

  007f5	50		 push	 eax
  007f6	8d 8d 64 e1 ff
	ff		 lea	 ecx, DWORD PTR _s$[ebp]
  007fc	e8 00 00 00 00	 call	 ?GetToken@CScript@@UAEHH@Z ; CScript::GetToken

; 318  : 					s.GetToken();

  00801	6a 00		 push	 0
  00803	8d 8d 64 e1 ff
	ff		 lea	 ecx, DWORD PTR _s$[ebp]
  00809	e8 00 00 00 00	 call	 ?GetToken@CScript@@UAEHH@Z ; CScript::GetToken

; 319  : 					s.GetToken();

  0080e	6a 00		 push	 0
  00810	8d 8d 64 e1 ff
	ff		 lea	 ecx, DWORD PTR _s$[ebp]
  00816	e8 00 00 00 00	 call	 ?GetToken@CScript@@UAEHH@Z ; CScript::GetToken

; 320  : 					s.GetToken();

  0081b	6a 00		 push	 0
  0081d	8d 8d 64 e1 ff
	ff		 lea	 ecx, DWORD PTR _s$[ebp]
  00823	e8 00 00 00 00	 call	 ?GetToken@CScript@@UAEHH@Z ; CScript::GetToken

; 321  : 					s.GetToken();

  00828	6a 00		 push	 0
  0082a	8d 8d 64 e1 ff
	ff		 lea	 ecx, DWORD PTR _s$[ebp]
  00830	e8 00 00 00 00	 call	 ?GetToken@CScript@@UAEHH@Z ; CScript::GetToken
$LN565@LoadScript:

; 322  : 					s.GetToken();
; 323  : #endif	// __WORLDSERVER
; 324  : 				}
; 325  : 				s.GetToken();

  00835	6a 00		 push	 0
  00837	8d 8d 64 e1 ff
	ff		 lea	 ecx, DWORD PTR _s$[ebp]
  0083d	e8 00 00 00 00	 call	 ?GetToken@CScript@@UAEHH@Z ; CScript::GetToken
$LN25@LoadScript:
  00842	6a 00		 push	 0
  00844	8d 8d 64 e1 ff
	ff		 lea	 ecx, DWORD PTR _s$[ebp]
  0084a	e8 00 00 00 00	 call	 ?GetToken@CScript@@UAEHH@Z ; CScript::GetToken
  0084f	8b 85 a0 e1 ff
	ff		 mov	 eax, DWORD PTR _s$[ebp+60]
  00855	80 38 7d	 cmp	 BYTE PTR [eax], 125	; 0000007dH
  00858	0f 85 42 f9 ff
	ff		 jne	 $LL4@LoadScript
$LN560@LoadScript:

; 326  : 			}
; 327  : 		}
; 328  : 		s.GetToken();

  0085e	8b bd 4c e1 ff
	ff		 mov	 edi, DWORD PTR _this$GSCopy$1$[ebp]
$LN557@LoadScript:
  00864	6a 00		 push	 0
  00866	8d 8d 64 e1 ff
	ff		 lea	 ecx, DWORD PTR _s$[ebp]
  0086c	e8 00 00 00 00	 call	 ?GetToken@CScript@@UAEHH@Z ; CScript::GetToken
  00871	83 bd a8 e9 ff
	ff 15		 cmp	 DWORD PTR _s$[ebp+2116], 21 ; 00000015H
  00878	0f 85 12 f8 ff
	ff		 jne	 $LL2@LoadScript
$LN520@LoadScript:

; 329  : 	}
; 330  : 	return TRUE;

  0087e	be 01 00 00 00	 mov	 esi, 1
$LN33@LoadScript:
  00883	8d 8d 64 e1 ff
	ff		 lea	 ecx, DWORD PTR _s$[ebp]
  00889	e8 00 00 00 00	 call	 ??1CScript@@UAE@XZ	; CScript::~CScript
  0088e	8b c6		 mov	 eax, esi

; 331  : }

  00890	8b 4d f4	 mov	 ecx, DWORD PTR __$EHRec$[ebp]
  00893	64 89 0d 00 00
	00 00		 mov	 DWORD PTR fs:0, ecx
  0089a	59		 pop	 ecx
  0089b	5f		 pop	 edi
  0089c	5e		 pop	 esi
  0089d	5b		 pop	 ebx
  0089e	8b 4d f0	 mov	 ecx, DWORD PTR __$ArrayPad$[ebp]
  008a1	33 cd		 xor	 ecx, ebp
  008a3	e8 00 00 00 00	 call	 @__security_check_cookie@4
  008a8	8b e5		 mov	 esp, ebp
  008aa	5d		 pop	 ebp
  008ab	c2 04 00	 ret	 4
$LN509@LoadScript:
; File C:\Program Files\Microsoft Visual Studio\2022\Professional\VC\Tools\MSVC\14.44.35207\include\list

; 1031 :             _Xlength_error("list too long");

  008ae	68 00 00 00 00	 push	 OFFSET ??_C@_0O@NKNMEGII@list?5too?5long@
  008b3	e8 00 00 00 00	 call	 ?_Xlength_error@std@@YAXPBD@Z ; std::_Xlength_error
$LN485@LoadScript:
; File C:\IAGOS\server\v18\Source\Source\_Common\spevent.cpp

; 331  : }

  008b8	68 57 00 07 80	 push	 -2147024809		; 80070057H
  008bd	e8 00 00 00 00	 call	 ?AtlThrowImpl@ATL@@YGXJ@Z ; ATL::AtlThrowImpl
$LN487@LoadScript:
; File C:\Program Files\Microsoft Visual Studio\2022\Professional\VC\Tools\MSVC\14.44.35207\atlmfc\include\atlsimpstr.h

; 897  : 				ThrowMemoryException();

  008c2	e8 00 00 00 00	 call	 ?ThrowMemoryException@?$CSimpleStringT@D$0A@@ATL@@KAXXZ ; ATL::CSimpleStringT<char,0>::ThrowMemoryException
$LN484@LoadScript:
; File C:\IAGOS\server\v18\Source\Source\_Common\spevent.cpp

; 331  : }

  008c7	68 05 40 00 80	 push	 -2147467259		; 80004005H
  008cc	e8 00 00 00 00	 call	 ?AtlThrowImpl@ATL@@YGXJ@Z ; ATL::AtlThrowImpl
$LN562@LoadScript:
  008d1	cc		 int	 3
_TEXT	ENDS
;	COMDAT text$x
text$x	SEGMENT
__unwindfunclet$?LoadScript@CEventGeneric@@QAEHPBD@Z$0:
  00000	8d 8d 64 e1 ff
	ff		 lea	 ecx, DWORD PTR _s$[ebp]
  00006	e9 00 00 00 00	 jmp	 ??1CScript@@UAE@XZ	; CScript::~CScript
__unwindfunclet$?LoadScript@CEventGeneric@@QAEHPBD@Z$7:
  0000b	8d 8d 38 e1 ff
	ff		 lea	 ecx, DWORD PTR __Op$2[ebp]
  00011	e9 00 00 00 00	 jmp	 ??1?$_Alloc_construct_ptr@V?$allocator@U?$_List_node@PAU_EVENT_GENERIC@@PAX@std@@@std@@@std@@QAE@XZ ; std::_Alloc_construct_ptr<std::allocator<std::_List_node<_EVENT_GENERIC *,void *> > >::~_Alloc_construct_ptr<std::allocator<std::_List_node<_EVENT_GENERIC *,void *> > >
__unwindfunclet$?LoadScript@CEventGeneric@@QAEHPBD@Z$4:
  00016	8d 8d 60 e1 ff
	ff		 lea	 ecx, DWORD PTR _token$6[ebp]
  0001c	e9 00 00 00 00	 jmp	 ??1?$CSimpleStringT@D$0A@@ATL@@QAE@XZ ; ATL::CSimpleStringT<char,0>::~CSimpleStringT<char,0>
__unwindfunclet$?LoadScript@CEventGeneric@@QAEHPBD@Z$2:
  00021	8d 8d 60 e1 ff
	ff		 lea	 ecx, DWORD PTR _token$6[ebp]
  00027	e9 00 00 00 00	 jmp	 ??1?$CStringT@DV?$StrTraitMFC@DV?$ChTraitsCRT@D@ATL@@@@@ATL@@QAE@XZ ; ATL::CStringT<char,StrTraitMFC<char,ATL::ChTraitsCRT<char> > >::~CStringT<char,StrTraitMFC<char,ATL::ChTraitsCRT<char> > >
  0002c	cc		 int	 3
  0002d	cc		 int	 3
  0002e	cc		 int	 3
  0002f	cc		 int	 3
  00030	cc		 int	 3
__ehhandler$?LoadScript@CEventGeneric@@QAEHPBD@Z:
  00031	90		 npad	 1
  00032	90		 npad	 1
  00033	8b 54 24 08	 mov	 edx, DWORD PTR [esp+8]
  00037	8d 42 0c	 lea	 eax, DWORD PTR [edx+12]
  0003a	8b 8a 34 e1 ff
	ff		 mov	 ecx, DWORD PTR [edx-7884]
  00040	33 c8		 xor	 ecx, eax
  00042	e8 00 00 00 00	 call	 @__security_check_cookie@4
  00047	8b 4a fc	 mov	 ecx, DWORD PTR [edx-4]
  0004a	33 c8		 xor	 ecx, eax
  0004c	e8 00 00 00 00	 call	 @__security_check_cookie@4
  00051	b8 00 00 00 00	 mov	 eax, OFFSET __ehfuncinfo$?LoadScript@CEventGeneric@@QAEHPBD@Z
  00056	e9 00 00 00 00	 jmp	 ___CxxFrameHandler3
text$x	ENDS
?LoadScript@CEventGeneric@@QAEHPBD@Z ENDP		; CEventGeneric::LoadScript
; Function compile flags: /Ogtp
; File C:\IAGOS\server\v18\Source\Source\_Common\spevent.cpp
; File C:\Program Files\Microsoft Visual Studio\2022\Professional\VC\Tools\MSVC\14.44.35207\include\list
; File C:\IAGOS\server\v18\Source\Source\_Common\spevent.cpp
; File C:\Program Files\Microsoft Visual Studio\2022\Professional\VC\Tools\MSVC\14.44.35207\include\list
; File C:\IAGOS\server\v18\Source\Source\_Common\spevent.cpp
; File C:\Program Files\Microsoft Visual Studio\2022\Professional\VC\Tools\MSVC\14.44.35207\include\list
; File C:\IAGOS\server\v18\Source\Source\_Common\spevent.cpp
; File C:\Program Files\Microsoft Visual Studio\2022\Professional\VC\Tools\MSVC\14.44.35207\include\list
; File C:\Program Files\Microsoft Visual Studio\2022\Professional\VC\Tools\MSVC\14.44.35207\include\xmemory
; File C:\Program Files\Microsoft Visual Studio\2022\Professional\VC\Tools\MSVC\14.44.35207\include\list
; File C:\Program Files\Microsoft Visual Studio\2022\Professional\VC\Tools\MSVC\14.44.35207\include\xtree
; File C:\Program Files\Microsoft Visual Studio\2022\Professional\VC\Tools\MSVC\14.44.35207\include\list
; File C:\Program Files\Microsoft Visual Studio\2022\Professional\VC\Tools\MSVC\14.44.35207\include\xtree
; File C:\IAGOS\server\v18\Source\Source\_Common\spevent.cpp
; File C:\Program Files\Microsoft Visual Studio\2022\Professional\VC\Tools\MSVC\14.44.35207\include\list
; File C:\IAGOS\server\v18\Source\Source\_Common\spevent.cpp
; File C:\Program Files\Microsoft Visual Studio\2022\Professional\VC\Tools\MSVC\14.44.35207\include\list
; File C:\IAGOS\server\v18\Source\Source\_Common\spevent.cpp
; File C:\Program Files\Microsoft Visual Studio\2022\Professional\VC\Tools\MSVC\14.44.35207\include\list
; File C:\Program Files\Microsoft Visual Studio\2022\Professional\VC\Tools\MSVC\14.44.35207\include\xmemory
; File C:\Program Files\Microsoft Visual Studio\2022\Professional\VC\Tools\MSVC\14.44.35207\include\list
; File C:\Program Files\Microsoft Visual Studio\2022\Professional\VC\Tools\MSVC\14.44.35207\include\xmemory
; File C:\Program Files\Microsoft Visual Studio\2022\Professional\VC\Tools\MSVC\14.44.35207\include\list
; File C:\Program Files\Microsoft Visual Studio\2022\Professional\VC\Tools\MSVC\14.44.35207\include\xmemory
; File C:\Program Files\Microsoft Visual Studio\2022\Professional\VC\Tools\MSVC\14.44.35207\include\xtree
; File C:\IAGOS\server\v18\Source\Source\_Common\spevent.cpp
; File C:\Program Files\Microsoft Visual Studio\2022\Professional\VC\Tools\MSVC\14.44.35207\include\xtree
; File C:\Program Files\Microsoft Visual Studio\2022\Professional\VC\Tools\MSVC\14.44.35207\include\utility
; File C:\Program Files\Microsoft Visual Studio\2022\Professional\VC\Tools\MSVC\14.44.35207\include\xmemory
; File C:\Program Files\Microsoft Visual Studio\2022\Professional\VC\Tools\MSVC\14.44.35207\include\xtree
; File C:\IAGOS\server\v18\Source\Source\_Common\spevent.cpp
;	COMDAT ?Clear@CEventGeneric@@QAEXH@Z
_TEXT	SEGMENT
_this$1$ = -4						; size = 4
_bDestructor$ = 8					; size = 4
?Clear@CEventGeneric@@QAEXH@Z PROC			; CEventGeneric::Clear, COMDAT
; _this$ = ecx

; 160  : {

  00000	55		 push	 ebp
  00001	8b ec		 mov	 ebp, esp
  00003	51		 push	 ecx
  00004	53		 push	 ebx
  00005	56		 push	 esi
  00006	57		 push	 edi
  00007	8b f9		 mov	 edi, ecx
; File C:\Program Files\Microsoft Visual Studio\2022\Professional\VC\Tools\MSVC\14.44.35207\include\list

; 1105 :         return iterator(_Mypair._Myval2._Myhead->_Next, _STD addressof(_Mypair._Myval2));

  00009	8b 57 08	 mov	 edx, DWORD PTR [edi+8]

; 37   :     _List_unchecked_const_iterator(_Nodeptr _Pnode, const _Mylist* _Plist) noexcept : _Ptr(_Pnode) {

  0000c	8b 32		 mov	 esi, DWORD PTR [edx]

; 202  :         return !(*this == _Right);

  0000e	3b f2		 cmp	 esi, edx
; File C:\IAGOS\server\v18\Source\Source\_Common\spevent.cpp

; 161  : 	for( list<EVENT_GENERIC*>::iterator i = m_lspEvent.begin(); i != m_lspEvent.end(); ++i )

  00010	74 18		 je	 SHORT $LN3@Clear
$LL4@Clear:

; 162  : 		safe_delete( *i );

  00012	6a 7c		 push	 124			; 0000007cH
  00014	ff 76 08	 push	 DWORD PTR [esi+8]
  00017	e8 00 00 00 00	 call	 ??3@YAXPAXI@Z		; operator delete
; File C:\Program Files\Microsoft Visual Studio\2022\Professional\VC\Tools\MSVC\14.44.35207\include\list

; 164  :         this->_Ptr = this->_Ptr->_Next;

  0001c	8b 06		 mov	 eax, DWORD PTR [esi]
; File C:\IAGOS\server\v18\Source\Source\_Common\spevent.cpp

; 162  : 		safe_delete( *i );

  0001e	83 c4 08	 add	 esp, 8
; File C:\Program Files\Microsoft Visual Studio\2022\Professional\VC\Tools\MSVC\14.44.35207\include\list

; 37   :     _List_unchecked_const_iterator(_Nodeptr _Pnode, const _Mylist* _Plist) noexcept : _Ptr(_Pnode) {

  00021	8b 57 08	 mov	 edx, DWORD PTR [edi+8]

; 164  :         this->_Ptr = this->_Ptr->_Next;

  00024	8b f0		 mov	 esi, eax

; 202  :         return !(*this == _Right);

  00026	3b c2		 cmp	 eax, edx
; File C:\IAGOS\server\v18\Source\Source\_Common\spevent.cpp

; 161  : 	for( list<EVENT_GENERIC*>::iterator i = m_lspEvent.begin(); i != m_lspEvent.end(); ++i )

  00028	75 e8		 jne	 SHORT $LL4@Clear
$LN3@Clear:
; File C:\Program Files\Microsoft Visual Studio\2022\Professional\VC\Tools\MSVC\14.44.35207\include\list

; 324  :         _Head->_Prev->_Next = nullptr;

  0002a	8b 42 04	 mov	 eax, DWORD PTR [edx+4]
  0002d	c7 00 00 00 00
	00		 mov	 DWORD PTR [eax], 0

; 325  : 
; 326  :         auto _Pnode = _Head->_Next;

  00033	8b 02		 mov	 eax, DWORD PTR [edx]

; 327  :         for (_Nodeptr _Pnext; _Pnode; _Pnode = _Pnext) {

  00035	85 c0		 test	 eax, eax
  00037	74 1a		 je	 SHORT $LN337@Clear
  00039	0f 1f 80 00 00
	00 00		 npad	 7
$LL264@Clear:

; 328  :             _Pnext = _Pnode->_Next;

  00040	8b 30		 mov	 esi, DWORD PTR [eax]
; File C:\Program Files\Microsoft Visual Studio\2022\Professional\VC\Tools\MSVC\14.44.35207\include\xmemory

; 289  :         ::operator delete(_Ptr, _Bytes);

  00042	6a 0c		 push	 12			; 0000000cH
  00044	50		 push	 eax
  00045	e8 00 00 00 00	 call	 ??3@YAXPAXI@Z		; operator delete
  0004a	83 c4 08	 add	 esp, 8
; File C:\Program Files\Microsoft Visual Studio\2022\Professional\VC\Tools\MSVC\14.44.35207\include\list

; 327  :         for (_Nodeptr _Pnext; _Pnode; _Pnode = _Pnext) {

  0004d	8b c6		 mov	 eax, esi
  0004f	85 f6		 test	 esi, esi
  00051	75 ed		 jne	 SHORT $LL264@Clear
$LN337@Clear:

; 1508 :         _My_data._Myhead->_Next = _My_data._Myhead;

  00053	8b 47 08	 mov	 eax, DWORD PTR [edi+8]
; File C:\Program Files\Microsoft Visual Studio\2022\Professional\VC\Tools\MSVC\14.44.35207\include\xtree

; 1142 :         return iterator(_Scary->_Myhead->_Left, _Scary);

  00056	8d 5f 10	 lea	 ebx, DWORD PTR [edi+16]
  00059	89 5d fc	 mov	 DWORD PTR _this$1$[ebp], ebx
; File C:\Program Files\Microsoft Visual Studio\2022\Professional\VC\Tools\MSVC\14.44.35207\include\list

; 1508 :         _My_data._Myhead->_Next = _My_data._Myhead;

  0005c	89 00		 mov	 DWORD PTR [eax], eax

; 1509 :         _My_data._Myhead->_Prev = _My_data._Myhead;

  0005e	8b 47 08	 mov	 eax, DWORD PTR [edi+8]
  00061	89 40 04	 mov	 DWORD PTR [eax+4], eax

; 1510 :         _My_data._Mysize        = 0;

  00064	c7 47 0c 00 00
	00 00		 mov	 DWORD PTR [edi+12], 0
; File C:\Program Files\Microsoft Visual Studio\2022\Professional\VC\Tools\MSVC\14.44.35207\include\xtree

; 1142 :         return iterator(_Scary->_Myhead->_Left, _Scary);

  0006b	8b 3b		 mov	 edi, DWORD PTR [ebx]

; 37   :     _Tree_unchecked_const_iterator(_Nodeptr _Pnode, const _Mytree* _Plist) noexcept : _Ptr(_Pnode) {

  0006d	8b 37		 mov	 esi, DWORD PTR [edi]

; 237  :         return !(*this == _Right);

  0006f	3b f7		 cmp	 esi, edi
; File C:\IAGOS\server\v18\Source\Source\_Common\spevent.cpp

; 165  : 	for( map<int, list<CEventItem*>*>::iterator i2 = m_mapEventItemList.begin(); i2 != m_mapEventItemList.end(); ++i2 )

  00071	0f 84 e2 00 00
	00		 je	 $LN338@Clear
$LL7@Clear:

; 166  : 	{
; 167  : 		list<CEventItem*>* pList	= i2->second;

  00077	8b 5e 14	 mov	 ebx, DWORD PTR [esi+20]
; File C:\Program Files\Microsoft Visual Studio\2022\Professional\VC\Tools\MSVC\14.44.35207\include\list

; 1105 :         return iterator(_Mypair._Myval2._Myhead->_Next, _STD addressof(_Mypair._Myval2));

  0007a	8b 0b		 mov	 ecx, DWORD PTR [ebx]

; 37   :     _List_unchecked_const_iterator(_Nodeptr _Pnode, const _Mylist* _Plist) noexcept : _Ptr(_Pnode) {

  0007c	8b 39		 mov	 edi, DWORD PTR [ecx]

; 202  :         return !(*this == _Right);

  0007e	3b f9		 cmp	 edi, ecx
; File C:\IAGOS\server\v18\Source\Source\_Common\spevent.cpp

; 168  : 		for( list<CEventItem*>::iterator i3 = pList->begin(); i3 != pList->end(); ++i3 )

  00080	74 17		 je	 SHORT $LN9@Clear
$LL10@Clear:

; 169  : 			safe_delete( *i3 );

  00082	8b 4f 08	 mov	 ecx, DWORD PTR [edi+8]
  00085	85 c9		 test	 ecx, ecx
  00087	74 06		 je	 SHORT $LN8@Clear
  00089	8b 01		 mov	 eax, DWORD PTR [ecx]
  0008b	6a 01		 push	 1
  0008d	ff 10		 call	 DWORD PTR [eax]
$LN8@Clear:
; File C:\Program Files\Microsoft Visual Studio\2022\Professional\VC\Tools\MSVC\14.44.35207\include\list

; 164  :         this->_Ptr = this->_Ptr->_Next;

  0008f	8b 07		 mov	 eax, DWORD PTR [edi]
  00091	8b f8		 mov	 edi, eax

; 37   :     _List_unchecked_const_iterator(_Nodeptr _Pnode, const _Mylist* _Plist) noexcept : _Ptr(_Pnode) {

  00093	8b 0b		 mov	 ecx, DWORD PTR [ebx]

; 202  :         return !(*this == _Right);

  00095	3b c1		 cmp	 eax, ecx
; File C:\IAGOS\server\v18\Source\Source\_Common\spevent.cpp

; 168  : 		for( list<CEventItem*>::iterator i3 = pList->begin(); i3 != pList->end(); ++i3 )

  00097	75 e9		 jne	 SHORT $LL10@Clear
$LN9@Clear:
; File C:\Program Files\Microsoft Visual Studio\2022\Professional\VC\Tools\MSVC\14.44.35207\include\list

; 324  :         _Head->_Prev->_Next = nullptr;

  00099	8b 41 04	 mov	 eax, DWORD PTR [ecx+4]
  0009c	c7 00 00 00 00
	00		 mov	 DWORD PTR [eax], 0

; 325  : 
; 326  :         auto _Pnode = _Head->_Next;

  000a2	8b 01		 mov	 eax, DWORD PTR [ecx]

; 327  :         for (_Nodeptr _Pnext; _Pnode; _Pnode = _Pnext) {

  000a4	85 c0		 test	 eax, eax
  000a6	74 13		 je	 SHORT $LN87@Clear
$LL88@Clear:

; 328  :             _Pnext = _Pnode->_Next;

  000a8	8b 38		 mov	 edi, DWORD PTR [eax]
; File C:\Program Files\Microsoft Visual Studio\2022\Professional\VC\Tools\MSVC\14.44.35207\include\xmemory

; 289  :         ::operator delete(_Ptr, _Bytes);

  000aa	6a 0c		 push	 12			; 0000000cH
  000ac	50		 push	 eax
  000ad	e8 00 00 00 00	 call	 ??3@YAXPAXI@Z		; operator delete
  000b2	83 c4 08	 add	 esp, 8
; File C:\Program Files\Microsoft Visual Studio\2022\Professional\VC\Tools\MSVC\14.44.35207\include\list

; 327  :         for (_Nodeptr _Pnext; _Pnode; _Pnode = _Pnext) {

  000b5	8b c7		 mov	 eax, edi
  000b7	85 ff		 test	 edi, edi
  000b9	75 ed		 jne	 SHORT $LL88@Clear
$LN87@Clear:

; 1508 :         _My_data._Myhead->_Next = _My_data._Myhead;

  000bb	8b 03		 mov	 eax, DWORD PTR [ebx]
  000bd	89 00		 mov	 DWORD PTR [eax], eax

; 1509 :         _My_data._Myhead->_Prev = _My_data._Myhead;

  000bf	8b 03		 mov	 eax, DWORD PTR [ebx]
  000c1	89 40 04	 mov	 DWORD PTR [eax+4], eax

; 1510 :         _My_data._Mysize        = 0;

  000c4	c7 43 04 00 00
	00 00		 mov	 DWORD PTR [ebx+4], 0

; 1518 :         _Node::_Free_non_head(_Al, _My_data._Myhead);

  000cb	8b 0b		 mov	 ecx, DWORD PTR [ebx]

; 324  :         _Head->_Prev->_Next = nullptr;

  000cd	8b 41 04	 mov	 eax, DWORD PTR [ecx+4]
  000d0	c7 00 00 00 00
	00		 mov	 DWORD PTR [eax], 0

; 325  : 
; 326  :         auto _Pnode = _Head->_Next;

  000d6	8b 01		 mov	 eax, DWORD PTR [ecx]

; 327  :         for (_Nodeptr _Pnext; _Pnode; _Pnode = _Pnext) {

  000d8	85 c0		 test	 eax, eax
  000da	74 17		 je	 SHORT $LN127@Clear
  000dc	0f 1f 40 00	 npad	 4
$LL128@Clear:

; 328  :             _Pnext = _Pnode->_Next;

  000e0	8b 38		 mov	 edi, DWORD PTR [eax]
; File C:\Program Files\Microsoft Visual Studio\2022\Professional\VC\Tools\MSVC\14.44.35207\include\xmemory

; 289  :         ::operator delete(_Ptr, _Bytes);

  000e2	6a 0c		 push	 12			; 0000000cH
  000e4	50		 push	 eax
  000e5	e8 00 00 00 00	 call	 ??3@YAXPAXI@Z		; operator delete
  000ea	83 c4 08	 add	 esp, 8
; File C:\Program Files\Microsoft Visual Studio\2022\Professional\VC\Tools\MSVC\14.44.35207\include\list

; 327  :         for (_Nodeptr _Pnext; _Pnode; _Pnode = _Pnext) {

  000ed	8b c7		 mov	 eax, edi
  000ef	85 ff		 test	 edi, edi
  000f1	75 ed		 jne	 SHORT $LL128@Clear
$LN127@Clear:
; File C:\Program Files\Microsoft Visual Studio\2022\Professional\VC\Tools\MSVC\14.44.35207\include\xmemory

; 289  :         ::operator delete(_Ptr, _Bytes);

  000f3	6a 0c		 push	 12			; 0000000cH
  000f5	ff 33		 push	 DWORD PTR [ebx]
  000f7	e8 00 00 00 00	 call	 ??3@YAXPAXI@Z		; operator delete
  000fc	6a 08		 push	 8
  000fe	53		 push	 ebx
  000ff	e8 00 00 00 00	 call	 ??3@YAXPAXI@Z		; operator delete
; File C:\Program Files\Microsoft Visual Studio\2022\Professional\VC\Tools\MSVC\14.44.35207\include\xtree

; 50   :         if (_Ptr->_Right->_Isnil) { // climb looking for right subtree

  00104	8b 46 08	 mov	 eax, DWORD PTR [esi+8]
  00107	83 c4 10	 add	 esp, 16			; 00000010H
  0010a	80 78 0d 00	 cmp	 BYTE PTR [eax+13], 0
  0010e	74 24		 je	 SHORT $LN61@Clear

; 51   :             _Nodeptr _Pnode;
; 52   :             while (!(_Pnode = _Ptr->_Parent)->_Isnil && _Ptr == _Pnode->_Right) {

  00110	8b 46 04	 mov	 eax, DWORD PTR [esi+4]
  00113	80 78 0d 00	 cmp	 BYTE PTR [eax+13], 0
  00117	75 17		 jne	 SHORT $LN358@Clear
  00119	0f 1f 80 00 00
	00 00		 npad	 7
$LL59@Clear:
  00120	3b 70 08	 cmp	 esi, DWORD PTR [eax+8]
  00123	75 0b		 jne	 SHORT $LN358@Clear

; 53   :                 _Ptr = _Pnode; // ==> parent while right subtree

  00125	8b f0		 mov	 esi, eax
  00127	8b 40 04	 mov	 eax, DWORD PTR [eax+4]
  0012a	80 78 0d 00	 cmp	 BYTE PTR [eax+13], 0
  0012e	74 f0		 je	 SHORT $LL59@Clear
$LN358@Clear:

; 54   :             }
; 55   : 
; 56   :             _Ptr = _Pnode; // ==> parent (head if end())

  00130	8b f0		 mov	 esi, eax

; 57   :         } else {

  00132	eb 18		 jmp	 SHORT $LN67@Clear
$LN61@Clear:

; 58   :             _Ptr = _Mytree::_Min(_Ptr->_Right); // ==> smallest of right subtree

  00134	8b f0		 mov	 esi, eax

; 476  :         while (!_Pnode->_Left->_Isnil) {

  00136	8b 0e		 mov	 ecx, DWORD PTR [esi]
  00138	80 79 0d 00	 cmp	 BYTE PTR [ecx+13], 0
  0013c	75 0e		 jne	 SHORT $LN67@Clear
  0013e	66 90		 npad	 2
$LL66@Clear:
  00140	8b 01		 mov	 eax, DWORD PTR [ecx]

; 477  :             _Pnode = _Pnode->_Left;

  00142	8b f1		 mov	 esi, ecx
  00144	8b c8		 mov	 ecx, eax
  00146	80 78 0d 00	 cmp	 BYTE PTR [eax+13], 0
  0014a	74 f4		 je	 SHORT $LL66@Clear
$LN67@Clear:

; 37   :     _Tree_unchecked_const_iterator(_Nodeptr _Pnode, const _Mytree* _Plist) noexcept : _Ptr(_Pnode) {

  0014c	8b 5d fc	 mov	 ebx, DWORD PTR _this$1$[ebp]
  0014f	8b 3b		 mov	 edi, DWORD PTR [ebx]

; 237  :         return !(*this == _Right);

  00151	3b f7		 cmp	 esi, edi
; File C:\IAGOS\server\v18\Source\Source\_Common\spevent.cpp

; 165  : 	for( map<int, list<CEventItem*>*>::iterator i2 = m_mapEventItemList.begin(); i2 != m_mapEventItemList.end(); ++i2 )

  00153	0f 85 1e ff ff
	ff		 jne	 $LL7@Clear
$LN338@Clear:
; File C:\Program Files\Microsoft Visual Studio\2022\Professional\VC\Tools\MSVC\14.44.35207\include\xtree

; 1374 :         _Scary->_Erase_tree(_Getal(), _Head->_Parent);

  00159	8b 77 04	 mov	 esi, DWORD PTR [edi+4]

; 768  :         while (!_Rootnode->_Isnil) { // free subtrees, then node

  0015c	80 7e 0d 00	 cmp	 BYTE PTR [esi+13], 0
  00160	75 20		 jne	 SHORT $LN339@Clear
$LL198@Clear:

; 769  :             _Erase_tree(_Al, _Rootnode->_Right);

  00162	ff 76 08	 push	 DWORD PTR [esi+8]
  00165	8b cb		 mov	 ecx, ebx
  00167	53		 push	 ebx
  00168	e8 00 00 00 00	 call	 ??$_Erase_tree@V?$allocator@U?$_Tree_node@U?$pair@$$CBHPAV?$list@PAVCEventItem@@V?$allocator@PAVCEventItem@@@std@@@std@@@std@@PAX@std@@@std@@@?$_Tree_val@U?$_Tree_simple_types@U?$pair@$$CBHPAV?$list@PAVCEventItem@@V?$allocator@PAVCEventItem@@@std@@@std@@@std@@@std@@@std@@QAEXAAV?$allocator@U?$_Tree_node@U?$pair@$$CBHPAV?$list@PAVCEventItem@@V?$allocator@PAVCEventItem@@@std@@@std@@@std@@PAX@std@@@1@PAU?$_Tree_node@U?$pair@$$CBHPAV?$list@PAVCEventItem@@V?$allocator@PAVCEventItem@@@std@@@std@@@std@@PAX@1@@Z ; std::_Tree_val<std::_Tree_simple_types<std::pair<int const ,std::list<CEventItem *,std::allocator<CEventItem *> > *> > >::_Erase_tree<std::allocator<std::_Tree_node<std::pair<int const ,std::list<CEventItem *,std::allocator<CEventItem *> > *>,void *> > >
; File C:\Program Files\Microsoft Visual Studio\2022\Professional\VC\Tools\MSVC\14.44.35207\include\utility

; 773  :     _Ty _Old_val = static_cast<_Ty&&>(_Val);

  0016d	8b c6		 mov	 eax, esi

; 774  :     _Val         = static_cast<_Other&&>(_New_val);

  0016f	8b 36		 mov	 esi, DWORD PTR [esi]
; File C:\Program Files\Microsoft Visual Studio\2022\Professional\VC\Tools\MSVC\14.44.35207\include\xmemory

; 289  :         ::operator delete(_Ptr, _Bytes);

  00171	6a 18		 push	 24			; 00000018H
  00173	50		 push	 eax
  00174	e8 00 00 00 00	 call	 ??3@YAXPAXI@Z		; operator delete
  00179	83 c4 08	 add	 esp, 8
; File C:\Program Files\Microsoft Visual Studio\2022\Professional\VC\Tools\MSVC\14.44.35207\include\xtree

; 768  :         while (!_Rootnode->_Isnil) { // free subtrees, then node

  0017c	80 7e 0d 00	 cmp	 BYTE PTR [esi+13], 0
  00180	74 e0		 je	 SHORT $LL198@Clear
$LN339@Clear:

; 1375 :         _Head->_Parent  = _Head;

  00182	89 7f 04	 mov	 DWORD PTR [edi+4], edi

; 1376 :         _Head->_Left    = _Head;

  00185	89 3f		 mov	 DWORD PTR [edi], edi

; 1377 :         _Head->_Right   = _Head;

  00187	89 7f 08	 mov	 DWORD PTR [edi+8], edi

; 1378 :         _Scary->_Mysize = 0;

  0018a	5f		 pop	 edi
  0018b	5e		 pop	 esi
  0018c	c7 43 04 00 00
	00 00		 mov	 DWORD PTR [ebx+4], 0
  00193	5b		 pop	 ebx
; File C:\IAGOS\server\v18\Source\Source\_Common\spevent.cpp

; 182  : }

  00194	8b e5		 mov	 esp, ebp
  00196	5d		 pop	 ebp
  00197	c2 04 00	 ret	 4
?Clear@CEventGeneric@@QAEXH@Z ENDP			; CEventGeneric::Clear
_TEXT	ENDS
; Function compile flags: /Ogtp
; File C:\IAGOS\server\v18\Source\Source\_Common\spevent.cpp
; File C:\Program Files\Microsoft Visual Studio\2022\Professional\VC\Tools\MSVC\14.44.35207\include\list
; File C:\Program Files\Microsoft Visual Studio\2022\Professional\VC\Tools\MSVC\14.44.35207\include\xmemory
; File C:\Program Files\Microsoft Visual Studio\2022\Professional\VC\Tools\MSVC\14.44.35207\include\list
; File C:\Program Files\Microsoft Visual Studio\2022\Professional\VC\Tools\MSVC\14.44.35207\include\xmemory
; File C:\IAGOS\server\v18\Source\Source\_Common\spevent.cpp
;	COMDAT ??1CEventGeneric@@UAE@XZ
_TEXT	SEGMENT
??1CEventGeneric@@UAE@XZ PROC				; CEventGeneric::~CEventGeneric, COMDAT
; _this$ = ecx

; 155  : {

  00000	57		 push	 edi
  00001	8b f9		 mov	 edi, ecx

; 156  : 	Clear();	// clear all

  00003	6a 01		 push	 1
  00005	c7 07 00 00 00
	00		 mov	 DWORD PTR [edi], OFFSET ??_7CEventGeneric@@6B@
  0000b	e8 00 00 00 00	 call	 ?Clear@CEventGeneric@@QAEXH@Z ; CEventGeneric::Clear

; 157  : }

  00010	8d 4f 10	 lea	 ecx, DWORD PTR [edi+16]
  00013	e8 00 00 00 00	 call	 ??1?$_Tree@V?$_Tmap_traits@HPAV?$list@PAVCEventItem@@V?$allocator@PAVCEventItem@@@std@@@std@@U?$less@H@2@V?$allocator@U?$pair@$$CBHPAV?$list@PAVCEventItem@@V?$allocator@PAVCEventItem@@@std@@@std@@@std@@@2@$0A@@std@@@std@@QAE@XZ ; std::_Tree<std::_Tmap_traits<int,std::list<CEventItem *,std::allocator<CEventItem *> > *,std::less<int>,std::allocator<std::pair<int const ,std::list<CEventItem *,std::allocator<CEventItem *> > *> >,0> >::~_Tree<std::_Tmap_traits<int,std::list<CEventItem *,std::allocator<CEventItem *> > *,std::less<int>,std::allocator<std::pair<int const ,std::list<CEventItem *,std::allocator<CEventItem *> > *> >,0> >
; File C:\Program Files\Microsoft Visual Studio\2022\Professional\VC\Tools\MSVC\14.44.35207\include\list

; 1518 :         _Node::_Free_non_head(_Al, _My_data._Myhead);

  00018	8b 4f 08	 mov	 ecx, DWORD PTR [edi+8]

; 324  :         _Head->_Prev->_Next = nullptr;

  0001b	8b 41 04	 mov	 eax, DWORD PTR [ecx+4]
  0001e	c7 00 00 00 00
	00		 mov	 DWORD PTR [eax], 0

; 325  : 
; 326  :         auto _Pnode = _Head->_Next;

  00024	8b 01		 mov	 eax, DWORD PTR [ecx]

; 327  :         for (_Nodeptr _Pnext; _Pnode; _Pnode = _Pnext) {

  00026	85 c0		 test	 eax, eax
  00028	74 1a		 je	 SHORT $LN66@CEventGene
  0002a	56		 push	 esi
  0002b	0f 1f 44 00 00	 npad	 5
$LL18@CEventGene:

; 328  :             _Pnext = _Pnode->_Next;

  00030	8b 30		 mov	 esi, DWORD PTR [eax]
; File C:\Program Files\Microsoft Visual Studio\2022\Professional\VC\Tools\MSVC\14.44.35207\include\xmemory

; 289  :         ::operator delete(_Ptr, _Bytes);

  00032	6a 0c		 push	 12			; 0000000cH
  00034	50		 push	 eax
  00035	e8 00 00 00 00	 call	 ??3@YAXPAXI@Z		; operator delete
  0003a	83 c4 08	 add	 esp, 8
; File C:\Program Files\Microsoft Visual Studio\2022\Professional\VC\Tools\MSVC\14.44.35207\include\list

; 327  :         for (_Nodeptr _Pnext; _Pnode; _Pnode = _Pnext) {

  0003d	8b c6		 mov	 eax, esi
  0003f	85 f6		 test	 esi, esi
  00041	75 ed		 jne	 SHORT $LL18@CEventGene
  00043	5e		 pop	 esi
$LN66@CEventGene:
; File C:\Program Files\Microsoft Visual Studio\2022\Professional\VC\Tools\MSVC\14.44.35207\include\xmemory

; 289  :         ::operator delete(_Ptr, _Bytes);

  00044	6a 0c		 push	 12			; 0000000cH
  00046	ff 77 08	 push	 DWORD PTR [edi+8]
  00049	e8 00 00 00 00	 call	 ??3@YAXPAXI@Z		; operator delete
  0004e	83 c4 08	 add	 esp, 8
  00051	5f		 pop	 edi
; File C:\IAGOS\server\v18\Source\Source\_Common\spevent.cpp

; 157  : }

  00052	c3		 ret	 0
??1CEventGeneric@@UAE@XZ ENDP				; CEventGeneric::~CEventGeneric
_TEXT	ENDS
; Function compile flags: /Ogtp
; File C:\IAGOS\server\v18\Source\Source\_Common\spevent.cpp
; File C:\Program Files\Microsoft Visual Studio\2022\Professional\VC\Tools\MSVC\14.44.35207\include\xmemory
; File C:\Program Files\Microsoft Visual Studio\2022\Professional\VC\Tools\MSVC\14.44.35207\include\list
; File C:\Program Files\Microsoft Visual Studio\2022\Professional\VC\Tools\MSVC\14.44.35207\include\xmemory
; File C:\Program Files\Microsoft Visual Studio\2022\Professional\VC\Tools\MSVC\14.44.35207\include\list
; File C:\IAGOS\server\v18\Source\Source\_Common\spevent.cpp
; File C:\Program Files\Microsoft Visual Studio\2022\Professional\VC\Tools\MSVC\14.44.35207\include\xmemory
; File C:\IAGOS\server\v18\Source\Source\_Common\spevent.cpp
; File C:\Program Files\Microsoft Visual Studio\2022\Professional\VC\Tools\MSVC\14.44.35207\include\xtree
; File C:\Program Files\Microsoft Visual Studio\2022\Professional\VC\Tools\MSVC\14.44.35207\include\xmemory
; File C:\Program Files\Microsoft Visual Studio\2022\Professional\VC\Tools\MSVC\14.44.35207\include\xtree
; File C:\IAGOS\server\v18\Source\Source\_Common\spevent.cpp
;	COMDAT ??0CEventGeneric@@QAE@XZ
_TEXT	SEGMENT
_this$ = -20						; size = 4
_this$ = -16						; size = 4
__$EHRec$ = -12						; size = 12
??0CEventGeneric@@QAE@XZ PROC				; CEventGeneric::CEventGeneric, COMDAT
; _this$ = ecx

; 150  : {

  00000	55		 push	 ebp
  00001	8b ec		 mov	 ebp, esp
  00003	6a ff		 push	 -1
  00005	68 00 00 00 00	 push	 __ehhandler$??0CEventGeneric@@QAE@XZ
  0000a	64 a1 00 00 00
	00		 mov	 eax, DWORD PTR fs:0
  00010	50		 push	 eax
  00011	83 ec 08	 sub	 esp, 8
  00014	56		 push	 esi
  00015	57		 push	 edi
  00016	a1 00 00 00 00	 mov	 eax, DWORD PTR ___security_cookie
  0001b	33 c5		 xor	 eax, ebp
  0001d	50		 push	 eax
  0001e	8d 45 f4	 lea	 eax, DWORD PTR __$EHRec$[ebp]
  00021	64 a3 00 00 00
	00		 mov	 DWORD PTR fs:0, eax
  00027	8b f9		 mov	 edi, ecx
  00029	89 7d f0	 mov	 DWORD PTR _this$[ebp], edi
  0002c	c7 07 00 00 00
	00		 mov	 DWORD PTR [edi], OFFSET ??_7CEventGeneric@@6B@
; File C:\Program Files\Microsoft Visual Studio\2022\Professional\VC\Tools\MSVC\14.44.35207\include\xmemory

; 136  :         return ::operator new(_Bytes);

  00032	6a 0c		 push	 12			; 0000000cH
; File C:\Program Files\Microsoft Visual Studio\2022\Professional\VC\Tools\MSVC\14.44.35207\include\list

; 353  :     _List_val() noexcept : _Myhead(), _Mysize(0) {} // initialize data

  00034	c7 47 08 00 00
	00 00		 mov	 DWORD PTR [edi+8], 0
  0003b	c7 47 0c 00 00
	00 00		 mov	 DWORD PTR [edi+12], 0
; File C:\Program Files\Microsoft Visual Studio\2022\Professional\VC\Tools\MSVC\14.44.35207\include\xmemory

; 136  :         return ::operator new(_Bytes);

  00042	e8 00 00 00 00	 call	 ??2@YAPAXI@Z		; operator new
; File C:\Program Files\Microsoft Visual Studio\2022\Professional\VC\Tools\MSVC\14.44.35207\include\list

; 1852 :         _Construct_in_place(_Newhead->_Next, _Newhead);

  00047	89 00		 mov	 DWORD PTR [eax], eax

; 1853 :         _Construct_in_place(_Newhead->_Prev, _Newhead);

  00049	89 40 04	 mov	 DWORD PTR [eax+4], eax

; 1854 :         _Mypair._Myval2._Myhead = _Newhead;

  0004c	89 47 08	 mov	 DWORD PTR [edi+8], eax
; File C:\IAGOS\server\v18\Source\Source\_Common\spevent.cpp

; 150  : {

  0004f	8d 77 10	 lea	 esi, DWORD PTR [edi+16]
  00052	c7 45 fc 00 00
	00 00		 mov	 DWORD PTR __$EHRec$[ebp+8], 0
; File C:\Program Files\Microsoft Visual Studio\2022\Professional\VC\Tools\MSVC\14.44.35207\include\xmemory

; 136  :         return ::operator new(_Bytes);

  00059	6a 18		 push	 24			; 00000018H
; File C:\IAGOS\server\v18\Source\Source\_Common\spevent.cpp

; 150  : {

  0005b	89 75 ec	 mov	 DWORD PTR _this$[ebp], esi
; File C:\Program Files\Microsoft Visual Studio\2022\Professional\VC\Tools\MSVC\14.44.35207\include\xtree

; 450  :     _Tree_val() noexcept : _Myhead(), _Mysize(0) {}

  0005e	c7 06 00 00 00
	00		 mov	 DWORD PTR [esi], 0
  00064	c7 46 04 00 00
	00 00		 mov	 DWORD PTR [esi+4], 0
; File C:\Program Files\Microsoft Visual Studio\2022\Professional\VC\Tools\MSVC\14.44.35207\include\xmemory

; 136  :         return ::operator new(_Bytes);

  0006b	e8 00 00 00 00	 call	 ??2@YAPAXI@Z		; operator new
  00070	83 c4 08	 add	 esp, 8
; File C:\Program Files\Microsoft Visual Studio\2022\Professional\VC\Tools\MSVC\14.44.35207\include\xtree

; 346  :         _Construct_in_place(_Pnode->_Left, _Pnode);

  00073	89 00		 mov	 DWORD PTR [eax], eax

; 347  :         _Construct_in_place(_Pnode->_Parent, _Pnode);

  00075	89 40 04	 mov	 DWORD PTR [eax+4], eax

; 348  :         _Construct_in_place(_Pnode->_Right, _Pnode);

  00078	89 40 08	 mov	 DWORD PTR [eax+8], eax

; 349  :         _Pnode->_Color = _Black;

  0007b	66 c7 40 0c 01
	01		 mov	 WORD PTR [eax+12], 257	; 00000101H

; 1957 :         _Scary->_Myhead = _Node::_Buyheadnode(_Getal());

  00081	89 06		 mov	 DWORD PTR [esi], eax
; File C:\IAGOS\server\v18\Source\Source\_Common\spevent.cpp

; 152  : }

  00083	8b c7		 mov	 eax, edi
  00085	c7 47 04 00 00
	00 00		 mov	 DWORD PTR [edi+4], 0
  0008c	8b 4d f4	 mov	 ecx, DWORD PTR __$EHRec$[ebp]
  0008f	64 89 0d 00 00
	00 00		 mov	 DWORD PTR fs:0, ecx
  00096	59		 pop	 ecx
  00097	5f		 pop	 edi
  00098	5e		 pop	 esi
  00099	8b e5		 mov	 esp, ebp
  0009b	5d		 pop	 ebp
  0009c	c3		 ret	 0
_TEXT	ENDS
;	COMDAT text$x
text$x	SEGMENT
__unwindfunclet$??0CEventGeneric@@QAE@XZ$0:
  00000	8b 4d f0	 mov	 ecx, DWORD PTR _this$[ebp]
  00003	83 c1 08	 add	 ecx, 8
  00006	e9 00 00 00 00	 jmp	 ??1?$list@PAU_EVENT_GENERIC@@V?$allocator@PAU_EVENT_GENERIC@@@std@@@std@@QAE@XZ ; std::list<_EVENT_GENERIC *,std::allocator<_EVENT_GENERIC *> >::~list<_EVENT_GENERIC *,std::allocator<_EVENT_GENERIC *> >
  0000b	cc		 int	 3
  0000c	cc		 int	 3
  0000d	cc		 int	 3
  0000e	cc		 int	 3
  0000f	cc		 int	 3
__ehhandler$??0CEventGeneric@@QAE@XZ:
  00010	90		 npad	 1
  00011	90		 npad	 1
  00012	8b 54 24 08	 mov	 edx, DWORD PTR [esp+8]
  00016	8d 42 0c	 lea	 eax, DWORD PTR [edx+12]
  00019	8b 4a ec	 mov	 ecx, DWORD PTR [edx-20]
  0001c	33 c8		 xor	 ecx, eax
  0001e	e8 00 00 00 00	 call	 @__security_check_cookie@4
  00023	b8 00 00 00 00	 mov	 eax, OFFSET __ehfuncinfo$??0CEventGeneric@@QAE@XZ
  00028	e9 00 00 00 00	 jmp	 ___CxxFrameHandler3
text$x	ENDS
??0CEventGeneric@@QAE@XZ ENDP				; CEventGeneric::CEventGeneric
; Function compile flags: /Ogtp
; File C:\Program Files\Microsoft Visual Studio\2022\Professional\VC\Tools\MSVC\14.44.35207\include\xtree
;	COMDAT ?_Insert_node@?$_Tree_val@U?$_Tree_simple_types@U?$pair@$$CBHPAV?$list@PAVCEventItem@@V?$allocator@PAVCEventItem@@@std@@@std@@@std@@@std@@@std@@QAEPAU?$_Tree_node@U?$pair@$$CBHPAV?$list@PAVCEventItem@@V?$allocator@PAVCEventItem@@@std@@@std@@@std@@PAX@2@U?$_Tree_id@PAU?$_Tree_node@U?$pair@$$CBHPAV?$list@PAVCEventItem@@V?$allocator@PAVCEventItem@@@std@@@std@@@std@@PAX@std@@@2@QAU32@@Z
_TEXT	SEGMENT
__Head$1$ = -4						; size = 4
__Loc$ = 8						; size = 8
__Newnode$ = 16						; size = 4
?_Insert_node@?$_Tree_val@U?$_Tree_simple_types@U?$pair@$$CBHPAV?$list@PAVCEventItem@@V?$allocator@PAVCEventItem@@@std@@@std@@@std@@@std@@@std@@QAEPAU?$_Tree_node@U?$pair@$$CBHPAV?$list@PAVCEventItem@@V?$allocator@PAVCEventItem@@@std@@@std@@@std@@PAX@2@U?$_Tree_id@PAU?$_Tree_node@U?$pair@$$CBHPAV?$list@PAVCEventItem@@V?$allocator@PAVCEventItem@@@std@@@std@@@std@@PAX@std@@@2@QAU32@@Z PROC ; std::_Tree_val<std::_Tree_simple_types<std::pair<int const ,std::list<CEventItem *,std::allocator<CEventItem *> > *> > >::_Insert_node, COMDAT
; _this$ = ecx

; 669  :     _Nodeptr _Insert_node(const _Tree_id<_Nodeptr> _Loc, const _Nodeptr _Newnode) noexcept {

  00000	55		 push	 ebp
  00001	8b ec		 mov	 ebp, esp
  00003	51		 push	 ecx

; 670  :         ++_Mysize;
; 671  :         const auto _Head  = _Myhead;
; 672  :         _Newnode->_Parent = _Loc._Parent;

  00004	8b 55 08	 mov	 edx, DWORD PTR __Loc$[ebp]
  00007	53		 push	 ebx
  00008	8b d9		 mov	 ebx, ecx
  0000a	57		 push	 edi
  0000b	8b 7d 10	 mov	 edi, DWORD PTR __Newnode$[ebp]
  0000e	8b 03		 mov	 eax, DWORD PTR [ebx]
  00010	ff 43 04	 inc	 DWORD PTR [ebx+4]
  00013	89 45 fc	 mov	 DWORD PTR __Head$1$[ebp], eax
  00016	89 57 04	 mov	 DWORD PTR [edi+4], edx

; 673  :         if (_Loc._Parent == _Head) { // first node in tree, just set head values

  00019	3b d0		 cmp	 edx, eax
  0001b	75 16		 jne	 SHORT $LN5@Insert_nod

; 674  :             _Head->_Left     = _Newnode;

  0001d	89 38		 mov	 DWORD PTR [eax], edi

; 675  :             _Head->_Parent   = _Newnode;

  0001f	89 78 04	 mov	 DWORD PTR [eax+4], edi

; 676  :             _Head->_Right    = _Newnode;

  00022	89 78 08	 mov	 DWORD PTR [eax+8], edi

; 735  :         return _Newnode;
; 736  :     }

  00025	8b c7		 mov	 eax, edi
  00027	c6 47 0c 01	 mov	 BYTE PTR [edi+12], 1
  0002b	5f		 pop	 edi
  0002c	5b		 pop	 ebx
  0002d	8b e5		 mov	 esp, ebp
  0002f	5d		 pop	 ebp
  00030	c2 0c 00	 ret	 12			; 0000000cH
$LN5@Insert_nod:

; 677  :             _Newnode->_Color = _Black; // the root is black
; 678  :             return _Newnode;
; 679  :         }
; 680  : 
; 681  :         _STL_INTERNAL_CHECK(_Loc._Child != _Tree_child::_Unused);
; 682  :         if (_Loc._Child == _Tree_child::_Right) { // add to right of _Loc._Parent

  00033	83 7d 0c 00	 cmp	 DWORD PTR __Loc$[ebp+4], 0
  00037	75 0d		 jne	 SHORT $LN6@Insert_nod

; 683  :             _STL_INTERNAL_CHECK(_Loc._Parent->_Right->_Isnil);
; 684  :             _Loc._Parent->_Right = _Newnode;

  00039	89 7a 08	 mov	 DWORD PTR [edx+8], edi

; 685  :             if (_Loc._Parent == _Head->_Right) { // remember rightmost node

  0003c	3b 50 08	 cmp	 edx, DWORD PTR [eax+8]
  0003f	75 0d		 jne	 SHORT $LN9@Insert_nod

; 686  :                 _Head->_Right = _Newnode;

  00041	89 78 08	 mov	 DWORD PTR [eax+8], edi

; 687  :             }
; 688  :         } else { // add to left of _Loc._Parent

  00044	eb 08		 jmp	 SHORT $LN9@Insert_nod
$LN6@Insert_nod:

; 689  :             _STL_INTERNAL_CHECK(_Loc._Parent->_Left->_Isnil);
; 690  :             _Loc._Parent->_Left = _Newnode;

  00046	89 3a		 mov	 DWORD PTR [edx], edi

; 691  :             if (_Loc._Parent == _Head->_Left) { // remember leftmost node

  00048	3b 10		 cmp	 edx, DWORD PTR [eax]
  0004a	75 02		 jne	 SHORT $LN9@Insert_nod

; 692  :                 _Head->_Left = _Newnode;

  0004c	89 38		 mov	 DWORD PTR [eax], edi
$LN9@Insert_nod:

; 693  :             }
; 694  :         }
; 695  : 
; 696  :         for (_Nodeptr _Pnode = _Newnode; _Pnode->_Parent->_Color == _Red;) {

  0004e	8b 4f 04	 mov	 ecx, DWORD PTR [edi+4]
  00051	8b c7		 mov	 eax, edi
  00053	80 79 0c 00	 cmp	 BYTE PTR [ecx+12], 0
  00057	0f 85 7d 01 00
	00		 jne	 $LN3@Insert_nod
  0005d	56		 push	 esi
  0005e	66 90		 npad	 2
$LL4@Insert_nod:

; 697  :             if (_Pnode->_Parent == _Pnode->_Parent->_Parent->_Left) { // fixup red-red in left subtree

  00060	8b 50 04	 mov	 edx, DWORD PTR [eax+4]
  00063	8b 72 04	 mov	 esi, DWORD PTR [edx+4]
  00066	8b 0e		 mov	 ecx, DWORD PTR [esi]
  00068	3b d1		 cmp	 edx, ecx
  0006a	0f 85 aa 00 00
	00		 jne	 $LN10@Insert_nod

; 698  :                 const auto _Parent_sibling = _Pnode->_Parent->_Parent->_Right;

  00070	8b 4e 08	 mov	 ecx, DWORD PTR [esi+8]

; 699  :                 if (_Parent_sibling->_Color == _Red) { // parent's sibling has two red children, blacken both

  00073	80 79 0c 00	 cmp	 BYTE PTR [ecx+12], 0
  00077	0f 84 a3 00 00
	00		 je	 $LN82@Insert_nod

; 700  :                     _Pnode->_Parent->_Color          = _Black;
; 701  :                     _Parent_sibling->_Color          = _Black;
; 702  :                     _Pnode->_Parent->_Parent->_Color = _Red;
; 703  :                     _Pnode                           = _Pnode->_Parent->_Parent;
; 704  :                 } else { // parent's sibling has red and black children
; 705  :                     if (_Pnode == _Pnode->_Parent->_Right) { // rotate right child to left

  0007d	8b 72 08	 mov	 esi, DWORD PTR [edx+8]
  00080	3b c6		 cmp	 eax, esi
  00082	75 37		 jne	 SHORT $LN57@Insert_nod

; 485  :         _Wherenode->_Right = _Pnode->_Left;

  00084	8b 0e		 mov	 ecx, DWORD PTR [esi]

; 706  :                         _Pnode = _Pnode->_Parent;

  00086	8b c2		 mov	 eax, edx

; 485  :         _Wherenode->_Right = _Pnode->_Left;

  00088	89 4a 08	 mov	 DWORD PTR [edx+8], ecx

; 486  : 
; 487  :         if (!_Pnode->_Left->_Isnil) {

  0008b	8b 0e		 mov	 ecx, DWORD PTR [esi]
  0008d	80 79 0d 00	 cmp	 BYTE PTR [ecx+13], 0
  00091	75 03		 jne	 SHORT $LN21@Insert_nod

; 488  :             _Pnode->_Left->_Parent = _Wherenode;

  00093	89 41 04	 mov	 DWORD PTR [ecx+4], eax
$LN21@Insert_nod:

; 489  :         }
; 490  : 
; 491  :         _Pnode->_Parent = _Wherenode->_Parent;

  00096	8b 4a 04	 mov	 ecx, DWORD PTR [edx+4]
  00099	89 4e 04	 mov	 DWORD PTR [esi+4], ecx

; 492  : 
; 493  :         if (_Wherenode == _Myhead->_Parent) {

  0009c	8b 0b		 mov	 ecx, DWORD PTR [ebx]
  0009e	3b 41 04	 cmp	 eax, DWORD PTR [ecx+4]
  000a1	75 05		 jne	 SHORT $LN22@Insert_nod

; 494  :             _Myhead->_Parent = _Pnode;

  000a3	89 71 04	 mov	 DWORD PTR [ecx+4], esi
  000a6	eb 0e		 jmp	 SHORT $LN25@Insert_nod
$LN22@Insert_nod:

; 495  :         } else if (_Wherenode == _Wherenode->_Parent->_Left) {

  000a8	8b 4a 04	 mov	 ecx, DWORD PTR [edx+4]
  000ab	3b 01		 cmp	 eax, DWORD PTR [ecx]
  000ad	75 04		 jne	 SHORT $LN24@Insert_nod

; 496  :             _Wherenode->_Parent->_Left = _Pnode;

  000af	89 31		 mov	 DWORD PTR [ecx], esi

; 497  :         } else {

  000b1	eb 03		 jmp	 SHORT $LN25@Insert_nod
$LN24@Insert_nod:

; 498  :             _Wherenode->_Parent->_Right = _Pnode;

  000b3	89 71 08	 mov	 DWORD PTR [ecx+8], esi
$LN25@Insert_nod:

; 499  :         }
; 500  : 
; 501  :         _Pnode->_Left       = _Wherenode;

  000b6	89 06		 mov	 DWORD PTR [esi], eax

; 502  :         _Wherenode->_Parent = _Pnode;

  000b8	89 70 04	 mov	 DWORD PTR [eax+4], esi
$LN57@Insert_nod:

; 707  :                         _Lrotate(_Pnode);
; 708  :                     }
; 709  : 
; 710  :                     _Pnode->_Parent->_Color          = _Black; // propagate red up

  000bb	8b 48 04	 mov	 ecx, DWORD PTR [eax+4]
  000be	c6 41 0c 01	 mov	 BYTE PTR [ecx+12], 1

; 711  :                     _Pnode->_Parent->_Parent->_Color = _Red;

  000c2	8b 48 04	 mov	 ecx, DWORD PTR [eax+4]
  000c5	8b 49 04	 mov	 ecx, DWORD PTR [ecx+4]
  000c8	c6 41 0c 00	 mov	 BYTE PTR [ecx+12], 0

; 712  :                     _Rrotate(_Pnode->_Parent->_Parent);

  000cc	8b 48 04	 mov	 ecx, DWORD PTR [eax+4]
  000cf	8b 51 04	 mov	 edx, DWORD PTR [ecx+4]

; 506  :         _Nodeptr _Pnode   = _Wherenode->_Left;

  000d2	8b 32		 mov	 esi, DWORD PTR [edx]

; 507  :         _Wherenode->_Left = _Pnode->_Right;

  000d4	8b 4e 08	 mov	 ecx, DWORD PTR [esi+8]
  000d7	89 0a		 mov	 DWORD PTR [edx], ecx

; 508  : 
; 509  :         if (!_Pnode->_Right->_Isnil) {

  000d9	8b 4e 08	 mov	 ecx, DWORD PTR [esi+8]
  000dc	80 79 0d 00	 cmp	 BYTE PTR [ecx+13], 0
  000e0	75 03		 jne	 SHORT $LN29@Insert_nod

; 510  :             _Pnode->_Right->_Parent = _Wherenode;

  000e2	89 51 04	 mov	 DWORD PTR [ecx+4], edx
$LN29@Insert_nod:

; 511  :         }
; 512  : 
; 513  :         _Pnode->_Parent = _Wherenode->_Parent;

  000e5	8b 4a 04	 mov	 ecx, DWORD PTR [edx+4]
  000e8	89 4e 04	 mov	 DWORD PTR [esi+4], ecx

; 514  : 
; 515  :         if (_Wherenode == _Myhead->_Parent) {

  000eb	8b 0b		 mov	 ecx, DWORD PTR [ebx]
  000ed	3b 51 04	 cmp	 edx, DWORD PTR [ecx+4]
  000f0	75 0b		 jne	 SHORT $LN30@Insert_nod

; 516  :             _Myhead->_Parent = _Pnode;

  000f2	89 71 04	 mov	 DWORD PTR [ecx+4], esi

; 521  :         }
; 522  : 
; 523  :         _Pnode->_Right      = _Wherenode;

  000f5	89 56 08	 mov	 DWORD PTR [esi+8], edx

; 713  :                 }
; 714  :             } else { // fixup red-red in right subtree

  000f8	e9 cc 00 00 00	 jmp	 $LN81@Insert_nod
$LN30@Insert_nod:

; 517  :         } else if (_Wherenode == _Wherenode->_Parent->_Right) {

  000fd	8b 4a 04	 mov	 ecx, DWORD PTR [edx+4]
  00100	3b 51 08	 cmp	 edx, DWORD PTR [ecx+8]
  00103	75 0b		 jne	 SHORT $LN32@Insert_nod

; 518  :             _Wherenode->_Parent->_Right = _Pnode;

  00105	89 71 08	 mov	 DWORD PTR [ecx+8], esi

; 521  :         }
; 522  : 
; 523  :         _Pnode->_Right      = _Wherenode;

  00108	89 56 08	 mov	 DWORD PTR [esi+8], edx

; 713  :                 }
; 714  :             } else { // fixup red-red in right subtree

  0010b	e9 b9 00 00 00	 jmp	 $LN81@Insert_nod
$LN32@Insert_nod:

; 520  :             _Wherenode->_Parent->_Left = _Pnode;

  00110	89 31		 mov	 DWORD PTR [ecx], esi

; 521  :         }
; 522  : 
; 523  :         _Pnode->_Right      = _Wherenode;

  00112	89 56 08	 mov	 DWORD PTR [esi+8], edx

; 713  :                 }
; 714  :             } else { // fixup red-red in right subtree

  00115	e9 af 00 00 00	 jmp	 $LN81@Insert_nod
$LN10@Insert_nod:

; 715  :                 const auto _Parent_sibling = _Pnode->_Parent->_Parent->_Left;
; 716  :                 if (_Parent_sibling->_Color == _Red) { // parent's sibling has two red children, blacken both

  0011a	80 79 0c 00	 cmp	 BYTE PTR [ecx+12], 0
  0011e	75 1d		 jne	 SHORT $LN15@Insert_nod
$LN82@Insert_nod:

; 693  :             }
; 694  :         }
; 695  : 
; 696  :         for (_Nodeptr _Pnode = _Newnode; _Pnode->_Parent->_Color == _Red;) {

  00120	c6 42 0c 01	 mov	 BYTE PTR [edx+12], 1
  00124	c6 41 0c 01	 mov	 BYTE PTR [ecx+12], 1
  00128	8b 48 04	 mov	 ecx, DWORD PTR [eax+4]
  0012b	8b 49 04	 mov	 ecx, DWORD PTR [ecx+4]
  0012e	c6 41 0c 00	 mov	 BYTE PTR [ecx+12], 0
  00132	8b 48 04	 mov	 ecx, DWORD PTR [eax+4]
  00135	8b 41 04	 mov	 eax, DWORD PTR [ecx+4]
  00138	e9 8f 00 00 00	 jmp	 $LN2@Insert_nod
$LN15@Insert_nod:

; 717  :                     _Pnode->_Parent->_Color          = _Black;
; 718  :                     _Parent_sibling->_Color          = _Black;
; 719  :                     _Pnode->_Parent->_Parent->_Color = _Red;
; 720  :                     _Pnode                           = _Pnode->_Parent->_Parent;
; 721  :                 } else { // parent's sibling has red and black children
; 722  :                     if (_Pnode == _Pnode->_Parent->_Left) { // rotate left child to right

  0013d	8b 32		 mov	 esi, DWORD PTR [edx]
  0013f	3b c6		 cmp	 eax, esi
  00141	75 3a		 jne	 SHORT $LN42@Insert_nod

; 507  :         _Wherenode->_Left = _Pnode->_Right;

  00143	8b 4e 08	 mov	 ecx, DWORD PTR [esi+8]

; 723  :                         _Pnode = _Pnode->_Parent;

  00146	8b c2		 mov	 eax, edx

; 507  :         _Wherenode->_Left = _Pnode->_Right;

  00148	89 08		 mov	 DWORD PTR [eax], ecx

; 508  : 
; 509  :         if (!_Pnode->_Right->_Isnil) {

  0014a	8b 4e 08	 mov	 ecx, DWORD PTR [esi+8]
  0014d	80 79 0d 00	 cmp	 BYTE PTR [ecx+13], 0
  00151	75 03		 jne	 SHORT $LN37@Insert_nod

; 510  :             _Pnode->_Right->_Parent = _Wherenode;

  00153	89 41 04	 mov	 DWORD PTR [ecx+4], eax
$LN37@Insert_nod:

; 511  :         }
; 512  : 
; 513  :         _Pnode->_Parent = _Wherenode->_Parent;

  00156	8b 4a 04	 mov	 ecx, DWORD PTR [edx+4]
  00159	89 4e 04	 mov	 DWORD PTR [esi+4], ecx

; 514  : 
; 515  :         if (_Wherenode == _Myhead->_Parent) {

  0015c	8b 0b		 mov	 ecx, DWORD PTR [ebx]
  0015e	3b 41 04	 cmp	 eax, DWORD PTR [ecx+4]
  00161	75 05		 jne	 SHORT $LN38@Insert_nod

; 516  :             _Myhead->_Parent = _Pnode;

  00163	89 71 04	 mov	 DWORD PTR [ecx+4], esi
  00166	eb 0f		 jmp	 SHORT $LN41@Insert_nod
$LN38@Insert_nod:

; 517  :         } else if (_Wherenode == _Wherenode->_Parent->_Right) {

  00168	8b 4a 04	 mov	 ecx, DWORD PTR [edx+4]
  0016b	3b 41 08	 cmp	 eax, DWORD PTR [ecx+8]
  0016e	75 05		 jne	 SHORT $LN40@Insert_nod

; 518  :             _Wherenode->_Parent->_Right = _Pnode;

  00170	89 71 08	 mov	 DWORD PTR [ecx+8], esi

; 519  :         } else {

  00173	eb 02		 jmp	 SHORT $LN41@Insert_nod
$LN40@Insert_nod:

; 520  :             _Wherenode->_Parent->_Left = _Pnode;

  00175	89 31		 mov	 DWORD PTR [ecx], esi
$LN41@Insert_nod:

; 521  :         }
; 522  : 
; 523  :         _Pnode->_Right      = _Wherenode;

  00177	89 46 08	 mov	 DWORD PTR [esi+8], eax

; 524  :         _Wherenode->_Parent = _Pnode;

  0017a	89 70 04	 mov	 DWORD PTR [eax+4], esi
$LN42@Insert_nod:

; 724  :                         _Rrotate(_Pnode);
; 725  :                     }
; 726  : 
; 727  :                     _Pnode->_Parent->_Color          = _Black; // propagate red up

  0017d	8b 48 04	 mov	 ecx, DWORD PTR [eax+4]
  00180	c6 41 0c 01	 mov	 BYTE PTR [ecx+12], 1

; 728  :                     _Pnode->_Parent->_Parent->_Color = _Red;

  00184	8b 48 04	 mov	 ecx, DWORD PTR [eax+4]
  00187	8b 49 04	 mov	 ecx, DWORD PTR [ecx+4]
  0018a	c6 41 0c 00	 mov	 BYTE PTR [ecx+12], 0

; 729  :                     _Lrotate(_Pnode->_Parent->_Parent);

  0018e	8b 48 04	 mov	 ecx, DWORD PTR [eax+4]
  00191	8b 51 04	 mov	 edx, DWORD PTR [ecx+4]

; 484  :         _Nodeptr _Pnode    = _Wherenode->_Right;

  00194	8b 72 08	 mov	 esi, DWORD PTR [edx+8]

; 485  :         _Wherenode->_Right = _Pnode->_Left;

  00197	8b 0e		 mov	 ecx, DWORD PTR [esi]
  00199	89 4a 08	 mov	 DWORD PTR [edx+8], ecx

; 486  : 
; 487  :         if (!_Pnode->_Left->_Isnil) {

  0019c	8b 0e		 mov	 ecx, DWORD PTR [esi]
  0019e	80 79 0d 00	 cmp	 BYTE PTR [ecx+13], 0
  001a2	75 03		 jne	 SHORT $LN45@Insert_nod

; 488  :             _Pnode->_Left->_Parent = _Wherenode;

  001a4	89 51 04	 mov	 DWORD PTR [ecx+4], edx
$LN45@Insert_nod:

; 489  :         }
; 490  : 
; 491  :         _Pnode->_Parent = _Wherenode->_Parent;

  001a7	8b 4a 04	 mov	 ecx, DWORD PTR [edx+4]
  001aa	89 4e 04	 mov	 DWORD PTR [esi+4], ecx

; 492  : 
; 493  :         if (_Wherenode == _Myhead->_Parent) {

  001ad	8b 0b		 mov	 ecx, DWORD PTR [ebx]
  001af	3b 51 04	 cmp	 edx, DWORD PTR [ecx+4]
  001b2	75 05		 jne	 SHORT $LN46@Insert_nod

; 494  :             _Myhead->_Parent = _Pnode;

  001b4	89 71 04	 mov	 DWORD PTR [ecx+4], esi
  001b7	eb 0e		 jmp	 SHORT $LN49@Insert_nod
$LN46@Insert_nod:

; 495  :         } else if (_Wherenode == _Wherenode->_Parent->_Left) {

  001b9	8b 4a 04	 mov	 ecx, DWORD PTR [edx+4]
  001bc	3b 11		 cmp	 edx, DWORD PTR [ecx]
  001be	75 04		 jne	 SHORT $LN48@Insert_nod

; 496  :             _Wherenode->_Parent->_Left = _Pnode;

  001c0	89 31		 mov	 DWORD PTR [ecx], esi

; 497  :         } else {

  001c2	eb 03		 jmp	 SHORT $LN49@Insert_nod
$LN48@Insert_nod:

; 498  :             _Wherenode->_Parent->_Right = _Pnode;

  001c4	89 71 08	 mov	 DWORD PTR [ecx+8], esi
$LN49@Insert_nod:

; 499  :         }
; 500  : 
; 501  :         _Pnode->_Left       = _Wherenode;

  001c7	89 16		 mov	 DWORD PTR [esi], edx
$LN81@Insert_nod:

; 693  :             }
; 694  :         }
; 695  : 
; 696  :         for (_Nodeptr _Pnode = _Newnode; _Pnode->_Parent->_Color == _Red;) {

  001c9	89 72 04	 mov	 DWORD PTR [edx+4], esi
$LN2@Insert_nod:
  001cc	8b 48 04	 mov	 ecx, DWORD PTR [eax+4]
  001cf	80 79 0c 00	 cmp	 BYTE PTR [ecx+12], 0
  001d3	0f 84 87 fe ff
	ff		 je	 $LL4@Insert_nod
  001d9	5e		 pop	 esi
$LN3@Insert_nod:

; 730  :                 }
; 731  :             }
; 732  :         }
; 733  : 
; 734  :         _Head->_Parent->_Color = _Black; // root is always black

  001da	8b 45 fc	 mov	 eax, DWORD PTR __Head$1$[ebp]
  001dd	8b 40 04	 mov	 eax, DWORD PTR [eax+4]
  001e0	c6 40 0c 01	 mov	 BYTE PTR [eax+12], 1

; 735  :         return _Newnode;
; 736  :     }

  001e4	8b c7		 mov	 eax, edi
  001e6	5f		 pop	 edi
  001e7	5b		 pop	 ebx
  001e8	8b e5		 mov	 esp, ebp
  001ea	5d		 pop	 ebp
  001eb	c2 0c 00	 ret	 12			; 0000000cH
?_Insert_node@?$_Tree_val@U?$_Tree_simple_types@U?$pair@$$CBHPAV?$list@PAVCEventItem@@V?$allocator@PAVCEventItem@@@std@@@std@@@std@@@std@@@std@@QAEPAU?$_Tree_node@U?$pair@$$CBHPAV?$list@PAVCEventItem@@V?$allocator@PAVCEventItem@@@std@@@std@@@std@@PAX@2@U?$_Tree_id@PAU?$_Tree_node@U?$pair@$$CBHPAV?$list@PAVCEventItem@@V?$allocator@PAVCEventItem@@@std@@@std@@@std@@PAX@std@@@2@QAU32@@Z ENDP ; std::_Tree_val<std::_Tree_simple_types<std::pair<int const ,std::list<CEventItem *,std::allocator<CEventItem *> > *> > >::_Insert_node
_TEXT	ENDS
; Function compile flags: /Ogtp
; File C:\Program Files\Microsoft Visual Studio\2022\Professional\VC\Tools\MSVC\14.44.35207\include\xtree
; File C:\Program Files\Microsoft Visual Studio\2022\Professional\VC\Tools\MSVC\14.44.35207\include\utility
; File C:\Program Files\Microsoft Visual Studio\2022\Professional\VC\Tools\MSVC\14.44.35207\include\xmemory
; File C:\Program Files\Microsoft Visual Studio\2022\Professional\VC\Tools\MSVC\14.44.35207\include\xtree
; File C:\Program Files\Microsoft Visual Studio\2022\Professional\VC\Tools\MSVC\14.44.35207\include\xmemory
; File C:\Program Files\Microsoft Visual Studio\2022\Professional\VC\Tools\MSVC\14.44.35207\include\xtree
;	COMDAT ??1?$_Tree@V?$_Tmap_traits@HPAV?$list@PAVCEventItem@@V?$allocator@PAVCEventItem@@@std@@@std@@U?$less@H@2@V?$allocator@U?$pair@$$CBHPAV?$list@PAVCEventItem@@V?$allocator@PAVCEventItem@@@std@@@std@@@std@@@2@$0A@@std@@@std@@QAE@XZ
_TEXT	SEGMENT
??1?$_Tree@V?$_Tmap_traits@HPAV?$list@PAVCEventItem@@V?$allocator@PAVCEventItem@@@std@@@std@@U?$less@H@2@V?$allocator@U?$pair@$$CBHPAV?$list@PAVCEventItem@@V?$allocator@PAVCEventItem@@@std@@@std@@@std@@@2@$0A@@std@@@std@@QAE@XZ PROC ; std::_Tree<std::_Tmap_traits<int,std::list<CEventItem *,std::allocator<CEventItem *> > *,std::less<int>,std::allocator<std::pair<int const ,std::list<CEventItem *,std::allocator<CEventItem *> > *> >,0> >::~_Tree<std::_Tmap_traits<int,std::list<CEventItem *,std::allocator<CEventItem *> > *,std::less<int>,std::allocator<std::pair<int const ,std::list<CEventItem *,std::allocator<CEventItem *> > *> >,0> >, COMDAT
; _this$ = ecx

; 1095 :     ~_Tree() noexcept {

  00000	56		 push	 esi
  00001	57		 push	 edi
  00002	8b f9		 mov	 edi, ecx

; 777  :         _Erase_tree(_Al, _Myhead->_Parent);

  00004	8b 37		 mov	 esi, DWORD PTR [edi]
  00006	8b 76 04	 mov	 esi, DWORD PTR [esi+4]

; 768  :         while (!_Rootnode->_Isnil) { // free subtrees, then node

  00009	80 7e 0d 00	 cmp	 BYTE PTR [esi+13], 0
  0000d	75 21		 jne	 SHORT $LN61@Tree
  0000f	90		 npad	 1
$LL8@Tree:

; 769  :             _Erase_tree(_Al, _Rootnode->_Right);

  00010	ff 76 08	 push	 DWORD PTR [esi+8]
  00013	8b cf		 mov	 ecx, edi
  00015	57		 push	 edi
  00016	e8 00 00 00 00	 call	 ??$_Erase_tree@V?$allocator@U?$_Tree_node@U?$pair@$$CBHPAV?$list@PAVCEventItem@@V?$allocator@PAVCEventItem@@@std@@@std@@@std@@PAX@std@@@std@@@?$_Tree_val@U?$_Tree_simple_types@U?$pair@$$CBHPAV?$list@PAVCEventItem@@V?$allocator@PAVCEventItem@@@std@@@std@@@std@@@std@@@std@@QAEXAAV?$allocator@U?$_Tree_node@U?$pair@$$CBHPAV?$list@PAVCEventItem@@V?$allocator@PAVCEventItem@@@std@@@std@@@std@@PAX@std@@@1@PAU?$_Tree_node@U?$pair@$$CBHPAV?$list@PAVCEventItem@@V?$allocator@PAVCEventItem@@@std@@@std@@@std@@PAX@1@@Z ; std::_Tree_val<std::_Tree_simple_types<std::pair<int const ,std::list<CEventItem *,std::allocator<CEventItem *> > *> > >::_Erase_tree<std::allocator<std::_Tree_node<std::pair<int const ,std::list<CEventItem *,std::allocator<CEventItem *> > *>,void *> > >
; File C:\Program Files\Microsoft Visual Studio\2022\Professional\VC\Tools\MSVC\14.44.35207\include\utility

; 773  :     _Ty _Old_val = static_cast<_Ty&&>(_Val);

  0001b	8b c6		 mov	 eax, esi

; 774  :     _Val         = static_cast<_Other&&>(_New_val);

  0001d	8b 36		 mov	 esi, DWORD PTR [esi]
; File C:\Program Files\Microsoft Visual Studio\2022\Professional\VC\Tools\MSVC\14.44.35207\include\xmemory

; 289  :         ::operator delete(_Ptr, _Bytes);

  0001f	6a 18		 push	 24			; 00000018H
  00021	50		 push	 eax
  00022	e8 00 00 00 00	 call	 ??3@YAXPAXI@Z		; operator delete
  00027	83 c4 08	 add	 esp, 8
; File C:\Program Files\Microsoft Visual Studio\2022\Professional\VC\Tools\MSVC\14.44.35207\include\xtree

; 768  :         while (!_Rootnode->_Isnil) { // free subtrees, then node

  0002a	80 7e 0d 00	 cmp	 BYTE PTR [esi+13], 0
  0002e	74 e0		 je	 SHORT $LL8@Tree
$LN61@Tree:
; File C:\Program Files\Microsoft Visual Studio\2022\Professional\VC\Tools\MSVC\14.44.35207\include\xmemory

; 289  :         ::operator delete(_Ptr, _Bytes);

  00030	6a 18		 push	 24			; 00000018H
  00032	ff 37		 push	 DWORD PTR [edi]
  00034	e8 00 00 00 00	 call	 ??3@YAXPAXI@Z		; operator delete
  00039	83 c4 08	 add	 esp, 8
  0003c	5f		 pop	 edi
  0003d	5e		 pop	 esi
; File C:\Program Files\Microsoft Visual Studio\2022\Professional\VC\Tools\MSVC\14.44.35207\include\xtree

; 1102 :     }

  0003e	c3		 ret	 0
??1?$_Tree@V?$_Tmap_traits@HPAV?$list@PAVCEventItem@@V?$allocator@PAVCEventItem@@@std@@@std@@U?$less@H@2@V?$allocator@U?$pair@$$CBHPAV?$list@PAVCEventItem@@V?$allocator@PAVCEventItem@@@std@@@std@@@std@@@2@$0A@@std@@@std@@QAE@XZ ENDP ; std::_Tree<std::_Tmap_traits<int,std::list<CEventItem *,std::allocator<CEventItem *> > *,std::less<int>,std::allocator<std::pair<int const ,std::list<CEventItem *,std::allocator<CEventItem *> > *> >,0> >::~_Tree<std::_Tmap_traits<int,std::list<CEventItem *,std::allocator<CEventItem *> > *,std::less<int>,std::allocator<std::pair<int const ,std::list<CEventItem *,std::allocator<CEventItem *> > *> >,0> >
_TEXT	ENDS
; Function compile flags: /Ogtp
; File C:\Program Files\Microsoft Visual Studio\2022\Professional\VC\Tools\MSVC\14.44.35207\include\list
; File C:\Program Files\Microsoft Visual Studio\2022\Professional\VC\Tools\MSVC\14.44.35207\include\xmemory
; File C:\Program Files\Microsoft Visual Studio\2022\Professional\VC\Tools\MSVC\14.44.35207\include\list
; File C:\Program Files\Microsoft Visual Studio\2022\Professional\VC\Tools\MSVC\14.44.35207\include\xmemory
; File C:\Program Files\Microsoft Visual Studio\2022\Professional\VC\Tools\MSVC\14.44.35207\include\list
;	COMDAT ??1?$list@PAU_EVENT_GENERIC@@V?$allocator@PAU_EVENT_GENERIC@@@std@@@std@@QAE@XZ
_TEXT	SEGMENT
??1?$list@PAU_EVENT_GENERIC@@V?$allocator@PAU_EVENT_GENERIC@@@std@@@std@@QAE@XZ PROC ; std::list<_EVENT_GENERIC *,std::allocator<_EVENT_GENERIC *> >::~list<_EVENT_GENERIC *,std::allocator<_EVENT_GENERIC *> >, COMDAT
; _this$ = ecx

; 1060 :     ~list() noexcept {

  00000	57		 push	 edi
  00001	8b f9		 mov	 edi, ecx

; 1518 :         _Node::_Free_non_head(_Al, _My_data._Myhead);

  00003	8b 17		 mov	 edx, DWORD PTR [edi]

; 324  :         _Head->_Prev->_Next = nullptr;

  00005	8b 42 04	 mov	 eax, DWORD PTR [edx+4]
  00008	c7 00 00 00 00
	00		 mov	 DWORD PTR [eax], 0

; 325  : 
; 326  :         auto _Pnode = _Head->_Next;

  0000e	8b 02		 mov	 eax, DWORD PTR [edx]

; 327  :         for (_Nodeptr _Pnext; _Pnode; _Pnode = _Pnext) {

  00010	85 c0		 test	 eax, eax
  00012	74 15		 je	 SHORT $LN57@list
  00014	56		 push	 esi
$LL10@list:

; 328  :             _Pnext = _Pnode->_Next;

  00015	8b 30		 mov	 esi, DWORD PTR [eax]
; File C:\Program Files\Microsoft Visual Studio\2022\Professional\VC\Tools\MSVC\14.44.35207\include\xmemory

; 289  :         ::operator delete(_Ptr, _Bytes);

  00017	6a 0c		 push	 12			; 0000000cH
  00019	50		 push	 eax
  0001a	e8 00 00 00 00	 call	 ??3@YAXPAXI@Z		; operator delete
  0001f	83 c4 08	 add	 esp, 8
; File C:\Program Files\Microsoft Visual Studio\2022\Professional\VC\Tools\MSVC\14.44.35207\include\list

; 327  :         for (_Nodeptr _Pnext; _Pnode; _Pnode = _Pnext) {

  00022	8b c6		 mov	 eax, esi
  00024	85 f6		 test	 esi, esi
  00026	75 ed		 jne	 SHORT $LL10@list
  00028	5e		 pop	 esi
$LN57@list:
; File C:\Program Files\Microsoft Visual Studio\2022\Professional\VC\Tools\MSVC\14.44.35207\include\xmemory

; 289  :         ::operator delete(_Ptr, _Bytes);

  00029	6a 0c		 push	 12			; 0000000cH
  0002b	ff 37		 push	 DWORD PTR [edi]
  0002d	e8 00 00 00 00	 call	 ??3@YAXPAXI@Z		; operator delete
  00032	83 c4 08	 add	 esp, 8
  00035	5f		 pop	 edi
; File C:\Program Files\Microsoft Visual Studio\2022\Professional\VC\Tools\MSVC\14.44.35207\include\list

; 1066 :     }

  00036	c3		 ret	 0
??1?$list@PAU_EVENT_GENERIC@@V?$allocator@PAU_EVENT_GENERIC@@@std@@@std@@QAE@XZ ENDP ; std::list<_EVENT_GENERIC *,std::allocator<_EVENT_GENERIC *> >::~list<_EVENT_GENERIC *,std::allocator<_EVENT_GENERIC *> >
_TEXT	ENDS
; Function compile flags: /Ogtp
;	COMDAT ??_GCEventItem@@UAEPAXI@Z
_TEXT	SEGMENT
___flags$ = 8						; size = 4
??_GCEventItem@@UAEPAXI@Z PROC				; CEventItem::`scalar deleting destructor', COMDAT
; _this$ = ecx
  00000	55		 push	 ebp
  00001	8b ec		 mov	 ebp, esp
  00003	f6 45 08 01	 test	 BYTE PTR ___flags$[ebp], 1
  00007	56		 push	 esi
  00008	8b f1		 mov	 esi, ecx
  0000a	c7 06 00 00 00
	00		 mov	 DWORD PTR [esi], OFFSET ??_7CEventItem@@6B@
  00010	74 0b		 je	 SHORT $LN5@scalar
  00012	6a 78		 push	 120			; 00000078H
  00014	56		 push	 esi
  00015	e8 00 00 00 00	 call	 ??3@YAXPAXI@Z		; operator delete
  0001a	83 c4 08	 add	 esp, 8
$LN5@scalar:
  0001d	8b c6		 mov	 eax, esi
  0001f	5e		 pop	 esi
  00020	5d		 pop	 ebp
  00021	c2 04 00	 ret	 4
??_GCEventItem@@UAEPAXI@Z ENDP				; CEventItem::`scalar deleting destructor'
_TEXT	ENDS
; Function compile flags: /Ogtp
; File C:\IAGOS\server\v18\Source\Source\_Common\spevent.cpp
; File C:\IAGOS\server\v18\Source\Source\_Network\Misc\Include\Ar.h
; File C:\IAGOS\server\v18\Source\Source\_Common\spevent.cpp
; File C:\IAGOS\server\v18\Source\Source\_Network\Misc\Include\Ar.h
; File C:\IAGOS\server\v18\Source\Source\_Common\spevent.cpp
;	COMDAT ?Serialize@CEventItem@@QAEXAAVCAr@@@Z
_TEXT	SEGMENT
tv187 = -8						; size = 4
tv189 = -4						; size = 4
_ar$ = 8						; size = 4
?Serialize@CEventItem@@QAEXAAVCAr@@@Z PROC		; CEventItem::Serialize, COMDAT
; _this$ = ecx

; 131  : {

  00000	55		 push	 ebp
  00001	8b ec		 mov	 ebp, esp
  00003	83 ec 08	 sub	 esp, 8
  00006	53		 push	 ebx
  00007	56		 push	 esi
; File C:\IAGOS\server\v18\Source\Source\_Network\Misc\Include\Ar.h

; 146  : 	return (m_nMode & CAr::load) == 0;

  00008	8b 75 08	 mov	 esi, DWORD PTR _ar$[ebp]
; File C:\IAGOS\server\v18\Source\Source\_Common\spevent.cpp

; 131  : {

  0000b	57		 push	 edi
  0000c	8b f9		 mov	 edi, ecx
; File C:\IAGOS\server\v18\Source\Source\_Network\Misc\Include\Ar.h

; 146  : 	return (m_nMode & CAr::load) == 0;

  0000e	f6 06 01	 test	 BYTE PTR [esi], 1
  00011	8d 4f 74	 lea	 ecx, DWORD PTR [edi+116]
  00014	89 4d fc	 mov	 DWORD PTR tv189[ebp], ecx
  00017	8d 47 70	 lea	 eax, DWORD PTR [edi+112]
  0001a	8d 4f 08	 lea	 ecx, DWORD PTR [edi+8]
  0001d	89 4d f8	 mov	 DWORD PTR tv187[ebp], ecx
  00020	8d 5f 04	 lea	 ebx, DWORD PTR [edi+4]
; File C:\IAGOS\server\v18\Source\Source\_Common\spevent.cpp

; 132  : 	if( ar.IsStoring() )

  00023	50		 push	 eax
  00024	8b ce		 mov	 ecx, esi
  00026	75 2e		 jne	 SHORT $LN2@Serialize

; 133  : 	{
; 134  : 		ar << m_dwItemId;

  00028	e8 00 00 00 00	 call	 ??$?6K@CAr@@QAEAAV0@ABK@Z ; CAr::operator<<<unsigned long>

; 135  : 		ar << m_nMax;

  0002d	53		 push	 ebx
  0002e	8b ce		 mov	 ecx, esi
  00030	e8 00 00 00 00	 call	 ??$?6H@CAr@@QAEAAV0@ABH@Z ; CAr::operator<<<int>

; 136  : 		ar << m_nNum;

  00035	8b 45 fc	 mov	 eax, DWORD PTR tv189[ebp]
  00038	8b ce		 mov	 ecx, esi
  0003a	50		 push	 eax
  0003b	e8 00 00 00 00	 call	 ??$?6H@CAr@@QAEAAV0@ABH@Z ; CAr::operator<<<int>

; 137  : 		ar.Write( (const void*)m_adwInterval, sizeof(m_adwInterval) );

  00040	8b 45 f8	 mov	 eax, DWORD PTR tv187[ebp]
  00043	8b ce		 mov	 ecx, esi
  00045	6a 60		 push	 96			; 00000060H
  00047	50		 push	 eax
  00048	e8 00 00 00 00	 call	 ?Write@CAr@@QAEXPBXI@Z	; CAr::Write
  0004d	5f		 pop	 edi

; 146  : 	}
; 147  : }

  0004e	5e		 pop	 esi
  0004f	5b		 pop	 ebx
  00050	8b e5		 mov	 esp, ebp
  00052	5d		 pop	 ebp
  00053	c2 04 00	 ret	 4
$LN2@Serialize:

; 138  : 	}
; 139  : 	else
; 140  : 	{
; 141  : 		ar >> m_dwItemId;

  00056	e8 00 00 00 00	 call	 ??$?5K@CAr@@QAEAAV0@AAK@Z ; CAr::operator>><unsigned long>

; 142  : 		ar >> m_nMax;

  0005b	53		 push	 ebx
  0005c	8b ce		 mov	 ecx, esi
  0005e	e8 00 00 00 00	 call	 ??$?5H@CAr@@QAEAAV0@AAH@Z ; CAr::operator>><int>

; 143  : 		ar >> m_nNum;

  00063	8d 47 74	 lea	 eax, DWORD PTR [edi+116]
  00066	8b ce		 mov	 ecx, esi
  00068	50		 push	 eax
  00069	e8 00 00 00 00	 call	 ??$?5H@CAr@@QAEAAV0@AAH@Z ; CAr::operator>><int>

; 144  : 		ar.Read( (void*)m_adwInterval, sizeof(m_adwInterval) );

  0006e	6a 60		 push	 96			; 00000060H
  00070	8d 47 08	 lea	 eax, DWORD PTR [edi+8]
  00073	8b ce		 mov	 ecx, esi
  00075	50		 push	 eax
  00076	e8 00 00 00 00	 call	 ?Read@CAr@@QAEXPAXI@Z	; CAr::Read

; 145  : 		m_dwTimeout		= GetTickCount();

  0007b	ff 15 00 00 00
	00		 call	 DWORD PTR __imp__GetTickCount@0
  00081	89 47 68	 mov	 DWORD PTR [edi+104], eax
  00084	5f		 pop	 edi

; 146  : 	}
; 147  : }

  00085	5e		 pop	 esi
  00086	5b		 pop	 ebx
  00087	8b e5		 mov	 esp, ebp
  00089	5d		 pop	 ebp
  0008a	c2 04 00	 ret	 4
?Serialize@CEventItem@@QAEXAAVCAr@@@Z ENDP		; CEventItem::Serialize
_TEXT	ENDS
; Function compile flags: /Ogtp
; File C:\IAGOS\server\v18\Source\Source\_Common\spevent.cpp
;	COMDAT ?Skip@CEventItem@@QAEXJ@Z
_TEXT	SEGMENT
_lSkip$ = 8						; size = 4
?Skip@CEventItem@@QAEXJ@Z PROC				; CEventItem::Skip, COMDAT
; _this$ = ecx

; 126  : {

  00000	55		 push	 ebp
  00001	8b ec		 mov	 ebp, esp

; 127  : 	m_lSkip		= lSkip;

  00003	8b 45 08	 mov	 eax, DWORD PTR _lSkip$[ebp]
  00006	89 41 6c	 mov	 DWORD PTR [ecx+108], eax

; 128  : }

  00009	5d		 pop	 ebp
  0000a	c2 04 00	 ret	 4
?Skip@CEventItem@@QAEXJ@Z ENDP				; CEventItem::Skip
_TEXT	ENDS
; Function compile flags: /Ogtp
; File C:\IAGOS\server\v18\Source\Source\_Common\spevent.cpp
;	COMDAT ?IsTimeout@CEventItem@@QAEHH@Z
_TEXT	SEGMENT
_nHour$ = 8						; size = 4
?IsTimeout@CEventItem@@QAEHH@Z PROC			; CEventItem::IsTimeout, COMDAT
; _this$ = ecx

; 109  : {

  00000	55		 push	 ebp
  00001	8b ec		 mov	 ebp, esp
  00003	56		 push	 esi
  00004	8b f1		 mov	 esi, ecx

; 110  : 	DWORD dwTickCount	= GetTickCount();

  00006	ff 15 00 00 00
	00		 call	 DWORD PTR __imp__GetTickCount@0

; 111  : 	if( dwTickCount >= m_dwTimeout )

  0000c	3b 46 68	 cmp	 eax, DWORD PTR [esi+104]
  0000f	72 17		 jb	 SHORT $LN2@IsTimeout

; 112  : 	{
; 113  : 		m_dwTimeout	= dwTickCount + m_adwInterval[nHour];

  00011	8b 55 08	 mov	 edx, DWORD PTR _nHour$[ebp]
  00014	8b 4c 96 08	 mov	 ecx, DWORD PTR [esi+edx*4+8]
  00018	03 c8		 add	 ecx, eax

; 114  : 
; 115  : 		if( m_lSkip > 0 )

  0001a	8b 46 6c	 mov	 eax, DWORD PTR [esi+108]
  0001d	89 4e 68	 mov	 DWORD PTR [esi+104], ecx
  00020	85 c0		 test	 eax, eax
  00022	7e 0b		 jle	 SHORT $LN3@IsTimeout

; 116  : 		{
; 117  : 			m_lSkip--;

  00024	48		 dec	 eax
  00025	89 46 6c	 mov	 DWORD PTR [esi+108], eax
$LN2@IsTimeout:

; 121  : 	}
; 122  : 	return FALSE;
; 123  : }

  00028	33 c0		 xor	 eax, eax
  0002a	5e		 pop	 esi
  0002b	5d		 pop	 ebp
  0002c	c2 04 00	 ret	 4
$LN3@IsTimeout:

; 118  : 			return FALSE;
; 119  : 		}
; 120  : 		return TRUE;

  0002f	b8 01 00 00 00	 mov	 eax, 1
  00034	5e		 pop	 esi

; 121  : 	}
; 122  : 	return FALSE;
; 123  : }

  00035	5d		 pop	 ebp
  00036	c2 04 00	 ret	 4
?IsTimeout@CEventItem@@QAEHH@Z ENDP			; CEventItem::IsTimeout
_TEXT	ENDS
; Function compile flags: /Ogtp
; File C:\IAGOS\server\v18\Source\Source\_Common\spevent.h
;	COMDAT ??1CEventItem@@UAE@XZ
_TEXT	SEGMENT
??1CEventItem@@UAE@XZ PROC				; CEventItem::~CEventItem, COMDAT
; _this$ = ecx

; 70   : 	virtual	~CEventItem()	{}

  00000	c7 01 00 00 00
	00		 mov	 DWORD PTR [ecx], OFFSET ??_7CEventItem@@6B@
  00006	c3		 ret	 0
??1CEventItem@@UAE@XZ ENDP				; CEventItem::~CEventItem
_TEXT	ENDS
; Function compile flags: /Ogtp
; File C:\IAGOS\server\v18\Source\Source\_Common\spevent.cpp
;	COMDAT ??0CEventItem@@QAE@KHH@Z
_TEXT	SEGMENT
_dwItemId$ = 8						; size = 4
tv377 = 8						; size = 4
_nMax$ = 12						; size = 4
tv378 = 12						; size = 4
_nNum$ = 16						; size = 4
??0CEventItem@@QAE@KHH@Z PROC				; CEventItem::CEventItem, COMDAT
; _this$ = ecx

; 89   : {

  00000	55		 push	 ebp
  00001	8b ec		 mov	 ebp, esp

; 90   : 	m_dwItemId	= dwItemId;

  00003	8b 45 08	 mov	 eax, DWORD PTR _dwItemId$[ebp]
  00006	53		 push	 ebx
  00007	8b d9		 mov	 ebx, ecx
  00009	56		 push	 esi

; 91   : 	m_nMax	= nMax;

  0000a	8b 75 0c	 mov	 esi, DWORD PTR _nMax$[ebp]
  0000d	89 43 70	 mov	 DWORD PTR [ebx+112], eax

; 92   : 	m_nNum	= nNum;

  00010	8b 45 10	 mov	 eax, DWORD PTR _nNum$[ebp]
  00013	c7 03 00 00 00
	00		 mov	 DWORD PTR [ebx], OFFSET ??_7CEventItem@@6B@
  00019	89 73 04	 mov	 DWORD PTR [ebx+4], esi
  0001c	89 43 74	 mov	 DWORD PTR [ebx+116], eax

; 93   : 	m_dwTimeout	= GetTickCount();

  0001f	ff 15 00 00 00
	00		 call	 DWORD PTR __imp__GetTickCount@0
  00025	89 43 68	 mov	 DWORD PTR [ebx+104], eax
  00028	0f 57 d2	 xorps	 xmm2, xmm2

; 94   : 	m_lSkip	= 0;

  0002b	c7 43 6c 00 00
	00 00		 mov	 DWORD PTR [ebx+108], 0
  00032	0f 57 c9	 xorps	 xmm1, xmm1
  00035	b8 10 00 00 00	 mov	 eax, OFFSET ?s_anHour@?1???0CEventItem@@QAE@KHH@Z@4PAHA+16
  0003a	66 0f 1f 44 00
	00		 npad	 6
$LL4@CEventItem:

; 95   : 
; 96   : 	static	int	s_anHour[24]	=
; 97   : 		{	505, 409, 324, 280, 220, 203, 202, 212,
; 98   : 			227, 261, 302, 349, 571, 701, 764, 803,
; 99   : 			790, 789, 754, 849, 936, 940, 919, 720	};
; 100  : 	int nTotal	= 0;
; 101  : 
; 102  : 	for( int i = 0; i < 24; i++ )
; 103  : 		nTotal	+= s_anHour[i];

  00040	0f 10 40 f0	 movups	 xmm0, XMMWORD PTR [eax-16]
  00044	66 0f fe d0	 paddd	 xmm2, xmm0
  00048	0f 10 00	 movups	 xmm0, XMMWORD PTR [eax]
  0004b	83 c0 20	 add	 eax, 32			; 00000020H
  0004e	66 0f fe c8	 paddd	 xmm1, xmm0
  00052	3d 70 00 00 00	 cmp	 eax, OFFSET ?s_anHour@?1???0CEventItem@@QAE@KHH@Z@4PAHA+112
  00057	7c e7		 jl	 SHORT $LL4@CEventItem

; 89   : {

  00059	66 0f fe ca	 paddd	 xmm1, xmm2
  0005d	0f 28 c1	 movaps	 xmm0, xmm1
  00060	66 0f 73 d8 08	 psrldq	 xmm0, 8
  00065	66 0f fe c8	 paddd	 xmm1, xmm0
  00069	0f 10 c1	 movups	 xmm0, xmm1
  0006c	66 0f 73 d8 04	 psrldq	 xmm0, 4
  00071	66 0f fe c8	 paddd	 xmm1, xmm0
  00075	66 0f 6e c6	 movd	 xmm0, esi
  00079	66 0f 7e c8	 movd	 eax, xmm1
  0007d	be 00 00 00 00	 mov	 esi, OFFSET ?s_anHour@?1???0CEventItem@@QAE@KHH@Z@4PAHA
  00082	0f 5b c0	 cvtdq2ps xmm0, xmm0
  00085	57		 push	 edi
  00086	8d 7b 08	 lea	 edi, DWORD PTR [ebx+8]
  00089	66 0f 6e d0	 movd	 xmm2, eax
  0008d	0f 5b d2	 cvtdq2ps xmm2, xmm2
  00090	f3 0f 11 45 08	 movss	 DWORD PTR tv377[ebp], xmm0
  00095	f3 0f 11 55 0c	 movss	 DWORD PTR tv378[ebp], xmm2
  0009a	66 0f 1f 44 00
	00		 npad	 6
$LL7@CEventItem:

; 104  : 	for( int i = 0; i < 24; i++ )
; 105  : 		m_adwInterval[i]	= (DWORD)( (float)MIN( 60 ) / ( nMax * (float)s_anHour[i] / (float)nTotal ) );

  000a0	66 0f 6e 0e	 movd	 xmm1, DWORD PTR [esi]
  000a4	0f 5b c9	 cvtdq2ps xmm1, xmm1
  000a7	f3 0f 59 c8	 mulss	 xmm1, xmm0
  000ab	f3 0f 10 05 00
	00 00 00	 movss	 xmm0, DWORD PTR __real@4a5bba00
  000b3	f3 0f 5e ca	 divss	 xmm1, xmm2
  000b7	f3 0f 5e c1	 divss	 xmm0, xmm1
  000bb	e8 00 00 00 00	 call	 __ftol3
  000c0	f3 0f 10 45 08	 movss	 xmm0, DWORD PTR tv377[ebp]
  000c5	8d 7f 04	 lea	 edi, DWORD PTR [edi+4]
  000c8	f3 0f 10 55 0c	 movss	 xmm2, DWORD PTR tv378[ebp]
  000cd	83 c6 04	 add	 esi, 4
  000d0	89 47 fc	 mov	 DWORD PTR [edi-4], eax
  000d3	81 fe 60 00 00
	00		 cmp	 esi, OFFSET ?s_anHour@?1???0CEventItem@@QAE@KHH@Z@4PAHA+96
  000d9	7c c5		 jl	 SHORT $LL7@CEventItem

; 106  : }

  000db	5f		 pop	 edi
  000dc	5e		 pop	 esi
  000dd	8b c3		 mov	 eax, ebx
  000df	5b		 pop	 ebx
  000e0	5d		 pop	 ebp
  000e1	c2 0c 00	 ret	 12			; 0000000cH
??0CEventItem@@QAE@KHH@Z ENDP				; CEventItem::CEventItem
_TEXT	ENDS
; Function compile flags: /Ogtp
; File C:\IAGOS\server\v18\Source\Source\_Common\spevent.cpp
;	COMDAT ??0CEventItem@@QAE@XZ
_TEXT	SEGMENT
??0CEventItem@@QAE@XZ PROC				; CEventItem::CEventItem, COMDAT
; _this$ = ecx

; 79   : {

  00000	56		 push	 esi
  00001	8b f1		 mov	 esi, ecx

; 80   : 	m_dwItemId	= 0;
; 81   : 	m_nMax	= 0;
; 82   : 	m_nNum	= 0;
; 83   : 	m_dwTimeout	= 0;
; 84   : 	m_lSkip	= 0;
; 85   : 	memset( (void*)m_adwInterval, 0, sizeof(m_adwInterval) );

  00003	6a 60		 push	 96			; 00000060H
  00005	6a 00		 push	 0
  00007	8d 46 08	 lea	 eax, DWORD PTR [esi+8]
  0000a	c7 06 00 00 00
	00		 mov	 DWORD PTR [esi], OFFSET ??_7CEventItem@@6B@
  00010	50		 push	 eax
  00011	c7 46 70 00 00
	00 00		 mov	 DWORD PTR [esi+112], 0
  00018	c7 46 04 00 00
	00 00		 mov	 DWORD PTR [esi+4], 0
  0001f	c7 46 74 00 00
	00 00		 mov	 DWORD PTR [esi+116], 0
  00026	c7 46 68 00 00
	00 00		 mov	 DWORD PTR [esi+104], 0
  0002d	c7 46 6c 00 00
	00 00		 mov	 DWORD PTR [esi+108], 0
  00034	e8 00 00 00 00	 call	 _memset
  00039	83 c4 0c	 add	 esp, 12			; 0000000cH

; 86   : }

  0003c	8b c6		 mov	 eax, esi
  0003e	5e		 pop	 esi
  0003f	c3		 ret	 0
??0CEventItem@@QAE@XZ ENDP				; CEventItem::CEventItem
_TEXT	ENDS
; Function compile flags: /Ogtp
;	COMDAT ??_GCXMasEvent@@UAEPAXI@Z
_TEXT	SEGMENT
___flags$ = 8						; size = 4
??_GCXMasEvent@@UAEPAXI@Z PROC				; CXMasEvent::`scalar deleting destructor', COMDAT
; _this$ = ecx
  00000	55		 push	 ebp
  00001	8b ec		 mov	 ebp, esp
  00003	56		 push	 esi
  00004	8b f1		 mov	 esi, ecx
  00006	e8 00 00 00 00	 call	 ??1CXMasEvent@@UAE@XZ	; CXMasEvent::~CXMasEvent
  0000b	f6 45 08 01	 test	 BYTE PTR ___flags$[ebp], 1
  0000f	74 0b		 je	 SHORT $LN5@scalar
  00011	6a 6c		 push	 108			; 0000006cH
  00013	56		 push	 esi
  00014	e8 00 00 00 00	 call	 ??3@YAXPAXI@Z		; operator delete
  00019	83 c4 08	 add	 esp, 8
$LN5@scalar:
  0001c	8b c6		 mov	 eax, esi
  0001e	5e		 pop	 esi
  0001f	5d		 pop	 ebp
  00020	c2 04 00	 ret	 4
??_GCXMasEvent@@UAEPAXI@Z ENDP				; CXMasEvent::`scalar deleting destructor'
_TEXT	ENDS
; Function compile flags: /Ogtp
; File C:\IAGOS\server\v18\Source\Source\_Common\spevent.cpp
;	COMDAT ?GetInstance@CXMasEvent@@SAPAV1@XZ
_TEXT	SEGMENT
?GetInstance@CXMasEvent@@SAPAV1@XZ PROC			; CXMasEvent::GetInstance, COMDAT

; 74   : 	static	CXMasEvent	sXMasEvent;

  00000	64 a1 00 00 00
	00		 mov	 eax, DWORD PTR fs:__tls_array
  00006	8b 0d 00 00 00
	00		 mov	 ecx, DWORD PTR __tls_index
  0000c	8b 0c 88	 mov	 ecx, DWORD PTR [eax+ecx*4]
  0000f	a1 00 00 00 00	 mov	 eax, DWORD PTR ?$TSS0@?1??GetInstance@CXMasEvent@@SAPAV2@XZ@4HA
  00014	3b 81 00 00 00
	00		 cmp	 eax, DWORD PTR __Init_thread_epoch[ecx]
  0001a	7f 06		 jg	 SHORT $LN8@GetInstanc
$LN5@GetInstanc:

; 75   : 	return	&sXMasEvent;
; 76   : }

  0001c	b8 00 00 00 00	 mov	 eax, OFFSET ?sXMasEvent@?1??GetInstance@CXMasEvent@@SAPAV2@XZ@4V2@A
  00021	c3		 ret	 0
$LN8@GetInstanc:

; 74   : 	static	CXMasEvent	sXMasEvent;

  00022	68 00 00 00 00	 push	 OFFSET ?$TSS0@?1??GetInstance@CXMasEvent@@SAPAV2@XZ@4HA
  00027	e8 00 00 00 00	 call	 __Init_thread_header
  0002c	83 c4 04	 add	 esp, 4
  0002f	83 3d 00 00 00
	00 ff		 cmp	 DWORD PTR ?$TSS0@?1??GetInstance@CXMasEvent@@SAPAV2@XZ@4HA, -1
  00036	75 e4		 jne	 SHORT $LN5@GetInstanc
  00038	b9 00 00 00 00	 mov	 ecx, OFFSET ?sXMasEvent@?1??GetInstance@CXMasEvent@@SAPAV2@XZ@4V2@A
  0003d	e8 00 00 00 00	 call	 ??0CXMasEvent@@QAE@XZ	; CXMasEvent::CXMasEvent
  00042	68 00 00 00 00	 push	 OFFSET ??__FsXMasEvent@?1??GetInstance@CXMasEvent@@SAPAV1@XZ@YAXXZ ; `CXMasEvent::GetInstance'::`2'::`dynamic atexit destructor for 'sXMasEvent''
  00047	e8 00 00 00 00	 call	 _atexit
  0004c	68 00 00 00 00	 push	 OFFSET ?$TSS0@?1??GetInstance@CXMasEvent@@SAPAV2@XZ@4HA
  00051	e8 00 00 00 00	 call	 __Init_thread_footer
  00056	83 c4 08	 add	 esp, 8
  00059	eb c1		 jmp	 SHORT $LN5@GetInstanc
?GetInstance@CXMasEvent@@SAPAV1@XZ ENDP			; CXMasEvent::GetInstance
_TEXT	ENDS
; Function compile flags: /Ogtp
; File C:\IAGOS\server\v18\Source\Source\_Common\spevent.cpp
;	COMDAT ?Skip@CXMasEvent@@QAEXJ@Z
_TEXT	SEGMENT
_lSkip$ = 8						; size = 4
?Skip@CXMasEvent@@QAEXJ@Z PROC				; CXMasEvent::Skip, COMDAT
; _this$ = ecx

; 68   : {

  00000	55		 push	 ebp
  00001	8b ec		 mov	 ebp, esp

; 69   : 	m_lSkip		= lSkip;

  00003	8b 45 08	 mov	 eax, DWORD PTR _lSkip$[ebp]
  00006	89 41 68	 mov	 DWORD PTR [ecx+104], eax

; 70   : }

  00009	5d		 pop	 ebp
  0000a	c2 04 00	 ret	 4
?Skip@CXMasEvent@@QAEXJ@Z ENDP				; CXMasEvent::Skip
_TEXT	ENDS
; Function compile flags: /Ogtp
; File C:\IAGOS\server\v18\Source\Source\_Common\spevent.cpp
;	COMDAT ?IsTimeout@CXMasEvent@@QAEHH@Z
_TEXT	SEGMENT
_nHour$ = 8						; size = 4
?IsTimeout@CXMasEvent@@QAEHH@Z PROC			; CXMasEvent::IsTimeout, COMDAT
; _this$ = ecx

; 29   : {

  00000	55		 push	 ebp
  00001	8b ec		 mov	 ebp, esp
  00003	56		 push	 esi
  00004	8b f1		 mov	 esi, ecx

; 30   : 	DWORD dwTickCount	= GetTickCount();

  00006	ff 15 00 00 00
	00		 call	 DWORD PTR __imp__GetTickCount@0

; 31   : 	if( dwTickCount >= m_dwTimeout )

  0000c	3b 46 64	 cmp	 eax, DWORD PTR [esi+100]
  0000f	72 17		 jb	 SHORT $LN2@IsTimeout

; 32   : 	{
; 33   : 		m_dwTimeout	= dwTickCount + m_adwInterval[nHour];

  00011	8b 55 08	 mov	 edx, DWORD PTR _nHour$[ebp]
  00014	8b 4c 96 04	 mov	 ecx, DWORD PTR [esi+edx*4+4]
  00018	03 c8		 add	 ecx, eax

; 34   : 
; 35   : 		if( m_lSkip > 0 )

  0001a	8b 46 68	 mov	 eax, DWORD PTR [esi+104]
  0001d	89 4e 64	 mov	 DWORD PTR [esi+100], ecx
  00020	85 c0		 test	 eax, eax
  00022	7e 0b		 jle	 SHORT $LN3@IsTimeout

; 36   : 		{
; 37   : 			m_lSkip--;

  00024	48		 dec	 eax
  00025	89 46 68	 mov	 DWORD PTR [esi+104], eax
$LN2@IsTimeout:

; 41   : 	}
; 42   : 	return FALSE;
; 43   : }

  00028	33 c0		 xor	 eax, eax
  0002a	5e		 pop	 esi
  0002b	5d		 pop	 ebp
  0002c	c2 04 00	 ret	 4
$LN3@IsTimeout:

; 38   : 			return FALSE;
; 39   : 		}
; 40   : 		return TRUE;

  0002f	b8 01 00 00 00	 mov	 eax, 1
  00034	5e		 pop	 esi

; 41   : 	}
; 42   : 	return FALSE;
; 43   : }

  00035	5d		 pop	 ebp
  00036	c2 04 00	 ret	 4
?IsTimeout@CXMasEvent@@QAEHH@Z ENDP			; CXMasEvent::IsTimeout
_TEXT	ENDS
; Function compile flags: /Ogtp
; File C:\IAGOS\server\v18\Source\Source\_Common\spevent.cpp
;	COMDAT ?LoadScript@CXMasEvent@@QAEHPBD@Z
_TEXT	SEGMENT
_an$ = -7908						; size = 96
tv279 = -7812						; size = 4
tv278 = -7808						; size = 4
_this$GSCopy$1$ = -7804					; size = 4
_s$ = -7800						; size = 7784
__$ArrayPad$ = -16					; size = 4
__$EHRec$ = -12						; size = 12
_lpFilename$ = 8					; size = 4
?LoadScript@CXMasEvent@@QAEHPBD@Z PROC			; CXMasEvent::LoadScript, COMDAT
; _this$ = ecx

; 46   : {

  00000	55		 push	 ebp
  00001	8b ec		 mov	 ebp, esp
  00003	6a ff		 push	 -1
  00005	68 00 00 00 00	 push	 __ehhandler$?LoadScript@CXMasEvent@@QAEHPBD@Z
  0000a	64 a1 00 00 00
	00		 mov	 eax, DWORD PTR fs:0
  00010	50		 push	 eax
  00011	b8 d8 1e 00 00	 mov	 eax, 7896		; 00001ed8H
  00016	e8 00 00 00 00	 call	 __chkstk
  0001b	a1 00 00 00 00	 mov	 eax, DWORD PTR ___security_cookie
  00020	33 c5		 xor	 eax, ebp
  00022	89 45 f0	 mov	 DWORD PTR __$ArrayPad$[ebp], eax
  00025	53		 push	 ebx
  00026	56		 push	 esi
  00027	57		 push	 edi
  00028	50		 push	 eax
  00029	8d 45 f4	 lea	 eax, DWORD PTR __$EHRec$[ebp]
  0002c	64 a3 00 00 00
	00		 mov	 DWORD PTR fs:0, eax
  00032	89 8d 84 e1 ff
	ff		 mov	 DWORD PTR _this$GSCopy$1$[ebp], ecx
  00038	8b 75 08	 mov	 esi, DWORD PTR _lpFilename$[ebp]

; 47   : 	CScript s;

  0003b	8d 8d 88 e1 ff
	ff		 lea	 ecx, DWORD PTR _s$[ebp]
  00041	6a 00		 push	 0
  00043	e8 00 00 00 00	 call	 ??0CScript@@QAE@H@Z	; CScript::CScript

; 48   : 	if( s.Load( lpFilename ) == FALSE )

  00048	6a 00		 push	 0
  0004a	6a 01		 push	 1
  0004c	56		 push	 esi
  0004d	8d 8d 88 e1 ff
	ff		 lea	 ecx, DWORD PTR _s$[ebp]
  00053	c7 45 fc 00 00
	00 00		 mov	 DWORD PTR __$EHRec$[ebp+8], 0
  0005a	e8 00 00 00 00	 call	 ?Load@CScript@@QAEHPBDHH@Z ; CScript::Load
  0005f	85 c0		 test	 eax, eax
  00061	75 07		 jne	 SHORT $LN8@LoadScript
  00063	33 f6		 xor	 esi, esi
  00065	e9 bc 00 00 00	 jmp	 $LN11@LoadScript
$LN8@LoadScript:

; 49   : 		return FALSE;
; 50   : 	
; 51   : 	int an[24]	= { 0, };

  0006a	6a 60		 push	 96			; 00000060H
  0006c	8d 85 1c e1 ff
	ff		 lea	 eax, DWORD PTR _an$[ebp]
  00072	6a 00		 push	 0
  00074	50		 push	 eax
  00075	e8 00 00 00 00	 call	 _memset
  0007a	83 c4 0c	 add	 esp, 12			; 0000000cH

; 52   : 	int nTotal	= 0;
; 53   : 	
; 54   : 	int nMax	= s.GetNumber();	// drop num a day

  0007d	8d 8d 88 e1 ff
	ff		 lea	 ecx, DWORD PTR _s$[ebp]
  00083	33 ff		 xor	 edi, edi
  00085	57		 push	 edi
  00086	e8 00 00 00 00	 call	 ?GetNumber@CScanner@@QAEHH@Z ; CScanner::GetNumber
  0008b	8b d8		 mov	 ebx, eax
  0008d	33 f6		 xor	 esi, esi
  0008f	90		 npad	 1
$LL4@LoadScript:

; 55   : 
; 56   : 	for( int i = 0; i < 24; i++ )
; 57   : 	{
; 58   : 		an[i]	= s.GetNumber();

  00090	6a 00		 push	 0
  00092	8d 8d 88 e1 ff
	ff		 lea	 ecx, DWORD PTR _s$[ebp]
  00098	e8 00 00 00 00	 call	 ?GetNumber@CScanner@@QAEHH@Z ; CScanner::GetNumber
  0009d	89 84 b5 1c e1
	ff ff		 mov	 DWORD PTR _an$[ebp+esi*4], eax

; 59   : 		nTotal	+= an[i];

  000a4	03 f8		 add	 edi, eax
  000a6	46		 inc	 esi
  000a7	83 fe 18	 cmp	 esi, 24			; 00000018H
  000aa	7c e4		 jl	 SHORT $LL4@LoadScript

; 60   : 	}
; 61   : 	for( int i = 0; i < 24; i++ )

  000ac	66 0f 6e d7	 movd	 xmm2, edi
  000b0	33 f6		 xor	 esi, esi
  000b2	8b bd 84 e1 ff
	ff		 mov	 edi, DWORD PTR _this$GSCopy$1$[ebp]
  000b8	66 0f 6e c3	 movd	 xmm0, ebx
  000bc	83 c7 04	 add	 edi, 4
  000bf	0f 5b c0	 cvtdq2ps xmm0, xmm0
  000c2	0f 5b d2	 cvtdq2ps xmm2, xmm2
  000c5	f3 0f 11 85 80
	e1 ff ff	 movss	 DWORD PTR tv278[ebp], xmm0
  000cd	f3 0f 11 95 7c
	e1 ff ff	 movss	 DWORD PTR tv279[ebp], xmm2
  000d5	66 66 66 0f 1f
	84 00 00 00 00
	00		 npad	 11
$LL7@LoadScript:

; 62   : 		m_adwInterval[i]	= (DWORD)( (float)MIN( 60 ) / ( nMax * (float)an[i] / (float)nTotal ) );

  000e0	66 0f 6e 8c b5
	1c e1 ff ff	 movd	 xmm1, DWORD PTR _an$[ebp+esi*4]
  000e9	0f 5b c9	 cvtdq2ps xmm1, xmm1
  000ec	f3 0f 59 c8	 mulss	 xmm1, xmm0
  000f0	f3 0f 10 05 00
	00 00 00	 movss	 xmm0, DWORD PTR __real@4a5bba00
  000f8	f3 0f 5e ca	 divss	 xmm1, xmm2
  000fc	f3 0f 5e c1	 divss	 xmm0, xmm1
  00100	e8 00 00 00 00	 call	 __ftol3
  00105	f3 0f 10 85 80
	e1 ff ff	 movss	 xmm0, DWORD PTR tv278[ebp]
  0010d	8d 7f 04	 lea	 edi, DWORD PTR [edi+4]
  00110	f3 0f 10 95 7c
	e1 ff ff	 movss	 xmm2, DWORD PTR tv279[ebp]
  00118	46		 inc	 esi
  00119	89 47 fc	 mov	 DWORD PTR [edi-4], eax
  0011c	83 fe 18	 cmp	 esi, 24			; 00000018H
  0011f	7c bf		 jl	 SHORT $LL7@LoadScript

; 63   : 
; 64   : 	return TRUE;

  00121	be 01 00 00 00	 mov	 esi, 1
$LN11@LoadScript:
  00126	8d 8d 88 e1 ff
	ff		 lea	 ecx, DWORD PTR _s$[ebp]
  0012c	e8 00 00 00 00	 call	 ??1CScript@@UAE@XZ	; CScript::~CScript
  00131	8b c6		 mov	 eax, esi

; 65   : }

  00133	8b 4d f4	 mov	 ecx, DWORD PTR __$EHRec$[ebp]
  00136	64 89 0d 00 00
	00 00		 mov	 DWORD PTR fs:0, ecx
  0013d	59		 pop	 ecx
  0013e	5f		 pop	 edi
  0013f	5e		 pop	 esi
  00140	5b		 pop	 ebx
  00141	8b 4d f0	 mov	 ecx, DWORD PTR __$ArrayPad$[ebp]
  00144	33 cd		 xor	 ecx, ebp
  00146	e8 00 00 00 00	 call	 @__security_check_cookie@4
  0014b	8b e5		 mov	 esp, ebp
  0014d	5d		 pop	 ebp
  0014e	c2 04 00	 ret	 4
_TEXT	ENDS
;	COMDAT text$x
text$x	SEGMENT
__unwindfunclet$?LoadScript@CXMasEvent@@QAEHPBD@Z$0:
  00000	8d 8d 88 e1 ff
	ff		 lea	 ecx, DWORD PTR _s$[ebp]
  00006	e9 00 00 00 00	 jmp	 ??1CScript@@UAE@XZ	; CScript::~CScript
  0000b	cc		 int	 3
  0000c	cc		 int	 3
  0000d	cc		 int	 3
  0000e	cc		 int	 3
  0000f	cc		 int	 3
__ehhandler$?LoadScript@CXMasEvent@@QAEHPBD@Z:
  00010	90		 npad	 1
  00011	90		 npad	 1
  00012	8b 54 24 08	 mov	 edx, DWORD PTR [esp+8]
  00016	8d 42 0c	 lea	 eax, DWORD PTR [edx+12]
  00019	8b 8a 18 e1 ff
	ff		 mov	 ecx, DWORD PTR [edx-7912]
  0001f	33 c8		 xor	 ecx, eax
  00021	e8 00 00 00 00	 call	 @__security_check_cookie@4
  00026	8b 4a fc	 mov	 ecx, DWORD PTR [edx-4]
  00029	33 c8		 xor	 ecx, eax
  0002b	e8 00 00 00 00	 call	 @__security_check_cookie@4
  00030	b8 00 00 00 00	 mov	 eax, OFFSET __ehfuncinfo$?LoadScript@CXMasEvent@@QAEHPBD@Z
  00035	e9 00 00 00 00	 jmp	 ___CxxFrameHandler3
text$x	ENDS
?LoadScript@CXMasEvent@@QAEHPBD@Z ENDP			; CXMasEvent::LoadScript
; Function compile flags: /Ogtp
; File C:\IAGOS\server\v18\Source\Source\_Common\spevent.cpp
;	COMDAT ??1CXMasEvent@@UAE@XZ
_TEXT	SEGMENT
??1CXMasEvent@@UAE@XZ PROC				; CXMasEvent::~CXMasEvent, COMDAT
; _this$ = ecx

; 25   : 
; 26   : }

  00000	c7 01 00 00 00
	00		 mov	 DWORD PTR [ecx], OFFSET ??_7CSPEvent@@6B@
  00006	c3		 ret	 0
??1CXMasEvent@@UAE@XZ ENDP				; CXMasEvent::~CXMasEvent
_TEXT	ENDS
; Function compile flags: /Ogtp
; File C:\IAGOS\server\v18\Source\Source\_Common\spevent.cpp
;	COMDAT ??0CXMasEvent@@QAE@XZ
_TEXT	SEGMENT
_this$ = -4						; size = 4
??0CXMasEvent@@QAE@XZ PROC				; CXMasEvent::CXMasEvent, COMDAT
; _this$ = ecx

; 17   : {

  00000	55		 push	 ebp
  00001	8b ec		 mov	 ebp, esp
  00003	51		 push	 ecx
  00004	56		 push	 esi
  00005	8b f1		 mov	 esi, ecx
  00007	89 75 fc	 mov	 DWORD PTR _this$[ebp], esi
  0000a	c7 06 00 00 00
	00		 mov	 DWORD PTR [esi], OFFSET ??_7CXMasEvent@@6B@

; 18   : 	m_dwTimeout	= GetTickCount();

  00010	ff 15 00 00 00
	00		 call	 DWORD PTR __imp__GetTickCount@0

; 19   : 	memset( (void*)m_adwInterval, 0, sizeof(DWORD) * 24 );

  00016	6a 60		 push	 96			; 00000060H
  00018	89 46 64	 mov	 DWORD PTR [esi+100], eax
  0001b	8d 46 04	 lea	 eax, DWORD PTR [esi+4]
  0001e	6a 00		 push	 0
  00020	50		 push	 eax
  00021	e8 00 00 00 00	 call	 _memset
  00026	83 c4 0c	 add	 esp, 12			; 0000000cH

; 20   : 	m_lSkip		= 0;

  00029	c7 46 68 00 00
	00 00		 mov	 DWORD PTR [esi+104], 0

; 21   : }

  00030	8b c6		 mov	 eax, esi
  00032	5e		 pop	 esi
  00033	8b e5		 mov	 esp, ebp
  00035	5d		 pop	 ebp
  00036	c3		 ret	 0
??0CXMasEvent@@QAE@XZ ENDP				; CXMasEvent::CXMasEvent
_TEXT	ENDS
; Function compile flags: /Ogtp
;	COMDAT ??_GCSPEvent@@UAEPAXI@Z
_TEXT	SEGMENT
___flags$ = 8						; size = 4
??_GCSPEvent@@UAEPAXI@Z PROC				; CSPEvent::`scalar deleting destructor', COMDAT
; _this$ = ecx
  00000	55		 push	 ebp
  00001	8b ec		 mov	 ebp, esp
  00003	f6 45 08 01	 test	 BYTE PTR ___flags$[ebp], 1
  00007	56		 push	 esi
  00008	8b f1		 mov	 esi, ecx
  0000a	c7 06 00 00 00
	00		 mov	 DWORD PTR [esi], OFFSET ??_7CSPEvent@@6B@
  00010	74 0b		 je	 SHORT $LN5@scalar
  00012	6a 04		 push	 4
  00014	56		 push	 esi
  00015	e8 00 00 00 00	 call	 ??3@YAXPAXI@Z		; operator delete
  0001a	83 c4 08	 add	 esp, 8
$LN5@scalar:
  0001d	8b c6		 mov	 eax, esi
  0001f	5e		 pop	 esi
  00020	5d		 pop	 ebp
  00021	c2 04 00	 ret	 4
??_GCSPEvent@@UAEPAXI@Z ENDP				; CSPEvent::`scalar deleting destructor'
_TEXT	ENDS
; Function compile flags: /Ogtp
; File C:\IAGOS\server\v18\Source\Source\_Common\spevent.h
;	COMDAT ??1CSPEvent@@UAE@XZ
_TEXT	SEGMENT
??1CSPEvent@@UAE@XZ PROC				; CSPEvent::~CSPEvent, COMDAT
; _this$ = ecx

; 10   : 	virtual	~CSPEvent()	{}

  00000	c7 01 00 00 00
	00		 mov	 DWORD PTR [ecx], OFFSET ??_7CSPEvent@@6B@
  00006	c3		 ret	 0
??1CSPEvent@@UAE@XZ ENDP				; CSPEvent::~CSPEvent
_TEXT	ENDS
; Function compile flags: /Ogtp
; File C:\Program Files\Microsoft Visual Studio\2022\Professional\VC\Tools\MSVC\14.44.35207\include\xmemory
;	COMDAT ??$_Allocate_manually_vector_aligned@U_Default_allocate_traits@std@@@std@@YAPAXI@Z
_TEXT	SEGMENT
__Bytes$ = 8						; size = 4
??$_Allocate_manually_vector_aligned@U_Default_allocate_traits@std@@@std@@YAPAXI@Z PROC ; std::_Allocate_manually_vector_aligned<std::_Default_allocate_traits>, COMDAT

; 182  : __declspec(allocator) void* _Allocate_manually_vector_aligned(const size_t _Bytes) {

  00000	55		 push	 ebp
  00001	8b ec		 mov	 ebp, esp

; 183  :     // allocate _Bytes manually aligned to at least _Big_allocation_alignment
; 184  :     const size_t _Block_size = _Non_user_size + _Bytes;

  00003	8b 45 08	 mov	 eax, DWORD PTR __Bytes$[ebp]
  00006	8d 48 23	 lea	 ecx, DWORD PTR [eax+35]

; 185  :     if (_Block_size <= _Bytes) {

  00009	3b c8		 cmp	 ecx, eax
  0000b	0f 86 00 00 00
	00		 jbe	 ?_Throw_bad_array_new_length@std@@YAXXZ ; std::_Throw_bad_array_new_length

; 136  :         return ::operator new(_Bytes);

  00011	51		 push	 ecx
  00012	e8 00 00 00 00	 call	 ??2@YAPAXI@Z		; operator new

; 186  :         _Throw_bad_array_new_length(); // add overflow
; 187  :     }
; 188  : 
; 189  :     const uintptr_t _Ptr_container = reinterpret_cast<uintptr_t>(_Traits::_Allocate(_Block_size));

  00017	8b c8		 mov	 ecx, eax

; 136  :         return ::operator new(_Bytes);

  00019	83 c4 04	 add	 esp, 4

; 190  :     _STL_VERIFY(_Ptr_container != 0, "invalid argument"); // validate even in release since we're doing p[-1]

  0001c	85 c9		 test	 ecx, ecx
  0001e	74 0b		 je	 SHORT $LN9@Allocate_m

; 191  :     void* const _Ptr = reinterpret_cast<void*>((_Ptr_container + _Non_user_size) & ~(_Big_allocation_alignment - 1));

  00020	8d 41 23	 lea	 eax, DWORD PTR [ecx+35]
  00023	83 e0 e0	 and	 eax, -32		; ffffffe0H

; 192  :     static_cast<uintptr_t*>(_Ptr)[-1] = _Ptr_container;

  00026	89 48 fc	 mov	 DWORD PTR [eax-4], ecx

; 193  : 
; 194  : #ifdef _DEBUG
; 195  :     static_cast<uintptr_t*>(_Ptr)[-2] = _Big_allocation_sentinel;
; 196  : #endif // defined(_DEBUG)
; 197  :     return _Ptr;
; 198  : }

  00029	5d		 pop	 ebp
  0002a	c3		 ret	 0
$LN9@Allocate_m:

; 190  :     _STL_VERIFY(_Ptr_container != 0, "invalid argument"); // validate even in release since we're doing p[-1]

  0002b	6a 00		 push	 0
  0002d	6a 00		 push	 0
  0002f	6a 00		 push	 0
  00031	6a 00		 push	 0
  00033	6a 00		 push	 0
  00035	e8 00 00 00 00	 call	 __invoke_watson
$LN7@Allocate_m:
  0003a	cc		 int	 3
??$_Allocate_manually_vector_aligned@U_Default_allocate_traits@std@@@std@@YAPAXI@Z ENDP ; std::_Allocate_manually_vector_aligned<std::_Default_allocate_traits>
_TEXT	ENDS
; Function compile flags: /Ogtp
; File C:\Program Files\Microsoft Visual Studio\2022\Professional\VC\Tools\MSVC\14.44.35207\include\xtree
;	COMDAT ?_Throw_tree_length_error@std@@YAXXZ
_TEXT	SEGMENT
?_Throw_tree_length_error@std@@YAXXZ PROC		; std::_Throw_tree_length_error, COMDAT

; 417  :     _Xlength_error("map/set too long");

  00000	68 00 00 00 00	 push	 OFFSET ??_C@_0BB@GCADKGJO@map?1set?5too?5long@
  00005	e8 00 00 00 00	 call	 ?_Xlength_error@std@@YAXPBD@Z ; std::_Xlength_error
$LN3@Throw_tree:
  0000a	cc		 int	 3
?_Throw_tree_length_error@std@@YAXXZ ENDP		; std::_Throw_tree_length_error
_TEXT	ENDS
; Function compile flags: /Ogtp
; File C:\Program Files\Microsoft Visual Studio\2022\Professional\VC\Tools\MSVC\14.44.35207\include\xmemory
;	COMDAT ?_Throw_bad_array_new_length@std@@YAXXZ
_TEXT	SEGMENT
$T1 = -12						; size = 12
?_Throw_bad_array_new_length@std@@YAXXZ PROC		; std::_Throw_bad_array_new_length, COMDAT

; 107  : [[noreturn]] inline void _Throw_bad_array_new_length() {

  00000	55		 push	 ebp
  00001	8b ec		 mov	 ebp, esp
  00003	83 ec 0c	 sub	 esp, 12			; 0000000cH

; 108  :     _THROW(bad_array_new_length{});

  00006	8d 4d f4	 lea	 ecx, DWORD PTR $T1[ebp]
  00009	e8 00 00 00 00	 call	 ??0bad_array_new_length@std@@QAE@XZ ; std::bad_array_new_length::bad_array_new_length
  0000e	68 00 00 00 00	 push	 OFFSET __TI3?AVbad_array_new_length@std@@
  00013	8d 45 f4	 lea	 eax, DWORD PTR $T1[ebp]
  00016	50		 push	 eax
  00017	e8 00 00 00 00	 call	 __CxxThrowException@8
$LN3@Throw_bad_:
  0001c	cc		 int	 3
?_Throw_bad_array_new_length@std@@YAXXZ ENDP		; std::_Throw_bad_array_new_length
_TEXT	ENDS
; Function compile flags: /Ogtp
; File C:\Program Files\Microsoft Visual Studio\2022\Professional\VC\Tools\MSVC\14.44.35207\include\vcruntime_exception.h
;	COMDAT ??_Gbad_array_new_length@std@@UAEPAXI@Z
_TEXT	SEGMENT
___flags$ = 8						; size = 4
??_Gbad_array_new_length@std@@UAEPAXI@Z PROC		; std::bad_array_new_length::`scalar deleting destructor', COMDAT
; _this$ = ecx
  00000	55		 push	 ebp
  00001	8b ec		 mov	 ebp, esp

; 90   :     {

  00003	56		 push	 esi
  00004	8b f1		 mov	 esi, ecx

; 91   :         __std_exception_destroy(&_Data);

  00006	8d 46 04	 lea	 eax, DWORD PTR [esi+4]
  00009	c7 06 00 00 00
	00		 mov	 DWORD PTR [esi], OFFSET ??_7exception@std@@6B@
  0000f	50		 push	 eax
  00010	e8 00 00 00 00	 call	 ___std_exception_destroy
  00015	83 c4 04	 add	 esp, 4
  00018	f6 45 08 01	 test	 BYTE PTR ___flags$[ebp], 1
  0001c	74 0b		 je	 SHORT $LN18@scalar
  0001e	6a 0c		 push	 12			; 0000000cH
  00020	56		 push	 esi
  00021	e8 00 00 00 00	 call	 ??3@YAXPAXI@Z		; operator delete
  00026	83 c4 08	 add	 esp, 8
$LN18@scalar:
  00029	8b c6		 mov	 eax, esi
  0002b	5e		 pop	 esi
  0002c	5d		 pop	 ebp
  0002d	c2 04 00	 ret	 4
??_Gbad_array_new_length@std@@UAEPAXI@Z ENDP		; std::bad_array_new_length::`scalar deleting destructor'
_TEXT	ENDS
; Function compile flags: /Ogtp
; File C:\Program Files\Microsoft Visual Studio\2022\Professional\VC\Tools\MSVC\14.44.35207\include\vcruntime_exception.h
;	COMDAT ??0bad_array_new_length@std@@QAE@ABV01@@Z
_TEXT	SEGMENT
___that$ = 8						; size = 4
??0bad_array_new_length@std@@QAE@ABV01@@Z PROC		; std::bad_array_new_length::bad_array_new_length, COMDAT
; _this$ = ecx
  00000	55		 push	 ebp
  00001	8b ec		 mov	 ebp, esp

; 73   :     {

  00003	56		 push	 esi
  00004	8b f1		 mov	 esi, ecx
  00006	0f 57 c0	 xorps	 xmm0, xmm0

; 72   :         : _Data()

  00009	8d 46 04	 lea	 eax, DWORD PTR [esi+4]

; 74   :         __std_exception_copy(&_Other._Data, &_Data);

  0000c	50		 push	 eax
  0000d	c7 06 00 00 00
	00		 mov	 DWORD PTR [esi], OFFSET ??_7exception@std@@6B@
  00013	66 0f d6 00	 movq	 QWORD PTR [eax], xmm0
  00017	8b 45 08	 mov	 eax, DWORD PTR ___that$[ebp]
  0001a	83 c0 04	 add	 eax, 4
  0001d	50		 push	 eax
  0001e	e8 00 00 00 00	 call	 ___std_exception_copy
  00023	83 c4 08	 add	 esp, 8
  00026	c7 06 00 00 00
	00		 mov	 DWORD PTR [esi], OFFSET ??_7bad_array_new_length@std@@6B@
  0002c	8b c6		 mov	 eax, esi
  0002e	5e		 pop	 esi
  0002f	5d		 pop	 ebp
  00030	c2 04 00	 ret	 4
??0bad_array_new_length@std@@QAE@ABV01@@Z ENDP		; std::bad_array_new_length::bad_array_new_length
_TEXT	ENDS
; Function compile flags: /Ogtp
; File C:\Program Files\Microsoft Visual Studio\2022\Professional\VC\Tools\MSVC\14.44.35207\include\vcruntime_exception.h
;	COMDAT ??1bad_array_new_length@std@@UAE@XZ
_TEXT	SEGMENT
??1bad_array_new_length@std@@UAE@XZ PROC		; std::bad_array_new_length::~bad_array_new_length, COMDAT
; _this$ = ecx

; 91   :         __std_exception_destroy(&_Data);

  00000	8d 41 04	 lea	 eax, DWORD PTR [ecx+4]
  00003	c7 01 00 00 00
	00		 mov	 DWORD PTR [ecx], OFFSET ??_7exception@std@@6B@
  00009	50		 push	 eax
  0000a	e8 00 00 00 00	 call	 ___std_exception_destroy
  0000f	59		 pop	 ecx
  00010	c3		 ret	 0
??1bad_array_new_length@std@@UAE@XZ ENDP		; std::bad_array_new_length::~bad_array_new_length
_TEXT	ENDS
; Function compile flags: /Ogtp
; File C:\Program Files\Microsoft Visual Studio\2022\Professional\VC\Tools\MSVC\14.44.35207\include\vcruntime_exception.h
;	COMDAT ??0bad_array_new_length@std@@QAE@XZ
_TEXT	SEGMENT
??0bad_array_new_length@std@@QAE@XZ PROC		; std::bad_array_new_length::bad_array_new_length, COMDAT
; _this$ = ecx

; 144  :     {

  00000	0f 57 c0	 xorps	 xmm0, xmm0

; 145  :     }

  00003	8b c1		 mov	 eax, ecx

; 66   :         : _Data()

  00005	66 0f d6 41 04	 movq	 QWORD PTR [ecx+4], xmm0

; 67   :     {
; 68   :         _Data._What = _Message;

  0000a	c7 41 04 00 00
	00 00		 mov	 DWORD PTR [ecx+4], OFFSET ??_C@_0BF@KINCDENJ@bad?5array?5new?5length@

; 144  :     {

  00011	c7 01 00 00 00
	00		 mov	 DWORD PTR [ecx], OFFSET ??_7bad_array_new_length@std@@6B@

; 145  :     }

  00017	c3		 ret	 0
??0bad_array_new_length@std@@QAE@XZ ENDP		; std::bad_array_new_length::bad_array_new_length
_TEXT	ENDS
; Function compile flags: /Ogtp
; File C:\Program Files\Microsoft Visual Studio\2022\Professional\VC\Tools\MSVC\14.44.35207\include\vcruntime_exception.h
;	COMDAT ??_Gbad_alloc@std@@UAEPAXI@Z
_TEXT	SEGMENT
___flags$ = 8						; size = 4
??_Gbad_alloc@std@@UAEPAXI@Z PROC			; std::bad_alloc::`scalar deleting destructor', COMDAT
; _this$ = ecx
  00000	55		 push	 ebp
  00001	8b ec		 mov	 ebp, esp

; 90   :     {

  00003	56		 push	 esi
  00004	8b f1		 mov	 esi, ecx

; 91   :         __std_exception_destroy(&_Data);

  00006	8d 46 04	 lea	 eax, DWORD PTR [esi+4]
  00009	c7 06 00 00 00
	00		 mov	 DWORD PTR [esi], OFFSET ??_7exception@std@@6B@
  0000f	50		 push	 eax
  00010	e8 00 00 00 00	 call	 ___std_exception_destroy
  00015	83 c4 04	 add	 esp, 4
  00018	f6 45 08 01	 test	 BYTE PTR ___flags$[ebp], 1
  0001c	74 0b		 je	 SHORT $LN13@scalar
  0001e	6a 0c		 push	 12			; 0000000cH
  00020	56		 push	 esi
  00021	e8 00 00 00 00	 call	 ??3@YAXPAXI@Z		; operator delete
  00026	83 c4 08	 add	 esp, 8
$LN13@scalar:
  00029	8b c6		 mov	 eax, esi
  0002b	5e		 pop	 esi
  0002c	5d		 pop	 ebp
  0002d	c2 04 00	 ret	 4
??_Gbad_alloc@std@@UAEPAXI@Z ENDP			; std::bad_alloc::`scalar deleting destructor'
_TEXT	ENDS
; Function compile flags: /Ogtp
; File C:\Program Files\Microsoft Visual Studio\2022\Professional\VC\Tools\MSVC\14.44.35207\include\vcruntime_exception.h
;	COMDAT ??0bad_alloc@std@@QAE@ABV01@@Z
_TEXT	SEGMENT
___that$ = 8						; size = 4
??0bad_alloc@std@@QAE@ABV01@@Z PROC			; std::bad_alloc::bad_alloc, COMDAT
; _this$ = ecx
  00000	55		 push	 ebp
  00001	8b ec		 mov	 ebp, esp

; 73   :     {

  00003	56		 push	 esi
  00004	8b f1		 mov	 esi, ecx
  00006	0f 57 c0	 xorps	 xmm0, xmm0

; 72   :         : _Data()

  00009	8d 46 04	 lea	 eax, DWORD PTR [esi+4]

; 74   :         __std_exception_copy(&_Other._Data, &_Data);

  0000c	50		 push	 eax
  0000d	c7 06 00 00 00
	00		 mov	 DWORD PTR [esi], OFFSET ??_7exception@std@@6B@
  00013	66 0f d6 00	 movq	 QWORD PTR [eax], xmm0
  00017	8b 45 08	 mov	 eax, DWORD PTR ___that$[ebp]
  0001a	83 c0 04	 add	 eax, 4
  0001d	50		 push	 eax
  0001e	e8 00 00 00 00	 call	 ___std_exception_copy
  00023	83 c4 08	 add	 esp, 8
  00026	c7 06 00 00 00
	00		 mov	 DWORD PTR [esi], OFFSET ??_7bad_alloc@std@@6B@
  0002c	8b c6		 mov	 eax, esi
  0002e	5e		 pop	 esi
  0002f	5d		 pop	 ebp
  00030	c2 04 00	 ret	 4
??0bad_alloc@std@@QAE@ABV01@@Z ENDP			; std::bad_alloc::bad_alloc
_TEXT	ENDS
; Function compile flags: /Ogtp
; File C:\Program Files\Microsoft Visual Studio\2022\Professional\VC\Tools\MSVC\14.44.35207\include\vcruntime_exception.h
;	COMDAT ??_Gexception@std@@UAEPAXI@Z
_TEXT	SEGMENT
___flags$ = 8						; size = 4
??_Gexception@std@@UAEPAXI@Z PROC			; std::exception::`scalar deleting destructor', COMDAT
; _this$ = ecx
  00000	55		 push	 ebp
  00001	8b ec		 mov	 ebp, esp

; 90   :     {

  00003	56		 push	 esi
  00004	8b f1		 mov	 esi, ecx

; 91   :         __std_exception_destroy(&_Data);

  00006	8d 46 04	 lea	 eax, DWORD PTR [esi+4]
  00009	c7 06 00 00 00
	00		 mov	 DWORD PTR [esi], OFFSET ??_7exception@std@@6B@
  0000f	50		 push	 eax
  00010	e8 00 00 00 00	 call	 ___std_exception_destroy
  00015	83 c4 04	 add	 esp, 4
  00018	f6 45 08 01	 test	 BYTE PTR ___flags$[ebp], 1
  0001c	74 0b		 je	 SHORT $LN8@scalar
  0001e	6a 0c		 push	 12			; 0000000cH
  00020	56		 push	 esi
  00021	e8 00 00 00 00	 call	 ??3@YAXPAXI@Z		; operator delete
  00026	83 c4 08	 add	 esp, 8
$LN8@scalar:
  00029	8b c6		 mov	 eax, esi
  0002b	5e		 pop	 esi
  0002c	5d		 pop	 ebp
  0002d	c2 04 00	 ret	 4
??_Gexception@std@@UAEPAXI@Z ENDP			; std::exception::`scalar deleting destructor'
_TEXT	ENDS
; Function compile flags: /Ogtp
; File C:\Program Files\Microsoft Visual Studio\2022\Professional\VC\Tools\MSVC\14.44.35207\include\vcruntime_exception.h
;	COMDAT ?what@exception@std@@UBEPBDXZ
_TEXT	SEGMENT
?what@exception@std@@UBEPBDXZ PROC			; std::exception::what, COMDAT
; _this$ = ecx

; 96   :         return _Data._What ? _Data._What : "Unknown exception";

  00000	8b 49 04	 mov	 ecx, DWORD PTR [ecx+4]
  00003	b8 00 00 00 00	 mov	 eax, OFFSET ??_C@_0BC@EOODALEL@Unknown?5exception@
  00008	85 c9		 test	 ecx, ecx
  0000a	0f 45 c1	 cmovne	 eax, ecx

; 97   :     }

  0000d	c3		 ret	 0
?what@exception@std@@UBEPBDXZ ENDP			; std::exception::what
_TEXT	ENDS
; Function compile flags: /Ogtp
; File C:\Program Files\Microsoft Visual Studio\2022\Professional\VC\Tools\MSVC\14.44.35207\include\vcruntime_exception.h
;	COMDAT ??1exception@std@@UAE@XZ
_TEXT	SEGMENT
??1exception@std@@UAE@XZ PROC				; std::exception::~exception, COMDAT
; _this$ = ecx

; 91   :         __std_exception_destroy(&_Data);

  00000	8d 41 04	 lea	 eax, DWORD PTR [ecx+4]
  00003	c7 01 00 00 00
	00		 mov	 DWORD PTR [ecx], OFFSET ??_7exception@std@@6B@
  00009	50		 push	 eax
  0000a	e8 00 00 00 00	 call	 ___std_exception_destroy
  0000f	59		 pop	 ecx

; 92   :     }

  00010	c3		 ret	 0
??1exception@std@@UAE@XZ ENDP				; std::exception::~exception
_TEXT	ENDS
; Function compile flags: /Ogtp
; File C:\Program Files\Microsoft Visual Studio\2022\Professional\VC\Tools\MSVC\14.44.35207\include\vcruntime_exception.h
;	COMDAT ??0exception@std@@QAE@ABV01@@Z
_TEXT	SEGMENT
__Other$ = 8						; size = 4
??0exception@std@@QAE@ABV01@@Z PROC			; std::exception::exception, COMDAT
; _this$ = ecx

; 73   :     {

  00000	55		 push	 ebp
  00001	8b ec		 mov	 ebp, esp
  00003	56		 push	 esi
  00004	8b f1		 mov	 esi, ecx
  00006	0f 57 c0	 xorps	 xmm0, xmm0
  00009	8d 46 04	 lea	 eax, DWORD PTR [esi+4]

; 74   :         __std_exception_copy(&_Other._Data, &_Data);

  0000c	50		 push	 eax
  0000d	c7 06 00 00 00
	00		 mov	 DWORD PTR [esi], OFFSET ??_7exception@std@@6B@
  00013	66 0f d6 00	 movq	 QWORD PTR [eax], xmm0
  00017	8b 45 08	 mov	 eax, DWORD PTR __Other$[ebp]
  0001a	83 c0 04	 add	 eax, 4
  0001d	50		 push	 eax
  0001e	e8 00 00 00 00	 call	 ___std_exception_copy
  00023	83 c4 08	 add	 esp, 8

; 75   :     }

  00026	8b c6		 mov	 eax, esi
  00028	5e		 pop	 esi
  00029	5d		 pop	 ebp
  0002a	c2 04 00	 ret	 4
??0exception@std@@QAE@ABV01@@Z ENDP			; std::exception::exception
_TEXT	ENDS
; Function compile flags: /Ogtp
; File C:\Program Files\Microsoft Visual Studio\2022\Professional\VC\Tools\MSVC\14.44.35207\atlmfc\include\cstringt.h
; File C:\Program Files\Microsoft Visual Studio\2022\Professional\VC\Tools\MSVC\14.44.35207\atlmfc\include\afxstr.h
; File C:\Program Files\Microsoft Visual Studio\2022\Professional\VC\Tools\MSVC\14.44.35207\atlmfc\include\cstringt.h
; File C:\Program Files\Microsoft Visual Studio\2022\Professional\VC\Tools\MSVC\14.44.35207\atlmfc\include\afxstr.h
; File C:\Program Files\Microsoft Visual Studio\2022\Professional\VC\Tools\MSVC\14.44.35207\atlmfc\include\cstringt.h
; File C:\Program Files\Microsoft Visual Studio\2022\Professional\VC\Tools\MSVC\14.44.35207\atlmfc\include\atlcore.h
; File C:\Program Files\Microsoft Visual Studio\2022\Professional\VC\Tools\MSVC\14.44.35207\atlmfc\include\cstringt.h
; File C:\Program Files\Microsoft Visual Studio\2022\Professional\VC\Tools\MSVC\14.44.35207\atlmfc\include\atlsimpstr.h
; File C:\Program Files\Microsoft Visual Studio\2022\Professional\VC\Tools\MSVC\14.44.35207\atlmfc\include\cstringt.h
; File C:\Program Files\Microsoft Visual Studio\2022\Professional\VC\Tools\MSVC\14.44.35207\atlmfc\include\atlsimpstr.h
; File C:\Program Files\Microsoft Visual Studio\2022\Professional\VC\Tools\MSVC\14.44.35207\atlmfc\include\cstringt.h
; File C:\Program Files\Microsoft Visual Studio\2022\Professional\VC\Tools\MSVC\14.44.35207\atlmfc\include\atlsimpstr.h
; File C:\Program Files\Microsoft Visual Studio\2022\Professional\VC\Tools\MSVC\14.44.35207\atlmfc\include\cstringt.h
; File C:\Program Files\Microsoft Visual Studio\2022\Professional\VC\Tools\MSVC\14.44.35207\atlmfc\include\atlsimpstr.h
; File C:\Program Files\Microsoft Visual Studio\2022\Professional\VC\Tools\MSVC\14.44.35207\atlmfc\include\cstringt.h
;	COMDAT ?LoadStringA@?$CStringT@DV?$StrTraitMFC@DV?$ChTraitsCRT@D@ATL@@@@@ATL@@QAEHI@Z
_TEXT	SEGMENT
_this$1$ = -4						; size = 4
_nID$ = 8						; size = 4
_hResource$1$ = 8					; size = 4
?LoadStringA@?$CStringT@DV?$StrTraitMFC@DV?$ChTraitsCRT@D@ATL@@@@@ATL@@QAEHI@Z PROC ; ATL::CStringT<char,StrTraitMFC<char,ATL::ChTraitsCRT<char> > >::LoadStringA, COMDAT
; _this$ = ecx

; 2340 : 	{

  00000	55		 push	 ebp
  00001	8b ec		 mov	 ebp, esp
  00003	51		 push	 ecx
  00004	53		 push	 ebx
  00005	57		 push	 edi
; File C:\Program Files\Microsoft Visual Studio\2022\Professional\VC\Tools\MSVC\14.44.35207\atlmfc\include\afxstr.h

; 51   : 		return( AfxFindStringResourceHandle( nID ) );

  00006	8b 7d 08	 mov	 edi, DWORD PTR _nID$[ebp]
  00009	57		 push	 edi
; File C:\Program Files\Microsoft Visual Studio\2022\Professional\VC\Tools\MSVC\14.44.35207\atlmfc\include\cstringt.h

; 2340 : 	{

  0000a	89 4d fc	 mov	 DWORD PTR _this$1$[ebp], ecx
; File C:\Program Files\Microsoft Visual Studio\2022\Professional\VC\Tools\MSVC\14.44.35207\atlmfc\include\afxstr.h

; 51   : 		return( AfxFindStringResourceHandle( nID ) );

  0000d	e8 00 00 00 00	 call	 ?AfxFindStringResourceHandle@@YGPAUHINSTANCE__@@I@Z ; AfxFindStringResourceHandle
; File C:\Program Files\Microsoft Visual Studio\2022\Professional\VC\Tools\MSVC\14.44.35207\atlmfc\include\cstringt.h

; 2341 : 		HINSTANCE hInstance = StringTraits::FindStringResourceInstance( nID );

  00012	8b d8		 mov	 ebx, eax

; 2342 : 		if( hInstance == NULL )

  00014	85 db		 test	 ebx, ebx
  00016	75 08		 jne	 SHORT $LN2@LoadString

; 2348 : 	}

  00018	5f		 pop	 edi
  00019	5b		 pop	 ebx
  0001a	8b e5		 mov	 esp, ebp
  0001c	5d		 pop	 ebp
  0001d	c2 04 00	 ret	 4
$LN2@LoadString:
; File C:\Program Files\Microsoft Visual Studio\2022\Professional\VC\Tools\MSVC\14.44.35207\atlmfc\include\atlcore.h

; 380  : 	hResource = ::FindResourceW(hInstance, MAKEINTRESOURCEW( (((id>>4)+1) & static_cast<WORD>(~0)) ), (LPWSTR) RT_STRING);

  00020	8b c7		 mov	 eax, edi
  00022	c1 e8 04	 shr	 eax, 4
  00025	56		 push	 esi
  00026	40		 inc	 eax
  00027	6a 06		 push	 6
  00029	0f b7 c0	 movzx	 eax, ax
  0002c	50		 push	 eax
  0002d	53		 push	 ebx
  0002e	ff 15 00 00 00
	00		 call	 DWORD PTR __imp__FindResourceW@12
  00034	89 45 08	 mov	 DWORD PTR _hResource$1$[ebp], eax

; 381  : 	if( hResource == NULL )

  00037	85 c0		 test	 eax, eax
  00039	0f 84 cc 00 00
	00		 je	 $LN51@LoadString

; 338  : 	hGlobal = ::LoadResource( hInstance, hResource );

  0003f	50		 push	 eax
  00040	53		 push	 ebx
  00041	ff 15 00 00 00
	00		 call	 DWORD PTR __imp__LoadResource@8

; 339  : 	if( hGlobal == NULL )

  00047	85 c0		 test	 eax, eax
  00049	75 04		 jne	 SHORT $LN15@LoadString

; 340  : 	{
; 341  : 		return( NULL );

  0004b	33 f6		 xor	 esi, esi
  0004d	eb 43		 jmp	 SHORT $LN18@LoadString
$LN15@LoadString:

; 342  : 	}
; 343  : 
; 344  : 	pImage = (const ATLSTRINGRESOURCEIMAGE*)::LockResource( hGlobal );

  0004f	50		 push	 eax
  00050	ff 15 00 00 00
	00		 call	 DWORD PTR __imp__LockResource@4
  00056	8b f0		 mov	 esi, eax

; 345  : 	if( pImage == NULL )

  00058	85 f6		 test	 esi, esi
  0005a	74 36		 je	 SHORT $LN18@LoadString
$LN16@LoadString:

; 346  : 	{
; 347  : 		return( NULL );
; 348  : 	}
; 349  : 
; 350  : 	nResourceSize = ::SizeofResource( hInstance, hResource );

  0005c	ff 75 08	 push	 DWORD PTR _hResource$1$[ebp]
  0005f	53		 push	 ebx
  00060	ff 15 00 00 00
	00		 call	 DWORD PTR __imp__SizeofResource@8

; 351  : 	pImageEnd = (const ATLSTRINGRESOURCEIMAGE*)(LPBYTE( pImage )+nResourceSize);

  00066	8d 0c 06	 lea	 ecx, DWORD PTR [esi+eax]

; 352  : 	iIndex = id&0x000f;

  00069	83 e7 0f	 and	 edi, 15			; 0000000fH

; 353  : 
; 354  : 	while( (iIndex > 0) && (pImage < pImageEnd) )

  0006c	76 14		 jbe	 SHORT $LN14@LoadString
  0006e	66 90		 npad	 2
$LL13@LoadString:
  00070	3b f1		 cmp	 esi, ecx
  00072	73 12		 jae	 SHORT $LN50@LoadString

; 355  : 	{
; 356  : 		pImage = (const ATLSTRINGRESOURCEIMAGE*)(LPBYTE( pImage )+(sizeof( ATLSTRINGRESOURCEIMAGE )+(pImage->nLength*sizeof( WCHAR ))));

  00074	0f b7 06	 movzx	 eax, WORD PTR [esi]
  00077	8d 34 46	 lea	 esi, DWORD PTR [esi+eax*2]
  0007a	83 c6 02	 add	 esi, 2

; 357  : 		iIndex--;

  0007d	83 ef 01	 sub	 edi, 1
  00080	75 ee		 jne	 SHORT $LL13@LoadString
$LN14@LoadString:

; 358  : 	}
; 359  : 	if( pImage >= pImageEnd )

  00082	3b f1		 cmp	 esi, ecx
  00084	72 04		 jb	 SHORT $LN17@LoadString
$LN50@LoadString:

; 360  : 	{
; 361  : 		return( NULL );

  00086	33 f6		 xor	 esi, esi
  00088	eb 08		 jmp	 SHORT $LN18@LoadString
$LN17@LoadString:

; 362  : 	}
; 363  : 	if( pImage->nLength == 0 )

  0008a	33 c0		 xor	 eax, eax
  0008c	66 39 06	 cmp	 WORD PTR [esi], ax
  0008f	0f 44 f0	 cmove	 esi, eax
$LN18@LoadString:
; File C:\Program Files\Microsoft Visual Studio\2022\Professional\VC\Tools\MSVC\14.44.35207\atlmfc\include\cstringt.h

; 2356 : 		if( pImage == NULL )

  00092	85 f6		 test	 esi, esi
  00094	74 75		 je	 SHORT $LN51@LoadString

; 2359 : 		}
; 2360 : 
; 2361 : 		int nLength = StringTraits::GetBaseTypeLength( pImage->achString, pImage->nLength );

  00096	0f b7 06	 movzx	 eax, WORD PTR [esi]
  00099	8d 4e 02	 lea	 ecx, DWORD PTR [esi+2]

; 350  : 		return ::WideCharToMultiByte( _AtlGetConversionACP(), 0, pszSource, nLength, NULL, 0, NULL, NULL );

  0009c	6a 00		 push	 0
  0009e	6a 00		 push	 0
  000a0	6a 00		 push	 0
  000a2	6a 00		 push	 0
  000a4	50		 push	 eax
  000a5	51		 push	 ecx
  000a6	6a 00		 push	 0
  000a8	6a 03		 push	 3
  000aa	ff 15 00 00 00
	00		 call	 DWORD PTR __imp__WideCharToMultiByte@32

; 2361 : 		int nLength = StringTraits::GetBaseTypeLength( pImage->achString, pImage->nLength );

  000b0	8b f8		 mov	 edi, eax
; File C:\Program Files\Microsoft Visual Studio\2022\Professional\VC\Tools\MSVC\14.44.35207\atlmfc\include\atlsimpstr.h

; 808  : 		if (nLength < 0)

  000b2	85 ff		 test	 edi, edi
  000b4	78 60		 js	 SHORT $LN38@LoadString

; 804  : 		return( reinterpret_cast< CStringData* >( m_pszData )-1 );

  000b6	8b 5d fc	 mov	 ebx, DWORD PTR _this$1$[ebp]

; 812  : 		int nShared = 1-pOldData->nRefs;  // nShared < 0 means true, >= 0 means false

  000b9	ba 01 00 00 00	 mov	 edx, 1

; 804  : 		return( reinterpret_cast< CStringData* >( m_pszData )-1 );

  000be	8b 0b		 mov	 ecx, DWORD PTR [ebx]

; 812  : 		int nShared = 1-pOldData->nRefs;  // nShared < 0 means true, >= 0 means false

  000c0	2b 51 fc	 sub	 edx, DWORD PTR [ecx-4]

; 813  : 		int nTooShort = pOldData->nAllocLength-nLength;  // nTooShort < 0 means true, >= 0 means false

  000c3	8b 49 f8	 mov	 ecx, DWORD PTR [ecx-8]
  000c6	2b cf		 sub	 ecx, edi

; 814  : 		if( (nShared|nTooShort) < 0 )  // If either sign bit is set (i.e. either is less than zero), we need to copy data

  000c8	0b d1		 or	 edx, ecx
  000ca	7d 08		 jge	 SHORT $LN26@LoadString

; 815  : 		{
; 816  : 			PrepareWrite2( nLength );

  000cc	57		 push	 edi
  000cd	8b cb		 mov	 ecx, ebx
  000cf	e8 00 00 00 00	 call	 ?PrepareWrite2@?$CSimpleStringT@D$0A@@ATL@@AAEXH@Z ; ATL::CSimpleStringT<char,0>::PrepareWrite2
$LN26@LoadString:
; File C:\Program Files\Microsoft Visual Studio\2022\Professional\VC\Tools\MSVC\14.44.35207\atlmfc\include\cstringt.h

; 2363 : 		StringTraits::ConvertToBaseType( pszBuffer, nLength, pImage->achString, pImage->nLength );

  000d4	0f b7 06	 movzx	 eax, WORD PTR [esi]

; 372  : 		::WideCharToMultiByte( _AtlGetConversionACP(), 0, pszSrc, nSrcLength, pszDest, nDestLength, NULL, NULL );

  000d7	6a 00		 push	 0
  000d9	6a 00		 push	 0
  000db	57		 push	 edi
  000dc	ff 33		 push	 DWORD PTR [ebx]
  000de	50		 push	 eax
  000df	8d 46 02	 lea	 eax, DWORD PTR [esi+2]
  000e2	50		 push	 eax
  000e3	6a 00		 push	 0
  000e5	6a 03		 push	 3
  000e7	ff 15 00 00 00
	00		 call	 DWORD PTR __imp__WideCharToMultiByte@32
; File C:\Program Files\Microsoft Visual Studio\2022\Professional\VC\Tools\MSVC\14.44.35207\atlmfc\include\atlsimpstr.h

; 875  : 		if( nLength < 0 || nLength > GetData()->nAllocLength)

  000ed	8b 03		 mov	 eax, DWORD PTR [ebx]
  000ef	3b 78 f8	 cmp	 edi, DWORD PTR [eax-8]
  000f2	7f 22		 jg	 SHORT $LN38@LoadString

; 877  : 
; 878  : 		GetData()->nDataLength = nLength;

  000f4	89 78 f4	 mov	 DWORD PTR [eax-12], edi

; 879  : 		m_pszData[nLength] = 0;

  000f7	8b 03		 mov	 eax, DWORD PTR [ebx]
; File C:\Program Files\Microsoft Visual Studio\2022\Professional\VC\Tools\MSVC\14.44.35207\atlmfc\include\cstringt.h

; 2347 : 		return( LoadString( hInstance, nID ) );

  000f9	5e		 pop	 esi
; File C:\Program Files\Microsoft Visual Studio\2022\Professional\VC\Tools\MSVC\14.44.35207\atlmfc\include\atlsimpstr.h

; 879  : 		m_pszData[nLength] = 0;

  000fa	c6 04 07 00	 mov	 BYTE PTR [edi+eax], 0
; File C:\Program Files\Microsoft Visual Studio\2022\Professional\VC\Tools\MSVC\14.44.35207\atlmfc\include\cstringt.h

; 2366 : 		return( TRUE );

  000fe	b8 01 00 00 00	 mov	 eax, 1
  00103	5f		 pop	 edi

; 2348 : 	}

  00104	5b		 pop	 ebx
  00105	8b e5		 mov	 esp, ebp
  00107	5d		 pop	 ebp
  00108	c2 04 00	 ret	 4
$LN51@LoadString:

; 2347 : 		return( LoadString( hInstance, nID ) );

  0010b	5e		 pop	 esi
  0010c	5f		 pop	 edi

; 2358 : 			return( FALSE );

  0010d	33 c0		 xor	 eax, eax

; 2348 : 	}

  0010f	5b		 pop	 ebx
  00110	8b e5		 mov	 esp, ebp
  00112	5d		 pop	 ebp
  00113	c2 04 00	 ret	 4
$LN38@LoadString:
; File C:\Program Files\Microsoft Visual Studio\2022\Professional\VC\Tools\MSVC\14.44.35207\atlmfc\include\atlsimpstr.h

; 876  : 			AtlThrow(E_INVALIDARG);

  00116	68 57 00 07 80	 push	 -2147024809		; 80070057H
  0011b	e8 00 00 00 00	 call	 ?AtlThrowImpl@ATL@@YGXJ@Z ; ATL::AtlThrowImpl
$LN63@LoadString:
  00120	cc		 int	 3
?LoadStringA@?$CStringT@DV?$StrTraitMFC@DV?$ChTraitsCRT@D@ATL@@@@@ATL@@QAEHI@Z ENDP ; ATL::CStringT<char,StrTraitMFC<char,ATL::ChTraitsCRT<char> > >::LoadStringA
_TEXT	ENDS
; Function compile flags: /Ogtp
; File C:\Program Files\Microsoft Visual Studio\2022\Professional\VC\Tools\MSVC\14.44.35207\atlmfc\include\cstringt.h
; File C:\Program Files\Microsoft Visual Studio\2022\Professional\VC\Tools\MSVC\14.44.35207\atlmfc\include\atlsimpstr.h
; File C:\Program Files\Microsoft Visual Studio\2022\Professional\VC\Tools\MSVC\14.44.35207\atlmfc\include\cstringt.h
;	COMDAT ??1?$CStringT@DV?$StrTraitMFC@DV?$ChTraitsCRT@D@ATL@@@@@ATL@@QAE@XZ
_TEXT	SEGMENT
??1?$CStringT@DV?$StrTraitMFC@DV?$ChTraitsCRT@D@ATL@@@@@ATL@@QAE@XZ PROC ; ATL::CStringT<char,StrTraitMFC<char,ATL::ChTraitsCRT<char> > >::~CStringT<char,StrTraitMFC<char,ATL::ChTraitsCRT<char> > >, COMDAT
; _this$ = ecx
; File C:\Program Files\Microsoft Visual Studio\2022\Professional\VC\Tools\MSVC\14.44.35207\atlmfc\include\atlsimpstr.h

; 804  : 		return( reinterpret_cast< CStringData* >( m_pszData )-1 );

  00000	8b 11		 mov	 edx, DWORD PTR [ecx]

; 92   : 		if( _InterlockedDecrement( &nRefs ) <= 0 )

  00002	83 c8 ff	 or	 eax, -1

; 804  : 		return( reinterpret_cast< CStringData* >( m_pszData )-1 );

  00005	83 ea 10	 sub	 edx, 16			; 00000010H

; 92   : 		if( _InterlockedDecrement( &nRefs ) <= 0 )

  00008	f0 0f c1 42 0c	 lock	  xadd	 DWORD PTR [edx+12], eax
  0000d	48		 dec	 eax
  0000e	85 c0		 test	 eax, eax
  00010	7f 08		 jg	 SHORT $LN8@CStringT

; 93   : 		{
; 94   : 			pStringMgr->Free( this );

  00012	8b 0a		 mov	 ecx, DWORD PTR [edx]
  00014	52		 push	 edx
  00015	8b 01		 mov	 eax, DWORD PTR [ecx]
  00017	ff 50 04	 call	 DWORD PTR [eax+4]
$LN8@CStringT:
; File C:\Program Files\Microsoft Visual Studio\2022\Professional\VC\Tools\MSVC\14.44.35207\atlmfc\include\cstringt.h

; 1303 : 	}

  0001a	c3		 ret	 0
??1?$CStringT@DV?$StrTraitMFC@DV?$ChTraitsCRT@D@ATL@@@@@ATL@@QAE@XZ ENDP ; ATL::CStringT<char,StrTraitMFC<char,ATL::ChTraitsCRT<char> > >::~CStringT<char,StrTraitMFC<char,ATL::ChTraitsCRT<char> > >
_TEXT	ENDS
; Function compile flags: /Ogtp
; File C:\Program Files\Microsoft Visual Studio\2022\Professional\VC\Tools\MSVC\14.44.35207\atlmfc\include\atlsimpstr.h
;	COMDAT ?Reallocate@?$CSimpleStringT@D$0A@@ATL@@AAEXH@Z
_TEXT	SEGMENT
_nLength$ = 8						; size = 4
?Reallocate@?$CSimpleStringT@D$0A@@ATL@@AAEXH@Z PROC	; ATL::CSimpleStringT<char,0>::Reallocate, COMDAT
; _this$ = ecx

; 853  : 	{

  00000	55		 push	 ebp
  00001	8b ec		 mov	 ebp, esp
  00003	56		 push	 esi

; 854  : 		CStringData* pOldData = GetData();
; 855  : 		ATLASSERT( pOldData->nAllocLength < nLength );
; 856  : 		IAtlStringMgr* pStringMgr = pOldData->pStringMgr;
; 857  : 		if ( pOldData->nAllocLength >= nLength || nLength <= 0)

  00004	8b 75 08	 mov	 esi, DWORD PTR _nLength$[ebp]
  00007	57		 push	 edi
  00008	8b f9		 mov	 edi, ecx

; 804  : 		return( reinterpret_cast< CStringData* >( m_pszData )-1 );

  0000a	8b 17		 mov	 edx, DWORD PTR [edi]
  0000c	83 ea 10	 sub	 edx, 16			; 00000010H

; 854  : 		CStringData* pOldData = GetData();
; 855  : 		ATLASSERT( pOldData->nAllocLength < nLength );
; 856  : 		IAtlStringMgr* pStringMgr = pOldData->pStringMgr;
; 857  : 		if ( pOldData->nAllocLength >= nLength || nLength <= 0)

  0000f	39 72 08	 cmp	 DWORD PTR [edx+8], esi
  00012	7d 1e		 jge	 SHORT $LN3@Reallocate
  00014	85 f6		 test	 esi, esi
  00016	7e 1a		 jle	 SHORT $LN3@Reallocate

; 860  : 			return;
; 861  : 		}
; 862  : 		CStringData* pNewData = pStringMgr->Reallocate( pOldData, nLength, sizeof( XCHAR ) );

  00018	8b 0a		 mov	 ecx, DWORD PTR [edx]
  0001a	6a 01		 push	 1
  0001c	56		 push	 esi
  0001d	52		 push	 edx
  0001e	8b 01		 mov	 eax, DWORD PTR [ecx]
  00020	ff 50 08	 call	 DWORD PTR [eax+8]

; 863  : 		if( pNewData == NULL )

  00023	85 c0		 test	 eax, eax
  00025	74 0b		 je	 SHORT $LN3@Reallocate

; 864  : 		{
; 865  : 			ThrowMemoryException();
; 866  : 		}
; 867  : 		Attach( pNewData );

  00027	83 c0 10	 add	 eax, 16			; 00000010H
  0002a	89 07		 mov	 DWORD PTR [edi], eax
  0002c	5f		 pop	 edi
  0002d	5e		 pop	 esi

; 868  : 	}

  0002e	5d		 pop	 ebp
  0002f	c2 04 00	 ret	 4
$LN3@Reallocate:

; 858  : 		{
; 859  : 			ThrowMemoryException();

  00032	e8 00 00 00 00	 call	 ?ThrowMemoryException@?$CSimpleStringT@D$0A@@ATL@@KAXXZ ; ATL::CSimpleStringT<char,0>::ThrowMemoryException
$LN12@Reallocate:
  00037	cc		 int	 3
?Reallocate@?$CSimpleStringT@D$0A@@ATL@@AAEXH@Z ENDP	; ATL::CSimpleStringT<char,0>::Reallocate
_TEXT	ENDS
; Function compile flags: /Ogtp
; File C:\Program Files\Microsoft Visual Studio\2022\Professional\VC\Tools\MSVC\14.44.35207\atlmfc\include\atlsimpstr.h
;	COMDAT ?PrepareWrite2@?$CSimpleStringT@D$0A@@ATL@@AAEXH@Z
_TEXT	SEGMENT
_nLength$ = 8						; size = 4
?PrepareWrite2@?$CSimpleStringT@D$0A@@ATL@@AAEXH@Z PROC	; ATL::CSimpleStringT<char,0>::PrepareWrite2, COMDAT
; _this$ = ecx

; 822  : 	{

  00000	55		 push	 ebp
  00001	8b ec		 mov	 ebp, esp
  00003	56		 push	 esi

; 823  : 		CStringData* pOldData = GetData();
; 824  : 		if( pOldData->nDataLength > nLength )

  00004	8b 75 08	 mov	 esi, DWORD PTR _nLength$[ebp]
  00007	57		 push	 edi
  00008	8b f9		 mov	 edi, ecx

; 804  : 		return( reinterpret_cast< CStringData* >( m_pszData )-1 );

  0000a	8b 0f		 mov	 ecx, DWORD PTR [edi]

; 823  : 		CStringData* pOldData = GetData();
; 824  : 		if( pOldData->nDataLength > nLength )

  0000c	39 71 f4	 cmp	 DWORD PTR [ecx-12], esi
  0000f	0f 4f 71 f4	 cmovg	 esi, DWORD PTR [ecx-12]

; 77   : 		return( nRefs > 1 );

  00013	83 79 fc 01	 cmp	 DWORD PTR [ecx-4], 1

; 825  : 		{
; 826  : 			nLength = pOldData->nDataLength;
; 827  : 		}
; 828  : 		if( pOldData->IsShared() )

  00017	7e 0e		 jle	 SHORT $LN3@PrepareWri

; 829  : 		{
; 830  : 			Fork( nLength );

  00019	56		 push	 esi
  0001a	8b cf		 mov	 ecx, edi
  0001c	e8 00 00 00 00	 call	 ?Fork@?$CSimpleStringT@D$0A@@ATL@@AAEXH@Z ; ATL::CSimpleStringT<char,0>::Fork
  00021	5f		 pop	 edi

; 850  : 		}
; 851  : 	}

  00022	5e		 pop	 esi
  00023	5d		 pop	 ebp
  00024	c2 04 00	 ret	 4
$LN3@PrepareWri:

; 831  : 		}
; 832  : 		else if( pOldData->nAllocLength < nLength )

  00027	8b 49 f8	 mov	 ecx, DWORD PTR [ecx-8]
  0002a	3b ce		 cmp	 ecx, esi
  0002c	7d 25		 jge	 SHORT $LN5@PrepareWri

; 833  : 		{
; 834  : 			// Grow exponentially, until we hit 1G, then by 1M thereafter.
; 835  : 			int nNewLength = pOldData->nAllocLength;
; 836  : 			if( nNewLength > 1024 * 1024 * 1024 )

  0002e	81 f9 00 00 00
	40		 cmp	 ecx, 1073741824		; 40000000H
  00034	7e 07		 jle	 SHORT $LN6@PrepareWri

; 837  : 			{
; 838  : 				nNewLength += 1024 * 1024;

  00036	b8 00 00 10 00	 mov	 eax, 1048576		; 00100000H

; 839  : 			}

  0003b	eb 07		 jmp	 SHORT $LN7@PrepareWri
$LN6@PrepareWri:

; 840  : 			else
; 841  : 			{
; 842  : 				// Exponential growth factor is 1.5.
; 843  : 				nNewLength = nNewLength + nNewLength / 2;

  0003d	8b c1		 mov	 eax, ecx
  0003f	99		 cdq
  00040	2b c2		 sub	 eax, edx
  00042	d1 f8		 sar	 eax, 1
$LN7@PrepareWri:

; 844  : 			}
; 845  : 			if( nNewLength < nLength )

  00044	03 c1		 add	 eax, ecx

; 846  : 			{
; 847  : 				nNewLength = nLength;
; 848  : 			}
; 849  : 			Reallocate( nNewLength );

  00046	8b cf		 mov	 ecx, edi
  00048	3b c6		 cmp	 eax, esi
  0004a	0f 4d f0	 cmovge	 esi, eax
  0004d	56		 push	 esi
  0004e	e8 00 00 00 00	 call	 ?Reallocate@?$CSimpleStringT@D$0A@@ATL@@AAEXH@Z ; ATL::CSimpleStringT<char,0>::Reallocate
$LN5@PrepareWri:

; 850  : 		}
; 851  : 	}

  00053	5f		 pop	 edi
  00054	5e		 pop	 esi
  00055	5d		 pop	 ebp
  00056	c2 04 00	 ret	 4
?PrepareWrite2@?$CSimpleStringT@D$0A@@ATL@@AAEXH@Z ENDP	; ATL::CSimpleStringT<char,0>::PrepareWrite2
_TEXT	ENDS
; Function compile flags: /Ogtp
; File C:\Program Files\Microsoft Visual Studio\2022\Professional\VC\Tools\MSVC\14.44.35207\atlmfc\include\atlsimpstr.h
; File C:\Program Files (x86)\Windows Kits\10\Include\10.0.26100.0\ucrt\corecrt_memcpy_s.h
; File C:\Program Files\Microsoft Visual Studio\2022\Professional\VC\Tools\MSVC\14.44.35207\atlmfc\include\atlsimpstr.h
;	COMDAT ?Fork@?$CSimpleStringT@D$0A@@ATL@@AAEXH@Z
_TEXT	SEGMENT
_this$1$ = -12						; size = 4
_nOldLength$1$ = -8					; size = 4
__Source$1$ = -4					; size = 4
_nLength$ = 8						; size = 4
_pNewData$1$ = 8					; size = 4
?Fork@?$CSimpleStringT@D$0A@@ATL@@AAEXH@Z PROC		; ATL::CSimpleStringT<char,0>::Fork, COMDAT
; _this$ = ecx

; 787  : 	{

  00000	55		 push	 ebp
  00001	8b ec		 mov	 ebp, esp
  00003	83 ec 0c	 sub	 esp, 12			; 0000000cH
  00006	8b c1		 mov	 eax, ecx
  00008	89 45 f4	 mov	 DWORD PTR _this$1$[ebp], eax
  0000b	53		 push	 ebx
  0000c	56		 push	 esi

; 804  : 		return( reinterpret_cast< CStringData* >( m_pszData )-1 );

  0000d	8b 00		 mov	 eax, DWORD PTR [eax]

; 790  : 		CStringData* pNewData = pOldData->pStringMgr->Clone()->Allocate( nLength, sizeof( XCHAR ) );

  0000f	8b 48 f0	 mov	 ecx, DWORD PTR [eax-16]

; 804  : 		return( reinterpret_cast< CStringData* >( m_pszData )-1 );

  00012	8d 58 f0	 lea	 ebx, DWORD PTR [eax-16]
  00015	89 45 fc	 mov	 DWORD PTR __Source$1$[ebp], eax

; 787  : 	{

  00018	57		 push	 edi

; 788  : 		CStringData* pOldData = GetData();
; 789  : 		int nOldLength = pOldData->nDataLength;

  00019	8b 7b 04	 mov	 edi, DWORD PTR [ebx+4]

; 790  : 		CStringData* pNewData = pOldData->pStringMgr->Clone()->Allocate( nLength, sizeof( XCHAR ) );

  0001c	8b 01		 mov	 eax, DWORD PTR [ecx]
  0001e	89 7d f8	 mov	 DWORD PTR _nOldLength$1$[ebp], edi
  00021	ff 50 10	 call	 DWORD PTR [eax+16]
  00024	8b 75 08	 mov	 esi, DWORD PTR _nLength$[ebp]
  00027	8b c8		 mov	 ecx, eax
  00029	6a 01		 push	 1
  0002b	56		 push	 esi
  0002c	8b 10		 mov	 edx, DWORD PTR [eax]
  0002e	ff 12		 call	 DWORD PTR [edx]
  00030	89 45 08	 mov	 DWORD PTR _pNewData$1$[ebp], eax

; 791  : 		if( pNewData == NULL )

  00033	85 c0		 test	 eax, eax
  00035	74 6c		 je	 SHORT $LN25@Fork

; 794  : 		}
; 795  : 		int nCharsToCopy = ((nOldLength < nLength) ? nOldLength : nLength)+1;  // Copy '\0'

  00037	3b fe		 cmp	 edi, esi
  00039	0f 4c f7	 cmovl	 esi, edi

; 796  : 		memcpy_s( PXSTR( pNewData->data() ), nCharsToCopy * sizeof( XCHAR ),

  0003c	8d 78 10	 lea	 edi, DWORD PTR [eax+16]
  0003f	83 c6 01	 add	 esi, 1
; File C:\Program Files (x86)\Windows Kits\10\Include\10.0.26100.0\ucrt\corecrt_memcpy_s.h

; 47   :         if (_SourceSize == 0)

  00042	74 33		 je	 SHORT $LN11@Fork

; 48   :         {
; 49   :             return 0;
; 50   :         }
; 51   : 
; 52   :         _CRT_MEMCPY_S_VALIDATE_RETURN_ERRCODE(_Destination != NULL, EINVAL);

  00044	85 ff		 test	 edi, edi
  00046	74 1f		 je	 SHORT $LN23@Fork

; 53   :         if (_Source == NULL || _DestinationSize < _SourceSize)

  00048	8b 45 fc	 mov	 eax, DWORD PTR __Source$1$[ebp]
  0004b	56		 push	 esi
  0004c	85 c0		 test	 eax, eax
  0004e	74 0c		 je	 SHORT $LN10@Fork

; 56   : 
; 57   :             _CRT_MEMCPY_S_VALIDATE_RETURN_ERRCODE(_Source != NULL,                 EINVAL);
; 58   :             _CRT_MEMCPY_S_VALIDATE_RETURN_ERRCODE(_DestinationSize >= _SourceSize, ERANGE);
; 59   : 
; 60   :             // Unreachable, but required to suppress /analyze warnings:
; 61   :             return EINVAL;
; 62   :         }
; 63   :         memcpy(_Destination, _Source, _SourceSize);

  00050	50		 push	 eax
  00051	57		 push	 edi
  00052	e8 00 00 00 00	 call	 _memcpy
  00057	83 c4 0c	 add	 esp, 12			; 0000000cH
  0005a	eb 1b		 jmp	 SHORT $LN11@Fork
$LN10@Fork:

; 54   :         {
; 55   :             memset(_Destination, 0, _DestinationSize);

  0005c	6a 00		 push	 0
  0005e	57		 push	 edi
  0005f	e8 00 00 00 00	 call	 _memset
  00064	83 c4 0c	 add	 esp, 12			; 0000000cH
$LN23@Fork:
; File C:\Program Files\Microsoft Visual Studio\2022\Professional\VC\Tools\MSVC\14.44.35207\atlmfc\include\atlsimpstr.h

; 798  : 		pNewData->nDataLength = nOldLength;

  00067	e8 00 00 00 00	 call	 __errno
  0006c	c7 00 16 00 00
	00		 mov	 DWORD PTR [eax], 22	; 00000016H
  00072	e8 00 00 00 00	 call	 __invalid_parameter_noinfo
$LN11@Fork:
  00077	8b 4d 08	 mov	 ecx, DWORD PTR _pNewData$1$[ebp]
  0007a	8b 45 f8	 mov	 eax, DWORD PTR _nOldLength$1$[ebp]
  0007d	89 41 04	 mov	 DWORD PTR [ecx+4], eax

; 92   : 		if( _InterlockedDecrement( &nRefs ) <= 0 )

  00080	83 c8 ff	 or	 eax, -1
  00083	f0 0f c1 43 0c	 lock	  xadd	 DWORD PTR [ebx+12], eax
  00088	48		 dec	 eax
  00089	85 c0		 test	 eax, eax
  0008b	7f 08		 jg	 SHORT $LN15@Fork

; 93   : 		{
; 94   : 			pStringMgr->Free( this );

  0008d	8b 0b		 mov	 ecx, DWORD PTR [ebx]
  0008f	53		 push	 ebx
  00090	8b 01		 mov	 eax, DWORD PTR [ecx]
  00092	ff 50 04	 call	 DWORD PTR [eax+4]
$LN15@Fork:

; 799  : 		pOldData->Release();
; 800  : 		Attach( pNewData );

  00095	8b 45 f4	 mov	 eax, DWORD PTR _this$1$[ebp]
  00098	89 38		 mov	 DWORD PTR [eax], edi

; 801  : 	}

  0009a	5f		 pop	 edi
  0009b	5e		 pop	 esi
  0009c	5b		 pop	 ebx
  0009d	8b e5		 mov	 esp, ebp
  0009f	5d		 pop	 ebp
  000a0	c2 04 00	 ret	 4
$LN25@Fork:

; 792  : 		{
; 793  : 			ThrowMemoryException();

  000a3	e8 00 00 00 00	 call	 ?ThrowMemoryException@?$CSimpleStringT@D$0A@@ATL@@KAXXZ ; ATL::CSimpleStringT<char,0>::ThrowMemoryException
$LN22@Fork:
  000a8	cc		 int	 3
?Fork@?$CSimpleStringT@D$0A@@ATL@@AAEXH@Z ENDP		; ATL::CSimpleStringT<char,0>::Fork
_TEXT	ENDS
; Function compile flags: /Ogtp
; File C:\Program Files\Microsoft Visual Studio\2022\Professional\VC\Tools\MSVC\14.44.35207\atlmfc\include\atlsimpstr.h
;	COMDAT ?ThrowMemoryException@?$CSimpleStringT@D$0A@@ATL@@KAXXZ
_TEXT	SEGMENT
?ThrowMemoryException@?$CSimpleStringT@D$0A@@ATL@@KAXXZ PROC ; ATL::CSimpleStringT<char,0>::ThrowMemoryException, COMDAT

; 777  : 		AtlThrow( E_OUTOFMEMORY );

  00000	68 0e 00 07 80	 push	 -2147024882		; 8007000eH
  00005	e8 00 00 00 00	 call	 ?AtlThrowImpl@ATL@@YGXJ@Z ; ATL::AtlThrowImpl
$LN3@ThrowMemor:
  0000a	cc		 int	 3
?ThrowMemoryException@?$CSimpleStringT@D$0A@@ATL@@KAXXZ ENDP ; ATL::CSimpleStringT<char,0>::ThrowMemoryException
_TEXT	ENDS
; Function compile flags: /Ogtp
; File C:\Program Files\Microsoft Visual Studio\2022\Professional\VC\Tools\MSVC\14.44.35207\atlmfc\include\atlsimpstr.h
; File C:\Program Files (x86)\Windows Kits\10\Include\10.0.26100.0\ucrt\corecrt_memcpy_s.h
; File C:\Program Files\Microsoft Visual Studio\2022\Professional\VC\Tools\MSVC\14.44.35207\atlmfc\include\atlsimpstr.h
; File C:\Program Files (x86)\Windows Kits\10\Include\10.0.26100.0\ucrt\corecrt_memcpy_s.h
; File C:\Program Files\Microsoft Visual Studio\2022\Professional\VC\Tools\MSVC\14.44.35207\atlmfc\include\atlsimpstr.h
;	COMDAT ?SetString@?$CSimpleStringT@D$0A@@ATL@@QAEXPBDH@Z
_TEXT	SEGMENT
_pszSrc$ = 8						; size = 4
_nOldLength$1$ = 8					; size = 4
_nLength$ = 12						; size = 4
_nOffset$1$ = 12					; size = 4
?SetString@?$CSimpleStringT@D$0A@@ATL@@QAEXPBDH@Z PROC	; ATL::CSimpleStringT<char,0>::SetString, COMDAT
; _this$ = ecx

; 611  : 	{

  00000	55		 push	 ebp
  00001	8b ec		 mov	 ebp, esp
  00003	56		 push	 esi

; 612  : 		if( nLength == 0 )

  00004	8b 75 0c	 mov	 esi, DWORD PTR _nLength$[ebp]
  00007	57		 push	 edi
  00008	8b f9		 mov	 edi, ecx
  0000a	85 f6		 test	 esi, esi
  0000c	75 58		 jne	 SHORT $LN2@SetString

; 804  : 		return( reinterpret_cast< CStringData* >( m_pszData )-1 );

  0000e	8b 07		 mov	 eax, DWORD PTR [edi]

; 443  : 		if( pOldData->nDataLength == 0 )

  00010	83 78 f4 00	 cmp	 DWORD PTR [eax-12], 0

; 804  : 		return( reinterpret_cast< CStringData* >( m_pszData )-1 );

  00014	8d 50 f0	 lea	 edx, DWORD PTR [eax-16]

; 442  : 		IAtlStringMgr* pStringMgr = pOldData->pStringMgr;

  00017	8b 32		 mov	 esi, DWORD PTR [edx]

; 443  : 		if( pOldData->nDataLength == 0 )

  00019	74 1f		 je	 SHORT $LN72@SetString

; 73   : 		return nRefs < 0;

  0001b	83 7a 0c 00	 cmp	 DWORD PTR [edx+12], 0
  0001f	8d 4a 0c	 lea	 ecx, DWORD PTR [edx+12]

; 448  : 		if( pOldData->IsLocked() )

  00022	7d 1c		 jge	 SHORT $LN10@SetString

; 875  : 		if( nLength < 0 || nLength > GetData()->nAllocLength)

  00024	83 78 f8 00	 cmp	 DWORD PTR [eax-8], 0
  00028	0f 8c 0b 01 00
	00		 jl	 $LN71@SetString

; 877  : 
; 878  : 		GetData()->nDataLength = nLength;

  0002e	c7 40 f4 00 00
	00 00		 mov	 DWORD PTR [eax-12], 0

; 879  : 		m_pszData[nLength] = 0;

  00035	8b 07		 mov	 eax, DWORD PTR [edi]
  00037	c6 00 00	 mov	 BYTE PTR [eax], 0
$LN72@SetString:
  0003a	5f		 pop	 edi

; 638  : 			else
; 639  : 			{
; 640  : 				memcpy_s( pszBuffer, GetAllocLength() * sizeof( XCHAR ), pszSrc, nLength * sizeof( XCHAR ));
; 641  : 			}
; 642  : 			ReleaseBufferSetLength( nLength );
; 643  : 		}
; 644  : 	}

  0003b	5e		 pop	 esi
  0003c	5d		 pop	 ebp
  0003d	c2 08 00	 ret	 8
$LN10@SetString:

; 92   : 		if( _InterlockedDecrement( &nRefs ) <= 0 )

  00040	83 c8 ff	 or	 eax, -1
  00043	f0 0f c1 01	 lock	  xadd	 DWORD PTR [ecx], eax
  00047	48		 dec	 eax
  00048	85 c0		 test	 eax, eax
  0004a	7f 08		 jg	 SHORT $LN27@SetString

; 93   : 		{
; 94   : 			pStringMgr->Free( this );

  0004c	8b 0a		 mov	 ecx, DWORD PTR [edx]
  0004e	52		 push	 edx
  0004f	8b 01		 mov	 eax, DWORD PTR [ecx]
  00051	ff 50 04	 call	 DWORD PTR [eax+4]
$LN27@SetString:

; 456  : 			CStringData* pNewData = pStringMgr->GetNilString();

  00054	8b 06		 mov	 eax, DWORD PTR [esi]
  00056	8b ce		 mov	 ecx, esi
  00058	ff 50 0c	 call	 DWORD PTR [eax+12]

; 457  : 			Attach( pNewData );

  0005b	83 c0 10	 add	 eax, 16			; 00000010H
  0005e	89 07		 mov	 DWORD PTR [edi], eax
  00060	5f		 pop	 edi

; 638  : 			else
; 639  : 			{
; 640  : 				memcpy_s( pszBuffer, GetAllocLength() * sizeof( XCHAR ), pszSrc, nLength * sizeof( XCHAR ));
; 641  : 			}
; 642  : 			ReleaseBufferSetLength( nLength );
; 643  : 		}
; 644  : 	}

  00061	5e		 pop	 esi
  00062	5d		 pop	 ebp
  00063	c2 08 00	 ret	 8
$LN2@SetString:
  00066	53		 push	 ebx

; 613  : 		{
; 614  : 			Empty();
; 615  : 		}
; 616  : 		else
; 617  : 		{
; 618  : 			// It is possible that pszSrc points to a location inside of our
; 619  : 			// buffer.  GetBuffer() might change m_pszData if (1) the buffer
; 620  : 			// is shared or (2) the buffer is too small to hold the new
; 621  : 			// string.  We detect this aliasing, and modify pszSrc to point
; 622  : 			// into the newly allocated buffer instead.
; 623  : 
; 624  : 			if(pszSrc == NULL)

  00067	8b 5d 08	 mov	 ebx, DWORD PTR _pszSrc$[ebp]
  0006a	85 db		 test	 ebx, ebx
  0006c	0f 84 c7 00 00
	00		 je	 $LN71@SetString

; 523  : 		return( GetData()->nDataLength );

  00072	8b 07		 mov	 eax, DWORD PTR [edi]

; 625  : 				AtlThrow(E_INVALIDARG);
; 626  : 
; 627  : 			UINT nOldLength = GetLength();
; 628  : 			UINT_PTR nOffset = pszSrc-GetString();

  00074	8b d3		 mov	 edx, ebx
  00076	2b d0		 sub	 edx, eax
  00078	89 55 0c	 mov	 DWORD PTR _nOffset$1$[ebp], edx
  0007b	8b 48 f4	 mov	 ecx, DWORD PTR [eax-12]
  0007e	89 4d 08	 mov	 DWORD PTR _nOldLength$1$[ebp], ecx

; 808  : 		if (nLength < 0)

  00081	85 f6		 test	 esi, esi
  00083	0f 88 b0 00 00
	00		 js	 $LN71@SetString

; 809  : 			AtlThrow(E_INVALIDARG);
; 810  : 
; 811  : 		CStringData* pOldData = GetData();
; 812  : 		int nShared = 1-pOldData->nRefs;  // nShared < 0 means true, >= 0 means false

  00089	b9 01 00 00 00	 mov	 ecx, 1
  0008e	2b 48 fc	 sub	 ecx, DWORD PTR [eax-4]

; 813  : 		int nTooShort = pOldData->nAllocLength-nLength;  // nTooShort < 0 means true, >= 0 means false

  00091	8b 40 f8	 mov	 eax, DWORD PTR [eax-8]
  00094	2b c6		 sub	 eax, esi

; 814  : 		if( (nShared|nTooShort) < 0 )  // If either sign bit is set (i.e. either is less than zero), we need to copy data

  00096	0b c8		 or	 ecx, eax
  00098	7d 0b		 jge	 SHORT $LN38@SetString

; 815  : 		{
; 816  : 			PrepareWrite2( nLength );

  0009a	56		 push	 esi
  0009b	8b cf		 mov	 ecx, edi
  0009d	e8 00 00 00 00	 call	 ?PrepareWrite2@?$CSimpleStringT@D$0A@@ATL@@AAEXH@Z ; ATL::CSimpleStringT<char,0>::PrepareWrite2
  000a2	8b 55 0c	 mov	 edx, DWORD PTR _nOffset$1$[ebp]
$LN38@SetString:

; 629  : 			// If 0 <= nOffset <= nOldLength, then pszSrc points into our
; 630  : 			// buffer
; 631  : 
; 632  : 			PXSTR pszBuffer = GetBuffer( nLength );

  000a5	8b 07		 mov	 eax, DWORD PTR [edi]
  000a7	8b 48 f8	 mov	 ecx, DWORD PTR [eax-8]

; 633  : 			if( nOffset <= nOldLength )

  000aa	3b 55 08	 cmp	 edx, DWORD PTR _nOldLength$1$[ebp]
  000ad	77 35		 ja	 SHORT $LN5@SetString

; 634  : 			{
; 635  : 				CopyCharsOverlapped( pszBuffer, GetAllocLength(),

  000af	03 d0		 add	 edx, eax
; File C:\Program Files (x86)\Windows Kits\10\Include\10.0.26100.0\ucrt\corecrt_memcpy_s.h

; 81   :         _CRT_MEMCPY_S_VALIDATE_RETURN_ERRCODE(_Destination != NULL,            EINVAL);

  000b1	85 c0		 test	 eax, eax
  000b3	75 0d		 jne	 SHORT $LN51@SetString
  000b5	e8 00 00 00 00	 call	 __errno
  000ba	c7 00 16 00 00
	00		 mov	 DWORD PTR [eax], 22	; 00000016H
  000c0	eb 5b		 jmp	 SHORT $LN97@SetString
$LN51@SetString:

; 82   :         _CRT_MEMCPY_S_VALIDATE_RETURN_ERRCODE(_Source != NULL,                 EINVAL);

  000c2	85 d2		 test	 edx, edx
  000c4	75 0d		 jne	 SHORT $LN52@SetString
  000c6	e8 00 00 00 00	 call	 __errno
  000cb	c7 00 16 00 00
	00		 mov	 DWORD PTR [eax], 22	; 00000016H
  000d1	eb 4a		 jmp	 SHORT $LN97@SetString
$LN52@SetString:

; 83   :         _CRT_MEMCPY_S_VALIDATE_RETURN_ERRCODE(_DestinationSize >= _SourceSize, ERANGE);

  000d3	3b ce		 cmp	 ecx, esi
  000d5	72 3b		 jb	 SHORT $LN98@SetString

; 84   : 
; 85   :         memmove(_Destination, _Source, _SourceSize);

  000d7	56		 push	 esi
  000d8	52		 push	 edx
  000d9	50		 push	 eax
  000da	e8 00 00 00 00	 call	 _memmove
  000df	83 c4 0c	 add	 esp, 12			; 0000000cH
; File C:\Program Files\Microsoft Visual Studio\2022\Professional\VC\Tools\MSVC\14.44.35207\atlmfc\include\atlsimpstr.h

; 637  : 			}

  000e2	eb 3e		 jmp	 SHORT $LN65@SetString
$LN5@SetString:
; File C:\Program Files (x86)\Windows Kits\10\Include\10.0.26100.0\ucrt\corecrt_memcpy_s.h

; 52   :         _CRT_MEMCPY_S_VALIDATE_RETURN_ERRCODE(_Destination != NULL, EINVAL);

  000e4	85 c0		 test	 eax, eax
  000e6	75 0d		 jne	 SHORT $LN61@SetString
  000e8	e8 00 00 00 00	 call	 __errno
  000ed	c7 00 16 00 00
	00		 mov	 DWORD PTR [eax], 22	; 00000016H
  000f3	eb 28		 jmp	 SHORT $LN97@SetString
$LN61@SetString:

; 53   :         if (_Source == NULL || _DestinationSize < _SourceSize)

  000f5	3b ce		 cmp	 ecx, esi
  000f7	72 0d		 jb	 SHORT $LN63@SetString

; 56   : 
; 57   :             _CRT_MEMCPY_S_VALIDATE_RETURN_ERRCODE(_Source != NULL,                 EINVAL);
; 58   :             _CRT_MEMCPY_S_VALIDATE_RETURN_ERRCODE(_DestinationSize >= _SourceSize, ERANGE);
; 59   : 
; 60   :             // Unreachable, but required to suppress /analyze warnings:
; 61   :             return EINVAL;
; 62   :         }
; 63   :         memcpy(_Destination, _Source, _SourceSize);

  000f9	56		 push	 esi
  000fa	53		 push	 ebx
  000fb	50		 push	 eax
  000fc	e8 00 00 00 00	 call	 _memcpy
  00101	83 c4 0c	 add	 esp, 12			; 0000000cH
  00104	eb 1c		 jmp	 SHORT $LN65@SetString
$LN63@SetString:

; 54   :         {
; 55   :             memset(_Destination, 0, _DestinationSize);

  00106	51		 push	 ecx
  00107	6a 00		 push	 0
  00109	50		 push	 eax
  0010a	e8 00 00 00 00	 call	 _memset
  0010f	83 c4 0c	 add	 esp, 12			; 0000000cH
$LN98@SetString:
; File C:\Program Files\Microsoft Visual Studio\2022\Professional\VC\Tools\MSVC\14.44.35207\atlmfc\include\atlsimpstr.h

; 875  : 		if( nLength < 0 || nLength > GetData()->nAllocLength)

  00112	e8 00 00 00 00	 call	 __errno
  00117	c7 00 22 00 00
	00		 mov	 DWORD PTR [eax], 34	; 00000022H
$LN97@SetString:
  0011d	e8 00 00 00 00	 call	 __invalid_parameter_noinfo
$LN65@SetString:
  00122	8b 07		 mov	 eax, DWORD PTR [edi]
  00124	5b		 pop	 ebx
  00125	3b 70 f8	 cmp	 esi, DWORD PTR [eax-8]
  00128	7f 0f		 jg	 SHORT $LN71@SetString

; 877  : 
; 878  : 		GetData()->nDataLength = nLength;

  0012a	89 70 f4	 mov	 DWORD PTR [eax-12], esi

; 879  : 		m_pszData[nLength] = 0;

  0012d	8b 07		 mov	 eax, DWORD PTR [edi]
  0012f	5f		 pop	 edi
  00130	c6 04 06 00	 mov	 BYTE PTR [esi+eax], 0

; 638  : 			else
; 639  : 			{
; 640  : 				memcpy_s( pszBuffer, GetAllocLength() * sizeof( XCHAR ), pszSrc, nLength * sizeof( XCHAR ));
; 641  : 			}
; 642  : 			ReleaseBufferSetLength( nLength );
; 643  : 		}
; 644  : 	}

  00134	5e		 pop	 esi
  00135	5d		 pop	 ebp
  00136	c2 08 00	 ret	 8
$LN71@SetString:

; 876  : 			AtlThrow(E_INVALIDARG);

  00139	68 57 00 07 80	 push	 -2147024809		; 80070057H
  0013e	e8 00 00 00 00	 call	 ?AtlThrowImpl@ATL@@YGXJ@Z ; ATL::AtlThrowImpl
$LN96@SetString:
  00143	cc		 int	 3
?SetString@?$CSimpleStringT@D$0A@@ATL@@QAEXPBDH@Z ENDP	; ATL::CSimpleStringT<char,0>::SetString
_TEXT	ENDS
; Function compile flags: /Ogtp
; File C:\Program Files\Microsoft Visual Studio\2022\Professional\VC\Tools\MSVC\14.44.35207\atlmfc\include\atlsimpstr.h
;	COMDAT ??1?$CSimpleStringT@D$0A@@ATL@@QAE@XZ
_TEXT	SEGMENT
??1?$CSimpleStringT@D$0A@@ATL@@QAE@XZ PROC		; ATL::CSimpleStringT<char,0>::~CSimpleStringT<char,0>, COMDAT
; _this$ = ecx

; 804  : 		return( reinterpret_cast< CStringData* >( m_pszData )-1 );

  00000	8b 11		 mov	 edx, DWORD PTR [ecx]

; 92   : 		if( _InterlockedDecrement( &nRefs ) <= 0 )

  00002	83 c8 ff	 or	 eax, -1

; 804  : 		return( reinterpret_cast< CStringData* >( m_pszData )-1 );

  00005	83 ea 10	 sub	 edx, 16			; 00000010H

; 92   : 		if( _InterlockedDecrement( &nRefs ) <= 0 )

  00008	f0 0f c1 42 0c	 lock	  xadd	 DWORD PTR [edx+12], eax
  0000d	48		 dec	 eax
  0000e	85 c0		 test	 eax, eax
  00010	7f 08		 jg	 SHORT $LN6@CSimpleStr

; 93   : 		{
; 94   : 			pStringMgr->Free( this );

  00012	8b 0a		 mov	 ecx, DWORD PTR [edx]
  00014	52		 push	 edx
  00015	8b 01		 mov	 eax, DWORD PTR [ecx]
  00017	ff 50 04	 call	 DWORD PTR [eax+4]
$LN6@CSimpleStr:

; 265  : 		CStringData* pData = GetData();
; 266  : 		pData->Release();
; 267  : 	}

  0001a	c3		 ret	 0
??1?$CSimpleStringT@D$0A@@ATL@@QAE@XZ ENDP		; ATL::CSimpleStringT<char,0>::~CSimpleStringT<char,0>
_TEXT	ENDS
; Function compile flags: /Ogtp
; File C:\Program Files\Microsoft Visual Studio\2022\Professional\VC\Tools\MSVC\14.44.35207\atlmfc\include\atlexcept.h
;	COMDAT ?AtlThrowImpl@ATL@@YGXJ@Z
_TEXT	SEGMENT
_hr$ = 8						; size = 4
?AtlThrowImpl@ATL@@YGXJ@Z PROC				; ATL::AtlThrowImpl, COMDAT

; 69   : {

  00000	55		 push	 ebp
  00001	8b ec		 mov	 ebp, esp

; 70   : 	ATLTRACE(atlTraceException, 0, _T("AtlThrow: hr = 0x%x\n"), hr );
; 71   : #ifdef _AFX
; 72   : 	if( hr == E_OUTOFMEMORY )

  00003	8b 45 08	 mov	 eax, DWORD PTR _hr$[ebp]
  00006	3d 0e 00 07 80	 cmp	 eax, -2147024882	; 8007000eH
  0000b	75 05		 jne	 SHORT $LN2@AtlThrowIm

; 73   : 	{
; 74   : 		AfxThrowMemoryException();

  0000d	e8 00 00 00 00	 call	 ?AfxThrowMemoryException@@YGXXZ ; AfxThrowMemoryException
$LN2@AtlThrowIm:

; 75   : 	}
; 76   : 	else
; 77   : 	{
; 78   : 		AfxThrowOleException( hr );

  00012	50		 push	 eax
  00013	e8 00 00 00 00	 call	 ?AfxThrowOleException@@YGXJ@Z ; AfxThrowOleException
$LN5@AtlThrowIm:
  00018	cc		 int	 3
?AtlThrowImpl@ATL@@YGXJ@Z ENDP				; ATL::AtlThrowImpl
_TEXT	ENDS
; Function compile flags: /Ogtp
; File C:\Program Files\Microsoft Visual Studio\2022\Professional\VC\Tools\MSVC\14.44.35207\atlmfc\include\afx.h
;	COMDAT ?AfxCrtErrorCheck@@YAHH@Z
_TEXT	SEGMENT
_error$ = 8						; size = 4
?AfxCrtErrorCheck@@YAHH@Z PROC				; AfxCrtErrorCheck, COMDAT

; 510  : {

  00000	55		 push	 ebp
  00001	8b ec		 mov	 ebp, esp

; 511  : 	switch(error)

  00003	8b 4d 08	 mov	 ecx, DWORD PTR _error$[ebp]
  00006	83 f9 50	 cmp	 ecx, 80			; 00000050H
  00009	77 17		 ja	 SHORT $LN9@AfxCrtErro
  0000b	0f b6 81 00 00
	00 00		 movzx	 eax, BYTE PTR $LN11@AfxCrtErro[ecx]
  00012	ff 24 85 00 00
	00 00		 jmp	 DWORD PTR $LN12@AfxCrtErro[eax*4]
$LN4@AfxCrtErro:

; 512  : 	{
; 513  : 	case ENOMEM:
; 514  : 		AfxThrowMemoryException();

  00019	e9 00 00 00 00	 jmp	 ?AfxThrowMemoryException@@YGXXZ ; AfxThrowMemoryException
$LN7@AfxCrtErro:

; 525  : 		break;
; 526  : 	}
; 527  : 	return error;

  0001e	8b c1		 mov	 eax, ecx

; 528  : }

  00020	5d		 pop	 ebp
  00021	c3		 ret	 0
$LN9@AfxCrtErro:

; 515  : 		break;
; 516  : 	case EINVAL:
; 517  : 	case ERANGE:
; 518  : 		AfxThrowInvalidArgException();
; 519  : 		break;
; 520  : 	case STRUNCATE:
; 521  : 	case 0:
; 522  : 		break;
; 523  : 	default:
; 524  : 		AfxThrowInvalidArgException();

  00022	e9 00 00 00 00	 jmp	 ?AfxThrowInvalidArgException@@YGXXZ ; AfxThrowInvalidArgException
  00027	90		 npad	 1
$LN12@AfxCrtErro:

; 528  : }

  00028	00 00 00 00	 DD	 $LN7@AfxCrtErro
  0002c	00 00 00 00	 DD	 $LN4@AfxCrtErro
  00030	00 00 00 00	 DD	 $LN9@AfxCrtErro
  00034	00 00 00 00	 DD	 $LN9@AfxCrtErro
$LN11@AfxCrtErro:
  00038	00		 DB	 0
  00039	03		 DB	 3
  0003a	03		 DB	 3
  0003b	03		 DB	 3
  0003c	03		 DB	 3
  0003d	03		 DB	 3
  0003e	03		 DB	 3
  0003f	03		 DB	 3
  00040	03		 DB	 3
  00041	03		 DB	 3
  00042	03		 DB	 3
  00043	03		 DB	 3
  00044	01		 DB	 1
  00045	03		 DB	 3
  00046	03		 DB	 3
  00047	03		 DB	 3
  00048	03		 DB	 3
  00049	03		 DB	 3
  0004a	03		 DB	 3
  0004b	03		 DB	 3
  0004c	03		 DB	 3
  0004d	03		 DB	 3
  0004e	02		 DB	 2
  0004f	03		 DB	 3
  00050	03		 DB	 3
  00051	03		 DB	 3
  00052	03		 DB	 3
  00053	03		 DB	 3
  00054	03		 DB	 3
  00055	03		 DB	 3
  00056	03		 DB	 3
  00057	03		 DB	 3
  00058	03		 DB	 3
  00059	03		 DB	 3
  0005a	02		 DB	 2
  0005b	03		 DB	 3
  0005c	03		 DB	 3
  0005d	03		 DB	 3
  0005e	03		 DB	 3
  0005f	03		 DB	 3
  00060	03		 DB	 3
  00061	03		 DB	 3
  00062	03		 DB	 3
  00063	03		 DB	 3
  00064	03		 DB	 3
  00065	03		 DB	 3
  00066	03		 DB	 3
  00067	03		 DB	 3
  00068	03		 DB	 3
  00069	03		 DB	 3
  0006a	03		 DB	 3
  0006b	03		 DB	 3
  0006c	03		 DB	 3
  0006d	03		 DB	 3
  0006e	03		 DB	 3
  0006f	03		 DB	 3
  00070	03		 DB	 3
  00071	03		 DB	 3
  00072	03		 DB	 3
  00073	03		 DB	 3
  00074	03		 DB	 3
  00075	03		 DB	 3
  00076	03		 DB	 3
  00077	03		 DB	 3
  00078	03		 DB	 3
  00079	03		 DB	 3
  0007a	03		 DB	 3
  0007b	03		 DB	 3
  0007c	03		 DB	 3
  0007d	03		 DB	 3
  0007e	03		 DB	 3
  0007f	03		 DB	 3
  00080	03		 DB	 3
  00081	03		 DB	 3
  00082	03		 DB	 3
  00083	03		 DB	 3
  00084	03		 DB	 3
  00085	03		 DB	 3
  00086	03		 DB	 3
  00087	03		 DB	 3
  00088	00		 DB	 0
?AfxCrtErrorCheck@@YAHH@Z ENDP				; AfxCrtErrorCheck
_TEXT	ENDS
; Function compile flags: /Ogtp
; File C:\Program Files (x86)\Windows Kits\10\Include\10.0.26100.0\ucrt\stdio.h
;	COMDAT _sprintf
_TEXT	SEGMENT
__Buffer$ = 8						; size = 4
__Format$ = 12						; size = 4
_sprintf PROC						; COMDAT

; 1771 :     {

  00000	55		 push	 ebp
  00001	8b ec		 mov	 ebp, esp

; 1392 :         int const _Result = __stdio_common_vsprintf(

  00003	8d 45 10	 lea	 eax, DWORD PTR __Format$[ebp+4]
  00006	50		 push	 eax
  00007	6a 00		 push	 0
  00009	ff 75 0c	 push	 DWORD PTR __Format$[ebp]
  0000c	6a ff		 push	 -1
  0000e	ff 75 08	 push	 DWORD PTR __Buffer$[ebp]
  00011	e8 00 00 00 00	 call	 ___local_stdio_printf_options
  00016	8b 08		 mov	 ecx, DWORD PTR [eax]
  00018	ff 70 04	 push	 DWORD PTR [eax+4]
  0001b	83 c9 01	 or	 ecx, 1
  0001e	51		 push	 ecx
  0001f	e8 00 00 00 00	 call	 ___stdio_common_vsprintf

; 1393 :             _CRT_INTERNAL_LOCAL_PRINTF_OPTIONS | _CRT_INTERNAL_PRINTF_LEGACY_VSPRINTF_NULL_TERMINATION,
; 1394 :             _Buffer, _BufferCount, _Format, _Locale, _ArgList);
; 1395 : 
; 1396 :         return _Result < 0 ? -1 : _Result;

  00024	83 c9 ff	 or	 ecx, -1
  00027	83 c4 1c	 add	 esp, 28			; 0000001cH
  0002a	85 c0		 test	 eax, eax
  0002c	0f 48 c1	 cmovs	 eax, ecx

; 1772 :         int _Result;
; 1773 :         va_list _ArgList;
; 1774 :         __crt_va_start(_ArgList, _Format);
; 1775 : 
; 1776 :         _Result = _vsprintf_l(_Buffer, _Format, NULL, _ArgList);
; 1777 : 
; 1778 :         __crt_va_end(_ArgList);
; 1779 :         return _Result;
; 1780 :     }

  0002f	5d		 pop	 ebp
  00030	c3		 ret	 0
_sprintf ENDP
_TEXT	ENDS
; Function compile flags: /Ogtp
; File C:\Program Files (x86)\Windows Kits\10\Include\10.0.26100.0\ucrt\corecrt_stdio_config.h
;	COMDAT ___local_stdio_printf_options
_TEXT	SEGMENT
___local_stdio_printf_options PROC			; COMDAT

; 91   :         static unsigned __int64 _OptionsStorage;
; 92   :         return &_OptionsStorage;

  00000	b8 00 00 00 00	 mov	 eax, OFFSET ?_OptionsStorage@?1??__local_stdio_printf_options@@9@4_KA ; `__local_stdio_printf_options'::`2'::_OptionsStorage

; 93   :     }

  00005	c3		 ret	 0
___local_stdio_printf_options ENDP
_TEXT	ENDS
; Function compile flags: /Ogtp
; File C:\IAGOS\server\v18\Source\Source\_Common\spevent.cpp
;	COMDAT ?__empty_global_delete@@YAXPAXI@Z
_TEXT	SEGMENT
___formal$ = 8						; size = 4
___formal$ = 12						; size = 4
?__empty_global_delete@@YAXPAXI@Z PROC			; __empty_global_delete, COMDAT

  00000	c2 00 00	 ret	 0
?__empty_global_delete@@YAXPAXI@Z ENDP			; __empty_global_delete
_TEXT	ENDS
; Function compile flags: /Ogtp
; File C:\IAGOS\server\v18\Source\Source\_Common\spevent.cpp
;	COMDAT ?__empty_global_delete@@YAXPAX@Z
_TEXT	SEGMENT
___formal$ = 8						; size = 4
?__empty_global_delete@@YAXPAX@Z PROC			; __empty_global_delete, COMDAT

  00000	c2 00 00	 ret	 0
?__empty_global_delete@@YAXPAX@Z ENDP			; __empty_global_delete
_TEXT	ENDS
END
