; Listing generated by Microsoft (R) Optimizing Compiler Version 19.44.35225.0 

	TITLE	C:\IAGOS\server\v18\Source\Output\DatabaseServer\Release\Tax.obj
	.686P
	.XMM
	include listing.inc
	.model	flat

INCLUDELIB LIBCMT
INCLUDELIB OLDNAMES

PUBLIC	?__empty_global_delete@@YAXPAX@Z		; __empty_global_delete
PUBLIC	?__empty_global_delete@@YAXPAXI@Z		; __empty_global_delete
PUBLIC	___local_stdio_printf_options
PUBLIC	_sprintf
PUBLIC	??1?$CStringT@DV?$StrTraitMFC@DV?$ChTraitsCRT@D@ATL@@@@@ATL@@QAE@XZ ; ATL::CStringT<char,StrTraitMFC<char,ATL::ChTraitsCRT<char> > >::~CStringT<char,StrTraitMFC<char,ATL::ChTraitsCRT<char> > >
PUBLIC	??0exception@std@@QAE@ABV01@@Z			; std::exception::exception
PUBLIC	??1exception@std@@UAE@XZ			; std::exception::~exception
PUBLIC	?what@exception@std@@UBEPBDXZ			; std::exception::what
PUBLIC	??_Gexception@std@@UAEPAXI@Z			; std::exception::`scalar deleting destructor'
PUBLIC	??0bad_alloc@std@@QAE@ABV01@@Z			; std::bad_alloc::bad_alloc
PUBLIC	??_Gbad_alloc@std@@UAEPAXI@Z			; std::bad_alloc::`scalar deleting destructor'
PUBLIC	??0bad_array_new_length@std@@QAE@XZ		; std::bad_array_new_length::bad_array_new_length
PUBLIC	??1bad_array_new_length@std@@UAE@XZ		; std::bad_array_new_length::~bad_array_new_length
PUBLIC	??0bad_array_new_length@std@@QAE@ABV01@@Z	; std::bad_array_new_length::bad_array_new_length
PUBLIC	??_Gbad_array_new_length@std@@UAEPAXI@Z		; std::bad_array_new_length::`scalar deleting destructor'
PUBLIC	?_Throw_bad_array_new_length@std@@YAXXZ		; std::_Throw_bad_array_new_length
PUBLIC	?_Xlen_string@std@@YAXXZ			; std::_Xlen_string
PUBLIC	??1?$basic_string@DU?$char_traits@D@std@@V?$allocator@D@2@@std@@QAE@XZ ; std::basic_string<char,std::char_traits<char>,std::allocator<char> >::~basic_string<char,std::char_traits<char>,std::allocator<char> >
PUBLIC	??4?$basic_string@DU?$char_traits@D@std@@V?$allocator@D@2@@std@@QAEAAV01@QBD@Z ; std::basic_string<char,std::char_traits<char>,std::allocator<char> >::operator=
PUBLIC	?_Throw_tree_length_error@std@@YAXXZ		; std::_Throw_tree_length_error
PUBLIC	??1?$vector@KV?$allocator@K@std@@@std@@QAE@XZ	; std::vector<unsigned long,std::allocator<unsigned long> >::~vector<unsigned long,std::allocator<unsigned long> >
PUBLIC	?_Xlength@?$vector@KV?$allocator@K@std@@@std@@CAXXZ ; std::vector<unsigned long,std::allocator<unsigned long> >::_Xlength
PUBLIC	??$_Allocate_manually_vector_aligned@U_Default_allocate_traits@std@@@std@@YAPAXI@Z ; std::_Allocate_manually_vector_aligned<std::_Default_allocate_traits>
PUBLIC	??0CTaxDBController@@QAE@XZ			; CTaxDBController::CTaxDBController
PUBLIC	??1CTaxDBController@@UAE@XZ			; CTaxDBController::~CTaxDBController
PUBLIC	?Handler@CTaxDBController@@UAEXPAUtagDB_OVERLAPPED_PLUS@@K@Z ; CTaxDBController::Handler
PUBLIC	?OnTimer@CTaxDBController@@UAEXXZ		; CTaxDBController::OnTimer
PUBLIC	?PayTaxToPost@CTaxDBController@@AAEXXZ		; CTaxDBController::PayTaxToPost
PUBLIC	?LoadTaxInfo@CTaxDBController@@AAEXXZ		; CTaxDBController::LoadTaxInfo
PUBLIC	?InsertToDB@CTaxDBController@@AAEXXZ		; CTaxDBController::InsertToDB
PUBLIC	?UpdateToDB@CTaxDBController@@AAEXE@Z		; CTaxDBController::UpdateToDB
PUBLIC	?UpdateAllToDB@CTaxDBController@@AAEXXZ		; CTaxDBController::UpdateAllToDB
PUBLIC	??_GCTaxDBController@@UAEPAXI@Z			; CTaxDBController::`scalar deleting destructor'
PUBLIC	??1?$_Tree@V?$_Tmap_traits@EPAU__TAXDETAIL@@U?$less@E@std@@V?$allocator@U?$pair@$$CBEPAU__TAXDETAIL@@@std@@@3@$0A@@std@@@std@@QAE@XZ ; std::_Tree<std::_Tmap_traits<unsigned char,__TAXDETAIL *,std::less<unsigned char>,std::allocator<std::pair<unsigned char const ,__TAXDETAIL *> >,0> >::~_Tree<std::_Tmap_traits<unsigned char,__TAXDETAIL *,std::less<unsigned char>,std::allocator<std::pair<unsigned char const ,__TAXDETAIL *> >,0> >
PUBLIC	?_Insert_node@?$_Tree_val@U?$_Tree_simple_types@U?$pair@$$CBEPAU__TAXDETAIL@@@std@@@std@@@std@@QAEPAU?$_Tree_node@U?$pair@$$CBEPAU__TAXDETAIL@@@std@@PAX@2@U?$_Tree_id@PAU?$_Tree_node@U?$pair@$$CBEPAU__TAXDETAIL@@@std@@PAX@std@@@2@QAU32@@Z ; std::_Tree_val<std::_Tree_simple_types<std::pair<unsigned char const ,__TAXDETAIL *> > >::_Insert_node
PUBLIC	??1?$map@EPAU__TAXDETAIL@@U?$less@E@std@@V?$allocator@U?$pair@$$CBEPAU__TAXDETAIL@@@std@@@3@@std@@QAE@XZ ; std::map<unsigned char,__TAXDETAIL *,std::less<unsigned char>,std::allocator<std::pair<unsigned char const ,__TAXDETAIL *> > >::~map<unsigned char,__TAXDETAIL *,std::less<unsigned char>,std::allocator<std::pair<unsigned char const ,__TAXDETAIL *> > >
PUBLIC	??0__TAXINFO@@QAE@XZ				; __TAXINFO::__TAXINFO
PUBLIC	??$insert@U?$pair@EPAU__TAXDETAIL@@@std@@$0A@@?$map@EPAU__TAXDETAIL@@U?$less@E@std@@V?$allocator@U?$pair@$$CBEPAU__TAXDETAIL@@@std@@@3@@std@@QAE?AU?$pair@V?$_Tree_iterator@V?$_Tree_val@U?$_Tree_simple_types@U?$pair@$$CBEPAU__TAXDETAIL@@@std@@@std@@@std@@@std@@_N@1@$$QAU?$pair@EPAU__TAXDETAIL@@@1@@Z ; std::map<unsigned char,__TAXDETAIL *,std::less<unsigned char>,std::allocator<std::pair<unsigned char const ,__TAXDETAIL *> > >::insert<std::pair<unsigned char,__TAXDETAIL *>,0>
PUBLIC	??E?$_Tree_iterator@V?$_Tree_val@U?$_Tree_simple_types@U?$pair@$$CBEPAU__TAXDETAIL@@@std@@@std@@@std@@@std@@QAE?AV01@H@Z ; std::_Tree_iterator<std::_Tree_val<std::_Tree_simple_types<std::pair<unsigned char const ,__TAXDETAIL *> > > >::operator++
PUBLIC	??0CTax@@QAE@XZ					; CTax::CTax
PUBLIC	??1CTax@@QAE@XZ					; CTax::~CTax
PUBLIC	?GetInstance@CTax@@SAPAV1@XZ			; CTax::GetInstance
PUBLIC	?Serialize@CTax@@QAEXAAVCAr@@@Z			; CTax::Serialize
PUBLIC	??1?$_Tree@V?$_Tmap_traits@EPAU__TAXINFO@@U?$less@E@std@@V?$allocator@U?$pair@$$CBEPAU__TAXINFO@@@std@@@3@$0A@@std@@@std@@QAE@XZ ; std::_Tree<std::_Tmap_traits<unsigned char,__TAXINFO *,std::less<unsigned char>,std::allocator<std::pair<unsigned char const ,__TAXINFO *> >,0> >::~_Tree<std::_Tmap_traits<unsigned char,__TAXINFO *,std::less<unsigned char>,std::allocator<std::pair<unsigned char const ,__TAXINFO *> >,0> >
PUBLIC	?_Insert_node@?$_Tree_val@U?$_Tree_simple_types@U?$pair@$$CBEPAU__TAXINFO@@@std@@@std@@@std@@QAEPAU?$_Tree_node@U?$pair@$$CBEPAU__TAXINFO@@@std@@PAX@2@U?$_Tree_id@PAU?$_Tree_node@U?$pair@$$CBEPAU__TAXINFO@@@std@@PAX@std@@@2@QAU32@@Z ; std::_Tree_val<std::_Tree_simple_types<std::pair<unsigned char const ,__TAXINFO *> > >::_Insert_node
PUBLIC	??1?$map@EPAU__TAXINFO@@U?$less@E@std@@V?$allocator@U?$pair@$$CBEPAU__TAXINFO@@@std@@@3@@std@@QAE@XZ ; std::map<unsigned char,__TAXINFO *,std::less<unsigned char>,std::allocator<std::pair<unsigned char const ,__TAXINFO *> > >::~map<unsigned char,__TAXINFO *,std::less<unsigned char>,std::allocator<std::pair<unsigned char const ,__TAXINFO *> > >
PUBLIC	?GetTaxInfo@CTax@@QAEPAU__TAXINFO@@E@Z		; CTax::GetTaxInfo
PUBLIC	?SetNextSecretRoomGuild@CTax@@QAEXEK@Z		; CTax::SetNextSecretRoomGuild
PUBLIC	?SetNextLord@CTax@@QAEXK@Z			; CTax::SetNextLord
PUBLIC	?SetNextTaxRate@CTax@@QAEXEHH@Z			; CTax::SetNextTaxRate
PUBLIC	?SetApplyTaxRateNow@CTax@@QAEXXZ		; CTax::SetApplyTaxRateNow
PUBLIC	?AddTax@CTax@@QAEHEHE@Z				; CTax::AddTax
PUBLIC	?LoadScript@CTax@@QAEXXZ			; CTax::LoadScript
PUBLIC	?CheckPayTime@CTax@@QAEHXZ			; CTax::CheckPayTime
PUBLIC	?CheckChangeTime@CTax@@QAEXHH@Z			; CTax::CheckChangeTime
PUBLIC	?SetChangeNextTax@CTax@@QAEXXZ			; CTax::SetChangeNextTax
PUBLIC	?GetEarningRate@CTax@@QAEMEE@Z			; CTax::GetEarningRate
PUBLIC	?LoadTaxInfo@CTax@@QAEXK@Z			; CTax::LoadTaxInfo
PUBLIC	??$?6H@CAr@@QAEAAV0@ABH@Z			; CAr::operator<<<int>
PUBLIC	??$?5H@CAr@@QAEAAV0@AAH@Z			; CAr::operator>><int>
PUBLIC	??$?6K@CAr@@QAEAAV0@ABK@Z			; CAr::operator<<<unsigned long>
PUBLIC	??$?5K@CAr@@QAEAAV0@AAK@Z			; CAr::operator>><unsigned long>
PUBLIC	??$insert@U?$pair@HPAU__TAXINFO@@@std@@$0A@@?$map@EPAU__TAXINFO@@U?$less@E@std@@V?$allocator@U?$pair@$$CBEPAU__TAXINFO@@@std@@@3@@std@@QAE?AU?$pair@V?$_Tree_iterator@V?$_Tree_val@U?$_Tree_simple_types@U?$pair@$$CBEPAU__TAXINFO@@@std@@@std@@@std@@@std@@_N@1@$$QAU?$pair@HPAU__TAXINFO@@@1@@Z ; std::map<unsigned char,__TAXINFO *,std::less<unsigned char>,std::allocator<std::pair<unsigned char const ,__TAXINFO *> > >::insert<std::pair<int,__TAXINFO *>,0>
PUBLIC	??E?$_Tree_iterator@V?$_Tree_val@U?$_Tree_simple_types@U?$pair@$$CBEPAU__TAXINFO@@@std@@@std@@@std@@@std@@QAE?AV01@H@Z ; std::_Tree_iterator<std::_Tree_val<std::_Tree_simple_types<std::pair<unsigned char const ,__TAXINFO *> > > >::operator++
PUBLIC	??$?6I@CAr@@QAEAAV0@ABI@Z			; CAr::operator<<<unsigned int>
PUBLIC	??$?6E@CAr@@QAEAAV0@ABE@Z			; CAr::operator<<<unsigned char>
PUBLIC	??$?5E@CAr@@QAEAAV0@AAE@Z			; CAr::operator>><unsigned char>
PUBLIC	??$_Erase_tree@V?$allocator@U?$_Tree_node@U?$pair@$$CBEPAU__TAXINFO@@@std@@PAX@std@@@std@@@?$_Tree_val@U?$_Tree_simple_types@U?$pair@$$CBEPAU__TAXINFO@@@std@@@std@@@std@@QAEXAAV?$allocator@U?$_Tree_node@U?$pair@$$CBEPAU__TAXINFO@@@std@@PAX@std@@@1@PAU?$_Tree_node@U?$pair@$$CBEPAU__TAXINFO@@@std@@PAX@1@@Z ; std::_Tree_val<std::_Tree_simple_types<std::pair<unsigned char const ,__TAXINFO *> > >::_Erase_tree<std::allocator<std::_Tree_node<std::pair<unsigned char const ,__TAXINFO *>,void *> > >
PUBLIC	??$_Find_lower_bound@E@?$_Tree@V?$_Tmap_traits@EPAU__TAXINFO@@U?$less@E@std@@V?$allocator@U?$pair@$$CBEPAU__TAXINFO@@@std@@@3@$0A@@std@@@std@@IBE?AU?$_Tree_find_result@PAU?$_Tree_node@U?$pair@$$CBEPAU__TAXINFO@@@std@@PAX@std@@@1@ABE@Z ; std::_Tree<std::_Tmap_traits<unsigned char,__TAXINFO *,std::less<unsigned char>,std::allocator<std::pair<unsigned char const ,__TAXINFO *> >,0> >::_Find_lower_bound<unsigned char>
PUBLIC	??$_Find_lower_bound@E@?$_Tree@V?$_Tmap_traits@EPAU__TAXDETAIL@@U?$less@E@std@@V?$allocator@U?$pair@$$CBEPAU__TAXDETAIL@@@std@@@3@$0A@@std@@@std@@IBE?AU?$_Tree_find_result@PAU?$_Tree_node@U?$pair@$$CBEPAU__TAXDETAIL@@@std@@PAX@std@@@1@ABE@Z ; std::_Tree<std::_Tmap_traits<unsigned char,__TAXDETAIL *,std::less<unsigned char>,std::allocator<std::pair<unsigned char const ,__TAXDETAIL *> >,0> >::_Find_lower_bound<unsigned char>
PUBLIC	??$_Erase_tree@V?$allocator@U?$_Tree_node@U?$pair@$$CBEPAU__TAXDETAIL@@@std@@PAX@std@@@std@@@?$_Tree_val@U?$_Tree_simple_types@U?$pair@$$CBEPAU__TAXDETAIL@@@std@@@std@@@std@@QAEXAAV?$allocator@U?$_Tree_node@U?$pair@$$CBEPAU__TAXDETAIL@@@std@@PAX@std@@@1@PAU?$_Tree_node@U?$pair@$$CBEPAU__TAXDETAIL@@@std@@PAX@1@@Z ; std::_Tree_val<std::_Tree_simple_types<std::pair<unsigned char const ,__TAXDETAIL *> > >::_Erase_tree<std::allocator<std::_Tree_node<std::pair<unsigned char const ,__TAXDETAIL *>,void *> > >
PUBLIC	??$_Emplace_reallocate@K@?$vector@KV?$allocator@K@std@@@std@@AAEPAKQAK$$QAK@Z ; std::vector<unsigned long,std::allocator<unsigned long> >::_Emplace_reallocate<unsigned long>
PUBLIC	??1?$_Alloc_construct_ptr@V?$allocator@U?$_Tree_node@U?$pair@$$CBEPAU__TAXDETAIL@@@std@@PAX@std@@@std@@@std@@QAE@XZ ; std::_Alloc_construct_ptr<std::allocator<std::_Tree_node<std::pair<unsigned char const ,__TAXDETAIL *>,void *> > >::~_Alloc_construct_ptr<std::allocator<std::_Tree_node<std::pair<unsigned char const ,__TAXDETAIL *>,void *> > >
PUBLIC	??1?$_Alloc_construct_ptr@V?$allocator@U?$_Tree_node@U?$pair@$$CBEPAU__TAXINFO@@@std@@PAX@std@@@std@@@std@@QAE@XZ ; std::_Alloc_construct_ptr<std::allocator<std::_Tree_node<std::pair<unsigned char const ,__TAXINFO *>,void *> > >::~_Alloc_construct_ptr<std::allocator<std::_Tree_node<std::pair<unsigned char const ,__TAXINFO *>,void *> > >
PUBLIC	??1?$_Tree_temp_node@V?$allocator@U?$_Tree_node@U?$pair@$$CBEPAU__TAXINFO@@@std@@PAX@std@@@std@@@std@@QAE@XZ ; std::_Tree_temp_node<std::allocator<std::_Tree_node<std::pair<unsigned char const ,__TAXINFO *>,void *> > >::~_Tree_temp_node<std::allocator<std::_Tree_node<std::pair<unsigned char const ,__TAXINFO *>,void *> > >
PUBLIC	??$_Copy_memmove@PAKPAK@std@@YAPAKPAK00@Z	; std::_Copy_memmove<unsigned long *,unsigned long *>
PUBLIC	??$_Copy_memmove_tail@PAK@std@@YAPAKQBDQAKII@Z	; std::_Copy_memmove_tail<unsigned long *>
PUBLIC	?_OptionsStorage@?1??__local_stdio_printf_options@@9@4_KA ; `__local_stdio_printf_options'::`2'::_OptionsStorage
PUBLIC	??_C@_00CNPNBAHC@@				; `string'
PUBLIC	??_7exception@std@@6B@				; std::exception::`vftable'
PUBLIC	??_C@_0BC@EOODALEL@Unknown?5exception@		; `string'
PUBLIC	??_7bad_alloc@std@@6B@				; std::bad_alloc::`vftable'
PUBLIC	??_7bad_array_new_length@std@@6B@		; std::bad_array_new_length::`vftable'
PUBLIC	??_C@_0BF@KINCDENJ@bad?5array?5new?5length@	; `string'
PUBLIC	??_R0?AVexception@std@@@8			; std::exception `RTTI Type Descriptor'
PUBLIC	__CT??_R0?AVexception@std@@@8??0exception@std@@QAE@ABV01@@Z12
PUBLIC	__TI3?AVbad_array_new_length@std@@
PUBLIC	__CTA3?AVbad_array_new_length@std@@
PUBLIC	??_R0?AVbad_array_new_length@std@@@8		; std::bad_array_new_length `RTTI Type Descriptor'
PUBLIC	__CT??_R0?AVbad_array_new_length@std@@@8??0bad_array_new_length@std@@QAE@ABV01@@Z12
PUBLIC	??_R0?AVbad_alloc@std@@@8			; std::bad_alloc `RTTI Type Descriptor'
PUBLIC	__CT??_R0?AVbad_alloc@std@@@8??0bad_alloc@std@@QAE@ABV01@@Z12
PUBLIC	??_C@_0BA@JFNIOLAK@string?5too?5long@		; `string'
PUBLIC	??_C@_0BB@GCADKGJO@map?1set?5too?5long@		; `string'
PUBLIC	??_C@_09GBAEEKDE@?$CFs?0?5?$CFd?7?$CFs@		; `string'
PUBLIC	??_C@_0BA@FOIKENOD@vector?5too?5long@		; `string'
PUBLIC	??_R4exception@std@@6B@				; std::exception::`RTTI Complete Object Locator'
PUBLIC	??_R3exception@std@@8				; std::exception::`RTTI Class Hierarchy Descriptor'
PUBLIC	??_R2exception@std@@8				; std::exception::`RTTI Base Class Array'
PUBLIC	??_R1A@?0A@EA@exception@std@@8			; std::exception::`RTTI Base Class Descriptor at (0,-1,0,64)'
PUBLIC	??_R4bad_array_new_length@std@@6B@		; std::bad_array_new_length::`RTTI Complete Object Locator'
PUBLIC	??_R3bad_array_new_length@std@@8		; std::bad_array_new_length::`RTTI Class Hierarchy Descriptor'
PUBLIC	??_R2bad_array_new_length@std@@8		; std::bad_array_new_length::`RTTI Base Class Array'
PUBLIC	??_R1A@?0A@EA@bad_array_new_length@std@@8	; std::bad_array_new_length::`RTTI Base Class Descriptor at (0,-1,0,64)'
PUBLIC	??_R1A@?0A@EA@bad_alloc@std@@8			; std::bad_alloc::`RTTI Base Class Descriptor at (0,-1,0,64)'
PUBLIC	??_R3bad_alloc@std@@8				; std::bad_alloc::`RTTI Class Hierarchy Descriptor'
PUBLIC	??_R2bad_alloc@std@@8				; std::bad_alloc::`RTTI Base Class Array'
PUBLIC	??_R4bad_alloc@std@@6B@				; std::bad_alloc::`RTTI Complete Object Locator'
PUBLIC	??_7CTaxDBController@@6B@			; CTaxDBController::`vftable'
PUBLIC	??_C@_0CG@PBPHIFHD@CTax?5?9?5m_Controller?4CreateDbHan@ ; `string'
PUBLIC	??_C@_0CI@EGGDFMCC@CTax?3?3GetTaxInfo?$CI?$CJ?5?9?5?$MA?$NP?$LI?x?$LF?H?5?$LE?k?$LH@ ; `string'
PUBLIC	??_C@_07KANMDMNE@Tax?4lua@			; `string'
PUBLIC	??_C@_0BH@GCMNILJK@Tax?4lua?5Run?5Failed?5?$CB?$CB?$CB@ ; `string'
PUBLIC	??_C@_0L@KBBAAJBF@MinTaxRate@			; `string'
PUBLIC	??_C@_0L@GNBNHCBK@MaxTaxRate@			; `string'
PUBLIC	??_C@_0BC@HLGHAKHH@TaxSecretRoomRate@		; `string'
PUBLIC	??_C@_0M@JMFHEJJO@TaxLordRate@			; `string'
PUBLIC	??_C@_0BI@LJACBDPE@AdmissionSecretRoomRate@	; `string'
PUBLIC	??_C@_0BC@LCJMAADJ@AdmissionLordRate@		; `string'
PUBLIC	??_C@_0M@FELENEOA@DBSaveCount@			; `string'
PUBLIC	??_C@_0BE@DCFJJNKF@tOccupationShopItem@		; `string'
PUBLIC	??_C@_0BA@LNDBAGIB@CheckChangeTime@		; `string'
PUBLIC	??_C@_0N@JMAFDKBD@CheckPayTime@			; `string'
PUBLIC	??_C@_0DF@PKLOAGED@TAX_INFO_STR?5?8S3?8?0?5?8?$CF02d?8?0?50?0?50@ ; `string'
PUBLIC	??_C@_0L@FONFFEJF@m_idPlayer@			; `string'
PUBLIC	??_C@_0DC@PBFLEGFH@C?3?2IAGOS?2server?2v18?2Source?2Sour@ ; `string'
PUBLIC	??_C@_0DC@HDFAFDC@TAX_INFO_STR?5?8S1?8?0?5?8?$CF02d?8?0?50?0?50@ ; `string'
PUBLIC	??_C@_06DJGFEEME@nTimes@			; `string'
PUBLIC	??_C@_0L@MDNPPPLJ@GetNowDate@			; `string'
PUBLIC	??_C@_0DE@DAPHDHAC@TAX_INFO_STR?5?8S2?8?0?5?8?$CF02d?8?0?5?$CFd?0?5@ ; `string'
PUBLIC	??_C@_04EINJHNAE@dwID@				; `string'
PUBLIC	??_C@_08DEEAJDDG@dwNextID@			; `string'
PUBLIC	??_C@_0M@KKHJELKN@bSetTaxRate@			; `string'
PUBLIC	??_C@_0M@HHPEIMLI@change_time@			; `string'
PUBLIC	??_C@_0DG@HDJLKLGO@TAX_DETAIL_STR?5?8S2?8?0?5?8?$CF02d?8?0?5?$CFd@ ; `string'
PUBLIC	??_C@_08LMFOBNPO@nTaxKind@			; `string'
PUBLIC	??_C@_0ED@KONCKI@LoadTaxInfo?$CI?$CJ?5?9?5taxDetail?5is?5wr@ ; `string'
PUBLIC	??_C@_08BMLANHAF@nTaxRate@			; `string'
PUBLIC	??_C@_09PIHGBPHB@nTaxCount@			; `string'
PUBLIC	??_C@_08FPEBHLEN@nTaxGold@			; `string'
PUBLIC	??_C@_09BPDBKDAC@nTaxPerin@			; `string'
PUBLIC	??_C@_0N@CFHJAANA@nNextTaxRate@			; `string'
PUBLIC	??_C@_0DM@IEFKIIDM@TAX_INFO_STR?5?8I1?8?0?5?8?$CF02d?8?0?5?$CFd?0?5@ ; `string'
PUBLIC	??_C@_0DM@PFLMCPAK@TAX_DETAIL_STR?5?8I1?8?0?5?8?$CF02d?8?0?5?$CFd@ ; `string'
PUBLIC	??_C@_0DA@LBKMKMAC@UpdateToDB?$CI?$CJ?5?9?5taxInfo?5is?5NULL?0@ ; `string'
PUBLIC	??_C@_0DL@EDBIPHKJ@TAX_INFO_STR?5?8U1?8?0?5?8?$CF02d?8?0?5?$CFd?0?5@ ; `string'
PUBLIC	??_C@_0DM@BIDMIHDA@TAX_DETAIL_STR?5?8U1?8?0?5?8?$CF02d?8?0?5?$CFd@ ; `string'
PUBLIC	??_R4CTaxDBController@@6B@			; CTaxDBController::`RTTI Complete Object Locator'
PUBLIC	??_R0?AVCTaxDBController@@@8			; CTaxDBController `RTTI Type Descriptor'
PUBLIC	??_R3CTaxDBController@@8			; CTaxDBController::`RTTI Class Hierarchy Descriptor'
PUBLIC	??_R2CTaxDBController@@8			; CTaxDBController::`RTTI Base Class Array'
PUBLIC	??_R1A@?0A@EA@CTaxDBController@@8		; CTaxDBController::`RTTI Base Class Descriptor at (0,-1,0,64)'
PUBLIC	??_R1A@?0A@EA@CDbController@@8			; CDbController::`RTTI Base Class Descriptor at (0,-1,0,64)'
PUBLIC	??_R0?AVCDbController@@@8			; CDbController `RTTI Type Descriptor'
PUBLIC	??_R3CDbController@@8				; CDbController::`RTTI Class Hierarchy Descriptor'
PUBLIC	??_R2CDbController@@8				; CDbController::`RTTI Base Class Array'
PUBLIC	__real@3dcccccd
EXTRN	??2@YAPAXI@Z:PROC				; operator new
EXTRN	??3@YAXPAXI@Z:PROC				; operator delete
EXTRN	_atexit:PROC
EXTRN	__Init_thread_header:PROC
EXTRN	__Init_thread_abort:PROC
EXTRN	__Init_thread_footer:PROC
EXTRN	__invoke_watson:PROC
EXTRN	___stdio_common_vsprintf:PROC
EXTRN	__localtime64_s:PROC
EXTRN	__time32:PROC
EXTRN	__time64:PROC
EXTRN	?AfxThrowMemoryException@@YGXXZ:PROC		; AfxThrowMemoryException
EXTRN	?AfxThrowOleException@@YGXJ@Z:PROC		; AfxThrowOleException
EXTRN	?_Xlength_error@std@@YAXPBD@Z:PROC		; std::_Xlength_error
EXTRN	___std_exception_copy:PROC
EXTRN	___std_exception_destroy:PROC
EXTRN	??_Eexception@std@@UAEPAXI@Z:PROC		; std::exception::`vector deleting destructor'
EXTRN	??_Ebad_alloc@std@@UAEPAXI@Z:PROC		; std::bad_alloc::`vector deleting destructor'
EXTRN	??_Ebad_array_new_length@std@@UAEPAXI@Z:PROC	; std::bad_array_new_length::`vector deleting destructor'
EXTRN	?Error@@YAPBDPBDZZ:PROC				; Error
EXTRN	?GetDefineNum@CScript@@SAHPBD@Z:PROC		; CScript::GetDefineNum
EXTRN	_lua_toboolean:PROC
EXTRN	_lua_tolstring:PROC
EXTRN	_lua_pushnil:PROC
EXTRN	_lua_pushstring:PROC
EXTRN	_lua_getglobal:PROC
EXTRN	_lua_next:PROC
EXTRN	??0CLuaBase@@QAE@XZ:PROC			; CLuaBase::CLuaBase
EXTRN	??1CLuaBase@@UAE@XZ:PROC			; CLuaBase::~CLuaBase
EXTRN	?RunScript@CLuaBase@@QAEHPBD@Z:PROC		; CLuaBase::RunScript
EXTRN	?Pop@CLuaBase@@QAEXH@Z:PROC			; CLuaBase::Pop
EXTRN	?GetGlobalNumber@CLuaBase@@QAENPAD@Z:PROC	; CLuaBase::GetGlobalNumber
EXTRN	?GetLuaFunction@CLuaBase@@QAEHPAD@Z:PROC	; CLuaBase::GetLuaFunction
EXTRN	?CallLuaFunction@CLuaBase@@QAEXHH@Z:PROC	; CLuaBase::CallLuaFunction
EXTRN	?WriteLog@@YAXPBDZZ:PROC			; WriteLog
EXTRN	?Exec@CQuery@@QAEHPBD@Z:PROC			; CQuery::Exec
EXTRN	?Fetch@CQuery@@QAEHXZ:PROC			; CQuery::Fetch
EXTRN	?GetInt@CQuery@@QAEHPAD@Z:PROC			; CQuery::GetInt
EXTRN	?GetStr@CQuery@@QAEXPAD0@Z:PROC			; CQuery::GetStr
EXTRN	??0CAr@@QAE@PAXI@Z:PROC				; CAr::CAr
EXTRN	??1CAr@@QAE@XZ:PROC				; CAr::~CAr
EXTRN	?CheckBuf@CAr@@QAEXI@Z:PROC			; CAr::CheckBuf
EXTRN	??0CItemElem@@QAE@XZ:PROC			; CItemElem::CItemElem
EXTRN	?GetInstance@CContinent@@SAPAV1@XZ:PROC		; CContinent::GetInstance
EXTRN	?GetContinentName@CContinent@@QAE?AV?$CStringT@DV?$StrTraitMFC@DV?$ChTraitsCRT@D@ATL@@@@@ATL@@E@Z:PROC ; CContinent::GetContinentName
EXTRN	??0CDbController@@QAE@XZ:PROC			; CDbController::CDbController
EXTRN	??1CDbController@@UAE@XZ:PROC			; CDbController::~CDbController
EXTRN	?CreateDbHandler@CDbController@@QAEHK@Z:PROC	; CDbController::CreateDbHandler
EXTRN	?CloseDbHandler@CDbController@@QAEXXZ:PROC	; CDbController::CloseDbHandler
EXTRN	?PostRequest@CDbController@@QAEHHPAEHK@Z:PROC	; CDbController::PostRequest
EXTRN	?Post@post@@YAXKPAVCMail@@PAVCQuery@@@Z:PROC	; post::Post
EXTRN	??_ECTaxDBController@@UAEPAXI@Z:PROC		; CTaxDBController::`vector deleting destructor'
EXTRN	?GetInstance@CDPTrans@@SAPAV1@XZ:PROC		; CDPTrans::GetInstance
EXTRN	?SendTaxInfo@CDPTrans@@QAEXKHH@Z:PROC		; CDPTrans::SendTaxInfo
EXTRN	??0CMail@@QAE@XZ:PROC				; CMail::CMail
EXTRN	?Instance@CTLord@@SAPAV1@XZ:PROC		; CTLord::Instance
EXTRN	@__security_check_cookie@4:PROC
EXTRN	__CxxThrowException@8:PROC
EXTRN	___CxxFrameHandler3:PROC
EXTRN	__allmul:PROC
EXTRN	__chkstk:PROC
EXTRN	__ftol2_sse:PROC
EXTRN	_memcpy:PROC
EXTRN	_memmove:PROC
EXTRN	_memset:PROC
EXTRN	__Init_thread_epoch:DWORD
EXTRN	??_7type_info@@6B@:QWORD			; type_info::`vftable'
EXTRN	?g_next@@3KA:DWORD				; g_next
EXTRN	?prj@@3VCProject@@A:BYTE			; prj
EXTRN	?g_appInfo@@3UAppInfo@@A:QWORD			; g_appInfo
EXTRN	___security_cookie:DWORD
EXTRN	__fltused:DWORD
EXTRN	__tls_array:DWORD
EXTRN	__tls_index:DWORD
;	COMDAT ?_OptionsStorage@?1??__local_stdio_printf_options@@9@4_KA
_BSS	SEGMENT
?_OptionsStorage@?1??__local_stdio_printf_options@@9@4_KA DQ 01H DUP (?) ; `__local_stdio_printf_options'::`2'::_OptionsStorage
_BSS	ENDS
;	COMDAT ?sTax@?1??GetInstance@CTax@@SAPAV2@XZ@4V2@A
_BSS	SEGMENT
?sTax@?1??GetInstance@CTax@@SAPAV2@XZ@4V2@A DB 06cH DUP (?) ; `CTax::GetInstance'::`2'::sTax
_BSS	ENDS
;	COMDAT ?$TSS0@?1??GetInstance@CTax@@SAPAV2@XZ@4HA
_BSS	SEGMENT
?$TSS0@?1??GetInstance@CTax@@SAPAV2@XZ@4HA DD 01H DUP (?) ; `CTax::GetInstance'::`2'::$TSS0
_BSS	ENDS
;	COMDAT __real@3dcccccd
CONST	SEGMENT
__real@3dcccccd DD 03dcccccdr			; 0.1
CONST	ENDS
;	COMDAT ??_R2CDbController@@8
rdata$r	SEGMENT
??_R2CDbController@@8 DD FLAT:??_R1A@?0A@EA@CDbController@@8 ; CDbController::`RTTI Base Class Array'
rdata$r	ENDS
;	COMDAT ??_R3CDbController@@8
rdata$r	SEGMENT
??_R3CDbController@@8 DD 00H				; CDbController::`RTTI Class Hierarchy Descriptor'
	DD	00H
	DD	01H
	DD	FLAT:??_R2CDbController@@8
rdata$r	ENDS
;	COMDAT ??_R0?AVCDbController@@@8
data$rs	SEGMENT
??_R0?AVCDbController@@@8 DD FLAT:??_7type_info@@6B@	; CDbController `RTTI Type Descriptor'
	DD	00H
	DB	'.?AVCDbController@@', 00H
data$rs	ENDS
;	COMDAT ??_R1A@?0A@EA@CDbController@@8
rdata$r	SEGMENT
??_R1A@?0A@EA@CDbController@@8 DD FLAT:??_R0?AVCDbController@@@8 ; CDbController::`RTTI Base Class Descriptor at (0,-1,0,64)'
	DD	00H
	DD	00H
	DD	0ffffffffH
	DD	00H
	DD	040H
	DD	FLAT:??_R3CDbController@@8
rdata$r	ENDS
;	COMDAT ??_R1A@?0A@EA@CTaxDBController@@8
rdata$r	SEGMENT
??_R1A@?0A@EA@CTaxDBController@@8 DD FLAT:??_R0?AVCTaxDBController@@@8 ; CTaxDBController::`RTTI Base Class Descriptor at (0,-1,0,64)'
	DD	01H
	DD	00H
	DD	0ffffffffH
	DD	00H
	DD	040H
	DD	FLAT:??_R3CTaxDBController@@8
rdata$r	ENDS
;	COMDAT ??_R2CTaxDBController@@8
rdata$r	SEGMENT
??_R2CTaxDBController@@8 DD FLAT:??_R1A@?0A@EA@CTaxDBController@@8 ; CTaxDBController::`RTTI Base Class Array'
	DD	FLAT:??_R1A@?0A@EA@CDbController@@8
rdata$r	ENDS
;	COMDAT ??_R3CTaxDBController@@8
rdata$r	SEGMENT
??_R3CTaxDBController@@8 DD 00H				; CTaxDBController::`RTTI Class Hierarchy Descriptor'
	DD	00H
	DD	02H
	DD	FLAT:??_R2CTaxDBController@@8
rdata$r	ENDS
;	COMDAT ??_R0?AVCTaxDBController@@@8
data$rs	SEGMENT
??_R0?AVCTaxDBController@@@8 DD FLAT:??_7type_info@@6B@	; CTaxDBController `RTTI Type Descriptor'
	DD	00H
	DB	'.?AVCTaxDBController@@', 00H
data$rs	ENDS
;	COMDAT ??_R4CTaxDBController@@6B@
rdata$r	SEGMENT
??_R4CTaxDBController@@6B@ DD 00H			; CTaxDBController::`RTTI Complete Object Locator'
	DD	00H
	DD	00H
	DD	FLAT:??_R0?AVCTaxDBController@@@8
	DD	FLAT:??_R3CTaxDBController@@8
rdata$r	ENDS
;	COMDAT ??_C@_0DM@BIDMIHDA@TAX_DETAIL_STR?5?8U1?8?0?5?8?$CF02d?8?0?5?$CFd@
CONST	SEGMENT
??_C@_0DM@BIDMIHDA@TAX_DETAIL_STR?5?8U1?8?0?5?8?$CF02d?8?0?5?$CFd@ DB 'TA'
	DB	'X_DETAIL_STR ''U1'', ''%02d'', %d, %d, %d, %d, %d, %d, %d, %d'
	DB	00H						; `string'
CONST	ENDS
;	COMDAT ??_C@_0DL@EDBIPHKJ@TAX_INFO_STR?5?8U1?8?0?5?8?$CF02d?8?0?5?$CFd?0?5@
CONST	SEGMENT
??_C@_0DL@EDBIPHKJ@TAX_INFO_STR?5?8U1?8?0?5?8?$CF02d?8?0?5?$CFd?0?5@ DB 'T'
	DB	'AX_INFO_STR ''U1'', ''%02d'', %d, %d, ''%07d'', ''%07d'', %d,'
	DB	' ''0''', 00H				; `string'
CONST	ENDS
;	COMDAT ??_C@_0DA@LBKMKMAC@UpdateToDB?$CI?$CJ?5?9?5taxInfo?5is?5NULL?0@
CONST	SEGMENT
??_C@_0DA@LBKMKMAC@UpdateToDB?$CI?$CJ?5?9?5taxInfo?5is?5NULL?0@ DB 'Updat'
	DB	'eToDB() - taxInfo is NULL, nContinent = %x', 00H ; `string'
CONST	ENDS
;	COMDAT ??_C@_0DM@PFLMCPAK@TAX_DETAIL_STR?5?8I1?8?0?5?8?$CF02d?8?0?5?$CFd@
CONST	SEGMENT
??_C@_0DM@PFLMCPAK@TAX_DETAIL_STR?5?8I1?8?0?5?8?$CF02d?8?0?5?$CFd@ DB 'TA'
	DB	'X_DETAIL_STR ''I1'', ''%02d'', %d, %d, %d, %d, %d, %d, %d, %d'
	DB	00H						; `string'
CONST	ENDS
;	COMDAT ??_C@_0DM@IEFKIIDM@TAX_INFO_STR?5?8I1?8?0?5?8?$CF02d?8?0?5?$CFd?0?5@
CONST	SEGMENT
??_C@_0DM@IEFKIIDM@TAX_INFO_STR?5?8I1?8?0?5?8?$CF02d?8?0?5?$CFd?0?5@ DB 'T'
	DB	'AX_INFO_STR ''I1'', ''%02d'', %d, %d, ''%07d'', ''%07d'', %d,'
	DB	' ''%s''', 00H				; `string'
CONST	ENDS
;	COMDAT ??_C@_0N@CFHJAANA@nNextTaxRate@
CONST	SEGMENT
??_C@_0N@CFHJAANA@nNextTaxRate@ DB 'nNextTaxRate', 00H	; `string'
CONST	ENDS
;	COMDAT ??_C@_09BPDBKDAC@nTaxPerin@
CONST	SEGMENT
??_C@_09BPDBKDAC@nTaxPerin@ DB 'nTaxPerin', 00H		; `string'
CONST	ENDS
;	COMDAT ??_C@_08FPEBHLEN@nTaxGold@
CONST	SEGMENT
??_C@_08FPEBHLEN@nTaxGold@ DB 'nTaxGold', 00H		; `string'
CONST	ENDS
;	COMDAT ??_C@_09PIHGBPHB@nTaxCount@
CONST	SEGMENT
??_C@_09PIHGBPHB@nTaxCount@ DB 'nTaxCount', 00H		; `string'
CONST	ENDS
;	COMDAT ??_C@_08BMLANHAF@nTaxRate@
CONST	SEGMENT
??_C@_08BMLANHAF@nTaxRate@ DB 'nTaxRate', 00H		; `string'
CONST	ENDS
;	COMDAT ??_C@_0ED@KONCKI@LoadTaxInfo?$CI?$CJ?5?9?5taxDetail?5is?5wr@
CONST	SEGMENT
??_C@_0ED@KONCKI@LoadTaxInfo?$CI?$CJ?5?9?5taxDetail?5is?5wr@ DB 'LoadTaxI'
	DB	'nfo() - taxDetail is wrong, nContinent = %d, nTaxKind = %d', 00H ; `string'
CONST	ENDS
;	COMDAT ??_C@_08LMFOBNPO@nTaxKind@
CONST	SEGMENT
??_C@_08LMFOBNPO@nTaxKind@ DB 'nTaxKind', 00H		; `string'
CONST	ENDS
;	COMDAT ??_C@_0DG@HDJLKLGO@TAX_DETAIL_STR?5?8S2?8?0?5?8?$CF02d?8?0?5?$CFd@
CONST	SEGMENT
??_C@_0DG@HDJLKLGO@TAX_DETAIL_STR?5?8S2?8?0?5?8?$CF02d?8?0?5?$CFd@ DB 'TA'
	DB	'X_DETAIL_STR ''S2'', ''%02d'', %d, %d, 0, 0, 0, 0, 0, 0', 00H ; `string'
CONST	ENDS
;	COMDAT ??_C@_0M@HHPEIMLI@change_time@
CONST	SEGMENT
??_C@_0M@HHPEIMLI@change_time@ DB 'change_time', 00H	; `string'
CONST	ENDS
;	COMDAT ??_C@_0M@KKHJELKN@bSetTaxRate@
CONST	SEGMENT
??_C@_0M@KKHJELKN@bSetTaxRate@ DB 'bSetTaxRate', 00H	; `string'
CONST	ENDS
;	COMDAT ??_C@_08DEEAJDDG@dwNextID@
CONST	SEGMENT
??_C@_08DEEAJDDG@dwNextID@ DB 'dwNextID', 00H		; `string'
CONST	ENDS
;	COMDAT ??_C@_04EINJHNAE@dwID@
CONST	SEGMENT
??_C@_04EINJHNAE@dwID@ DB 'dwID', 00H			; `string'
CONST	ENDS
;	COMDAT ??_C@_0DE@DAPHDHAC@TAX_INFO_STR?5?8S2?8?0?5?8?$CF02d?8?0?5?$CFd?0?5@
CONST	SEGMENT
??_C@_0DE@DAPHDHAC@TAX_INFO_STR?5?8S2?8?0?5?8?$CF02d?8?0?5?$CFd?0?5@ DB 'T'
	DB	'AX_INFO_STR ''S2'', ''%02d'', %d, %d, ''0'', ''0'', 0, ''0''', 00H ; `string'
CONST	ENDS
;	COMDAT ??_C@_0L@MDNPPPLJ@GetNowDate@
CONST	SEGMENT
??_C@_0L@MDNPPPLJ@GetNowDate@ DB 'GetNowDate', 00H	; `string'
CONST	ENDS
;	COMDAT ??_C@_06DJGFEEME@nTimes@
CONST	SEGMENT
??_C@_06DJGFEEME@nTimes@ DB 'nTimes', 00H		; `string'
CONST	ENDS
;	COMDAT ??_C@_0DC@HDFAFDC@TAX_INFO_STR?5?8S1?8?0?5?8?$CF02d?8?0?50?0?50@
CONST	SEGMENT
??_C@_0DC@HDFAFDC@TAX_INFO_STR?5?8S1?8?0?5?8?$CF02d?8?0?50?0?50@ DB 'TAX_'
	DB	'INFO_STR ''S1'', ''%02d'', 0, 0, ''0'', ''0'', 0, ''0''', 00H ; `string'
CONST	ENDS
;	COMDAT ??_C@_0DC@PBFLEGFH@C?3?2IAGOS?2server?2v18?2Source?2Sour@
CONST	SEGMENT
??_C@_0DC@PBFLEGFH@C?3?2IAGOS?2server?2v18?2Source?2Sour@ DB 'C:\IAGOS\se'
	DB	'rver\v18\Source\Source\_Common\Tax.cpp', 00H ; `string'
CONST	ENDS
;	COMDAT ??_C@_0L@FONFFEJF@m_idPlayer@
CONST	SEGMENT
??_C@_0L@FONFFEJF@m_idPlayer@ DB 'm_idPlayer', 00H	; `string'
CONST	ENDS
;	COMDAT ??_C@_0DF@PKLOAGED@TAX_INFO_STR?5?8S3?8?0?5?8?$CF02d?8?0?50?0?50@
CONST	SEGMENT
??_C@_0DF@PKLOAGED@TAX_INFO_STR?5?8S3?8?0?5?8?$CF02d?8?0?50?0?50@ DB 'TAX'
	DB	'_INFO_STR ''S3'', ''%02d'', 0, 0, ''%07d'', ''0'', 0, ''0''', 00H ; `string'
CONST	ENDS
;	COMDAT ??_C@_0N@JMAFDKBD@CheckPayTime@
CONST	SEGMENT
??_C@_0N@JMAFDKBD@CheckPayTime@ DB 'CheckPayTime', 00H	; `string'
CONST	ENDS
;	COMDAT ??_C@_0BA@LNDBAGIB@CheckChangeTime@
CONST	SEGMENT
??_C@_0BA@LNDBAGIB@CheckChangeTime@ DB 'CheckChangeTime', 00H ; `string'
CONST	ENDS
;	COMDAT ??_C@_0BE@DCFJJNKF@tOccupationShopItem@
CONST	SEGMENT
??_C@_0BE@DCFJJNKF@tOccupationShopItem@ DB 'tOccupationShopItem', 00H ; `string'
CONST	ENDS
;	COMDAT ??_C@_0M@FELENEOA@DBSaveCount@
CONST	SEGMENT
??_C@_0M@FELENEOA@DBSaveCount@ DB 'DBSaveCount', 00H	; `string'
CONST	ENDS
;	COMDAT ??_C@_0BC@LCJMAADJ@AdmissionLordRate@
CONST	SEGMENT
??_C@_0BC@LCJMAADJ@AdmissionLordRate@ DB 'AdmissionLordRate', 00H ; `string'
CONST	ENDS
;	COMDAT ??_C@_0BI@LJACBDPE@AdmissionSecretRoomRate@
CONST	SEGMENT
??_C@_0BI@LJACBDPE@AdmissionSecretRoomRate@ DB 'AdmissionSecretRoomRate', 00H ; `string'
CONST	ENDS
;	COMDAT ??_C@_0M@JMFHEJJO@TaxLordRate@
CONST	SEGMENT
??_C@_0M@JMFHEJJO@TaxLordRate@ DB 'TaxLordRate', 00H	; `string'
CONST	ENDS
;	COMDAT ??_C@_0BC@HLGHAKHH@TaxSecretRoomRate@
CONST	SEGMENT
??_C@_0BC@HLGHAKHH@TaxSecretRoomRate@ DB 'TaxSecretRoomRate', 00H ; `string'
CONST	ENDS
;	COMDAT ??_C@_0L@GNBNHCBK@MaxTaxRate@
CONST	SEGMENT
??_C@_0L@GNBNHCBK@MaxTaxRate@ DB 'MaxTaxRate', 00H	; `string'
CONST	ENDS
;	COMDAT ??_C@_0L@KBBAAJBF@MinTaxRate@
CONST	SEGMENT
??_C@_0L@KBBAAJBF@MinTaxRate@ DB 'MinTaxRate', 00H	; `string'
CONST	ENDS
;	COMDAT ??_C@_0BH@GCMNILJK@Tax?4lua?5Run?5Failed?5?$CB?$CB?$CB@
CONST	SEGMENT
??_C@_0BH@GCMNILJK@Tax?4lua?5Run?5Failed?5?$CB?$CB?$CB@ DB 'Tax.lua Run F'
	DB	'ailed !!!', 00H				; `string'
CONST	ENDS
;	COMDAT ??_C@_07KANMDMNE@Tax?4lua@
CONST	SEGMENT
??_C@_07KANMDMNE@Tax?4lua@ DB 'Tax.lua', 00H		; `string'
CONST	ENDS
;	COMDAT ??_C@_0CI@EGGDFMCC@CTax?3?3GetTaxInfo?$CI?$CJ?5?9?5?$MA?$NP?$LI?x?$LF?H?5?$LE?k?$LH@
CONST	SEGMENT
??_C@_0CI@EGGDFMCC@CTax?3?3GetTaxInfo?$CI?$CJ?5?9?5?$MA?$NP?$LI?x?$LF?H?5?$LE?k?$LH@ DB 'C'
	DB	'Tax::GetTaxInfo() - ', 0c0H, 0dfH, 0b8H, 0f8H, 0b5H, 0c8H, ' '
	DB	0b4H, 0ebH, 0b7H, 0faH, 0c1H, 0a4H, 0baH, 0b8H, ' %x', 00H ; `string'
CONST	ENDS
;	COMDAT ??_C@_0CG@PBPHIFHD@CTax?5?9?5m_Controller?4CreateDbHan@
CONST	SEGMENT
??_C@_0CG@PBPHIFHD@CTax?5?9?5m_Controller?4CreateDbHan@ DB 'CTax - m_Cont'
	DB	'roller.CreateDbHandler()', 00H		; `string'
CONST	ENDS
;	COMDAT ??_7CTaxDBController@@6B@
CONST	SEGMENT
??_7CTaxDBController@@6B@ DD FLAT:??_R4CTaxDBController@@6B@ ; CTaxDBController::`vftable'
	DD	FLAT:??_ECTaxDBController@@UAEPAXI@Z
	DD	FLAT:?Handler@CTaxDBController@@UAEXPAUtagDB_OVERLAPPED_PLUS@@K@Z
	DD	FLAT:?OnTimer@CTaxDBController@@UAEXXZ
CONST	ENDS
;	COMDAT ??_R4bad_alloc@std@@6B@
rdata$r	SEGMENT
??_R4bad_alloc@std@@6B@ DD 00H				; std::bad_alloc::`RTTI Complete Object Locator'
	DD	00H
	DD	00H
	DD	FLAT:??_R0?AVbad_alloc@std@@@8
	DD	FLAT:??_R3bad_alloc@std@@8
rdata$r	ENDS
;	COMDAT ??_R2bad_alloc@std@@8
rdata$r	SEGMENT
??_R2bad_alloc@std@@8 DD FLAT:??_R1A@?0A@EA@bad_alloc@std@@8 ; std::bad_alloc::`RTTI Base Class Array'
	DD	FLAT:??_R1A@?0A@EA@exception@std@@8
rdata$r	ENDS
;	COMDAT ??_R3bad_alloc@std@@8
rdata$r	SEGMENT
??_R3bad_alloc@std@@8 DD 00H				; std::bad_alloc::`RTTI Class Hierarchy Descriptor'
	DD	00H
	DD	02H
	DD	FLAT:??_R2bad_alloc@std@@8
rdata$r	ENDS
;	COMDAT ??_R1A@?0A@EA@bad_alloc@std@@8
rdata$r	SEGMENT
??_R1A@?0A@EA@bad_alloc@std@@8 DD FLAT:??_R0?AVbad_alloc@std@@@8 ; std::bad_alloc::`RTTI Base Class Descriptor at (0,-1,0,64)'
	DD	01H
	DD	00H
	DD	0ffffffffH
	DD	00H
	DD	040H
	DD	FLAT:??_R3bad_alloc@std@@8
rdata$r	ENDS
;	COMDAT ??_R1A@?0A@EA@bad_array_new_length@std@@8
rdata$r	SEGMENT
??_R1A@?0A@EA@bad_array_new_length@std@@8 DD FLAT:??_R0?AVbad_array_new_length@std@@@8 ; std::bad_array_new_length::`RTTI Base Class Descriptor at (0,-1,0,64)'
	DD	02H
	DD	00H
	DD	0ffffffffH
	DD	00H
	DD	040H
	DD	FLAT:??_R3bad_array_new_length@std@@8
rdata$r	ENDS
;	COMDAT ??_R2bad_array_new_length@std@@8
rdata$r	SEGMENT
??_R2bad_array_new_length@std@@8 DD FLAT:??_R1A@?0A@EA@bad_array_new_length@std@@8 ; std::bad_array_new_length::`RTTI Base Class Array'
	DD	FLAT:??_R1A@?0A@EA@bad_alloc@std@@8
	DD	FLAT:??_R1A@?0A@EA@exception@std@@8
rdata$r	ENDS
;	COMDAT ??_R3bad_array_new_length@std@@8
rdata$r	SEGMENT
??_R3bad_array_new_length@std@@8 DD 00H			; std::bad_array_new_length::`RTTI Class Hierarchy Descriptor'
	DD	00H
	DD	03H
	DD	FLAT:??_R2bad_array_new_length@std@@8
rdata$r	ENDS
;	COMDAT ??_R4bad_array_new_length@std@@6B@
rdata$r	SEGMENT
??_R4bad_array_new_length@std@@6B@ DD 00H		; std::bad_array_new_length::`RTTI Complete Object Locator'
	DD	00H
	DD	00H
	DD	FLAT:??_R0?AVbad_array_new_length@std@@@8
	DD	FLAT:??_R3bad_array_new_length@std@@8
rdata$r	ENDS
;	COMDAT ??_R1A@?0A@EA@exception@std@@8
rdata$r	SEGMENT
??_R1A@?0A@EA@exception@std@@8 DD FLAT:??_R0?AVexception@std@@@8 ; std::exception::`RTTI Base Class Descriptor at (0,-1,0,64)'
	DD	00H
	DD	00H
	DD	0ffffffffH
	DD	00H
	DD	040H
	DD	FLAT:??_R3exception@std@@8
rdata$r	ENDS
;	COMDAT ??_R2exception@std@@8
rdata$r	SEGMENT
??_R2exception@std@@8 DD FLAT:??_R1A@?0A@EA@exception@std@@8 ; std::exception::`RTTI Base Class Array'
rdata$r	ENDS
;	COMDAT ??_R3exception@std@@8
rdata$r	SEGMENT
??_R3exception@std@@8 DD 00H				; std::exception::`RTTI Class Hierarchy Descriptor'
	DD	00H
	DD	01H
	DD	FLAT:??_R2exception@std@@8
rdata$r	ENDS
;	COMDAT ??_R4exception@std@@6B@
rdata$r	SEGMENT
??_R4exception@std@@6B@ DD 00H				; std::exception::`RTTI Complete Object Locator'
	DD	00H
	DD	00H
	DD	FLAT:??_R0?AVexception@std@@@8
	DD	FLAT:??_R3exception@std@@8
rdata$r	ENDS
;	COMDAT ??_C@_0BA@FOIKENOD@vector?5too?5long@
CONST	SEGMENT
??_C@_0BA@FOIKENOD@vector?5too?5long@ DB 'vector too long', 00H ; `string'
CONST	ENDS
;	COMDAT ??_C@_09GBAEEKDE@?$CFs?0?5?$CFd?7?$CFs@
CONST	SEGMENT
??_C@_09GBAEEKDE@?$CFs?0?5?$CFd?7?$CFs@ DB '%s, %d', 09H, '%s', 00H ; `string'
CONST	ENDS
;	COMDAT ??_C@_0BB@GCADKGJO@map?1set?5too?5long@
CONST	SEGMENT
??_C@_0BB@GCADKGJO@map?1set?5too?5long@ DB 'map/set too long', 00H ; `string'
CONST	ENDS
;	COMDAT ??_C@_0BA@JFNIOLAK@string?5too?5long@
CONST	SEGMENT
??_C@_0BA@JFNIOLAK@string?5too?5long@ DB 'string too long', 00H ; `string'
CONST	ENDS
;	COMDAT __CT??_R0?AVbad_alloc@std@@@8??0bad_alloc@std@@QAE@ABV01@@Z12
xdata$x	SEGMENT
__CT??_R0?AVbad_alloc@std@@@8??0bad_alloc@std@@QAE@ABV01@@Z12 DD 010H
	DD	FLAT:??_R0?AVbad_alloc@std@@@8
	DD	00H
	DD	0ffffffffH
	ORG $+4
	DD	0cH
	DD	FLAT:??0bad_alloc@std@@QAE@ABV01@@Z
xdata$x	ENDS
;	COMDAT ??_R0?AVbad_alloc@std@@@8
data$r	SEGMENT
??_R0?AVbad_alloc@std@@@8 DD FLAT:??_7type_info@@6B@	; std::bad_alloc `RTTI Type Descriptor'
	DD	00H
	DB	'.?AVbad_alloc@std@@', 00H
data$r	ENDS
;	COMDAT __CT??_R0?AVbad_array_new_length@std@@@8??0bad_array_new_length@std@@QAE@ABV01@@Z12
xdata$x	SEGMENT
__CT??_R0?AVbad_array_new_length@std@@@8??0bad_array_new_length@std@@QAE@ABV01@@Z12 DD 00H
	DD	FLAT:??_R0?AVbad_array_new_length@std@@@8
	DD	00H
	DD	0ffffffffH
	ORG $+4
	DD	0cH
	DD	FLAT:??0bad_array_new_length@std@@QAE@ABV01@@Z
xdata$x	ENDS
;	COMDAT ??_R0?AVbad_array_new_length@std@@@8
data$r	SEGMENT
??_R0?AVbad_array_new_length@std@@@8 DD FLAT:??_7type_info@@6B@ ; std::bad_array_new_length `RTTI Type Descriptor'
	DD	00H
	DB	'.?AVbad_array_new_length@std@@', 00H
data$r	ENDS
;	COMDAT __CTA3?AVbad_array_new_length@std@@
xdata$x	SEGMENT
__CTA3?AVbad_array_new_length@std@@ DD 03H
	DD	FLAT:__CT??_R0?AVbad_array_new_length@std@@@8??0bad_array_new_length@std@@QAE@ABV01@@Z12
	DD	FLAT:__CT??_R0?AVbad_alloc@std@@@8??0bad_alloc@std@@QAE@ABV01@@Z12
	DD	FLAT:__CT??_R0?AVexception@std@@@8??0exception@std@@QAE@ABV01@@Z12
xdata$x	ENDS
;	COMDAT __TI3?AVbad_array_new_length@std@@
xdata$x	SEGMENT
__TI3?AVbad_array_new_length@std@@ DD 00H
	DD	FLAT:??1bad_array_new_length@std@@UAE@XZ
	DD	00H
	DD	FLAT:__CTA3?AVbad_array_new_length@std@@
xdata$x	ENDS
;	COMDAT __CT??_R0?AVexception@std@@@8??0exception@std@@QAE@ABV01@@Z12
xdata$x	SEGMENT
__CT??_R0?AVexception@std@@@8??0exception@std@@QAE@ABV01@@Z12 DD 00H
	DD	FLAT:??_R0?AVexception@std@@@8
	DD	00H
	DD	0ffffffffH
	ORG $+4
	DD	0cH
	DD	FLAT:??0exception@std@@QAE@ABV01@@Z
xdata$x	ENDS
;	COMDAT ??_R0?AVexception@std@@@8
data$r	SEGMENT
??_R0?AVexception@std@@@8 DD FLAT:??_7type_info@@6B@	; std::exception `RTTI Type Descriptor'
	DD	00H
	DB	'.?AVexception@std@@', 00H
data$r	ENDS
;	COMDAT ??_C@_0BF@KINCDENJ@bad?5array?5new?5length@
CONST	SEGMENT
??_C@_0BF@KINCDENJ@bad?5array?5new?5length@ DB 'bad array new length', 00H ; `string'
CONST	ENDS
;	COMDAT ??_7bad_array_new_length@std@@6B@
CONST	SEGMENT
??_7bad_array_new_length@std@@6B@ DD FLAT:??_R4bad_array_new_length@std@@6B@ ; std::bad_array_new_length::`vftable'
	DD	FLAT:??_Ebad_array_new_length@std@@UAEPAXI@Z
	DD	FLAT:?what@exception@std@@UBEPBDXZ
CONST	ENDS
;	COMDAT ??_7bad_alloc@std@@6B@
CONST	SEGMENT
??_7bad_alloc@std@@6B@ DD FLAT:??_R4bad_alloc@std@@6B@	; std::bad_alloc::`vftable'
	DD	FLAT:??_Ebad_alloc@std@@UAEPAXI@Z
	DD	FLAT:?what@exception@std@@UBEPBDXZ
CONST	ENDS
;	COMDAT ??_C@_0BC@EOODALEL@Unknown?5exception@
CONST	SEGMENT
??_C@_0BC@EOODALEL@Unknown?5exception@ DB 'Unknown exception', 00H ; `string'
CONST	ENDS
;	COMDAT ??_7exception@std@@6B@
CONST	SEGMENT
??_7exception@std@@6B@ DD FLAT:??_R4exception@std@@6B@	; std::exception::`vftable'
	DD	FLAT:??_Eexception@std@@UAEPAXI@Z
	DD	FLAT:?what@exception@std@@UBEPBDXZ
CONST	ENDS
;	COMDAT ??_C@_00CNPNBAHC@@
CONST	SEGMENT
??_C@_00CNPNBAHC@@ DB 00H				; `string'
CONST	ENDS
;	COMDAT xdata$x
xdata$x	SEGMENT
__unwindtable$??$?0U?$pair@HPAU__TAXINFO@@@std@@@?$_Tree_temp_node@V?$allocator@U?$_Tree_node@U?$pair@$$CBEPAU__TAXINFO@@@std@@PAX@std@@@std@@@std@@QAE@AAV?$allocator@U?$_Tree_node@U?$pair@$$CBEPAU__TAXINFO@@@std@@PAX@std@@@1@PAU?$_Tree_node@U?$pair@$$CBEPAU__TAXINFO@@@std@@PAX@1@$$QAU?$pair@HPAU__TAXINFO@@@1@@Z DD 0ffffffffH
	DD	FLAT:__unwindfunclet$??$?0U?$pair@HPAU__TAXINFO@@@std@@@?$_Tree_temp_node@V?$allocator@U?$_Tree_node@U?$pair@$$CBEPAU__TAXINFO@@@std@@PAX@std@@@std@@@std@@QAE@AAV?$allocator@U?$_Tree_node@U?$pair@$$CBEPAU__TAXINFO@@@std@@PAX@std@@@1@PAU?$_Tree_node@U?$pair@$$CBEPAU__TAXINFO@@@std@@PAX@1@$$QAU?$pair@HPAU__TAXINFO@@@1@@Z$1
__ehfuncinfo$??$?0U?$pair@HPAU__TAXINFO@@@std@@@?$_Tree_temp_node@V?$allocator@U?$_Tree_node@U?$pair@$$CBEPAU__TAXINFO@@@std@@PAX@std@@@std@@@std@@QAE@AAV?$allocator@U?$_Tree_node@U?$pair@$$CBEPAU__TAXINFO@@@std@@PAX@std@@@1@PAU?$_Tree_node@U?$pair@$$CBEPAU__TAXINFO@@@std@@PAX@1@$$QAU?$pair@HPAU__TAXINFO@@@1@@Z DD 019930522H
	DD	01H
	DD	FLAT:__unwindtable$??$?0U?$pair@HPAU__TAXINFO@@@std@@@?$_Tree_temp_node@V?$allocator@U?$_Tree_node@U?$pair@$$CBEPAU__TAXINFO@@@std@@PAX@std@@@std@@@std@@QAE@AAV?$allocator@U?$_Tree_node@U?$pair@$$CBEPAU__TAXINFO@@@std@@PAX@std@@@1@PAU?$_Tree_node@U?$pair@$$CBEPAU__TAXINFO@@@std@@PAX@1@$$QAU?$pair@HPAU__TAXINFO@@@1@@Z
	DD	2 DUP(00H)
	DD	2 DUP(00H)
	DD	00H
	DD	01H
xdata$x	ENDS
;	COMDAT xdata$x
xdata$x	SEGMENT
__unwindtable$??0?$_Tree_temp_node_alloc@V?$allocator@U?$_Tree_node@U?$pair@$$CBEPAU__TAXINFO@@@std@@PAX@std@@@std@@@std@@QAE@AAV?$allocator@U?$_Tree_node@U?$pair@$$CBEPAU__TAXINFO@@@std@@PAX@std@@@1@@Z DD 0ffffffffH
	DD	FLAT:__unwindfunclet$??0?$_Tree_temp_node_alloc@V?$allocator@U?$_Tree_node@U?$pair@$$CBEPAU__TAXINFO@@@std@@PAX@std@@@std@@@std@@QAE@AAV?$allocator@U?$_Tree_node@U?$pair@$$CBEPAU__TAXINFO@@@std@@PAX@std@@@1@@Z$0
__ehfuncinfo$??0?$_Tree_temp_node_alloc@V?$allocator@U?$_Tree_node@U?$pair@$$CBEPAU__TAXINFO@@@std@@PAX@std@@@std@@@std@@QAE@AAV?$allocator@U?$_Tree_node@U?$pair@$$CBEPAU__TAXINFO@@@std@@PAX@std@@@1@@Z DD 019930522H
	DD	01H
	DD	FLAT:__unwindtable$??0?$_Tree_temp_node_alloc@V?$allocator@U?$_Tree_node@U?$pair@$$CBEPAU__TAXINFO@@@std@@PAX@std@@@std@@@std@@QAE@AAV?$allocator@U?$_Tree_node@U?$pair@$$CBEPAU__TAXINFO@@@std@@PAX@std@@@1@@Z
	DD	2 DUP(00H)
	DD	2 DUP(00H)
	DD	00H
	DD	01H
xdata$x	ENDS
;	COMDAT xdata$x
xdata$x	SEGMENT
__unwindtable$??$?0U?$pair@EPAU__TAXDETAIL@@@std@@@?$_Tree_temp_node@V?$allocator@U?$_Tree_node@U?$pair@$$CBEPAU__TAXDETAIL@@@std@@PAX@std@@@std@@@std@@QAE@AAV?$allocator@U?$_Tree_node@U?$pair@$$CBEPAU__TAXDETAIL@@@std@@PAX@std@@@1@PAU?$_Tree_node@U?$pair@$$CBEPAU__TAXDETAIL@@@std@@PAX@1@$$QAU?$pair@EPAU__TAXDETAIL@@@1@@Z DD 0ffffffffH
	DD	FLAT:__unwindfunclet$??$?0U?$pair@EPAU__TAXDETAIL@@@std@@@?$_Tree_temp_node@V?$allocator@U?$_Tree_node@U?$pair@$$CBEPAU__TAXDETAIL@@@std@@PAX@std@@@std@@@std@@QAE@AAV?$allocator@U?$_Tree_node@U?$pair@$$CBEPAU__TAXDETAIL@@@std@@PAX@std@@@1@PAU?$_Tree_node@U?$pair@$$CBEPAU__TAXDETAIL@@@std@@PAX@1@$$QAU?$pair@EPAU__TAXDETAIL@@@1@@Z$1
__ehfuncinfo$??$?0U?$pair@EPAU__TAXDETAIL@@@std@@@?$_Tree_temp_node@V?$allocator@U?$_Tree_node@U?$pair@$$CBEPAU__TAXDETAIL@@@std@@PAX@std@@@std@@@std@@QAE@AAV?$allocator@U?$_Tree_node@U?$pair@$$CBEPAU__TAXDETAIL@@@std@@PAX@std@@@1@PAU?$_Tree_node@U?$pair@$$CBEPAU__TAXDETAIL@@@std@@PAX@1@$$QAU?$pair@EPAU__TAXDETAIL@@@1@@Z DD 019930522H
	DD	01H
	DD	FLAT:__unwindtable$??$?0U?$pair@EPAU__TAXDETAIL@@@std@@@?$_Tree_temp_node@V?$allocator@U?$_Tree_node@U?$pair@$$CBEPAU__TAXDETAIL@@@std@@PAX@std@@@std@@@std@@QAE@AAV?$allocator@U?$_Tree_node@U?$pair@$$CBEPAU__TAXDETAIL@@@std@@PAX@std@@@1@PAU?$_Tree_node@U?$pair@$$CBEPAU__TAXDETAIL@@@std@@PAX@1@$$QAU?$pair@EPAU__TAXDETAIL@@@1@@Z
	DD	2 DUP(00H)
	DD	2 DUP(00H)
	DD	00H
	DD	01H
xdata$x	ENDS
;	COMDAT xdata$x
xdata$x	SEGMENT
__unwindtable$??0?$_Tree_temp_node_alloc@V?$allocator@U?$_Tree_node@U?$pair@$$CBEPAU__TAXDETAIL@@@std@@PAX@std@@@std@@@std@@QAE@AAV?$allocator@U?$_Tree_node@U?$pair@$$CBEPAU__TAXDETAIL@@@std@@PAX@std@@@1@@Z DD 0ffffffffH
	DD	FLAT:__unwindfunclet$??0?$_Tree_temp_node_alloc@V?$allocator@U?$_Tree_node@U?$pair@$$CBEPAU__TAXDETAIL@@@std@@PAX@std@@@std@@@std@@QAE@AAV?$allocator@U?$_Tree_node@U?$pair@$$CBEPAU__TAXDETAIL@@@std@@PAX@std@@@1@@Z$0
__ehfuncinfo$??0?$_Tree_temp_node_alloc@V?$allocator@U?$_Tree_node@U?$pair@$$CBEPAU__TAXDETAIL@@@std@@PAX@std@@@std@@@std@@QAE@AAV?$allocator@U?$_Tree_node@U?$pair@$$CBEPAU__TAXDETAIL@@@std@@PAX@std@@@1@@Z DD 019930522H
	DD	01H
	DD	FLAT:__unwindtable$??0?$_Tree_temp_node_alloc@V?$allocator@U?$_Tree_node@U?$pair@$$CBEPAU__TAXDETAIL@@@std@@PAX@std@@@std@@@std@@QAE@AAV?$allocator@U?$_Tree_node@U?$pair@$$CBEPAU__TAXDETAIL@@@std@@PAX@std@@@1@@Z
	DD	2 DUP(00H)
	DD	2 DUP(00H)
	DD	00H
	DD	01H
xdata$x	ENDS
;	COMDAT xdata$x
xdata$x	SEGMENT
__unwindtable$??$_Emplace@U?$pair@HPAU__TAXINFO@@@std@@@?$_Tree@V?$_Tmap_traits@EPAU__TAXINFO@@U?$less@E@std@@V?$allocator@U?$pair@$$CBEPAU__TAXINFO@@@std@@@3@$0A@@std@@@std@@IAE?AU?$pair@PAU?$_Tree_node@U?$pair@$$CBEPAU__TAXINFO@@@std@@PAX@std@@_N@1@$$QAU?$pair@HPAU__TAXINFO@@@1@@Z DD 0ffffffffH
	DD	FLAT:__unwindfunclet$??$_Emplace@U?$pair@HPAU__TAXINFO@@@std@@@?$_Tree@V?$_Tmap_traits@EPAU__TAXINFO@@U?$less@E@std@@V?$allocator@U?$pair@$$CBEPAU__TAXINFO@@@std@@@3@$0A@@std@@@std@@IAE?AU?$pair@PAU?$_Tree_node@U?$pair@$$CBEPAU__TAXINFO@@@std@@PAX@std@@_N@1@$$QAU?$pair@HPAU__TAXINFO@@@1@@Z$2
	DD	0ffffffffH
	DD	FLAT:__unwindfunclet$??$_Emplace@U?$pair@HPAU__TAXINFO@@@std@@@?$_Tree@V?$_Tmap_traits@EPAU__TAXINFO@@U?$less@E@std@@V?$allocator@U?$pair@$$CBEPAU__TAXINFO@@@std@@@3@$0A@@std@@@std@@IAE?AU?$pair@PAU?$_Tree_node@U?$pair@$$CBEPAU__TAXINFO@@@std@@PAX@std@@_N@1@$$QAU?$pair@HPAU__TAXINFO@@@1@@Z$0
__ehfuncinfo$??$_Emplace@U?$pair@HPAU__TAXINFO@@@std@@@?$_Tree@V?$_Tmap_traits@EPAU__TAXINFO@@U?$less@E@std@@V?$allocator@U?$pair@$$CBEPAU__TAXINFO@@@std@@@3@$0A@@std@@@std@@IAE?AU?$pair@PAU?$_Tree_node@U?$pair@$$CBEPAU__TAXINFO@@@std@@PAX@std@@_N@1@$$QAU?$pair@HPAU__TAXINFO@@@1@@Z DD 019930522H
	DD	02H
	DD	FLAT:__unwindtable$??$_Emplace@U?$pair@HPAU__TAXINFO@@@std@@@?$_Tree@V?$_Tmap_traits@EPAU__TAXINFO@@U?$less@E@std@@V?$allocator@U?$pair@$$CBEPAU__TAXINFO@@@std@@@3@$0A@@std@@@std@@IAE?AU?$pair@PAU?$_Tree_node@U?$pair@$$CBEPAU__TAXINFO@@@std@@PAX@std@@_N@1@$$QAU?$pair@HPAU__TAXINFO@@@1@@Z
	DD	2 DUP(00H)
	DD	2 DUP(00H)
	DD	00H
	DD	01H
xdata$x	ENDS
;	COMDAT xdata$x
xdata$x	SEGMENT
__unwindtable$??$_Emplace@U?$pair@EPAU__TAXDETAIL@@@std@@@?$_Tree@V?$_Tmap_traits@EPAU__TAXDETAIL@@U?$less@E@std@@V?$allocator@U?$pair@$$CBEPAU__TAXDETAIL@@@std@@@3@$0A@@std@@@std@@IAE?AU?$pair@PAU?$_Tree_node@U?$pair@$$CBEPAU__TAXDETAIL@@@std@@PAX@std@@_N@1@$$QAU?$pair@EPAU__TAXDETAIL@@@1@@Z DD 0ffffffffH
	DD	FLAT:__unwindfunclet$??$_Emplace@U?$pair@EPAU__TAXDETAIL@@@std@@@?$_Tree@V?$_Tmap_traits@EPAU__TAXDETAIL@@U?$less@E@std@@V?$allocator@U?$pair@$$CBEPAU__TAXDETAIL@@@std@@@3@$0A@@std@@@std@@IAE?AU?$pair@PAU?$_Tree_node@U?$pair@$$CBEPAU__TAXDETAIL@@@std@@PAX@std@@_N@1@$$QAU?$pair@EPAU__TAXDETAIL@@@1@@Z$2
__ehfuncinfo$??$_Emplace@U?$pair@EPAU__TAXDETAIL@@@std@@@?$_Tree@V?$_Tmap_traits@EPAU__TAXDETAIL@@U?$less@E@std@@V?$allocator@U?$pair@$$CBEPAU__TAXDETAIL@@@std@@@3@$0A@@std@@@std@@IAE?AU?$pair@PAU?$_Tree_node@U?$pair@$$CBEPAU__TAXDETAIL@@@std@@PAX@std@@_N@1@$$QAU?$pair@EPAU__TAXDETAIL@@@1@@Z DD 019930522H
	DD	01H
	DD	FLAT:__unwindtable$??$_Emplace@U?$pair@EPAU__TAXDETAIL@@@std@@@?$_Tree@V?$_Tmap_traits@EPAU__TAXDETAIL@@U?$less@E@std@@V?$allocator@U?$pair@$$CBEPAU__TAXDETAIL@@@std@@@3@$0A@@std@@@std@@IAE?AU?$pair@PAU?$_Tree_node@U?$pair@$$CBEPAU__TAXDETAIL@@@std@@PAX@std@@_N@1@$$QAU?$pair@EPAU__TAXDETAIL@@@1@@Z
	DD	2 DUP(00H)
	DD	2 DUP(00H)
	DD	00H
	DD	01H
xdata$x	ENDS
;	COMDAT xdata$x
xdata$x	SEGMENT
__unwindtable$??$emplace@U?$pair@HPAU__TAXINFO@@@std@@@?$_Tree@V?$_Tmap_traits@EPAU__TAXINFO@@U?$less@E@std@@V?$allocator@U?$pair@$$CBEPAU__TAXINFO@@@std@@@3@$0A@@std@@@std@@QAE?AU?$pair@V?$_Tree_iterator@V?$_Tree_val@U?$_Tree_simple_types@U?$pair@$$CBEPAU__TAXINFO@@@std@@@std@@@std@@@std@@_N@1@$$QAU?$pair@HPAU__TAXINFO@@@1@@Z DD 0ffffffffH
	DD	FLAT:__unwindfunclet$??$emplace@U?$pair@HPAU__TAXINFO@@@std@@@?$_Tree@V?$_Tmap_traits@EPAU__TAXINFO@@U?$less@E@std@@V?$allocator@U?$pair@$$CBEPAU__TAXINFO@@@std@@@3@$0A@@std@@@std@@QAE?AU?$pair@V?$_Tree_iterator@V?$_Tree_val@U?$_Tree_simple_types@U?$pair@$$CBEPAU__TAXINFO@@@std@@@std@@@std@@@std@@_N@1@$$QAU?$pair@HPAU__TAXINFO@@@1@@Z$2
	DD	0ffffffffH
	DD	FLAT:__unwindfunclet$??$emplace@U?$pair@HPAU__TAXINFO@@@std@@@?$_Tree@V?$_Tmap_traits@EPAU__TAXINFO@@U?$less@E@std@@V?$allocator@U?$pair@$$CBEPAU__TAXINFO@@@std@@@3@$0A@@std@@@std@@QAE?AU?$pair@V?$_Tree_iterator@V?$_Tree_val@U?$_Tree_simple_types@U?$pair@$$CBEPAU__TAXINFO@@@std@@@std@@@std@@@std@@_N@1@$$QAU?$pair@HPAU__TAXINFO@@@1@@Z$0
__ehfuncinfo$??$emplace@U?$pair@HPAU__TAXINFO@@@std@@@?$_Tree@V?$_Tmap_traits@EPAU__TAXINFO@@U?$less@E@std@@V?$allocator@U?$pair@$$CBEPAU__TAXINFO@@@std@@@3@$0A@@std@@@std@@QAE?AU?$pair@V?$_Tree_iterator@V?$_Tree_val@U?$_Tree_simple_types@U?$pair@$$CBEPAU__TAXINFO@@@std@@@std@@@std@@@std@@_N@1@$$QAU?$pair@HPAU__TAXINFO@@@1@@Z DD 019930522H
	DD	02H
	DD	FLAT:__unwindtable$??$emplace@U?$pair@HPAU__TAXINFO@@@std@@@?$_Tree@V?$_Tmap_traits@EPAU__TAXINFO@@U?$less@E@std@@V?$allocator@U?$pair@$$CBEPAU__TAXINFO@@@std@@@3@$0A@@std@@@std@@QAE?AU?$pair@V?$_Tree_iterator@V?$_Tree_val@U?$_Tree_simple_types@U?$pair@$$CBEPAU__TAXINFO@@@std@@@std@@@std@@@std@@_N@1@$$QAU?$pair@HPAU__TAXINFO@@@1@@Z
	DD	2 DUP(00H)
	DD	2 DUP(00H)
	DD	00H
	DD	01H
xdata$x	ENDS
;	COMDAT xdata$x
xdata$x	SEGMENT
__unwindtable$??$emplace@U?$pair@EPAU__TAXDETAIL@@@std@@@?$_Tree@V?$_Tmap_traits@EPAU__TAXDETAIL@@U?$less@E@std@@V?$allocator@U?$pair@$$CBEPAU__TAXDETAIL@@@std@@@3@$0A@@std@@@std@@QAE?AU?$pair@V?$_Tree_iterator@V?$_Tree_val@U?$_Tree_simple_types@U?$pair@$$CBEPAU__TAXDETAIL@@@std@@@std@@@std@@@std@@_N@1@$$QAU?$pair@EPAU__TAXDETAIL@@@1@@Z DD 0ffffffffH
	DD	FLAT:__unwindfunclet$??$emplace@U?$pair@EPAU__TAXDETAIL@@@std@@@?$_Tree@V?$_Tmap_traits@EPAU__TAXDETAIL@@U?$less@E@std@@V?$allocator@U?$pair@$$CBEPAU__TAXDETAIL@@@std@@@3@$0A@@std@@@std@@QAE?AU?$pair@V?$_Tree_iterator@V?$_Tree_val@U?$_Tree_simple_types@U?$pair@$$CBEPAU__TAXDETAIL@@@std@@@std@@@std@@@std@@_N@1@$$QAU?$pair@EPAU__TAXDETAIL@@@1@@Z$2
__ehfuncinfo$??$emplace@U?$pair@EPAU__TAXDETAIL@@@std@@@?$_Tree@V?$_Tmap_traits@EPAU__TAXDETAIL@@U?$less@E@std@@V?$allocator@U?$pair@$$CBEPAU__TAXDETAIL@@@std@@@3@$0A@@std@@@std@@QAE?AU?$pair@V?$_Tree_iterator@V?$_Tree_val@U?$_Tree_simple_types@U?$pair@$$CBEPAU__TAXDETAIL@@@std@@@std@@@std@@@std@@_N@1@$$QAU?$pair@EPAU__TAXDETAIL@@@1@@Z DD 019930522H
	DD	01H
	DD	FLAT:__unwindtable$??$emplace@U?$pair@EPAU__TAXDETAIL@@@std@@@?$_Tree@V?$_Tmap_traits@EPAU__TAXDETAIL@@U?$less@E@std@@V?$allocator@U?$pair@$$CBEPAU__TAXDETAIL@@@std@@@3@$0A@@std@@@std@@QAE?AU?$pair@V?$_Tree_iterator@V?$_Tree_val@U?$_Tree_simple_types@U?$pair@$$CBEPAU__TAXDETAIL@@@std@@@std@@@std@@@std@@_N@1@$$QAU?$pair@EPAU__TAXDETAIL@@@1@@Z
	DD	2 DUP(00H)
	DD	2 DUP(00H)
	DD	00H
	DD	01H
xdata$x	ENDS
;	COMDAT xdata$x
xdata$x	SEGMENT
__unwindtable$??$insert@U?$pair@HPAU__TAXINFO@@@std@@$0A@@?$map@EPAU__TAXINFO@@U?$less@E@std@@V?$allocator@U?$pair@$$CBEPAU__TAXINFO@@@std@@@3@@std@@QAE?AU?$pair@V?$_Tree_iterator@V?$_Tree_val@U?$_Tree_simple_types@U?$pair@$$CBEPAU__TAXINFO@@@std@@@std@@@std@@@std@@_N@1@$$QAU?$pair@HPAU__TAXINFO@@@1@@Z DD 0ffffffffH
	DD	FLAT:__unwindfunclet$??$insert@U?$pair@HPAU__TAXINFO@@@std@@$0A@@?$map@EPAU__TAXINFO@@U?$less@E@std@@V?$allocator@U?$pair@$$CBEPAU__TAXINFO@@@std@@@3@@std@@QAE?AU?$pair@V?$_Tree_iterator@V?$_Tree_val@U?$_Tree_simple_types@U?$pair@$$CBEPAU__TAXINFO@@@std@@@std@@@std@@@std@@_N@1@$$QAU?$pair@HPAU__TAXINFO@@@1@@Z$2
	DD	0ffffffffH
	DD	FLAT:__unwindfunclet$??$insert@U?$pair@HPAU__TAXINFO@@@std@@$0A@@?$map@EPAU__TAXINFO@@U?$less@E@std@@V?$allocator@U?$pair@$$CBEPAU__TAXINFO@@@std@@@3@@std@@QAE?AU?$pair@V?$_Tree_iterator@V?$_Tree_val@U?$_Tree_simple_types@U?$pair@$$CBEPAU__TAXINFO@@@std@@@std@@@std@@@std@@_N@1@$$QAU?$pair@HPAU__TAXINFO@@@1@@Z$0
__ehfuncinfo$??$insert@U?$pair@HPAU__TAXINFO@@@std@@$0A@@?$map@EPAU__TAXINFO@@U?$less@E@std@@V?$allocator@U?$pair@$$CBEPAU__TAXINFO@@@std@@@3@@std@@QAE?AU?$pair@V?$_Tree_iterator@V?$_Tree_val@U?$_Tree_simple_types@U?$pair@$$CBEPAU__TAXINFO@@@std@@@std@@@std@@@std@@_N@1@$$QAU?$pair@HPAU__TAXINFO@@@1@@Z DD 019930522H
	DD	02H
	DD	FLAT:__unwindtable$??$insert@U?$pair@HPAU__TAXINFO@@@std@@$0A@@?$map@EPAU__TAXINFO@@U?$less@E@std@@V?$allocator@U?$pair@$$CBEPAU__TAXINFO@@@std@@@3@@std@@QAE?AU?$pair@V?$_Tree_iterator@V?$_Tree_val@U?$_Tree_simple_types@U?$pair@$$CBEPAU__TAXINFO@@@std@@@std@@@std@@@std@@_N@1@$$QAU?$pair@HPAU__TAXINFO@@@1@@Z
	DD	2 DUP(00H)
	DD	2 DUP(00H)
	DD	00H
	DD	01H
xdata$x	ENDS
;	COMDAT xdata$x
xdata$x	SEGMENT
__unwindtable$?GetInstance@CTax@@SAPAV1@XZ DD 0ffffffffH
	DD	FLAT:__unwindfunclet$?GetInstance@CTax@@SAPAV1@XZ$0
__ehfuncinfo$?GetInstance@CTax@@SAPAV1@XZ DD 019930522H
	DD	01H
	DD	FLAT:__unwindtable$?GetInstance@CTax@@SAPAV1@XZ
	DD	2 DUP(00H)
	DD	2 DUP(00H)
	DD	00H
	DD	01H
xdata$x	ENDS
;	COMDAT xdata$x
xdata$x	SEGMENT
__ehfuncinfo$??1CTax@@QAE@XZ DD 019930522H
	DD	00H
	DD	00H
	DD	2 DUP(00H)
	DD	2 DUP(00H)
	DD	00H
	DD	05H
xdata$x	ENDS
;	COMDAT xdata$x
xdata$x	SEGMENT
__ehfuncinfo$??0CTax@@QAE@XZ DD 019930522H
	DD	08H
	DD	FLAT:__unwindtable$??0CTax@@QAE@XZ
	DD	2 DUP(00H)
	DD	2 DUP(00H)
	DD	00H
	DD	01H
__unwindtable$??0CTax@@QAE@XZ DD 0ffffffffH
	DD	FLAT:__unwindfunclet$??0CTax@@QAE@XZ$0
	DD	00H
	DD	FLAT:__unwindfunclet$??0CTax@@QAE@XZ$1
	DD	01H
	DD	FLAT:__unwindfunclet$??0CTax@@QAE@XZ$2
	DD	02H
	DD	FLAT:__unwindfunclet$??0CTax@@QAE@XZ$3
	DD	03H
	DD	FLAT:__unwindfunclet$??0CTax@@QAE@XZ$4
	DD	04H
	DD	FLAT:__unwindfunclet$??0CTax@@QAE@XZ$5
	DD	04H
	DD	FLAT:__unwindfunclet$??0CTax@@QAE@XZ$7
	DD	04H
	DD	FLAT:__unwindfunclet$??0CTax@@QAE@XZ$8
xdata$x	ENDS
;	COMDAT xdata$x
xdata$x	SEGMENT
__unwindtable$??$insert@U?$pair@EPAU__TAXDETAIL@@@std@@$0A@@?$map@EPAU__TAXDETAIL@@U?$less@E@std@@V?$allocator@U?$pair@$$CBEPAU__TAXDETAIL@@@std@@@3@@std@@QAE?AU?$pair@V?$_Tree_iterator@V?$_Tree_val@U?$_Tree_simple_types@U?$pair@$$CBEPAU__TAXDETAIL@@@std@@@std@@@std@@@std@@_N@1@$$QAU?$pair@EPAU__TAXDETAIL@@@1@@Z DD 0ffffffffH
	DD	FLAT:__unwindfunclet$??$insert@U?$pair@EPAU__TAXDETAIL@@@std@@$0A@@?$map@EPAU__TAXDETAIL@@U?$less@E@std@@V?$allocator@U?$pair@$$CBEPAU__TAXDETAIL@@@std@@@3@@std@@QAE?AU?$pair@V?$_Tree_iterator@V?$_Tree_val@U?$_Tree_simple_types@U?$pair@$$CBEPAU__TAXDETAIL@@@std@@@std@@@std@@@std@@_N@1@$$QAU?$pair@EPAU__TAXDETAIL@@@1@@Z$2
__ehfuncinfo$??$insert@U?$pair@EPAU__TAXDETAIL@@@std@@$0A@@?$map@EPAU__TAXDETAIL@@U?$less@E@std@@V?$allocator@U?$pair@$$CBEPAU__TAXDETAIL@@@std@@@3@@std@@QAE?AU?$pair@V?$_Tree_iterator@V?$_Tree_val@U?$_Tree_simple_types@U?$pair@$$CBEPAU__TAXDETAIL@@@std@@@std@@@std@@@std@@_N@1@$$QAU?$pair@EPAU__TAXDETAIL@@@1@@Z DD 019930522H
	DD	01H
	DD	FLAT:__unwindtable$??$insert@U?$pair@EPAU__TAXDETAIL@@@std@@$0A@@?$map@EPAU__TAXDETAIL@@U?$less@E@std@@V?$allocator@U?$pair@$$CBEPAU__TAXDETAIL@@@std@@@3@@std@@QAE?AU?$pair@V?$_Tree_iterator@V?$_Tree_val@U?$_Tree_simple_types@U?$pair@$$CBEPAU__TAXDETAIL@@@std@@@std@@@std@@@std@@_N@1@$$QAU?$pair@EPAU__TAXDETAIL@@@1@@Z
	DD	2 DUP(00H)
	DD	2 DUP(00H)
	DD	00H
	DD	01H
xdata$x	ENDS
;	COMDAT xdata$x
xdata$x	SEGMENT
__unwindtable$??0__TAXINFO@@QAE@XZ DD 0ffffffffH
	DD	FLAT:__unwindfunclet$??0__TAXINFO@@QAE@XZ$0
	DD	00H
	DD	FLAT:__unwindfunclet$??0__TAXINFO@@QAE@XZ$6
	DD	00H
	DD	FLAT:__unwindfunclet$??0__TAXINFO@@QAE@XZ$11
__ehfuncinfo$??0__TAXINFO@@QAE@XZ DD 019930522H
	DD	03H
	DD	FLAT:__unwindtable$??0__TAXINFO@@QAE@XZ
	DD	2 DUP(00H)
	DD	2 DUP(00H)
	DD	00H
	DD	01H
xdata$x	ENDS
;	COMDAT xdata$x
xdata$x	SEGMENT
__unwindtable$?PayTaxToPost@CTaxDBController@@AAEXXZ DD 0ffffffffH
	DD	FLAT:__unwindfunclet$?PayTaxToPost@CTaxDBController@@AAEXXZ$0
	DD	0ffffffffH
	DD	FLAT:__unwindfunclet$?PayTaxToPost@CTaxDBController@@AAEXXZ$4
__ehfuncinfo$?PayTaxToPost@CTaxDBController@@AAEXXZ DD 019930522H
	DD	02H
	DD	FLAT:__unwindtable$?PayTaxToPost@CTaxDBController@@AAEXXZ
	DD	2 DUP(00H)
	DD	2 DUP(00H)
	DD	00H
	DD	01H
xdata$x	ENDS
;	COMDAT xdata$x
xdata$x	SEGMENT
__unwindtable$?Handler@CTaxDBController@@UAEXPAUtagDB_OVERLAPPED_PLUS@@K@Z DD 0ffffffffH
	DD	FLAT:__unwindfunclet$?Handler@CTaxDBController@@UAEXPAUtagDB_OVERLAPPED_PLUS@@K@Z$0
	DD	0ffffffffH
	DD	FLAT:__unwindfunclet$?Handler@CTaxDBController@@UAEXPAUtagDB_OVERLAPPED_PLUS@@K@Z$1
	DD	0ffffffffH
	DD	FLAT:__unwindfunclet$?Handler@CTaxDBController@@UAEXPAUtagDB_OVERLAPPED_PLUS@@K@Z$2
	DD	0ffffffffH
	DD	FLAT:__unwindfunclet$?Handler@CTaxDBController@@UAEXPAUtagDB_OVERLAPPED_PLUS@@K@Z$3
__ehfuncinfo$?Handler@CTaxDBController@@UAEXPAUtagDB_OVERLAPPED_PLUS@@K@Z DD 019930522H
	DD	04H
	DD	FLAT:__unwindtable$?Handler@CTaxDBController@@UAEXPAUtagDB_OVERLAPPED_PLUS@@K@Z
	DD	2 DUP(00H)
	DD	2 DUP(00H)
	DD	00H
	DD	01H
xdata$x	ENDS
; Function compile flags: /Ogtp
; File C:\Program Files\Microsoft Visual Studio\2022\Professional\VC\Tools\MSVC\14.44.35207\include\xutility
;	COMDAT ??$_Copy_memmove_tail@PAK@std@@YAPAKQBDQAKII@Z
_TEXT	SEGMENT
__First_ch$ = 8						; size = 4
__Dest$ = 12						; size = 4
__Byte_count$ = 16					; size = 4
__Object_count$ = 20					; size = 4
??$_Copy_memmove_tail@PAK@std@@YAPAKQBDQAKII@Z PROC	; std::_Copy_memmove_tail<unsigned long *>, COMDAT

; 4747 :     const char* const _First_ch, const _OutCtgIt _Dest, const size_t _Byte_count, const size_t _Object_count) {

  00000	55		 push	 ebp
  00001	8b ec		 mov	 ebp, esp
  00003	56		 push	 esi

; 4748 :     _STL_INTERNAL_CHECK(_Byte_count == _Object_count * sizeof(*_Dest));
; 4749 :     const auto _Dest_ptr = _STD _To_address(_Dest);
; 4750 :     const auto _Dest_ch  = const_cast<char*>(reinterpret_cast<const volatile char*>(_Dest_ptr));
; 4751 :     _CSTD memmove(_Dest_ch, _First_ch, _Byte_count);

  00004	8b 75 0c	 mov	 esi, DWORD PTR __Dest$[ebp]
  00007	57		 push	 edi
  00008	8b 7d 10	 mov	 edi, DWORD PTR __Byte_count$[ebp]
  0000b	57		 push	 edi
  0000c	ff 75 08	 push	 DWORD PTR __First_ch$[ebp]
  0000f	56		 push	 esi
  00010	e8 00 00 00 00	 call	 _memmove
  00015	83 c4 0c	 add	 esp, 12			; 0000000cH

; 4752 :     if constexpr (is_pointer_v<_OutCtgIt>) {
; 4753 :         (void) _Object_count;
; 4754 :         // CodeQL [SM02986] This cast is correct: we're bypassing pointer arithmetic for performance.
; 4755 :         return reinterpret_cast<_OutCtgIt>(_Dest_ch + _Byte_count);

  00018	8d 04 3e	 lea	 eax, DWORD PTR [esi+edi]
  0001b	5f		 pop	 edi
  0001c	5e		 pop	 esi

; 4756 :     } else {
; 4757 :         return _Dest + static_cast<_Iter_diff_t<_OutCtgIt>>(_Object_count);
; 4758 :     }
; 4759 : }

  0001d	5d		 pop	 ebp
  0001e	c3		 ret	 0
??$_Copy_memmove_tail@PAK@std@@YAPAKQBDQAKII@Z ENDP	; std::_Copy_memmove_tail<unsigned long *>
_TEXT	ENDS
; Function compile flags: /Ogtp
; File C:\Program Files\Microsoft Visual Studio\2022\Professional\VC\Tools\MSVC\14.44.35207\include\xutility
;	COMDAT ??$_Copy_memmove@PAKPAK@std@@YAPAKPAK00@Z
_TEXT	SEGMENT
__First$ = 8						; size = 4
__Last$ = 12						; size = 4
__Dest$ = 16						; size = 4
??$_Copy_memmove@PAKPAK@std@@YAPAKPAK00@Z PROC		; std::_Copy_memmove<unsigned long *,unsigned long *>, COMDAT

; 4762 : _OutCtgIt _Copy_memmove(_CtgIt _First, _CtgIt _Last, _OutCtgIt _Dest) {

  00000	55		 push	 ebp
  00001	8b ec		 mov	 ebp, esp

; 4763 :     _STL_INTERNAL_CHECK(_First <= _Last);
; 4764 :     const auto _First_ptr    = _STD _To_address(_First);
; 4765 :     const auto _Last_ptr     = _STD _To_address(_Last);
; 4766 :     const auto _Object_count = static_cast<size_t>(_Last_ptr - _First_ptr);

  00003	8b 55 08	 mov	 edx, DWORD PTR __First$[ebp]
  00006	8b 4d 0c	 mov	 ecx, DWORD PTR __Last$[ebp]
  00009	2b ca		 sub	 ecx, edx
  0000b	8b c1		 mov	 eax, ecx
  0000d	c1 f8 02	 sar	 eax, 2

; 4767 :     const auto _First_ch     = const_cast<const char*>(reinterpret_cast<const volatile char*>(_First_ptr));
; 4768 :     const auto _Last_ch      = const_cast<const char*>(reinterpret_cast<const volatile char*>(_Last_ptr));
; 4769 :     const auto _Byte_count   = static_cast<size_t>(_Last_ch - _First_ch);
; 4770 :     return _STD _Copy_memmove_tail(_First_ch, _STD move(_Dest), _Byte_count, _Object_count);

  00010	50		 push	 eax
  00011	51		 push	 ecx
  00012	ff 75 10	 push	 DWORD PTR __Dest$[ebp]
  00015	52		 push	 edx
  00016	e8 00 00 00 00	 call	 ??$_Copy_memmove_tail@PAK@std@@YAPAKQBDQAKII@Z ; std::_Copy_memmove_tail<unsigned long *>
  0001b	83 c4 10	 add	 esp, 16			; 00000010H

; 4771 : }

  0001e	5d		 pop	 ebp
  0001f	c3		 ret	 0
??$_Copy_memmove@PAKPAK@std@@YAPAKPAK00@Z ENDP		; std::_Copy_memmove<unsigned long *,unsigned long *>
_TEXT	ENDS
; Function compile flags: /Ogtp
; File C:\Program Files\Microsoft Visual Studio\2022\Professional\VC\Tools\MSVC\14.44.35207\include\xtree
; File C:\Program Files\Microsoft Visual Studio\2022\Professional\VC\Tools\MSVC\14.44.35207\include\xmemory
; File C:\Program Files\Microsoft Visual Studio\2022\Professional\VC\Tools\MSVC\14.44.35207\include\xtree
;	COMDAT ??1?$_Tree_temp_node@V?$allocator@U?$_Tree_node@U?$pair@$$CBEPAU__TAXINFO@@@std@@PAX@std@@@std@@@std@@QAE@XZ
_TEXT	SEGMENT
??1?$_Tree_temp_node@V?$allocator@U?$_Tree_node@U?$pair@$$CBEPAU__TAXINFO@@@std@@PAX@std@@@std@@@std@@QAE@XZ PROC ; std::_Tree_temp_node<std::allocator<std::_Tree_node<std::pair<unsigned char const ,__TAXINFO *>,void *> > >::~_Tree_temp_node<std::allocator<std::_Tree_node<std::pair<unsigned char const ,__TAXINFO *>,void *> > >, COMDAT
; _this$ = ecx
; File C:\Program Files\Microsoft Visual Studio\2022\Professional\VC\Tools\MSVC\14.44.35207\include\xmemory

; 1172 :         if (_Ptr) {

  00000	8b 41 04	 mov	 eax, DWORD PTR [ecx+4]
  00003	85 c0		 test	 eax, eax
  00005	74 0b		 je	 SHORT $LN19@Tree_temp_

; 289  :         ::operator delete(_Ptr, _Bytes);

  00007	6a 18		 push	 24			; 00000018H
  00009	50		 push	 eax
  0000a	e8 00 00 00 00	 call	 ??3@YAXPAXI@Z		; operator delete
  0000f	83 c4 08	 add	 esp, 8
$LN19@Tree_temp_:
; File C:\Program Files\Microsoft Visual Studio\2022\Professional\VC\Tools\MSVC\14.44.35207\include\xtree

; 848  :     }

  00012	c3		 ret	 0
??1?$_Tree_temp_node@V?$allocator@U?$_Tree_node@U?$pair@$$CBEPAU__TAXINFO@@@std@@PAX@std@@@std@@@std@@QAE@XZ ENDP ; std::_Tree_temp_node<std::allocator<std::_Tree_node<std::pair<unsigned char const ,__TAXINFO *>,void *> > >::~_Tree_temp_node<std::allocator<std::_Tree_node<std::pair<unsigned char const ,__TAXINFO *>,void *> > >
_TEXT	ENDS
; Function compile flags: /Ogtp
; File C:\Program Files\Microsoft Visual Studio\2022\Professional\VC\Tools\MSVC\14.44.35207\include\xmemory
;	COMDAT ??1?$_Alloc_construct_ptr@V?$allocator@U?$_Tree_node@U?$pair@$$CBEPAU__TAXINFO@@@std@@PAX@std@@@std@@@std@@QAE@XZ
_TEXT	SEGMENT
??1?$_Alloc_construct_ptr@V?$allocator@U?$_Tree_node@U?$pair@$$CBEPAU__TAXINFO@@@std@@PAX@std@@@std@@@std@@QAE@XZ PROC ; std::_Alloc_construct_ptr<std::allocator<std::_Tree_node<std::pair<unsigned char const ,__TAXINFO *>,void *> > >::~_Alloc_construct_ptr<std::allocator<std::_Tree_node<std::pair<unsigned char const ,__TAXINFO *>,void *> > >, COMDAT
; _this$ = ecx

; 1172 :         if (_Ptr) {

  00000	8b 41 04	 mov	 eax, DWORD PTR [ecx+4]
  00003	85 c0		 test	 eax, eax
  00005	74 0b		 je	 SHORT $LN10@Alloc_cons

; 289  :         ::operator delete(_Ptr, _Bytes);

  00007	6a 18		 push	 24			; 00000018H
  00009	50		 push	 eax
  0000a	e8 00 00 00 00	 call	 ??3@YAXPAXI@Z		; operator delete
  0000f	83 c4 08	 add	 esp, 8
$LN10@Alloc_cons:

; 1173 :             _Al.deallocate(_Ptr, 1);
; 1174 :         }
; 1175 :     }

  00012	c3		 ret	 0
??1?$_Alloc_construct_ptr@V?$allocator@U?$_Tree_node@U?$pair@$$CBEPAU__TAXINFO@@@std@@PAX@std@@@std@@@std@@QAE@XZ ENDP ; std::_Alloc_construct_ptr<std::allocator<std::_Tree_node<std::pair<unsigned char const ,__TAXINFO *>,void *> > >::~_Alloc_construct_ptr<std::allocator<std::_Tree_node<std::pair<unsigned char const ,__TAXINFO *>,void *> > >
_TEXT	ENDS
; Function compile flags: /Ogtp
; File C:\Program Files\Microsoft Visual Studio\2022\Professional\VC\Tools\MSVC\14.44.35207\include\xmemory
;	COMDAT ??1?$_Alloc_construct_ptr@V?$allocator@U?$_Tree_node@U?$pair@$$CBEPAU__TAXDETAIL@@@std@@PAX@std@@@std@@@std@@QAE@XZ
_TEXT	SEGMENT
??1?$_Alloc_construct_ptr@V?$allocator@U?$_Tree_node@U?$pair@$$CBEPAU__TAXDETAIL@@@std@@PAX@std@@@std@@@std@@QAE@XZ PROC ; std::_Alloc_construct_ptr<std::allocator<std::_Tree_node<std::pair<unsigned char const ,__TAXDETAIL *>,void *> > >::~_Alloc_construct_ptr<std::allocator<std::_Tree_node<std::pair<unsigned char const ,__TAXDETAIL *>,void *> > >, COMDAT
; _this$ = ecx

; 1172 :         if (_Ptr) {

  00000	8b 41 04	 mov	 eax, DWORD PTR [ecx+4]
  00003	85 c0		 test	 eax, eax
  00005	74 0b		 je	 SHORT $LN10@Alloc_cons

; 289  :         ::operator delete(_Ptr, _Bytes);

  00007	6a 18		 push	 24			; 00000018H
  00009	50		 push	 eax
  0000a	e8 00 00 00 00	 call	 ??3@YAXPAXI@Z		; operator delete
  0000f	83 c4 08	 add	 esp, 8
$LN10@Alloc_cons:

; 1173 :             _Al.deallocate(_Ptr, 1);
; 1174 :         }
; 1175 :     }

  00012	c3		 ret	 0
??1?$_Alloc_construct_ptr@V?$allocator@U?$_Tree_node@U?$pair@$$CBEPAU__TAXDETAIL@@@std@@PAX@std@@@std@@@std@@QAE@XZ ENDP ; std::_Alloc_construct_ptr<std::allocator<std::_Tree_node<std::pair<unsigned char const ,__TAXDETAIL *>,void *> > >::~_Alloc_construct_ptr<std::allocator<std::_Tree_node<std::pair<unsigned char const ,__TAXDETAIL *>,void *> > >
_TEXT	ENDS
; Function compile flags: /Ogtp
; File C:\Program Files\Microsoft Visual Studio\2022\Professional\VC\Tools\MSVC\14.44.35207\include\vector
; File C:\Program Files\Microsoft Visual Studio\2022\Professional\VC\Tools\MSVC\14.44.35207\include\xmemory
; File C:\Program Files\Microsoft Visual Studio\2022\Professional\VC\Tools\MSVC\14.44.35207\include\vector
; File C:\Program Files\Microsoft Visual Studio\2022\Professional\VC\Tools\MSVC\14.44.35207\include\xmemory
; File C:\Program Files\Microsoft Visual Studio\2022\Professional\VC\Tools\MSVC\14.44.35207\include\vector
; File C:\Program Files\Microsoft Visual Studio\2022\Professional\VC\Tools\MSVC\14.44.35207\include\xmemory
; File C:\Program Files\Microsoft Visual Studio\2022\Professional\VC\Tools\MSVC\14.44.35207\include\vector
; File C:\Program Files\Microsoft Visual Studio\2022\Professional\VC\Tools\MSVC\14.44.35207\include\xmemory
; File C:\Program Files\Microsoft Visual Studio\2022\Professional\VC\Tools\MSVC\14.44.35207\include\vector
; File C:\Program Files\Microsoft Visual Studio\2022\Professional\VC\Tools\MSVC\14.44.35207\include\xmemory
; File C:\Program Files\Microsoft Visual Studio\2022\Professional\VC\Tools\MSVC\14.44.35207\include\vector
; File C:\Program Files\Microsoft Visual Studio\2022\Professional\VC\Tools\MSVC\14.44.35207\include\xmemory
; File C:\Program Files\Microsoft Visual Studio\2022\Professional\VC\Tools\MSVC\14.44.35207\include\vector
; File C:\Program Files\Microsoft Visual Studio\2022\Professional\VC\Tools\MSVC\14.44.35207\include\xmemory
; File C:\Program Files\Microsoft Visual Studio\2022\Professional\VC\Tools\MSVC\14.44.35207\include\vector
; File C:\Program Files\Microsoft Visual Studio\2022\Professional\VC\Tools\MSVC\14.44.35207\include\xmemory
; File C:\Program Files\Microsoft Visual Studio\2022\Professional\VC\Tools\MSVC\14.44.35207\include\vector
;	COMDAT ??$_Emplace_reallocate@K@?$vector@KV?$allocator@K@std@@@std@@AAEPAKQAK$$QAK@Z
_TEXT	SEGMENT
__Newsize$1$ = -12					; size = 4
tv652 = -8						; size = 4
tv650 = -4						; size = 4
__Whereptr$ = 8						; size = 4
_<_Val_0>$ = 12						; size = 4
??$_Emplace_reallocate@K@?$vector@KV?$allocator@K@std@@@std@@AAEPAKQAK$$QAK@Z PROC ; std::vector<unsigned long,std::allocator<unsigned long> >::_Emplace_reallocate<unsigned long>, COMDAT
; _this$ = ecx

; 875  :     _CONSTEXPR20 pointer _Emplace_reallocate(const pointer _Whereptr, _Valty&&... _Val) {

  00000	55		 push	 ebp
  00001	8b ec		 mov	 ebp, esp
  00003	83 ec 0c	 sub	 esp, 12			; 0000000cH
  00006	53		 push	 ebx

; 876  :         // reallocate and insert by perfectly forwarding _Val at _Whereptr
; 877  :         _Alty& _Al        = _Getal();
; 878  :         auto& _My_data    = _Mypair._Myval2;
; 879  :         pointer& _Myfirst = _My_data._Myfirst;
; 880  :         pointer& _Mylast  = _My_data._Mylast;
; 881  : 
; 882  :         _STL_INTERNAL_CHECK(_Mylast == _My_data._Myend); // check that we have no unused capacity
; 883  : 
; 884  :         const auto _Whereoff = static_cast<size_type>(_Whereptr - _Myfirst);

  00007	8b 5d 08	 mov	 ebx, DWORD PTR __Whereptr$[ebp]
  0000a	56		 push	 esi
  0000b	8b f1		 mov	 esi, ecx
  0000d	57		 push	 edi
  0000e	8b 0e		 mov	 ecx, DWORD PTR [esi]
  00010	2b d9		 sub	 ebx, ecx

; 885  :         const auto _Oldsize  = static_cast<size_type>(_Mylast - _Myfirst);

  00012	8b 46 04	 mov	 eax, DWORD PTR [esi+4]
  00015	2b c1		 sub	 eax, ecx
  00017	c1 fb 02	 sar	 ebx, 2
  0001a	c1 f8 02	 sar	 eax, 2

; 886  : 
; 887  :         if (_Oldsize == max_size()) {

  0001d	3d ff ff ff 3f	 cmp	 eax, 1073741823		; 3fffffffH
  00022	0f 84 13 01 00
	00		 je	 $LN111@Emplace_re

; 1924 :         return static_cast<size_type>(_My_data._Myend - _My_data._Myfirst);

  00028	8b 56 08	 mov	 edx, DWORD PTR [esi+8]

; 889  :         }
; 890  : 
; 891  :         const size_type _Newsize = _Oldsize + 1;

  0002b	8d 78 01	 lea	 edi, DWORD PTR [eax+1]

; 1924 :         return static_cast<size_type>(_My_data._Myend - _My_data._Myfirst);

  0002e	2b d1		 sub	 edx, ecx

; 889  :         }
; 890  : 
; 891  :         const size_type _Newsize = _Oldsize + 1;

  00030	89 7d f4	 mov	 DWORD PTR __Newsize$1$[ebp], edi

; 1924 :         return static_cast<size_type>(_My_data._Myend - _My_data._Myfirst);

  00033	c1 fa 02	 sar	 edx, 2

; 2011 :         if (_Oldcapacity > _Max - _Oldcapacity / 2) {

  00036	b8 ff ff ff 3f	 mov	 eax, 1073741823		; 3fffffffH
  0003b	8b ca		 mov	 ecx, edx
  0003d	d1 e9		 shr	 ecx, 1
  0003f	2b c1		 sub	 eax, ecx
  00041	3b d0		 cmp	 edx, eax
  00043	76 14		 jbe	 SHORT $LN8@Emplace_re

; 2012 :             return _Max; // geometric growth would overflow

  00045	b8 fc ff ff ff	 mov	 eax, -4			; fffffffcH
  0004a	c7 45 f8 fc ff
	ff ff		 mov	 DWORD PTR tv652[ebp], -4 ; fffffffcH
; File C:\Program Files\Microsoft Visual Studio\2022\Professional\VC\Tools\MSVC\14.44.35207\include\xmemory

; 253  :             return _Allocate_manually_vector_aligned<_Traits>(_Bytes);

  00051	50		 push	 eax
  00052	e8 00 00 00 00	 call	 ??$_Allocate_manually_vector_aligned@U_Default_allocate_traits@std@@@std@@YAPAXI@Z ; std::_Allocate_manually_vector_aligned<std::_Default_allocate_traits>
  00057	eb 3d		 jmp	 SHORT $LN109@Emplace_re
$LN8@Emplace_re:
; File C:\Program Files\Microsoft Visual Studio\2022\Professional\VC\Tools\MSVC\14.44.35207\include\vector

; 2015 :         const size_type _Geometric = _Oldcapacity + _Oldcapacity / 2;

  00059	8d 04 11	 lea	 eax, DWORD PTR [ecx+edx]
; File C:\Program Files\Microsoft Visual Studio\2022\Professional\VC\Tools\MSVC\14.44.35207\include\xmemory

; 117  :         if (_Count > _Max_possible) {

  0005c	8b cf		 mov	 ecx, edi
  0005e	3b c7		 cmp	 eax, edi
  00060	0f 43 c8	 cmovae	 ecx, eax
  00063	81 f9 ff ff ff
	3f		 cmp	 ecx, 1073741823		; 3fffffffH
  00069	0f 87 d1 00 00
	00		 ja	 $LN112@Emplace_re

; 119  :         }
; 120  :     }
; 121  : 
; 122  :     return _Count * _Ty_size;

  0006f	8d 04 8d 00 00
	00 00		 lea	 eax, DWORD PTR [ecx*4]
  00076	89 45 f8	 mov	 DWORD PTR tv652[ebp], eax

; 227  :     if (_Bytes == 0) {

  00079	85 c0		 test	 eax, eax
  0007b	75 04		 jne	 SHORT $LN23@Emplace_re

; 228  :         return nullptr;

  0007d	33 ff		 xor	 edi, edi
  0007f	eb 1a		 jmp	 SHORT $LN22@Emplace_re
$LN23@Emplace_re:

; 229  :     }
; 230  : 
; 231  : #if _HAS_CXX20 // TRANSITION, GH-1532
; 232  :     if (_STD is_constant_evaluated()) {
; 233  :         return _Traits::_Allocate(_Bytes);
; 234  :     }
; 235  : #endif // _HAS_CXX20
; 236  : 
; 237  : #ifdef __cpp_aligned_new
; 238  :     if constexpr (_Align > __STDCPP_DEFAULT_NEW_ALIGNMENT__) {
; 239  :         size_t _Passed_align = _Align;
; 240  : #if defined(_M_IX86) || defined(_M_X64)
; 241  :         if (_Bytes >= _Big_allocation_threshold) {
; 242  :             // boost the alignment of big allocations to help autovectorization
; 243  :             _Passed_align = (_STD max)(_Align, _Big_allocation_alignment);
; 244  :         }
; 245  : #endif // defined(_M_IX86) || defined(_M_X64)
; 246  :         return _Traits::_Allocate_aligned(_Bytes, _Passed_align);
; 247  :     } else
; 248  : #endif // defined(__cpp_aligned_new)
; 249  :     {
; 250  : #if defined(_M_IX86) || defined(_M_X64)
; 251  :         if (_Bytes >= _Big_allocation_threshold) {

  00081	3d 00 10 00 00	 cmp	 eax, 4096		; 00001000H
  00086	72 08		 jb	 SHORT $LN24@Emplace_re

; 253  :             return _Allocate_manually_vector_aligned<_Traits>(_Bytes);

  00088	50		 push	 eax
  00089	e8 00 00 00 00	 call	 ??$_Allocate_manually_vector_aligned@U_Default_allocate_traits@std@@@std@@YAPAXI@Z ; std::_Allocate_manually_vector_aligned<std::_Default_allocate_traits>
  0008e	eb 06		 jmp	 SHORT $LN109@Emplace_re
$LN24@Emplace_re:

; 136  :         return ::operator new(_Bytes);

  00090	50		 push	 eax
  00091	e8 00 00 00 00	 call	 ??2@YAPAXI@Z		; operator new
$LN109@Emplace_re:
; File C:\Program Files\Microsoft Visual Studio\2022\Professional\VC\Tools\MSVC\14.44.35207\include\vector

; 900  :         _Alty_traits::construct(_Al, _STD _Unfancy(_Newvec + _Whereoff), _STD forward<_Valty>(_Val)...);

  00096	8b f8		 mov	 edi, eax
  00098	83 c4 04	 add	 esp, 4
$LN22@Emplace_re:
  0009b	8b 45 0c	 mov	 eax, DWORD PTR _<_Val_0>$[ebp]
  0009e	8d 0c 9f	 lea	 ecx, DWORD PTR [edi+ebx*4]

; 901  :         _Constructed_first = _Newvec + _Whereoff;
; 902  : 
; 903  :         if (_Whereptr == _Mylast) { // at back, provide strong guarantee

  000a1	8b 5d 08	 mov	 ebx, DWORD PTR __Whereptr$[ebp]
  000a4	89 4d fc	 mov	 DWORD PTR tv650[ebp], ecx
  000a7	8b 00		 mov	 eax, DWORD PTR [eax]
  000a9	89 01		 mov	 DWORD PTR [ecx], eax
  000ab	8b 46 04	 mov	 eax, DWORD PTR [esi+4]
  000ae	8b 0e		 mov	 ecx, DWORD PTR [esi]
  000b0	3b d8		 cmp	 ebx, eax
  000b2	75 07		 jne	 SHORT $LN3@Emplace_re

; 909  :         } else { // provide basic guarantee

  000b4	8b 5d fc	 mov	 ebx, DWORD PTR tv650[ebp]
; File C:\Program Files\Microsoft Visual Studio\2022\Professional\VC\Tools\MSVC\14.44.35207\include\xmemory

; 1992 :             _STD _Copy_memmove(_UFirst, _ULast, _STD _Unfancy(_Dest));

  000b7	8b d7		 mov	 edx, edi
; File C:\Program Files\Microsoft Visual Studio\2022\Professional\VC\Tools\MSVC\14.44.35207\include\vector

; 909  :         } else { // provide basic guarantee

  000b9	eb 16		 jmp	 SHORT $LN52@Emplace_re
$LN3@Emplace_re:
; File C:\Program Files\Microsoft Visual Studio\2022\Professional\VC\Tools\MSVC\14.44.35207\include\xmemory

; 1992 :             _STD _Copy_memmove(_UFirst, _ULast, _STD _Unfancy(_Dest));

  000bb	57		 push	 edi
  000bc	53		 push	 ebx
  000bd	51		 push	 ecx
  000be	e8 00 00 00 00	 call	 ??$_Copy_memmove@PAKPAK@std@@YAPAKPAK00@Z ; std::_Copy_memmove<unsigned long *,unsigned long *>
  000c3	8b 46 04	 mov	 eax, DWORD PTR [esi+4]
  000c6	8b cb		 mov	 ecx, ebx
; File C:\Program Files\Microsoft Visual Studio\2022\Professional\VC\Tools\MSVC\14.44.35207\include\vector

; 912  :             _STD _Uninitialized_move(_Whereptr, _Mylast, _Newvec + _Whereoff + 1, _Al);

  000c8	8b 5d fc	 mov	 ebx, DWORD PTR tv650[ebp]
; File C:\Program Files\Microsoft Visual Studio\2022\Professional\VC\Tools\MSVC\14.44.35207\include\xmemory

; 1992 :             _STD _Copy_memmove(_UFirst, _ULast, _STD _Unfancy(_Dest));

  000cb	83 c4 0c	 add	 esp, 12			; 0000000cH
; File C:\Program Files\Microsoft Visual Studio\2022\Professional\VC\Tools\MSVC\14.44.35207\include\vector

; 912  :             _STD _Uninitialized_move(_Whereptr, _Mylast, _Newvec + _Whereoff + 1, _Al);

  000ce	8d 53 04	 lea	 edx, DWORD PTR [ebx+4]
$LN52@Emplace_re:

; 913  :         }
; 914  : 
; 915  :         _Guard._New_begin = nullptr;

  000d1	52		 push	 edx
  000d2	50		 push	 eax
  000d3	51		 push	 ecx
  000d4	e8 00 00 00 00	 call	 ??$_Copy_memmove@PAKPAK@std@@YAPAKPAK00@Z ; std::_Copy_memmove<unsigned long *,unsigned long *>

; 2069 :         if (_Myfirst) { // destroy and deallocate old array

  000d9	8b 06		 mov	 eax, DWORD PTR [esi]

; 913  :         }
; 914  : 
; 915  :         _Guard._New_begin = nullptr;

  000db	83 c4 0c	 add	 esp, 12			; 0000000cH

; 2069 :         if (_Myfirst) { // destroy and deallocate old array

  000de	85 c0		 test	 eax, eax
  000e0	74 2c		 je	 SHORT $LN72@Emplace_re

; 2070 :             _STD _Destroy_range(_Myfirst, _Mylast, _Al);
; 2071 :             _ASAN_VECTOR_REMOVE;
; 2072 :             _Al.deallocate(_Myfirst, static_cast<size_type>(_Myend - _Myfirst));

  000e2	8b 4e 08	 mov	 ecx, DWORD PTR [esi+8]
  000e5	2b c8		 sub	 ecx, eax
; File C:\Program Files\Microsoft Visual Studio\2022\Professional\VC\Tools\MSVC\14.44.35207\include\xmemory

; 985  :         _STD _Deallocate<_New_alignof<_Ty>>(_Ptr, sizeof(_Ty) * _Count);

  000e7	83 e1 fc	 and	 ecx, -4			; fffffffcH

; 284  :         if (_Bytes >= _Big_allocation_threshold) {

  000ea	81 f9 00 10 00
	00		 cmp	 ecx, 4096		; 00001000H
  000f0	72 12		 jb	 SHORT $LN77@Emplace_re

; 205  :     const uintptr_t _Ptr_container   = _Ptr_user[-1];

  000f2	8b 50 fc	 mov	 edx, DWORD PTR [eax-4]
  000f5	83 c1 23	 add	 ecx, 35			; 00000023H

; 206  : 
; 207  :     // If the following asserts, it likely means that we are performing
; 208  :     // an aligned delete on memory coming from an unaligned allocation.
; 209  :     _STL_ASSERT(_Ptr_user[-2] == _Big_allocation_sentinel, "invalid argument");
; 210  : 
; 211  :     // Extra paranoia on aligned allocation/deallocation; ensure _Ptr_container is
; 212  :     // in range [_Min_back_shift, _Non_user_size]
; 213  : #ifdef _DEBUG
; 214  :     constexpr uintptr_t _Min_back_shift = 2 * sizeof(void*);
; 215  : #else // ^^^ defined(_DEBUG) / !defined(_DEBUG) vvv
; 216  :     constexpr uintptr_t _Min_back_shift = sizeof(void*);
; 217  : #endif // ^^^ !defined(_DEBUG) ^^^
; 218  :     const uintptr_t _Back_shift = reinterpret_cast<uintptr_t>(_Ptr) - _Ptr_container;

  000f8	2b c2		 sub	 eax, edx

; 219  :     _STL_VERIFY(_Back_shift >= _Min_back_shift && _Back_shift <= _Non_user_size, "invalid argument");

  000fa	83 c0 fc	 add	 eax, -4			; fffffffcH
  000fd	83 f8 1f	 cmp	 eax, 31			; 0000001fH
  00100	77 2a		 ja	 SHORT $LN76@Emplace_re

; 220  :     _Ptr = reinterpret_cast<void*>(_Ptr_container);

  00102	8b c2		 mov	 eax, edx
$LN77@Emplace_re:

; 289  :         ::operator delete(_Ptr, _Bytes);

  00104	51		 push	 ecx
  00105	50		 push	 eax
  00106	e8 00 00 00 00	 call	 ??3@YAXPAXI@Z		; operator delete
  0010b	83 c4 08	 add	 esp, 8
$LN72@Emplace_re:
; File C:\Program Files\Microsoft Visual Studio\2022\Professional\VC\Tools\MSVC\14.44.35207\include\vector

; 2076 :         _Mylast  = _Newvec + _Newsize;

  0010e	8b 45 f4	 mov	 eax, DWORD PTR __Newsize$1$[ebp]
  00111	89 3e		 mov	 DWORD PTR [esi], edi
  00113	8d 0c 87	 lea	 ecx, DWORD PTR [edi+eax*4]

; 916  :         _Change_array(_Newvec, _Newsize, _Newcapacity);
; 917  :         return _Newvec + _Whereoff;

  00116	8b c3		 mov	 eax, ebx

; 2076 :         _Mylast  = _Newvec + _Newsize;

  00118	89 4e 04	 mov	 DWORD PTR [esi+4], ecx

; 2077 :         _Myend   = _Newvec + _Newcapacity;

  0011b	8b 4d f8	 mov	 ecx, DWORD PTR tv652[ebp]
  0011e	03 cf		 add	 ecx, edi

; 918  :     }

  00120	5f		 pop	 edi

; 2077 :         _Myend   = _Newvec + _Newcapacity;

  00121	89 4e 08	 mov	 DWORD PTR [esi+8], ecx

; 918  :     }

  00124	5e		 pop	 esi
  00125	5b		 pop	 ebx
  00126	8b e5		 mov	 esp, ebp
  00128	5d		 pop	 ebp
  00129	c2 08 00	 ret	 8
$LN76@Emplace_re:
; File C:\Program Files\Microsoft Visual Studio\2022\Professional\VC\Tools\MSVC\14.44.35207\include\xmemory

; 219  :     _STL_VERIFY(_Back_shift >= _Min_back_shift && _Back_shift <= _Non_user_size, "invalid argument");

  0012c	6a 00		 push	 0
  0012e	6a 00		 push	 0
  00130	6a 00		 push	 0
  00132	6a 00		 push	 0
  00134	6a 00		 push	 0
  00136	e8 00 00 00 00	 call	 __invoke_watson
$LN111@Emplace_re:
; File C:\Program Files\Microsoft Visual Studio\2022\Professional\VC\Tools\MSVC\14.44.35207\include\vector

; 888  :             _Xlength();

  0013b	e8 00 00 00 00	 call	 ?_Xlength@?$vector@KV?$allocator@K@std@@@std@@CAXXZ ; std::vector<unsigned long,std::allocator<unsigned long> >::_Xlength
$LN112@Emplace_re:
; File C:\Program Files\Microsoft Visual Studio\2022\Professional\VC\Tools\MSVC\14.44.35207\include\xmemory

; 118  :             _Throw_bad_array_new_length(); // multiply overflow

  00140	e8 00 00 00 00	 call	 ?_Throw_bad_array_new_length@std@@YAXXZ ; std::_Throw_bad_array_new_length
$LN108@Emplace_re:
  00145	cc		 int	 3
??$_Emplace_reallocate@K@?$vector@KV?$allocator@K@std@@@std@@AAEPAKQAK$$QAK@Z ENDP ; std::vector<unsigned long,std::allocator<unsigned long> >::_Emplace_reallocate<unsigned long>
_TEXT	ENDS
; Function compile flags: /Ogtp
; File C:\Program Files\Microsoft Visual Studio\2022\Professional\VC\Tools\MSVC\14.44.35207\include\xtree
; File C:\Program Files\Microsoft Visual Studio\2022\Professional\VC\Tools\MSVC\14.44.35207\include\utility
; File C:\Program Files\Microsoft Visual Studio\2022\Professional\VC\Tools\MSVC\14.44.35207\include\xmemory
; File C:\Program Files\Microsoft Visual Studio\2022\Professional\VC\Tools\MSVC\14.44.35207\include\xtree
;	COMDAT ??$_Erase_tree@V?$allocator@U?$_Tree_node@U?$pair@$$CBEPAU__TAXDETAIL@@@std@@PAX@std@@@std@@@?$_Tree_val@U?$_Tree_simple_types@U?$pair@$$CBEPAU__TAXDETAIL@@@std@@@std@@@std@@QAEXAAV?$allocator@U?$_Tree_node@U?$pair@$$CBEPAU__TAXDETAIL@@@std@@PAX@std@@@1@PAU?$_Tree_node@U?$pair@$$CBEPAU__TAXDETAIL@@@std@@PAX@1@@Z
_TEXT	SEGMENT
__Al$ = 8						; size = 4
__Rootnode$ = 12					; size = 4
??$_Erase_tree@V?$allocator@U?$_Tree_node@U?$pair@$$CBEPAU__TAXDETAIL@@@std@@PAX@std@@@std@@@?$_Tree_val@U?$_Tree_simple_types@U?$pair@$$CBEPAU__TAXDETAIL@@@std@@@std@@@std@@QAEXAAV?$allocator@U?$_Tree_node@U?$pair@$$CBEPAU__TAXDETAIL@@@std@@PAX@std@@@1@PAU?$_Tree_node@U?$pair@$$CBEPAU__TAXDETAIL@@@std@@PAX@1@@Z PROC ; std::_Tree_val<std::_Tree_simple_types<std::pair<unsigned char const ,__TAXDETAIL *> > >::_Erase_tree<std::allocator<std::_Tree_node<std::pair<unsigned char const ,__TAXDETAIL *>,void *> > >, COMDAT
; _this$ = ecx

; 767  :     void _Erase_tree(_Alnode& _Al, _Nodeptr _Rootnode) noexcept {

  00000	55		 push	 ebp
  00001	8b ec		 mov	 ebp, esp
  00003	53		 push	 ebx
  00004	56		 push	 esi

; 768  :         while (!_Rootnode->_Isnil) { // free subtrees, then node

  00005	8b 75 0c	 mov	 esi, DWORD PTR __Rootnode$[ebp]
  00008	8b d9		 mov	 ebx, ecx
  0000a	80 7e 0d 00	 cmp	 BYTE PTR [esi+13], 0
  0000e	75 25		 jne	 SHORT $LN34@Erase_tree
  00010	57		 push	 edi
  00011	8b 7d 08	 mov	 edi, DWORD PTR __Al$[ebp]
$LL2@Erase_tree:

; 769  :             _Erase_tree(_Al, _Rootnode->_Right);

  00014	ff 76 08	 push	 DWORD PTR [esi+8]
  00017	8b cb		 mov	 ecx, ebx
  00019	57		 push	 edi
  0001a	e8 00 00 00 00	 call	 ??$_Erase_tree@V?$allocator@U?$_Tree_node@U?$pair@$$CBEPAU__TAXDETAIL@@@std@@PAX@std@@@std@@@?$_Tree_val@U?$_Tree_simple_types@U?$pair@$$CBEPAU__TAXDETAIL@@@std@@@std@@@std@@QAEXAAV?$allocator@U?$_Tree_node@U?$pair@$$CBEPAU__TAXDETAIL@@@std@@PAX@std@@@1@PAU?$_Tree_node@U?$pair@$$CBEPAU__TAXDETAIL@@@std@@PAX@1@@Z ; std::_Tree_val<std::_Tree_simple_types<std::pair<unsigned char const ,__TAXDETAIL *> > >::_Erase_tree<std::allocator<std::_Tree_node<std::pair<unsigned char const ,__TAXDETAIL *>,void *> > >
; File C:\Program Files\Microsoft Visual Studio\2022\Professional\VC\Tools\MSVC\14.44.35207\include\utility

; 773  :     _Ty _Old_val = static_cast<_Ty&&>(_Val);

  0001f	8b c6		 mov	 eax, esi

; 774  :     _Val         = static_cast<_Other&&>(_New_val);

  00021	8b 36		 mov	 esi, DWORD PTR [esi]
; File C:\Program Files\Microsoft Visual Studio\2022\Professional\VC\Tools\MSVC\14.44.35207\include\xmemory

; 289  :         ::operator delete(_Ptr, _Bytes);

  00023	6a 18		 push	 24			; 00000018H
  00025	50		 push	 eax
  00026	e8 00 00 00 00	 call	 ??3@YAXPAXI@Z		; operator delete
  0002b	83 c4 08	 add	 esp, 8
; File C:\Program Files\Microsoft Visual Studio\2022\Professional\VC\Tools\MSVC\14.44.35207\include\xtree

; 768  :         while (!_Rootnode->_Isnil) { // free subtrees, then node

  0002e	80 7e 0d 00	 cmp	 BYTE PTR [esi+13], 0
  00032	74 e0		 je	 SHORT $LL2@Erase_tree
  00034	5f		 pop	 edi
$LN34@Erase_tree:
  00035	5e		 pop	 esi

; 770  :             _Alnode::value_type::_Freenode(_Al, _STD exchange(_Rootnode, _Rootnode->_Left));
; 771  :         }
; 772  :     }

  00036	5b		 pop	 ebx
  00037	5d		 pop	 ebp
  00038	c2 08 00	 ret	 8
??$_Erase_tree@V?$allocator@U?$_Tree_node@U?$pair@$$CBEPAU__TAXDETAIL@@@std@@PAX@std@@@std@@@?$_Tree_val@U?$_Tree_simple_types@U?$pair@$$CBEPAU__TAXDETAIL@@@std@@@std@@@std@@QAEXAAV?$allocator@U?$_Tree_node@U?$pair@$$CBEPAU__TAXDETAIL@@@std@@PAX@std@@@1@PAU?$_Tree_node@U?$pair@$$CBEPAU__TAXDETAIL@@@std@@PAX@1@@Z ENDP ; std::_Tree_val<std::_Tree_simple_types<std::pair<unsigned char const ,__TAXDETAIL *> > >::_Erase_tree<std::allocator<std::_Tree_node<std::pair<unsigned char const ,__TAXDETAIL *>,void *> > >
_TEXT	ENDS
; Function compile flags: /Ogtp
; File C:\Program Files\Microsoft Visual Studio\2022\Professional\VC\Tools\MSVC\14.44.35207\include\xtree
; File C:\Program Files\Microsoft Visual Studio\2022\Professional\VC\Tools\MSVC\14.44.35207\include\type_traits
; File C:\Program Files\Microsoft Visual Studio\2022\Professional\VC\Tools\MSVC\14.44.35207\include\xtree
; File C:\Program Files\Microsoft Visual Studio\2022\Professional\VC\Tools\MSVC\14.44.35207\include\type_traits
; File C:\Program Files\Microsoft Visual Studio\2022\Professional\VC\Tools\MSVC\14.44.35207\include\xtree
;	COMDAT ??$_Find_lower_bound@E@?$_Tree@V?$_Tmap_traits@EPAU__TAXDETAIL@@U?$less@E@std@@V?$allocator@U?$pair@$$CBEPAU__TAXDETAIL@@@std@@@3@$0A@@std@@@std@@IBE?AU?$_Tree_find_result@PAU?$_Tree_node@U?$pair@$$CBEPAU__TAXDETAIL@@@std@@PAX@std@@@1@ABE@Z
_TEXT	SEGMENT
___$ReturnUdt$ = 8					; size = 4
__Keyval$ = 12						; size = 4
??$_Find_lower_bound@E@?$_Tree@V?$_Tmap_traits@EPAU__TAXDETAIL@@U?$less@E@std@@V?$allocator@U?$pair@$$CBEPAU__TAXDETAIL@@@std@@@3@$0A@@std@@@std@@IBE?AU?$_Tree_find_result@PAU?$_Tree_node@U?$pair@$$CBEPAU__TAXDETAIL@@@std@@PAX@std@@@1@ABE@Z PROC ; std::_Tree<std::_Tmap_traits<unsigned char,__TAXDETAIL *,std::less<unsigned char>,std::allocator<std::pair<unsigned char const ,__TAXDETAIL *> >,0> >::_Find_lower_bound<unsigned char>, COMDAT
; _this$ = ecx

; 1628 :     _Tree_find_result<_Nodeptr> _Find_lower_bound(const _Keyty& _Keyval) const {

  00000	55		 push	 ebp
  00001	8b ec		 mov	 ebp, esp

; 1629 :         const auto _Scary = _Get_scary();
; 1630 :         _Tree_find_result<_Nodeptr> _Result{{_Scary->_Myhead->_Parent, _Tree_child::_Right}, _Scary->_Myhead};

  00003	8b 09		 mov	 ecx, DWORD PTR [ecx]
  00005	8b 55 08	 mov	 edx, DWORD PTR ___$ReturnUdt$[ebp]
  00008	8b 41 04	 mov	 eax, DWORD PTR [ecx+4]
  0000b	89 02		 mov	 DWORD PTR [edx], eax
  0000d	c7 42 04 00 00
	00 00		 mov	 DWORD PTR [edx+4], 0
  00014	89 4a 08	 mov	 DWORD PTR [edx+8], ecx

; 1631 :         _Nodeptr _Trynode = _Result._Location._Parent;
; 1632 :         while (!_Trynode->_Isnil) {

  00017	80 78 0d 00	 cmp	 BYTE PTR [eax+13], 0
  0001b	75 28		 jne	 SHORT $LN13@Find_lower
; File C:\Program Files\Microsoft Visual Studio\2022\Professional\VC\Tools\MSVC\14.44.35207\include\type_traits

; 2380 :         return _Left < _Right;

  0001d	8b 4d 0c	 mov	 ecx, DWORD PTR __Keyval$[ebp]
  00020	53		 push	 ebx
  00021	8a 19		 mov	 bl, BYTE PTR [ecx]
$LL2@Find_lower:
; File C:\Program Files\Microsoft Visual Studio\2022\Professional\VC\Tools\MSVC\14.44.35207\include\xtree

; 1633 :             _Result._Location._Parent = _Trynode;

  00023	89 02		 mov	 DWORD PTR [edx], eax
; File C:\Program Files\Microsoft Visual Studio\2022\Professional\VC\Tools\MSVC\14.44.35207\include\type_traits

; 2380 :         return _Left < _Right;

  00025	38 58 10	 cmp	 BYTE PTR [eax+16], bl
; File C:\Program Files\Microsoft Visual Studio\2022\Professional\VC\Tools\MSVC\14.44.35207\include\xtree

; 1634 :             if (_DEBUG_LT_PRED(_Getcomp(), _Traits::_Kfn(_Trynode->_Myval), _Keyval)) {

  00028	73 07		 jae	 SHORT $LN4@Find_lower

; 1635 :                 _Result._Location._Child = _Tree_child::_Right;
; 1636 :                 _Trynode                 = _Trynode->_Right;

  0002a	8b 40 08	 mov	 eax, DWORD PTR [eax+8]
  0002d	33 c9		 xor	 ecx, ecx

; 1637 :             } else {

  0002f	eb 0a		 jmp	 SHORT $LN5@Find_lower
$LN4@Find_lower:

; 1638 :                 _Result._Location._Child = _Tree_child::_Left;
; 1639 :                 _Result._Bound           = _Trynode;

  00031	89 42 08	 mov	 DWORD PTR [edx+8], eax

; 1640 :                 _Trynode                 = _Trynode->_Left;

  00034	b9 01 00 00 00	 mov	 ecx, 1
  00039	8b 00		 mov	 eax, DWORD PTR [eax]
$LN5@Find_lower:

; 1631 :         _Nodeptr _Trynode = _Result._Location._Parent;
; 1632 :         while (!_Trynode->_Isnil) {

  0003b	89 4a 04	 mov	 DWORD PTR [edx+4], ecx
  0003e	80 78 0d 00	 cmp	 BYTE PTR [eax+13], 0
  00042	74 df		 je	 SHORT $LL2@Find_lower
  00044	5b		 pop	 ebx
$LN13@Find_lower:

; 1641 :             }
; 1642 :         }
; 1643 : 
; 1644 :         return _Result;
; 1645 :     }

  00045	8b c2		 mov	 eax, edx
  00047	5d		 pop	 ebp
  00048	c2 08 00	 ret	 8
??$_Find_lower_bound@E@?$_Tree@V?$_Tmap_traits@EPAU__TAXDETAIL@@U?$less@E@std@@V?$allocator@U?$pair@$$CBEPAU__TAXDETAIL@@@std@@@3@$0A@@std@@@std@@IBE?AU?$_Tree_find_result@PAU?$_Tree_node@U?$pair@$$CBEPAU__TAXDETAIL@@@std@@PAX@std@@@1@ABE@Z ENDP ; std::_Tree<std::_Tmap_traits<unsigned char,__TAXDETAIL *,std::less<unsigned char>,std::allocator<std::pair<unsigned char const ,__TAXDETAIL *> >,0> >::_Find_lower_bound<unsigned char>
_TEXT	ENDS
; Function compile flags: /Ogtp
; File C:\Program Files\Microsoft Visual Studio\2022\Professional\VC\Tools\MSVC\14.44.35207\include\xtree
; File C:\Program Files\Microsoft Visual Studio\2022\Professional\VC\Tools\MSVC\14.44.35207\include\type_traits
; File C:\Program Files\Microsoft Visual Studio\2022\Professional\VC\Tools\MSVC\14.44.35207\include\xtree
; File C:\Program Files\Microsoft Visual Studio\2022\Professional\VC\Tools\MSVC\14.44.35207\include\type_traits
; File C:\Program Files\Microsoft Visual Studio\2022\Professional\VC\Tools\MSVC\14.44.35207\include\xtree
;	COMDAT ??$_Find_lower_bound@E@?$_Tree@V?$_Tmap_traits@EPAU__TAXINFO@@U?$less@E@std@@V?$allocator@U?$pair@$$CBEPAU__TAXINFO@@@std@@@3@$0A@@std@@@std@@IBE?AU?$_Tree_find_result@PAU?$_Tree_node@U?$pair@$$CBEPAU__TAXINFO@@@std@@PAX@std@@@1@ABE@Z
_TEXT	SEGMENT
___$ReturnUdt$ = 8					; size = 4
__Keyval$ = 12						; size = 4
??$_Find_lower_bound@E@?$_Tree@V?$_Tmap_traits@EPAU__TAXINFO@@U?$less@E@std@@V?$allocator@U?$pair@$$CBEPAU__TAXINFO@@@std@@@3@$0A@@std@@@std@@IBE?AU?$_Tree_find_result@PAU?$_Tree_node@U?$pair@$$CBEPAU__TAXINFO@@@std@@PAX@std@@@1@ABE@Z PROC ; std::_Tree<std::_Tmap_traits<unsigned char,__TAXINFO *,std::less<unsigned char>,std::allocator<std::pair<unsigned char const ,__TAXINFO *> >,0> >::_Find_lower_bound<unsigned char>, COMDAT
; _this$ = ecx

; 1628 :     _Tree_find_result<_Nodeptr> _Find_lower_bound(const _Keyty& _Keyval) const {

  00000	55		 push	 ebp
  00001	8b ec		 mov	 ebp, esp

; 1629 :         const auto _Scary = _Get_scary();
; 1630 :         _Tree_find_result<_Nodeptr> _Result{{_Scary->_Myhead->_Parent, _Tree_child::_Right}, _Scary->_Myhead};

  00003	8b 09		 mov	 ecx, DWORD PTR [ecx]
  00005	8b 55 08	 mov	 edx, DWORD PTR ___$ReturnUdt$[ebp]
  00008	8b 41 04	 mov	 eax, DWORD PTR [ecx+4]
  0000b	89 02		 mov	 DWORD PTR [edx], eax
  0000d	c7 42 04 00 00
	00 00		 mov	 DWORD PTR [edx+4], 0
  00014	89 4a 08	 mov	 DWORD PTR [edx+8], ecx

; 1631 :         _Nodeptr _Trynode = _Result._Location._Parent;
; 1632 :         while (!_Trynode->_Isnil) {

  00017	80 78 0d 00	 cmp	 BYTE PTR [eax+13], 0
  0001b	75 28		 jne	 SHORT $LN13@Find_lower
; File C:\Program Files\Microsoft Visual Studio\2022\Professional\VC\Tools\MSVC\14.44.35207\include\type_traits

; 2380 :         return _Left < _Right;

  0001d	8b 4d 0c	 mov	 ecx, DWORD PTR __Keyval$[ebp]
  00020	53		 push	 ebx
  00021	8a 19		 mov	 bl, BYTE PTR [ecx]
$LL2@Find_lower:
; File C:\Program Files\Microsoft Visual Studio\2022\Professional\VC\Tools\MSVC\14.44.35207\include\xtree

; 1633 :             _Result._Location._Parent = _Trynode;

  00023	89 02		 mov	 DWORD PTR [edx], eax
; File C:\Program Files\Microsoft Visual Studio\2022\Professional\VC\Tools\MSVC\14.44.35207\include\type_traits

; 2380 :         return _Left < _Right;

  00025	38 58 10	 cmp	 BYTE PTR [eax+16], bl
; File C:\Program Files\Microsoft Visual Studio\2022\Professional\VC\Tools\MSVC\14.44.35207\include\xtree

; 1634 :             if (_DEBUG_LT_PRED(_Getcomp(), _Traits::_Kfn(_Trynode->_Myval), _Keyval)) {

  00028	73 07		 jae	 SHORT $LN4@Find_lower

; 1635 :                 _Result._Location._Child = _Tree_child::_Right;
; 1636 :                 _Trynode                 = _Trynode->_Right;

  0002a	8b 40 08	 mov	 eax, DWORD PTR [eax+8]
  0002d	33 c9		 xor	 ecx, ecx

; 1637 :             } else {

  0002f	eb 0a		 jmp	 SHORT $LN5@Find_lower
$LN4@Find_lower:

; 1638 :                 _Result._Location._Child = _Tree_child::_Left;
; 1639 :                 _Result._Bound           = _Trynode;

  00031	89 42 08	 mov	 DWORD PTR [edx+8], eax

; 1640 :                 _Trynode                 = _Trynode->_Left;

  00034	b9 01 00 00 00	 mov	 ecx, 1
  00039	8b 00		 mov	 eax, DWORD PTR [eax]
$LN5@Find_lower:

; 1631 :         _Nodeptr _Trynode = _Result._Location._Parent;
; 1632 :         while (!_Trynode->_Isnil) {

  0003b	89 4a 04	 mov	 DWORD PTR [edx+4], ecx
  0003e	80 78 0d 00	 cmp	 BYTE PTR [eax+13], 0
  00042	74 df		 je	 SHORT $LL2@Find_lower
  00044	5b		 pop	 ebx
$LN13@Find_lower:

; 1641 :             }
; 1642 :         }
; 1643 : 
; 1644 :         return _Result;
; 1645 :     }

  00045	8b c2		 mov	 eax, edx
  00047	5d		 pop	 ebp
  00048	c2 08 00	 ret	 8
??$_Find_lower_bound@E@?$_Tree@V?$_Tmap_traits@EPAU__TAXINFO@@U?$less@E@std@@V?$allocator@U?$pair@$$CBEPAU__TAXINFO@@@std@@@3@$0A@@std@@@std@@IBE?AU?$_Tree_find_result@PAU?$_Tree_node@U?$pair@$$CBEPAU__TAXINFO@@@std@@PAX@std@@@1@ABE@Z ENDP ; std::_Tree<std::_Tmap_traits<unsigned char,__TAXINFO *,std::less<unsigned char>,std::allocator<std::pair<unsigned char const ,__TAXINFO *> >,0> >::_Find_lower_bound<unsigned char>
_TEXT	ENDS
; Function compile flags: /Ogtp
; File C:\Program Files\Microsoft Visual Studio\2022\Professional\VC\Tools\MSVC\14.44.35207\include\xtree
; File C:\Program Files\Microsoft Visual Studio\2022\Professional\VC\Tools\MSVC\14.44.35207\include\utility
; File C:\Program Files\Microsoft Visual Studio\2022\Professional\VC\Tools\MSVC\14.44.35207\include\xmemory
; File C:\Program Files\Microsoft Visual Studio\2022\Professional\VC\Tools\MSVC\14.44.35207\include\xtree
;	COMDAT ??$_Erase_tree@V?$allocator@U?$_Tree_node@U?$pair@$$CBEPAU__TAXINFO@@@std@@PAX@std@@@std@@@?$_Tree_val@U?$_Tree_simple_types@U?$pair@$$CBEPAU__TAXINFO@@@std@@@std@@@std@@QAEXAAV?$allocator@U?$_Tree_node@U?$pair@$$CBEPAU__TAXINFO@@@std@@PAX@std@@@1@PAU?$_Tree_node@U?$pair@$$CBEPAU__TAXINFO@@@std@@PAX@1@@Z
_TEXT	SEGMENT
__Al$ = 8						; size = 4
__Rootnode$ = 12					; size = 4
??$_Erase_tree@V?$allocator@U?$_Tree_node@U?$pair@$$CBEPAU__TAXINFO@@@std@@PAX@std@@@std@@@?$_Tree_val@U?$_Tree_simple_types@U?$pair@$$CBEPAU__TAXINFO@@@std@@@std@@@std@@QAEXAAV?$allocator@U?$_Tree_node@U?$pair@$$CBEPAU__TAXINFO@@@std@@PAX@std@@@1@PAU?$_Tree_node@U?$pair@$$CBEPAU__TAXINFO@@@std@@PAX@1@@Z PROC ; std::_Tree_val<std::_Tree_simple_types<std::pair<unsigned char const ,__TAXINFO *> > >::_Erase_tree<std::allocator<std::_Tree_node<std::pair<unsigned char const ,__TAXINFO *>,void *> > >, COMDAT
; _this$ = ecx

; 767  :     void _Erase_tree(_Alnode& _Al, _Nodeptr _Rootnode) noexcept {

  00000	55		 push	 ebp
  00001	8b ec		 mov	 ebp, esp
  00003	53		 push	 ebx
  00004	56		 push	 esi

; 768  :         while (!_Rootnode->_Isnil) { // free subtrees, then node

  00005	8b 75 0c	 mov	 esi, DWORD PTR __Rootnode$[ebp]
  00008	8b d9		 mov	 ebx, ecx
  0000a	80 7e 0d 00	 cmp	 BYTE PTR [esi+13], 0
  0000e	75 25		 jne	 SHORT $LN34@Erase_tree
  00010	57		 push	 edi
  00011	8b 7d 08	 mov	 edi, DWORD PTR __Al$[ebp]
$LL2@Erase_tree:

; 769  :             _Erase_tree(_Al, _Rootnode->_Right);

  00014	ff 76 08	 push	 DWORD PTR [esi+8]
  00017	8b cb		 mov	 ecx, ebx
  00019	57		 push	 edi
  0001a	e8 00 00 00 00	 call	 ??$_Erase_tree@V?$allocator@U?$_Tree_node@U?$pair@$$CBEPAU__TAXINFO@@@std@@PAX@std@@@std@@@?$_Tree_val@U?$_Tree_simple_types@U?$pair@$$CBEPAU__TAXINFO@@@std@@@std@@@std@@QAEXAAV?$allocator@U?$_Tree_node@U?$pair@$$CBEPAU__TAXINFO@@@std@@PAX@std@@@1@PAU?$_Tree_node@U?$pair@$$CBEPAU__TAXINFO@@@std@@PAX@1@@Z ; std::_Tree_val<std::_Tree_simple_types<std::pair<unsigned char const ,__TAXINFO *> > >::_Erase_tree<std::allocator<std::_Tree_node<std::pair<unsigned char const ,__TAXINFO *>,void *> > >
; File C:\Program Files\Microsoft Visual Studio\2022\Professional\VC\Tools\MSVC\14.44.35207\include\utility

; 773  :     _Ty _Old_val = static_cast<_Ty&&>(_Val);

  0001f	8b c6		 mov	 eax, esi

; 774  :     _Val         = static_cast<_Other&&>(_New_val);

  00021	8b 36		 mov	 esi, DWORD PTR [esi]
; File C:\Program Files\Microsoft Visual Studio\2022\Professional\VC\Tools\MSVC\14.44.35207\include\xmemory

; 289  :         ::operator delete(_Ptr, _Bytes);

  00023	6a 18		 push	 24			; 00000018H
  00025	50		 push	 eax
  00026	e8 00 00 00 00	 call	 ??3@YAXPAXI@Z		; operator delete
  0002b	83 c4 08	 add	 esp, 8
; File C:\Program Files\Microsoft Visual Studio\2022\Professional\VC\Tools\MSVC\14.44.35207\include\xtree

; 768  :         while (!_Rootnode->_Isnil) { // free subtrees, then node

  0002e	80 7e 0d 00	 cmp	 BYTE PTR [esi+13], 0
  00032	74 e0		 je	 SHORT $LL2@Erase_tree
  00034	5f		 pop	 edi
$LN34@Erase_tree:
  00035	5e		 pop	 esi

; 770  :             _Alnode::value_type::_Freenode(_Al, _STD exchange(_Rootnode, _Rootnode->_Left));
; 771  :         }
; 772  :     }

  00036	5b		 pop	 ebx
  00037	5d		 pop	 ebp
  00038	c2 08 00	 ret	 8
??$_Erase_tree@V?$allocator@U?$_Tree_node@U?$pair@$$CBEPAU__TAXINFO@@@std@@PAX@std@@@std@@@?$_Tree_val@U?$_Tree_simple_types@U?$pair@$$CBEPAU__TAXINFO@@@std@@@std@@@std@@QAEXAAV?$allocator@U?$_Tree_node@U?$pair@$$CBEPAU__TAXINFO@@@std@@PAX@std@@@1@PAU?$_Tree_node@U?$pair@$$CBEPAU__TAXINFO@@@std@@PAX@1@@Z ENDP ; std::_Tree_val<std::_Tree_simple_types<std::pair<unsigned char const ,__TAXINFO *> > >::_Erase_tree<std::allocator<std::_Tree_node<std::pair<unsigned char const ,__TAXINFO *>,void *> > >
_TEXT	ENDS
; Function compile flags: /Ogtp
; File C:\IAGOS\server\v18\Source\Source\_Network\Misc\Include\Ar.h
;	COMDAT ??$?5E@CAr@@QAEAAV0@AAE@Z
_TEXT	SEGMENT
_t$ = 8							; size = 4
??$?5E@CAr@@QAEAAV0@AAE@Z PROC				; CAr::operator>><unsigned char>, COMDAT
; _this$ = ecx

; 302  : {

  00000	55		 push	 ebp
  00001	8b ec		 mov	 ebp, esp
  00003	8b d1		 mov	 edx, ecx

; 303  : 	if (m_lpBufCur + sizeof(T) <= m_lpBufMax)

  00005	8b 4a 08	 mov	 ecx, DWORD PTR [edx+8]
  00008	8d 41 01	 lea	 eax, DWORD PTR [ecx+1]
  0000b	3b 42 0c	 cmp	 eax, DWORD PTR [edx+12]
  0000e	8b 45 08	 mov	 eax, DWORD PTR _t$[ebp]
  00011	77 0d		 ja	 SHORT $LN2@operator

; 304  : 	{
; 305  : 		t = *(UNALIGNED T*)m_lpBufCur;

  00013	8a 09		 mov	 cl, BYTE PTR [ecx]
  00015	88 08		 mov	 BYTE PTR [eax], cl

; 312  : 	}
; 313  : 	return *this;
; 314  : }

  00017	8b c2		 mov	 eax, edx
  00019	ff 42 08	 inc	 DWORD PTR [edx+8]
  0001c	5d		 pop	 ebp
  0001d	c2 04 00	 ret	 4
$LN2@operator:

; 306  : 		m_lpBufCur += sizeof(T);
; 307  : 	}
; 308  : 	else
; 309  : 	{
; 310  : 		t = T();

  00020	c6 00 00	 mov	 BYTE PTR [eax], 0

; 311  : 		m_lpBufCur = m_lpBufMax;

  00023	8b 42 0c	 mov	 eax, DWORD PTR [edx+12]
  00026	89 42 08	 mov	 DWORD PTR [edx+8], eax

; 312  : 	}
; 313  : 	return *this;
; 314  : }

  00029	8b c2		 mov	 eax, edx
  0002b	5d		 pop	 ebp
  0002c	c2 04 00	 ret	 4
??$?5E@CAr@@QAEAAV0@AAE@Z ENDP				; CAr::operator>><unsigned char>
_TEXT	ENDS
; Function compile flags: /Ogtp
; File C:\IAGOS\server\v18\Source\Source\_Network\Misc\Include\Ar.h
;	COMDAT ??$?6E@CAr@@QAEAAV0@ABE@Z
_TEXT	SEGMENT
_t$ = 8							; size = 4
??$?6E@CAr@@QAEAAV0@ABE@Z PROC				; CAr::operator<<<unsigned char>, COMDAT
; _this$ = ecx

; 255  : {

  00000	55		 push	 ebp
  00001	8b ec		 mov	 ebp, esp
  00003	56		 push	 esi

; 256  : 	CheckBuf(sizeof(T));

  00004	6a 01		 push	 1
  00006	8b f1		 mov	 esi, ecx
  00008	e8 00 00 00 00	 call	 ?CheckBuf@CAr@@QAEXI@Z	; CAr::CheckBuf

; 257  : 	*(UNALIGNED T*)m_lpBufCur = t;

  0000d	8b 45 08	 mov	 eax, DWORD PTR _t$[ebp]
  00010	8b 56 08	 mov	 edx, DWORD PTR [esi+8]
  00013	8a 00		 mov	 al, BYTE PTR [eax]
  00015	88 02		 mov	 BYTE PTR [edx], al

; 258  : 	m_lpBufCur += sizeof(T);
; 259  : 	return *this;

  00017	8b c6		 mov	 eax, esi
  00019	ff 46 08	 inc	 DWORD PTR [esi+8]
  0001c	5e		 pop	 esi

; 260  : }

  0001d	5d		 pop	 ebp
  0001e	c2 04 00	 ret	 4
??$?6E@CAr@@QAEAAV0@ABE@Z ENDP				; CAr::operator<<<unsigned char>
_TEXT	ENDS
; Function compile flags: /Ogtp
; File C:\IAGOS\server\v18\Source\Source\_Network\Misc\Include\Ar.h
;	COMDAT ??$?6I@CAr@@QAEAAV0@ABI@Z
_TEXT	SEGMENT
_t$ = 8							; size = 4
??$?6I@CAr@@QAEAAV0@ABI@Z PROC				; CAr::operator<<<unsigned int>, COMDAT
; _this$ = ecx

; 255  : {

  00000	55		 push	 ebp
  00001	8b ec		 mov	 ebp, esp
  00003	56		 push	 esi

; 256  : 	CheckBuf(sizeof(T));

  00004	6a 04		 push	 4
  00006	8b f1		 mov	 esi, ecx
  00008	e8 00 00 00 00	 call	 ?CheckBuf@CAr@@QAEXI@Z	; CAr::CheckBuf

; 257  : 	*(UNALIGNED T*)m_lpBufCur = t;

  0000d	8b 56 08	 mov	 edx, DWORD PTR [esi+8]
  00010	8b 45 08	 mov	 eax, DWORD PTR _t$[ebp]
  00013	8b 00		 mov	 eax, DWORD PTR [eax]
  00015	89 02		 mov	 DWORD PTR [edx], eax

; 258  : 	m_lpBufCur += sizeof(T);
; 259  : 	return *this;

  00017	8b c6		 mov	 eax, esi
  00019	83 46 08 04	 add	 DWORD PTR [esi+8], 4
  0001d	5e		 pop	 esi

; 260  : }

  0001e	5d		 pop	 ebp
  0001f	c2 04 00	 ret	 4
??$?6I@CAr@@QAEAAV0@ABI@Z ENDP				; CAr::operator<<<unsigned int>
_TEXT	ENDS
; Function compile flags: /Ogtp
;	COMDAT ??__FsTax@?1??GetInstance@CTax@@SAPAV1@XZ@YAXXZ
text$yd	SEGMENT
??__FsTax@?1??GetInstance@CTax@@SAPAV1@XZ@YAXXZ PROC	; `CTax::GetInstance'::`2'::`dynamic atexit destructor for 'sTax'', COMDAT
  00000	b9 00 00 00 00	 mov	 ecx, OFFSET ?sTax@?1??GetInstance@CTax@@SAPAV2@XZ@4V2@A
  00005	e9 00 00 00 00	 jmp	 ??1CTax@@QAE@XZ		; CTax::~CTax
??__FsTax@?1??GetInstance@CTax@@SAPAV1@XZ@YAXXZ ENDP	; `CTax::GetInstance'::`2'::`dynamic atexit destructor for 'sTax''
text$yd	ENDS
; Function compile flags: /Ogtp
; File C:\Program Files\Microsoft Visual Studio\2022\Professional\VC\Tools\MSVC\14.44.35207\include\xtree
;	COMDAT ??E?$_Tree_iterator@V?$_Tree_val@U?$_Tree_simple_types@U?$pair@$$CBEPAU__TAXINFO@@@std@@@std@@@std@@@std@@QAE?AV01@H@Z
_TEXT	SEGMENT
___$ReturnUdt$ = 8					; size = 4
___formal$ = 12						; size = 4
??E?$_Tree_iterator@V?$_Tree_val@U?$_Tree_simple_types@U?$pair@$$CBEPAU__TAXINFO@@@std@@@std@@@std@@@std@@QAE?AV01@H@Z PROC ; std::_Tree_iterator<std::_Tree_val<std::_Tree_simple_types<std::pair<unsigned char const ,__TAXINFO *> > > >::operator++, COMDAT
; _this$ = ecx

; 286  :     _Tree_iterator operator++(int) noexcept {

  00000	55		 push	 ebp
  00001	8b ec		 mov	 ebp, esp
  00003	56		 push	 esi
  00004	8b f1		 mov	 esi, ecx
  00006	57		 push	 edi

; 287  :         _Tree_iterator _Tmp = *this;

  00007	8b 7d 08	 mov	 edi, DWORD PTR ___$ReturnUdt$[ebp]
  0000a	8b 06		 mov	 eax, DWORD PTR [esi]
  0000c	89 07		 mov	 DWORD PTR [edi], eax

; 50   :         if (_Ptr->_Right->_Isnil) { // climb looking for right subtree

  0000e	8b 50 08	 mov	 edx, DWORD PTR [eax+8]
  00011	80 7a 0d 00	 cmp	 BYTE PTR [edx+13], 0
  00015	74 25		 je	 SHORT $LN10@operator

; 51   :             _Nodeptr _Pnode;
; 52   :             while (!(_Pnode = _Ptr->_Parent)->_Isnil && _Ptr == _Pnode->_Right) {

  00017	8b 50 04	 mov	 edx, DWORD PTR [eax+4]
  0001a	80 7a 0d 00	 cmp	 BYTE PTR [edx+13], 0
  0001e	75 30		 jne	 SHORT $LN16@operator
$LL8@operator:
  00020	3b 42 08	 cmp	 eax, DWORD PTR [edx+8]
  00023	75 2b		 jne	 SHORT $LN16@operator

; 53   :                 _Ptr = _Pnode; // ==> parent while right subtree

  00025	89 16		 mov	 DWORD PTR [esi], edx
  00027	8b c2		 mov	 eax, edx
  00029	8b 52 04	 mov	 edx, DWORD PTR [edx+4]
  0002c	80 7a 0d 00	 cmp	 BYTE PTR [edx+13], 0
  00030	74 ee		 je	 SHORT $LL8@operator

; 288  :         _Mybase::operator++();
; 289  :         return _Tmp;
; 290  :     }

  00032	8b c7		 mov	 eax, edi
  00034	89 16		 mov	 DWORD PTR [esi], edx
  00036	5f		 pop	 edi
  00037	5e		 pop	 esi
  00038	5d		 pop	 ebp
  00039	c2 08 00	 ret	 8
$LN10@operator:

; 476  :         while (!_Pnode->_Left->_Isnil) {

  0003c	8b 0a		 mov	 ecx, DWORD PTR [edx]
  0003e	80 79 0d 00	 cmp	 BYTE PTR [ecx+13], 0
  00042	75 0c		 jne	 SHORT $LN16@operator
$LL15@operator:
  00044	8b 01		 mov	 eax, DWORD PTR [ecx]

; 477  :             _Pnode = _Pnode->_Left;

  00046	8b d1		 mov	 edx, ecx
  00048	8b c8		 mov	 ecx, eax
  0004a	80 78 0d 00	 cmp	 BYTE PTR [eax+13], 0
  0004e	74 f4		 je	 SHORT $LL15@operator
$LN16@operator:

; 288  :         _Mybase::operator++();
; 289  :         return _Tmp;
; 290  :     }

  00050	8b c7		 mov	 eax, edi
  00052	89 16		 mov	 DWORD PTR [esi], edx
  00054	5f		 pop	 edi
  00055	5e		 pop	 esi
  00056	5d		 pop	 ebp
  00057	c2 08 00	 ret	 8
??E?$_Tree_iterator@V?$_Tree_val@U?$_Tree_simple_types@U?$pair@$$CBEPAU__TAXINFO@@@std@@@std@@@std@@@std@@QAE?AV01@H@Z ENDP ; std::_Tree_iterator<std::_Tree_val<std::_Tree_simple_types<std::pair<unsigned char const ,__TAXINFO *> > > >::operator++
_TEXT	ENDS
; Function compile flags: /Ogtp
; File C:\Program Files\Microsoft Visual Studio\2022\Professional\VC\Tools\MSVC\14.44.35207\include\map
; File C:\Program Files\Microsoft Visual Studio\2022\Professional\VC\Tools\MSVC\14.44.35207\include\xtree
; File C:\Program Files\Microsoft Visual Studio\2022\Professional\VC\Tools\MSVC\14.44.35207\include\xmemory
; File C:\Program Files\Microsoft Visual Studio\2022\Professional\VC\Tools\MSVC\14.44.35207\include\xtree
; File C:\Program Files\Microsoft Visual Studio\2022\Professional\VC\Tools\MSVC\14.44.35207\include\xmemory
; File C:\Program Files\Microsoft Visual Studio\2022\Professional\VC\Tools\MSVC\14.44.35207\include\utility
; File C:\Program Files\Microsoft Visual Studio\2022\Professional\VC\Tools\MSVC\14.44.35207\include\xmemory
; File C:\Program Files\Microsoft Visual Studio\2022\Professional\VC\Tools\MSVC\14.44.35207\include\xtree
; File C:\Program Files\Microsoft Visual Studio\2022\Professional\VC\Tools\MSVC\14.44.35207\include\xmemory
; File C:\Program Files\Microsoft Visual Studio\2022\Professional\VC\Tools\MSVC\14.44.35207\include\utility
; File C:\Program Files\Microsoft Visual Studio\2022\Professional\VC\Tools\MSVC\14.44.35207\include\xtree
; File C:\Program Files\Microsoft Visual Studio\2022\Professional\VC\Tools\MSVC\14.44.35207\include\utility
; File C:\Program Files\Microsoft Visual Studio\2022\Professional\VC\Tools\MSVC\14.44.35207\include\xtree
; File C:\Program Files\Microsoft Visual Studio\2022\Professional\VC\Tools\MSVC\14.44.35207\include\type_traits
; File C:\Program Files\Microsoft Visual Studio\2022\Professional\VC\Tools\MSVC\14.44.35207\include\xtree
; File C:\Program Files\Microsoft Visual Studio\2022\Professional\VC\Tools\MSVC\14.44.35207\include\xmemory
; File C:\Program Files\Microsoft Visual Studio\2022\Professional\VC\Tools\MSVC\14.44.35207\include\utility
; File C:\Program Files\Microsoft Visual Studio\2022\Professional\VC\Tools\MSVC\14.44.35207\include\xmemory
; File C:\Program Files\Microsoft Visual Studio\2022\Professional\VC\Tools\MSVC\14.44.35207\include\xtree
; File C:\Program Files\Microsoft Visual Studio\2022\Professional\VC\Tools\MSVC\14.44.35207\include\utility
; File C:\Program Files\Microsoft Visual Studio\2022\Professional\VC\Tools\MSVC\14.44.35207\include\map
; File C:\Program Files\Microsoft Visual Studio\2022\Professional\VC\Tools\MSVC\14.44.35207\include\xtree
; File C:\Program Files\Microsoft Visual Studio\2022\Professional\VC\Tools\MSVC\14.44.35207\include\map
;	COMDAT ??$insert@U?$pair@HPAU__TAXINFO@@@std@@$0A@@?$map@EPAU__TAXINFO@@U?$less@E@std@@V?$allocator@U?$pair@$$CBEPAU__TAXINFO@@@std@@@3@@std@@QAE?AU?$pair@V?$_Tree_iterator@V?$_Tree_val@U?$_Tree_simple_types@U?$pair@$$CBEPAU__TAXINFO@@@std@@@std@@@std@@@std@@_N@1@$$QAU?$pair@HPAU__TAXINFO@@@1@@Z
_TEXT	SEGMENT
$T3 = -44						; size = 12
__Loc$4 = -32						; size = 12
__Newnode$5 = -20					; size = 8
__$EHRec$ = -12						; size = 12
___$ReturnUdt$ = 8					; size = 4
__Val$ = 12						; size = 4
tv694 = 15						; size = 1
??$insert@U?$pair@HPAU__TAXINFO@@@std@@$0A@@?$map@EPAU__TAXINFO@@U?$less@E@std@@V?$allocator@U?$pair@$$CBEPAU__TAXINFO@@@std@@@3@@std@@QAE?AU?$pair@V?$_Tree_iterator@V?$_Tree_val@U?$_Tree_simple_types@U?$pair@$$CBEPAU__TAXINFO@@@std@@@std@@@std@@@std@@_N@1@$$QAU?$pair@HPAU__TAXINFO@@@1@@Z PROC ; std::map<unsigned char,__TAXINFO *,std::less<unsigned char>,std::allocator<std::pair<unsigned char const ,__TAXINFO *> > >::insert<std::pair<int,__TAXINFO *>,0>, COMDAT
; _this$ = ecx

; 185  :     pair<iterator, bool> insert(_Valty&& _Val) {

  00000	55		 push	 ebp
  00001	8b ec		 mov	 ebp, esp
  00003	6a ff		 push	 -1
  00005	68 00 00 00 00	 push	 __ehhandler$??$insert@U?$pair@HPAU__TAXINFO@@@std@@$0A@@?$map@EPAU__TAXINFO@@U?$less@E@std@@V?$allocator@U?$pair@$$CBEPAU__TAXINFO@@@std@@@3@@std@@QAE?AU?$pair@V?$_Tree_iterator@V?$_Tree_val@U?$_Tree_simple_types@U?$pair@$$CBEPAU__TAXINFO@@@std@@@std@@@std@@@std@@_N@1@$$QAU?$pair@HPAU__TAXINFO@@@1@@Z
  0000a	64 a1 00 00 00
	00		 mov	 eax, DWORD PTR fs:0
  00010	50		 push	 eax
  00011	83 ec 20	 sub	 esp, 32			; 00000020H
  00014	53		 push	 ebx
  00015	56		 push	 esi
  00016	57		 push	 edi
  00017	a1 00 00 00 00	 mov	 eax, DWORD PTR ___security_cookie
  0001c	33 c5		 xor	 eax, ebp
  0001e	50		 push	 eax
  0001f	8d 45 f4	 lea	 eax, DWORD PTR __$EHRec$[ebp]
  00022	64 a3 00 00 00
	00		 mov	 DWORD PTR fs:0, eax
  00028	8b d9		 mov	 ebx, ecx
; File C:\Program Files\Microsoft Visual Studio\2022\Professional\VC\Tools\MSVC\14.44.35207\include\xtree

; 1026 :             _Tree_temp_node<_Alnode> _Newnode(_Getal(), _Scary->_Myhead, _STD forward<_Valtys>(_Vals)...);

  0002a	8b 33		 mov	 esi, DWORD PTR [ebx]
; File C:\Program Files\Microsoft Visual Studio\2022\Professional\VC\Tools\MSVC\14.44.35207\include\xmemory

; 1160 :     _CONSTEXPR20 explicit _Alloc_construct_ptr(_Alloc& _Al_) : _Al(_Al_), _Ptr(nullptr) {}

  0002c	89 5d ec	 mov	 DWORD PTR __Newnode$5[ebp], ebx

; 136  :         return ::operator new(_Bytes);

  0002f	6a 18		 push	 24			; 00000018H
; File C:\Program Files\Microsoft Visual Studio\2022\Professional\VC\Tools\MSVC\14.44.35207\include\xtree

; 808  :     explicit _Tree_temp_node_alloc(_Alnode& _Al_) : _Alloc_construct_ptr<_Alnode>(_Al_) {

  00031	c7 45 fc 00 00
	00 00		 mov	 DWORD PTR __$EHRec$[ebp+8], 0
; File C:\Program Files\Microsoft Visual Studio\2022\Professional\VC\Tools\MSVC\14.44.35207\include\xmemory

; 1167 :         _Ptr = nullptr; // if allocate throws, prevents double-free

  00038	c7 45 f0 00 00
	00 00		 mov	 DWORD PTR __Newnode$5[ebp+4], 0

; 136  :         return ::operator new(_Bytes);

  0003f	e8 00 00 00 00	 call	 ??2@YAPAXI@Z		; operator new
; File C:\Program Files\Microsoft Visual Studio\2022\Professional\VC\Tools\MSVC\14.44.35207\include\utility

; 303  :         : first(_STD forward<_Other1>(_Right.first)), second(_STD forward<_Other2>(_Right.second)) {}

  00044	8b 4d 0c	 mov	 ecx, DWORD PTR __Val$[ebp]
; File C:\Program Files\Microsoft Visual Studio\2022\Professional\VC\Tools\MSVC\14.44.35207\include\xmemory

; 256  :         return _Traits::_Allocate(_Bytes);

  00047	8b f8		 mov	 edi, eax
; File C:\Program Files\Microsoft Visual Studio\2022\Professional\VC\Tools\MSVC\14.44.35207\include\xtree

; 830  :         _Alnode_traits::construct(this->_Al, _STD addressof(this->_Ptr->_Myval), _STD forward<_Valtys>(_Vals)...);

  00049	8d 57 10	 lea	 edx, DWORD PTR [edi+16]
; File C:\Program Files\Microsoft Visual Studio\2022\Professional\VC\Tools\MSVC\14.44.35207\include\xmemory

; 1168 :         _Ptr = _Al.allocate(1);

  0004c	89 7d f0	 mov	 DWORD PTR __Newnode$5[ebp+4], edi

; 136  :         return ::operator new(_Bytes);

  0004f	83 c4 04	 add	 esp, 4
; File C:\Program Files\Microsoft Visual Studio\2022\Professional\VC\Tools\MSVC\14.44.35207\include\utility

; 303  :         : first(_STD forward<_Other1>(_Right.first)), second(_STD forward<_Other2>(_Right.second)) {}

  00052	8a 01		 mov	 al, BYTE PTR [ecx]
  00054	88 02		 mov	 BYTE PTR [edx], al
  00056	8b 49 04	 mov	 ecx, DWORD PTR [ecx+4]
  00059	89 4a 04	 mov	 DWORD PTR [edx+4], ecx
; File C:\Program Files\Microsoft Visual Studio\2022\Professional\VC\Tools\MSVC\14.44.35207\include\xtree

; 831  :         _Construct_in_place(this->_Ptr->_Left, _Myhead);

  0005c	89 37		 mov	 DWORD PTR [edi], esi

; 832  :         _Construct_in_place(this->_Ptr->_Parent, _Myhead);

  0005e	89 77 04	 mov	 DWORD PTR [edi+4], esi

; 833  :         _Construct_in_place(this->_Ptr->_Right, _Myhead);

  00061	89 77 08	 mov	 DWORD PTR [edi+8], esi
; File C:\Program Files\Microsoft Visual Studio\2022\Professional\VC\Tools\MSVC\14.44.35207\include\utility

; 303  :         : first(_STD forward<_Other1>(_Right.first)), second(_STD forward<_Other2>(_Right.second)) {}

  00064	88 45 0f	 mov	 BYTE PTR tv694[ebp], al
; File C:\Program Files\Microsoft Visual Studio\2022\Professional\VC\Tools\MSVC\14.44.35207\include\xtree

; 834  :         this->_Ptr->_Color = _Red;

  00067	66 c7 47 0c 00
	00		 mov	 WORD PTR [edi+12], 0

; 1031 :                 _Loc = _Find_lower_bound(_Keyval);

  0006d	52		 push	 edx
  0006e	8d 45 d4	 lea	 eax, DWORD PTR $T3[ebp]
  00071	c7 45 fc 01 00
	00 00		 mov	 DWORD PTR __$EHRec$[ebp+8], 1
  00078	50		 push	 eax
  00079	8b cb		 mov	 ecx, ebx
  0007b	e8 00 00 00 00	 call	 ??$_Find_lower_bound@E@?$_Tree@V?$_Tmap_traits@EPAU__TAXINFO@@U?$less@E@std@@V?$allocator@U?$pair@$$CBEPAU__TAXINFO@@@std@@@3@$0A@@std@@@std@@IBE?AU?$_Tree_find_result@PAU?$_Tree_node@U?$pair@$$CBEPAU__TAXINFO@@@std@@PAX@std@@@1@ABE@Z ; std::_Tree<std::_Tmap_traits<unsigned char,__TAXINFO *,std::less<unsigned char>,std::allocator<std::pair<unsigned char const ,__TAXINFO *> >,0> >::_Find_lower_bound<unsigned char>
  00080	8b 70 08	 mov	 esi, DWORD PTR [eax+8]
  00083	f3 0f 7e 00	 movq	 xmm0, QWORD PTR [eax]
  00087	66 0f d6 45 e0	 movq	 QWORD PTR __Loc$4[ebp], xmm0

; 1624 :         return !_Bound->_Isnil && !_DEBUG_LT_PRED(_Getcomp(), _Keyval, _Traits::_Kfn(_Bound->_Myval));

  0008c	80 7e 0d 00	 cmp	 BYTE PTR [esi+13], 0
  00090	75 17		 jne	 SHORT $LN6@insert
; File C:\Program Files\Microsoft Visual Studio\2022\Professional\VC\Tools\MSVC\14.44.35207\include\type_traits

; 2380 :         return _Left < _Right;

  00092	8a 45 0f	 mov	 al, BYTE PTR tv694[ebp]
  00095	3a 46 10	 cmp	 al, BYTE PTR [esi+16]
; File C:\Program Files\Microsoft Visual Studio\2022\Professional\VC\Tools\MSVC\14.44.35207\include\xtree

; 1624 :         return !_Bound->_Isnil && !_DEBUG_LT_PRED(_Getcomp(), _Keyval, _Traits::_Kfn(_Bound->_Myval));

  00098	72 0f		 jb	 SHORT $LN6@insert
; File C:\Program Files\Microsoft Visual Studio\2022\Professional\VC\Tools\MSVC\14.44.35207\include\xmemory

; 289  :         ::operator delete(_Ptr, _Bytes);

  0009a	6a 18		 push	 24			; 00000018H
  0009c	57		 push	 edi
; File C:\Program Files\Microsoft Visual Studio\2022\Professional\VC\Tools\MSVC\14.44.35207\include\utility

; 274  :         : first(_STD forward<_Other1>(_Val1)), second(_STD forward<_Other2>(_Val2)) {

  0009d	32 db		 xor	 bl, bl
; File C:\Program Files\Microsoft Visual Studio\2022\Professional\VC\Tools\MSVC\14.44.35207\include\xmemory

; 289  :         ::operator delete(_Ptr, _Bytes);

  0009f	e8 00 00 00 00	 call	 ??3@YAXPAXI@Z		; operator delete
  000a4	83 c4 08	 add	 esp, 8
; File C:\Program Files\Microsoft Visual Studio\2022\Professional\VC\Tools\MSVC\14.44.35207\include\xtree

; 1033 :                     return {_Loc._Bound, false};

  000a7	eb 1b		 jmp	 SHORT $LN122@insert
$LN6@insert:

; 1648 :         if (max_size() == _Get_scary()->_Mysize) {

  000a9	81 7b 04 aa aa
	aa 0a		 cmp	 DWORD PTR [ebx+4], 178956970 ; 0aaaaaaaH
  000b0	74 2e		 je	 SHORT $LN142@insert

; 1042 :         return {_Scary->_Insert_node(_Loc._Location, _Inserted), true};

  000b2	57		 push	 edi
  000b3	ff 75 e4	 push	 DWORD PTR __Loc$4[ebp+4]
  000b6	8b cb		 mov	 ecx, ebx
  000b8	ff 75 e0	 push	 DWORD PTR __Loc$4[ebp]
  000bb	e8 00 00 00 00	 call	 ?_Insert_node@?$_Tree_val@U?$_Tree_simple_types@U?$pair@$$CBEPAU__TAXINFO@@@std@@@std@@@std@@QAEPAU?$_Tree_node@U?$pair@$$CBEPAU__TAXINFO@@@std@@PAX@2@U?$_Tree_id@PAU?$_Tree_node@U?$pair@$$CBEPAU__TAXINFO@@@std@@PAX@std@@@2@QAU32@@Z ; std::_Tree_val<std::_Tree_simple_types<std::pair<unsigned char const ,__TAXINFO *> > >::_Insert_node
; File C:\Program Files\Microsoft Visual Studio\2022\Professional\VC\Tools\MSVC\14.44.35207\include\utility

; 274  :         : first(_STD forward<_Other1>(_Val1)), second(_STD forward<_Other2>(_Val2)) {

  000c0	8b f0		 mov	 esi, eax
  000c2	b3 01		 mov	 bl, 1
$LN122@insert:
  000c4	8b 45 08	 mov	 eax, DWORD PTR ___$ReturnUdt$[ebp]
  000c7	89 30		 mov	 DWORD PTR [eax], esi
  000c9	88 58 04	 mov	 BYTE PTR [eax+4], bl
; File C:\Program Files\Microsoft Visual Studio\2022\Professional\VC\Tools\MSVC\14.44.35207\include\map

; 187  :     }

  000cc	8b 4d f4	 mov	 ecx, DWORD PTR __$EHRec$[ebp]
  000cf	64 89 0d 00 00
	00 00		 mov	 DWORD PTR fs:0, ecx
  000d6	59		 pop	 ecx
  000d7	5f		 pop	 edi
  000d8	5e		 pop	 esi
  000d9	5b		 pop	 ebx
  000da	8b e5		 mov	 esp, ebp
  000dc	5d		 pop	 ebp
  000dd	c2 08 00	 ret	 8
$LN142@insert:
; File C:\Program Files\Microsoft Visual Studio\2022\Professional\VC\Tools\MSVC\14.44.35207\include\xtree

; 1649 :             _Throw_tree_length_error();

  000e0	e8 00 00 00 00	 call	 ?_Throw_tree_length_error@std@@YAXXZ ; std::_Throw_tree_length_error
$LN140@insert:
  000e5	cc		 int	 3
_TEXT	ENDS
;	COMDAT text$x
text$x	SEGMENT
__unwindfunclet$??$insert@U?$pair@HPAU__TAXINFO@@@std@@$0A@@?$map@EPAU__TAXINFO@@U?$less@E@std@@V?$allocator@U?$pair@$$CBEPAU__TAXINFO@@@std@@@3@@std@@QAE?AU?$pair@V?$_Tree_iterator@V?$_Tree_val@U?$_Tree_simple_types@U?$pair@$$CBEPAU__TAXINFO@@@std@@@std@@@std@@@std@@_N@1@$$QAU?$pair@HPAU__TAXINFO@@@1@@Z$2:
  00000	8d 4d ec	 lea	 ecx, DWORD PTR __Newnode$5[ebp]
  00003	e9 00 00 00 00	 jmp	 ??1?$_Alloc_construct_ptr@V?$allocator@U?$_Tree_node@U?$pair@$$CBEPAU__TAXINFO@@@std@@PAX@std@@@std@@@std@@QAE@XZ ; std::_Alloc_construct_ptr<std::allocator<std::_Tree_node<std::pair<unsigned char const ,__TAXINFO *>,void *> > >::~_Alloc_construct_ptr<std::allocator<std::_Tree_node<std::pair<unsigned char const ,__TAXINFO *>,void *> > >
__unwindfunclet$??$insert@U?$pair@HPAU__TAXINFO@@@std@@$0A@@?$map@EPAU__TAXINFO@@U?$less@E@std@@V?$allocator@U?$pair@$$CBEPAU__TAXINFO@@@std@@@3@@std@@QAE?AU?$pair@V?$_Tree_iterator@V?$_Tree_val@U?$_Tree_simple_types@U?$pair@$$CBEPAU__TAXINFO@@@std@@@std@@@std@@@std@@_N@1@$$QAU?$pair@HPAU__TAXINFO@@@1@@Z$0:
  00008	8d 4d ec	 lea	 ecx, DWORD PTR __Newnode$5[ebp]
  0000b	e9 00 00 00 00	 jmp	 ??1?$_Tree_temp_node@V?$allocator@U?$_Tree_node@U?$pair@$$CBEPAU__TAXINFO@@@std@@PAX@std@@@std@@@std@@QAE@XZ ; std::_Tree_temp_node<std::allocator<std::_Tree_node<std::pair<unsigned char const ,__TAXINFO *>,void *> > >::~_Tree_temp_node<std::allocator<std::_Tree_node<std::pair<unsigned char const ,__TAXINFO *>,void *> > >
  00010	cc		 int	 3
  00011	cc		 int	 3
  00012	cc		 int	 3
  00013	cc		 int	 3
  00014	cc		 int	 3
__ehhandler$??$insert@U?$pair@HPAU__TAXINFO@@@std@@$0A@@?$map@EPAU__TAXINFO@@U?$less@E@std@@V?$allocator@U?$pair@$$CBEPAU__TAXINFO@@@std@@@3@@std@@QAE?AU?$pair@V?$_Tree_iterator@V?$_Tree_val@U?$_Tree_simple_types@U?$pair@$$CBEPAU__TAXINFO@@@std@@@std@@@std@@@std@@_N@1@$$QAU?$pair@HPAU__TAXINFO@@@1@@Z:
  00015	90		 npad	 1
  00016	90		 npad	 1
  00017	8b 54 24 08	 mov	 edx, DWORD PTR [esp+8]
  0001b	8d 42 0c	 lea	 eax, DWORD PTR [edx+12]
  0001e	8b 4a d0	 mov	 ecx, DWORD PTR [edx-48]
  00021	33 c8		 xor	 ecx, eax
  00023	e8 00 00 00 00	 call	 @__security_check_cookie@4
  00028	b8 00 00 00 00	 mov	 eax, OFFSET __ehfuncinfo$??$insert@U?$pair@HPAU__TAXINFO@@@std@@$0A@@?$map@EPAU__TAXINFO@@U?$less@E@std@@V?$allocator@U?$pair@$$CBEPAU__TAXINFO@@@std@@@3@@std@@QAE?AU?$pair@V?$_Tree_iterator@V?$_Tree_val@U?$_Tree_simple_types@U?$pair@$$CBEPAU__TAXINFO@@@std@@@std@@@std@@@std@@_N@1@$$QAU?$pair@HPAU__TAXINFO@@@1@@Z
  0002d	e9 00 00 00 00	 jmp	 ___CxxFrameHandler3
text$x	ENDS
??$insert@U?$pair@HPAU__TAXINFO@@@std@@$0A@@?$map@EPAU__TAXINFO@@U?$less@E@std@@V?$allocator@U?$pair@$$CBEPAU__TAXINFO@@@std@@@3@@std@@QAE?AU?$pair@V?$_Tree_iterator@V?$_Tree_val@U?$_Tree_simple_types@U?$pair@$$CBEPAU__TAXINFO@@@std@@@std@@@std@@@std@@_N@1@$$QAU?$pair@HPAU__TAXINFO@@@1@@Z ENDP ; std::map<unsigned char,__TAXINFO *,std::less<unsigned char>,std::allocator<std::pair<unsigned char const ,__TAXINFO *> > >::insert<std::pair<int,__TAXINFO *>,0>
; Function compile flags: /Ogtp
; File C:\IAGOS\server\v18\Source\Source\_Network\Misc\Include\Ar.h
;	COMDAT ??$?5K@CAr@@QAEAAV0@AAK@Z
_TEXT	SEGMENT
_t$ = 8							; size = 4
??$?5K@CAr@@QAEAAV0@AAK@Z PROC				; CAr::operator>><unsigned long>, COMDAT
; _this$ = ecx

; 302  : {

  00000	55		 push	 ebp
  00001	8b ec		 mov	 ebp, esp
  00003	8b d1		 mov	 edx, ecx

; 303  : 	if (m_lpBufCur + sizeof(T) <= m_lpBufMax)

  00005	8b 4a 08	 mov	 ecx, DWORD PTR [edx+8]
  00008	8d 41 04	 lea	 eax, DWORD PTR [ecx+4]
  0000b	3b 42 0c	 cmp	 eax, DWORD PTR [edx+12]
  0000e	8b 45 08	 mov	 eax, DWORD PTR _t$[ebp]
  00011	77 0e		 ja	 SHORT $LN2@operator

; 304  : 	{
; 305  : 		t = *(UNALIGNED T*)m_lpBufCur;

  00013	8b 09		 mov	 ecx, DWORD PTR [ecx]
  00015	89 08		 mov	 DWORD PTR [eax], ecx

; 312  : 	}
; 313  : 	return *this;
; 314  : }

  00017	8b c2		 mov	 eax, edx
  00019	83 42 08 04	 add	 DWORD PTR [edx+8], 4
  0001d	5d		 pop	 ebp
  0001e	c2 04 00	 ret	 4
$LN2@operator:

; 306  : 		m_lpBufCur += sizeof(T);
; 307  : 	}
; 308  : 	else
; 309  : 	{
; 310  : 		t = T();

  00021	c7 00 00 00 00
	00		 mov	 DWORD PTR [eax], 0

; 311  : 		m_lpBufCur = m_lpBufMax;

  00027	8b 42 0c	 mov	 eax, DWORD PTR [edx+12]
  0002a	89 42 08	 mov	 DWORD PTR [edx+8], eax

; 312  : 	}
; 313  : 	return *this;
; 314  : }

  0002d	8b c2		 mov	 eax, edx
  0002f	5d		 pop	 ebp
  00030	c2 04 00	 ret	 4
??$?5K@CAr@@QAEAAV0@AAK@Z ENDP				; CAr::operator>><unsigned long>
_TEXT	ENDS
; Function compile flags: /Ogtp
; File C:\IAGOS\server\v18\Source\Source\_Network\Misc\Include\Ar.h
;	COMDAT ??$?6K@CAr@@QAEAAV0@ABK@Z
_TEXT	SEGMENT
_t$ = 8							; size = 4
??$?6K@CAr@@QAEAAV0@ABK@Z PROC				; CAr::operator<<<unsigned long>, COMDAT
; _this$ = ecx

; 255  : {

  00000	55		 push	 ebp
  00001	8b ec		 mov	 ebp, esp
  00003	56		 push	 esi

; 256  : 	CheckBuf(sizeof(T));

  00004	6a 04		 push	 4
  00006	8b f1		 mov	 esi, ecx
  00008	e8 00 00 00 00	 call	 ?CheckBuf@CAr@@QAEXI@Z	; CAr::CheckBuf

; 257  : 	*(UNALIGNED T*)m_lpBufCur = t;

  0000d	8b 56 08	 mov	 edx, DWORD PTR [esi+8]
  00010	8b 45 08	 mov	 eax, DWORD PTR _t$[ebp]
  00013	8b 00		 mov	 eax, DWORD PTR [eax]
  00015	89 02		 mov	 DWORD PTR [edx], eax

; 258  : 	m_lpBufCur += sizeof(T);
; 259  : 	return *this;

  00017	8b c6		 mov	 eax, esi
  00019	83 46 08 04	 add	 DWORD PTR [esi+8], 4
  0001d	5e		 pop	 esi

; 260  : }

  0001e	5d		 pop	 ebp
  0001f	c2 04 00	 ret	 4
??$?6K@CAr@@QAEAAV0@ABK@Z ENDP				; CAr::operator<<<unsigned long>
_TEXT	ENDS
; Function compile flags: /Ogtp
; File C:\IAGOS\server\v18\Source\Source\_Network\Misc\Include\Ar.h
;	COMDAT ??$?5H@CAr@@QAEAAV0@AAH@Z
_TEXT	SEGMENT
_t$ = 8							; size = 4
??$?5H@CAr@@QAEAAV0@AAH@Z PROC				; CAr::operator>><int>, COMDAT
; _this$ = ecx

; 302  : {

  00000	55		 push	 ebp
  00001	8b ec		 mov	 ebp, esp
  00003	8b d1		 mov	 edx, ecx

; 303  : 	if (m_lpBufCur + sizeof(T) <= m_lpBufMax)

  00005	8b 4a 08	 mov	 ecx, DWORD PTR [edx+8]
  00008	8d 41 04	 lea	 eax, DWORD PTR [ecx+4]
  0000b	3b 42 0c	 cmp	 eax, DWORD PTR [edx+12]
  0000e	8b 45 08	 mov	 eax, DWORD PTR _t$[ebp]
  00011	77 0e		 ja	 SHORT $LN2@operator

; 304  : 	{
; 305  : 		t = *(UNALIGNED T*)m_lpBufCur;

  00013	8b 09		 mov	 ecx, DWORD PTR [ecx]
  00015	89 08		 mov	 DWORD PTR [eax], ecx

; 312  : 	}
; 313  : 	return *this;
; 314  : }

  00017	8b c2		 mov	 eax, edx
  00019	83 42 08 04	 add	 DWORD PTR [edx+8], 4
  0001d	5d		 pop	 ebp
  0001e	c2 04 00	 ret	 4
$LN2@operator:

; 306  : 		m_lpBufCur += sizeof(T);
; 307  : 	}
; 308  : 	else
; 309  : 	{
; 310  : 		t = T();

  00021	c7 00 00 00 00
	00		 mov	 DWORD PTR [eax], 0

; 311  : 		m_lpBufCur = m_lpBufMax;

  00027	8b 42 0c	 mov	 eax, DWORD PTR [edx+12]
  0002a	89 42 08	 mov	 DWORD PTR [edx+8], eax

; 312  : 	}
; 313  : 	return *this;
; 314  : }

  0002d	8b c2		 mov	 eax, edx
  0002f	5d		 pop	 ebp
  00030	c2 04 00	 ret	 4
??$?5H@CAr@@QAEAAV0@AAH@Z ENDP				; CAr::operator>><int>
_TEXT	ENDS
; Function compile flags: /Ogtp
; File C:\IAGOS\server\v18\Source\Source\_Network\Misc\Include\Ar.h
;	COMDAT ??$?6H@CAr@@QAEAAV0@ABH@Z
_TEXT	SEGMENT
_t$ = 8							; size = 4
??$?6H@CAr@@QAEAAV0@ABH@Z PROC				; CAr::operator<<<int>, COMDAT
; _this$ = ecx

; 255  : {

  00000	55		 push	 ebp
  00001	8b ec		 mov	 ebp, esp
  00003	56		 push	 esi

; 256  : 	CheckBuf(sizeof(T));

  00004	6a 04		 push	 4
  00006	8b f1		 mov	 esi, ecx
  00008	e8 00 00 00 00	 call	 ?CheckBuf@CAr@@QAEXI@Z	; CAr::CheckBuf

; 257  : 	*(UNALIGNED T*)m_lpBufCur = t;

  0000d	8b 56 08	 mov	 edx, DWORD PTR [esi+8]
  00010	8b 45 08	 mov	 eax, DWORD PTR _t$[ebp]
  00013	8b 00		 mov	 eax, DWORD PTR [eax]
  00015	89 02		 mov	 DWORD PTR [edx], eax

; 258  : 	m_lpBufCur += sizeof(T);
; 259  : 	return *this;

  00017	8b c6		 mov	 eax, esi
  00019	83 46 08 04	 add	 DWORD PTR [esi+8], 4
  0001d	5e		 pop	 esi

; 260  : }

  0001e	5d		 pop	 ebp
  0001f	c2 04 00	 ret	 4
??$?6H@CAr@@QAEAAV0@ABH@Z ENDP				; CAr::operator<<<int>
_TEXT	ENDS
; Function compile flags: /Ogtp
; File C:\IAGOS\server\v18\Source\Source\_Common\Tax.cpp
;	COMDAT ?LoadTaxInfo@CTax@@QAEXK@Z
_TEXT	SEGMENT
_dpId$ = 8						; size = 4
?LoadTaxInfo@CTax@@QAEXK@Z PROC				; CTax::LoadTaxInfo, COMDAT
; _this$ = ecx

; 314  : {

  00000	55		 push	 ebp
  00001	8b ec		 mov	 ebp, esp

; 315  : 	m_taxDBController.PostRequest( QUERY_TAX_LOAD, 0, 0, dpId );

  00003	ff 75 08	 push	 DWORD PTR _dpId$[ebp]
  00006	83 c1 2c	 add	 ecx, 44			; 0000002cH
  00009	6a 00		 push	 0
  0000b	6a 00		 push	 0
  0000d	6a 00		 push	 0
  0000f	e8 00 00 00 00	 call	 ?PostRequest@CDbController@@QAEHHPAEHK@Z ; CDbController::PostRequest

; 316  : }

  00014	5d		 pop	 ebp
  00015	c2 04 00	 ret	 4
?LoadTaxInfo@CTax@@QAEXK@Z ENDP				; CTax::LoadTaxInfo
_TEXT	ENDS
; Function compile flags: /Ogtp
; File C:\IAGOS\server\v18\Source\Source\_Common\Tax.cpp
;	COMDAT ?GetEarningRate@CTax@@QAEMEE@Z
_TEXT	SEGMENT
_nCont$ = 8						; size = 1
tv147 = 8						; size = 4
_nTaxKind$ = 12						; size = 1
?GetEarningRate@CTax@@QAEMEE@Z PROC			; CTax::GetEarningRate, COMDAT
; _this$ = ecx

; 291  : {

  00000	55		 push	 ebp
  00001	8b ec		 mov	 ebp, esp

; 292  : 	int nEarningRate = 0;
; 293  : 	switch( nTaxKind )

  00003	0f b6 45 0c	 movzx	 eax, BYTE PTR _nTaxKind$[ebp]
  00007	83 e8 02	 sub	 eax, 2
  0000a	74 10		 je	 SHORT $LN4@GetEarning

; 300  : 		break;
; 301  : 
; 302  : 	default :
; 303  : 		if( nCont == CONT_ALL )		// ±şÁÖŔÎ °ćżě

  0000c	80 7d 08 ff	 cmp	 BYTE PTR _nCont$[ebp], 255 ; 000000ffH
  00010	75 05		 jne	 SHORT $LN8@GetEarning

; 304  : 			nEarningRate = m_nTaxLordRate;

  00012	8b 41 14	 mov	 eax, DWORD PTR [ecx+20]
  00015	eb 13		 jmp	 SHORT $LN6@GetEarning
$LN8@GetEarning:

; 305  : 		else
; 306  : 			nEarningRate = m_nTaxSecretRoomRate;

  00017	8b 41 10	 mov	 eax, DWORD PTR [ecx+16]
  0001a	eb 0e		 jmp	 SHORT $LN6@GetEarning
$LN4@GetEarning:

; 294  : 	{
; 295  : 	case TAX_ADMISSION :	// ŔÔŔĺ·á
; 296  : 		if( nCont == CONT_ALL )		// ±şÁÖŔÎ °ćżě

  0001c	80 7d 08 ff	 cmp	 BYTE PTR _nCont$[ebp], 255 ; 000000ffH
  00020	75 05		 jne	 SHORT $LN5@GetEarning

; 297  : 			nEarningRate = m_nAdmissionLordRate;

  00022	8b 41 1c	 mov	 eax, DWORD PTR [ecx+28]
  00025	eb 03		 jmp	 SHORT $LN6@GetEarning
$LN5@GetEarning:

; 298  : 		else
; 299  : 			nEarningRate = m_nAdmissionSecretRoomRate;

  00027	8b 41 18	 mov	 eax, DWORD PTR [ecx+24]
$LN6@GetEarning:
  0002a	66 0f 6e c8	 movd	 xmm1, eax

; 307  : 		break;
; 308  : 	}
; 309  : 
; 310  : 	return static_cast<float>(nEarningRate) * 0.1f * 0.1f;

  0002e	0f 5b c9	 cvtdq2ps xmm1, xmm1
  00031	f3 0f 59 0d 00
	00 00 00	 mulss	 xmm1, DWORD PTR __real@3dcccccd
  00039	f3 0f 59 0d 00
	00 00 00	 mulss	 xmm1, DWORD PTR __real@3dcccccd
  00041	f3 0f 11 4d 08	 movss	 DWORD PTR tv147[ebp], xmm1
  00046	d9 45 08	 fld	 DWORD PTR tv147[ebp]

; 311  : }

  00049	5d		 pop	 ebp
  0004a	c2 08 00	 ret	 8
?GetEarningRate@CTax@@QAEMEE@Z ENDP			; CTax::GetEarningRate
_TEXT	ENDS
; Function compile flags: /Ogtp
; File C:\IAGOS\server\v18\Source\Source\_Common\Tax.cpp
; File C:\Program Files\Microsoft Visual Studio\2022\Professional\VC\Tools\MSVC\14.44.35207\include\xtree
; File C:\IAGOS\server\v18\Source\Source\_Common\Tax.cpp
; File C:\Program Files\Microsoft Visual Studio\2022\Professional\VC\Tools\MSVC\14.44.35207\include\xtree
; File C:\IAGOS\server\v18\Source\Source\_Common\Tax.cpp
; File C:\Program Files\Microsoft Visual Studio\2022\Professional\VC\Tools\MSVC\14.44.35207\include\xtree
; File C:\IAGOS\server\v18\Source\Source\_Common\Tax.cpp
; File C:\Program Files\Microsoft Visual Studio\2022\Professional\VC\Tools\MSVC\14.44.35207\include\xtree
; File C:\Program Files\Microsoft Visual Studio\2022\Professional\VC\Tools\MSVC\14.44.35207\include\type_traits
; File C:\Program Files\Microsoft Visual Studio\2022\Professional\VC\Tools\MSVC\14.44.35207\include\xtree
; File C:\Program Files\Microsoft Visual Studio\2022\Professional\VC\Tools\MSVC\14.44.35207\include\type_traits
; File C:\Program Files\Microsoft Visual Studio\2022\Professional\VC\Tools\MSVC\14.44.35207\include\xtree
; File C:\IAGOS\server\v18\Source\Source\_Common\Tax.cpp
; File C:\Program Files\Microsoft Visual Studio\2022\Professional\VC\Tools\MSVC\14.44.35207\include\xtree
; File C:\Program Files\Microsoft Visual Studio\2022\Professional\VC\Tools\MSVC\14.44.35207\include\type_traits
; File C:\Program Files\Microsoft Visual Studio\2022\Professional\VC\Tools\MSVC\14.44.35207\include\xtree
; File C:\Program Files\Microsoft Visual Studio\2022\Professional\VC\Tools\MSVC\14.44.35207\include\type_traits
; File C:\Program Files\Microsoft Visual Studio\2022\Professional\VC\Tools\MSVC\14.44.35207\include\xtree
; File C:\IAGOS\server\v18\Source\Source\_Common\Tax.cpp
; File C:\Program Files\Microsoft Visual Studio\2022\Professional\VC\Tools\MSVC\14.44.35207\include\xtree
; File C:\IAGOS\server\v18\Source\Source\_Common\Tax.cpp
; File C:\Program Files\Microsoft Visual Studio\2022\Professional\VC\Tools\MSVC\14.44.35207\include\xtree
; File C:\Program Files\Microsoft Visual Studio\2022\Professional\VC\Tools\MSVC\14.44.35207\include\type_traits
; File C:\Program Files\Microsoft Visual Studio\2022\Professional\VC\Tools\MSVC\14.44.35207\include\xtree
; File C:\IAGOS\server\v18\Source\Source\_Common\Tax.cpp
; File C:\Program Files\Microsoft Visual Studio\2022\Professional\VC\Tools\MSVC\14.44.35207\include\xtree
; File C:\Program Files\Microsoft Visual Studio\2022\Professional\VC\Tools\MSVC\14.44.35207\include\type_traits
; File C:\Program Files\Microsoft Visual Studio\2022\Professional\VC\Tools\MSVC\14.44.35207\include\xtree
; File C:\IAGOS\server\v18\Source\Source\_Common\Tax.cpp
; File C:\Program Files\Microsoft Visual Studio\2022\Professional\VC\Tools\MSVC\14.44.35207\include\xtree
; File C:\IAGOS\server\v18\Source\Source\_Common\Tax.cpp
; File C:\Program Files\Microsoft Visual Studio\2022\Professional\VC\Tools\MSVC\14.44.35207\include\xtree
; File C:\IAGOS\server\v18\Source\Source\_Common\Tax.cpp
; File C:\Program Files\Microsoft Visual Studio\2022\Professional\VC\Tools\MSVC\14.44.35207\include\xtree
; File C:\IAGOS\server\v18\Source\Source\_Common\Tax.cpp
;	COMDAT ?SetChangeNextTax@CTax@@QAEXXZ
_TEXT	SEGMENT
__Loc$1 = -88						; size = 12
__Loc$2 = -76						; size = 12
__Loc$3 = -64						; size = 12
__Loc$4 = -52						; size = 12
__Loc$5 = -40						; size = 12
__Loc$6 = -28						; size = 12
$T7 = -16						; size = 4
$T8 = -16						; size = 4
$T9 = -12						; size = 4
_this$1$ = -8						; size = 4
$T10 = -2						; size = 1
$T11 = -2						; size = 1
$T12 = -2						; size = 1
$T13 = -2						; size = 1
$T14 = -1						; size = 1
$T15 = -1						; size = 1
?SetChangeNextTax@CTax@@QAEXXZ PROC			; CTax::SetChangeNextTax, COMDAT
; _this$ = ecx

; 232  : {

  00000	55		 push	 ebp
  00001	8b ec		 mov	 ebp, esp
  00003	83 ec 58	 sub	 esp, 88			; 00000058H
  00006	56		 push	 esi
  00007	57		 push	 edi
  00008	8b f9		 mov	 edi, ecx
  0000a	89 7d f8	 mov	 DWORD PTR _this$1$[ebp], edi
; File C:\Program Files\Microsoft Visual Studio\2022\Professional\VC\Tools\MSVC\14.44.35207\include\xtree

; 1142 :         return iterator(_Scary->_Myhead->_Left, _Scary);

  0000d	8b 47 08	 mov	 eax, DWORD PTR [edi+8]

; 37   :     _Tree_unchecked_const_iterator(_Nodeptr _Pnode, const _Mytree* _Plist) noexcept : _Ptr(_Pnode) {

  00010	8b 30		 mov	 esi, DWORD PTR [eax]

; 237  :         return !(*this == _Right);

  00012	3b f0		 cmp	 esi, eax
; File C:\IAGOS\server\v18\Source\Source\_Common\Tax.cpp

; 234  : 	for( TAXINFOMAP::iterator it=m_mapTaxInfo.begin(); it!=m_mapTaxInfo.end(); it++ )

  00014	0f 84 0d 02 00
	00		 je	 $LN3@SetChangeN
  0001a	53		 push	 ebx
  0001b	0f 1f 44 00 00	 npad	 5
$LL4@SetChangeN:

; 235  : 	{
; 236  : 		__TAXINFO* taxInfo = it->second;

  00020	8b 5e 14	 mov	 ebx, DWORD PTR [esi+20]

; 237  : 		taxInfo->dwId = taxInfo->dwNextId;
; 238  : 		taxInfo->dwNextId = NULL_ID; // ´ŮŔ˝ ÁÖ ĂĘ±âČ­
; 239  : 		
; 240  : 		if( taxInfo->bSetTaxRate )

  00023	83 7b 04 00	 cmp	 DWORD PTR [ebx+4], 0
  00027	8b 43 10	 mov	 eax, DWORD PTR [ebx+16]
  0002a	89 03		 mov	 DWORD PTR [ebx], eax
  0002c	c7 43 10 ff ff
	ff ff		 mov	 DWORD PTR [ebx+16], -1
  00033	0f 84 d2 00 00
	00		 je	 $LN8@SetChangeN

; 241  : 		{
; 242  : 			if( it->first != CONT_ALL )		// ±şÁÖ´Â ĽĽŔ˛°ú °ü°čľř´Ů.

  00039	80 7e 10 ff	 cmp	 BYTE PTR [esi+16], 255	; 000000ffH
  0003d	0f 84 35 01 00
	00		 je	 $LN11@SetChangeN
; File C:\Program Files\Microsoft Visual Studio\2022\Professional\VC\Tools\MSVC\14.44.35207\include\xtree

; 1384 :         const _Tree_find_result<_Nodeptr> _Loc = _Find_lower_bound(_Keyval);

  00043	8d 45 ff	 lea	 eax, DWORD PTR $T14[ebp]
; File C:\IAGOS\server\v18\Source\Source\_Common\Tax.cpp

; 244  : 				taxInfo->mapTaxDetail.find( TAX_SALES )->second->nTaxRate = taxInfo->mapTaxDetail.find( TAX_SALES )->second->nNextTaxRate;

  00046	c6 45 ff 00	 mov	 BYTE PTR $T14[ebp], 0
; File C:\Program Files\Microsoft Visual Studio\2022\Professional\VC\Tools\MSVC\14.44.35207\include\xtree

; 1384 :         const _Tree_find_result<_Nodeptr> _Loc = _Find_lower_bound(_Keyval);

  0004a	50		 push	 eax
  0004b	8d 45 e4	 lea	 eax, DWORD PTR __Loc$6[ebp]
; File C:\IAGOS\server\v18\Source\Source\_Common\Tax.cpp

; 244  : 				taxInfo->mapTaxDetail.find( TAX_SALES )->second->nTaxRate = taxInfo->mapTaxDetail.find( TAX_SALES )->second->nNextTaxRate;

  0004e	c6 45 fe 00	 mov	 BYTE PTR $T10[ebp], 0
; File C:\Program Files\Microsoft Visual Studio\2022\Professional\VC\Tools\MSVC\14.44.35207\include\xtree

; 1384 :         const _Tree_find_result<_Nodeptr> _Loc = _Find_lower_bound(_Keyval);

  00052	50		 push	 eax
  00053	8d 4b 08	 lea	 ecx, DWORD PTR [ebx+8]
  00056	e8 00 00 00 00	 call	 ??$_Find_lower_bound@E@?$_Tree@V?$_Tmap_traits@EPAU__TAXDETAIL@@U?$less@E@std@@V?$allocator@U?$pair@$$CBEPAU__TAXDETAIL@@@std@@@3@$0A@@std@@@std@@IBE?AU?$_Tree_find_result@PAU?$_Tree_node@U?$pair@$$CBEPAU__TAXDETAIL@@@std@@PAX@std@@@1@ABE@Z ; std::_Tree<std::_Tmap_traits<unsigned char,__TAXDETAIL *,std::less<unsigned char>,std::allocator<std::pair<unsigned char const ,__TAXDETAIL *> >,0> >::_Find_lower_bound<unsigned char>

; 1624 :         return !_Bound->_Isnil && !_DEBUG_LT_PRED(_Getcomp(), _Keyval, _Traits::_Kfn(_Bound->_Myval));

  0005b	8b 45 ec	 mov	 eax, DWORD PTR __Loc$6[ebp+8]
  0005e	89 45 f0	 mov	 DWORD PTR $T7[ebp], eax
  00061	80 78 0d 00	 cmp	 BYTE PTR [eax+13], 0
  00065	75 0b		 jne	 SHORT $LN136@SetChangeN
; File C:\Program Files\Microsoft Visual Studio\2022\Professional\VC\Tools\MSVC\14.44.35207\include\type_traits

; 2380 :         return _Left < _Right;

  00067	80 78 10 00	 cmp	 BYTE PTR [eax+16], 0
; File C:\Program Files\Microsoft Visual Studio\2022\Professional\VC\Tools\MSVC\14.44.35207\include\xtree

; 1624 :         return !_Bound->_Isnil && !_DEBUG_LT_PRED(_Getcomp(), _Keyval, _Traits::_Kfn(_Bound->_Myval));

  0006b	77 05		 ja	 SHORT $LN136@SetChangeN

; 1386 :             return _Loc._Bound;

  0006d	8b 43 08	 mov	 eax, DWORD PTR [ebx+8]
  00070	eb 06		 jmp	 SHORT $LN378@SetChangeN
$LN136@SetChangeN:

; 1387 :         }
; 1388 : 
; 1389 :         return _Get_scary()->_Myhead;

  00072	8b 43 08	 mov	 eax, DWORD PTR [ebx+8]
  00075	89 45 f0	 mov	 DWORD PTR $T7[ebp], eax
$LN378@SetChangeN:

; 1384 :         const _Tree_find_result<_Nodeptr> _Loc = _Find_lower_bound(_Keyval);

  00078	89 45 f4	 mov	 DWORD PTR $T9[ebp], eax
  0007b	8d 4b 08	 lea	 ecx, DWORD PTR [ebx+8]
  0007e	8d 45 fe	 lea	 eax, DWORD PTR $T10[ebp]
  00081	50		 push	 eax
  00082	8d 45 d8	 lea	 eax, DWORD PTR __Loc$5[ebp]
  00085	50		 push	 eax
  00086	e8 00 00 00 00	 call	 ??$_Find_lower_bound@E@?$_Tree@V?$_Tmap_traits@EPAU__TAXDETAIL@@U?$less@E@std@@V?$allocator@U?$pair@$$CBEPAU__TAXDETAIL@@@std@@@3@$0A@@std@@@std@@IBE?AU?$_Tree_find_result@PAU?$_Tree_node@U?$pair@$$CBEPAU__TAXDETAIL@@@std@@PAX@std@@@1@ABE@Z ; std::_Tree<std::_Tmap_traits<unsigned char,__TAXDETAIL *,std::less<unsigned char>,std::allocator<std::pair<unsigned char const ,__TAXDETAIL *> >,0> >::_Find_lower_bound<unsigned char>

; 1624 :         return !_Bound->_Isnil && !_DEBUG_LT_PRED(_Getcomp(), _Keyval, _Traits::_Kfn(_Bound->_Myval));

  0008b	8b 4d e0	 mov	 ecx, DWORD PTR __Loc$5[ebp+8]
  0008e	80 79 0d 00	 cmp	 BYTE PTR [ecx+13], 0
  00092	75 06		 jne	 SHORT $LN166@SetChangeN
; File C:\Program Files\Microsoft Visual Studio\2022\Professional\VC\Tools\MSVC\14.44.35207\include\type_traits

; 2380 :         return _Left < _Right;

  00094	80 79 10 00	 cmp	 BYTE PTR [ecx+16], 0
; File C:\Program Files\Microsoft Visual Studio\2022\Professional\VC\Tools\MSVC\14.44.35207\include\xtree

; 1624 :         return !_Bound->_Isnil && !_DEBUG_LT_PRED(_Getcomp(), _Keyval, _Traits::_Kfn(_Bound->_Myval));

  00098	76 03		 jbe	 SHORT $LN165@SetChangeN
$LN166@SetChangeN:

; 1389 :         return _Get_scary()->_Myhead;

  0009a	8b 4d f4	 mov	 ecx, DWORD PTR $T9[ebp]
$LN165@SetChangeN:
; File C:\IAGOS\server\v18\Source\Source\_Common\Tax.cpp

; 244  : 				taxInfo->mapTaxDetail.find( TAX_SALES )->second->nTaxRate = taxInfo->mapTaxDetail.find( TAX_SALES )->second->nNextTaxRate;

  0009d	8b 45 f0	 mov	 eax, DWORD PTR $T7[ebp]
  000a0	8b 49 14	 mov	 ecx, DWORD PTR [ecx+20]

; 245  : 				taxInfo->mapTaxDetail.find( TAX_PURCHASE )->second->nTaxRate = taxInfo->mapTaxDetail.find( TAX_PURCHASE )->second->nNextTaxRate;

  000a3	c6 45 fe 01	 mov	 BYTE PTR $T11[ebp], 1
  000a7	c6 45 ff 01	 mov	 BYTE PTR $T15[ebp], 1
  000ab	8b 40 14	 mov	 eax, DWORD PTR [eax+20]
  000ae	8b 40 10	 mov	 eax, DWORD PTR [eax+16]
  000b1	89 01		 mov	 DWORD PTR [ecx], eax
; File C:\Program Files\Microsoft Visual Studio\2022\Professional\VC\Tools\MSVC\14.44.35207\include\xtree

; 1384 :         const _Tree_find_result<_Nodeptr> _Loc = _Find_lower_bound(_Keyval);

  000b3	8d 45 fe	 lea	 eax, DWORD PTR $T11[ebp]
  000b6	50		 push	 eax
  000b7	8d 45 cc	 lea	 eax, DWORD PTR __Loc$4[ebp]
  000ba	50		 push	 eax
  000bb	8d 4b 08	 lea	 ecx, DWORD PTR [ebx+8]
  000be	e8 00 00 00 00	 call	 ??$_Find_lower_bound@E@?$_Tree@V?$_Tmap_traits@EPAU__TAXDETAIL@@U?$less@E@std@@V?$allocator@U?$pair@$$CBEPAU__TAXDETAIL@@@std@@@3@$0A@@std@@@std@@IBE?AU?$_Tree_find_result@PAU?$_Tree_node@U?$pair@$$CBEPAU__TAXDETAIL@@@std@@PAX@std@@@1@ABE@Z ; std::_Tree<std::_Tmap_traits<unsigned char,__TAXDETAIL *,std::less<unsigned char>,std::allocator<std::pair<unsigned char const ,__TAXDETAIL *> >,0> >::_Find_lower_bound<unsigned char>

; 1624 :         return !_Bound->_Isnil && !_DEBUG_LT_PRED(_Getcomp(), _Keyval, _Traits::_Kfn(_Bound->_Myval));

  000c3	8b 45 d4	 mov	 eax, DWORD PTR __Loc$4[ebp+8]
  000c6	89 45 f0	 mov	 DWORD PTR $T8[ebp], eax
  000c9	80 78 0d 00	 cmp	 BYTE PTR [eax+13], 0
  000cd	75 06		 jne	 SHORT $LN196@SetChangeN
; File C:\Program Files\Microsoft Visual Studio\2022\Professional\VC\Tools\MSVC\14.44.35207\include\type_traits

; 2380 :         return _Left < _Right;

  000cf	80 78 10 01	 cmp	 BYTE PTR [eax+16], 1
; File C:\Program Files\Microsoft Visual Studio\2022\Professional\VC\Tools\MSVC\14.44.35207\include\xtree

; 1624 :         return !_Bound->_Isnil && !_DEBUG_LT_PRED(_Getcomp(), _Keyval, _Traits::_Kfn(_Bound->_Myval));

  000d3	76 06		 jbe	 SHORT $LN195@SetChangeN
$LN196@SetChangeN:

; 1389 :         return _Get_scary()->_Myhead;

  000d5	8b 43 08	 mov	 eax, DWORD PTR [ebx+8]
  000d8	89 45 f0	 mov	 DWORD PTR $T8[ebp], eax
$LN195@SetChangeN:

; 1384 :         const _Tree_find_result<_Nodeptr> _Loc = _Find_lower_bound(_Keyval);

  000db	8d 45 ff	 lea	 eax, DWORD PTR $T15[ebp]
  000de	50		 push	 eax
  000df	8d 45 c0	 lea	 eax, DWORD PTR __Loc$3[ebp]
  000e2	50		 push	 eax
  000e3	8d 4b 08	 lea	 ecx, DWORD PTR [ebx+8]
  000e6	e8 00 00 00 00	 call	 ??$_Find_lower_bound@E@?$_Tree@V?$_Tmap_traits@EPAU__TAXDETAIL@@U?$less@E@std@@V?$allocator@U?$pair@$$CBEPAU__TAXDETAIL@@@std@@@3@$0A@@std@@@std@@IBE?AU?$_Tree_find_result@PAU?$_Tree_node@U?$pair@$$CBEPAU__TAXDETAIL@@@std@@PAX@std@@@1@ABE@Z ; std::_Tree<std::_Tmap_traits<unsigned char,__TAXDETAIL *,std::less<unsigned char>,std::allocator<std::pair<unsigned char const ,__TAXDETAIL *> >,0> >::_Find_lower_bound<unsigned char>

; 1624 :         return !_Bound->_Isnil && !_DEBUG_LT_PRED(_Getcomp(), _Keyval, _Traits::_Kfn(_Bound->_Myval));

  000eb	8b 4d c8	 mov	 ecx, DWORD PTR __Loc$3[ebp+8]
  000ee	80 79 0d 00	 cmp	 BYTE PTR [ecx+13], 0
  000f2	75 06		 jne	 SHORT $LN230@SetChangeN
; File C:\Program Files\Microsoft Visual Studio\2022\Professional\VC\Tools\MSVC\14.44.35207\include\type_traits

; 2380 :         return _Left < _Right;

  000f4	80 79 10 01	 cmp	 BYTE PTR [ecx+16], 1
; File C:\Program Files\Microsoft Visual Studio\2022\Professional\VC\Tools\MSVC\14.44.35207\include\xtree

; 1624 :         return !_Bound->_Isnil && !_DEBUG_LT_PRED(_Getcomp(), _Keyval, _Traits::_Kfn(_Bound->_Myval));

  000f8	76 03		 jbe	 SHORT $LN225@SetChangeN
$LN230@SetChangeN:
  000fa	8b 4b 08	 mov	 ecx, DWORD PTR [ebx+8]
$LN225@SetChangeN:
; File C:\IAGOS\server\v18\Source\Source\_Common\Tax.cpp

; 245  : 				taxInfo->mapTaxDetail.find( TAX_PURCHASE )->second->nTaxRate = taxInfo->mapTaxDetail.find( TAX_PURCHASE )->second->nNextTaxRate;

  000fd	8b 45 f0	 mov	 eax, DWORD PTR $T8[ebp]
  00100	8b 7d f8	 mov	 edi, DWORD PTR _this$1$[ebp]
  00103	8b 40 14	 mov	 eax, DWORD PTR [eax+20]
  00106	8b 40 10	 mov	 eax, DWORD PTR [eax+16]
  00109	eb 68		 jmp	 SHORT $LN379@SetChangeN
$LN8@SetChangeN:

; 246  : 			}
; 247  : 		}
; 248  : 		else	// ĽĽŔ˛ şŻ°ćŔ» ÇĎÁö ľĘľŇŔ» °ćżě ±âş» ĽĽŔ˛·Î ĽłÁ¤
; 249  : 		{
; 250  : 			taxInfo->bSetTaxRate = TRUE;	// ´őŔĚ»ó ĽĽŔ˛ ĽłÁ¤ Ă˘ŔĚ ľČ¶ßµµ·Ď ĽłÁ¤ÇŃ °ÍŔ¸·Î ¸¸µç´Ů.

  0010b	c7 43 04 01 00
	00 00		 mov	 DWORD PTR [ebx+4], 1

; 251  : 			if( it->first != CONT_ALL )		// ±şÁÖ´Â ĽĽŔ˛°ú °ü°čľř´Ů.

  00112	80 7e 10 ff	 cmp	 BYTE PTR [esi+16], 255	; 000000ffH
  00116	74 60		 je	 SHORT $LN11@SetChangeN
; File C:\Program Files\Microsoft Visual Studio\2022\Professional\VC\Tools\MSVC\14.44.35207\include\xtree

; 1384 :         const _Tree_find_result<_Nodeptr> _Loc = _Find_lower_bound(_Keyval);

  00118	8d 45 fe	 lea	 eax, DWORD PTR $T12[ebp]
; File C:\IAGOS\server\v18\Source\Source\_Common\Tax.cpp

; 253  : 				taxInfo->mapTaxDetail.find( TAX_SALES )->second->nTaxRate = m_nMinTaxRate;

  0011b	c6 45 fe 00	 mov	 BYTE PTR $T12[ebp], 0
; File C:\Program Files\Microsoft Visual Studio\2022\Professional\VC\Tools\MSVC\14.44.35207\include\xtree

; 1384 :         const _Tree_find_result<_Nodeptr> _Loc = _Find_lower_bound(_Keyval);

  0011f	50		 push	 eax
  00120	8d 45 b4	 lea	 eax, DWORD PTR __Loc$2[ebp]
  00123	50		 push	 eax
  00124	8d 4b 08	 lea	 ecx, DWORD PTR [ebx+8]
  00127	e8 00 00 00 00	 call	 ??$_Find_lower_bound@E@?$_Tree@V?$_Tmap_traits@EPAU__TAXDETAIL@@U?$less@E@std@@V?$allocator@U?$pair@$$CBEPAU__TAXDETAIL@@@std@@@3@$0A@@std@@@std@@IBE?AU?$_Tree_find_result@PAU?$_Tree_node@U?$pair@$$CBEPAU__TAXDETAIL@@@std@@PAX@std@@@1@ABE@Z ; std::_Tree<std::_Tmap_traits<unsigned char,__TAXDETAIL *,std::less<unsigned char>,std::allocator<std::pair<unsigned char const ,__TAXDETAIL *> >,0> >::_Find_lower_bound<unsigned char>

; 1624 :         return !_Bound->_Isnil && !_DEBUG_LT_PRED(_Getcomp(), _Keyval, _Traits::_Kfn(_Bound->_Myval));

  0012c	8b 4d bc	 mov	 ecx, DWORD PTR __Loc$2[ebp+8]
  0012f	80 79 0d 00	 cmp	 BYTE PTR [ecx+13], 0
  00133	75 06		 jne	 SHORT $LN256@SetChangeN
; File C:\Program Files\Microsoft Visual Studio\2022\Professional\VC\Tools\MSVC\14.44.35207\include\type_traits

; 2380 :         return _Left < _Right;

  00135	80 79 10 00	 cmp	 BYTE PTR [ecx+16], 0
; File C:\Program Files\Microsoft Visual Studio\2022\Professional\VC\Tools\MSVC\14.44.35207\include\xtree

; 1624 :         return !_Bound->_Isnil && !_DEBUG_LT_PRED(_Getcomp(), _Keyval, _Traits::_Kfn(_Bound->_Myval));

  00139	76 03		 jbe	 SHORT $LN255@SetChangeN
$LN256@SetChangeN:

; 1389 :         return _Get_scary()->_Myhead;

  0013b	8b 4b 08	 mov	 ecx, DWORD PTR [ebx+8]
$LN255@SetChangeN:
; File C:\IAGOS\server\v18\Source\Source\_Common\Tax.cpp

; 253  : 				taxInfo->mapTaxDetail.find( TAX_SALES )->second->nTaxRate = m_nMinTaxRate;

  0013e	8b 49 14	 mov	 ecx, DWORD PTR [ecx+20]
  00141	8b 45 f8	 mov	 eax, DWORD PTR _this$1$[ebp]

; 254  : 				taxInfo->mapTaxDetail.find( TAX_PURCHASE )->second->nTaxRate = m_nMinTaxRate;

  00144	c6 45 fe 01	 mov	 BYTE PTR $T13[ebp], 1
  00148	8b 00		 mov	 eax, DWORD PTR [eax]
  0014a	89 01		 mov	 DWORD PTR [ecx], eax
; File C:\Program Files\Microsoft Visual Studio\2022\Professional\VC\Tools\MSVC\14.44.35207\include\xtree

; 1384 :         const _Tree_find_result<_Nodeptr> _Loc = _Find_lower_bound(_Keyval);

  0014c	8d 45 fe	 lea	 eax, DWORD PTR $T13[ebp]
  0014f	50		 push	 eax
  00150	8d 45 a8	 lea	 eax, DWORD PTR __Loc$1[ebp]
  00153	50		 push	 eax
  00154	8d 4b 08	 lea	 ecx, DWORD PTR [ebx+8]
  00157	e8 00 00 00 00	 call	 ??$_Find_lower_bound@E@?$_Tree@V?$_Tmap_traits@EPAU__TAXDETAIL@@U?$less@E@std@@V?$allocator@U?$pair@$$CBEPAU__TAXDETAIL@@@std@@@3@$0A@@std@@@std@@IBE?AU?$_Tree_find_result@PAU?$_Tree_node@U?$pair@$$CBEPAU__TAXDETAIL@@@std@@PAX@std@@@1@ABE@Z ; std::_Tree<std::_Tmap_traits<unsigned char,__TAXDETAIL *,std::less<unsigned char>,std::allocator<std::pair<unsigned char const ,__TAXDETAIL *> >,0> >::_Find_lower_bound<unsigned char>

; 1624 :         return !_Bound->_Isnil && !_DEBUG_LT_PRED(_Getcomp(), _Keyval, _Traits::_Kfn(_Bound->_Myval));

  0015c	8b 4d b0	 mov	 ecx, DWORD PTR __Loc$1[ebp+8]
  0015f	80 79 0d 00	 cmp	 BYTE PTR [ecx+13], 0
  00163	75 06		 jne	 SHORT $LN286@SetChangeN
; File C:\Program Files\Microsoft Visual Studio\2022\Professional\VC\Tools\MSVC\14.44.35207\include\type_traits

; 2380 :         return _Left < _Right;

  00165	80 79 10 01	 cmp	 BYTE PTR [ecx+16], 1
; File C:\Program Files\Microsoft Visual Studio\2022\Professional\VC\Tools\MSVC\14.44.35207\include\xtree

; 1624 :         return !_Bound->_Isnil && !_DEBUG_LT_PRED(_Getcomp(), _Keyval, _Traits::_Kfn(_Bound->_Myval));

  00169	76 03		 jbe	 SHORT $LN285@SetChangeN
$LN286@SetChangeN:

; 1389 :         return _Get_scary()->_Myhead;

  0016b	8b 4b 08	 mov	 ecx, DWORD PTR [ebx+8]
$LN285@SetChangeN:
; File C:\IAGOS\server\v18\Source\Source\_Common\Tax.cpp

; 254  : 				taxInfo->mapTaxDetail.find( TAX_PURCHASE )->second->nTaxRate = m_nMinTaxRate;

  0016e	8b 7d f8	 mov	 edi, DWORD PTR _this$1$[ebp]
  00171	8b 07		 mov	 eax, DWORD PTR [edi]
$LN379@SetChangeN:
; File C:\Program Files\Microsoft Visual Studio\2022\Professional\VC\Tools\MSVC\14.44.35207\include\xtree

; 1142 :         return iterator(_Scary->_Myhead->_Left, _Scary);

  00173	8b 49 14	 mov	 ecx, DWORD PTR [ecx+20]
  00176	89 01		 mov	 DWORD PTR [ecx], eax
$LN11@SetChangeN:
  00178	8b 4b 08	 mov	 ecx, DWORD PTR [ebx+8]

; 37   :     _Tree_unchecked_const_iterator(_Nodeptr _Pnode, const _Mytree* _Plist) noexcept : _Ptr(_Pnode) {

  0017b	8b 01		 mov	 eax, DWORD PTR [ecx]

; 237  :         return !(*this == _Right);

  0017d	3b c1		 cmp	 eax, ecx
; File C:\IAGOS\server\v18\Source\Source\_Common\Tax.cpp

; 259  : 		for( TAXDETAILMAP::iterator it2=taxInfo->mapTaxDetail.begin(); it2!=taxInfo->mapTaxDetail.end(); it2++ )

  0017f	74 60		 je	 SHORT $LN2@SetChangeN
$LL7@SetChangeN:

; 260  : 		{
; 261  : 			__TAXDETAIL* taxDetail = it2->second;

  00181	8b 48 14	 mov	 ecx, DWORD PTR [eax+20]

; 262  : 			taxDetail->nNextTaxRate = 0;

  00184	c7 41 10 00 00
	00 00		 mov	 DWORD PTR [ecx+16], 0

; 263  : 			taxDetail->nTaxCount = 0;

  0018b	c7 41 04 00 00
	00 00		 mov	 DWORD PTR [ecx+4], 0

; 264  : 			taxDetail->nTaxPerin = 0;

  00192	c7 41 0c 00 00
	00 00		 mov	 DWORD PTR [ecx+12], 0

; 265  : 			taxDetail->nTaxGold = 0;

  00199	c7 41 08 00 00
	00 00		 mov	 DWORD PTR [ecx+8], 0
; File C:\Program Files\Microsoft Visual Studio\2022\Professional\VC\Tools\MSVC\14.44.35207\include\xtree

; 50   :         if (_Ptr->_Right->_Isnil) { // climb looking for right subtree

  001a0	8b 48 08	 mov	 ecx, DWORD PTR [eax+8]
  001a3	80 79 0d 00	 cmp	 BYTE PTR [ecx+13], 0
  001a7	74 1d		 je	 SHORT $LN76@SetChangeN

; 51   :             _Nodeptr _Pnode;
; 52   :             while (!(_Pnode = _Ptr->_Parent)->_Isnil && _Ptr == _Pnode->_Right) {

  001a9	8b 48 04	 mov	 ecx, DWORD PTR [eax+4]
  001ac	80 79 0d 00	 cmp	 BYTE PTR [ecx+13], 0
  001b0	75 10		 jne	 SHORT $LN356@SetChangeN
$LL74@SetChangeN:
  001b2	3b 41 08	 cmp	 eax, DWORD PTR [ecx+8]
  001b5	75 0b		 jne	 SHORT $LN356@SetChangeN

; 53   :                 _Ptr = _Pnode; // ==> parent while right subtree

  001b7	8b c1		 mov	 eax, ecx
  001b9	8b 49 04	 mov	 ecx, DWORD PTR [ecx+4]
  001bc	80 79 0d 00	 cmp	 BYTE PTR [ecx+13], 0
  001c0	74 f0		 je	 SHORT $LL74@SetChangeN
$LN356@SetChangeN:

; 54   :             }
; 55   : 
; 56   :             _Ptr = _Pnode; // ==> parent (head if end())

  001c2	8b c1		 mov	 eax, ecx

; 57   :         } else {

  001c4	eb 16		 jmp	 SHORT $LN82@SetChangeN
$LN76@SetChangeN:

; 58   :             _Ptr = _Mytree::_Min(_Ptr->_Right); // ==> smallest of right subtree

  001c6	8b c1		 mov	 eax, ecx

; 476  :         while (!_Pnode->_Left->_Isnil) {

  001c8	8b 10		 mov	 edx, DWORD PTR [eax]
  001ca	80 7a 0d 00	 cmp	 BYTE PTR [edx+13], 0
  001ce	75 0c		 jne	 SHORT $LN82@SetChangeN
$LL81@SetChangeN:
  001d0	8b 0a		 mov	 ecx, DWORD PTR [edx]

; 477  :             _Pnode = _Pnode->_Left;

  001d2	8b c2		 mov	 eax, edx
  001d4	8b d1		 mov	 edx, ecx
  001d6	80 79 0d 00	 cmp	 BYTE PTR [ecx+13], 0
  001da	74 f4		 je	 SHORT $LL81@SetChangeN
$LN82@SetChangeN:

; 237  :         return !(*this == _Right);

  001dc	3b 43 08	 cmp	 eax, DWORD PTR [ebx+8]
; File C:\IAGOS\server\v18\Source\Source\_Common\Tax.cpp

; 259  : 		for( TAXDETAILMAP::iterator it2=taxInfo->mapTaxDetail.begin(); it2!=taxInfo->mapTaxDetail.end(); it2++ )

  001df	75 a0		 jne	 SHORT $LL7@SetChangeN
$LN2@SetChangeN:
; File C:\Program Files\Microsoft Visual Studio\2022\Professional\VC\Tools\MSVC\14.44.35207\include\xtree

; 50   :         if (_Ptr->_Right->_Isnil) { // climb looking for right subtree

  001e1	8b 46 08	 mov	 eax, DWORD PTR [esi+8]
  001e4	80 78 0d 00	 cmp	 BYTE PTR [eax+13], 0
  001e8	74 1d		 je	 SHORT $LN58@SetChangeN

; 51   :             _Nodeptr _Pnode;
; 52   :             while (!(_Pnode = _Ptr->_Parent)->_Isnil && _Ptr == _Pnode->_Right) {

  001ea	8b 46 04	 mov	 eax, DWORD PTR [esi+4]
  001ed	80 78 0d 00	 cmp	 BYTE PTR [eax+13], 0
  001f1	75 10		 jne	 SHORT $LN357@SetChangeN
$LL56@SetChangeN:
  001f3	3b 70 08	 cmp	 esi, DWORD PTR [eax+8]
  001f6	75 0b		 jne	 SHORT $LN357@SetChangeN

; 53   :                 _Ptr = _Pnode; // ==> parent while right subtree

  001f8	8b f0		 mov	 esi, eax
  001fa	8b 40 04	 mov	 eax, DWORD PTR [eax+4]
  001fd	80 78 0d 00	 cmp	 BYTE PTR [eax+13], 0
  00201	74 f0		 je	 SHORT $LL56@SetChangeN
$LN357@SetChangeN:

; 54   :             }
; 55   : 
; 56   :             _Ptr = _Pnode; // ==> parent (head if end())

  00203	8b f0		 mov	 esi, eax

; 57   :         } else {

  00205	eb 16		 jmp	 SHORT $LN64@SetChangeN
$LN58@SetChangeN:

; 58   :             _Ptr = _Mytree::_Min(_Ptr->_Right); // ==> smallest of right subtree

  00207	8b f0		 mov	 esi, eax

; 476  :         while (!_Pnode->_Left->_Isnil) {

  00209	8b 0e		 mov	 ecx, DWORD PTR [esi]
  0020b	80 79 0d 00	 cmp	 BYTE PTR [ecx+13], 0
  0020f	75 0c		 jne	 SHORT $LN64@SetChangeN
$LL63@SetChangeN:
  00211	8b 01		 mov	 eax, DWORD PTR [ecx]

; 477  :             _Pnode = _Pnode->_Left;

  00213	8b f1		 mov	 esi, ecx
  00215	8b c8		 mov	 ecx, eax
  00217	80 78 0d 00	 cmp	 BYTE PTR [eax+13], 0
  0021b	74 f4		 je	 SHORT $LL63@SetChangeN
$LN64@SetChangeN:

; 237  :         return !(*this == _Right);

  0021d	3b 77 08	 cmp	 esi, DWORD PTR [edi+8]
; File C:\IAGOS\server\v18\Source\Source\_Common\Tax.cpp

; 234  : 	for( TAXINFOMAP::iterator it=m_mapTaxInfo.begin(); it!=m_mapTaxInfo.end(); it++ )

  00220	0f 85 fa fd ff
	ff		 jne	 $LL4@SetChangeN
  00226	5b		 pop	 ebx
$LN3@SetChangeN:
  00227	5f		 pop	 edi

; 266  : 		}
; 267  : 	}
; 268  : }

  00228	5e		 pop	 esi
  00229	8b e5		 mov	 esp, ebp
  0022b	5d		 pop	 ebp
  0022c	c3		 ret	 0
?SetChangeNextTax@CTax@@QAEXXZ ENDP			; CTax::SetChangeNextTax
_TEXT	ENDS
; Function compile flags: /Ogtp
; File C:\IAGOS\server\v18\Source\Source\_Common\Tax.cpp
; File C:\Program Files\Microsoft Visual Studio\2022\Professional\VC\Tools\MSVC\14.44.35207\include\xstring
; File C:\IAGOS\server\v18\Source\Source\_Common\LuaBase.h
; File C:\IAGOS\server\v18\Source\Source\_Common\Tax.cpp
; File C:\IAGOS\server\v18\Source\Source\_Common\LuaBase.h
; File C:\IAGOS\server\v18\Source\Source\_Common\Tax.cpp
; File C:\IAGOS\server\v18\Source\Source\_Common\LuaBase.h
; File C:\IAGOS\server\v18\Source\Source\_Common\Tax.cpp
;	COMDAT ?CheckChangeTime@CTax@@QAEXHH@Z
_TEXT	SEGMENT
_bPay$ = 8						; size = 4
_bGameMaster$ = 12					; size = 4
?CheckChangeTime@CTax@@QAEXHH@Z PROC			; CTax::CheckChangeTime, COMDAT
; _this$ = ecx

; 200  : {

  00000	55		 push	 ebp
  00001	8b ec		 mov	 ebp, esp
  00003	56		 push	 esi
  00004	8b f1		 mov	 esi, ecx

; 201  : 	// ĽĽŔ˛ şŻ°ć ˝Ă°ŁŔ» °Ë»çÇŘĽ­ ĽĽŔ˛Ŕ» şŻ°ćÇŃ´Ů.
; 202  : 	// bPay°ˇ FALSEŔÎ°ćżě Áö±ŢµÇÁö ľĘŔş °ćżěŔĚąÇ·Î şŻ°ćŔüżˇ Áö±ŢÇŃ´Ů.
; 203  : 	// bGameMasterŔÇ ±âş»°ŞŔş FALSEŔĚłŞ GMŔĚ °­Á¦·Î ´ŮŔ˝ ĽĽŔ˛Ŕ» ŔűżëÇŇ °ćżě ˝Ă°Łżˇ °ü°čľřŔĚ şŻ°ćÇŃ´Ů.
; 204  : 	
; 205  : 	// ±şÁÖ°ˇ Ľ±ĂâµÇ´Â ÁÖ(2ÁÖŔĎżˇ ÇŃąř)ŔÎ°ćżě...
; 206  : 	IElection* pElection	= CTLord::Instance()->GetElection();

  00006	e8 00 00 00 00	 call	 ?Instance@CTLord@@SAPAV1@XZ ; CTLord::Instance

; 207  : 	if( pElection->GetState() == IElection::ELECTION_STATE::eVote ) // ĹőÇĄÁßŔÎ »óĹÂ

  0000b	8b 40 08	 mov	 eax, DWORD PTR [eax+8]
  0000e	83 78 10 02	 cmp	 DWORD PTR [eax+16], 2
  00012	0f 84 b1 00 00
	00		 je	 $LN1@CheckChang

; 208  : 		return;	// ľĆÁ÷ ±şÁÖ°ˇ Ľ±ĂâŔĚ µÇÁö ľĘľŇŔ¸ąÇ·Î ´ŮŔ˝ TimeOut¶§ ´Ů˝Ă °Ë»çÇŃ´Ů.
; 209  : 	
; 210  : 	if( m_Lua.GetLuaFunction( "CheckChangeTime" ) )

  00018	53		 push	 ebx
  00019	68 00 00 00 00	 push	 OFFSET ??_C@_0BA@LNDBAGIB@CheckChangeTime@
  0001e	8d 4e 24	 lea	 ecx, DWORD PTR [esi+36]
  00021	e8 00 00 00 00	 call	 ?GetLuaFunction@CLuaBase@@QAEHPAD@Z ; CLuaBase::GetLuaFunction
  00026	85 c0		 test	 eax, eax
  00028	0f 84 90 00 00
	00		 je	 $LN4@CheckChang
; File C:\Program Files\Microsoft Visual Studio\2022\Professional\VC\Tools\MSVC\14.44.35207\include\xstring

; 453  :         return _Myres > _Small_string_capacity;

  0002e	83 7e 5c 0f	 cmp	 DWORD PTR [esi+92], 15	; 0000000fH

; 444  :         const value_type* _Result = _Bx._Buf;

  00032	8d 46 48	 lea	 eax, DWORD PTR [esi+72]
  00035	57		 push	 edi

; 445  :         if (_Large_mode_engaged()) {

  00036	76 03		 jbe	 SHORT $LN14@CheckChang

; 446  :             _Result = _Unfancy(_Bx._Ptr);

  00038	8b 46 48	 mov	 eax, DWORD PTR [esi+72]
$LN14@CheckChang:
; File C:\IAGOS\server\v18\Source\Source\_Common\LuaBase.h

; 37   : 	void		PushString( const char* szValue )			{  lua_pushstring( m_pLuaState, szValue );  }

  0003b	50		 push	 eax
  0003c	ff 76 28	 push	 DWORD PTR [esi+40]
  0003f	e8 00 00 00 00	 call	 _lua_pushstring
  00044	83 c4 08	 add	 esp, 8
; File C:\IAGOS\server\v18\Source\Source\_Common\Tax.cpp

; 213  : 		m_Lua.CallLuaFunction( 1, 2 );

  00047	8d 4e 24	 lea	 ecx, DWORD PTR [esi+36]
  0004a	6a 02		 push	 2
  0004c	6a 01		 push	 1
  0004e	e8 00 00 00 00	 call	 ?CallLuaFunction@CLuaBase@@QAEXHH@Z ; CLuaBase::CallLuaFunction
; File C:\IAGOS\server\v18\Source\Source\_Common\LuaBase.h

; 45   : 	BOOL		ToBool( int nStackPos )						{  return static_cast<BOOL>( lua_toboolean( m_pLuaState, nStackPos ) );  }

  00053	6a fe		 push	 -2			; fffffffeH
  00055	ff 76 28	 push	 DWORD PTR [esi+40]
  00058	e8 00 00 00 00	 call	 _lua_toboolean
  0005d	83 c4 08	 add	 esp, 8
; File C:\IAGOS\server\v18\Source\Source\_Common\Tax.cpp

; 214  : 		if( m_Lua.ToBool( -2 ) || bGameMaster )		// ĽĽŔ˛ŔĚ şŻ°ćµÉ ˝Ă°ŁŔĚ¸é...

  00060	85 c0		 test	 eax, eax
  00062	75 05		 jne	 SHORT $LN5@CheckChang
  00064	39 45 0c	 cmp	 DWORD PTR _bGameMaster$[ebp], eax
  00067	74 54		 je	 SHORT $LN34@CheckChang
$LN5@CheckChang:

; 215  : 		{
; 216  : 			// Ľ·´Ů µîŔÇ ŔĚŔŻ·Î Áö±ŢŔĚ ŔĚ·çľîÁöÁö ľĘŔş°ćżě ¸ŐŔú Áö±ŢÇŃ´Ů.
; 217  : 			if( !bPay )

  00069	83 7d 08 00	 cmp	 DWORD PTR _bPay$[ebp], 0
  0006d	75 10		 jne	 SHORT $LN28@CheckChang

; 218  : 				m_taxDBController.PostRequest( QUERY_TAX_PAY, 0, 0, 0 );

  0006f	6a 00		 push	 0
  00071	6a 00		 push	 0
  00073	6a 00		 push	 0
  00075	6a 01		 push	 1
  00077	8d 4e 2c	 lea	 ecx, DWORD PTR [esi+44]
  0007a	e8 00 00 00 00	 call	 ?PostRequest@CDbController@@QAEHHPAEHK@Z ; CDbController::PostRequest
$LN28@CheckChang:

; 219  : 
; 220  : 			// ÇöŔç ¶Ç´Â »ő·Î Ľ±ĂâµČ ±şÁÖ¸¦ ĽłÁ¤ÇŃ´Ů.
; 221  : 			m_taxDBController.PostRequest( QUERY_TAX_SETNEXT_LORD, 0, 0, CTLord::Instance()->Get() );			

  0007f	e8 00 00 00 00	 call	 ?Instance@CTLord@@SAPAV1@XZ ; CTLord::Instance
  00084	8d 4e 2c	 lea	 ecx, DWORD PTR [esi+44]
  00087	ff 70 04	 push	 DWORD PTR [eax+4]
  0008a	6a 00		 push	 0
  0008c	6a 00		 push	 0
  0008e	6a 04		 push	 4
  00090	e8 00 00 00 00	 call	 ?PostRequest@CDbController@@QAEHHPAEHK@Z ; CDbController::PostRequest
; File C:\IAGOS\server\v18\Source\Source\_Common\LuaBase.h

; 44   : 	const char*	ToString( int nStackPos )					{  return lua_tostring( m_pLuaState, nStackPos );  }

  00095	6a 00		 push	 0
  00097	6a ff		 push	 -1
  00099	ff 76 28	 push	 DWORD PTR [esi+40]
  0009c	e8 00 00 00 00	 call	 _lua_tolstring
  000a1	83 c4 0c	 add	 esp, 12			; 0000000cH
; File C:\IAGOS\server\v18\Source\Source\_Common\Tax.cpp

; 224  : 			m_strChangedDate = m_Lua.ToString( -1 );

  000a4	8d 4e 48	 lea	 ecx, DWORD PTR [esi+72]
  000a7	50		 push	 eax
  000a8	e8 00 00 00 00	 call	 ??4?$basic_string@DU?$char_traits@D@std@@V?$allocator@D@2@@std@@QAEAAV01@QBD@Z ; std::basic_string<char,std::char_traits<char>,std::allocator<char> >::operator=

; 225  : 			m_taxDBController.PostRequest( QUERY_TAX_CHANGENEXT, 0, 0, 0 );

  000ad	6a 00		 push	 0
  000af	6a 00		 push	 0
  000b1	6a 00		 push	 0
  000b3	6a 02		 push	 2
  000b5	8d 4e 2c	 lea	 ecx, DWORD PTR [esi+44]
  000b8	e8 00 00 00 00	 call	 ?PostRequest@CDbController@@QAEHHPAEHK@Z ; CDbController::PostRequest
$LN34@CheckChang:
  000bd	5f		 pop	 edi
$LN4@CheckChang:

; 226  : 		}
; 227  : 	}
; 228  : 	m_Lua.Pop(0);

  000be	6a 00		 push	 0
  000c0	8d 4e 24	 lea	 ecx, DWORD PTR [esi+36]
  000c3	e8 00 00 00 00	 call	 ?Pop@CLuaBase@@QAEXH@Z	; CLuaBase::Pop
  000c8	5b		 pop	 ebx
$LN1@CheckChang:
  000c9	5e		 pop	 esi

; 229  : }

  000ca	5d		 pop	 ebp
  000cb	c2 08 00	 ret	 8
?CheckChangeTime@CTax@@QAEXHH@Z ENDP			; CTax::CheckChangeTime
_TEXT	ENDS
; Function compile flags: /Ogtp
; File C:\IAGOS\server\v18\Source\Source\_Common\Tax.cpp
; File C:\IAGOS\server\v18\Source\Source\_Common\LuaBase.h
; File C:\IAGOS\server\v18\Source\Source\_Common\Tax.cpp
;	COMDAT ?CheckPayTime@CTax@@QAEHXZ
_TEXT	SEGMENT
?CheckPayTime@CTax@@QAEHXZ PROC				; CTax::CheckPayTime, COMDAT
; _this$ = ecx

; 271  : {

  00000	53		 push	 ebx
  00001	56		 push	 esi
  00002	57		 push	 edi
  00003	8b f9		 mov	 edi, ecx

; 272  : 	// Áö±Ţ˝Ă°Ł °Ë»ç -	Áö±Ţ ˝Ă°ŁŔş "˝Ă:şĐ"ŔĚ ąÝµĺ˝Ă ŔĎÄˇÇŘľß ÇŃ´Ů.(Ľ·´Ů µîŔÇ ŔĚŔŻ·Î ĂćşĐČ÷ ˝ÇĆĐÇŇ Ľö ŔÖ´Ů)
; 273  : 	//					¸¸ľŕ ˝Ă°ŁŔĚ ÁöłŞĽ­ Áö±ŢŔĚ ľČµČ°ćżě ´ŮŔ˝łŻ ´Ů˝Ă °Ë»çÇŘĽ­ °°ŔĚ Áö±ŢÇŃ´Ů.
; 274  : 	//					´ŮŔ˝ ĽĽŔ˛·Î şŻ°ćÇŇ ˝Ă°ŁŔĚ¸é bPay¸¦ ÂüÁ¶ÇĎż© FALSEŔÎ °ćżě şŻ°ćŔüżˇ Áö±ŢÇŃ´Ů.
; 275  : 	BOOL bPay = FALSE;

  00005	33 db		 xor	 ebx, ebx

; 276  : 	if( m_Lua.GetLuaFunction( "CheckPayTime" ) )

  00007	68 00 00 00 00	 push	 OFFSET ??_C@_0N@JMAFDKBD@CheckPayTime@
  0000c	8d 4f 24	 lea	 ecx, DWORD PTR [edi+36]
  0000f	e8 00 00 00 00	 call	 ?GetLuaFunction@CLuaBase@@QAEHPAD@Z ; CLuaBase::GetLuaFunction
  00014	85 c0		 test	 eax, eax
  00016	74 30		 je	 SHORT $LN3@CheckPayTi

; 277  : 	{
; 278  : 		m_Lua.CallLuaFunction( 0, 1 );

  00018	6a 01		 push	 1
  0001a	53		 push	 ebx
  0001b	8d 4f 24	 lea	 ecx, DWORD PTR [edi+36]
  0001e	e8 00 00 00 00	 call	 ?CallLuaFunction@CLuaBase@@QAEXHH@Z ; CLuaBase::CallLuaFunction
; File C:\IAGOS\server\v18\Source\Source\_Common\LuaBase.h

; 45   : 	BOOL		ToBool( int nStackPos )						{  return static_cast<BOOL>( lua_toboolean( m_pLuaState, nStackPos ) );  }

  00023	6a ff		 push	 -1
  00025	ff 77 28	 push	 DWORD PTR [edi+40]
  00028	e8 00 00 00 00	 call	 _lua_toboolean
  0002d	83 c4 08	 add	 esp, 8
; File C:\IAGOS\server\v18\Source\Source\_Common\Tax.cpp

; 279  : 		if( m_Lua.ToBool( -1 ) )

  00030	85 c0		 test	 eax, eax
  00032	74 14		 je	 SHORT $LN3@CheckPayTi

; 280  : 		{
; 281  : 			bPay = TRUE;
; 282  : 			m_taxDBController.PostRequest( QUERY_TAX_PAY, 0, 0, 0 );

  00034	6a 00		 push	 0
  00036	6a 00		 push	 0
  00038	6a 00		 push	 0
  0003a	bb 01 00 00 00	 mov	 ebx, 1
  0003f	8d 4f 2c	 lea	 ecx, DWORD PTR [edi+44]
  00042	53		 push	 ebx
  00043	e8 00 00 00 00	 call	 ?PostRequest@CDbController@@QAEHHPAEHK@Z ; CDbController::PostRequest
$LN3@CheckPayTi:

; 283  : 		}
; 284  : 	}
; 285  : 	m_Lua.Pop(0);

  00048	6a 00		 push	 0
  0004a	8d 4f 24	 lea	 ecx, DWORD PTR [edi+36]
  0004d	e8 00 00 00 00	 call	 ?Pop@CLuaBase@@QAEXH@Z	; CLuaBase::Pop

; 286  : 
; 287  : 	return bPay;

  00052	5f		 pop	 edi
  00053	5e		 pop	 esi
  00054	8b c3		 mov	 eax, ebx
  00056	5b		 pop	 ebx

; 288  : }

  00057	c3		 ret	 0
?CheckPayTime@CTax@@QAEHXZ ENDP				; CTax::CheckPayTime
_TEXT	ENDS
; Function compile flags: /Ogtp
; File C:\IAGOS\server\v18\Source\Source\_Common\Tax.cpp
; File C:\IAGOS\server\v18\Source\Source\_Common\LuaBase.h
; File C:\IAGOS\server\v18\Source\Source\_Common\Tax.cpp
; File C:\IAGOS\server\v18\Source\Source\_Common\LuaBase.h
; File C:\IAGOS\server\v18\Source\Source\_Common\Tax.cpp
; File C:\Program Files\Microsoft Visual Studio\2022\Professional\VC\Tools\MSVC\14.44.35207\include\vector
; File C:\IAGOS\server\v18\Source\Source\_Common\Tax.cpp
; File C:\Program Files\Microsoft Visual Studio\2022\Professional\VC\Tools\MSVC\14.44.35207\include\vector
; File C:\IAGOS\server\v18\Source\Source\_Common\Tax.cpp
; File C:\IAGOS\server\v18\Source\Source\_Common\LuaBase.h
; File C:\IAGOS\server\v18\Source\Source\_Common\Tax.cpp
;	COMDAT ?LoadScript@CTax@@QAEXXZ
_TEXT	SEGMENT
$T1 = -4						; size = 4
?LoadScript@CTax@@QAEXXZ PROC				; CTax::LoadScript, COMDAT
; _this$ = ecx

; 166  : {

  00000	55		 push	 ebp
  00001	8b ec		 mov	 ebp, esp
  00003	51		 push	 ecx
  00004	53		 push	 ebx
  00005	57		 push	 edi
  00006	8b f9		 mov	 edi, ecx

; 167  : 	if( m_Lua.RunScript( "Tax.lua" ) != 0 )

  00008	68 00 00 00 00	 push	 OFFSET ??_C@_07KANMDMNE@Tax?4lua@
  0000d	8d 4f 24	 lea	 ecx, DWORD PTR [edi+36]
  00010	e8 00 00 00 00	 call	 ?RunScript@CLuaBase@@QAEHPBD@Z ; CLuaBase::RunScript
  00015	85 c0		 test	 eax, eax
  00017	74 0d		 je	 SHORT $LN4@LoadScript

; 168  : 	{
; 169  : 		Error( "Tax.lua Run Failed !!!" );

  00019	68 00 00 00 00	 push	 OFFSET ??_C@_0BH@GCMNILJK@Tax?4lua?5Run?5Failed?5?$CB?$CB?$CB@
  0001e	e8 00 00 00 00	 call	 ?Error@@YAPBDPBDZZ	; Error
  00023	83 c4 04	 add	 esp, 4
$LN4@LoadScript:

; 170  : 		ASSERT(0);
; 171  : 	}
; 172  : 
; 173  : 	m_nMinTaxRate =					static_cast<int>( m_Lua.GetGlobalNumber( "MinTaxRate" ) );

  00026	68 00 00 00 00	 push	 OFFSET ??_C@_0L@KBBAAJBF@MinTaxRate@
  0002b	8d 4f 24	 lea	 ecx, DWORD PTR [edi+36]
  0002e	e8 00 00 00 00	 call	 ?GetGlobalNumber@CLuaBase@@QAENPAD@Z ; CLuaBase::GetGlobalNumber
  00033	e8 00 00 00 00	 call	 __ftol2_sse

; 174  : 	m_nMaxTaxRate =					static_cast<int>( m_Lua.GetGlobalNumber( "MaxTaxRate" ) );

  00038	68 00 00 00 00	 push	 OFFSET ??_C@_0L@GNBNHCBK@MaxTaxRate@
  0003d	8d 4f 24	 lea	 ecx, DWORD PTR [edi+36]
  00040	89 07		 mov	 DWORD PTR [edi], eax
  00042	e8 00 00 00 00	 call	 ?GetGlobalNumber@CLuaBase@@QAENPAD@Z ; CLuaBase::GetGlobalNumber
  00047	e8 00 00 00 00	 call	 __ftol2_sse

; 175  : 	m_nTaxSecretRoomRate =			static_cast<int>( m_Lua.GetGlobalNumber( "TaxSecretRoomRate" ) );

  0004c	68 00 00 00 00	 push	 OFFSET ??_C@_0BC@HLGHAKHH@TaxSecretRoomRate@
  00051	8d 4f 24	 lea	 ecx, DWORD PTR [edi+36]
  00054	89 47 04	 mov	 DWORD PTR [edi+4], eax
  00057	e8 00 00 00 00	 call	 ?GetGlobalNumber@CLuaBase@@QAENPAD@Z ; CLuaBase::GetGlobalNumber
  0005c	e8 00 00 00 00	 call	 __ftol2_sse

; 176  : 	m_nTaxLordRate =				static_cast<int>( m_Lua.GetGlobalNumber( "TaxLordRate" ) );

  00061	68 00 00 00 00	 push	 OFFSET ??_C@_0M@JMFHEJJO@TaxLordRate@
  00066	8d 4f 24	 lea	 ecx, DWORD PTR [edi+36]
  00069	89 47 10	 mov	 DWORD PTR [edi+16], eax
  0006c	e8 00 00 00 00	 call	 ?GetGlobalNumber@CLuaBase@@QAENPAD@Z ; CLuaBase::GetGlobalNumber
  00071	e8 00 00 00 00	 call	 __ftol2_sse

; 177  : 	m_nAdmissionSecretRoomRate =	static_cast<int>( m_Lua.GetGlobalNumber( "AdmissionSecretRoomRate" ) );

  00076	68 00 00 00 00	 push	 OFFSET ??_C@_0BI@LJACBDPE@AdmissionSecretRoomRate@
  0007b	8d 4f 24	 lea	 ecx, DWORD PTR [edi+36]
  0007e	89 47 14	 mov	 DWORD PTR [edi+20], eax
  00081	e8 00 00 00 00	 call	 ?GetGlobalNumber@CLuaBase@@QAENPAD@Z ; CLuaBase::GetGlobalNumber
  00086	e8 00 00 00 00	 call	 __ftol2_sse

; 178  : 	m_nAdmissionLordRate =			static_cast<int>( m_Lua.GetGlobalNumber( "AdmissionLordRate" ) );

  0008b	68 00 00 00 00	 push	 OFFSET ??_C@_0BC@LCJMAADJ@AdmissionLordRate@
  00090	8d 4f 24	 lea	 ecx, DWORD PTR [edi+36]
  00093	89 47 18	 mov	 DWORD PTR [edi+24], eax
  00096	e8 00 00 00 00	 call	 ?GetGlobalNumber@CLuaBase@@QAENPAD@Z ; CLuaBase::GetGlobalNumber
  0009b	e8 00 00 00 00	 call	 __ftol2_sse

; 179  : 	m_nDBSaveCount =				static_cast<int>( m_Lua.GetGlobalNumber( "DBSaveCount" ) );

  000a0	68 00 00 00 00	 push	 OFFSET ??_C@_0M@FELENEOA@DBSaveCount@
  000a5	8d 4f 24	 lea	 ecx, DWORD PTR [edi+36]
  000a8	89 47 1c	 mov	 DWORD PTR [edi+28], eax
  000ab	e8 00 00 00 00	 call	 ?GetGlobalNumber@CLuaBase@@QAENPAD@Z ; CLuaBase::GetGlobalNumber
  000b0	e8 00 00 00 00	 call	 __ftol2_sse
  000b5	89 47 20	 mov	 DWORD PTR [edi+32], eax

; 180  : 	if( m_nDBSaveCount < 1 )

  000b8	83 f8 01	 cmp	 eax, 1
  000bb	7d 07		 jge	 SHORT $LN5@LoadScript

; 181  : 		m_nDBSaveCount = 1;

  000bd	c7 47 20 01 00
	00 00		 mov	 DWORD PTR [edi+32], 1
$LN5@LoadScript:
; File C:\IAGOS\server\v18\Source\Source\_Common\LuaBase.h

; 47   : 	void		GetGloabal( char* szName )					{  lua_getglobal( m_pLuaState, szName );  }

  000c4	68 00 00 00 00	 push	 OFFSET ??_C@_0BE@DCFJJNKF@tOccupationShopItem@
  000c9	ff 77 28	 push	 DWORD PTR [edi+40]
  000cc	e8 00 00 00 00	 call	 _lua_getglobal

; 40   : 	void		PushNil()									{  lua_pushnil( m_pLuaState );  }

  000d1	ff 77 28	 push	 DWORD PTR [edi+40]
  000d4	e8 00 00 00 00	 call	 _lua_pushnil

; 46   : 	int			TableLoop( int nStackPos )					{  return lua_next( m_pLuaState, nStackPos );  }	

  000d9	6a fe		 push	 -2			; fffffffeH
  000db	ff 77 28	 push	 DWORD PTR [edi+40]
  000de	e8 00 00 00 00	 call	 _lua_next
  000e3	83 c4 14	 add	 esp, 20			; 00000014H
; File C:\IAGOS\server\v18\Source\Source\_Common\Tax.cpp

; 189  : 	while( m_Lua.TableLoop( -2 ) )

  000e6	85 c0		 test	 eax, eax
  000e8	74 57		 je	 SHORT $LN3@LoadScript
  000ea	56		 push	 esi
  000eb	0f 1f 44 00 00	 npad	 5
$LL2@LoadScript:
; File C:\IAGOS\server\v18\Source\Source\_Common\LuaBase.h

; 44   : 	const char*	ToString( int nStackPos )					{  return lua_tostring( m_pLuaState, nStackPos );  }

  000f0	6a 00		 push	 0
  000f2	6a ff		 push	 -1
  000f4	ff 77 28	 push	 DWORD PTR [edi+40]
  000f7	e8 00 00 00 00	 call	 _lua_tolstring
; File C:\IAGOS\server\v18\Source\Source\_Common\Tax.cpp

; 191  : 		m_vecdwOccupationShopItem.push_back( CScript::GetDefineNum( m_Lua.ToString( -1 ) ) );

  000fc	50		 push	 eax
  000fd	e8 00 00 00 00	 call	 ?GetDefineNum@CScript@@SAHPBD@Z ; CScript::GetDefineNum
; File C:\Program Files\Microsoft Visual Studio\2022\Professional\VC\Tools\MSVC\14.44.35207\include\vector

; 844  :         if (_Mylast != _My_data._Myend) {

  00102	8b 4f 64	 mov	 ecx, DWORD PTR [edi+100]
; File C:\IAGOS\server\v18\Source\Source\_Common\Tax.cpp

; 191  : 		m_vecdwOccupationShopItem.push_back( CScript::GetDefineNum( m_Lua.ToString( -1 ) ) );

  00105	83 c4 10	 add	 esp, 16			; 00000010H
  00108	89 45 fc	 mov	 DWORD PTR $T1[ebp], eax
; File C:\Program Files\Microsoft Visual Studio\2022\Professional\VC\Tools\MSVC\14.44.35207\include\vector

; 844  :         if (_Mylast != _My_data._Myend) {

  0010b	3b 4f 68	 cmp	 ecx, DWORD PTR [edi+104]
  0010e	74 08		 je	 SHORT $LN18@LoadScript

; 860  :             _STD _Construct_in_place(*_Mylast, _STD forward<_Valty>(_Val)...);

  00110	89 01		 mov	 DWORD PTR [ecx], eax

; 861  :         } else {
; 862  :             _ASAN_VECTOR_EXTEND_GUARD(static_cast<size_type>(_Mylast - _My_data._Myfirst) + 1);
; 863  :             _Alty_traits::construct(_Getal(), _Unfancy(_Mylast), _STD forward<_Valty>(_Val)...);
; 864  :             _ASAN_VECTOR_RELEASE_GUARD;
; 865  :         }
; 866  : 
; 867  :         _Orphan_range(_Mylast, _Mylast);
; 868  :         _Ty& _Result = *_Mylast;
; 869  :         ++_Mylast;

  00112	83 47 64 04	 add	 DWORD PTR [edi+100], 4

; 845  :             return _Emplace_back_with_unused_capacity(_STD forward<_Valty>(_Val)...);

  00116	eb 0d		 jmp	 SHORT $LN17@LoadScript
$LN18@LoadScript:

; 846  :         }
; 847  : 
; 848  :         return *_Emplace_reallocate(_Mylast, _STD forward<_Valty>(_Val)...);

  00118	8d 45 fc	 lea	 eax, DWORD PTR $T1[ebp]
  0011b	50		 push	 eax
  0011c	51		 push	 ecx
  0011d	8d 4f 60	 lea	 ecx, DWORD PTR [edi+96]
  00120	e8 00 00 00 00	 call	 ??$_Emplace_reallocate@K@?$vector@KV?$allocator@K@std@@@std@@AAEPAKQAK$$QAK@Z ; std::vector<unsigned long,std::allocator<unsigned long> >::_Emplace_reallocate<unsigned long>
$LN17@LoadScript:
; File C:\IAGOS\server\v18\Source\Source\_Common\Tax.cpp

; 192  : 		m_Lua.Pop( 1 );

  00125	6a 01		 push	 1
  00127	8d 4f 24	 lea	 ecx, DWORD PTR [edi+36]
  0012a	e8 00 00 00 00	 call	 ?Pop@CLuaBase@@QAEXH@Z	; CLuaBase::Pop
; File C:\IAGOS\server\v18\Source\Source\_Common\LuaBase.h

; 46   : 	int			TableLoop( int nStackPos )					{  return lua_next( m_pLuaState, nStackPos );  }	

  0012f	6a fe		 push	 -2			; fffffffeH
  00131	ff 77 28	 push	 DWORD PTR [edi+40]
  00134	e8 00 00 00 00	 call	 _lua_next
  00139	83 c4 08	 add	 esp, 8
; File C:\IAGOS\server\v18\Source\Source\_Common\Tax.cpp

; 189  : 	while( m_Lua.TableLoop( -2 ) )

  0013c	85 c0		 test	 eax, eax
  0013e	75 b0		 jne	 SHORT $LL2@LoadScript
  00140	5e		 pop	 esi
$LN3@LoadScript:

; 193  : 	}
; 194  : #endif // __OCCUPATION_SHOPITEM
; 195  : 
; 196  : 	LoadTaxInfo( DPID_ALLPLAYERS );

  00141	6a 00		 push	 0
  00143	8b cf		 mov	 ecx, edi
  00145	e8 00 00 00 00	 call	 ?LoadTaxInfo@CTax@@QAEXK@Z ; CTax::LoadTaxInfo
  0014a	5f		 pop	 edi
  0014b	5b		 pop	 ebx

; 197  : }

  0014c	8b e5		 mov	 esp, ebp
  0014e	5d		 pop	 ebp
  0014f	c3		 ret	 0
?LoadScript@CTax@@QAEXXZ ENDP				; CTax::LoadScript
_TEXT	ENDS
; Function compile flags: /Ogtp
; File C:\IAGOS\server\v18\Source\Source\_Common\Tax.cpp
; File C:\Program Files\Microsoft Visual Studio\2022\Professional\VC\Tools\MSVC\14.44.35207\include\xtree
; File C:\IAGOS\server\v18\Source\Source\_Common\Tax.cpp
; File C:\Program Files\Microsoft Visual Studio\2022\Professional\VC\Tools\MSVC\14.44.35207\include\xtree
; File C:\IAGOS\server\v18\Source\Source\_Common\Tax.cpp
; File C:\Program Files\Microsoft Visual Studio\2022\Professional\VC\Tools\MSVC\14.44.35207\include\xtree
; File C:\Program Files\Microsoft Visual Studio\2022\Professional\VC\Tools\MSVC\14.44.35207\include\type_traits
; File C:\Program Files\Microsoft Visual Studio\2022\Professional\VC\Tools\MSVC\14.44.35207\include\xtree
; File C:\IAGOS\server\v18\Source\Source\_Common\Tax.cpp
; File C:\Program Files\Microsoft Visual Studio\2022\Professional\VC\Tools\MSVC\14.44.35207\include\xtree
; File C:\Program Files\Microsoft Visual Studio\2022\Professional\VC\Tools\MSVC\14.44.35207\include\type_traits
; File C:\Program Files\Microsoft Visual Studio\2022\Professional\VC\Tools\MSVC\14.44.35207\include\xtree
; File C:\IAGOS\server\v18\Source\Source\_Common\Tax.cpp
; File C:\Program Files\Microsoft Visual Studio\2022\Professional\VC\Tools\MSVC\14.44.35207\include\xtree
; File C:\IAGOS\server\v18\Source\Source\_Common\Tax.cpp
;	COMDAT ?AddTax@CTax@@QAEHEHE@Z
_TEXT	SEGMENT
__Loc$1 = -40						; size = 12
__Loc$2 = -28						; size = 12
tv763 = -16						; size = 4
tv783 = -12						; size = 4
tv785 = -12						; size = 4
_bUpdateToDB$1$ = -8					; size = 4
_this$1$ = -4						; size = 4
_nCont$ = 8						; size = 1
_nTax$ = 12						; size = 4
_nTaxKind$ = 16						; size = 1
?AddTax@CTax@@QAEHEHE@Z PROC				; CTax::AddTax, COMDAT
; _this$ = ecx

; 444  : {

  00000	55		 push	 ebp
  00001	8b ec		 mov	 ebp, esp
  00003	83 ec 28	 sub	 esp, 40			; 00000028H
  00006	8b d1		 mov	 edx, ecx
  00008	53		 push	 ebx
  00009	56		 push	 esi

; 445  : 	BOOL bUpdateToDB = FALSE;

  0000a	33 db		 xor	 ebx, ebx
  0000c	89 55 fc	 mov	 DWORD PTR _this$1$[ebp], edx
; File C:\Program Files\Microsoft Visual Studio\2022\Professional\VC\Tools\MSVC\14.44.35207\include\xtree

; 1142 :         return iterator(_Scary->_Myhead->_Left, _Scary);

  0000f	8b 42 08	 mov	 eax, DWORD PTR [edx+8]
; File C:\IAGOS\server\v18\Source\Source\_Common\Tax.cpp

; 445  : 	BOOL bUpdateToDB = FALSE;

  00012	89 5d f8	 mov	 DWORD PTR _bUpdateToDB$1$[ebp], ebx
; File C:\Program Files\Microsoft Visual Studio\2022\Professional\VC\Tools\MSVC\14.44.35207\include\xtree

; 37   :     _Tree_unchecked_const_iterator(_Nodeptr _Pnode, const _Mytree* _Plist) noexcept : _Ptr(_Pnode) {

  00015	8b 30		 mov	 esi, DWORD PTR [eax]

; 237  :         return !(*this == _Right);

  00017	3b f0		 cmp	 esi, eax
; File C:\IAGOS\server\v18\Source\Source\_Common\Tax.cpp

; 451  : 	for( TAXINFOMAP::iterator it=m_mapTaxInfo.begin(); it!=m_mapTaxInfo.end(); it++ )

  00019	0f 84 4b 01 00
	00		 je	 $LN170@AddTax
  0001f	57		 push	 edi
$LL4@AddTax:

; 452  : 	{
; 453  : #if __VER >= 15 // __USING_CONTINENT_DATA
; 454  : 		if( it->first == CONT_ALL || it->first == nCont )

  00020	8a 46 10	 mov	 al, BYTE PTR [esi+16]
  00023	3c ff		 cmp	 al, 255			; 000000ffH
  00025	74 09		 je	 SHORT $LN6@AddTax
  00027	3a 45 08	 cmp	 al, BYTE PTR _nCont$[ebp]
  0002a	0f 85 f4 00 00
	00		 jne	 $LN2@AddTax
$LN6@AddTax:

; 455  : #else // __USING_CONTINENT_DATA
; 456  : 		if( it->first & nCont )
; 457  : #endif // __USING_CONTINENT_DATA
; 458  : 		{
; 459  : 			__TAXINFO* taxInfo = GetTaxInfo( it->first );

  00030	50		 push	 eax
  00031	8b ca		 mov	 ecx, edx
  00033	e8 00 00 00 00	 call	 ?GetTaxInfo@CTax@@QAEPAU__TAXINFO@@E@Z ; CTax::GetTaxInfo

; 460  : 			if( !taxInfo || taxInfo->dwId == NULL_ID )

  00038	85 c0		 test	 eax, eax
  0003a	0f 84 e1 00 00
	00		 je	 $LN177@AddTax
  00040	83 38 ff	 cmp	 DWORD PTR [eax], -1
  00043	0f 84 d8 00 00
	00		 je	 $LN177@AddTax
; File C:\Program Files\Microsoft Visual Studio\2022\Professional\VC\Tools\MSVC\14.44.35207\include\xtree

; 37   :     _Tree_unchecked_const_iterator(_Nodeptr _Pnode, const _Mytree* _Plist) noexcept : _Ptr(_Pnode) {

  00049	8b 58 08	 mov	 ebx, DWORD PTR [eax+8]

; 1152 :         return iterator(_Scary->_Myhead, _Scary);

  0004c	8d 78 08	 lea	 edi, DWORD PTR [eax+8]

; 1384 :         const _Tree_find_result<_Nodeptr> _Loc = _Find_lower_bound(_Keyval);

  0004f	8d 45 10	 lea	 eax, DWORD PTR _nTaxKind$[ebp]
  00052	8b cf		 mov	 ecx, edi
  00054	50		 push	 eax
  00055	8d 45 e4	 lea	 eax, DWORD PTR __Loc$2[ebp]
  00058	50		 push	 eax
  00059	e8 00 00 00 00	 call	 ??$_Find_lower_bound@E@?$_Tree@V?$_Tmap_traits@EPAU__TAXDETAIL@@U?$less@E@std@@V?$allocator@U?$pair@$$CBEPAU__TAXDETAIL@@@std@@@3@$0A@@std@@@std@@IBE?AU?$_Tree_find_result@PAU?$_Tree_node@U?$pair@$$CBEPAU__TAXDETAIL@@@std@@PAX@std@@@1@ABE@Z ; std::_Tree<std::_Tmap_traits<unsigned char,__TAXDETAIL *,std::less<unsigned char>,std::allocator<std::pair<unsigned char const ,__TAXDETAIL *> >,0> >::_Find_lower_bound<unsigned char>

; 1624 :         return !_Bound->_Isnil && !_DEBUG_LT_PRED(_Getcomp(), _Keyval, _Traits::_Kfn(_Bound->_Myval));

  0005e	8b 45 ec	 mov	 eax, DWORD PTR __Loc$2[ebp+8]
  00061	80 78 0d 00	 cmp	 BYTE PTR [eax+13], 0
  00065	0f 85 b3 00 00
	00		 jne	 $LN175@AddTax
; File C:\Program Files\Microsoft Visual Studio\2022\Professional\VC\Tools\MSVC\14.44.35207\include\type_traits

; 2380 :         return _Left < _Right;

  0006b	8b 4d 10	 mov	 ecx, DWORD PTR _nTaxKind$[ebp]
  0006e	3a 48 10	 cmp	 cl, BYTE PTR [eax+16]
; File C:\Program Files\Microsoft Visual Studio\2022\Professional\VC\Tools\MSVC\14.44.35207\include\xtree

; 1624 :         return !_Bound->_Isnil && !_DEBUG_LT_PRED(_Getcomp(), _Keyval, _Traits::_Kfn(_Bound->_Myval));

  00071	0f 82 a7 00 00
	00		 jb	 $LN175@AddTax

; 232  :         return this->_Ptr == _Right._Ptr;

  00077	3b c3		 cmp	 eax, ebx
; File C:\IAGOS\server\v18\Source\Source\_Common\Tax.cpp

; 462  : 			if( taxInfo->mapTaxDetail.find( nTaxKind ) == taxInfo->mapTaxDetail.end() )

  00079	0f 84 9f 00 00
	00		 je	 $LN175@AddTax
; File C:\Program Files\Microsoft Visual Studio\2022\Professional\VC\Tools\MSVC\14.44.35207\include\xtree

; 1384 :         const _Tree_find_result<_Nodeptr> _Loc = _Find_lower_bound(_Keyval);

  0007f	8d 45 10	 lea	 eax, DWORD PTR _nTaxKind$[ebp]
  00082	8b cf		 mov	 ecx, edi
  00084	50		 push	 eax
  00085	8d 45 d8	 lea	 eax, DWORD PTR __Loc$1[ebp]
  00088	50		 push	 eax
  00089	e8 00 00 00 00	 call	 ??$_Find_lower_bound@E@?$_Tree@V?$_Tmap_traits@EPAU__TAXDETAIL@@U?$less@E@std@@V?$allocator@U?$pair@$$CBEPAU__TAXDETAIL@@@std@@@3@$0A@@std@@@std@@IBE?AU?$_Tree_find_result@PAU?$_Tree_node@U?$pair@$$CBEPAU__TAXDETAIL@@@std@@PAX@std@@@1@ABE@Z ; std::_Tree<std::_Tmap_traits<unsigned char,__TAXDETAIL *,std::less<unsigned char>,std::allocator<std::pair<unsigned char const ,__TAXDETAIL *> >,0> >::_Find_lower_bound<unsigned char>

; 1624 :         return !_Bound->_Isnil && !_DEBUG_LT_PRED(_Getcomp(), _Keyval, _Traits::_Kfn(_Bound->_Myval));

  0008e	8b 45 e0	 mov	 eax, DWORD PTR __Loc$1[ebp+8]
  00091	8b 4d 10	 mov	 ecx, DWORD PTR _nTaxKind$[ebp]
  00094	80 78 0d 00	 cmp	 BYTE PTR [eax+13], 0
  00098	75 05		 jne	 SHORT $LN128@AddTax
; File C:\Program Files\Microsoft Visual Studio\2022\Professional\VC\Tools\MSVC\14.44.35207\include\type_traits

; 2380 :         return _Left < _Right;

  0009a	3a 48 10	 cmp	 cl, BYTE PTR [eax+16]
; File C:\Program Files\Microsoft Visual Studio\2022\Professional\VC\Tools\MSVC\14.44.35207\include\xtree

; 1624 :         return !_Bound->_Isnil && !_DEBUG_LT_PRED(_Getcomp(), _Keyval, _Traits::_Kfn(_Bound->_Myval));

  0009d	73 02		 jae	 SHORT $LN127@AddTax
$LN128@AddTax:

; 1389 :         return _Get_scary()->_Myhead;

  0009f	8b c3		 mov	 eax, ebx
$LN127@AddTax:
; File C:\IAGOS\server\v18\Source\Source\_Common\Tax.cpp

; 465  : 			__TAXDETAIL* taxDetail = taxInfo->mapTaxDetail.find( nTaxKind )->second;

  000a1	8b 78 14	 mov	 edi, DWORD PTR [eax+20]

; 466  : 			if( taxDetail )

  000a4	85 ff		 test	 edi, edi
  000a6	74 76		 je	 SHORT $LN175@AddTax

; 467  : 			{
; 468  : 				taxDetail->nTaxCount++;

  000a8	8b 47 04	 mov	 eax, DWORD PTR [edi+4]

; 469  : 				taxDetail->nTaxGold += static_cast<int>( static_cast<float>(nTax) * GetEarningRate( nCont, nTaxKind ) );

  000ab	8b 5d fc	 mov	 ebx, DWORD PTR _this$1$[ebp]
  000ae	40		 inc	 eax
  000af	51		 push	 ecx
  000b0	ff 75 08	 push	 DWORD PTR _nCont$[ebp]
  000b3	8b cb		 mov	 ecx, ebx
  000b5	89 45 f0	 mov	 DWORD PTR tv763[ebp], eax
  000b8	89 47 04	 mov	 DWORD PTR [edi+4], eax
  000bb	e8 00 00 00 00	 call	 ?GetEarningRate@CTax@@QAEMEE@Z ; CTax::GetEarningRate
  000c0	66 0f 6e 45 0c	 movd	 xmm0, DWORD PTR _nTax$[ebp]
  000c5	0f 5b c0	 cvtdq2ps xmm0, xmm0
  000c8	f3 0f 11 45 f4	 movss	 DWORD PTR tv785[ebp], xmm0
  000cd	d8 4d f4	 fmul	 DWORD PTR tv785[ebp]
  000d0	d9 5d f4	 fstp	 DWORD PTR tv783[ebp]
  000d3	f3 0f 2c 4d f4	 cvttss2si ecx, DWORD PTR tv783[ebp]
  000d8	03 4f 08	 add	 ecx, DWORD PTR [edi+8]
  000db	89 4f 08	 mov	 DWORD PTR [edi+8], ecx

; 470  : 				int nTaxTemp = taxDetail->nTaxGold;
; 471  : 				if( nTaxTemp >= 100000000 )

  000de	81 f9 00 e1 f5
	05		 cmp	 ecx, 100000000		; 05f5e100H
  000e4	7c 1f		 jl	 SHORT $LN11@AddTax

; 472  : 				{
; 473  : 					taxDetail->nTaxPerin += nTaxTemp/PERIN_VALUE;

  000e6	b8 89 3b e6 55	 mov	 eax, 1441151881		; 55e63b89H
  000eb	f7 e9		 imul	 ecx
  000ed	c1 fa 19	 sar	 edx, 25			; 00000019H
  000f0	8b c2		 mov	 eax, edx
  000f2	c1 e8 1f	 shr	 eax, 31			; 0000001fH
  000f5	03 c2		 add	 eax, edx
  000f7	01 47 0c	 add	 DWORD PTR [edi+12], eax

; 474  : 					taxDetail->nTaxGold = nTaxTemp%PERIN_VALUE;

  000fa	69 c0 00 e1 f5
	05		 imul	 eax, eax, 100000000
  00100	2b c8		 sub	 ecx, eax
  00102	89 4f 08	 mov	 DWORD PTR [edi+8], ecx
$LN11@AddTax:

; 475  : 				}
; 476  : 				// m_nDBSaveCount°ÇŔĚ Ă¤żöÁöÁö ľĘŔ¸¸é DBżˇ ŔúŔĺÇĎÁö ľĘ´Â´Ů.
; 477  : 				if( (taxDetail->nTaxCount % m_nDBSaveCount) == 0 )

  00105	8b 45 f0	 mov	 eax, DWORD PTR tv763[ebp]
  00108	99		 cdq
  00109	f7 7b 20	 idiv	 DWORD PTR [ebx+32]
  0010c	8b 5d f8	 mov	 ebx, DWORD PTR _bUpdateToDB$1$[ebp]
  0010f	b8 01 00 00 00	 mov	 eax, 1
  00114	85 d2		 test	 edx, edx
  00116	0f 44 d8	 cmove	 ebx, eax
  00119	89 5d f8	 mov	 DWORD PTR _bUpdateToDB$1$[ebp], ebx
; File C:\Program Files\Microsoft Visual Studio\2022\Professional\VC\Tools\MSVC\14.44.35207\include\xtree

; 1624 :         return !_Bound->_Isnil && !_DEBUG_LT_PRED(_Getcomp(), _Keyval, _Traits::_Kfn(_Bound->_Myval));

  0011c	eb 03		 jmp	 SHORT $LN177@AddTax
$LN175@AddTax:

; 50   :         if (_Ptr->_Right->_Isnil) { // climb looking for right subtree

  0011e	8b 5d f8	 mov	 ebx, DWORD PTR _bUpdateToDB$1$[ebp]
$LN177@AddTax:
  00121	8b 55 fc	 mov	 edx, DWORD PTR _this$1$[ebp]
$LN2@AddTax:
  00124	8b 46 08	 mov	 eax, DWORD PTR [esi+8]
  00127	80 78 0d 00	 cmp	 BYTE PTR [eax+13], 0
  0012b	74 1d		 je	 SHORT $LN35@AddTax

; 51   :             _Nodeptr _Pnode;
; 52   :             while (!(_Pnode = _Ptr->_Parent)->_Isnil && _Ptr == _Pnode->_Right) {

  0012d	8b 46 04	 mov	 eax, DWORD PTR [esi+4]
  00130	80 78 0d 00	 cmp	 BYTE PTR [eax+13], 0
  00134	75 10		 jne	 SHORT $LN171@AddTax
$LL33@AddTax:
  00136	3b 70 08	 cmp	 esi, DWORD PTR [eax+8]
  00139	75 0b		 jne	 SHORT $LN171@AddTax

; 53   :                 _Ptr = _Pnode; // ==> parent while right subtree

  0013b	8b f0		 mov	 esi, eax
  0013d	8b 40 04	 mov	 eax, DWORD PTR [eax+4]
  00140	80 78 0d 00	 cmp	 BYTE PTR [eax+13], 0
  00144	74 f0		 je	 SHORT $LL33@AddTax
$LN171@AddTax:

; 54   :             }
; 55   : 
; 56   :             _Ptr = _Pnode; // ==> parent (head if end())

  00146	8b f0		 mov	 esi, eax

; 57   :         } else {

  00148	eb 16		 jmp	 SHORT $LN41@AddTax
$LN35@AddTax:

; 58   :             _Ptr = _Mytree::_Min(_Ptr->_Right); // ==> smallest of right subtree

  0014a	8b f0		 mov	 esi, eax

; 476  :         while (!_Pnode->_Left->_Isnil) {

  0014c	8b 0e		 mov	 ecx, DWORD PTR [esi]
  0014e	80 79 0d 00	 cmp	 BYTE PTR [ecx+13], 0
  00152	75 0c		 jne	 SHORT $LN41@AddTax
$LL40@AddTax:
  00154	8b 01		 mov	 eax, DWORD PTR [ecx]

; 477  :             _Pnode = _Pnode->_Left;

  00156	8b f1		 mov	 esi, ecx
  00158	8b c8		 mov	 ecx, eax
  0015a	80 78 0d 00	 cmp	 BYTE PTR [eax+13], 0
  0015e	74 f4		 je	 SHORT $LL40@AddTax
$LN41@AddTax:

; 237  :         return !(*this == _Right);

  00160	3b 72 08	 cmp	 esi, DWORD PTR [edx+8]
; File C:\IAGOS\server\v18\Source\Source\_Common\Tax.cpp

; 451  : 	for( TAXINFOMAP::iterator it=m_mapTaxInfo.begin(); it!=m_mapTaxInfo.end(); it++ )

  00163	0f 85 b7 fe ff
	ff		 jne	 $LL4@AddTax
  00169	5f		 pop	 edi
$LN170@AddTax:
  0016a	5e		 pop	 esi

; 478  : 					bUpdateToDB = TRUE;
; 479  : 			}
; 480  : 		}
; 481  : 	}
; 482  : #endif // __DBSERVER
; 483  : 	return bUpdateToDB;
; 484  : }

  0016b	8b c3		 mov	 eax, ebx
  0016d	5b		 pop	 ebx
  0016e	8b e5		 mov	 esp, ebp
  00170	5d		 pop	 ebp
  00171	c2 0c 00	 ret	 12			; 0000000cH
?AddTax@CTax@@QAEHEHE@Z ENDP				; CTax::AddTax
_TEXT	ENDS
; Function compile flags: /Ogtp
; File C:\IAGOS\server\v18\Source\Source\_Common\Tax.cpp
;	COMDAT ?SetApplyTaxRateNow@CTax@@QAEXXZ
_TEXT	SEGMENT
?SetApplyTaxRateNow@CTax@@QAEXXZ PROC			; CTax::SetApplyTaxRateNow, COMDAT
; _this$ = ecx

; 382  : #ifdef __WORLDSERVER
; 383  : 	g_dpDBClient.SendApplyTaxRateNow();
; 384  : #endif // __WORLDSERVER
; 385  : #ifdef __DBSERVER
; 386  : 	//m_taxDBController.PostRequest( QUERY_TAX_CHANGENEXT, 0, 0, 0 );
; 387  : 	CheckChangeTime( FALSE, TRUE );	// FALSE - Áö±ŢŔĚ ľČµÇľú°í, TRUE - GM¸í·ÉŔ¸·Î °­Á¦ ĽĽŔ˛ şŻ°ćÇŃ´Ů.

  00000	6a 01		 push	 1
  00002	6a 00		 push	 0
  00004	e8 00 00 00 00	 call	 ?CheckChangeTime@CTax@@QAEXHH@Z ; CTax::CheckChangeTime

; 388  : #endif // __DBSERVER
; 389  : }

  00009	c3		 ret	 0
?SetApplyTaxRateNow@CTax@@QAEXXZ ENDP			; CTax::SetApplyTaxRateNow
_TEXT	ENDS
; Function compile flags: /Ogtp
; File C:\IAGOS\server\v18\Source\Source\_Common\Tax.cpp
; File C:\Program Files\Microsoft Visual Studio\2022\Professional\VC\Tools\MSVC\14.44.35207\include\xtree
; File C:\IAGOS\server\v18\Source\Source\_Common\Tax.cpp
; File C:\Program Files\Microsoft Visual Studio\2022\Professional\VC\Tools\MSVC\14.44.35207\include\xtree
; File C:\Program Files\Microsoft Visual Studio\2022\Professional\VC\Tools\MSVC\14.44.35207\include\type_traits
; File C:\Program Files\Microsoft Visual Studio\2022\Professional\VC\Tools\MSVC\14.44.35207\include\xtree
; File C:\IAGOS\server\v18\Source\Source\_Common\Tax.cpp
; File C:\Program Files\Microsoft Visual Studio\2022\Professional\VC\Tools\MSVC\14.44.35207\include\xtree
; File C:\Program Files\Microsoft Visual Studio\2022\Professional\VC\Tools\MSVC\14.44.35207\include\type_traits
; File C:\Program Files\Microsoft Visual Studio\2022\Professional\VC\Tools\MSVC\14.44.35207\include\xtree
; File C:\IAGOS\server\v18\Source\Source\_Common\Tax.cpp
;	COMDAT ?SetNextTaxRate@CTax@@QAEXEHH@Z
_TEXT	SEGMENT
__Loc$1 = -12						; size = 12
__Loc$2 = -12						; size = 12
_nCont$ = 8						; size = 1
$T3 = 11						; size = 1
$T4 = 11						; size = 1
_nSalesTaxRate$ = 12					; size = 4
_nPurchaseTaxRate$ = 16					; size = 4
?SetNextTaxRate@CTax@@QAEXEHH@Z PROC			; CTax::SetNextTaxRate, COMDAT
; _this$ = ecx

; 361  : {

  00000	55		 push	 ebp
  00001	8b ec		 mov	 ebp, esp
  00003	83 ec 0c	 sub	 esp, 12			; 0000000cH

; 362  : #ifdef __WORLDSERVER
; 363  : 	if( nSalesTaxRate < m_nMinTaxRate || nSalesTaxRate > m_nMaxTaxRate
; 364  : 		|| nPurchaseTaxRate < m_nMinTaxRate || nPurchaseTaxRate > m_nMaxTaxRate )
; 365  : 		return;	// ĂÖĽŇ, ĂÖ´ë ąüŔ§ ąţľîłŞ¸é ±×łÉ ¸®ĹĎ...
; 366  : 
; 367  : 	g_dpDBClient.SendTaxRate( nCont, nSalesTaxRate, nPurchaseTaxRate );
; 368  : #endif // __WORLDSERVER
; 369  : #ifdef __DBSERVER
; 370  : 	__TAXINFO* taxInfo = GetTaxInfo( nCont );

  00006	ff 75 08	 push	 DWORD PTR _nCont$[ebp]
  00009	e8 00 00 00 00	 call	 ?GetTaxInfo@CTax@@QAEPAU__TAXINFO@@E@Z ; CTax::GetTaxInfo

; 371  : 	if( !taxInfo )

  0000e	85 c0		 test	 eax, eax
  00010	74 66		 je	 SHORT $LN1@SetNextTax

; 375  : 	taxInfo->mapTaxDetail.find( TAX_SALES )->second->nNextTaxRate = nSalesTaxRate;

  00012	56		 push	 esi
  00013	8d 70 08	 lea	 esi, DWORD PTR [eax+8]
  00016	c7 40 04 01 00
	00 00		 mov	 DWORD PTR [eax+4], 1
; File C:\Program Files\Microsoft Visual Studio\2022\Professional\VC\Tools\MSVC\14.44.35207\include\xtree

; 1384 :         const _Tree_find_result<_Nodeptr> _Loc = _Find_lower_bound(_Keyval);

  0001d	8d 45 0b	 lea	 eax, DWORD PTR $T3[ebp]
; File C:\IAGOS\server\v18\Source\Source\_Common\Tax.cpp

; 375  : 	taxInfo->mapTaxDetail.find( TAX_SALES )->second->nNextTaxRate = nSalesTaxRate;

  00020	c6 45 0b 00	 mov	 BYTE PTR $T3[ebp], 0
; File C:\Program Files\Microsoft Visual Studio\2022\Professional\VC\Tools\MSVC\14.44.35207\include\xtree

; 1384 :         const _Tree_find_result<_Nodeptr> _Loc = _Find_lower_bound(_Keyval);

  00024	50		 push	 eax
  00025	8d 45 f4	 lea	 eax, DWORD PTR __Loc$1[ebp]
  00028	8b ce		 mov	 ecx, esi
  0002a	50		 push	 eax
  0002b	e8 00 00 00 00	 call	 ??$_Find_lower_bound@E@?$_Tree@V?$_Tmap_traits@EPAU__TAXDETAIL@@U?$less@E@std@@V?$allocator@U?$pair@$$CBEPAU__TAXDETAIL@@@std@@@3@$0A@@std@@@std@@IBE?AU?$_Tree_find_result@PAU?$_Tree_node@U?$pair@$$CBEPAU__TAXDETAIL@@@std@@PAX@std@@@1@ABE@Z ; std::_Tree<std::_Tmap_traits<unsigned char,__TAXDETAIL *,std::less<unsigned char>,std::allocator<std::pair<unsigned char const ,__TAXDETAIL *> >,0> >::_Find_lower_bound<unsigned char>

; 1624 :         return !_Bound->_Isnil && !_DEBUG_LT_PRED(_Getcomp(), _Keyval, _Traits::_Kfn(_Bound->_Myval));

  00030	8b 4d fc	 mov	 ecx, DWORD PTR __Loc$1[ebp+8]
  00033	80 79 0d 00	 cmp	 BYTE PTR [ecx+13], 0
  00037	75 06		 jne	 SHORT $LN7@SetNextTax
; File C:\Program Files\Microsoft Visual Studio\2022\Professional\VC\Tools\MSVC\14.44.35207\include\type_traits

; 2380 :         return _Left < _Right;

  00039	80 79 10 00	 cmp	 BYTE PTR [ecx+16], 0
; File C:\Program Files\Microsoft Visual Studio\2022\Professional\VC\Tools\MSVC\14.44.35207\include\xtree

; 1624 :         return !_Bound->_Isnil && !_DEBUG_LT_PRED(_Getcomp(), _Keyval, _Traits::_Kfn(_Bound->_Myval));

  0003d	76 02		 jbe	 SHORT $LN6@SetNextTax
$LN7@SetNextTax:

; 1389 :         return _Get_scary()->_Myhead;

  0003f	8b 0e		 mov	 ecx, DWORD PTR [esi]
$LN6@SetNextTax:
; File C:\IAGOS\server\v18\Source\Source\_Common\Tax.cpp

; 375  : 	taxInfo->mapTaxDetail.find( TAX_SALES )->second->nNextTaxRate = nSalesTaxRate;

  00041	8b 49 14	 mov	 ecx, DWORD PTR [ecx+20]
  00044	8b 45 0c	 mov	 eax, DWORD PTR _nSalesTaxRate$[ebp]

; 376  : 	taxInfo->mapTaxDetail.find( TAX_PURCHASE )->second->nNextTaxRate = nPurchaseTaxRate;

  00047	c6 45 0b 01	 mov	 BYTE PTR $T4[ebp], 1
  0004b	89 41 10	 mov	 DWORD PTR [ecx+16], eax
; File C:\Program Files\Microsoft Visual Studio\2022\Professional\VC\Tools\MSVC\14.44.35207\include\xtree

; 1384 :         const _Tree_find_result<_Nodeptr> _Loc = _Find_lower_bound(_Keyval);

  0004e	8d 45 0b	 lea	 eax, DWORD PTR $T4[ebp]
  00051	50		 push	 eax
  00052	8d 45 f4	 lea	 eax, DWORD PTR __Loc$2[ebp]
  00055	8b ce		 mov	 ecx, esi
  00057	50		 push	 eax
  00058	e8 00 00 00 00	 call	 ??$_Find_lower_bound@E@?$_Tree@V?$_Tmap_traits@EPAU__TAXDETAIL@@U?$less@E@std@@V?$allocator@U?$pair@$$CBEPAU__TAXDETAIL@@@std@@@3@$0A@@std@@@std@@IBE?AU?$_Tree_find_result@PAU?$_Tree_node@U?$pair@$$CBEPAU__TAXDETAIL@@@std@@PAX@std@@@1@ABE@Z ; std::_Tree<std::_Tmap_traits<unsigned char,__TAXDETAIL *,std::less<unsigned char>,std::allocator<std::pair<unsigned char const ,__TAXDETAIL *> >,0> >::_Find_lower_bound<unsigned char>

; 1624 :         return !_Bound->_Isnil && !_DEBUG_LT_PRED(_Getcomp(), _Keyval, _Traits::_Kfn(_Bound->_Myval));

  0005d	8b 4d fc	 mov	 ecx, DWORD PTR __Loc$2[ebp+8]
  00060	80 79 0d 00	 cmp	 BYTE PTR [ecx+13], 0
  00064	75 06		 jne	 SHORT $LN37@SetNextTax
; File C:\Program Files\Microsoft Visual Studio\2022\Professional\VC\Tools\MSVC\14.44.35207\include\type_traits

; 2380 :         return _Left < _Right;

  00066	80 79 10 01	 cmp	 BYTE PTR [ecx+16], 1
; File C:\Program Files\Microsoft Visual Studio\2022\Professional\VC\Tools\MSVC\14.44.35207\include\xtree

; 1624 :         return !_Bound->_Isnil && !_DEBUG_LT_PRED(_Getcomp(), _Keyval, _Traits::_Kfn(_Bound->_Myval));

  0006a	76 02		 jbe	 SHORT $LN36@SetNextTax
$LN37@SetNextTax:

; 1389 :         return _Get_scary()->_Myhead;

  0006c	8b 0e		 mov	 ecx, DWORD PTR [esi]
$LN36@SetNextTax:
; File C:\IAGOS\server\v18\Source\Source\_Common\Tax.cpp

; 376  : 	taxInfo->mapTaxDetail.find( TAX_PURCHASE )->second->nNextTaxRate = nPurchaseTaxRate;

  0006e	8b 49 14	 mov	 ecx, DWORD PTR [ecx+20]
  00071	8b 45 10	 mov	 eax, DWORD PTR _nPurchaseTaxRate$[ebp]
  00074	5e		 pop	 esi
  00075	89 41 10	 mov	 DWORD PTR [ecx+16], eax
$LN1@SetNextTax:

; 377  : #endif // __DBSERVER
; 378  : }

  00078	8b e5		 mov	 esp, ebp
  0007a	5d		 pop	 ebp
  0007b	c2 0c 00	 ret	 12			; 0000000cH
?SetNextTaxRate@CTax@@QAEXEHH@Z ENDP			; CTax::SetNextTaxRate
_TEXT	ENDS
; Function compile flags: /Ogtp
; File C:\IAGOS\server\v18\Source\Source\_Common\Tax.cpp
; File C:\Program Files\Microsoft Visual Studio\2022\Professional\VC\Tools\MSVC\14.44.35207\include\xtree
; File C:\IAGOS\server\v18\Source\Source\_Common\Tax.cpp
; File C:\Program Files\Microsoft Visual Studio\2022\Professional\VC\Tools\MSVC\14.44.35207\include\xtree
; File C:\IAGOS\server\v18\Source\Source\_Common\Tax.cpp
;	COMDAT ?SetNextLord@CTax@@QAEXK@Z
_TEXT	SEGMENT
_dwIdPlayer$ = 8					; size = 4
?SetNextLord@CTax@@QAEXK@Z PROC				; CTax::SetNextLord, COMDAT
; _this$ = ecx

; 342  : {

  00000	55		 push	 ebp
  00001	8b ec		 mov	 ebp, esp
  00003	56		 push	 esi

; 343  : #ifdef __WORLDSERVER
; 344  : 	g_dpDBClient.SendLord( dwIdPlayer );
; 345  : #endif // __WORLDSERVER
; 346  : 
; 347  : #ifdef __DBSERVER
; 348  : 	__TAXINFO* taxInfo = GetTaxInfo( CONT_ALL );

  00004	68 ff 00 00 00	 push	 255			; 000000ffH
  00009	e8 00 00 00 00	 call	 ?GetTaxInfo@CTax@@QAEPAU__TAXINFO@@E@Z ; CTax::GetTaxInfo
  0000e	8b f0		 mov	 esi, eax

; 349  : 	if( !taxInfo )

  00010	85 f6		 test	 esi, esi
  00012	74 6d		 je	 SHORT $LN3@SetNextLor

; 350  : 		return;
; 351  : 	
; 352  : 	taxInfo->bSetTaxRate = TRUE;
; 353  : 	// ´ŮŔ˝ IDµî·Ď ą× ĽĽŔ˛ ĂĘ±âČ­
; 354  : 	taxInfo->dwNextId = dwIdPlayer;

  00014	8b 4d 08	 mov	 ecx, DWORD PTR _dwIdPlayer$[ebp]
  00017	c7 46 04 01 00
	00 00		 mov	 DWORD PTR [esi+4], 1
  0001e	89 4e 10	 mov	 DWORD PTR [esi+16], ecx
; File C:\Program Files\Microsoft Visual Studio\2022\Professional\VC\Tools\MSVC\14.44.35207\include\xtree

; 1142 :         return iterator(_Scary->_Myhead->_Left, _Scary);

  00021	8b 4e 08	 mov	 ecx, DWORD PTR [esi+8]

; 37   :     _Tree_unchecked_const_iterator(_Nodeptr _Pnode, const _Mytree* _Plist) noexcept : _Ptr(_Pnode) {

  00024	8b 01		 mov	 eax, DWORD PTR [ecx]

; 237  :         return !(*this == _Right);

  00026	3b c1		 cmp	 eax, ecx
; File C:\IAGOS\server\v18\Source\Source\_Common\Tax.cpp

; 355  : 	for( TAXDETAILMAP::iterator it=taxInfo->mapTaxDetail.begin(); it!=taxInfo->mapTaxDetail.end(); it++ )

  00028	74 57		 je	 SHORT $LN3@SetNextLor
  0002a	66 0f 1f 44 00
	00		 npad	 6
$LL4@SetNextLor:

; 356  : 		it->second->nNextTaxRate = 0; // ±şÁÖ´Â ĽĽŔ˛ŔĚ ą«ŔÇąĚ ÇĎÁö¸¸ ĂĘ±âČ­...

  00030	8b 48 14	 mov	 ecx, DWORD PTR [eax+20]
  00033	c7 41 10 00 00
	00 00		 mov	 DWORD PTR [ecx+16], 0
; File C:\Program Files\Microsoft Visual Studio\2022\Professional\VC\Tools\MSVC\14.44.35207\include\xtree

; 50   :         if (_Ptr->_Right->_Isnil) { // climb looking for right subtree

  0003a	8b 48 08	 mov	 ecx, DWORD PTR [eax+8]
  0003d	80 79 0d 00	 cmp	 BYTE PTR [ecx+13], 0
  00041	74 21		 je	 SHORT $LN28@SetNextLor

; 51   :             _Nodeptr _Pnode;
; 52   :             while (!(_Pnode = _Ptr->_Parent)->_Isnil && _Ptr == _Pnode->_Right) {

  00043	8b 48 04	 mov	 ecx, DWORD PTR [eax+4]
  00046	80 79 0d 00	 cmp	 BYTE PTR [ecx+13], 0
  0004a	75 14		 jne	 SHORT $LN76@SetNextLor
  0004c	0f 1f 40 00	 npad	 4
$LL26@SetNextLor:
  00050	3b 41 08	 cmp	 eax, DWORD PTR [ecx+8]
  00053	75 0b		 jne	 SHORT $LN76@SetNextLor

; 53   :                 _Ptr = _Pnode; // ==> parent while right subtree

  00055	8b c1		 mov	 eax, ecx
  00057	8b 49 04	 mov	 ecx, DWORD PTR [ecx+4]
  0005a	80 79 0d 00	 cmp	 BYTE PTR [ecx+13], 0
  0005e	74 f0		 je	 SHORT $LL26@SetNextLor
$LN76@SetNextLor:

; 54   :             }
; 55   : 
; 56   :             _Ptr = _Pnode; // ==> parent (head if end())

  00060	8b c1		 mov	 eax, ecx

; 57   :         } else {

  00062	eb 18		 jmp	 SHORT $LN34@SetNextLor
$LN28@SetNextLor:

; 58   :             _Ptr = _Mytree::_Min(_Ptr->_Right); // ==> smallest of right subtree

  00064	8b c1		 mov	 eax, ecx

; 476  :         while (!_Pnode->_Left->_Isnil) {

  00066	8b 10		 mov	 edx, DWORD PTR [eax]
  00068	80 7a 0d 00	 cmp	 BYTE PTR [edx+13], 0
  0006c	75 0e		 jne	 SHORT $LN34@SetNextLor
  0006e	66 90		 npad	 2
$LL33@SetNextLor:
  00070	8b 0a		 mov	 ecx, DWORD PTR [edx]

; 477  :             _Pnode = _Pnode->_Left;

  00072	8b c2		 mov	 eax, edx
  00074	8b d1		 mov	 edx, ecx
  00076	80 79 0d 00	 cmp	 BYTE PTR [ecx+13], 0
  0007a	74 f4		 je	 SHORT $LL33@SetNextLor
$LN34@SetNextLor:

; 237  :         return !(*this == _Right);

  0007c	3b 46 08	 cmp	 eax, DWORD PTR [esi+8]
; File C:\IAGOS\server\v18\Source\Source\_Common\Tax.cpp

; 355  : 	for( TAXDETAILMAP::iterator it=taxInfo->mapTaxDetail.begin(); it!=taxInfo->mapTaxDetail.end(); it++ )

  0007f	75 af		 jne	 SHORT $LL4@SetNextLor
$LN3@SetNextLor:
  00081	5e		 pop	 esi

; 357  : #endif // __DBSERVER
; 358  : }

  00082	5d		 pop	 ebp
  00083	c2 04 00	 ret	 4
?SetNextLord@CTax@@QAEXK@Z ENDP				; CTax::SetNextLord
_TEXT	ENDS
; Function compile flags: /Ogtp
; File C:\IAGOS\server\v18\Source\Source\_Common\Tax.cpp
; File C:\Program Files\Microsoft Visual Studio\2022\Professional\VC\Tools\MSVC\14.44.35207\include\xtree
; File C:\IAGOS\server\v18\Source\Source\_Common\Tax.cpp
; File C:\Program Files\Microsoft Visual Studio\2022\Professional\VC\Tools\MSVC\14.44.35207\include\xtree
; File C:\IAGOS\server\v18\Source\Source\_Common\Tax.cpp
;	COMDAT ?SetNextSecretRoomGuild@CTax@@QAEXEK@Z
_TEXT	SEGMENT
_nCont$ = 8						; size = 1
_dwGuildId$ = 12					; size = 4
?SetNextSecretRoomGuild@CTax@@QAEXEK@Z PROC		; CTax::SetNextSecretRoomGuild, COMDAT
; _this$ = ecx

; 320  : {

  00000	55		 push	 ebp
  00001	8b ec		 mov	 ebp, esp
  00003	56		 push	 esi

; 321  : #ifdef __WORLDSERVER
; 322  : 	g_dpDBClient.SendSecretRoomWinGuild( nCont, dwGuildId );
; 323  : #endif // __WORLDSERVER
; 324  : 
; 325  : #ifdef __DBSERVER
; 326  : 	__TAXINFO* taxInfo = GetTaxInfo( nCont );

  00004	ff 75 08	 push	 DWORD PTR _nCont$[ebp]
  00007	e8 00 00 00 00	 call	 ?GetTaxInfo@CTax@@QAEPAU__TAXINFO@@E@Z ; CTax::GetTaxInfo
  0000c	8b f0		 mov	 esi, eax

; 327  : 	if( !taxInfo )

  0000e	85 f6		 test	 esi, esi
  00010	74 6f		 je	 SHORT $LN3@SetNextSec

; 328  : 		return;
; 329  : 
; 330  : 	if( dwGuildId == NULL_ID )	// Áˇ·É±ćµĺ°ˇ ľř´Â °ćżě ĽĽŔ˛Ŕ» ĽłÁ¤ÇŃ °ÍŔ¸·Î ÇŃ´Ů.
; 331  : 		taxInfo->bSetTaxRate = TRUE;
; 332  : 	else
; 333  : 		taxInfo->bSetTaxRate = FALSE;
; 334  : 	// ´ŮŔ˝ IDµî·Ď ą× ĽĽŔ˛ ĂĘ±âČ­
; 335  : 	taxInfo->dwNextId = dwGuildId;

  00012	8b 55 0c	 mov	 edx, DWORD PTR _dwGuildId$[ebp]
  00015	33 c9		 xor	 ecx, ecx
  00017	83 fa ff	 cmp	 edx, -1
  0001a	0f 94 c1	 sete	 cl
  0001d	89 4e 04	 mov	 DWORD PTR [esi+4], ecx
  00020	89 56 10	 mov	 DWORD PTR [esi+16], edx
; File C:\Program Files\Microsoft Visual Studio\2022\Professional\VC\Tools\MSVC\14.44.35207\include\xtree

; 1142 :         return iterator(_Scary->_Myhead->_Left, _Scary);

  00023	8b 4e 08	 mov	 ecx, DWORD PTR [esi+8]

; 37   :     _Tree_unchecked_const_iterator(_Nodeptr _Pnode, const _Mytree* _Plist) noexcept : _Ptr(_Pnode) {

  00026	8b 01		 mov	 eax, DWORD PTR [ecx]

; 237  :         return !(*this == _Right);

  00028	3b c1		 cmp	 eax, ecx
; File C:\IAGOS\server\v18\Source\Source\_Common\Tax.cpp

; 336  : 	for( TAXDETAILMAP::iterator it=taxInfo->mapTaxDetail.begin(); it!=taxInfo->mapTaxDetail.end(); it++ )

  0002a	74 55		 je	 SHORT $LN3@SetNextSec
  0002c	0f 1f 40 00	 npad	 4
$LL4@SetNextSec:

; 337  : 		it->second->nNextTaxRate = 0;

  00030	8b 48 14	 mov	 ecx, DWORD PTR [eax+20]
  00033	c7 41 10 00 00
	00 00		 mov	 DWORD PTR [ecx+16], 0
; File C:\Program Files\Microsoft Visual Studio\2022\Professional\VC\Tools\MSVC\14.44.35207\include\xtree

; 50   :         if (_Ptr->_Right->_Isnil) { // climb looking for right subtree

  0003a	8b 48 08	 mov	 ecx, DWORD PTR [eax+8]
  0003d	80 79 0d 00	 cmp	 BYTE PTR [ecx+13], 0
  00041	74 21		 je	 SHORT $LN30@SetNextSec

; 51   :             _Nodeptr _Pnode;
; 52   :             while (!(_Pnode = _Ptr->_Parent)->_Isnil && _Ptr == _Pnode->_Right) {

  00043	8b 48 04	 mov	 ecx, DWORD PTR [eax+4]
  00046	80 79 0d 00	 cmp	 BYTE PTR [ecx+13], 0
  0004a	75 14		 jne	 SHORT $LN78@SetNextSec
  0004c	0f 1f 40 00	 npad	 4
$LL28@SetNextSec:
  00050	3b 41 08	 cmp	 eax, DWORD PTR [ecx+8]
  00053	75 0b		 jne	 SHORT $LN78@SetNextSec

; 53   :                 _Ptr = _Pnode; // ==> parent while right subtree

  00055	8b c1		 mov	 eax, ecx
  00057	8b 49 04	 mov	 ecx, DWORD PTR [ecx+4]
  0005a	80 79 0d 00	 cmp	 BYTE PTR [ecx+13], 0
  0005e	74 f0		 je	 SHORT $LL28@SetNextSec
$LN78@SetNextSec:

; 54   :             }
; 55   : 
; 56   :             _Ptr = _Pnode; // ==> parent (head if end())

  00060	8b c1		 mov	 eax, ecx

; 57   :         } else {

  00062	eb 18		 jmp	 SHORT $LN36@SetNextSec
$LN30@SetNextSec:

; 58   :             _Ptr = _Mytree::_Min(_Ptr->_Right); // ==> smallest of right subtree

  00064	8b c1		 mov	 eax, ecx

; 476  :         while (!_Pnode->_Left->_Isnil) {

  00066	8b 10		 mov	 edx, DWORD PTR [eax]
  00068	80 7a 0d 00	 cmp	 BYTE PTR [edx+13], 0
  0006c	75 0e		 jne	 SHORT $LN36@SetNextSec
  0006e	66 90		 npad	 2
$LL35@SetNextSec:
  00070	8b 0a		 mov	 ecx, DWORD PTR [edx]

; 477  :             _Pnode = _Pnode->_Left;

  00072	8b c2		 mov	 eax, edx
  00074	8b d1		 mov	 edx, ecx
  00076	80 79 0d 00	 cmp	 BYTE PTR [ecx+13], 0
  0007a	74 f4		 je	 SHORT $LL35@SetNextSec
$LN36@SetNextSec:

; 237  :         return !(*this == _Right);

  0007c	3b 46 08	 cmp	 eax, DWORD PTR [esi+8]
; File C:\IAGOS\server\v18\Source\Source\_Common\Tax.cpp

; 336  : 	for( TAXDETAILMAP::iterator it=taxInfo->mapTaxDetail.begin(); it!=taxInfo->mapTaxDetail.end(); it++ )

  0007f	75 af		 jne	 SHORT $LL4@SetNextSec
$LN3@SetNextSec:
  00081	5e		 pop	 esi

; 338  : #endif // __DBSERVER
; 339  : }

  00082	5d		 pop	 ebp
  00083	c2 08 00	 ret	 8
?SetNextSecretRoomGuild@CTax@@QAEXEK@Z ENDP		; CTax::SetNextSecretRoomGuild
_TEXT	ENDS
; Function compile flags: /Ogtp
; File C:\IAGOS\server\v18\Source\Source\_Common\Tax.cpp
; File C:\Program Files\Microsoft Visual Studio\2022\Professional\VC\Tools\MSVC\14.44.35207\include\xtree
; File C:\Program Files\Microsoft Visual Studio\2022\Professional\VC\Tools\MSVC\14.44.35207\include\type_traits
; File C:\Program Files\Microsoft Visual Studio\2022\Professional\VC\Tools\MSVC\14.44.35207\include\xtree
; File C:\IAGOS\server\v18\Source\Source\_Common\Tax.cpp
; File C:\Program Files\Microsoft Visual Studio\2022\Professional\VC\Tools\MSVC\14.44.35207\include\xtree
; File C:\Program Files\Microsoft Visual Studio\2022\Professional\VC\Tools\MSVC\14.44.35207\include\type_traits
; File C:\Program Files\Microsoft Visual Studio\2022\Professional\VC\Tools\MSVC\14.44.35207\include\xtree
; File C:\IAGOS\server\v18\Source\Source\_Common\Tax.cpp
;	COMDAT ?GetTaxInfo@CTax@@QAEPAU__TAXINFO@@E@Z
_TEXT	SEGMENT
__Loc$1 = -12						; size = 12
__Loc$2 = -12						; size = 12
_nContinent$ = 8					; size = 1
?GetTaxInfo@CTax@@QAEPAU__TAXINFO@@E@Z PROC		; CTax::GetTaxInfo, COMDAT
; _this$ = ecx

; 84   : {

  00000	55		 push	 ebp
  00001	8b ec		 mov	 ebp, esp
  00003	83 ec 0c	 sub	 esp, 12			; 0000000cH
  00006	53		 push	 ebx
  00007	57		 push	 edi
; File C:\Program Files\Microsoft Visual Studio\2022\Professional\VC\Tools\MSVC\14.44.35207\include\xtree

; 1384 :         const _Tree_find_result<_Nodeptr> _Loc = _Find_lower_bound(_Keyval);

  00008	8d 45 08	 lea	 eax, DWORD PTR _nContinent$[ebp]
  0000b	50		 push	 eax

; 1152 :         return iterator(_Scary->_Myhead, _Scary);

  0000c	8d 79 08	 lea	 edi, DWORD PTR [ecx+8]

; 1384 :         const _Tree_find_result<_Nodeptr> _Loc = _Find_lower_bound(_Keyval);

  0000f	8d 45 f4	 lea	 eax, DWORD PTR __Loc$1[ebp]
  00012	8b cf		 mov	 ecx, edi
  00014	50		 push	 eax
  00015	e8 00 00 00 00	 call	 ??$_Find_lower_bound@E@?$_Tree@V?$_Tmap_traits@EPAU__TAXINFO@@U?$less@E@std@@V?$allocator@U?$pair@$$CBEPAU__TAXINFO@@@std@@@3@$0A@@std@@@std@@IBE?AU?$_Tree_find_result@PAU?$_Tree_node@U?$pair@$$CBEPAU__TAXINFO@@@std@@PAX@std@@@1@ABE@Z ; std::_Tree<std::_Tmap_traits<unsigned char,__TAXINFO *,std::less<unsigned char>,std::allocator<std::pair<unsigned char const ,__TAXINFO *> >,0> >::_Find_lower_bound<unsigned char>

; 1624 :         return !_Bound->_Isnil && !_DEBUG_LT_PRED(_Getcomp(), _Keyval, _Traits::_Kfn(_Bound->_Myval));

  0001a	8b 45 fc	 mov	 eax, DWORD PTR __Loc$1[ebp+8]
  0001d	8a 5d 08	 mov	 bl, BYTE PTR _nContinent$[ebp]
  00020	80 78 0d 00	 cmp	 BYTE PTR [eax+13], 0
  00024	75 33		 jne	 SHORT $LN2@GetTaxInfo
; File C:\Program Files\Microsoft Visual Studio\2022\Professional\VC\Tools\MSVC\14.44.35207\include\type_traits

; 2380 :         return _Left < _Right;

  00026	3a 58 10	 cmp	 bl, BYTE PTR [eax+16]
; File C:\Program Files\Microsoft Visual Studio\2022\Professional\VC\Tools\MSVC\14.44.35207\include\xtree

; 1624 :         return !_Bound->_Isnil && !_DEBUG_LT_PRED(_Getcomp(), _Keyval, _Traits::_Kfn(_Bound->_Myval));

  00029	72 2e		 jb	 SHORT $LN2@GetTaxInfo

; 232  :         return this->_Ptr == _Right._Ptr;

  0002b	3b 07		 cmp	 eax, DWORD PTR [edi]
; File C:\IAGOS\server\v18\Source\Source\_Common\Tax.cpp

; 85   : 	if( m_mapTaxInfo.find( nContinent ) != m_mapTaxInfo.end() )

  0002d	74 2a		 je	 SHORT $LN2@GetTaxInfo
; File C:\Program Files\Microsoft Visual Studio\2022\Professional\VC\Tools\MSVC\14.44.35207\include\xtree

; 1384 :         const _Tree_find_result<_Nodeptr> _Loc = _Find_lower_bound(_Keyval);

  0002f	8d 45 08	 lea	 eax, DWORD PTR _nContinent$[ebp]
  00032	8b cf		 mov	 ecx, edi
  00034	50		 push	 eax
  00035	8d 45 f4	 lea	 eax, DWORD PTR __Loc$2[ebp]
  00038	50		 push	 eax
  00039	e8 00 00 00 00	 call	 ??$_Find_lower_bound@E@?$_Tree@V?$_Tmap_traits@EPAU__TAXINFO@@U?$less@E@std@@V?$allocator@U?$pair@$$CBEPAU__TAXINFO@@@std@@@3@$0A@@std@@@std@@IBE?AU?$_Tree_find_result@PAU?$_Tree_node@U?$pair@$$CBEPAU__TAXINFO@@@std@@PAX@std@@@1@ABE@Z ; std::_Tree<std::_Tmap_traits<unsigned char,__TAXINFO *,std::less<unsigned char>,std::allocator<std::pair<unsigned char const ,__TAXINFO *> >,0> >::_Find_lower_bound<unsigned char>

; 1624 :         return !_Bound->_Isnil && !_DEBUG_LT_PRED(_Getcomp(), _Keyval, _Traits::_Kfn(_Bound->_Myval));

  0003e	8b 45 fc	 mov	 eax, DWORD PTR __Loc$2[ebp+8]
  00041	80 78 0d 00	 cmp	 BYTE PTR [eax+13], 0
  00045	75 05		 jne	 SHORT $LN47@GetTaxInfo
; File C:\Program Files\Microsoft Visual Studio\2022\Professional\VC\Tools\MSVC\14.44.35207\include\type_traits

; 2380 :         return _Left < _Right;

  00047	3a 58 10	 cmp	 bl, BYTE PTR [eax+16]
; File C:\Program Files\Microsoft Visual Studio\2022\Professional\VC\Tools\MSVC\14.44.35207\include\xtree

; 1624 :         return !_Bound->_Isnil && !_DEBUG_LT_PRED(_Getcomp(), _Keyval, _Traits::_Kfn(_Bound->_Myval));

  0004a	73 02		 jae	 SHORT $LN46@GetTaxInfo
$LN47@GetTaxInfo:

; 1389 :         return _Get_scary()->_Myhead;

  0004c	8b 07		 mov	 eax, DWORD PTR [edi]
$LN46@GetTaxInfo:
; File C:\IAGOS\server\v18\Source\Source\_Common\Tax.cpp

; 86   : 		return m_mapTaxInfo.find( nContinent )->second;

  0004e	8b 40 14	 mov	 eax, DWORD PTR [eax+20]
  00051	5f		 pop	 edi

; 93   : }

  00052	5b		 pop	 ebx
  00053	8b e5		 mov	 esp, ebp
  00055	5d		 pop	 ebp
  00056	c2 04 00	 ret	 4
$LN2@GetTaxInfo:

; 87   : #ifndef __CLIENT
; 88   : 	else
; 89   : 		Error( "CTax::GetTaxInfo() - Ŕß¸řµČ ´ë·úÁ¤ş¸ %x", nContinent );

  00059	0f b6 c3	 movzx	 eax, bl
  0005c	50		 push	 eax
  0005d	68 00 00 00 00	 push	 OFFSET ??_C@_0CI@EGGDFMCC@CTax?3?3GetTaxInfo?$CI?$CJ?5?9?5?$MA?$NP?$LI?x?$LF?H?5?$LE?k?$LH@
  00062	e8 00 00 00 00	 call	 ?Error@@YAPBDPBDZZ	; Error
  00067	83 c4 08	 add	 esp, 8

; 90   : #endif // __CLIENT
; 91   : 
; 92   : 	return NULL;

  0006a	33 c0		 xor	 eax, eax
  0006c	5f		 pop	 edi

; 93   : }

  0006d	5b		 pop	 ebx
  0006e	8b e5		 mov	 esp, ebp
  00070	5d		 pop	 ebp
  00071	c2 04 00	 ret	 4
?GetTaxInfo@CTax@@QAEPAU__TAXINFO@@E@Z ENDP		; CTax::GetTaxInfo
_TEXT	ENDS
; Function compile flags: /Ogtp
;	COMDAT ??1?$map@EPAU__TAXINFO@@U?$less@E@std@@V?$allocator@U?$pair@$$CBEPAU__TAXINFO@@@std@@@3@@std@@QAE@XZ
_TEXT	SEGMENT
??1?$map@EPAU__TAXINFO@@U?$less@E@std@@V?$allocator@U?$pair@$$CBEPAU__TAXINFO@@@std@@@3@@std@@QAE@XZ PROC ; std::map<unsigned char,__TAXINFO *,std::less<unsigned char>,std::allocator<std::pair<unsigned char const ,__TAXINFO *> > >::~map<unsigned char,__TAXINFO *,std::less<unsigned char>,std::allocator<std::pair<unsigned char const ,__TAXINFO *> > >, COMDAT
; _this$ = ecx
  00000	e9 00 00 00 00	 jmp	 ??1?$_Tree@V?$_Tmap_traits@EPAU__TAXINFO@@U?$less@E@std@@V?$allocator@U?$pair@$$CBEPAU__TAXINFO@@@std@@@3@$0A@@std@@@std@@QAE@XZ ; std::_Tree<std::_Tmap_traits<unsigned char,__TAXINFO *,std::less<unsigned char>,std::allocator<std::pair<unsigned char const ,__TAXINFO *> >,0> >::~_Tree<std::_Tmap_traits<unsigned char,__TAXINFO *,std::less<unsigned char>,std::allocator<std::pair<unsigned char const ,__TAXINFO *> >,0> >
??1?$map@EPAU__TAXINFO@@U?$less@E@std@@V?$allocator@U?$pair@$$CBEPAU__TAXINFO@@@std@@@3@@std@@QAE@XZ ENDP ; std::map<unsigned char,__TAXINFO *,std::less<unsigned char>,std::allocator<std::pair<unsigned char const ,__TAXINFO *> > >::~map<unsigned char,__TAXINFO *,std::less<unsigned char>,std::allocator<std::pair<unsigned char const ,__TAXINFO *> > >
_TEXT	ENDS
; Function compile flags: /Ogtp
; File C:\Program Files\Microsoft Visual Studio\2022\Professional\VC\Tools\MSVC\14.44.35207\include\xtree
;	COMDAT ?_Insert_node@?$_Tree_val@U?$_Tree_simple_types@U?$pair@$$CBEPAU__TAXINFO@@@std@@@std@@@std@@QAEPAU?$_Tree_node@U?$pair@$$CBEPAU__TAXINFO@@@std@@PAX@2@U?$_Tree_id@PAU?$_Tree_node@U?$pair@$$CBEPAU__TAXINFO@@@std@@PAX@std@@@2@QAU32@@Z
_TEXT	SEGMENT
__Head$1$ = -4						; size = 4
__Loc$ = 8						; size = 8
__Newnode$ = 16						; size = 4
?_Insert_node@?$_Tree_val@U?$_Tree_simple_types@U?$pair@$$CBEPAU__TAXINFO@@@std@@@std@@@std@@QAEPAU?$_Tree_node@U?$pair@$$CBEPAU__TAXINFO@@@std@@PAX@2@U?$_Tree_id@PAU?$_Tree_node@U?$pair@$$CBEPAU__TAXINFO@@@std@@PAX@std@@@2@QAU32@@Z PROC ; std::_Tree_val<std::_Tree_simple_types<std::pair<unsigned char const ,__TAXINFO *> > >::_Insert_node, COMDAT
; _this$ = ecx

; 669  :     _Nodeptr _Insert_node(const _Tree_id<_Nodeptr> _Loc, const _Nodeptr _Newnode) noexcept {

  00000	55		 push	 ebp
  00001	8b ec		 mov	 ebp, esp
  00003	51		 push	 ecx

; 670  :         ++_Mysize;
; 671  :         const auto _Head  = _Myhead;
; 672  :         _Newnode->_Parent = _Loc._Parent;

  00004	8b 55 08	 mov	 edx, DWORD PTR __Loc$[ebp]
  00007	53		 push	 ebx
  00008	8b d9		 mov	 ebx, ecx
  0000a	57		 push	 edi
  0000b	8b 7d 10	 mov	 edi, DWORD PTR __Newnode$[ebp]
  0000e	8b 03		 mov	 eax, DWORD PTR [ebx]
  00010	ff 43 04	 inc	 DWORD PTR [ebx+4]
  00013	89 45 fc	 mov	 DWORD PTR __Head$1$[ebp], eax
  00016	89 57 04	 mov	 DWORD PTR [edi+4], edx

; 673  :         if (_Loc._Parent == _Head) { // first node in tree, just set head values

  00019	3b d0		 cmp	 edx, eax
  0001b	75 16		 jne	 SHORT $LN5@Insert_nod

; 674  :             _Head->_Left     = _Newnode;

  0001d	89 38		 mov	 DWORD PTR [eax], edi

; 675  :             _Head->_Parent   = _Newnode;

  0001f	89 78 04	 mov	 DWORD PTR [eax+4], edi

; 676  :             _Head->_Right    = _Newnode;

  00022	89 78 08	 mov	 DWORD PTR [eax+8], edi

; 735  :         return _Newnode;
; 736  :     }

  00025	8b c7		 mov	 eax, edi
  00027	c6 47 0c 01	 mov	 BYTE PTR [edi+12], 1
  0002b	5f		 pop	 edi
  0002c	5b		 pop	 ebx
  0002d	8b e5		 mov	 esp, ebp
  0002f	5d		 pop	 ebp
  00030	c2 0c 00	 ret	 12			; 0000000cH
$LN5@Insert_nod:

; 677  :             _Newnode->_Color = _Black; // the root is black
; 678  :             return _Newnode;
; 679  :         }
; 680  : 
; 681  :         _STL_INTERNAL_CHECK(_Loc._Child != _Tree_child::_Unused);
; 682  :         if (_Loc._Child == _Tree_child::_Right) { // add to right of _Loc._Parent

  00033	83 7d 0c 00	 cmp	 DWORD PTR __Loc$[ebp+4], 0
  00037	75 0d		 jne	 SHORT $LN6@Insert_nod

; 683  :             _STL_INTERNAL_CHECK(_Loc._Parent->_Right->_Isnil);
; 684  :             _Loc._Parent->_Right = _Newnode;

  00039	89 7a 08	 mov	 DWORD PTR [edx+8], edi

; 685  :             if (_Loc._Parent == _Head->_Right) { // remember rightmost node

  0003c	3b 50 08	 cmp	 edx, DWORD PTR [eax+8]
  0003f	75 0d		 jne	 SHORT $LN9@Insert_nod

; 686  :                 _Head->_Right = _Newnode;

  00041	89 78 08	 mov	 DWORD PTR [eax+8], edi

; 687  :             }
; 688  :         } else { // add to left of _Loc._Parent

  00044	eb 08		 jmp	 SHORT $LN9@Insert_nod
$LN6@Insert_nod:

; 689  :             _STL_INTERNAL_CHECK(_Loc._Parent->_Left->_Isnil);
; 690  :             _Loc._Parent->_Left = _Newnode;

  00046	89 3a		 mov	 DWORD PTR [edx], edi

; 691  :             if (_Loc._Parent == _Head->_Left) { // remember leftmost node

  00048	3b 10		 cmp	 edx, DWORD PTR [eax]
  0004a	75 02		 jne	 SHORT $LN9@Insert_nod

; 692  :                 _Head->_Left = _Newnode;

  0004c	89 38		 mov	 DWORD PTR [eax], edi
$LN9@Insert_nod:

; 693  :             }
; 694  :         }
; 695  : 
; 696  :         for (_Nodeptr _Pnode = _Newnode; _Pnode->_Parent->_Color == _Red;) {

  0004e	8b 4f 04	 mov	 ecx, DWORD PTR [edi+4]
  00051	8b c7		 mov	 eax, edi
  00053	80 79 0c 00	 cmp	 BYTE PTR [ecx+12], 0
  00057	0f 85 7d 01 00
	00		 jne	 $LN3@Insert_nod
  0005d	56		 push	 esi
  0005e	66 90		 npad	 2
$LL4@Insert_nod:

; 697  :             if (_Pnode->_Parent == _Pnode->_Parent->_Parent->_Left) { // fixup red-red in left subtree

  00060	8b 50 04	 mov	 edx, DWORD PTR [eax+4]
  00063	8b 72 04	 mov	 esi, DWORD PTR [edx+4]
  00066	8b 0e		 mov	 ecx, DWORD PTR [esi]
  00068	3b d1		 cmp	 edx, ecx
  0006a	0f 85 aa 00 00
	00		 jne	 $LN10@Insert_nod

; 698  :                 const auto _Parent_sibling = _Pnode->_Parent->_Parent->_Right;

  00070	8b 4e 08	 mov	 ecx, DWORD PTR [esi+8]

; 699  :                 if (_Parent_sibling->_Color == _Red) { // parent's sibling has two red children, blacken both

  00073	80 79 0c 00	 cmp	 BYTE PTR [ecx+12], 0
  00077	0f 84 a3 00 00
	00		 je	 $LN82@Insert_nod

; 700  :                     _Pnode->_Parent->_Color          = _Black;
; 701  :                     _Parent_sibling->_Color          = _Black;
; 702  :                     _Pnode->_Parent->_Parent->_Color = _Red;
; 703  :                     _Pnode                           = _Pnode->_Parent->_Parent;
; 704  :                 } else { // parent's sibling has red and black children
; 705  :                     if (_Pnode == _Pnode->_Parent->_Right) { // rotate right child to left

  0007d	8b 72 08	 mov	 esi, DWORD PTR [edx+8]
  00080	3b c6		 cmp	 eax, esi
  00082	75 37		 jne	 SHORT $LN57@Insert_nod

; 485  :         _Wherenode->_Right = _Pnode->_Left;

  00084	8b 0e		 mov	 ecx, DWORD PTR [esi]

; 706  :                         _Pnode = _Pnode->_Parent;

  00086	8b c2		 mov	 eax, edx

; 485  :         _Wherenode->_Right = _Pnode->_Left;

  00088	89 4a 08	 mov	 DWORD PTR [edx+8], ecx

; 486  : 
; 487  :         if (!_Pnode->_Left->_Isnil) {

  0008b	8b 0e		 mov	 ecx, DWORD PTR [esi]
  0008d	80 79 0d 00	 cmp	 BYTE PTR [ecx+13], 0
  00091	75 03		 jne	 SHORT $LN21@Insert_nod

; 488  :             _Pnode->_Left->_Parent = _Wherenode;

  00093	89 41 04	 mov	 DWORD PTR [ecx+4], eax
$LN21@Insert_nod:

; 489  :         }
; 490  : 
; 491  :         _Pnode->_Parent = _Wherenode->_Parent;

  00096	8b 4a 04	 mov	 ecx, DWORD PTR [edx+4]
  00099	89 4e 04	 mov	 DWORD PTR [esi+4], ecx

; 492  : 
; 493  :         if (_Wherenode == _Myhead->_Parent) {

  0009c	8b 0b		 mov	 ecx, DWORD PTR [ebx]
  0009e	3b 41 04	 cmp	 eax, DWORD PTR [ecx+4]
  000a1	75 05		 jne	 SHORT $LN22@Insert_nod

; 494  :             _Myhead->_Parent = _Pnode;

  000a3	89 71 04	 mov	 DWORD PTR [ecx+4], esi
  000a6	eb 0e		 jmp	 SHORT $LN25@Insert_nod
$LN22@Insert_nod:

; 495  :         } else if (_Wherenode == _Wherenode->_Parent->_Left) {

  000a8	8b 4a 04	 mov	 ecx, DWORD PTR [edx+4]
  000ab	3b 01		 cmp	 eax, DWORD PTR [ecx]
  000ad	75 04		 jne	 SHORT $LN24@Insert_nod

; 496  :             _Wherenode->_Parent->_Left = _Pnode;

  000af	89 31		 mov	 DWORD PTR [ecx], esi

; 497  :         } else {

  000b1	eb 03		 jmp	 SHORT $LN25@Insert_nod
$LN24@Insert_nod:

; 498  :             _Wherenode->_Parent->_Right = _Pnode;

  000b3	89 71 08	 mov	 DWORD PTR [ecx+8], esi
$LN25@Insert_nod:

; 499  :         }
; 500  : 
; 501  :         _Pnode->_Left       = _Wherenode;

  000b6	89 06		 mov	 DWORD PTR [esi], eax

; 502  :         _Wherenode->_Parent = _Pnode;

  000b8	89 70 04	 mov	 DWORD PTR [eax+4], esi
$LN57@Insert_nod:

; 707  :                         _Lrotate(_Pnode);
; 708  :                     }
; 709  : 
; 710  :                     _Pnode->_Parent->_Color          = _Black; // propagate red up

  000bb	8b 48 04	 mov	 ecx, DWORD PTR [eax+4]
  000be	c6 41 0c 01	 mov	 BYTE PTR [ecx+12], 1

; 711  :                     _Pnode->_Parent->_Parent->_Color = _Red;

  000c2	8b 48 04	 mov	 ecx, DWORD PTR [eax+4]
  000c5	8b 49 04	 mov	 ecx, DWORD PTR [ecx+4]
  000c8	c6 41 0c 00	 mov	 BYTE PTR [ecx+12], 0

; 712  :                     _Rrotate(_Pnode->_Parent->_Parent);

  000cc	8b 48 04	 mov	 ecx, DWORD PTR [eax+4]
  000cf	8b 51 04	 mov	 edx, DWORD PTR [ecx+4]

; 506  :         _Nodeptr _Pnode   = _Wherenode->_Left;

  000d2	8b 32		 mov	 esi, DWORD PTR [edx]

; 507  :         _Wherenode->_Left = _Pnode->_Right;

  000d4	8b 4e 08	 mov	 ecx, DWORD PTR [esi+8]
  000d7	89 0a		 mov	 DWORD PTR [edx], ecx

; 508  : 
; 509  :         if (!_Pnode->_Right->_Isnil) {

  000d9	8b 4e 08	 mov	 ecx, DWORD PTR [esi+8]
  000dc	80 79 0d 00	 cmp	 BYTE PTR [ecx+13], 0
  000e0	75 03		 jne	 SHORT $LN29@Insert_nod

; 510  :             _Pnode->_Right->_Parent = _Wherenode;

  000e2	89 51 04	 mov	 DWORD PTR [ecx+4], edx
$LN29@Insert_nod:

; 511  :         }
; 512  : 
; 513  :         _Pnode->_Parent = _Wherenode->_Parent;

  000e5	8b 4a 04	 mov	 ecx, DWORD PTR [edx+4]
  000e8	89 4e 04	 mov	 DWORD PTR [esi+4], ecx

; 514  : 
; 515  :         if (_Wherenode == _Myhead->_Parent) {

  000eb	8b 0b		 mov	 ecx, DWORD PTR [ebx]
  000ed	3b 51 04	 cmp	 edx, DWORD PTR [ecx+4]
  000f0	75 0b		 jne	 SHORT $LN30@Insert_nod

; 516  :             _Myhead->_Parent = _Pnode;

  000f2	89 71 04	 mov	 DWORD PTR [ecx+4], esi

; 521  :         }
; 522  : 
; 523  :         _Pnode->_Right      = _Wherenode;

  000f5	89 56 08	 mov	 DWORD PTR [esi+8], edx

; 713  :                 }
; 714  :             } else { // fixup red-red in right subtree

  000f8	e9 cc 00 00 00	 jmp	 $LN81@Insert_nod
$LN30@Insert_nod:

; 517  :         } else if (_Wherenode == _Wherenode->_Parent->_Right) {

  000fd	8b 4a 04	 mov	 ecx, DWORD PTR [edx+4]
  00100	3b 51 08	 cmp	 edx, DWORD PTR [ecx+8]
  00103	75 0b		 jne	 SHORT $LN32@Insert_nod

; 518  :             _Wherenode->_Parent->_Right = _Pnode;

  00105	89 71 08	 mov	 DWORD PTR [ecx+8], esi

; 521  :         }
; 522  : 
; 523  :         _Pnode->_Right      = _Wherenode;

  00108	89 56 08	 mov	 DWORD PTR [esi+8], edx

; 713  :                 }
; 714  :             } else { // fixup red-red in right subtree

  0010b	e9 b9 00 00 00	 jmp	 $LN81@Insert_nod
$LN32@Insert_nod:

; 520  :             _Wherenode->_Parent->_Left = _Pnode;

  00110	89 31		 mov	 DWORD PTR [ecx], esi

; 521  :         }
; 522  : 
; 523  :         _Pnode->_Right      = _Wherenode;

  00112	89 56 08	 mov	 DWORD PTR [esi+8], edx

; 713  :                 }
; 714  :             } else { // fixup red-red in right subtree

  00115	e9 af 00 00 00	 jmp	 $LN81@Insert_nod
$LN10@Insert_nod:

; 715  :                 const auto _Parent_sibling = _Pnode->_Parent->_Parent->_Left;
; 716  :                 if (_Parent_sibling->_Color == _Red) { // parent's sibling has two red children, blacken both

  0011a	80 79 0c 00	 cmp	 BYTE PTR [ecx+12], 0
  0011e	75 1d		 jne	 SHORT $LN15@Insert_nod
$LN82@Insert_nod:

; 693  :             }
; 694  :         }
; 695  : 
; 696  :         for (_Nodeptr _Pnode = _Newnode; _Pnode->_Parent->_Color == _Red;) {

  00120	c6 42 0c 01	 mov	 BYTE PTR [edx+12], 1
  00124	c6 41 0c 01	 mov	 BYTE PTR [ecx+12], 1
  00128	8b 48 04	 mov	 ecx, DWORD PTR [eax+4]
  0012b	8b 49 04	 mov	 ecx, DWORD PTR [ecx+4]
  0012e	c6 41 0c 00	 mov	 BYTE PTR [ecx+12], 0
  00132	8b 48 04	 mov	 ecx, DWORD PTR [eax+4]
  00135	8b 41 04	 mov	 eax, DWORD PTR [ecx+4]
  00138	e9 8f 00 00 00	 jmp	 $LN2@Insert_nod
$LN15@Insert_nod:

; 717  :                     _Pnode->_Parent->_Color          = _Black;
; 718  :                     _Parent_sibling->_Color          = _Black;
; 719  :                     _Pnode->_Parent->_Parent->_Color = _Red;
; 720  :                     _Pnode                           = _Pnode->_Parent->_Parent;
; 721  :                 } else { // parent's sibling has red and black children
; 722  :                     if (_Pnode == _Pnode->_Parent->_Left) { // rotate left child to right

  0013d	8b 32		 mov	 esi, DWORD PTR [edx]
  0013f	3b c6		 cmp	 eax, esi
  00141	75 3a		 jne	 SHORT $LN42@Insert_nod

; 507  :         _Wherenode->_Left = _Pnode->_Right;

  00143	8b 4e 08	 mov	 ecx, DWORD PTR [esi+8]

; 723  :                         _Pnode = _Pnode->_Parent;

  00146	8b c2		 mov	 eax, edx

; 507  :         _Wherenode->_Left = _Pnode->_Right;

  00148	89 08		 mov	 DWORD PTR [eax], ecx

; 508  : 
; 509  :         if (!_Pnode->_Right->_Isnil) {

  0014a	8b 4e 08	 mov	 ecx, DWORD PTR [esi+8]
  0014d	80 79 0d 00	 cmp	 BYTE PTR [ecx+13], 0
  00151	75 03		 jne	 SHORT $LN37@Insert_nod

; 510  :             _Pnode->_Right->_Parent = _Wherenode;

  00153	89 41 04	 mov	 DWORD PTR [ecx+4], eax
$LN37@Insert_nod:

; 511  :         }
; 512  : 
; 513  :         _Pnode->_Parent = _Wherenode->_Parent;

  00156	8b 4a 04	 mov	 ecx, DWORD PTR [edx+4]
  00159	89 4e 04	 mov	 DWORD PTR [esi+4], ecx

; 514  : 
; 515  :         if (_Wherenode == _Myhead->_Parent) {

  0015c	8b 0b		 mov	 ecx, DWORD PTR [ebx]
  0015e	3b 41 04	 cmp	 eax, DWORD PTR [ecx+4]
  00161	75 05		 jne	 SHORT $LN38@Insert_nod

; 516  :             _Myhead->_Parent = _Pnode;

  00163	89 71 04	 mov	 DWORD PTR [ecx+4], esi
  00166	eb 0f		 jmp	 SHORT $LN41@Insert_nod
$LN38@Insert_nod:

; 517  :         } else if (_Wherenode == _Wherenode->_Parent->_Right) {

  00168	8b 4a 04	 mov	 ecx, DWORD PTR [edx+4]
  0016b	3b 41 08	 cmp	 eax, DWORD PTR [ecx+8]
  0016e	75 05		 jne	 SHORT $LN40@Insert_nod

; 518  :             _Wherenode->_Parent->_Right = _Pnode;

  00170	89 71 08	 mov	 DWORD PTR [ecx+8], esi

; 519  :         } else {

  00173	eb 02		 jmp	 SHORT $LN41@Insert_nod
$LN40@Insert_nod:

; 520  :             _Wherenode->_Parent->_Left = _Pnode;

  00175	89 31		 mov	 DWORD PTR [ecx], esi
$LN41@Insert_nod:

; 521  :         }
; 522  : 
; 523  :         _Pnode->_Right      = _Wherenode;

  00177	89 46 08	 mov	 DWORD PTR [esi+8], eax

; 524  :         _Wherenode->_Parent = _Pnode;

  0017a	89 70 04	 mov	 DWORD PTR [eax+4], esi
$LN42@Insert_nod:

; 724  :                         _Rrotate(_Pnode);
; 725  :                     }
; 726  : 
; 727  :                     _Pnode->_Parent->_Color          = _Black; // propagate red up

  0017d	8b 48 04	 mov	 ecx, DWORD PTR [eax+4]
  00180	c6 41 0c 01	 mov	 BYTE PTR [ecx+12], 1

; 728  :                     _Pnode->_Parent->_Parent->_Color = _Red;

  00184	8b 48 04	 mov	 ecx, DWORD PTR [eax+4]
  00187	8b 49 04	 mov	 ecx, DWORD PTR [ecx+4]
  0018a	c6 41 0c 00	 mov	 BYTE PTR [ecx+12], 0

; 729  :                     _Lrotate(_Pnode->_Parent->_Parent);

  0018e	8b 48 04	 mov	 ecx, DWORD PTR [eax+4]
  00191	8b 51 04	 mov	 edx, DWORD PTR [ecx+4]

; 484  :         _Nodeptr _Pnode    = _Wherenode->_Right;

  00194	8b 72 08	 mov	 esi, DWORD PTR [edx+8]

; 485  :         _Wherenode->_Right = _Pnode->_Left;

  00197	8b 0e		 mov	 ecx, DWORD PTR [esi]
  00199	89 4a 08	 mov	 DWORD PTR [edx+8], ecx

; 486  : 
; 487  :         if (!_Pnode->_Left->_Isnil) {

  0019c	8b 0e		 mov	 ecx, DWORD PTR [esi]
  0019e	80 79 0d 00	 cmp	 BYTE PTR [ecx+13], 0
  001a2	75 03		 jne	 SHORT $LN45@Insert_nod

; 488  :             _Pnode->_Left->_Parent = _Wherenode;

  001a4	89 51 04	 mov	 DWORD PTR [ecx+4], edx
$LN45@Insert_nod:

; 489  :         }
; 490  : 
; 491  :         _Pnode->_Parent = _Wherenode->_Parent;

  001a7	8b 4a 04	 mov	 ecx, DWORD PTR [edx+4]
  001aa	89 4e 04	 mov	 DWORD PTR [esi+4], ecx

; 492  : 
; 493  :         if (_Wherenode == _Myhead->_Parent) {

  001ad	8b 0b		 mov	 ecx, DWORD PTR [ebx]
  001af	3b 51 04	 cmp	 edx, DWORD PTR [ecx+4]
  001b2	75 05		 jne	 SHORT $LN46@Insert_nod

; 494  :             _Myhead->_Parent = _Pnode;

  001b4	89 71 04	 mov	 DWORD PTR [ecx+4], esi
  001b7	eb 0e		 jmp	 SHORT $LN49@Insert_nod
$LN46@Insert_nod:

; 495  :         } else if (_Wherenode == _Wherenode->_Parent->_Left) {

  001b9	8b 4a 04	 mov	 ecx, DWORD PTR [edx+4]
  001bc	3b 11		 cmp	 edx, DWORD PTR [ecx]
  001be	75 04		 jne	 SHORT $LN48@Insert_nod

; 496  :             _Wherenode->_Parent->_Left = _Pnode;

  001c0	89 31		 mov	 DWORD PTR [ecx], esi

; 497  :         } else {

  001c2	eb 03		 jmp	 SHORT $LN49@Insert_nod
$LN48@Insert_nod:

; 498  :             _Wherenode->_Parent->_Right = _Pnode;

  001c4	89 71 08	 mov	 DWORD PTR [ecx+8], esi
$LN49@Insert_nod:

; 499  :         }
; 500  : 
; 501  :         _Pnode->_Left       = _Wherenode;

  001c7	89 16		 mov	 DWORD PTR [esi], edx
$LN81@Insert_nod:

; 693  :             }
; 694  :         }
; 695  : 
; 696  :         for (_Nodeptr _Pnode = _Newnode; _Pnode->_Parent->_Color == _Red;) {

  001c9	89 72 04	 mov	 DWORD PTR [edx+4], esi
$LN2@Insert_nod:
  001cc	8b 48 04	 mov	 ecx, DWORD PTR [eax+4]
  001cf	80 79 0c 00	 cmp	 BYTE PTR [ecx+12], 0
  001d3	0f 84 87 fe ff
	ff		 je	 $LL4@Insert_nod
  001d9	5e		 pop	 esi
$LN3@Insert_nod:

; 730  :                 }
; 731  :             }
; 732  :         }
; 733  : 
; 734  :         _Head->_Parent->_Color = _Black; // root is always black

  001da	8b 45 fc	 mov	 eax, DWORD PTR __Head$1$[ebp]
  001dd	8b 40 04	 mov	 eax, DWORD PTR [eax+4]
  001e0	c6 40 0c 01	 mov	 BYTE PTR [eax+12], 1

; 735  :         return _Newnode;
; 736  :     }

  001e4	8b c7		 mov	 eax, edi
  001e6	5f		 pop	 edi
  001e7	5b		 pop	 ebx
  001e8	8b e5		 mov	 esp, ebp
  001ea	5d		 pop	 ebp
  001eb	c2 0c 00	 ret	 12			; 0000000cH
?_Insert_node@?$_Tree_val@U?$_Tree_simple_types@U?$pair@$$CBEPAU__TAXINFO@@@std@@@std@@@std@@QAEPAU?$_Tree_node@U?$pair@$$CBEPAU__TAXINFO@@@std@@PAX@2@U?$_Tree_id@PAU?$_Tree_node@U?$pair@$$CBEPAU__TAXINFO@@@std@@PAX@std@@@2@QAU32@@Z ENDP ; std::_Tree_val<std::_Tree_simple_types<std::pair<unsigned char const ,__TAXINFO *> > >::_Insert_node
_TEXT	ENDS
; Function compile flags: /Ogtp
; File C:\Program Files\Microsoft Visual Studio\2022\Professional\VC\Tools\MSVC\14.44.35207\include\xtree
; File C:\Program Files\Microsoft Visual Studio\2022\Professional\VC\Tools\MSVC\14.44.35207\include\utility
; File C:\Program Files\Microsoft Visual Studio\2022\Professional\VC\Tools\MSVC\14.44.35207\include\xmemory
; File C:\Program Files\Microsoft Visual Studio\2022\Professional\VC\Tools\MSVC\14.44.35207\include\xtree
; File C:\Program Files\Microsoft Visual Studio\2022\Professional\VC\Tools\MSVC\14.44.35207\include\xmemory
; File C:\Program Files\Microsoft Visual Studio\2022\Professional\VC\Tools\MSVC\14.44.35207\include\xtree
;	COMDAT ??1?$_Tree@V?$_Tmap_traits@EPAU__TAXINFO@@U?$less@E@std@@V?$allocator@U?$pair@$$CBEPAU__TAXINFO@@@std@@@3@$0A@@std@@@std@@QAE@XZ
_TEXT	SEGMENT
??1?$_Tree@V?$_Tmap_traits@EPAU__TAXINFO@@U?$less@E@std@@V?$allocator@U?$pair@$$CBEPAU__TAXINFO@@@std@@@3@$0A@@std@@@std@@QAE@XZ PROC ; std::_Tree<std::_Tmap_traits<unsigned char,__TAXINFO *,std::less<unsigned char>,std::allocator<std::pair<unsigned char const ,__TAXINFO *> >,0> >::~_Tree<std::_Tmap_traits<unsigned char,__TAXINFO *,std::less<unsigned char>,std::allocator<std::pair<unsigned char const ,__TAXINFO *> >,0> >, COMDAT
; _this$ = ecx

; 1095 :     ~_Tree() noexcept {

  00000	56		 push	 esi
  00001	57		 push	 edi
  00002	8b f9		 mov	 edi, ecx

; 777  :         _Erase_tree(_Al, _Myhead->_Parent);

  00004	8b 37		 mov	 esi, DWORD PTR [edi]
  00006	8b 76 04	 mov	 esi, DWORD PTR [esi+4]

; 768  :         while (!_Rootnode->_Isnil) { // free subtrees, then node

  00009	80 7e 0d 00	 cmp	 BYTE PTR [esi+13], 0
  0000d	75 21		 jne	 SHORT $LN61@Tree
  0000f	90		 npad	 1
$LL8@Tree:

; 769  :             _Erase_tree(_Al, _Rootnode->_Right);

  00010	ff 76 08	 push	 DWORD PTR [esi+8]
  00013	8b cf		 mov	 ecx, edi
  00015	57		 push	 edi
  00016	e8 00 00 00 00	 call	 ??$_Erase_tree@V?$allocator@U?$_Tree_node@U?$pair@$$CBEPAU__TAXINFO@@@std@@PAX@std@@@std@@@?$_Tree_val@U?$_Tree_simple_types@U?$pair@$$CBEPAU__TAXINFO@@@std@@@std@@@std@@QAEXAAV?$allocator@U?$_Tree_node@U?$pair@$$CBEPAU__TAXINFO@@@std@@PAX@std@@@1@PAU?$_Tree_node@U?$pair@$$CBEPAU__TAXINFO@@@std@@PAX@1@@Z ; std::_Tree_val<std::_Tree_simple_types<std::pair<unsigned char const ,__TAXINFO *> > >::_Erase_tree<std::allocator<std::_Tree_node<std::pair<unsigned char const ,__TAXINFO *>,void *> > >
; File C:\Program Files\Microsoft Visual Studio\2022\Professional\VC\Tools\MSVC\14.44.35207\include\utility

; 773  :     _Ty _Old_val = static_cast<_Ty&&>(_Val);

  0001b	8b c6		 mov	 eax, esi

; 774  :     _Val         = static_cast<_Other&&>(_New_val);

  0001d	8b 36		 mov	 esi, DWORD PTR [esi]
; File C:\Program Files\Microsoft Visual Studio\2022\Professional\VC\Tools\MSVC\14.44.35207\include\xmemory

; 289  :         ::operator delete(_Ptr, _Bytes);

  0001f	6a 18		 push	 24			; 00000018H
  00021	50		 push	 eax
  00022	e8 00 00 00 00	 call	 ??3@YAXPAXI@Z		; operator delete
  00027	83 c4 08	 add	 esp, 8
; File C:\Program Files\Microsoft Visual Studio\2022\Professional\VC\Tools\MSVC\14.44.35207\include\xtree

; 768  :         while (!_Rootnode->_Isnil) { // free subtrees, then node

  0002a	80 7e 0d 00	 cmp	 BYTE PTR [esi+13], 0
  0002e	74 e0		 je	 SHORT $LL8@Tree
$LN61@Tree:
; File C:\Program Files\Microsoft Visual Studio\2022\Professional\VC\Tools\MSVC\14.44.35207\include\xmemory

; 289  :         ::operator delete(_Ptr, _Bytes);

  00030	6a 18		 push	 24			; 00000018H
  00032	ff 37		 push	 DWORD PTR [edi]
  00034	e8 00 00 00 00	 call	 ??3@YAXPAXI@Z		; operator delete
  00039	83 c4 08	 add	 esp, 8
  0003c	5f		 pop	 edi
  0003d	5e		 pop	 esi
; File C:\Program Files\Microsoft Visual Studio\2022\Professional\VC\Tools\MSVC\14.44.35207\include\xtree

; 1102 :     }

  0003e	c3		 ret	 0
??1?$_Tree@V?$_Tmap_traits@EPAU__TAXINFO@@U?$less@E@std@@V?$allocator@U?$pair@$$CBEPAU__TAXINFO@@@std@@@3@$0A@@std@@@std@@QAE@XZ ENDP ; std::_Tree<std::_Tmap_traits<unsigned char,__TAXINFO *,std::less<unsigned char>,std::allocator<std::pair<unsigned char const ,__TAXINFO *> >,0> >::~_Tree<std::_Tmap_traits<unsigned char,__TAXINFO *,std::less<unsigned char>,std::allocator<std::pair<unsigned char const ,__TAXINFO *> >,0> >
_TEXT	ENDS
; Function compile flags: /Ogtp
; File C:\IAGOS\server\v18\Source\Source\_Common\Tax.cpp
; File C:\IAGOS\server\v18\Source\Source\_Network\Misc\Include\Ar.h
; File C:\IAGOS\server\v18\Source\Source\_Common\Tax.cpp
; File C:\IAGOS\server\v18\Source\Source\_Network\Misc\Include\Ar.h
; File C:\IAGOS\server\v18\Source\Source\_Common\Tax.cpp
; File C:\Program Files\Microsoft Visual Studio\2022\Professional\VC\Tools\MSVC\14.44.35207\include\xtree
; File C:\IAGOS\server\v18\Source\Source\_Common\Tax.cpp
; File C:\Program Files\Microsoft Visual Studio\2022\Professional\VC\Tools\MSVC\14.44.35207\include\xtree
; File C:\IAGOS\server\v18\Source\Source\_Common\Tax.cpp
; File C:\Program Files\Microsoft Visual Studio\2022\Professional\VC\Tools\MSVC\14.44.35207\include\xtree
; File C:\IAGOS\server\v18\Source\Source\_Common\Tax.cpp
; File C:\Program Files\Microsoft Visual Studio\2022\Professional\VC\Tools\MSVC\14.44.35207\include\xtree
; File C:\IAGOS\server\v18\Source\Source\_Common\Tax.cpp
; File C:\Program Files\Microsoft Visual Studio\2022\Professional\VC\Tools\MSVC\14.44.35207\include\xtree
; File C:\IAGOS\server\v18\Source\Source\_Common\Tax.cpp
; File C:\Program Files\Microsoft Visual Studio\2022\Professional\VC\Tools\MSVC\14.44.35207\include\xtree
; File C:\IAGOS\server\v18\Source\Source\_Common\Tax.cpp
; File C:\Program Files\Microsoft Visual Studio\2022\Professional\VC\Tools\MSVC\14.44.35207\include\xtree
; File C:\Program Files\Microsoft Visual Studio\2022\Professional\VC\Tools\MSVC\14.44.35207\include\type_traits
; File C:\Program Files\Microsoft Visual Studio\2022\Professional\VC\Tools\MSVC\14.44.35207\include\xtree
; File C:\IAGOS\server\v18\Source\Source\_Common\Tax.cpp
;	COMDAT ?Serialize@CTax@@QAEXAAVCAr@@@Z
_TEXT	SEGMENT
__Loc$1 = -28						; size = 12
_nCont$2 = -16						; size = 1
_taxInfo$1$ = -16					; size = 4
$T3 = -12						; size = 4
_nSize2$4 = -12						; size = 4
_this$1$ = -8						; size = 4
$T5 = -4						; size = 4
_it$1$ = -4						; size = 4
_nSize$1$ = -4						; size = 4
_ar$ = 8						; size = 4
_nSize$6 = 8						; size = 4
_nTaxKind$7 = 11					; size = 1
?Serialize@CTax@@QAEXAAVCAr@@@Z PROC			; CTax::Serialize, COMDAT
; _this$ = ecx

; 392  : {

  00000	55		 push	 ebp
  00001	8b ec		 mov	 ebp, esp
  00003	83 ec 1c	 sub	 esp, 28			; 0000001cH
  00006	53		 push	 ebx
; File C:\IAGOS\server\v18\Source\Source\_Network\Misc\Include\Ar.h

; 146  : 	return (m_nMode & CAr::load) == 0;

  00007	8b 5d 08	 mov	 ebx, DWORD PTR _ar$[ebp]
; File C:\IAGOS\server\v18\Source\Source\_Common\Tax.cpp

; 392  : {

  0000a	56		 push	 esi
  0000b	8b f1		 mov	 esi, ecx

; 393  : 	if( ar.IsStoring() )

  0000d	8b cb		 mov	 ecx, ebx
  0000f	57		 push	 edi
; File C:\IAGOS\server\v18\Source\Source\_Network\Misc\Include\Ar.h

; 146  : 	return (m_nMode & CAr::load) == 0;

  00010	f6 03 01	 test	 BYTE PTR [ebx], 1
; File C:\IAGOS\server\v18\Source\Source\_Common\Tax.cpp

; 392  : {

  00013	89 75 f8	 mov	 DWORD PTR _this$1$[ebp], esi

; 393  : 	if( ar.IsStoring() )

  00016	0f 85 2e 01 00
	00		 jne	 $LN14@Serialize

; 394  : 	{
; 395  : 		ar << m_mapTaxInfo.size();

  0001c	8b 46 0c	 mov	 eax, DWORD PTR [esi+12]
  0001f	89 45 fc	 mov	 DWORD PTR $T5[ebp], eax
  00022	8d 45 fc	 lea	 eax, DWORD PTR $T5[ebp]
  00025	50		 push	 eax
  00026	e8 00 00 00 00	 call	 ??$?6I@CAr@@QAEAAV0@ABI@Z ; CAr::operator<<<unsigned int>
; File C:\Program Files\Microsoft Visual Studio\2022\Professional\VC\Tools\MSVC\14.44.35207\include\xtree

; 1142 :         return iterator(_Scary->_Myhead->_Left, _Scary);

  0002b	8b 46 08	 mov	 eax, DWORD PTR [esi+8]

; 37   :     _Tree_unchecked_const_iterator(_Nodeptr _Pnode, const _Mytree* _Plist) noexcept : _Ptr(_Pnode) {

  0002e	8b 38		 mov	 edi, DWORD PTR [eax]
  00030	89 7d fc	 mov	 DWORD PTR _it$1$[ebp], edi

; 237  :         return !(*this == _Right);

  00033	3b f8		 cmp	 edi, eax
; File C:\IAGOS\server\v18\Source\Source\_Common\Tax.cpp

; 396  : 		for( TAXINFOMAP::iterator it=m_mapTaxInfo.begin(); it!=m_mapTaxInfo.end(); it++ )

  00035	0f 84 9d 01 00
	00		 je	 $LN9@Serialize
  0003b	0f 1f 44 00 00	 npad	 5
$LL4@Serialize:

; 397  : 		{
; 398  : 			__TAXINFO* taxInfo = it->second;

  00040	8b 77 14	 mov	 esi, DWORD PTR [edi+20]
; File C:\Program Files\Microsoft Visual Studio\2022\Professional\VC\Tools\MSVC\14.44.35207\include\xtree

; 185  :         return this->_Ptr->_Myval;

  00043	8d 47 10	 lea	 eax, DWORD PTR [edi+16]
; File C:\IAGOS\server\v18\Source\Source\_Common\Tax.cpp

; 399  : 			ar << it->first;

  00046	50		 push	 eax
  00047	8b cb		 mov	 ecx, ebx
  00049	89 75 f0	 mov	 DWORD PTR _taxInfo$1$[ebp], esi
  0004c	e8 00 00 00 00	 call	 ??$?6E@CAr@@QAEAAV0@ABE@Z ; CAr::operator<<<unsigned char>

; 400  : 
; 401  : 			ar << taxInfo->dwId;

  00051	56		 push	 esi
  00052	8b cb		 mov	 ecx, ebx
  00054	e8 00 00 00 00	 call	 ??$?6K@CAr@@QAEAAV0@ABK@Z ; CAr::operator<<<unsigned long>

; 402  : #ifdef __DBSERVER
; 403  : 			ar << taxInfo->bSetTaxRate;

  00059	8d 46 04	 lea	 eax, DWORD PTR [esi+4]
  0005c	8b cb		 mov	 ecx, ebx
  0005e	50		 push	 eax
  0005f	e8 00 00 00 00	 call	 ??$?6H@CAr@@QAEAAV0@ABH@Z ; CAr::operator<<<int>

; 404  : 			ar << taxInfo->dwNextId;

  00064	8d 46 10	 lea	 eax, DWORD PTR [esi+16]
  00067	8b cb		 mov	 ecx, ebx
  00069	50		 push	 eax
  0006a	e8 00 00 00 00	 call	 ??$?6K@CAr@@QAEAAV0@ABK@Z ; CAr::operator<<<unsigned long>

; 405  : #endif // __DBSERVER
; 406  : 			ar << taxInfo->mapTaxDetail.size();

  0006f	8b 46 0c	 mov	 eax, DWORD PTR [esi+12]
  00072	8b cb		 mov	 ecx, ebx
  00074	89 45 f4	 mov	 DWORD PTR $T3[ebp], eax
  00077	8d 45 f4	 lea	 eax, DWORD PTR $T3[ebp]
  0007a	50		 push	 eax
  0007b	e8 00 00 00 00	 call	 ??$?6I@CAr@@QAEAAV0@ABI@Z ; CAr::operator<<<unsigned int>
; File C:\Program Files\Microsoft Visual Studio\2022\Professional\VC\Tools\MSVC\14.44.35207\include\xtree

; 1142 :         return iterator(_Scary->_Myhead->_Left, _Scary);

  00080	8b 46 08	 mov	 eax, DWORD PTR [esi+8]

; 37   :     _Tree_unchecked_const_iterator(_Nodeptr _Pnode, const _Mytree* _Plist) noexcept : _Ptr(_Pnode) {

  00083	8b 30		 mov	 esi, DWORD PTR [eax]

; 237  :         return !(*this == _Right);

  00085	3b f0		 cmp	 esi, eax
; File C:\IAGOS\server\v18\Source\Source\_Common\Tax.cpp

; 407  : 			for( TAXDETAILMAP::iterator it2=taxInfo->mapTaxDetail.begin(); it2!=taxInfo->mapTaxDetail.end(); it2++ )

  00087	74 67		 je	 SHORT $LN2@Serialize
  00089	8b 7d 08	 mov	 edi, DWORD PTR _ar$[ebp]
  0008c	0f 1f 40 00	 npad	 4
$LL7@Serialize:

; 408  : 			{
; 409  : 				__TAXDETAIL* taxDetail = it2->second;

  00090	8b 5e 14	 mov	 ebx, DWORD PTR [esi+20]
; File C:\Program Files\Microsoft Visual Studio\2022\Professional\VC\Tools\MSVC\14.44.35207\include\xtree

; 185  :         return this->_Ptr->_Myval;

  00093	8d 46 10	 lea	 eax, DWORD PTR [esi+16]
; File C:\IAGOS\server\v18\Source\Source\_Common\Tax.cpp

; 410  : 				ar << it2->first;

  00096	50		 push	 eax
  00097	8b cf		 mov	 ecx, edi
  00099	e8 00 00 00 00	 call	 ??$?6E@CAr@@QAEAAV0@ABE@Z ; CAr::operator<<<unsigned char>

; 411  : 
; 412  : 				ar << taxDetail->nTaxRate;

  0009e	53		 push	 ebx
  0009f	8b cf		 mov	 ecx, edi
  000a1	e8 00 00 00 00	 call	 ??$?6H@CAr@@QAEAAV0@ABH@Z ; CAr::operator<<<int>
; File C:\Program Files\Microsoft Visual Studio\2022\Professional\VC\Tools\MSVC\14.44.35207\include\xtree

; 50   :         if (_Ptr->_Right->_Isnil) { // climb looking for right subtree

  000a6	8b 46 08	 mov	 eax, DWORD PTR [esi+8]
  000a9	80 78 0d 00	 cmp	 BYTE PTR [eax+13], 0
  000ad	74 1d		 je	 SHORT $LN80@Serialize

; 51   :             _Nodeptr _Pnode;
; 52   :             while (!(_Pnode = _Ptr->_Parent)->_Isnil && _Ptr == _Pnode->_Right) {

  000af	8b 46 04	 mov	 eax, DWORD PTR [esi+4]
  000b2	80 78 0d 00	 cmp	 BYTE PTR [eax+13], 0
  000b6	75 10		 jne	 SHORT $LN214@Serialize
$LL78@Serialize:
  000b8	3b 70 08	 cmp	 esi, DWORD PTR [eax+8]
  000bb	75 0b		 jne	 SHORT $LN214@Serialize

; 53   :                 _Ptr = _Pnode; // ==> parent while right subtree

  000bd	8b f0		 mov	 esi, eax
  000bf	8b 40 04	 mov	 eax, DWORD PTR [eax+4]
  000c2	80 78 0d 00	 cmp	 BYTE PTR [eax+13], 0
  000c6	74 f0		 je	 SHORT $LL78@Serialize
$LN214@Serialize:

; 54   :             }
; 55   : 
; 56   :             _Ptr = _Pnode; // ==> parent (head if end())

  000c8	8b f0		 mov	 esi, eax

; 57   :         } else {

  000ca	eb 16		 jmp	 SHORT $LN86@Serialize
$LN80@Serialize:

; 58   :             _Ptr = _Mytree::_Min(_Ptr->_Right); // ==> smallest of right subtree

  000cc	8b f0		 mov	 esi, eax

; 476  :         while (!_Pnode->_Left->_Isnil) {

  000ce	8b 0e		 mov	 ecx, DWORD PTR [esi]
  000d0	80 79 0d 00	 cmp	 BYTE PTR [ecx+13], 0
  000d4	75 0c		 jne	 SHORT $LN86@Serialize
$LL85@Serialize:
  000d6	8b 01		 mov	 eax, DWORD PTR [ecx]

; 477  :             _Pnode = _Pnode->_Left;

  000d8	8b f1		 mov	 esi, ecx
  000da	8b c8		 mov	 ecx, eax
  000dc	80 78 0d 00	 cmp	 BYTE PTR [eax+13], 0
  000e0	74 f4		 je	 SHORT $LL85@Serialize
$LN86@Serialize:

; 237  :         return !(*this == _Right);

  000e2	8b 45 f0	 mov	 eax, DWORD PTR _taxInfo$1$[ebp]
  000e5	3b 70 08	 cmp	 esi, DWORD PTR [eax+8]
; File C:\IAGOS\server\v18\Source\Source\_Common\Tax.cpp

; 407  : 			for( TAXDETAILMAP::iterator it2=taxInfo->mapTaxDetail.begin(); it2!=taxInfo->mapTaxDetail.end(); it2++ )

  000e8	75 a6		 jne	 SHORT $LL7@Serialize
  000ea	8b 7d fc	 mov	 edi, DWORD PTR _it$1$[ebp]
  000ed	8b 5d 08	 mov	 ebx, DWORD PTR _ar$[ebp]
$LN2@Serialize:
; File C:\Program Files\Microsoft Visual Studio\2022\Professional\VC\Tools\MSVC\14.44.35207\include\xtree

; 50   :         if (_Ptr->_Right->_Isnil) { // climb looking for right subtree

  000f0	8b 47 08	 mov	 eax, DWORD PTR [edi+8]
  000f3	80 78 0d 00	 cmp	 BYTE PTR [eax+13], 0
  000f7	74 20		 je	 SHORT $LN62@Serialize

; 51   :             _Nodeptr _Pnode;
; 52   :             while (!(_Pnode = _Ptr->_Parent)->_Isnil && _Ptr == _Pnode->_Right) {

  000f9	8b 47 04	 mov	 eax, DWORD PTR [edi+4]
  000fc	80 78 0d 00	 cmp	 BYTE PTR [eax+13], 0
  00100	75 10		 jne	 SHORT $LN215@Serialize
$LL60@Serialize:
  00102	3b 78 08	 cmp	 edi, DWORD PTR [eax+8]
  00105	75 0b		 jne	 SHORT $LN215@Serialize

; 53   :                 _Ptr = _Pnode; // ==> parent while right subtree

  00107	8b f8		 mov	 edi, eax
  00109	8b 40 04	 mov	 eax, DWORD PTR [eax+4]
  0010c	80 78 0d 00	 cmp	 BYTE PTR [eax+13], 0
  00110	74 f0		 je	 SHORT $LL60@Serialize
$LN215@Serialize:

; 54   :             }
; 55   : 
; 56   :             _Ptr = _Pnode; // ==> parent (head if end())

  00112	8b f8		 mov	 edi, eax
  00114	89 7d fc	 mov	 DWORD PTR _it$1$[ebp], edi

; 57   :         } else {

  00117	eb 1c		 jmp	 SHORT $LN68@Serialize
$LN62@Serialize:

; 58   :             _Ptr = _Mytree::_Min(_Ptr->_Right); // ==> smallest of right subtree

  00119	8b f8		 mov	 edi, eax
  0011b	89 7d fc	 mov	 DWORD PTR _it$1$[ebp], edi

; 476  :         while (!_Pnode->_Left->_Isnil) {

  0011e	8b 0f		 mov	 ecx, DWORD PTR [edi]
  00120	80 79 0d 00	 cmp	 BYTE PTR [ecx+13], 0
  00124	75 0f		 jne	 SHORT $LN68@Serialize
$LL67@Serialize:
  00126	8b 01		 mov	 eax, DWORD PTR [ecx]

; 477  :             _Pnode = _Pnode->_Left;

  00128	8b f9		 mov	 edi, ecx
  0012a	89 7d fc	 mov	 DWORD PTR _it$1$[ebp], edi
  0012d	8b c8		 mov	 ecx, eax
  0012f	80 78 0d 00	 cmp	 BYTE PTR [eax+13], 0
  00133	74 f1		 je	 SHORT $LL67@Serialize
$LN68@Serialize:

; 237  :         return !(*this == _Right);

  00135	8b 45 f8	 mov	 eax, DWORD PTR _this$1$[ebp]
  00138	3b 78 08	 cmp	 edi, DWORD PTR [eax+8]
; File C:\IAGOS\server\v18\Source\Source\_Common\Tax.cpp

; 396  : 		for( TAXINFOMAP::iterator it=m_mapTaxInfo.begin(); it!=m_mapTaxInfo.end(); it++ )

  0013b	0f 85 ff fe ff
	ff		 jne	 $LL4@Serialize

; 438  : 			}
; 439  : 		}
; 440  : 	}
; 441  : }

  00141	5f		 pop	 edi
  00142	5e		 pop	 esi
  00143	5b		 pop	 ebx
  00144	8b e5		 mov	 esp, ebp
  00146	5d		 pop	 ebp
  00147	c2 04 00	 ret	 4
$LN14@Serialize:

; 413  : 			}
; 414  : 		}
; 415  : 	}
; 416  : 	else
; 417  : 	{
; 418  : 		int nSize, nSize2;
; 419  : 		BYTE nCont, nTaxKind;
; 420  : 				
; 421  : 		ar >> nSize;

  0014a	8d 45 08	 lea	 eax, DWORD PTR _nSize$6[ebp]
  0014d	50		 push	 eax
  0014e	e8 00 00 00 00	 call	 ??$?5H@CAr@@QAEAAV0@AAH@Z ; CAr::operator>><int>

; 422  : 		for( int i=0; i<nSize; i++ )

  00153	8b 45 08	 mov	 eax, DWORD PTR _nSize$6[ebp]
  00156	89 45 fc	 mov	 DWORD PTR _nSize$1$[ebp], eax
  00159	85 c0		 test	 eax, eax
  0015b	7e 7b		 jle	 SHORT $LN9@Serialize
  0015d	0f 1f 00	 npad	 3
$LL10@Serialize:

; 423  : 		{
; 424  : 			ar >> nCont;

  00160	8d 45 f0	 lea	 eax, DWORD PTR _nCont$2[ebp]
  00163	8b cb		 mov	 ecx, ebx
  00165	50		 push	 eax
  00166	e8 00 00 00 00	 call	 ??$?5E@CAr@@QAEAAV0@AAE@Z ; CAr::operator>><unsigned char>

; 425  : 			__TAXINFO* taxInfo = GetTaxInfo( nCont );

  0016b	ff 75 f0	 push	 DWORD PTR _nCont$2[ebp]
  0016e	8b ce		 mov	 ecx, esi
  00170	e8 00 00 00 00	 call	 ?GetTaxInfo@CTax@@QAEPAU__TAXINFO@@E@Z ; CTax::GetTaxInfo
  00175	8b f8		 mov	 edi, eax

; 426  : 			ar >> taxInfo->dwId;

  00177	8b cb		 mov	 ecx, ebx
  00179	57		 push	 edi
  0017a	e8 00 00 00 00	 call	 ??$?5K@CAr@@QAEAAV0@AAK@Z ; CAr::operator>><unsigned long>

; 427  : #ifdef __WORLDSERVER
; 428  : 			ar >> taxInfo->bSetTaxRate;
; 429  : 			ar >> taxInfo->dwNextId;
; 430  : #endif // __WORLDSERVER
; 431  : 			ar >> nSize2;

  0017f	8d 45 f4	 lea	 eax, DWORD PTR _nSize2$4[ebp]
  00182	8b cb		 mov	 ecx, ebx
  00184	50		 push	 eax
  00185	e8 00 00 00 00	 call	 ??$?5H@CAr@@QAEAAV0@AAH@Z ; CAr::operator>><int>

; 432  : 			for( int j=0; j<nSize2; j++ )

  0018a	8b 75 f4	 mov	 esi, DWORD PTR _nSize2$4[ebp]
  0018d	85 f6		 test	 esi, esi
  0018f	7e 3e		 jle	 SHORT $LN8@Serialize
$LL13@Serialize:

; 433  : 			{
; 434  : 				ar >> nTaxKind;

  00191	8d 45 0b	 lea	 eax, DWORD PTR _nTaxKind$7[ebp]
  00194	8b cb		 mov	 ecx, ebx
  00196	50		 push	 eax
  00197	e8 00 00 00 00	 call	 ??$?5E@CAr@@QAEAAV0@AAE@Z ; CAr::operator>><unsigned char>
; File C:\Program Files\Microsoft Visual Studio\2022\Professional\VC\Tools\MSVC\14.44.35207\include\xtree

; 1384 :         const _Tree_find_result<_Nodeptr> _Loc = _Find_lower_bound(_Keyval);

  0019c	8d 45 0b	 lea	 eax, DWORD PTR _nTaxKind$7[ebp]
  0019f	50		 push	 eax
  001a0	8d 45 e4	 lea	 eax, DWORD PTR __Loc$1[ebp]
  001a3	50		 push	 eax
  001a4	8d 4f 08	 lea	 ecx, DWORD PTR [edi+8]
  001a7	e8 00 00 00 00	 call	 ??$_Find_lower_bound@E@?$_Tree@V?$_Tmap_traits@EPAU__TAXDETAIL@@U?$less@E@std@@V?$allocator@U?$pair@$$CBEPAU__TAXDETAIL@@@std@@@3@$0A@@std@@@std@@IBE?AU?$_Tree_find_result@PAU?$_Tree_node@U?$pair@$$CBEPAU__TAXDETAIL@@@std@@PAX@std@@@1@ABE@Z ; std::_Tree<std::_Tmap_traits<unsigned char,__TAXDETAIL *,std::less<unsigned char>,std::allocator<std::pair<unsigned char const ,__TAXDETAIL *> >,0> >::_Find_lower_bound<unsigned char>

; 1624 :         return !_Bound->_Isnil && !_DEBUG_LT_PRED(_Getcomp(), _Keyval, _Traits::_Kfn(_Bound->_Myval));

  001ac	8b 4d ec	 mov	 ecx, DWORD PTR __Loc$1[ebp+8]
  001af	80 79 0d 00	 cmp	 BYTE PTR [ecx+13], 0
  001b3	75 08		 jne	 SHORT $LN110@Serialize
; File C:\Program Files\Microsoft Visual Studio\2022\Professional\VC\Tools\MSVC\14.44.35207\include\type_traits

; 2380 :         return _Left < _Right;

  001b5	8a 45 0b	 mov	 al, BYTE PTR _nTaxKind$7[ebp]
  001b8	3a 41 10	 cmp	 al, BYTE PTR [ecx+16]
; File C:\Program Files\Microsoft Visual Studio\2022\Professional\VC\Tools\MSVC\14.44.35207\include\xtree

; 1624 :         return !_Bound->_Isnil && !_DEBUG_LT_PRED(_Getcomp(), _Keyval, _Traits::_Kfn(_Bound->_Myval));

  001bb	73 03		 jae	 SHORT $LN109@Serialize
$LN110@Serialize:

; 1389 :         return _Get_scary()->_Myhead;

  001bd	8b 4f 08	 mov	 ecx, DWORD PTR [edi+8]
$LN109@Serialize:
; File C:\IAGOS\server\v18\Source\Source\_Common\Tax.cpp

; 437  : 				ar >> taxDetail->nTaxRate;

  001c0	ff 71 14	 push	 DWORD PTR [ecx+20]
  001c3	8b cb		 mov	 ecx, ebx
  001c5	e8 00 00 00 00	 call	 ??$?5H@CAr@@QAEAAV0@AAH@Z ; CAr::operator>><int>
  001ca	83 ee 01	 sub	 esi, 1
  001cd	75 c2		 jne	 SHORT $LL13@Serialize
$LN8@Serialize:

; 422  : 		for( int i=0; i<nSize; i++ )

  001cf	83 6d fc 01	 sub	 DWORD PTR _nSize$1$[ebp], 1
  001d3	8b 75 f8	 mov	 esi, DWORD PTR _this$1$[ebp]
  001d6	75 88		 jne	 SHORT $LL10@Serialize
$LN9@Serialize:
  001d8	5f		 pop	 edi

; 438  : 			}
; 439  : 		}
; 440  : 	}
; 441  : }

  001d9	5e		 pop	 esi
  001da	5b		 pop	 ebx
  001db	8b e5		 mov	 esp, ebp
  001dd	5d		 pop	 ebp
  001de	c2 04 00	 ret	 4
?Serialize@CTax@@QAEXAAVCAr@@@Z ENDP			; CTax::Serialize
_TEXT	ENDS
; Function compile flags: /Ogtp
; File C:\IAGOS\server\v18\Source\Source\_Common\Tax.cpp
;	COMDAT ?GetInstance@CTax@@SAPAV1@XZ
_TEXT	SEGMENT
__$EHRec$ = -12						; size = 12
?GetInstance@CTax@@SAPAV1@XZ PROC			; CTax::GetInstance, COMDAT

; 78   : {

  00000	55		 push	 ebp
  00001	8b ec		 mov	 ebp, esp
  00003	6a ff		 push	 -1
  00005	68 00 00 00 00	 push	 __ehhandler$?GetInstance@CTax@@SAPAV1@XZ
  0000a	64 a1 00 00 00
	00		 mov	 eax, DWORD PTR fs:0
  00010	50		 push	 eax
  00011	a1 00 00 00 00	 mov	 eax, DWORD PTR ___security_cookie
  00016	33 c5		 xor	 eax, ebp
  00018	50		 push	 eax
  00019	8d 45 f4	 lea	 eax, DWORD PTR __$EHRec$[ebp]
  0001c	64 a3 00 00 00
	00		 mov	 DWORD PTR fs:0, eax

; 79   : 	static CTax sTax;

  00022	64 a1 00 00 00
	00		 mov	 eax, DWORD PTR fs:__tls_array
  00028	8b 0d 00 00 00
	00		 mov	 ecx, DWORD PTR __tls_index
  0002e	8b 0c 88	 mov	 ecx, DWORD PTR [eax+ecx*4]
  00031	a1 00 00 00 00	 mov	 eax, DWORD PTR ?$TSS0@?1??GetInstance@CTax@@SAPAV2@XZ@4HA
  00036	3b 81 00 00 00
	00		 cmp	 eax, DWORD PTR __Init_thread_epoch[ecx]
  0003c	7f 14		 jg	 SHORT $LN9@GetInstanc
$LN5@GetInstanc:

; 80   : 	return &sTax;
; 81   : }

  0003e	b8 00 00 00 00	 mov	 eax, OFFSET ?sTax@?1??GetInstance@CTax@@SAPAV2@XZ@4V2@A
  00043	8b 4d f4	 mov	 ecx, DWORD PTR __$EHRec$[ebp]
  00046	64 89 0d 00 00
	00 00		 mov	 DWORD PTR fs:0, ecx
  0004d	59		 pop	 ecx
  0004e	8b e5		 mov	 esp, ebp
  00050	5d		 pop	 ebp
  00051	c3		 ret	 0
$LN9@GetInstanc:

; 79   : 	static CTax sTax;

  00052	68 00 00 00 00	 push	 OFFSET ?$TSS0@?1??GetInstance@CTax@@SAPAV2@XZ@4HA
  00057	e8 00 00 00 00	 call	 __Init_thread_header
  0005c	83 c4 04	 add	 esp, 4
  0005f	83 3d 00 00 00
	00 ff		 cmp	 DWORD PTR ?$TSS0@?1??GetInstance@CTax@@SAPAV2@XZ@4HA, -1
  00066	75 d6		 jne	 SHORT $LN5@GetInstanc
  00068	b9 00 00 00 00	 mov	 ecx, OFFSET ?sTax@?1??GetInstance@CTax@@SAPAV2@XZ@4V2@A
  0006d	c7 45 fc 00 00
	00 00		 mov	 DWORD PTR __$EHRec$[ebp+8], 0
  00074	e8 00 00 00 00	 call	 ??0CTax@@QAE@XZ		; CTax::CTax
  00079	68 00 00 00 00	 push	 OFFSET ??__FsTax@?1??GetInstance@CTax@@SAPAV1@XZ@YAXXZ ; `CTax::GetInstance'::`2'::`dynamic atexit destructor for 'sTax''
  0007e	e8 00 00 00 00	 call	 _atexit
  00083	68 00 00 00 00	 push	 OFFSET ?$TSS0@?1??GetInstance@CTax@@SAPAV2@XZ@4HA
  00088	e8 00 00 00 00	 call	 __Init_thread_footer
  0008d	83 c4 08	 add	 esp, 8
  00090	eb ac		 jmp	 SHORT $LN5@GetInstanc
_TEXT	ENDS
;	COMDAT text$x
text$x	SEGMENT
__unwindfunclet$?GetInstance@CTax@@SAPAV1@XZ$0:
  00000	68 00 00 00 00	 push	 OFFSET ?$TSS0@?1??GetInstance@CTax@@SAPAV2@XZ@4HA
  00005	e8 00 00 00 00	 call	 __Init_thread_abort
  0000a	59		 pop	 ecx
  0000b	c3		 ret	 0
  0000c	cc		 int	 3
  0000d	cc		 int	 3
  0000e	cc		 int	 3
  0000f	cc		 int	 3
  00010	cc		 int	 3
__ehhandler$?GetInstance@CTax@@SAPAV1@XZ:
  00011	90		 npad	 1
  00012	90		 npad	 1
  00013	8b 54 24 08	 mov	 edx, DWORD PTR [esp+8]
  00017	8d 42 0c	 lea	 eax, DWORD PTR [edx+12]
  0001a	8b 4a fc	 mov	 ecx, DWORD PTR [edx-4]
  0001d	33 c8		 xor	 ecx, eax
  0001f	e8 00 00 00 00	 call	 @__security_check_cookie@4
  00024	b8 00 00 00 00	 mov	 eax, OFFSET __ehfuncinfo$?GetInstance@CTax@@SAPAV1@XZ
  00029	e9 00 00 00 00	 jmp	 ___CxxFrameHandler3
text$x	ENDS
?GetInstance@CTax@@SAPAV1@XZ ENDP			; CTax::GetInstance
; Function compile flags: /Ogtp
; File C:\IAGOS\server\v18\Source\Source\_Common\Tax.cpp
; File C:\Program Files\Microsoft Visual Studio\2022\Professional\VC\Tools\MSVC\14.44.35207\include\xtree
; File C:\IAGOS\server\v18\Source\Source\_Common\Tax.cpp
; File C:\Program Files\Microsoft Visual Studio\2022\Professional\VC\Tools\MSVC\14.44.35207\include\xtree
; File C:\IAGOS\server\v18\Source\Source\_Common\Tax.cpp
; File C:\Program Files\Microsoft Visual Studio\2022\Professional\VC\Tools\MSVC\14.44.35207\include\xtree
; File C:\IAGOS\server\v18\Source\Source\_Common\Tax.cpp
; File C:\Program Files\Microsoft Visual Studio\2022\Professional\VC\Tools\MSVC\14.44.35207\include\xtree
; File C:\IAGOS\server\v18\Source\Source\_Common\Tax.cpp
; File C:\Program Files\Microsoft Visual Studio\2022\Professional\VC\Tools\MSVC\14.44.35207\include\xtree
; File C:\Program Files\Microsoft Visual Studio\2022\Professional\VC\Tools\MSVC\14.44.35207\include\utility
; File C:\Program Files\Microsoft Visual Studio\2022\Professional\VC\Tools\MSVC\14.44.35207\include\xmemory
; File C:\Program Files\Microsoft Visual Studio\2022\Professional\VC\Tools\MSVC\14.44.35207\include\xtree
; File C:\Program Files\Microsoft Visual Studio\2022\Professional\VC\Tools\MSVC\14.44.35207\include\xmemory
; File C:\Program Files\Microsoft Visual Studio\2022\Professional\VC\Tools\MSVC\14.44.35207\include\xtree
; File C:\IAGOS\server\v18\Source\Source\_Common\Tax.cpp
; File C:\Program Files\Microsoft Visual Studio\2022\Professional\VC\Tools\MSVC\14.44.35207\include\xtree
; File C:\IAGOS\server\v18\Source\Source\_Common\Tax.cpp
; File C:\Program Files\Microsoft Visual Studio\2022\Professional\VC\Tools\MSVC\14.44.35207\include\vector
; File C:\IAGOS\server\v18\Source\Source\_Common\Tax.cpp
;	COMDAT ??1CTax@@QAE@XZ
_TEXT	SEGMENT
_this$1$ = -24						; size = 4
_taxInfo$1$ = -20					; size = 4
_this$1$ = -16						; size = 4
__$EHRec$ = -12						; size = 12
??1CTax@@QAE@XZ PROC					; CTax::~CTax, COMDAT
; _this$ = ecx

; 50   : {

  00000	55		 push	 ebp
  00001	8b ec		 mov	 ebp, esp
  00003	6a ff		 push	 -1
  00005	68 00 00 00 00	 push	 __ehhandler$??1CTax@@QAE@XZ
  0000a	64 a1 00 00 00
	00		 mov	 eax, DWORD PTR fs:0
  00010	50		 push	 eax
  00011	83 ec 0c	 sub	 esp, 12			; 0000000cH
  00014	53		 push	 ebx
  00015	56		 push	 esi
  00016	57		 push	 edi
  00017	a1 00 00 00 00	 mov	 eax, DWORD PTR ___security_cookie
  0001c	33 c5		 xor	 eax, ebp
  0001e	50		 push	 eax
  0001f	8d 45 f4	 lea	 eax, DWORD PTR __$EHRec$[ebp]
  00022	64 a3 00 00 00
	00		 mov	 DWORD PTR fs:0, eax
  00028	89 4d e8	 mov	 DWORD PTR _this$1$[ebp], ecx
; File C:\Program Files\Microsoft Visual Studio\2022\Professional\VC\Tools\MSVC\14.44.35207\include\xtree

; 1142 :         return iterator(_Scary->_Myhead->_Left, _Scary);

  0002b	8b 59 08	 mov	 ebx, DWORD PTR [ecx+8]
  0002e	8d 51 08	 lea	 edx, DWORD PTR [ecx+8]
  00031	89 55 f0	 mov	 DWORD PTR _this$1$[ebp], edx

; 37   :     _Tree_unchecked_const_iterator(_Nodeptr _Pnode, const _Mytree* _Plist) noexcept : _Ptr(_Pnode) {

  00034	8b 3b		 mov	 edi, DWORD PTR [ebx]

; 237  :         return !(*this == _Right);

  00036	3b fb		 cmp	 edi, ebx
; File C:\IAGOS\server\v18\Source\Source\_Common\Tax.cpp

; 51   : 	for( TAXINFOMAP::iterator it = m_mapTaxInfo.begin(); it!=m_mapTaxInfo.end(); it++ )

  00038	0f 84 d8 00 00
	00		 je	 $LN3@CTax
  0003e	66 90		 npad	 2
$LL4@CTax:

; 52   : 	{
; 53   : 		__TAXINFO* taxInfo = it->second;

  00040	8b 47 14	 mov	 eax, DWORD PTR [edi+20]
  00043	89 45 ec	 mov	 DWORD PTR _taxInfo$1$[ebp], eax

; 54   : 		if( taxInfo )

  00046	85 c0		 test	 eax, eax
  00048	0f 84 7b 00 00
	00		 je	 $LN2@CTax
; File C:\Program Files\Microsoft Visual Studio\2022\Professional\VC\Tools\MSVC\14.44.35207\include\xtree

; 1142 :         return iterator(_Scary->_Myhead->_Left, _Scary);

  0004e	8d 58 08	 lea	 ebx, DWORD PTR [eax+8]
  00051	8b 03		 mov	 eax, DWORD PTR [ebx]

; 37   :     _Tree_unchecked_const_iterator(_Nodeptr _Pnode, const _Mytree* _Plist) noexcept : _Ptr(_Pnode) {

  00053	8b 30		 mov	 esi, DWORD PTR [eax]

; 237  :         return !(*this == _Right);

  00055	3b f0		 cmp	 esi, eax
; File C:\IAGOS\server\v18\Source\Source\_Common\Tax.cpp

; 56   : 			for( TAXDETAILMAP::iterator it2=taxInfo->mapTaxDetail.begin(); it2!=taxInfo->mapTaxDetail.end(); it2++ )

  00057	74 59		 je	 SHORT $LN6@CTax
  00059	0f 1f 80 00 00
	00 00		 npad	 7
$LL7@CTax:

; 57   : 			{
; 58   : 				__TAXDETAIL* taxDetail = it2->second;

  00060	8b 46 14	 mov	 eax, DWORD PTR [esi+20]

; 59   : 				if( taxDetail )

  00063	85 c0		 test	 eax, eax
  00065	74 0b		 je	 SHORT $LN5@CTax

; 60   : 					safe_delete( taxDetail );

  00067	6a 14		 push	 20			; 00000014H
  00069	50		 push	 eax
  0006a	e8 00 00 00 00	 call	 ??3@YAXPAXI@Z		; operator delete
  0006f	83 c4 08	 add	 esp, 8
$LN5@CTax:
; File C:\Program Files\Microsoft Visual Studio\2022\Professional\VC\Tools\MSVC\14.44.35207\include\xtree

; 50   :         if (_Ptr->_Right->_Isnil) { // climb looking for right subtree

  00072	8b 46 08	 mov	 eax, DWORD PTR [esi+8]
  00075	80 78 0d 00	 cmp	 BYTE PTR [eax+13], 0
  00079	74 1d		 je	 SHORT $LN77@CTax

; 51   :             _Nodeptr _Pnode;
; 52   :             while (!(_Pnode = _Ptr->_Parent)->_Isnil && _Ptr == _Pnode->_Right) {

  0007b	8b 46 04	 mov	 eax, DWORD PTR [esi+4]
  0007e	80 78 0d 00	 cmp	 BYTE PTR [eax+13], 0
  00082	75 10		 jne	 SHORT $LN76@CTax
$LL75@CTax:
  00084	3b 70 08	 cmp	 esi, DWORD PTR [eax+8]
  00087	75 0b		 jne	 SHORT $LN76@CTax

; 53   :                 _Ptr = _Pnode; // ==> parent while right subtree

  00089	8b f0		 mov	 esi, eax
  0008b	8b 40 04	 mov	 eax, DWORD PTR [eax+4]
  0008e	80 78 0d 00	 cmp	 BYTE PTR [eax+13], 0
  00092	74 f0		 je	 SHORT $LL75@CTax
$LN76@CTax:

; 54   :             }
; 55   : 
; 56   :             _Ptr = _Pnode; // ==> parent (head if end())

  00094	8b f0		 mov	 esi, eax

; 57   :         } else {

  00096	eb 16		 jmp	 SHORT $LN196@CTax
$LN77@CTax:

; 58   :             _Ptr = _Mytree::_Min(_Ptr->_Right); // ==> smallest of right subtree

  00098	8b f0		 mov	 esi, eax

; 476  :         while (!_Pnode->_Left->_Isnil) {

  0009a	8b 0e		 mov	 ecx, DWORD PTR [esi]
  0009c	80 79 0d 00	 cmp	 BYTE PTR [ecx+13], 0
  000a0	75 0c		 jne	 SHORT $LN196@CTax
$LL82@CTax:
  000a2	8b 01		 mov	 eax, DWORD PTR [ecx]

; 477  :             _Pnode = _Pnode->_Left;

  000a4	8b f1		 mov	 esi, ecx
  000a6	8b c8		 mov	 ecx, eax
  000a8	80 78 0d 00	 cmp	 BYTE PTR [eax+13], 0
  000ac	74 f4		 je	 SHORT $LL82@CTax
$LN196@CTax:

; 237  :         return !(*this == _Right);

  000ae	3b 33		 cmp	 esi, DWORD PTR [ebx]
; File C:\IAGOS\server\v18\Source\Source\_Common\Tax.cpp

; 56   : 			for( TAXDETAILMAP::iterator it2=taxInfo->mapTaxDetail.begin(); it2!=taxInfo->mapTaxDetail.end(); it2++ )

  000b0	75 ae		 jne	 SHORT $LL7@CTax
$LN6@CTax:
  000b2	8b cb		 mov	 ecx, ebx
  000b4	e8 00 00 00 00	 call	 ??1?$_Tree@V?$_Tmap_traits@EPAU__TAXDETAIL@@U?$less@E@std@@V?$allocator@U?$pair@$$CBEPAU__TAXDETAIL@@@std@@@3@$0A@@std@@@std@@QAE@XZ ; std::_Tree<std::_Tmap_traits<unsigned char,__TAXDETAIL *,std::less<unsigned char>,std::allocator<std::pair<unsigned char const ,__TAXDETAIL *> >,0> >::~_Tree<std::_Tmap_traits<unsigned char,__TAXDETAIL *,std::less<unsigned char>,std::allocator<std::pair<unsigned char const ,__TAXDETAIL *> >,0> >
  000b9	6a 14		 push	 20			; 00000014H
  000bb	ff 75 ec	 push	 DWORD PTR _taxInfo$1$[ebp]
  000be	e8 00 00 00 00	 call	 ??3@YAXPAXI@Z		; operator delete
  000c3	8b 55 f0	 mov	 edx, DWORD PTR _this$1$[ebp]
  000c6	83 c4 08	 add	 esp, 8
$LN2@CTax:
; File C:\Program Files\Microsoft Visual Studio\2022\Professional\VC\Tools\MSVC\14.44.35207\include\xtree

; 50   :         if (_Ptr->_Right->_Isnil) { // climb looking for right subtree

  000c9	8b 47 08	 mov	 eax, DWORD PTR [edi+8]
  000cc	80 78 0d 00	 cmp	 BYTE PTR [eax+13], 0
  000d0	74 22		 je	 SHORT $LN41@CTax

; 51   :             _Nodeptr _Pnode;
; 52   :             while (!(_Pnode = _Ptr->_Parent)->_Isnil && _Ptr == _Pnode->_Right) {

  000d2	8b 47 04	 mov	 eax, DWORD PTR [edi+4]
  000d5	80 78 0d 00	 cmp	 BYTE PTR [eax+13], 0
  000d9	75 15		 jne	 SHORT $LN40@CTax
  000db	0f 1f 44 00 00	 npad	 5
$LL39@CTax:
  000e0	3b 78 08	 cmp	 edi, DWORD PTR [eax+8]
  000e3	75 0b		 jne	 SHORT $LN40@CTax

; 53   :                 _Ptr = _Pnode; // ==> parent while right subtree

  000e5	8b f8		 mov	 edi, eax
  000e7	8b 40 04	 mov	 eax, DWORD PTR [eax+4]
  000ea	80 78 0d 00	 cmp	 BYTE PTR [eax+13], 0
  000ee	74 f0		 je	 SHORT $LL39@CTax
$LN40@CTax:

; 54   :             }
; 55   : 
; 56   :             _Ptr = _Pnode; // ==> parent (head if end())

  000f0	8b f8		 mov	 edi, eax

; 57   :         } else {

  000f2	eb 18		 jmp	 SHORT $LN199@CTax
$LN41@CTax:

; 58   :             _Ptr = _Mytree::_Min(_Ptr->_Right); // ==> smallest of right subtree

  000f4	8b f8		 mov	 edi, eax

; 476  :         while (!_Pnode->_Left->_Isnil) {

  000f6	8b 0f		 mov	 ecx, DWORD PTR [edi]
  000f8	80 79 0d 00	 cmp	 BYTE PTR [ecx+13], 0
  000fc	75 0e		 jne	 SHORT $LN199@CTax
  000fe	66 90		 npad	 2
$LL46@CTax:
  00100	8b 01		 mov	 eax, DWORD PTR [ecx]

; 477  :             _Pnode = _Pnode->_Left;

  00102	8b f9		 mov	 edi, ecx
  00104	8b c8		 mov	 ecx, eax
  00106	80 78 0d 00	 cmp	 BYTE PTR [eax+13], 0
  0010a	74 f4		 je	 SHORT $LL46@CTax
$LN199@CTax:

; 37   :     _Tree_unchecked_const_iterator(_Nodeptr _Pnode, const _Mytree* _Plist) noexcept : _Ptr(_Pnode) {

  0010c	8b 1a		 mov	 ebx, DWORD PTR [edx]

; 237  :         return !(*this == _Right);

  0010e	3b fb		 cmp	 edi, ebx
; File C:\IAGOS\server\v18\Source\Source\_Common\Tax.cpp

; 51   : 	for( TAXINFOMAP::iterator it = m_mapTaxInfo.begin(); it!=m_mapTaxInfo.end(); it++ )

  00110	0f 85 2a ff ff
	ff		 jne	 $LL4@CTax
$LN3@CTax:
; File C:\Program Files\Microsoft Visual Studio\2022\Professional\VC\Tools\MSVC\14.44.35207\include\xtree

; 1374 :         _Scary->_Erase_tree(_Getal(), _Head->_Parent);

  00116	8b 73 04	 mov	 esi, DWORD PTR [ebx+4]

; 768  :         while (!_Rootnode->_Isnil) { // free subtrees, then node

  00119	80 7e 0d 00	 cmp	 BYTE PTR [esi+13], 0
  0011d	75 24		 jne	 SHORT $LN201@CTax
  0011f	90		 npad	 1
$LL122@CTax:

; 769  :             _Erase_tree(_Al, _Rootnode->_Right);

  00120	ff 76 08	 push	 DWORD PTR [esi+8]
  00123	8b ca		 mov	 ecx, edx
  00125	52		 push	 edx
  00126	e8 00 00 00 00	 call	 ??$_Erase_tree@V?$allocator@U?$_Tree_node@U?$pair@$$CBEPAU__TAXINFO@@@std@@PAX@std@@@std@@@?$_Tree_val@U?$_Tree_simple_types@U?$pair@$$CBEPAU__TAXINFO@@@std@@@std@@@std@@QAEXAAV?$allocator@U?$_Tree_node@U?$pair@$$CBEPAU__TAXINFO@@@std@@PAX@std@@@1@PAU?$_Tree_node@U?$pair@$$CBEPAU__TAXINFO@@@std@@PAX@1@@Z ; std::_Tree_val<std::_Tree_simple_types<std::pair<unsigned char const ,__TAXINFO *> > >::_Erase_tree<std::allocator<std::_Tree_node<std::pair<unsigned char const ,__TAXINFO *>,void *> > >
; File C:\Program Files\Microsoft Visual Studio\2022\Professional\VC\Tools\MSVC\14.44.35207\include\utility

; 773  :     _Ty _Old_val = static_cast<_Ty&&>(_Val);

  0012b	8b c6		 mov	 eax, esi

; 774  :     _Val         = static_cast<_Other&&>(_New_val);

  0012d	8b 36		 mov	 esi, DWORD PTR [esi]
; File C:\Program Files\Microsoft Visual Studio\2022\Professional\VC\Tools\MSVC\14.44.35207\include\xmemory

; 289  :         ::operator delete(_Ptr, _Bytes);

  0012f	6a 18		 push	 24			; 00000018H
  00131	50		 push	 eax
  00132	e8 00 00 00 00	 call	 ??3@YAXPAXI@Z		; operator delete
; File C:\Program Files\Microsoft Visual Studio\2022\Professional\VC\Tools\MSVC\14.44.35207\include\xtree

; 768  :         while (!_Rootnode->_Isnil) { // free subtrees, then node

  00137	8b 55 f0	 mov	 edx, DWORD PTR _this$1$[ebp]
; File C:\Program Files\Microsoft Visual Studio\2022\Professional\VC\Tools\MSVC\14.44.35207\include\xmemory

; 289  :         ::operator delete(_Ptr, _Bytes);

  0013a	83 c4 08	 add	 esp, 8
; File C:\Program Files\Microsoft Visual Studio\2022\Professional\VC\Tools\MSVC\14.44.35207\include\xtree

; 768  :         while (!_Rootnode->_Isnil) { // free subtrees, then node

  0013d	80 7e 0d 00	 cmp	 BYTE PTR [esi+13], 0
  00141	74 dd		 je	 SHORT $LL122@CTax
$LN201@CTax:

; 1375 :         _Head->_Parent  = _Head;

  00143	89 5b 04	 mov	 DWORD PTR [ebx+4], ebx

; 1376 :         _Head->_Left    = _Head;

  00146	89 1b		 mov	 DWORD PTR [ebx], ebx

; 1377 :         _Head->_Right   = _Head;

  00148	89 5b 08	 mov	 DWORD PTR [ebx+8], ebx
; File C:\IAGOS\server\v18\Source\Source\_Common\Tax.cpp

; 69   : 	m_taxDBController.CloseDbHandler();

  0014b	8b 5d e8	 mov	 ebx, DWORD PTR _this$1$[ebp]
; File C:\Program Files\Microsoft Visual Studio\2022\Professional\VC\Tools\MSVC\14.44.35207\include\xtree

; 1378 :         _Scary->_Mysize = 0;

  0014e	c7 42 04 00 00
	00 00		 mov	 DWORD PTR [edx+4], 0
; File C:\IAGOS\server\v18\Source\Source\_Common\Tax.cpp

; 69   : 	m_taxDBController.CloseDbHandler();

  00155	8d 4b 2c	 lea	 ecx, DWORD PTR [ebx+44]
  00158	e8 00 00 00 00	 call	 ?CloseDbHandler@CDbController@@QAEXXZ ; CDbController::CloseDbHandler
; File C:\Program Files\Microsoft Visual Studio\2022\Professional\VC\Tools\MSVC\14.44.35207\include\vector

; 1812 :         if (_Myfirst == _Mylast) { // already empty, nothing to do

  0015d	8b 43 60	 mov	 eax, DWORD PTR [ebx+96]
  00160	8d 4b 60	 lea	 ecx, DWORD PTR [ebx+96]
  00163	3b 41 04	 cmp	 eax, DWORD PTR [ecx+4]
  00166	74 03		 je	 SHORT $LN153@CTax

; 1813 :             // This is an optimization for debug mode: we can avoid taking the debug lock to invalidate iterators.
; 1814 :             // Note that when clearing an empty vector, this will preserve past-the-end iterators, which is allowed by
; 1815 :             // N4950 [sequence.reqmts]/54 "a.clear() [...] may invalidate the past-the-end iterator".
; 1816 :             return;
; 1817 :         }
; 1818 : 
; 1819 :         _My_data._Orphan_all();
; 1820 :         _Destroy_range(_Myfirst, _Mylast, _Getal());
; 1821 :         _ASAN_VECTOR_MODIFY(static_cast<difference_type>(_Myfirst - _Mylast)); // negative when destroying elements
; 1822 :         _Mylast = _Myfirst;

  00168	89 41 04	 mov	 DWORD PTR [ecx+4], eax
$LN153@CTax:
; File C:\IAGOS\server\v18\Source\Source\_Common\Tax.cpp

; 74   : }

  0016b	e8 00 00 00 00	 call	 ??1?$vector@KV?$allocator@K@std@@@std@@QAE@XZ ; std::vector<unsigned long,std::allocator<unsigned long> >::~vector<unsigned long,std::allocator<unsigned long> >
  00170	8d 4b 48	 lea	 ecx, DWORD PTR [ebx+72]
  00173	e8 00 00 00 00	 call	 ??1?$basic_string@DU?$char_traits@D@std@@V?$allocator@D@2@@std@@QAE@XZ ; std::basic_string<char,std::char_traits<char>,std::allocator<char> >::~basic_string<char,std::char_traits<char>,std::allocator<char> >
  00178	8d 4b 2c	 lea	 ecx, DWORD PTR [ebx+44]
  0017b	e8 00 00 00 00	 call	 ??1CTaxDBController@@UAE@XZ ; CTaxDBController::~CTaxDBController
  00180	8d 4b 24	 lea	 ecx, DWORD PTR [ebx+36]
  00183	e8 00 00 00 00	 call	 ??1CLuaBase@@UAE@XZ	; CLuaBase::~CLuaBase
  00188	8b 4d f0	 mov	 ecx, DWORD PTR _this$1$[ebp]
  0018b	e8 00 00 00 00	 call	 ??1?$_Tree@V?$_Tmap_traits@EPAU__TAXINFO@@U?$less@E@std@@V?$allocator@U?$pair@$$CBEPAU__TAXINFO@@@std@@@3@$0A@@std@@@std@@QAE@XZ ; std::_Tree<std::_Tmap_traits<unsigned char,__TAXINFO *,std::less<unsigned char>,std::allocator<std::pair<unsigned char const ,__TAXINFO *> >,0> >::~_Tree<std::_Tmap_traits<unsigned char,__TAXINFO *,std::less<unsigned char>,std::allocator<std::pair<unsigned char const ,__TAXINFO *> >,0> >
  00190	8b 4d f4	 mov	 ecx, DWORD PTR __$EHRec$[ebp]
  00193	64 89 0d 00 00
	00 00		 mov	 DWORD PTR fs:0, ecx
  0019a	59		 pop	 ecx
  0019b	5f		 pop	 edi
  0019c	5e		 pop	 esi
  0019d	5b		 pop	 ebx
  0019e	8b e5		 mov	 esp, ebp
  001a0	5d		 pop	 ebp
  001a1	c3		 ret	 0
  001a2	cc		 int	 3
  001a3	cc		 int	 3
  001a4	cc		 int	 3
  001a5	cc		 int	 3
  001a6	cc		 int	 3
_TEXT	ENDS
;	COMDAT text$x
text$x	SEGMENT
__ehhandler$??1CTax@@QAE@XZ:
  00000	90		 npad	 1
  00001	90		 npad	 1
  00002	8b 54 24 08	 mov	 edx, DWORD PTR [esp+8]
  00006	8d 42 0c	 lea	 eax, DWORD PTR [edx+12]
  00009	8b 4a e4	 mov	 ecx, DWORD PTR [edx-28]
  0000c	33 c8		 xor	 ecx, eax
  0000e	e8 00 00 00 00	 call	 @__security_check_cookie@4
  00013	b8 00 00 00 00	 mov	 eax, OFFSET __ehfuncinfo$??1CTax@@QAE@XZ
  00018	e9 00 00 00 00	 jmp	 ___CxxFrameHandler3
text$x	ENDS
??1CTax@@QAE@XZ ENDP					; CTax::~CTax
; Function compile flags: /Ogtp
; File C:\IAGOS\server\v18\Source\Source\_Common\Tax.cpp
; File C:\Program Files\Microsoft Visual Studio\2022\Professional\VC\Tools\MSVC\14.44.35207\include\xmemory
; File C:\Program Files\Microsoft Visual Studio\2022\Professional\VC\Tools\MSVC\14.44.35207\include\xtree
; File C:\Program Files\Microsoft Visual Studio\2022\Professional\VC\Tools\MSVC\14.44.35207\include\xmemory
; File C:\Program Files\Microsoft Visual Studio\2022\Professional\VC\Tools\MSVC\14.44.35207\include\xtree
; File C:\IAGOS\server\v18\Source\Source\_Common\Tax.cpp
; File C:\Program Files\Microsoft Visual Studio\2022\Professional\VC\Tools\MSVC\14.44.35207\include\xstring
; File C:\Program Files\Microsoft Visual Studio\2022\Professional\VC\Tools\MSVC\14.44.35207\include\vector
; File C:\IAGOS\server\v18\Source\Source\_Common\Tax.cpp
; File C:\Program Files\Microsoft Visual Studio\2022\Professional\VC\Tools\MSVC\14.44.35207\include\utility
; File C:\IAGOS\server\v18\Source\Source\_Common\Tax.cpp
; File C:\Program Files\Microsoft Visual Studio\2022\Professional\VC\Tools\MSVC\14.44.35207\include\utility
; File C:\IAGOS\server\v18\Source\Source\_Common\Tax.cpp
; File C:\IAGOS\server\v18\Source\Source\_Common\tax.h
; File C:\IAGOS\server\v18\Source\Source\_Common\Tax.cpp
; File C:\Program Files\Microsoft Visual Studio\2022\Professional\VC\Tools\MSVC\14.44.35207\include\utility
; File C:\Program Files\Microsoft Visual Studio\2022\Professional\VC\Tools\MSVC\14.44.35207\include\xtree
; File C:\IAGOS\server\v18\Source\Source\_Common\Tax.cpp
; File C:\Program Files\Microsoft Visual Studio\2022\Professional\VC\Tools\MSVC\14.44.35207\include\xtree
; File C:\Program Files\Microsoft Visual Studio\2022\Professional\VC\Tools\MSVC\14.44.35207\include\utility
; File C:\Program Files\Microsoft Visual Studio\2022\Professional\VC\Tools\MSVC\14.44.35207\include\xtree
; File C:\Program Files\Microsoft Visual Studio\2022\Professional\VC\Tools\MSVC\14.44.35207\include\type_traits
; File C:\Program Files\Microsoft Visual Studio\2022\Professional\VC\Tools\MSVC\14.44.35207\include\xtree
; File C:\IAGOS\server\v18\Source\Source\_Common\Tax.cpp
; File C:\Program Files\Microsoft Visual Studio\2022\Professional\VC\Tools\MSVC\14.44.35207\include\utility
; File C:\IAGOS\server\v18\Source\Source\_Common\Tax.cpp
; File C:\Program Files\Microsoft Visual Studio\2022\Professional\VC\Tools\MSVC\14.44.35207\include\utility
; File C:\IAGOS\server\v18\Source\Source\_Common\Tax.cpp
; File C:\Program Files\Microsoft Visual Studio\2022\Professional\VC\Tools\MSVC\14.44.35207\include\utility
; File C:\IAGOS\server\v18\Source\Source\_Common\Tax.cpp
; File C:\Program Files\Microsoft Visual Studio\2022\Professional\VC\Tools\MSVC\14.44.35207\include\utility
; File C:\IAGOS\server\v18\Source\Source\_Common\Tax.cpp
; File C:\IAGOS\server\v18\Source\Source\_Common\tax.h
; File C:\IAGOS\server\v18\Source\Source\_Common\Tax.cpp
; File C:\Program Files\Microsoft Visual Studio\2022\Professional\VC\Tools\MSVC\14.44.35207\include\utility
; File C:\Program Files\Microsoft Visual Studio\2022\Professional\VC\Tools\MSVC\14.44.35207\include\xtree
; File C:\IAGOS\server\v18\Source\Source\_Common\Tax.cpp
; File C:\Program Files\Microsoft Visual Studio\2022\Professional\VC\Tools\MSVC\14.44.35207\include\xtree
; File C:\Program Files\Microsoft Visual Studio\2022\Professional\VC\Tools\MSVC\14.44.35207\include\utility
; File C:\Program Files\Microsoft Visual Studio\2022\Professional\VC\Tools\MSVC\14.44.35207\include\xtree
; File C:\IAGOS\server\v18\Source\Source\_Common\Tax.cpp
;	COMDAT ??0CTax@@QAE@XZ
_TEXT	SEGMENT
__Loc$2 = -40						; size = 12
__Loc$3 = -40						; size = 12
$T4 = -36						; size = 8
$T5 = -36						; size = 8
$T6 = -36						; size = 8
$T7 = -36						; size = 8
$T8 = -36						; size = 8
$T9 = -28						; size = 8
$T10 = -28						; size = 8
$T11 = -28						; size = 8
$T12 = -28						; size = 8
$T13 = -28						; size = 8
$T14 = -24						; size = 4
$T15 = -24						; size = 4
$T16 = -24						; size = 4
$T17 = -24						; size = 4
$T18 = -24						; size = 4
_this$ = -24						; size = 4
_this$ = -20						; size = 4
$T19 = -13						; size = 1
$T20 = -13						; size = 1
__$EHRec$ = -12						; size = 12
??0CTax@@QAE@XZ PROC					; CTax::CTax, COMDAT
; _this$ = ecx

; 25   : {

  00000	55		 push	 ebp
  00001	8b ec		 mov	 ebp, esp
  00003	6a ff		 push	 -1
  00005	68 00 00 00 00	 push	 __ehhandler$??0CTax@@QAE@XZ
  0000a	64 a1 00 00 00
	00		 mov	 eax, DWORD PTR fs:0
  00010	50		 push	 eax
  00011	83 ec 1c	 sub	 esp, 28			; 0000001cH
  00014	56		 push	 esi
  00015	57		 push	 edi
  00016	a1 00 00 00 00	 mov	 eax, DWORD PTR ___security_cookie
  0001b	33 c5		 xor	 eax, ebp
  0001d	50		 push	 eax
  0001e	8d 45 f4	 lea	 eax, DWORD PTR __$EHRec$[ebp]
  00021	64 a3 00 00 00
	00		 mov	 DWORD PTR fs:0, eax
  00027	8b f1		 mov	 esi, ecx
  00029	89 75 ec	 mov	 DWORD PTR _this$[ebp], esi
  0002c	8d 7e 08	 lea	 edi, DWORD PTR [esi+8]
  0002f	89 7d e8	 mov	 DWORD PTR _this$[ebp], edi
; File C:\Program Files\Microsoft Visual Studio\2022\Professional\VC\Tools\MSVC\14.44.35207\include\xmemory

; 136  :         return ::operator new(_Bytes);

  00032	6a 18		 push	 24			; 00000018H
; File C:\Program Files\Microsoft Visual Studio\2022\Professional\VC\Tools\MSVC\14.44.35207\include\xtree

; 450  :     _Tree_val() noexcept : _Myhead(), _Mysize(0) {}

  00034	c7 07 00 00 00
	00		 mov	 DWORD PTR [edi], 0
  0003a	c7 47 04 00 00
	00 00		 mov	 DWORD PTR [edi+4], 0
; File C:\Program Files\Microsoft Visual Studio\2022\Professional\VC\Tools\MSVC\14.44.35207\include\xmemory

; 136  :         return ::operator new(_Bytes);

  00041	e8 00 00 00 00	 call	 ??2@YAPAXI@Z		; operator new
  00046	83 c4 04	 add	 esp, 4
; File C:\Program Files\Microsoft Visual Studio\2022\Professional\VC\Tools\MSVC\14.44.35207\include\xtree

; 346  :         _Construct_in_place(_Pnode->_Left, _Pnode);

  00049	89 00		 mov	 DWORD PTR [eax], eax

; 347  :         _Construct_in_place(_Pnode->_Parent, _Pnode);

  0004b	89 40 04	 mov	 DWORD PTR [eax+4], eax

; 348  :         _Construct_in_place(_Pnode->_Right, _Pnode);

  0004e	89 40 08	 mov	 DWORD PTR [eax+8], eax

; 349  :         _Pnode->_Color = _Black;

  00051	66 c7 40 0c 01
	01		 mov	 WORD PTR [eax+12], 257	; 00000101H

; 1957 :         _Scary->_Myhead = _Node::_Buyheadnode(_Getal());

  00057	89 07		 mov	 DWORD PTR [edi], eax
; File C:\IAGOS\server\v18\Source\Source\_Common\Tax.cpp

; 25   : {

  00059	8d 4e 24	 lea	 ecx, DWORD PTR [esi+36]
  0005c	c7 45 fc 00 00
	00 00		 mov	 DWORD PTR __$EHRec$[ebp+8], 0
  00063	e8 00 00 00 00	 call	 ??0CLuaBase@@QAE@XZ	; CLuaBase::CLuaBase
  00068	8d 4e 2c	 lea	 ecx, DWORD PTR [esi+44]
  0006b	c6 45 fc 01	 mov	 BYTE PTR __$EHRec$[ebp+8], 1
  0006f	e8 00 00 00 00	 call	 ??0CTaxDBController@@QAE@XZ ; CTaxDBController::CTaxDBController
  00074	0f 57 c0	 xorps	 xmm0, xmm0
; File C:\Program Files\Microsoft Visual Studio\2022\Professional\VC\Tools\MSVC\14.44.35207\include\xstring

; 493  :         _CONSTEXPR20 _Bxty() noexcept : _Buf() {} // user-provided, for fancy pointers

  00077	0f 11 46 48	 movups	 XMMWORD PTR [esi+72], xmm0

; 860  :         _My_data._Mysize = 0;

  0007b	c7 46 58 00 00
	00 00		 mov	 DWORD PTR [esi+88], 0

; 861  :         _My_data._Myres  = _Small_string_capacity;

  00082	c7 46 5c 0f 00
	00 00		 mov	 DWORD PTR [esi+92], 15	; 0000000fH

; 862  :         _My_data._Activate_SSO_buffer();
; 863  : 
; 864  :         // the _Traits::assign is last so the codegen doesn't think the char write can alias this
; 865  :         _Traits::assign(_My_data._Bx._Buf[0], _Elem());

  00089	c6 46 48 00	 mov	 BYTE PTR [esi+72], 0
; File C:\Program Files\Microsoft Visual Studio\2022\Professional\VC\Tools\MSVC\14.44.35207\include\vector

; 400  :     _CONSTEXPR20 _Vector_val() noexcept : _Myfirst(), _Mylast(), _Myend() {}

  0008d	c7 46 60 00 00
	00 00		 mov	 DWORD PTR [esi+96], 0
  00094	c7 46 64 00 00
	00 00		 mov	 DWORD PTR [esi+100], 0
  0009b	c7 46 68 00 00
	00 00		 mov	 DWORD PTR [esi+104], 0
; File C:\IAGOS\server\v18\Source\Source\_Common\Tax.cpp

; 29   : 	m_mapTaxInfo.insert( make_pair(CONT_EAST, new __TAXINFO) );		// µżşÎ Áˇ·É ±ćµĺ - ŔÔŔĺ·áµµ Ć÷ÇÔ

  000a2	6a 14		 push	 20			; 00000014H
  000a4	c6 45 fc 04	 mov	 BYTE PTR __$EHRec$[ebp+8], 4
  000a8	c7 06 00 00 00
	00		 mov	 DWORD PTR [esi], 0
  000ae	c7 46 04 00 00
	00 00		 mov	 DWORD PTR [esi+4], 0
  000b5	e8 00 00 00 00	 call	 ??2@YAPAXI@Z		; operator new
  000ba	83 c4 04	 add	 esp, 4
  000bd	89 45 e8	 mov	 DWORD PTR $T14[ebp], eax
  000c0	c6 45 fc 05	 mov	 BYTE PTR __$EHRec$[ebp+8], 5
  000c4	85 c0		 test	 eax, eax
  000c6	74 09		 je	 SHORT $LN4@CTax
  000c8	8b c8		 mov	 ecx, eax
  000ca	e8 00 00 00 00	 call	 ??0__TAXINFO@@QAE@XZ	; __TAXINFO::__TAXINFO
  000cf	eb 02		 jmp	 SHORT $LN5@CTax
$LN4@CTax:
  000d1	33 c0		 xor	 eax, eax
$LN5@CTax:
; File C:\Program Files\Microsoft Visual Studio\2022\Professional\VC\Tools\MSVC\14.44.35207\include\utility

; 274  :         : first(_STD forward<_Other1>(_Val1)), second(_STD forward<_Other2>(_Val2)) {

  000d3	89 45 e8	 mov	 DWORD PTR $T9[ebp+4], eax
; File C:\IAGOS\server\v18\Source\Source\_Common\Tax.cpp

; 29   : 	m_mapTaxInfo.insert( make_pair(CONT_EAST, new __TAXINFO) );		// µżşÎ Áˇ·É ±ćµĺ - ŔÔŔĺ·áµµ Ć÷ÇÔ

  000d6	8b cf		 mov	 ecx, edi
  000d8	8d 45 e4	 lea	 eax, DWORD PTR $T9[ebp]
  000db	c6 45 fc 04	 mov	 BYTE PTR __$EHRec$[ebp+8], 4
  000df	50		 push	 eax
  000e0	8d 45 dc	 lea	 eax, DWORD PTR $T4[ebp]
; File C:\Program Files\Microsoft Visual Studio\2022\Professional\VC\Tools\MSVC\14.44.35207\include\utility

; 274  :         : first(_STD forward<_Other1>(_Val1)), second(_STD forward<_Other2>(_Val2)) {

  000e3	c7 45 e4 0f 00
	00 00		 mov	 DWORD PTR $T9[ebp], 15	; 0000000fH
; File C:\IAGOS\server\v18\Source\Source\_Common\Tax.cpp

; 29   : 	m_mapTaxInfo.insert( make_pair(CONT_EAST, new __TAXINFO) );		// µżşÎ Áˇ·É ±ćµĺ - ŔÔŔĺ·áµµ Ć÷ÇÔ

  000ea	50		 push	 eax
  000eb	e8 00 00 00 00	 call	 ??$insert@U?$pair@HPAU__TAXINFO@@@std@@$0A@@?$map@EPAU__TAXINFO@@U?$less@E@std@@V?$allocator@U?$pair@$$CBEPAU__TAXINFO@@@std@@@3@@std@@QAE?AU?$pair@V?$_Tree_iterator@V?$_Tree_val@U?$_Tree_simple_types@U?$pair@$$CBEPAU__TAXINFO@@@std@@@std@@@std@@@std@@_N@1@$$QAU?$pair@HPAU__TAXINFO@@@1@@Z ; std::map<unsigned char,__TAXINFO *,std::less<unsigned char>,std::allocator<std::pair<unsigned char const ,__TAXINFO *> > >::insert<std::pair<int,__TAXINFO *>,0>

; 30   : 	m_mapTaxInfo.find( CONT_EAST )->second->mapTaxDetail.insert( make_pair( TAX_ADMISSION, new __TAXDETAIL ) ); 

  000f0	6a 14		 push	 20			; 00000014H
  000f2	e8 00 00 00 00	 call	 ??2@YAPAXI@Z		; operator new
  000f7	83 c4 04	 add	 esp, 4
  000fa	89 45 e8	 mov	 DWORD PTR $T15[ebp], eax
  000fd	85 c0		 test	 eax, eax
  000ff	74 24		 je	 SHORT $LN6@CTax
; File C:\IAGOS\server\v18\Source\Source\_Common\tax.h

; 55   : 		nTaxRate = 0;

  00101	c7 00 00 00 00
	00		 mov	 DWORD PTR [eax], 0

; 56   : #ifdef __DBSERVER
; 57   : 		nTaxCount = 0;

  00107	c7 40 04 00 00
	00 00		 mov	 DWORD PTR [eax+4], 0

; 58   : 		nTaxGold = 0;

  0010e	c7 40 08 00 00
	00 00		 mov	 DWORD PTR [eax+8], 0

; 59   : 		nTaxPerin = 0;

  00115	c7 40 0c 00 00
	00 00		 mov	 DWORD PTR [eax+12], 0

; 60   : 		nNextTaxRate = 0;

  0011c	c7 40 10 00 00
	00 00		 mov	 DWORD PTR [eax+16], 0
; File C:\IAGOS\server\v18\Source\Source\_Common\Tax.cpp

; 30   : 	m_mapTaxInfo.find( CONT_EAST )->second->mapTaxDetail.insert( make_pair( TAX_ADMISSION, new __TAXDETAIL ) ); 

  00123	eb 02		 jmp	 SHORT $LN7@CTax
$LN6@CTax:
  00125	33 c0		 xor	 eax, eax
$LN7@CTax:
; File C:\Program Files\Microsoft Visual Studio\2022\Professional\VC\Tools\MSVC\14.44.35207\include\utility

; 274  :         : first(_STD forward<_Other1>(_Val1)), second(_STD forward<_Other2>(_Val2)) {

  00127	89 45 e8	 mov	 DWORD PTR $T10[ebp+4], eax
; File C:\Program Files\Microsoft Visual Studio\2022\Professional\VC\Tools\MSVC\14.44.35207\include\xtree

; 1384 :         const _Tree_find_result<_Nodeptr> _Loc = _Find_lower_bound(_Keyval);

  0012a	8b cf		 mov	 ecx, edi
  0012c	8d 45 f3	 lea	 eax, DWORD PTR $T19[ebp]
; File C:\IAGOS\server\v18\Source\Source\_Common\Tax.cpp

; 30   : 	m_mapTaxInfo.find( CONT_EAST )->second->mapTaxDetail.insert( make_pair( TAX_ADMISSION, new __TAXDETAIL ) ); 

  0012f	c6 45 f3 0f	 mov	 BYTE PTR $T19[ebp], 15	; 0000000fH
; File C:\Program Files\Microsoft Visual Studio\2022\Professional\VC\Tools\MSVC\14.44.35207\include\xtree

; 1384 :         const _Tree_find_result<_Nodeptr> _Loc = _Find_lower_bound(_Keyval);

  00133	50		 push	 eax
  00134	8d 45 d8	 lea	 eax, DWORD PTR __Loc$2[ebp]
; File C:\Program Files\Microsoft Visual Studio\2022\Professional\VC\Tools\MSVC\14.44.35207\include\utility

; 274  :         : first(_STD forward<_Other1>(_Val1)), second(_STD forward<_Other2>(_Val2)) {

  00137	c6 45 e4 02	 mov	 BYTE PTR $T10[ebp], 2
; File C:\Program Files\Microsoft Visual Studio\2022\Professional\VC\Tools\MSVC\14.44.35207\include\xtree

; 1384 :         const _Tree_find_result<_Nodeptr> _Loc = _Find_lower_bound(_Keyval);

  0013b	50		 push	 eax
  0013c	e8 00 00 00 00	 call	 ??$_Find_lower_bound@E@?$_Tree@V?$_Tmap_traits@EPAU__TAXINFO@@U?$less@E@std@@V?$allocator@U?$pair@$$CBEPAU__TAXINFO@@@std@@@3@$0A@@std@@@std@@IBE?AU?$_Tree_find_result@PAU?$_Tree_node@U?$pair@$$CBEPAU__TAXINFO@@@std@@PAX@std@@@1@ABE@Z ; std::_Tree<std::_Tmap_traits<unsigned char,__TAXINFO *,std::less<unsigned char>,std::allocator<std::pair<unsigned char const ,__TAXINFO *> >,0> >::_Find_lower_bound<unsigned char>

; 1624 :         return !_Bound->_Isnil && !_DEBUG_LT_PRED(_Getcomp(), _Keyval, _Traits::_Kfn(_Bound->_Myval));

  00141	8b 4d e0	 mov	 ecx, DWORD PTR __Loc$2[ebp+8]
  00144	80 79 0d 00	 cmp	 BYTE PTR [ecx+13], 0
  00148	75 06		 jne	 SHORT $LN103@CTax
; File C:\Program Files\Microsoft Visual Studio\2022\Professional\VC\Tools\MSVC\14.44.35207\include\type_traits

; 2380 :         return _Left < _Right;

  0014a	80 79 10 0f	 cmp	 BYTE PTR [ecx+16], 15	; 0000000fH
; File C:\Program Files\Microsoft Visual Studio\2022\Professional\VC\Tools\MSVC\14.44.35207\include\xtree

; 1624 :         return !_Bound->_Isnil && !_DEBUG_LT_PRED(_Getcomp(), _Keyval, _Traits::_Kfn(_Bound->_Myval));

  0014e	76 02		 jbe	 SHORT $LN102@CTax
$LN103@CTax:

; 1389 :         return _Get_scary()->_Myhead;

  00150	8b 0f		 mov	 ecx, DWORD PTR [edi]
$LN102@CTax:
; File C:\IAGOS\server\v18\Source\Source\_Common\Tax.cpp

; 30   : 	m_mapTaxInfo.find( CONT_EAST )->second->mapTaxDetail.insert( make_pair( TAX_ADMISSION, new __TAXDETAIL ) ); 

  00152	8b 49 14	 mov	 ecx, DWORD PTR [ecx+20]
  00155	8d 45 e4	 lea	 eax, DWORD PTR $T10[ebp]
  00158	50		 push	 eax
  00159	8d 45 dc	 lea	 eax, DWORD PTR $T5[ebp]
  0015c	83 c1 08	 add	 ecx, 8
  0015f	50		 push	 eax
  00160	e8 00 00 00 00	 call	 ??$insert@U?$pair@EPAU__TAXDETAIL@@@std@@$0A@@?$map@EPAU__TAXDETAIL@@U?$less@E@std@@V?$allocator@U?$pair@$$CBEPAU__TAXDETAIL@@@std@@@3@@std@@QAE?AU?$pair@V?$_Tree_iterator@V?$_Tree_val@U?$_Tree_simple_types@U?$pair@$$CBEPAU__TAXDETAIL@@@std@@@std@@@std@@@std@@_N@1@$$QAU?$pair@EPAU__TAXDETAIL@@@1@@Z ; std::map<unsigned char,__TAXDETAIL *,std::less<unsigned char>,std::allocator<std::pair<unsigned char const ,__TAXDETAIL *> > >::insert<std::pair<unsigned char,__TAXDETAIL *>,0>

; 31   : 	m_mapTaxInfo.insert( make_pair(CONT_WEST, new __TAXINFO) );		// Ľ­şÎ Áˇ·É ±ćµĺ

  00165	6a 14		 push	 20			; 00000014H
  00167	e8 00 00 00 00	 call	 ??2@YAPAXI@Z		; operator new
  0016c	83 c4 04	 add	 esp, 4
  0016f	89 45 e8	 mov	 DWORD PTR $T16[ebp], eax
  00172	c6 45 fc 06	 mov	 BYTE PTR __$EHRec$[ebp+8], 6
  00176	85 c0		 test	 eax, eax
  00178	74 09		 je	 SHORT $LN8@CTax
  0017a	8b c8		 mov	 ecx, eax
  0017c	e8 00 00 00 00	 call	 ??0__TAXINFO@@QAE@XZ	; __TAXINFO::__TAXINFO
  00181	eb 02		 jmp	 SHORT $LN9@CTax
$LN8@CTax:
  00183	33 c0		 xor	 eax, eax
$LN9@CTax:
; File C:\Program Files\Microsoft Visual Studio\2022\Professional\VC\Tools\MSVC\14.44.35207\include\utility

; 274  :         : first(_STD forward<_Other1>(_Val1)), second(_STD forward<_Other2>(_Val2)) {

  00185	89 45 e8	 mov	 DWORD PTR $T11[ebp+4], eax
; File C:\IAGOS\server\v18\Source\Source\_Common\Tax.cpp

; 31   : 	m_mapTaxInfo.insert( make_pair(CONT_WEST, new __TAXINFO) );		// Ľ­şÎ Áˇ·É ±ćµĺ

  00188	8b cf		 mov	 ecx, edi
  0018a	8d 45 e4	 lea	 eax, DWORD PTR $T11[ebp]
  0018d	c6 45 fc 04	 mov	 BYTE PTR __$EHRec$[ebp+8], 4
  00191	50		 push	 eax
  00192	8d 45 dc	 lea	 eax, DWORD PTR $T6[ebp]
; File C:\Program Files\Microsoft Visual Studio\2022\Professional\VC\Tools\MSVC\14.44.35207\include\utility

; 274  :         : first(_STD forward<_Other1>(_Val1)), second(_STD forward<_Other2>(_Val2)) {

  00195	c7 45 e4 f0 00
	00 00		 mov	 DWORD PTR $T11[ebp], 240 ; 000000f0H
; File C:\IAGOS\server\v18\Source\Source\_Common\Tax.cpp

; 31   : 	m_mapTaxInfo.insert( make_pair(CONT_WEST, new __TAXINFO) );		// Ľ­şÎ Áˇ·É ±ćµĺ

  0019c	50		 push	 eax
  0019d	e8 00 00 00 00	 call	 ??$insert@U?$pair@HPAU__TAXINFO@@@std@@$0A@@?$map@EPAU__TAXINFO@@U?$less@E@std@@V?$allocator@U?$pair@$$CBEPAU__TAXINFO@@@std@@@3@@std@@QAE?AU?$pair@V?$_Tree_iterator@V?$_Tree_val@U?$_Tree_simple_types@U?$pair@$$CBEPAU__TAXINFO@@@std@@@std@@@std@@@std@@_N@1@$$QAU?$pair@HPAU__TAXINFO@@@1@@Z ; std::map<unsigned char,__TAXINFO *,std::less<unsigned char>,std::allocator<std::pair<unsigned char const ,__TAXINFO *> > >::insert<std::pair<int,__TAXINFO *>,0>

; 32   : 	m_mapTaxInfo.insert( make_pair(CONT_ALL, new __TAXINFO) );		// ±şÁÖ - ŔÔŔĺ·áµµ Ć÷ÇÔ

  001a2	6a 14		 push	 20			; 00000014H
  001a4	e8 00 00 00 00	 call	 ??2@YAPAXI@Z		; operator new
  001a9	83 c4 04	 add	 esp, 4
  001ac	89 45 e8	 mov	 DWORD PTR $T17[ebp], eax
  001af	c6 45 fc 07	 mov	 BYTE PTR __$EHRec$[ebp+8], 7
  001b3	85 c0		 test	 eax, eax
  001b5	74 09		 je	 SHORT $LN10@CTax
  001b7	8b c8		 mov	 ecx, eax
  001b9	e8 00 00 00 00	 call	 ??0__TAXINFO@@QAE@XZ	; __TAXINFO::__TAXINFO
  001be	eb 02		 jmp	 SHORT $LN11@CTax
$LN10@CTax:
  001c0	33 c0		 xor	 eax, eax
$LN11@CTax:
; File C:\Program Files\Microsoft Visual Studio\2022\Professional\VC\Tools\MSVC\14.44.35207\include\utility

; 274  :         : first(_STD forward<_Other1>(_Val1)), second(_STD forward<_Other2>(_Val2)) {

  001c2	89 45 e8	 mov	 DWORD PTR $T12[ebp+4], eax
; File C:\IAGOS\server\v18\Source\Source\_Common\Tax.cpp

; 32   : 	m_mapTaxInfo.insert( make_pair(CONT_ALL, new __TAXINFO) );		// ±şÁÖ - ŔÔŔĺ·áµµ Ć÷ÇÔ

  001c5	8b cf		 mov	 ecx, edi
  001c7	8d 45 e4	 lea	 eax, DWORD PTR $T12[ebp]
  001ca	c6 45 fc 04	 mov	 BYTE PTR __$EHRec$[ebp+8], 4
  001ce	50		 push	 eax
  001cf	8d 45 dc	 lea	 eax, DWORD PTR $T7[ebp]
; File C:\Program Files\Microsoft Visual Studio\2022\Professional\VC\Tools\MSVC\14.44.35207\include\utility

; 274  :         : first(_STD forward<_Other1>(_Val1)), second(_STD forward<_Other2>(_Val2)) {

  001d2	c7 45 e4 ff 00
	00 00		 mov	 DWORD PTR $T12[ebp], 255 ; 000000ffH
; File C:\IAGOS\server\v18\Source\Source\_Common\Tax.cpp

; 32   : 	m_mapTaxInfo.insert( make_pair(CONT_ALL, new __TAXINFO) );		// ±şÁÖ - ŔÔŔĺ·áµµ Ć÷ÇÔ

  001d9	50		 push	 eax
  001da	e8 00 00 00 00	 call	 ??$insert@U?$pair@HPAU__TAXINFO@@@std@@$0A@@?$map@EPAU__TAXINFO@@U?$less@E@std@@V?$allocator@U?$pair@$$CBEPAU__TAXINFO@@@std@@@3@@std@@QAE?AU?$pair@V?$_Tree_iterator@V?$_Tree_val@U?$_Tree_simple_types@U?$pair@$$CBEPAU__TAXINFO@@@std@@@std@@@std@@@std@@_N@1@$$QAU?$pair@HPAU__TAXINFO@@@1@@Z ; std::map<unsigned char,__TAXINFO *,std::less<unsigned char>,std::allocator<std::pair<unsigned char const ,__TAXINFO *> > >::insert<std::pair<int,__TAXINFO *>,0>

; 33   : 	m_mapTaxInfo.find( CONT_ALL )->second->mapTaxDetail.insert( make_pair( TAX_ADMISSION, new __TAXDETAIL ) );

  001df	6a 14		 push	 20			; 00000014H
  001e1	e8 00 00 00 00	 call	 ??2@YAPAXI@Z		; operator new
  001e6	83 c4 04	 add	 esp, 4
  001e9	89 45 e8	 mov	 DWORD PTR $T18[ebp], eax
  001ec	85 c0		 test	 eax, eax
  001ee	74 24		 je	 SHORT $LN12@CTax
; File C:\IAGOS\server\v18\Source\Source\_Common\tax.h

; 55   : 		nTaxRate = 0;

  001f0	c7 00 00 00 00
	00		 mov	 DWORD PTR [eax], 0

; 56   : #ifdef __DBSERVER
; 57   : 		nTaxCount = 0;

  001f6	c7 40 04 00 00
	00 00		 mov	 DWORD PTR [eax+4], 0

; 58   : 		nTaxGold = 0;

  001fd	c7 40 08 00 00
	00 00		 mov	 DWORD PTR [eax+8], 0

; 59   : 		nTaxPerin = 0;

  00204	c7 40 0c 00 00
	00 00		 mov	 DWORD PTR [eax+12], 0

; 60   : 		nNextTaxRate = 0;

  0020b	c7 40 10 00 00
	00 00		 mov	 DWORD PTR [eax+16], 0
; File C:\IAGOS\server\v18\Source\Source\_Common\Tax.cpp

; 33   : 	m_mapTaxInfo.find( CONT_ALL )->second->mapTaxDetail.insert( make_pair( TAX_ADMISSION, new __TAXDETAIL ) );

  00212	eb 02		 jmp	 SHORT $LN13@CTax
$LN12@CTax:
  00214	33 c0		 xor	 eax, eax
$LN13@CTax:
; File C:\Program Files\Microsoft Visual Studio\2022\Professional\VC\Tools\MSVC\14.44.35207\include\utility

; 274  :         : first(_STD forward<_Other1>(_Val1)), second(_STD forward<_Other2>(_Val2)) {

  00216	89 45 e8	 mov	 DWORD PTR $T13[ebp+4], eax
; File C:\Program Files\Microsoft Visual Studio\2022\Professional\VC\Tools\MSVC\14.44.35207\include\xtree

; 1384 :         const _Tree_find_result<_Nodeptr> _Loc = _Find_lower_bound(_Keyval);

  00219	8b cf		 mov	 ecx, edi
  0021b	8d 45 f3	 lea	 eax, DWORD PTR $T20[ebp]
; File C:\IAGOS\server\v18\Source\Source\_Common\Tax.cpp

; 33   : 	m_mapTaxInfo.find( CONT_ALL )->second->mapTaxDetail.insert( make_pair( TAX_ADMISSION, new __TAXDETAIL ) );

  0021e	c6 45 f3 ff	 mov	 BYTE PTR $T20[ebp], 255	; 000000ffH
; File C:\Program Files\Microsoft Visual Studio\2022\Professional\VC\Tools\MSVC\14.44.35207\include\xtree

; 1384 :         const _Tree_find_result<_Nodeptr> _Loc = _Find_lower_bound(_Keyval);

  00222	50		 push	 eax
  00223	8d 45 d8	 lea	 eax, DWORD PTR __Loc$3[ebp]
; File C:\Program Files\Microsoft Visual Studio\2022\Professional\VC\Tools\MSVC\14.44.35207\include\utility

; 274  :         : first(_STD forward<_Other1>(_Val1)), second(_STD forward<_Other2>(_Val2)) {

  00226	c6 45 e4 02	 mov	 BYTE PTR $T13[ebp], 2
; File C:\Program Files\Microsoft Visual Studio\2022\Professional\VC\Tools\MSVC\14.44.35207\include\xtree

; 1384 :         const _Tree_find_result<_Nodeptr> _Loc = _Find_lower_bound(_Keyval);

  0022a	50		 push	 eax
  0022b	e8 00 00 00 00	 call	 ??$_Find_lower_bound@E@?$_Tree@V?$_Tmap_traits@EPAU__TAXINFO@@U?$less@E@std@@V?$allocator@U?$pair@$$CBEPAU__TAXINFO@@@std@@@3@$0A@@std@@@std@@IBE?AU?$_Tree_find_result@PAU?$_Tree_node@U?$pair@$$CBEPAU__TAXINFO@@@std@@PAX@std@@@1@ABE@Z ; std::_Tree<std::_Tmap_traits<unsigned char,__TAXINFO *,std::less<unsigned char>,std::allocator<std::pair<unsigned char const ,__TAXINFO *> >,0> >::_Find_lower_bound<unsigned char>

; 1624 :         return !_Bound->_Isnil && !_DEBUG_LT_PRED(_Getcomp(), _Keyval, _Traits::_Kfn(_Bound->_Myval));

  00230	8b 4d e0	 mov	 ecx, DWORD PTR __Loc$3[ebp+8]
  00233	80 79 0d 00	 cmp	 BYTE PTR [ecx+13], 0
  00237	74 02		 je	 SHORT $LN150@CTax

; 1389 :         return _Get_scary()->_Myhead;

  00239	8b 0f		 mov	 ecx, DWORD PTR [edi]
$LN150@CTax:
; File C:\IAGOS\server\v18\Source\Source\_Common\Tax.cpp

; 33   : 	m_mapTaxInfo.find( CONT_ALL )->second->mapTaxDetail.insert( make_pair( TAX_ADMISSION, new __TAXDETAIL ) );

  0023b	8b 49 14	 mov	 ecx, DWORD PTR [ecx+20]
  0023e	8d 45 e4	 lea	 eax, DWORD PTR $T13[ebp]
  00241	50		 push	 eax
  00242	8d 45 dc	 lea	 eax, DWORD PTR $T8[ebp]
  00245	83 c1 08	 add	 ecx, 8
  00248	50		 push	 eax
  00249	e8 00 00 00 00	 call	 ??$insert@U?$pair@EPAU__TAXDETAIL@@@std@@$0A@@?$map@EPAU__TAXDETAIL@@U?$less@E@std@@V?$allocator@U?$pair@$$CBEPAU__TAXDETAIL@@@std@@@3@@std@@QAE?AU?$pair@V?$_Tree_iterator@V?$_Tree_val@U?$_Tree_simple_types@U?$pair@$$CBEPAU__TAXDETAIL@@@std@@@std@@@std@@@std@@_N@1@$$QAU?$pair@EPAU__TAXDETAIL@@@1@@Z ; std::map<unsigned char,__TAXDETAIL *,std::less<unsigned char>,std::allocator<std::pair<unsigned char const ,__TAXDETAIL *> > >::insert<std::pair<unsigned char,__TAXDETAIL *>,0>

; 34   : 
; 35   : #ifdef __DBSERVER
; 36   : 	m_nTaxSecretRoomRate = 0;
; 37   : 	m_nTaxLordRate = 0;
; 38   : 	m_nAdmissionSecretRoomRate = 0;
; 39   : 	m_nAdmissionLordRate = 0;
; 40   : 	m_nDBSaveCount = 1;
; 41   : //	m_strChangedDate.clear();
; 42   : 
; 43   : 	// DBController thread »ýĽş
; 44   : 	if( !m_taxDBController.CreateDbHandler( MIN(1) ) )	// 1şĐżˇ ÇŃąř OnTimer()¸¦ callÇŃ´Ů.

  0024e	68 60 ea 00 00	 push	 60000			; 0000ea60H
  00253	8d 4e 2c	 lea	 ecx, DWORD PTR [esi+44]
  00256	c7 46 10 00 00
	00 00		 mov	 DWORD PTR [esi+16], 0
  0025d	c7 46 14 00 00
	00 00		 mov	 DWORD PTR [esi+20], 0
  00264	c7 46 18 00 00
	00 00		 mov	 DWORD PTR [esi+24], 0
  0026b	c7 46 1c 00 00
	00 00		 mov	 DWORD PTR [esi+28], 0
  00272	c7 46 20 01 00
	00 00		 mov	 DWORD PTR [esi+32], 1
  00279	e8 00 00 00 00	 call	 ?CreateDbHandler@CDbController@@QAEHK@Z ; CDbController::CreateDbHandler
  0027e	85 c0		 test	 eax, eax
  00280	75 0d		 jne	 SHORT $LN184@CTax

; 45   : 		Error( "CTax - m_Controller.CreateDbHandler()" );

  00282	68 00 00 00 00	 push	 OFFSET ??_C@_0CG@PBPHIFHD@CTax?5?9?5m_Controller?4CreateDbHan@
  00287	e8 00 00 00 00	 call	 ?Error@@YAPBDPBDZZ	; Error
  0028c	83 c4 04	 add	 esp, 4
$LN184@CTax:

; 46   : #endif // __DBSERVER
; 47   : }

  0028f	8b c6		 mov	 eax, esi
  00291	8b 4d f4	 mov	 ecx, DWORD PTR __$EHRec$[ebp]
  00294	64 89 0d 00 00
	00 00		 mov	 DWORD PTR fs:0, ecx
  0029b	59		 pop	 ecx
  0029c	5f		 pop	 edi
  0029d	5e		 pop	 esi
  0029e	8b e5		 mov	 esp, ebp
  002a0	5d		 pop	 ebp
  002a1	c3		 ret	 0
_TEXT	ENDS
;	COMDAT text$x
text$x	SEGMENT
__unwindfunclet$??0CTax@@QAE@XZ$0:
  00000	8b 4d ec	 mov	 ecx, DWORD PTR _this$[ebp]
  00003	83 c1 08	 add	 ecx, 8
  00006	e9 00 00 00 00	 jmp	 ??1?$map@EPAU__TAXINFO@@U?$less@E@std@@V?$allocator@U?$pair@$$CBEPAU__TAXINFO@@@std@@@3@@std@@QAE@XZ
__unwindfunclet$??0CTax@@QAE@XZ$1:
  0000b	8b 4d ec	 mov	 ecx, DWORD PTR _this$[ebp]
  0000e	83 c1 24	 add	 ecx, 36			; 00000024H
  00011	e9 00 00 00 00	 jmp	 ??1CLuaBase@@UAE@XZ	; CLuaBase::~CLuaBase
__unwindfunclet$??0CTax@@QAE@XZ$2:
  00016	8b 4d ec	 mov	 ecx, DWORD PTR _this$[ebp]
  00019	83 c1 2c	 add	 ecx, 44			; 0000002cH
  0001c	e9 00 00 00 00	 jmp	 ??1CTaxDBController@@UAE@XZ ; CTaxDBController::~CTaxDBController
__unwindfunclet$??0CTax@@QAE@XZ$3:
  00021	8b 4d ec	 mov	 ecx, DWORD PTR _this$[ebp]
  00024	83 c1 48	 add	 ecx, 72			; 00000048H
  00027	e9 00 00 00 00	 jmp	 ??1?$basic_string@DU?$char_traits@D@std@@V?$allocator@D@2@@std@@QAE@XZ ; std::basic_string<char,std::char_traits<char>,std::allocator<char> >::~basic_string<char,std::char_traits<char>,std::allocator<char> >
__unwindfunclet$??0CTax@@QAE@XZ$4:
  0002c	8b 4d ec	 mov	 ecx, DWORD PTR _this$[ebp]
  0002f	83 c1 60	 add	 ecx, 96			; 00000060H
  00032	e9 00 00 00 00	 jmp	 ??1?$vector@KV?$allocator@K@std@@@std@@QAE@XZ ; std::vector<unsigned long,std::allocator<unsigned long> >::~vector<unsigned long,std::allocator<unsigned long> >
__unwindfunclet$??0CTax@@QAE@XZ$5:
  00037	6a 14		 push	 20			; 00000014H
  00039	8b 45 e8	 mov	 eax, DWORD PTR $T14[ebp]
  0003c	50		 push	 eax
  0003d	e8 00 00 00 00	 call	 ??3@YAXPAXI@Z		; operator delete
  00042	83 c4 08	 add	 esp, 8
  00045	c3		 ret	 0
__unwindfunclet$??0CTax@@QAE@XZ$7:
  00046	6a 14		 push	 20			; 00000014H
  00048	8b 45 e8	 mov	 eax, DWORD PTR $T16[ebp]
  0004b	50		 push	 eax
  0004c	e8 00 00 00 00	 call	 ??3@YAXPAXI@Z		; operator delete
  00051	83 c4 08	 add	 esp, 8
  00054	c3		 ret	 0
__unwindfunclet$??0CTax@@QAE@XZ$8:
  00055	6a 14		 push	 20			; 00000014H
  00057	8b 45 e8	 mov	 eax, DWORD PTR $T17[ebp]
  0005a	50		 push	 eax
  0005b	e8 00 00 00 00	 call	 ??3@YAXPAXI@Z		; operator delete
  00060	83 c4 08	 add	 esp, 8
  00063	c3		 ret	 0
  00064	cc		 int	 3
  00065	cc		 int	 3
  00066	cc		 int	 3
  00067	cc		 int	 3
  00068	cc		 int	 3
__ehhandler$??0CTax@@QAE@XZ:
  00069	90		 npad	 1
  0006a	90		 npad	 1
  0006b	8b 54 24 08	 mov	 edx, DWORD PTR [esp+8]
  0006f	8d 42 0c	 lea	 eax, DWORD PTR [edx+12]
  00072	8b 4a d8	 mov	 ecx, DWORD PTR [edx-40]
  00075	33 c8		 xor	 ecx, eax
  00077	e8 00 00 00 00	 call	 @__security_check_cookie@4
  0007c	b8 00 00 00 00	 mov	 eax, OFFSET __ehfuncinfo$??0CTax@@QAE@XZ
  00081	e9 00 00 00 00	 jmp	 ___CxxFrameHandler3
text$x	ENDS
??0CTax@@QAE@XZ ENDP					; CTax::CTax
; Function compile flags: /Ogtp
; File C:\Program Files\Microsoft Visual Studio\2022\Professional\VC\Tools\MSVC\14.44.35207\include\xtree
;	COMDAT ??E?$_Tree_iterator@V?$_Tree_val@U?$_Tree_simple_types@U?$pair@$$CBEPAU__TAXDETAIL@@@std@@@std@@@std@@@std@@QAE?AV01@H@Z
_TEXT	SEGMENT
___$ReturnUdt$ = 8					; size = 4
___formal$ = 12						; size = 4
??E?$_Tree_iterator@V?$_Tree_val@U?$_Tree_simple_types@U?$pair@$$CBEPAU__TAXDETAIL@@@std@@@std@@@std@@@std@@QAE?AV01@H@Z PROC ; std::_Tree_iterator<std::_Tree_val<std::_Tree_simple_types<std::pair<unsigned char const ,__TAXDETAIL *> > > >::operator++, COMDAT
; _this$ = ecx

; 286  :     _Tree_iterator operator++(int) noexcept {

  00000	55		 push	 ebp
  00001	8b ec		 mov	 ebp, esp
  00003	56		 push	 esi
  00004	8b f1		 mov	 esi, ecx
  00006	57		 push	 edi

; 287  :         _Tree_iterator _Tmp = *this;

  00007	8b 7d 08	 mov	 edi, DWORD PTR ___$ReturnUdt$[ebp]
  0000a	8b 06		 mov	 eax, DWORD PTR [esi]
  0000c	89 07		 mov	 DWORD PTR [edi], eax

; 50   :         if (_Ptr->_Right->_Isnil) { // climb looking for right subtree

  0000e	8b 50 08	 mov	 edx, DWORD PTR [eax+8]
  00011	80 7a 0d 00	 cmp	 BYTE PTR [edx+13], 0
  00015	74 25		 je	 SHORT $LN10@operator

; 51   :             _Nodeptr _Pnode;
; 52   :             while (!(_Pnode = _Ptr->_Parent)->_Isnil && _Ptr == _Pnode->_Right) {

  00017	8b 50 04	 mov	 edx, DWORD PTR [eax+4]
  0001a	80 7a 0d 00	 cmp	 BYTE PTR [edx+13], 0
  0001e	75 30		 jne	 SHORT $LN16@operator
$LL8@operator:
  00020	3b 42 08	 cmp	 eax, DWORD PTR [edx+8]
  00023	75 2b		 jne	 SHORT $LN16@operator

; 53   :                 _Ptr = _Pnode; // ==> parent while right subtree

  00025	89 16		 mov	 DWORD PTR [esi], edx
  00027	8b c2		 mov	 eax, edx
  00029	8b 52 04	 mov	 edx, DWORD PTR [edx+4]
  0002c	80 7a 0d 00	 cmp	 BYTE PTR [edx+13], 0
  00030	74 ee		 je	 SHORT $LL8@operator

; 288  :         _Mybase::operator++();
; 289  :         return _Tmp;
; 290  :     }

  00032	8b c7		 mov	 eax, edi
  00034	89 16		 mov	 DWORD PTR [esi], edx
  00036	5f		 pop	 edi
  00037	5e		 pop	 esi
  00038	5d		 pop	 ebp
  00039	c2 08 00	 ret	 8
$LN10@operator:

; 476  :         while (!_Pnode->_Left->_Isnil) {

  0003c	8b 0a		 mov	 ecx, DWORD PTR [edx]
  0003e	80 79 0d 00	 cmp	 BYTE PTR [ecx+13], 0
  00042	75 0c		 jne	 SHORT $LN16@operator
$LL15@operator:
  00044	8b 01		 mov	 eax, DWORD PTR [ecx]

; 477  :             _Pnode = _Pnode->_Left;

  00046	8b d1		 mov	 edx, ecx
  00048	8b c8		 mov	 ecx, eax
  0004a	80 78 0d 00	 cmp	 BYTE PTR [eax+13], 0
  0004e	74 f4		 je	 SHORT $LL15@operator
$LN16@operator:

; 288  :         _Mybase::operator++();
; 289  :         return _Tmp;
; 290  :     }

  00050	8b c7		 mov	 eax, edi
  00052	89 16		 mov	 DWORD PTR [esi], edx
  00054	5f		 pop	 edi
  00055	5e		 pop	 esi
  00056	5d		 pop	 ebp
  00057	c2 08 00	 ret	 8
??E?$_Tree_iterator@V?$_Tree_val@U?$_Tree_simple_types@U?$pair@$$CBEPAU__TAXDETAIL@@@std@@@std@@@std@@@std@@QAE?AV01@H@Z ENDP ; std::_Tree_iterator<std::_Tree_val<std::_Tree_simple_types<std::pair<unsigned char const ,__TAXDETAIL *> > > >::operator++
_TEXT	ENDS
; Function compile flags: /Ogtp
; File C:\Program Files\Microsoft Visual Studio\2022\Professional\VC\Tools\MSVC\14.44.35207\include\map
; File C:\Program Files\Microsoft Visual Studio\2022\Professional\VC\Tools\MSVC\14.44.35207\include\xtree
; File C:\Program Files\Microsoft Visual Studio\2022\Professional\VC\Tools\MSVC\14.44.35207\include\type_traits
; File C:\Program Files\Microsoft Visual Studio\2022\Professional\VC\Tools\MSVC\14.44.35207\include\xtree
; File C:\Program Files\Microsoft Visual Studio\2022\Professional\VC\Tools\MSVC\14.44.35207\include\utility
; File C:\Program Files\Microsoft Visual Studio\2022\Professional\VC\Tools\MSVC\14.44.35207\include\xtree
; File C:\Program Files\Microsoft Visual Studio\2022\Professional\VC\Tools\MSVC\14.44.35207\include\xmemory
; File C:\Program Files\Microsoft Visual Studio\2022\Professional\VC\Tools\MSVC\14.44.35207\include\xtree
; File C:\Program Files\Microsoft Visual Studio\2022\Professional\VC\Tools\MSVC\14.44.35207\include\xmemory
; File C:\Program Files\Microsoft Visual Studio\2022\Professional\VC\Tools\MSVC\14.44.35207\include\utility
; File C:\Program Files\Microsoft Visual Studio\2022\Professional\VC\Tools\MSVC\14.44.35207\include\xmemory
; File C:\Program Files\Microsoft Visual Studio\2022\Professional\VC\Tools\MSVC\14.44.35207\include\utility
; File C:\Program Files\Microsoft Visual Studio\2022\Professional\VC\Tools\MSVC\14.44.35207\include\xtree
; File C:\Program Files\Microsoft Visual Studio\2022\Professional\VC\Tools\MSVC\14.44.35207\include\utility
; File C:\Program Files\Microsoft Visual Studio\2022\Professional\VC\Tools\MSVC\14.44.35207\include\map
; File C:\Program Files\Microsoft Visual Studio\2022\Professional\VC\Tools\MSVC\14.44.35207\include\xtree
; File C:\Program Files\Microsoft Visual Studio\2022\Professional\VC\Tools\MSVC\14.44.35207\include\map
;	COMDAT ??$insert@U?$pair@EPAU__TAXDETAIL@@@std@@$0A@@?$map@EPAU__TAXDETAIL@@U?$less@E@std@@V?$allocator@U?$pair@$$CBEPAU__TAXDETAIL@@@std@@@3@@std@@QAE?AU?$pair@V?$_Tree_iterator@V?$_Tree_val@U?$_Tree_simple_types@U?$pair@$$CBEPAU__TAXDETAIL@@@std@@@std@@@std@@@std@@_N@1@$$QAU?$pair@EPAU__TAXDETAIL@@@1@@Z
_TEXT	SEGMENT
__Loc$3 = -36						; size = 12
$T4 = -24						; size = 12
$T5 = -20						; size = 8
__$EHRec$ = -12						; size = 12
___$ReturnUdt$ = 8					; size = 4
__Val$ = 12						; size = 4
??$insert@U?$pair@EPAU__TAXDETAIL@@@std@@$0A@@?$map@EPAU__TAXDETAIL@@U?$less@E@std@@V?$allocator@U?$pair@$$CBEPAU__TAXDETAIL@@@std@@@3@@std@@QAE?AU?$pair@V?$_Tree_iterator@V?$_Tree_val@U?$_Tree_simple_types@U?$pair@$$CBEPAU__TAXDETAIL@@@std@@@std@@@std@@@std@@_N@1@$$QAU?$pair@EPAU__TAXDETAIL@@@1@@Z PROC ; std::map<unsigned char,__TAXDETAIL *,std::less<unsigned char>,std::allocator<std::pair<unsigned char const ,__TAXDETAIL *> > >::insert<std::pair<unsigned char,__TAXDETAIL *>,0>, COMDAT
; _this$ = ecx

; 185  :     pair<iterator, bool> insert(_Valty&& _Val) {

  00000	55		 push	 ebp
  00001	8b ec		 mov	 ebp, esp
  00003	6a ff		 push	 -1
  00005	68 00 00 00 00	 push	 __ehhandler$??$insert@U?$pair@EPAU__TAXDETAIL@@@std@@$0A@@?$map@EPAU__TAXDETAIL@@U?$less@E@std@@V?$allocator@U?$pair@$$CBEPAU__TAXDETAIL@@@std@@@3@@std@@QAE?AU?$pair@V?$_Tree_iterator@V?$_Tree_val@U?$_Tree_simple_types@U?$pair@$$CBEPAU__TAXDETAIL@@@std@@@std@@@std@@@std@@_N@1@$$QAU?$pair@EPAU__TAXDETAIL@@@1@@Z
  0000a	64 a1 00 00 00
	00		 mov	 eax, DWORD PTR fs:0
  00010	50		 push	 eax
  00011	83 ec 18	 sub	 esp, 24			; 00000018H
  00014	53		 push	 ebx
  00015	56		 push	 esi
  00016	57		 push	 edi
  00017	a1 00 00 00 00	 mov	 eax, DWORD PTR ___security_cookie
  0001c	33 c5		 xor	 eax, ebp
  0001e	50		 push	 eax
  0001f	8d 45 f4	 lea	 eax, DWORD PTR __$EHRec$[ebp]
  00022	64 a3 00 00 00
	00		 mov	 DWORD PTR fs:0, eax
  00028	8b f9		 mov	 edi, ecx
; File C:\Program Files\Microsoft Visual Studio\2022\Professional\VC\Tools\MSVC\14.44.35207\include\xtree

; 1017 :             _Loc                = _Find_lower_bound(_Keyval);

  0002a	8b 5d 0c	 mov	 ebx, DWORD PTR __Val$[ebp]
  0002d	8d 45 e8	 lea	 eax, DWORD PTR $T4[ebp]
  00030	53		 push	 ebx
  00031	50		 push	 eax
  00032	e8 00 00 00 00	 call	 ??$_Find_lower_bound@E@?$_Tree@V?$_Tmap_traits@EPAU__TAXDETAIL@@U?$less@E@std@@V?$allocator@U?$pair@$$CBEPAU__TAXDETAIL@@@std@@@3@$0A@@std@@@std@@IBE?AU?$_Tree_find_result@PAU?$_Tree_node@U?$pair@$$CBEPAU__TAXDETAIL@@@std@@PAX@std@@@1@ABE@Z ; std::_Tree<std::_Tmap_traits<unsigned char,__TAXDETAIL *,std::less<unsigned char>,std::allocator<std::pair<unsigned char const ,__TAXDETAIL *> >,0> >::_Find_lower_bound<unsigned char>
  00037	8b 48 08	 mov	 ecx, DWORD PTR [eax+8]
  0003a	f3 0f 7e 00	 movq	 xmm0, QWORD PTR [eax]
  0003e	66 0f d6 45 dc	 movq	 QWORD PTR __Loc$3[ebp], xmm0

; 1624 :         return !_Bound->_Isnil && !_DEBUG_LT_PRED(_Getcomp(), _Keyval, _Traits::_Kfn(_Bound->_Myval));

  00043	80 79 0d 00	 cmp	 BYTE PTR [ecx+13], 0
  00047	75 0b		 jne	 SHORT $LN6@insert
; File C:\Program Files\Microsoft Visual Studio\2022\Professional\VC\Tools\MSVC\14.44.35207\include\type_traits

; 2380 :         return _Left < _Right;

  00049	8a 03		 mov	 al, BYTE PTR [ebx]
  0004b	3a 41 10	 cmp	 al, BYTE PTR [ecx+16]
; File C:\Program Files\Microsoft Visual Studio\2022\Professional\VC\Tools\MSVC\14.44.35207\include\xtree

; 1624 :         return !_Bound->_Isnil && !_DEBUG_LT_PRED(_Getcomp(), _Keyval, _Traits::_Kfn(_Bound->_Myval));

  0004e	72 04		 jb	 SHORT $LN6@insert
; File C:\Program Files\Microsoft Visual Studio\2022\Professional\VC\Tools\MSVC\14.44.35207\include\utility

; 274  :         : first(_STD forward<_Other1>(_Val1)), second(_STD forward<_Other2>(_Val2)) {

  00050	32 d2		 xor	 dl, dl
; File C:\Program Files\Microsoft Visual Studio\2022\Professional\VC\Tools\MSVC\14.44.35207\include\xtree

; 1019 :                 return {_Loc._Bound, false};

  00052	eb 51		 jmp	 SHORT $LN91@insert
$LN6@insert:

; 1648 :         if (max_size() == _Get_scary()->_Mysize) {

  00054	81 7f 04 aa aa
	aa 0a		 cmp	 DWORD PTR [edi+4], 178956970 ; 0aaaaaaaH
  0005b	74 64		 je	 SHORT $LN113@insert

; 1023 :             _Inserted = _Tree_temp_node<_Alnode>(_Getal(), _Scary->_Myhead, _STD forward<_Valtys>(_Vals)...)._Release();

  0005d	8b 37		 mov	 esi, DWORD PTR [edi]
; File C:\Program Files\Microsoft Visual Studio\2022\Professional\VC\Tools\MSVC\14.44.35207\include\xmemory

; 1160 :     _CONSTEXPR20 explicit _Alloc_construct_ptr(_Alloc& _Al_) : _Al(_Al_), _Ptr(nullptr) {}

  0005f	89 7d ec	 mov	 DWORD PTR $T5[ebp], edi

; 136  :         return ::operator new(_Bytes);

  00062	6a 18		 push	 24			; 00000018H
; File C:\Program Files\Microsoft Visual Studio\2022\Professional\VC\Tools\MSVC\14.44.35207\include\xtree

; 808  :     explicit _Tree_temp_node_alloc(_Alnode& _Al_) : _Alloc_construct_ptr<_Alnode>(_Al_) {

  00064	c7 45 fc 00 00
	00 00		 mov	 DWORD PTR __$EHRec$[ebp+8], 0
; File C:\Program Files\Microsoft Visual Studio\2022\Professional\VC\Tools\MSVC\14.44.35207\include\xmemory

; 1167 :         _Ptr = nullptr; // if allocate throws, prevents double-free

  0006b	c7 45 f0 00 00
	00 00		 mov	 DWORD PTR $T5[ebp+4], 0

; 136  :         return ::operator new(_Bytes);

  00072	e8 00 00 00 00	 call	 ??2@YAPAXI@Z		; operator new
; File C:\Program Files\Microsoft Visual Studio\2022\Professional\VC\Tools\MSVC\14.44.35207\include\utility

; 303  :         : first(_STD forward<_Other1>(_Right.first)), second(_STD forward<_Other2>(_Right.second)) {}

  00077	8a 0b		 mov	 cl, BYTE PTR [ebx]
; File C:\Program Files\Microsoft Visual Studio\2022\Professional\VC\Tools\MSVC\14.44.35207\include\xmemory

; 136  :         return ::operator new(_Bytes);

  00079	83 c4 04	 add	 esp, 4
; File C:\Program Files\Microsoft Visual Studio\2022\Professional\VC\Tools\MSVC\14.44.35207\include\utility

; 303  :         : first(_STD forward<_Other1>(_Right.first)), second(_STD forward<_Other2>(_Right.second)) {}

  0007c	88 48 10	 mov	 BYTE PTR [eax+16], cl
  0007f	8b 4b 04	 mov	 ecx, DWORD PTR [ebx+4]
  00082	89 48 14	 mov	 DWORD PTR [eax+20], ecx
; File C:\Program Files\Microsoft Visual Studio\2022\Professional\VC\Tools\MSVC\14.44.35207\include\xtree

; 1042 :         return {_Scary->_Insert_node(_Loc._Location, _Inserted), true};

  00085	8b cf		 mov	 ecx, edi
  00087	50		 push	 eax
  00088	ff 75 e0	 push	 DWORD PTR __Loc$3[ebp+4]

; 831  :         _Construct_in_place(this->_Ptr->_Left, _Myhead);

  0008b	89 30		 mov	 DWORD PTR [eax], esi

; 1042 :         return {_Scary->_Insert_node(_Loc._Location, _Inserted), true};

  0008d	ff 75 dc	 push	 DWORD PTR __Loc$3[ebp]

; 832  :         _Construct_in_place(this->_Ptr->_Parent, _Myhead);

  00090	89 70 04	 mov	 DWORD PTR [eax+4], esi

; 833  :         _Construct_in_place(this->_Ptr->_Right, _Myhead);

  00093	89 70 08	 mov	 DWORD PTR [eax+8], esi

; 834  :         this->_Ptr->_Color = _Red;

  00096	66 c7 40 0c 00
	00		 mov	 WORD PTR [eax+12], 0

; 1042 :         return {_Scary->_Insert_node(_Loc._Location, _Inserted), true};

  0009c	e8 00 00 00 00	 call	 ?_Insert_node@?$_Tree_val@U?$_Tree_simple_types@U?$pair@$$CBEPAU__TAXDETAIL@@@std@@@std@@@std@@QAEPAU?$_Tree_node@U?$pair@$$CBEPAU__TAXDETAIL@@@std@@PAX@2@U?$_Tree_id@PAU?$_Tree_node@U?$pair@$$CBEPAU__TAXDETAIL@@@std@@PAX@std@@@2@QAU32@@Z ; std::_Tree_val<std::_Tree_simple_types<std::pair<unsigned char const ,__TAXDETAIL *> > >::_Insert_node
; File C:\Program Files\Microsoft Visual Studio\2022\Professional\VC\Tools\MSVC\14.44.35207\include\utility

; 274  :         : first(_STD forward<_Other1>(_Val1)), second(_STD forward<_Other2>(_Val2)) {

  000a1	8b c8		 mov	 ecx, eax
  000a3	b2 01		 mov	 dl, 1
$LN91@insert:
  000a5	8b 45 08	 mov	 eax, DWORD PTR ___$ReturnUdt$[ebp]
  000a8	89 08		 mov	 DWORD PTR [eax], ecx
  000aa	88 50 04	 mov	 BYTE PTR [eax+4], dl
; File C:\Program Files\Microsoft Visual Studio\2022\Professional\VC\Tools\MSVC\14.44.35207\include\map

; 187  :     }

  000ad	8b 4d f4	 mov	 ecx, DWORD PTR __$EHRec$[ebp]
  000b0	64 89 0d 00 00
	00 00		 mov	 DWORD PTR fs:0, ecx
  000b7	59		 pop	 ecx
  000b8	5f		 pop	 edi
  000b9	5e		 pop	 esi
  000ba	5b		 pop	 ebx
  000bb	8b e5		 mov	 esp, ebp
  000bd	5d		 pop	 ebp
  000be	c2 08 00	 ret	 8
$LN113@insert:
; File C:\Program Files\Microsoft Visual Studio\2022\Professional\VC\Tools\MSVC\14.44.35207\include\xtree

; 1649 :             _Throw_tree_length_error();

  000c1	e8 00 00 00 00	 call	 ?_Throw_tree_length_error@std@@YAXXZ ; std::_Throw_tree_length_error
$LN111@insert:
  000c6	cc		 int	 3
_TEXT	ENDS
;	COMDAT text$x
text$x	SEGMENT
__unwindfunclet$??$insert@U?$pair@EPAU__TAXDETAIL@@@std@@$0A@@?$map@EPAU__TAXDETAIL@@U?$less@E@std@@V?$allocator@U?$pair@$$CBEPAU__TAXDETAIL@@@std@@@3@@std@@QAE?AU?$pair@V?$_Tree_iterator@V?$_Tree_val@U?$_Tree_simple_types@U?$pair@$$CBEPAU__TAXDETAIL@@@std@@@std@@@std@@@std@@_N@1@$$QAU?$pair@EPAU__TAXDETAIL@@@1@@Z$2:
  00000	8d 4d ec	 lea	 ecx, DWORD PTR $T5[ebp]
  00003	e9 00 00 00 00	 jmp	 ??1?$_Alloc_construct_ptr@V?$allocator@U?$_Tree_node@U?$pair@$$CBEPAU__TAXDETAIL@@@std@@PAX@std@@@std@@@std@@QAE@XZ ; std::_Alloc_construct_ptr<std::allocator<std::_Tree_node<std::pair<unsigned char const ,__TAXDETAIL *>,void *> > >::~_Alloc_construct_ptr<std::allocator<std::_Tree_node<std::pair<unsigned char const ,__TAXDETAIL *>,void *> > >
  00008	cc		 int	 3
  00009	cc		 int	 3
  0000a	cc		 int	 3
  0000b	cc		 int	 3
  0000c	cc		 int	 3
__ehhandler$??$insert@U?$pair@EPAU__TAXDETAIL@@@std@@$0A@@?$map@EPAU__TAXDETAIL@@U?$less@E@std@@V?$allocator@U?$pair@$$CBEPAU__TAXDETAIL@@@std@@@3@@std@@QAE?AU?$pair@V?$_Tree_iterator@V?$_Tree_val@U?$_Tree_simple_types@U?$pair@$$CBEPAU__TAXDETAIL@@@std@@@std@@@std@@@std@@_N@1@$$QAU?$pair@EPAU__TAXDETAIL@@@1@@Z:
  0000d	90		 npad	 1
  0000e	90		 npad	 1
  0000f	8b 54 24 08	 mov	 edx, DWORD PTR [esp+8]
  00013	8d 42 0c	 lea	 eax, DWORD PTR [edx+12]
  00016	8b 4a d8	 mov	 ecx, DWORD PTR [edx-40]
  00019	33 c8		 xor	 ecx, eax
  0001b	e8 00 00 00 00	 call	 @__security_check_cookie@4
  00020	b8 00 00 00 00	 mov	 eax, OFFSET __ehfuncinfo$??$insert@U?$pair@EPAU__TAXDETAIL@@@std@@$0A@@?$map@EPAU__TAXDETAIL@@U?$less@E@std@@V?$allocator@U?$pair@$$CBEPAU__TAXDETAIL@@@std@@@3@@std@@QAE?AU?$pair@V?$_Tree_iterator@V?$_Tree_val@U?$_Tree_simple_types@U?$pair@$$CBEPAU__TAXDETAIL@@@std@@@std@@@std@@@std@@_N@1@$$QAU?$pair@EPAU__TAXDETAIL@@@1@@Z
  00025	e9 00 00 00 00	 jmp	 ___CxxFrameHandler3
text$x	ENDS
??$insert@U?$pair@EPAU__TAXDETAIL@@@std@@$0A@@?$map@EPAU__TAXDETAIL@@U?$less@E@std@@V?$allocator@U?$pair@$$CBEPAU__TAXDETAIL@@@std@@@3@@std@@QAE?AU?$pair@V?$_Tree_iterator@V?$_Tree_val@U?$_Tree_simple_types@U?$pair@$$CBEPAU__TAXDETAIL@@@std@@@std@@@std@@@std@@_N@1@$$QAU?$pair@EPAU__TAXDETAIL@@@1@@Z ENDP ; std::map<unsigned char,__TAXDETAIL *,std::less<unsigned char>,std::allocator<std::pair<unsigned char const ,__TAXDETAIL *> > >::insert<std::pair<unsigned char,__TAXDETAIL *>,0>
; Function compile flags: /Ogtp
; File C:\IAGOS\server\v18\Source\Source\_Common\tax.h
; File C:\Program Files\Microsoft Visual Studio\2022\Professional\VC\Tools\MSVC\14.44.35207\include\xmemory
; File C:\Program Files\Microsoft Visual Studio\2022\Professional\VC\Tools\MSVC\14.44.35207\include\xtree
; File C:\Program Files\Microsoft Visual Studio\2022\Professional\VC\Tools\MSVC\14.44.35207\include\xmemory
; File C:\Program Files\Microsoft Visual Studio\2022\Professional\VC\Tools\MSVC\14.44.35207\include\xtree
; File C:\IAGOS\server\v18\Source\Source\_Common\tax.h
; File C:\Program Files\Microsoft Visual Studio\2022\Professional\VC\Tools\MSVC\14.44.35207\include\xtree
; File C:\Program Files\Microsoft Visual Studio\2022\Professional\VC\Tools\MSVC\14.44.35207\include\utility
; File C:\Program Files\Microsoft Visual Studio\2022\Professional\VC\Tools\MSVC\14.44.35207\include\xtree
; File C:\Program Files\Microsoft Visual Studio\2022\Professional\VC\Tools\MSVC\14.44.35207\include\utility
; File C:\Program Files\Microsoft Visual Studio\2022\Professional\VC\Tools\MSVC\14.44.35207\include\xtree
; File C:\Program Files\Microsoft Visual Studio\2022\Professional\VC\Tools\MSVC\14.44.35207\include\type_traits
; File C:\Program Files\Microsoft Visual Studio\2022\Professional\VC\Tools\MSVC\14.44.35207\include\xtree
; File C:\Program Files\Microsoft Visual Studio\2022\Professional\VC\Tools\MSVC\14.44.35207\include\xmemory
; File C:\Program Files\Microsoft Visual Studio\2022\Professional\VC\Tools\MSVC\14.44.35207\include\xtree
; File C:\Program Files\Microsoft Visual Studio\2022\Professional\VC\Tools\MSVC\14.44.35207\include\xmemory
; File C:\Program Files\Microsoft Visual Studio\2022\Professional\VC\Tools\MSVC\14.44.35207\include\xtree
; File C:\Program Files\Microsoft Visual Studio\2022\Professional\VC\Tools\MSVC\14.44.35207\include\utility
; File C:\Program Files\Microsoft Visual Studio\2022\Professional\VC\Tools\MSVC\14.44.35207\include\xtree
; File C:\Program Files\Microsoft Visual Studio\2022\Professional\VC\Tools\MSVC\14.44.35207\include\utility
; File C:\Program Files\Microsoft Visual Studio\2022\Professional\VC\Tools\MSVC\14.44.35207\include\xtree
; File C:\IAGOS\server\v18\Source\Source\_Common\tax.h
; File C:\Program Files\Microsoft Visual Studio\2022\Professional\VC\Tools\MSVC\14.44.35207\include\xtree
; File C:\Program Files\Microsoft Visual Studio\2022\Professional\VC\Tools\MSVC\14.44.35207\include\utility
; File C:\Program Files\Microsoft Visual Studio\2022\Professional\VC\Tools\MSVC\14.44.35207\include\xtree
; File C:\Program Files\Microsoft Visual Studio\2022\Professional\VC\Tools\MSVC\14.44.35207\include\utility
; File C:\Program Files\Microsoft Visual Studio\2022\Professional\VC\Tools\MSVC\14.44.35207\include\xtree
; File C:\Program Files\Microsoft Visual Studio\2022\Professional\VC\Tools\MSVC\14.44.35207\include\type_traits
; File C:\Program Files\Microsoft Visual Studio\2022\Professional\VC\Tools\MSVC\14.44.35207\include\xtree
; File C:\Program Files\Microsoft Visual Studio\2022\Professional\VC\Tools\MSVC\14.44.35207\include\xmemory
; File C:\Program Files\Microsoft Visual Studio\2022\Professional\VC\Tools\MSVC\14.44.35207\include\xtree
; File C:\Program Files\Microsoft Visual Studio\2022\Professional\VC\Tools\MSVC\14.44.35207\include\xmemory
; File C:\Program Files\Microsoft Visual Studio\2022\Professional\VC\Tools\MSVC\14.44.35207\include\xtree
; File C:\Program Files\Microsoft Visual Studio\2022\Professional\VC\Tools\MSVC\14.44.35207\include\utility
; File C:\Program Files\Microsoft Visual Studio\2022\Professional\VC\Tools\MSVC\14.44.35207\include\xtree
; File C:\Program Files\Microsoft Visual Studio\2022\Professional\VC\Tools\MSVC\14.44.35207\include\utility
; File C:\Program Files\Microsoft Visual Studio\2022\Professional\VC\Tools\MSVC\14.44.35207\include\xtree
; File C:\IAGOS\server\v18\Source\Source\_Common\tax.h
; File C:\Program Files\Microsoft Visual Studio\2022\Professional\VC\Tools\MSVC\14.44.35207\include\xtree
; File C:\IAGOS\server\v18\Source\Source\_Common\tax.h
;	COMDAT ??0__TAXINFO@@QAE@XZ
_TEXT	SEGMENT
$T2 = -48						; size = 12
$T3 = -48						; size = 12
__Loc$4 = -36						; size = 12
__Loc$5 = -36						; size = 12
$T6 = -24						; size = 8
$T7 = -24						; size = 8
$T8 = -24						; size = 8
$T9 = -24						; size = 8
$T10 = -20						; size = 4
$T11 = -20						; size = 4
_this$ = -20						; size = 4
_this$ = -16						; size = 4
__$EHRec$ = -12						; size = 12
??0__TAXINFO@@QAE@XZ PROC				; __TAXINFO::__TAXINFO, COMDAT
; _this$ = ecx

; 72   : 	__TAXINFO()

  00000	55		 push	 ebp
  00001	8b ec		 mov	 ebp, esp
  00003	6a ff		 push	 -1
  00005	68 00 00 00 00	 push	 __ehhandler$??0__TAXINFO@@QAE@XZ
  0000a	64 a1 00 00 00
	00		 mov	 eax, DWORD PTR fs:0
  00010	50		 push	 eax
  00011	83 ec 24	 sub	 esp, 36			; 00000024H
  00014	53		 push	 ebx
  00015	56		 push	 esi
  00016	57		 push	 edi
  00017	a1 00 00 00 00	 mov	 eax, DWORD PTR ___security_cookie
  0001c	33 c5		 xor	 eax, ebp
  0001e	50		 push	 eax
  0001f	8d 45 f4	 lea	 eax, DWORD PTR __$EHRec$[ebp]
  00022	64 a3 00 00 00
	00		 mov	 DWORD PTR fs:0, eax
  00028	8b f1		 mov	 esi, ecx
  0002a	89 75 f0	 mov	 DWORD PTR _this$[ebp], esi

; 73   : 	{

  0002d	8d 5e 08	 lea	 ebx, DWORD PTR [esi+8]
  00030	89 5d ec	 mov	 DWORD PTR _this$[ebp], ebx
; File C:\Program Files\Microsoft Visual Studio\2022\Professional\VC\Tools\MSVC\14.44.35207\include\xmemory

; 136  :         return ::operator new(_Bytes);

  00033	6a 18		 push	 24			; 00000018H
; File C:\Program Files\Microsoft Visual Studio\2022\Professional\VC\Tools\MSVC\14.44.35207\include\xtree

; 450  :     _Tree_val() noexcept : _Myhead(), _Mysize(0) {}

  00035	c7 03 00 00 00
	00		 mov	 DWORD PTR [ebx], 0
  0003b	c7 43 04 00 00
	00 00		 mov	 DWORD PTR [ebx+4], 0
; File C:\Program Files\Microsoft Visual Studio\2022\Professional\VC\Tools\MSVC\14.44.35207\include\xmemory

; 136  :         return ::operator new(_Bytes);

  00042	e8 00 00 00 00	 call	 ??2@YAPAXI@Z		; operator new
; File C:\Program Files\Microsoft Visual Studio\2022\Professional\VC\Tools\MSVC\14.44.35207\include\xtree

; 346  :         _Construct_in_place(_Pnode->_Left, _Pnode);

  00047	89 00		 mov	 DWORD PTR [eax], eax

; 347  :         _Construct_in_place(_Pnode->_Parent, _Pnode);

  00049	89 40 04	 mov	 DWORD PTR [eax+4], eax

; 348  :         _Construct_in_place(_Pnode->_Right, _Pnode);

  0004c	89 40 08	 mov	 DWORD PTR [eax+8], eax

; 349  :         _Pnode->_Color = _Black;

  0004f	66 c7 40 0c 01
	01		 mov	 WORD PTR [eax+12], 257	; 00000101H

; 1957 :         _Scary->_Myhead = _Node::_Buyheadnode(_Getal());

  00055	89 03		 mov	 DWORD PTR [ebx], eax
; File C:\IAGOS\server\v18\Source\Source\_Common\tax.h

; 76   : 		mapTaxDetail.insert( make_pair( TAX_SALES, new __TAXDETAIL ) );			// ±¸¸Ĺ ĽĽ±ÝŔş ±âş»

  00057	6a 14		 push	 20			; 00000014H
  00059	c7 45 fc 00 00
	00 00		 mov	 DWORD PTR __$EHRec$[ebp+8], 0
  00060	c7 06 ff ff ff
	ff		 mov	 DWORD PTR [esi], -1
  00066	c7 46 04 01 00
	00 00		 mov	 DWORD PTR [esi+4], 1
  0006d	e8 00 00 00 00	 call	 ??2@YAPAXI@Z		; operator new
  00072	8b f8		 mov	 edi, eax
  00074	83 c4 08	 add	 esp, 8
  00077	89 7d ec	 mov	 DWORD PTR $T10[ebp], edi
  0007a	85 ff		 test	 edi, edi
  0007c	74 24		 je	 SHORT $LN3@TAXINFO

; 55   : 		nTaxRate = 0;

  0007e	c7 07 00 00 00
	00		 mov	 DWORD PTR [edi], 0

; 56   : #ifdef __DBSERVER
; 57   : 		nTaxCount = 0;

  00084	c7 47 04 00 00
	00 00		 mov	 DWORD PTR [edi+4], 0

; 58   : 		nTaxGold = 0;

  0008b	c7 47 08 00 00
	00 00		 mov	 DWORD PTR [edi+8], 0

; 59   : 		nTaxPerin = 0;

  00092	c7 47 0c 00 00
	00 00		 mov	 DWORD PTR [edi+12], 0

; 60   : 		nNextTaxRate = 0;

  00099	c7 47 10 00 00
	00 00		 mov	 DWORD PTR [edi+16], 0

; 76   : 		mapTaxDetail.insert( make_pair( TAX_SALES, new __TAXDETAIL ) );			// ±¸¸Ĺ ĽĽ±ÝŔş ±âş»

  000a0	eb 02		 jmp	 SHORT $LN4@TAXINFO
$LN3@TAXINFO:
  000a2	33 ff		 xor	 edi, edi
$LN4@TAXINFO:
; File C:\Program Files\Microsoft Visual Studio\2022\Professional\VC\Tools\MSVC\14.44.35207\include\xtree

; 1017 :             _Loc                = _Find_lower_bound(_Keyval);

  000a4	8d 45 e8	 lea	 eax, DWORD PTR $T6[ebp]
; File C:\Program Files\Microsoft Visual Studio\2022\Professional\VC\Tools\MSVC\14.44.35207\include\utility

; 274  :         : first(_STD forward<_Other1>(_Val1)), second(_STD forward<_Other2>(_Val2)) {

  000a7	c6 45 e8 00	 mov	 BYTE PTR $T6[ebp], 0
; File C:\Program Files\Microsoft Visual Studio\2022\Professional\VC\Tools\MSVC\14.44.35207\include\xtree

; 1017 :             _Loc                = _Find_lower_bound(_Keyval);

  000ab	50		 push	 eax
  000ac	8d 45 d0	 lea	 eax, DWORD PTR $T2[ebp]
; File C:\Program Files\Microsoft Visual Studio\2022\Professional\VC\Tools\MSVC\14.44.35207\include\utility

; 274  :         : first(_STD forward<_Other1>(_Val1)), second(_STD forward<_Other2>(_Val2)) {

  000af	89 7d ec	 mov	 DWORD PTR $T6[ebp+4], edi
; File C:\Program Files\Microsoft Visual Studio\2022\Professional\VC\Tools\MSVC\14.44.35207\include\xtree

; 1017 :             _Loc                = _Find_lower_bound(_Keyval);

  000b2	50		 push	 eax
  000b3	8b cb		 mov	 ecx, ebx
  000b5	e8 00 00 00 00	 call	 ??$_Find_lower_bound@E@?$_Tree@V?$_Tmap_traits@EPAU__TAXDETAIL@@U?$less@E@std@@V?$allocator@U?$pair@$$CBEPAU__TAXDETAIL@@@std@@@3@$0A@@std@@@std@@IBE?AU?$_Tree_find_result@PAU?$_Tree_node@U?$pair@$$CBEPAU__TAXDETAIL@@@std@@PAX@std@@@1@ABE@Z ; std::_Tree<std::_Tmap_traits<unsigned char,__TAXDETAIL *,std::less<unsigned char>,std::allocator<std::pair<unsigned char const ,__TAXDETAIL *> >,0> >::_Find_lower_bound<unsigned char>
  000ba	f3 0f 7e 00	 movq	 xmm0, QWORD PTR [eax]
  000be	8b 40 08	 mov	 eax, DWORD PTR [eax+8]
  000c1	66 0f d6 45 dc	 movq	 QWORD PTR __Loc$4[ebp], xmm0

; 1624 :         return !_Bound->_Isnil && !_DEBUG_LT_PRED(_Getcomp(), _Keyval, _Traits::_Kfn(_Bound->_Myval));

  000c6	80 78 0d 00	 cmp	 BYTE PTR [eax+13], 0
  000ca	75 06		 jne	 SHORT $LN274@TAXINFO
; File C:\Program Files\Microsoft Visual Studio\2022\Professional\VC\Tools\MSVC\14.44.35207\include\type_traits

; 2380 :         return _Left < _Right;

  000cc	80 78 10 00	 cmp	 BYTE PTR [eax+16], 0
; File C:\Program Files\Microsoft Visual Studio\2022\Professional\VC\Tools\MSVC\14.44.35207\include\xtree

; 1624 :         return !_Bound->_Isnil && !_DEBUG_LT_PRED(_Getcomp(), _Keyval, _Traits::_Kfn(_Bound->_Myval));

  000d0	76 4e		 jbe	 SHORT $LN143@TAXINFO
$LN274@TAXINFO:

; 1648 :         if (max_size() == _Get_scary()->_Mysize) {

  000d2	81 7b 04 aa aa
	aa 0a		 cmp	 DWORD PTR [ebx+4], 178956970 ; 0aaaaaaaH
  000d9	0f 84 0a 01 00
	00		 je	 $LN275@TAXINFO

; 1023 :             _Inserted = _Tree_temp_node<_Alnode>(_Getal(), _Scary->_Myhead, _STD forward<_Valtys>(_Vals)...)._Release();

  000df	8b 33		 mov	 esi, DWORD PTR [ebx]
; File C:\Program Files\Microsoft Visual Studio\2022\Professional\VC\Tools\MSVC\14.44.35207\include\xmemory

; 1160 :     _CONSTEXPR20 explicit _Alloc_construct_ptr(_Alloc& _Al_) : _Al(_Al_), _Ptr(nullptr) {}

  000e1	89 5d e8	 mov	 DWORD PTR $T8[ebp], ebx

; 136  :         return ::operator new(_Bytes);

  000e4	6a 18		 push	 24			; 00000018H
; File C:\Program Files\Microsoft Visual Studio\2022\Professional\VC\Tools\MSVC\14.44.35207\include\xtree

; 808  :     explicit _Tree_temp_node_alloc(_Alnode& _Al_) : _Alloc_construct_ptr<_Alnode>(_Al_) {

  000e6	c6 45 fc 01	 mov	 BYTE PTR __$EHRec$[ebp+8], 1
; File C:\Program Files\Microsoft Visual Studio\2022\Professional\VC\Tools\MSVC\14.44.35207\include\xmemory

; 1167 :         _Ptr = nullptr; // if allocate throws, prevents double-free

  000ea	c7 45 ec 00 00
	00 00		 mov	 DWORD PTR $T8[ebp+4], 0

; 136  :         return ::operator new(_Bytes);

  000f1	e8 00 00 00 00	 call	 ??2@YAPAXI@Z		; operator new
  000f6	83 c4 04	 add	 esp, 4
; File C:\Program Files\Microsoft Visual Studio\2022\Professional\VC\Tools\MSVC\14.44.35207\include\xtree

; 810  :     }

  000f9	c6 45 fc 00	 mov	 BYTE PTR __$EHRec$[ebp+8], 0

; 1042 :         return {_Scary->_Insert_node(_Loc._Location, _Inserted), true};

  000fd	8b cb		 mov	 ecx, ebx
; File C:\Program Files\Microsoft Visual Studio\2022\Professional\VC\Tools\MSVC\14.44.35207\include\utility

; 303  :         : first(_STD forward<_Other1>(_Right.first)), second(_STD forward<_Other2>(_Right.second)) {}

  000ff	c6 40 10 00	 mov	 BYTE PTR [eax+16], 0
; File C:\Program Files\Microsoft Visual Studio\2022\Professional\VC\Tools\MSVC\14.44.35207\include\xtree

; 1042 :         return {_Scary->_Insert_node(_Loc._Location, _Inserted), true};

  00103	50		 push	 eax
  00104	ff 75 e0	 push	 DWORD PTR __Loc$4[ebp+4]
; File C:\Program Files\Microsoft Visual Studio\2022\Professional\VC\Tools\MSVC\14.44.35207\include\utility

; 303  :         : first(_STD forward<_Other1>(_Right.first)), second(_STD forward<_Other2>(_Right.second)) {}

  00107	89 78 14	 mov	 DWORD PTR [eax+20], edi
; File C:\Program Files\Microsoft Visual Studio\2022\Professional\VC\Tools\MSVC\14.44.35207\include\xtree

; 1042 :         return {_Scary->_Insert_node(_Loc._Location, _Inserted), true};

  0010a	ff 75 dc	 push	 DWORD PTR __Loc$4[ebp]

; 831  :         _Construct_in_place(this->_Ptr->_Left, _Myhead);

  0010d	89 30		 mov	 DWORD PTR [eax], esi

; 832  :         _Construct_in_place(this->_Ptr->_Parent, _Myhead);

  0010f	89 70 04	 mov	 DWORD PTR [eax+4], esi

; 833  :         _Construct_in_place(this->_Ptr->_Right, _Myhead);

  00112	89 70 08	 mov	 DWORD PTR [eax+8], esi

; 834  :         this->_Ptr->_Color = _Red;

  00115	66 c7 40 0c 00
	00		 mov	 WORD PTR [eax+12], 0

; 1042 :         return {_Scary->_Insert_node(_Loc._Location, _Inserted), true};

  0011b	e8 00 00 00 00	 call	 ?_Insert_node@?$_Tree_val@U?$_Tree_simple_types@U?$pair@$$CBEPAU__TAXDETAIL@@@std@@@std@@@std@@QAEPAU?$_Tree_node@U?$pair@$$CBEPAU__TAXDETAIL@@@std@@PAX@2@U?$_Tree_id@PAU?$_Tree_node@U?$pair@$$CBEPAU__TAXDETAIL@@@std@@PAX@std@@@2@QAU32@@Z ; std::_Tree_val<std::_Tree_simple_types<std::pair<unsigned char const ,__TAXDETAIL *> > >::_Insert_node
$LN143@TAXINFO:
; File C:\IAGOS\server\v18\Source\Source\_Common\tax.h

; 77   : 		mapTaxDetail.insert( make_pair( TAX_PURCHASE, new __TAXDETAIL ) );		// ĆÇ¸Ĺ ĽĽ±ÝŔş ±âş»

  00120	6a 14		 push	 20			; 00000014H
  00122	e8 00 00 00 00	 call	 ??2@YAPAXI@Z		; operator new
  00127	8b f8		 mov	 edi, eax
  00129	83 c4 04	 add	 esp, 4
  0012c	89 7d ec	 mov	 DWORD PTR $T11[ebp], edi
  0012f	85 ff		 test	 edi, edi
  00131	74 24		 je	 SHORT $LN5@TAXINFO

; 55   : 		nTaxRate = 0;

  00133	c7 07 00 00 00
	00		 mov	 DWORD PTR [edi], 0

; 56   : #ifdef __DBSERVER
; 57   : 		nTaxCount = 0;

  00139	c7 47 04 00 00
	00 00		 mov	 DWORD PTR [edi+4], 0

; 58   : 		nTaxGold = 0;

  00140	c7 47 08 00 00
	00 00		 mov	 DWORD PTR [edi+8], 0

; 59   : 		nTaxPerin = 0;

  00147	c7 47 0c 00 00
	00 00		 mov	 DWORD PTR [edi+12], 0

; 60   : 		nNextTaxRate = 0;

  0014e	c7 47 10 00 00
	00 00		 mov	 DWORD PTR [edi+16], 0

; 77   : 		mapTaxDetail.insert( make_pair( TAX_PURCHASE, new __TAXDETAIL ) );		// ĆÇ¸Ĺ ĽĽ±ÝŔş ±âş»

  00155	eb 02		 jmp	 SHORT $LN6@TAXINFO
$LN5@TAXINFO:
  00157	33 ff		 xor	 edi, edi
$LN6@TAXINFO:
; File C:\Program Files\Microsoft Visual Studio\2022\Professional\VC\Tools\MSVC\14.44.35207\include\xtree

; 1017 :             _Loc                = _Find_lower_bound(_Keyval);

  00159	8d 45 e8	 lea	 eax, DWORD PTR $T7[ebp]
; File C:\Program Files\Microsoft Visual Studio\2022\Professional\VC\Tools\MSVC\14.44.35207\include\utility

; 274  :         : first(_STD forward<_Other1>(_Val1)), second(_STD forward<_Other2>(_Val2)) {

  0015c	c6 45 e8 01	 mov	 BYTE PTR $T7[ebp], 1
; File C:\Program Files\Microsoft Visual Studio\2022\Professional\VC\Tools\MSVC\14.44.35207\include\xtree

; 1017 :             _Loc                = _Find_lower_bound(_Keyval);

  00160	50		 push	 eax
  00161	8d 45 d0	 lea	 eax, DWORD PTR $T3[ebp]
; File C:\Program Files\Microsoft Visual Studio\2022\Professional\VC\Tools\MSVC\14.44.35207\include\utility

; 274  :         : first(_STD forward<_Other1>(_Val1)), second(_STD forward<_Other2>(_Val2)) {

  00164	89 7d ec	 mov	 DWORD PTR $T7[ebp+4], edi
; File C:\Program Files\Microsoft Visual Studio\2022\Professional\VC\Tools\MSVC\14.44.35207\include\xtree

; 1017 :             _Loc                = _Find_lower_bound(_Keyval);

  00167	50		 push	 eax
  00168	8b cb		 mov	 ecx, ebx
  0016a	e8 00 00 00 00	 call	 ??$_Find_lower_bound@E@?$_Tree@V?$_Tmap_traits@EPAU__TAXDETAIL@@U?$less@E@std@@V?$allocator@U?$pair@$$CBEPAU__TAXDETAIL@@@std@@@3@$0A@@std@@@std@@IBE?AU?$_Tree_find_result@PAU?$_Tree_node@U?$pair@$$CBEPAU__TAXDETAIL@@@std@@PAX@std@@@1@ABE@Z ; std::_Tree<std::_Tmap_traits<unsigned char,__TAXDETAIL *,std::less<unsigned char>,std::allocator<std::pair<unsigned char const ,__TAXDETAIL *> >,0> >::_Find_lower_bound<unsigned char>
  0016f	f3 0f 7e 00	 movq	 xmm0, QWORD PTR [eax]
  00173	8b 40 08	 mov	 eax, DWORD PTR [eax+8]
  00176	66 0f d6 45 dc	 movq	 QWORD PTR __Loc$5[ebp], xmm0

; 1624 :         return !_Bound->_Isnil && !_DEBUG_LT_PRED(_Getcomp(), _Keyval, _Traits::_Kfn(_Bound->_Myval));

  0017b	80 78 0d 00	 cmp	 BYTE PTR [eax+13], 0
  0017f	75 06		 jne	 SHORT $LN273@TAXINFO
; File C:\Program Files\Microsoft Visual Studio\2022\Professional\VC\Tools\MSVC\14.44.35207\include\type_traits

; 2380 :         return _Left < _Right;

  00181	80 78 10 01	 cmp	 BYTE PTR [eax+16], 1
; File C:\Program Files\Microsoft Visual Studio\2022\Professional\VC\Tools\MSVC\14.44.35207\include\xtree

; 1624 :         return !_Bound->_Isnil && !_DEBUG_LT_PRED(_Getcomp(), _Keyval, _Traits::_Kfn(_Bound->_Myval));

  00185	76 46		 jbe	 SHORT $LN257@TAXINFO
$LN273@TAXINFO:

; 1648 :         if (max_size() == _Get_scary()->_Mysize) {

  00187	81 7b 04 aa aa
	aa 0a		 cmp	 DWORD PTR [ebx+4], 178956970 ; 0aaaaaaaH
  0018e	74 59		 je	 SHORT $LN275@TAXINFO

; 1023 :             _Inserted = _Tree_temp_node<_Alnode>(_Getal(), _Scary->_Myhead, _STD forward<_Valtys>(_Vals)...)._Release();

  00190	8b 33		 mov	 esi, DWORD PTR [ebx]
; File C:\Program Files\Microsoft Visual Studio\2022\Professional\VC\Tools\MSVC\14.44.35207\include\xmemory

; 1160 :     _CONSTEXPR20 explicit _Alloc_construct_ptr(_Alloc& _Al_) : _Al(_Al_), _Ptr(nullptr) {}

  00192	89 5d e8	 mov	 DWORD PTR $T9[ebp], ebx

; 136  :         return ::operator new(_Bytes);

  00195	6a 18		 push	 24			; 00000018H
; File C:\Program Files\Microsoft Visual Studio\2022\Professional\VC\Tools\MSVC\14.44.35207\include\xtree

; 808  :     explicit _Tree_temp_node_alloc(_Alnode& _Al_) : _Alloc_construct_ptr<_Alnode>(_Al_) {

  00197	c6 45 fc 02	 mov	 BYTE PTR __$EHRec$[ebp+8], 2
; File C:\Program Files\Microsoft Visual Studio\2022\Professional\VC\Tools\MSVC\14.44.35207\include\xmemory

; 1167 :         _Ptr = nullptr; // if allocate throws, prevents double-free

  0019b	c7 45 ec 00 00
	00 00		 mov	 DWORD PTR $T9[ebp+4], 0

; 136  :         return ::operator new(_Bytes);

  001a2	e8 00 00 00 00	 call	 ??2@YAPAXI@Z		; operator new
  001a7	83 c4 04	 add	 esp, 4
; File C:\Program Files\Microsoft Visual Studio\2022\Professional\VC\Tools\MSVC\14.44.35207\include\xtree

; 1042 :         return {_Scary->_Insert_node(_Loc._Location, _Inserted), true};

  001aa	8b cb		 mov	 ecx, ebx
; File C:\Program Files\Microsoft Visual Studio\2022\Professional\VC\Tools\MSVC\14.44.35207\include\utility

; 303  :         : first(_STD forward<_Other1>(_Right.first)), second(_STD forward<_Other2>(_Right.second)) {}

  001ac	c6 40 10 01	 mov	 BYTE PTR [eax+16], 1
; File C:\Program Files\Microsoft Visual Studio\2022\Professional\VC\Tools\MSVC\14.44.35207\include\xtree

; 1042 :         return {_Scary->_Insert_node(_Loc._Location, _Inserted), true};

  001b0	50		 push	 eax
  001b1	ff 75 e0	 push	 DWORD PTR __Loc$5[ebp+4]
; File C:\Program Files\Microsoft Visual Studio\2022\Professional\VC\Tools\MSVC\14.44.35207\include\utility

; 303  :         : first(_STD forward<_Other1>(_Right.first)), second(_STD forward<_Other2>(_Right.second)) {}

  001b4	89 78 14	 mov	 DWORD PTR [eax+20], edi
; File C:\Program Files\Microsoft Visual Studio\2022\Professional\VC\Tools\MSVC\14.44.35207\include\xtree

; 1042 :         return {_Scary->_Insert_node(_Loc._Location, _Inserted), true};

  001b7	ff 75 dc	 push	 DWORD PTR __Loc$5[ebp]

; 831  :         _Construct_in_place(this->_Ptr->_Left, _Myhead);

  001ba	89 30		 mov	 DWORD PTR [eax], esi

; 832  :         _Construct_in_place(this->_Ptr->_Parent, _Myhead);

  001bc	89 70 04	 mov	 DWORD PTR [eax+4], esi

; 833  :         _Construct_in_place(this->_Ptr->_Right, _Myhead);

  001bf	89 70 08	 mov	 DWORD PTR [eax+8], esi

; 834  :         this->_Ptr->_Color = _Red;

  001c2	66 c7 40 0c 00
	00		 mov	 WORD PTR [eax+12], 0

; 1042 :         return {_Scary->_Insert_node(_Loc._Location, _Inserted), true};

  001c8	e8 00 00 00 00	 call	 ?_Insert_node@?$_Tree_val@U?$_Tree_simple_types@U?$pair@$$CBEPAU__TAXDETAIL@@@std@@@std@@@std@@QAEPAU?$_Tree_node@U?$pair@$$CBEPAU__TAXDETAIL@@@std@@PAX@2@U?$_Tree_id@PAU?$_Tree_node@U?$pair@$$CBEPAU__TAXDETAIL@@@std@@PAX@std@@@2@QAU32@@Z ; std::_Tree_val<std::_Tree_simple_types<std::pair<unsigned char const ,__TAXDETAIL *> > >::_Insert_node
$LN257@TAXINFO:
; File C:\IAGOS\server\v18\Source\Source\_Common\tax.h

; 78   : 		dwNextId = NULL_ID;

  001cd	8b 45 f0	 mov	 eax, DWORD PTR _this$[ebp]
  001d0	c7 40 10 ff ff
	ff ff		 mov	 DWORD PTR [eax+16], -1

; 79   : 	}

  001d7	8b 4d f4	 mov	 ecx, DWORD PTR __$EHRec$[ebp]
  001da	64 89 0d 00 00
	00 00		 mov	 DWORD PTR fs:0, ecx
  001e1	59		 pop	 ecx
  001e2	5f		 pop	 edi
  001e3	5e		 pop	 esi
  001e4	5b		 pop	 ebx
  001e5	8b e5		 mov	 esp, ebp
  001e7	5d		 pop	 ebp
  001e8	c3		 ret	 0
$LN275@TAXINFO:
; File C:\Program Files\Microsoft Visual Studio\2022\Professional\VC\Tools\MSVC\14.44.35207\include\xtree

; 1649 :             _Throw_tree_length_error();

  001e9	e8 00 00 00 00	 call	 ?_Throw_tree_length_error@std@@YAXXZ ; std::_Throw_tree_length_error
$LN278@TAXINFO:
  001ee	cc		 int	 3
_TEXT	ENDS
;	COMDAT text$x
text$x	SEGMENT
__unwindfunclet$??0__TAXINFO@@QAE@XZ$0:
  00000	8b 4d f0	 mov	 ecx, DWORD PTR _this$[ebp]
  00003	83 c1 08	 add	 ecx, 8
  00006	e9 00 00 00 00	 jmp	 ??1?$map@EPAU__TAXDETAIL@@U?$less@E@std@@V?$allocator@U?$pair@$$CBEPAU__TAXDETAIL@@@std@@@3@@std@@QAE@XZ
__unwindfunclet$??0__TAXINFO@@QAE@XZ$6:
  0000b	8d 4d e8	 lea	 ecx, DWORD PTR $T8[ebp]
  0000e	e9 00 00 00 00	 jmp	 ??1?$_Alloc_construct_ptr@V?$allocator@U?$_Tree_node@U?$pair@$$CBEPAU__TAXDETAIL@@@std@@PAX@std@@@std@@@std@@QAE@XZ ; std::_Alloc_construct_ptr<std::allocator<std::_Tree_node<std::pair<unsigned char const ,__TAXDETAIL *>,void *> > >::~_Alloc_construct_ptr<std::allocator<std::_Tree_node<std::pair<unsigned char const ,__TAXDETAIL *>,void *> > >
__unwindfunclet$??0__TAXINFO@@QAE@XZ$11:
  00013	8d 4d e8	 lea	 ecx, DWORD PTR $T9[ebp]
  00016	e9 00 00 00 00	 jmp	 ??1?$_Alloc_construct_ptr@V?$allocator@U?$_Tree_node@U?$pair@$$CBEPAU__TAXDETAIL@@@std@@PAX@std@@@std@@@std@@QAE@XZ ; std::_Alloc_construct_ptr<std::allocator<std::_Tree_node<std::pair<unsigned char const ,__TAXDETAIL *>,void *> > >::~_Alloc_construct_ptr<std::allocator<std::_Tree_node<std::pair<unsigned char const ,__TAXDETAIL *>,void *> > >
  0001b	cc		 int	 3
  0001c	cc		 int	 3
  0001d	cc		 int	 3
  0001e	cc		 int	 3
  0001f	cc		 int	 3
__ehhandler$??0__TAXINFO@@QAE@XZ:
  00020	90		 npad	 1
  00021	90		 npad	 1
  00022	8b 54 24 08	 mov	 edx, DWORD PTR [esp+8]
  00026	8d 42 0c	 lea	 eax, DWORD PTR [edx+12]
  00029	8b 4a cc	 mov	 ecx, DWORD PTR [edx-52]
  0002c	33 c8		 xor	 ecx, eax
  0002e	e8 00 00 00 00	 call	 @__security_check_cookie@4
  00033	b8 00 00 00 00	 mov	 eax, OFFSET __ehfuncinfo$??0__TAXINFO@@QAE@XZ
  00038	e9 00 00 00 00	 jmp	 ___CxxFrameHandler3
text$x	ENDS
??0__TAXINFO@@QAE@XZ ENDP				; __TAXINFO::__TAXINFO
; Function compile flags: /Ogtp
;	COMDAT ??1?$map@EPAU__TAXDETAIL@@U?$less@E@std@@V?$allocator@U?$pair@$$CBEPAU__TAXDETAIL@@@std@@@3@@std@@QAE@XZ
_TEXT	SEGMENT
??1?$map@EPAU__TAXDETAIL@@U?$less@E@std@@V?$allocator@U?$pair@$$CBEPAU__TAXDETAIL@@@std@@@3@@std@@QAE@XZ PROC ; std::map<unsigned char,__TAXDETAIL *,std::less<unsigned char>,std::allocator<std::pair<unsigned char const ,__TAXDETAIL *> > >::~map<unsigned char,__TAXDETAIL *,std::less<unsigned char>,std::allocator<std::pair<unsigned char const ,__TAXDETAIL *> > >, COMDAT
; _this$ = ecx
  00000	e9 00 00 00 00	 jmp	 ??1?$_Tree@V?$_Tmap_traits@EPAU__TAXDETAIL@@U?$less@E@std@@V?$allocator@U?$pair@$$CBEPAU__TAXDETAIL@@@std@@@3@$0A@@std@@@std@@QAE@XZ ; std::_Tree<std::_Tmap_traits<unsigned char,__TAXDETAIL *,std::less<unsigned char>,std::allocator<std::pair<unsigned char const ,__TAXDETAIL *> >,0> >::~_Tree<std::_Tmap_traits<unsigned char,__TAXDETAIL *,std::less<unsigned char>,std::allocator<std::pair<unsigned char const ,__TAXDETAIL *> >,0> >
??1?$map@EPAU__TAXDETAIL@@U?$less@E@std@@V?$allocator@U?$pair@$$CBEPAU__TAXDETAIL@@@std@@@3@@std@@QAE@XZ ENDP ; std::map<unsigned char,__TAXDETAIL *,std::less<unsigned char>,std::allocator<std::pair<unsigned char const ,__TAXDETAIL *> > >::~map<unsigned char,__TAXDETAIL *,std::less<unsigned char>,std::allocator<std::pair<unsigned char const ,__TAXDETAIL *> > >
_TEXT	ENDS
; Function compile flags: /Ogtp
; File C:\Program Files\Microsoft Visual Studio\2022\Professional\VC\Tools\MSVC\14.44.35207\include\xtree
;	COMDAT ?_Insert_node@?$_Tree_val@U?$_Tree_simple_types@U?$pair@$$CBEPAU__TAXDETAIL@@@std@@@std@@@std@@QAEPAU?$_Tree_node@U?$pair@$$CBEPAU__TAXDETAIL@@@std@@PAX@2@U?$_Tree_id@PAU?$_Tree_node@U?$pair@$$CBEPAU__TAXDETAIL@@@std@@PAX@std@@@2@QAU32@@Z
_TEXT	SEGMENT
__Head$1$ = -4						; size = 4
__Loc$ = 8						; size = 8
__Newnode$ = 16						; size = 4
?_Insert_node@?$_Tree_val@U?$_Tree_simple_types@U?$pair@$$CBEPAU__TAXDETAIL@@@std@@@std@@@std@@QAEPAU?$_Tree_node@U?$pair@$$CBEPAU__TAXDETAIL@@@std@@PAX@2@U?$_Tree_id@PAU?$_Tree_node@U?$pair@$$CBEPAU__TAXDETAIL@@@std@@PAX@std@@@2@QAU32@@Z PROC ; std::_Tree_val<std::_Tree_simple_types<std::pair<unsigned char const ,__TAXDETAIL *> > >::_Insert_node, COMDAT
; _this$ = ecx

; 669  :     _Nodeptr _Insert_node(const _Tree_id<_Nodeptr> _Loc, const _Nodeptr _Newnode) noexcept {

  00000	55		 push	 ebp
  00001	8b ec		 mov	 ebp, esp
  00003	51		 push	 ecx

; 670  :         ++_Mysize;
; 671  :         const auto _Head  = _Myhead;
; 672  :         _Newnode->_Parent = _Loc._Parent;

  00004	8b 55 08	 mov	 edx, DWORD PTR __Loc$[ebp]
  00007	53		 push	 ebx
  00008	8b d9		 mov	 ebx, ecx
  0000a	57		 push	 edi
  0000b	8b 7d 10	 mov	 edi, DWORD PTR __Newnode$[ebp]
  0000e	8b 03		 mov	 eax, DWORD PTR [ebx]
  00010	ff 43 04	 inc	 DWORD PTR [ebx+4]
  00013	89 45 fc	 mov	 DWORD PTR __Head$1$[ebp], eax
  00016	89 57 04	 mov	 DWORD PTR [edi+4], edx

; 673  :         if (_Loc._Parent == _Head) { // first node in tree, just set head values

  00019	3b d0		 cmp	 edx, eax
  0001b	75 16		 jne	 SHORT $LN5@Insert_nod

; 674  :             _Head->_Left     = _Newnode;

  0001d	89 38		 mov	 DWORD PTR [eax], edi

; 675  :             _Head->_Parent   = _Newnode;

  0001f	89 78 04	 mov	 DWORD PTR [eax+4], edi

; 676  :             _Head->_Right    = _Newnode;

  00022	89 78 08	 mov	 DWORD PTR [eax+8], edi

; 735  :         return _Newnode;
; 736  :     }

  00025	8b c7		 mov	 eax, edi
  00027	c6 47 0c 01	 mov	 BYTE PTR [edi+12], 1
  0002b	5f		 pop	 edi
  0002c	5b		 pop	 ebx
  0002d	8b e5		 mov	 esp, ebp
  0002f	5d		 pop	 ebp
  00030	c2 0c 00	 ret	 12			; 0000000cH
$LN5@Insert_nod:

; 677  :             _Newnode->_Color = _Black; // the root is black
; 678  :             return _Newnode;
; 679  :         }
; 680  : 
; 681  :         _STL_INTERNAL_CHECK(_Loc._Child != _Tree_child::_Unused);
; 682  :         if (_Loc._Child == _Tree_child::_Right) { // add to right of _Loc._Parent

  00033	83 7d 0c 00	 cmp	 DWORD PTR __Loc$[ebp+4], 0
  00037	75 0d		 jne	 SHORT $LN6@Insert_nod

; 683  :             _STL_INTERNAL_CHECK(_Loc._Parent->_Right->_Isnil);
; 684  :             _Loc._Parent->_Right = _Newnode;

  00039	89 7a 08	 mov	 DWORD PTR [edx+8], edi

; 685  :             if (_Loc._Parent == _Head->_Right) { // remember rightmost node

  0003c	3b 50 08	 cmp	 edx, DWORD PTR [eax+8]
  0003f	75 0d		 jne	 SHORT $LN9@Insert_nod

; 686  :                 _Head->_Right = _Newnode;

  00041	89 78 08	 mov	 DWORD PTR [eax+8], edi

; 687  :             }
; 688  :         } else { // add to left of _Loc._Parent

  00044	eb 08		 jmp	 SHORT $LN9@Insert_nod
$LN6@Insert_nod:

; 689  :             _STL_INTERNAL_CHECK(_Loc._Parent->_Left->_Isnil);
; 690  :             _Loc._Parent->_Left = _Newnode;

  00046	89 3a		 mov	 DWORD PTR [edx], edi

; 691  :             if (_Loc._Parent == _Head->_Left) { // remember leftmost node

  00048	3b 10		 cmp	 edx, DWORD PTR [eax]
  0004a	75 02		 jne	 SHORT $LN9@Insert_nod

; 692  :                 _Head->_Left = _Newnode;

  0004c	89 38		 mov	 DWORD PTR [eax], edi
$LN9@Insert_nod:

; 693  :             }
; 694  :         }
; 695  : 
; 696  :         for (_Nodeptr _Pnode = _Newnode; _Pnode->_Parent->_Color == _Red;) {

  0004e	8b 4f 04	 mov	 ecx, DWORD PTR [edi+4]
  00051	8b c7		 mov	 eax, edi
  00053	80 79 0c 00	 cmp	 BYTE PTR [ecx+12], 0
  00057	0f 85 7d 01 00
	00		 jne	 $LN3@Insert_nod
  0005d	56		 push	 esi
  0005e	66 90		 npad	 2
$LL4@Insert_nod:

; 697  :             if (_Pnode->_Parent == _Pnode->_Parent->_Parent->_Left) { // fixup red-red in left subtree

  00060	8b 50 04	 mov	 edx, DWORD PTR [eax+4]
  00063	8b 72 04	 mov	 esi, DWORD PTR [edx+4]
  00066	8b 0e		 mov	 ecx, DWORD PTR [esi]
  00068	3b d1		 cmp	 edx, ecx
  0006a	0f 85 aa 00 00
	00		 jne	 $LN10@Insert_nod

; 698  :                 const auto _Parent_sibling = _Pnode->_Parent->_Parent->_Right;

  00070	8b 4e 08	 mov	 ecx, DWORD PTR [esi+8]

; 699  :                 if (_Parent_sibling->_Color == _Red) { // parent's sibling has two red children, blacken both

  00073	80 79 0c 00	 cmp	 BYTE PTR [ecx+12], 0
  00077	0f 84 a3 00 00
	00		 je	 $LN82@Insert_nod

; 700  :                     _Pnode->_Parent->_Color          = _Black;
; 701  :                     _Parent_sibling->_Color          = _Black;
; 702  :                     _Pnode->_Parent->_Parent->_Color = _Red;
; 703  :                     _Pnode                           = _Pnode->_Parent->_Parent;
; 704  :                 } else { // parent's sibling has red and black children
; 705  :                     if (_Pnode == _Pnode->_Parent->_Right) { // rotate right child to left

  0007d	8b 72 08	 mov	 esi, DWORD PTR [edx+8]
  00080	3b c6		 cmp	 eax, esi
  00082	75 37		 jne	 SHORT $LN57@Insert_nod

; 485  :         _Wherenode->_Right = _Pnode->_Left;

  00084	8b 0e		 mov	 ecx, DWORD PTR [esi]

; 706  :                         _Pnode = _Pnode->_Parent;

  00086	8b c2		 mov	 eax, edx

; 485  :         _Wherenode->_Right = _Pnode->_Left;

  00088	89 4a 08	 mov	 DWORD PTR [edx+8], ecx

; 486  : 
; 487  :         if (!_Pnode->_Left->_Isnil) {

  0008b	8b 0e		 mov	 ecx, DWORD PTR [esi]
  0008d	80 79 0d 00	 cmp	 BYTE PTR [ecx+13], 0
  00091	75 03		 jne	 SHORT $LN21@Insert_nod

; 488  :             _Pnode->_Left->_Parent = _Wherenode;

  00093	89 41 04	 mov	 DWORD PTR [ecx+4], eax
$LN21@Insert_nod:

; 489  :         }
; 490  : 
; 491  :         _Pnode->_Parent = _Wherenode->_Parent;

  00096	8b 4a 04	 mov	 ecx, DWORD PTR [edx+4]
  00099	89 4e 04	 mov	 DWORD PTR [esi+4], ecx

; 492  : 
; 493  :         if (_Wherenode == _Myhead->_Parent) {

  0009c	8b 0b		 mov	 ecx, DWORD PTR [ebx]
  0009e	3b 41 04	 cmp	 eax, DWORD PTR [ecx+4]
  000a1	75 05		 jne	 SHORT $LN22@Insert_nod

; 494  :             _Myhead->_Parent = _Pnode;

  000a3	89 71 04	 mov	 DWORD PTR [ecx+4], esi
  000a6	eb 0e		 jmp	 SHORT $LN25@Insert_nod
$LN22@Insert_nod:

; 495  :         } else if (_Wherenode == _Wherenode->_Parent->_Left) {

  000a8	8b 4a 04	 mov	 ecx, DWORD PTR [edx+4]
  000ab	3b 01		 cmp	 eax, DWORD PTR [ecx]
  000ad	75 04		 jne	 SHORT $LN24@Insert_nod

; 496  :             _Wherenode->_Parent->_Left = _Pnode;

  000af	89 31		 mov	 DWORD PTR [ecx], esi

; 497  :         } else {

  000b1	eb 03		 jmp	 SHORT $LN25@Insert_nod
$LN24@Insert_nod:

; 498  :             _Wherenode->_Parent->_Right = _Pnode;

  000b3	89 71 08	 mov	 DWORD PTR [ecx+8], esi
$LN25@Insert_nod:

; 499  :         }
; 500  : 
; 501  :         _Pnode->_Left       = _Wherenode;

  000b6	89 06		 mov	 DWORD PTR [esi], eax

; 502  :         _Wherenode->_Parent = _Pnode;

  000b8	89 70 04	 mov	 DWORD PTR [eax+4], esi
$LN57@Insert_nod:

; 707  :                         _Lrotate(_Pnode);
; 708  :                     }
; 709  : 
; 710  :                     _Pnode->_Parent->_Color          = _Black; // propagate red up

  000bb	8b 48 04	 mov	 ecx, DWORD PTR [eax+4]
  000be	c6 41 0c 01	 mov	 BYTE PTR [ecx+12], 1

; 711  :                     _Pnode->_Parent->_Parent->_Color = _Red;

  000c2	8b 48 04	 mov	 ecx, DWORD PTR [eax+4]
  000c5	8b 49 04	 mov	 ecx, DWORD PTR [ecx+4]
  000c8	c6 41 0c 00	 mov	 BYTE PTR [ecx+12], 0

; 712  :                     _Rrotate(_Pnode->_Parent->_Parent);

  000cc	8b 48 04	 mov	 ecx, DWORD PTR [eax+4]
  000cf	8b 51 04	 mov	 edx, DWORD PTR [ecx+4]

; 506  :         _Nodeptr _Pnode   = _Wherenode->_Left;

  000d2	8b 32		 mov	 esi, DWORD PTR [edx]

; 507  :         _Wherenode->_Left = _Pnode->_Right;

  000d4	8b 4e 08	 mov	 ecx, DWORD PTR [esi+8]
  000d7	89 0a		 mov	 DWORD PTR [edx], ecx

; 508  : 
; 509  :         if (!_Pnode->_Right->_Isnil) {

  000d9	8b 4e 08	 mov	 ecx, DWORD PTR [esi+8]
  000dc	80 79 0d 00	 cmp	 BYTE PTR [ecx+13], 0
  000e0	75 03		 jne	 SHORT $LN29@Insert_nod

; 510  :             _Pnode->_Right->_Parent = _Wherenode;

  000e2	89 51 04	 mov	 DWORD PTR [ecx+4], edx
$LN29@Insert_nod:

; 511  :         }
; 512  : 
; 513  :         _Pnode->_Parent = _Wherenode->_Parent;

  000e5	8b 4a 04	 mov	 ecx, DWORD PTR [edx+4]
  000e8	89 4e 04	 mov	 DWORD PTR [esi+4], ecx

; 514  : 
; 515  :         if (_Wherenode == _Myhead->_Parent) {

  000eb	8b 0b		 mov	 ecx, DWORD PTR [ebx]
  000ed	3b 51 04	 cmp	 edx, DWORD PTR [ecx+4]
  000f0	75 0b		 jne	 SHORT $LN30@Insert_nod

; 516  :             _Myhead->_Parent = _Pnode;

  000f2	89 71 04	 mov	 DWORD PTR [ecx+4], esi

; 521  :         }
; 522  : 
; 523  :         _Pnode->_Right      = _Wherenode;

  000f5	89 56 08	 mov	 DWORD PTR [esi+8], edx

; 713  :                 }
; 714  :             } else { // fixup red-red in right subtree

  000f8	e9 cc 00 00 00	 jmp	 $LN81@Insert_nod
$LN30@Insert_nod:

; 517  :         } else if (_Wherenode == _Wherenode->_Parent->_Right) {

  000fd	8b 4a 04	 mov	 ecx, DWORD PTR [edx+4]
  00100	3b 51 08	 cmp	 edx, DWORD PTR [ecx+8]
  00103	75 0b		 jne	 SHORT $LN32@Insert_nod

; 518  :             _Wherenode->_Parent->_Right = _Pnode;

  00105	89 71 08	 mov	 DWORD PTR [ecx+8], esi

; 521  :         }
; 522  : 
; 523  :         _Pnode->_Right      = _Wherenode;

  00108	89 56 08	 mov	 DWORD PTR [esi+8], edx

; 713  :                 }
; 714  :             } else { // fixup red-red in right subtree

  0010b	e9 b9 00 00 00	 jmp	 $LN81@Insert_nod
$LN32@Insert_nod:

; 520  :             _Wherenode->_Parent->_Left = _Pnode;

  00110	89 31		 mov	 DWORD PTR [ecx], esi

; 521  :         }
; 522  : 
; 523  :         _Pnode->_Right      = _Wherenode;

  00112	89 56 08	 mov	 DWORD PTR [esi+8], edx

; 713  :                 }
; 714  :             } else { // fixup red-red in right subtree

  00115	e9 af 00 00 00	 jmp	 $LN81@Insert_nod
$LN10@Insert_nod:

; 715  :                 const auto _Parent_sibling = _Pnode->_Parent->_Parent->_Left;
; 716  :                 if (_Parent_sibling->_Color == _Red) { // parent's sibling has two red children, blacken both

  0011a	80 79 0c 00	 cmp	 BYTE PTR [ecx+12], 0
  0011e	75 1d		 jne	 SHORT $LN15@Insert_nod
$LN82@Insert_nod:

; 693  :             }
; 694  :         }
; 695  : 
; 696  :         for (_Nodeptr _Pnode = _Newnode; _Pnode->_Parent->_Color == _Red;) {

  00120	c6 42 0c 01	 mov	 BYTE PTR [edx+12], 1
  00124	c6 41 0c 01	 mov	 BYTE PTR [ecx+12], 1
  00128	8b 48 04	 mov	 ecx, DWORD PTR [eax+4]
  0012b	8b 49 04	 mov	 ecx, DWORD PTR [ecx+4]
  0012e	c6 41 0c 00	 mov	 BYTE PTR [ecx+12], 0
  00132	8b 48 04	 mov	 ecx, DWORD PTR [eax+4]
  00135	8b 41 04	 mov	 eax, DWORD PTR [ecx+4]
  00138	e9 8f 00 00 00	 jmp	 $LN2@Insert_nod
$LN15@Insert_nod:

; 717  :                     _Pnode->_Parent->_Color          = _Black;
; 718  :                     _Parent_sibling->_Color          = _Black;
; 719  :                     _Pnode->_Parent->_Parent->_Color = _Red;
; 720  :                     _Pnode                           = _Pnode->_Parent->_Parent;
; 721  :                 } else { // parent's sibling has red and black children
; 722  :                     if (_Pnode == _Pnode->_Parent->_Left) { // rotate left child to right

  0013d	8b 32		 mov	 esi, DWORD PTR [edx]
  0013f	3b c6		 cmp	 eax, esi
  00141	75 3a		 jne	 SHORT $LN42@Insert_nod

; 507  :         _Wherenode->_Left = _Pnode->_Right;

  00143	8b 4e 08	 mov	 ecx, DWORD PTR [esi+8]

; 723  :                         _Pnode = _Pnode->_Parent;

  00146	8b c2		 mov	 eax, edx

; 507  :         _Wherenode->_Left = _Pnode->_Right;

  00148	89 08		 mov	 DWORD PTR [eax], ecx

; 508  : 
; 509  :         if (!_Pnode->_Right->_Isnil) {

  0014a	8b 4e 08	 mov	 ecx, DWORD PTR [esi+8]
  0014d	80 79 0d 00	 cmp	 BYTE PTR [ecx+13], 0
  00151	75 03		 jne	 SHORT $LN37@Insert_nod

; 510  :             _Pnode->_Right->_Parent = _Wherenode;

  00153	89 41 04	 mov	 DWORD PTR [ecx+4], eax
$LN37@Insert_nod:

; 511  :         }
; 512  : 
; 513  :         _Pnode->_Parent = _Wherenode->_Parent;

  00156	8b 4a 04	 mov	 ecx, DWORD PTR [edx+4]
  00159	89 4e 04	 mov	 DWORD PTR [esi+4], ecx

; 514  : 
; 515  :         if (_Wherenode == _Myhead->_Parent) {

  0015c	8b 0b		 mov	 ecx, DWORD PTR [ebx]
  0015e	3b 41 04	 cmp	 eax, DWORD PTR [ecx+4]
  00161	75 05		 jne	 SHORT $LN38@Insert_nod

; 516  :             _Myhead->_Parent = _Pnode;

  00163	89 71 04	 mov	 DWORD PTR [ecx+4], esi
  00166	eb 0f		 jmp	 SHORT $LN41@Insert_nod
$LN38@Insert_nod:

; 517  :         } else if (_Wherenode == _Wherenode->_Parent->_Right) {

  00168	8b 4a 04	 mov	 ecx, DWORD PTR [edx+4]
  0016b	3b 41 08	 cmp	 eax, DWORD PTR [ecx+8]
  0016e	75 05		 jne	 SHORT $LN40@Insert_nod

; 518  :             _Wherenode->_Parent->_Right = _Pnode;

  00170	89 71 08	 mov	 DWORD PTR [ecx+8], esi

; 519  :         } else {

  00173	eb 02		 jmp	 SHORT $LN41@Insert_nod
$LN40@Insert_nod:

; 520  :             _Wherenode->_Parent->_Left = _Pnode;

  00175	89 31		 mov	 DWORD PTR [ecx], esi
$LN41@Insert_nod:

; 521  :         }
; 522  : 
; 523  :         _Pnode->_Right      = _Wherenode;

  00177	89 46 08	 mov	 DWORD PTR [esi+8], eax

; 524  :         _Wherenode->_Parent = _Pnode;

  0017a	89 70 04	 mov	 DWORD PTR [eax+4], esi
$LN42@Insert_nod:

; 724  :                         _Rrotate(_Pnode);
; 725  :                     }
; 726  : 
; 727  :                     _Pnode->_Parent->_Color          = _Black; // propagate red up

  0017d	8b 48 04	 mov	 ecx, DWORD PTR [eax+4]
  00180	c6 41 0c 01	 mov	 BYTE PTR [ecx+12], 1

; 728  :                     _Pnode->_Parent->_Parent->_Color = _Red;

  00184	8b 48 04	 mov	 ecx, DWORD PTR [eax+4]
  00187	8b 49 04	 mov	 ecx, DWORD PTR [ecx+4]
  0018a	c6 41 0c 00	 mov	 BYTE PTR [ecx+12], 0

; 729  :                     _Lrotate(_Pnode->_Parent->_Parent);

  0018e	8b 48 04	 mov	 ecx, DWORD PTR [eax+4]
  00191	8b 51 04	 mov	 edx, DWORD PTR [ecx+4]

; 484  :         _Nodeptr _Pnode    = _Wherenode->_Right;

  00194	8b 72 08	 mov	 esi, DWORD PTR [edx+8]

; 485  :         _Wherenode->_Right = _Pnode->_Left;

  00197	8b 0e		 mov	 ecx, DWORD PTR [esi]
  00199	89 4a 08	 mov	 DWORD PTR [edx+8], ecx

; 486  : 
; 487  :         if (!_Pnode->_Left->_Isnil) {

  0019c	8b 0e		 mov	 ecx, DWORD PTR [esi]
  0019e	80 79 0d 00	 cmp	 BYTE PTR [ecx+13], 0
  001a2	75 03		 jne	 SHORT $LN45@Insert_nod

; 488  :             _Pnode->_Left->_Parent = _Wherenode;

  001a4	89 51 04	 mov	 DWORD PTR [ecx+4], edx
$LN45@Insert_nod:

; 489  :         }
; 490  : 
; 491  :         _Pnode->_Parent = _Wherenode->_Parent;

  001a7	8b 4a 04	 mov	 ecx, DWORD PTR [edx+4]
  001aa	89 4e 04	 mov	 DWORD PTR [esi+4], ecx

; 492  : 
; 493  :         if (_Wherenode == _Myhead->_Parent) {

  001ad	8b 0b		 mov	 ecx, DWORD PTR [ebx]
  001af	3b 51 04	 cmp	 edx, DWORD PTR [ecx+4]
  001b2	75 05		 jne	 SHORT $LN46@Insert_nod

; 494  :             _Myhead->_Parent = _Pnode;

  001b4	89 71 04	 mov	 DWORD PTR [ecx+4], esi
  001b7	eb 0e		 jmp	 SHORT $LN49@Insert_nod
$LN46@Insert_nod:

; 495  :         } else if (_Wherenode == _Wherenode->_Parent->_Left) {

  001b9	8b 4a 04	 mov	 ecx, DWORD PTR [edx+4]
  001bc	3b 11		 cmp	 edx, DWORD PTR [ecx]
  001be	75 04		 jne	 SHORT $LN48@Insert_nod

; 496  :             _Wherenode->_Parent->_Left = _Pnode;

  001c0	89 31		 mov	 DWORD PTR [ecx], esi

; 497  :         } else {

  001c2	eb 03		 jmp	 SHORT $LN49@Insert_nod
$LN48@Insert_nod:

; 498  :             _Wherenode->_Parent->_Right = _Pnode;

  001c4	89 71 08	 mov	 DWORD PTR [ecx+8], esi
$LN49@Insert_nod:

; 499  :         }
; 500  : 
; 501  :         _Pnode->_Left       = _Wherenode;

  001c7	89 16		 mov	 DWORD PTR [esi], edx
$LN81@Insert_nod:

; 693  :             }
; 694  :         }
; 695  : 
; 696  :         for (_Nodeptr _Pnode = _Newnode; _Pnode->_Parent->_Color == _Red;) {

  001c9	89 72 04	 mov	 DWORD PTR [edx+4], esi
$LN2@Insert_nod:
  001cc	8b 48 04	 mov	 ecx, DWORD PTR [eax+4]
  001cf	80 79 0c 00	 cmp	 BYTE PTR [ecx+12], 0
  001d3	0f 84 87 fe ff
	ff		 je	 $LL4@Insert_nod
  001d9	5e		 pop	 esi
$LN3@Insert_nod:

; 730  :                 }
; 731  :             }
; 732  :         }
; 733  : 
; 734  :         _Head->_Parent->_Color = _Black; // root is always black

  001da	8b 45 fc	 mov	 eax, DWORD PTR __Head$1$[ebp]
  001dd	8b 40 04	 mov	 eax, DWORD PTR [eax+4]
  001e0	c6 40 0c 01	 mov	 BYTE PTR [eax+12], 1

; 735  :         return _Newnode;
; 736  :     }

  001e4	8b c7		 mov	 eax, edi
  001e6	5f		 pop	 edi
  001e7	5b		 pop	 ebx
  001e8	8b e5		 mov	 esp, ebp
  001ea	5d		 pop	 ebp
  001eb	c2 0c 00	 ret	 12			; 0000000cH
?_Insert_node@?$_Tree_val@U?$_Tree_simple_types@U?$pair@$$CBEPAU__TAXDETAIL@@@std@@@std@@@std@@QAEPAU?$_Tree_node@U?$pair@$$CBEPAU__TAXDETAIL@@@std@@PAX@2@U?$_Tree_id@PAU?$_Tree_node@U?$pair@$$CBEPAU__TAXDETAIL@@@std@@PAX@std@@@2@QAU32@@Z ENDP ; std::_Tree_val<std::_Tree_simple_types<std::pair<unsigned char const ,__TAXDETAIL *> > >::_Insert_node
_TEXT	ENDS
; Function compile flags: /Ogtp
; File C:\Program Files\Microsoft Visual Studio\2022\Professional\VC\Tools\MSVC\14.44.35207\include\xtree
; File C:\Program Files\Microsoft Visual Studio\2022\Professional\VC\Tools\MSVC\14.44.35207\include\utility
; File C:\Program Files\Microsoft Visual Studio\2022\Professional\VC\Tools\MSVC\14.44.35207\include\xmemory
; File C:\Program Files\Microsoft Visual Studio\2022\Professional\VC\Tools\MSVC\14.44.35207\include\xtree
; File C:\Program Files\Microsoft Visual Studio\2022\Professional\VC\Tools\MSVC\14.44.35207\include\xmemory
; File C:\Program Files\Microsoft Visual Studio\2022\Professional\VC\Tools\MSVC\14.44.35207\include\xtree
;	COMDAT ??1?$_Tree@V?$_Tmap_traits@EPAU__TAXDETAIL@@U?$less@E@std@@V?$allocator@U?$pair@$$CBEPAU__TAXDETAIL@@@std@@@3@$0A@@std@@@std@@QAE@XZ
_TEXT	SEGMENT
??1?$_Tree@V?$_Tmap_traits@EPAU__TAXDETAIL@@U?$less@E@std@@V?$allocator@U?$pair@$$CBEPAU__TAXDETAIL@@@std@@@3@$0A@@std@@@std@@QAE@XZ PROC ; std::_Tree<std::_Tmap_traits<unsigned char,__TAXDETAIL *,std::less<unsigned char>,std::allocator<std::pair<unsigned char const ,__TAXDETAIL *> >,0> >::~_Tree<std::_Tmap_traits<unsigned char,__TAXDETAIL *,std::less<unsigned char>,std::allocator<std::pair<unsigned char const ,__TAXDETAIL *> >,0> >, COMDAT
; _this$ = ecx

; 1095 :     ~_Tree() noexcept {

  00000	56		 push	 esi
  00001	57		 push	 edi
  00002	8b f9		 mov	 edi, ecx

; 777  :         _Erase_tree(_Al, _Myhead->_Parent);

  00004	8b 37		 mov	 esi, DWORD PTR [edi]
  00006	8b 76 04	 mov	 esi, DWORD PTR [esi+4]

; 768  :         while (!_Rootnode->_Isnil) { // free subtrees, then node

  00009	80 7e 0d 00	 cmp	 BYTE PTR [esi+13], 0
  0000d	75 21		 jne	 SHORT $LN61@Tree
  0000f	90		 npad	 1
$LL8@Tree:

; 769  :             _Erase_tree(_Al, _Rootnode->_Right);

  00010	ff 76 08	 push	 DWORD PTR [esi+8]
  00013	8b cf		 mov	 ecx, edi
  00015	57		 push	 edi
  00016	e8 00 00 00 00	 call	 ??$_Erase_tree@V?$allocator@U?$_Tree_node@U?$pair@$$CBEPAU__TAXDETAIL@@@std@@PAX@std@@@std@@@?$_Tree_val@U?$_Tree_simple_types@U?$pair@$$CBEPAU__TAXDETAIL@@@std@@@std@@@std@@QAEXAAV?$allocator@U?$_Tree_node@U?$pair@$$CBEPAU__TAXDETAIL@@@std@@PAX@std@@@1@PAU?$_Tree_node@U?$pair@$$CBEPAU__TAXDETAIL@@@std@@PAX@1@@Z ; std::_Tree_val<std::_Tree_simple_types<std::pair<unsigned char const ,__TAXDETAIL *> > >::_Erase_tree<std::allocator<std::_Tree_node<std::pair<unsigned char const ,__TAXDETAIL *>,void *> > >
; File C:\Program Files\Microsoft Visual Studio\2022\Professional\VC\Tools\MSVC\14.44.35207\include\utility

; 773  :     _Ty _Old_val = static_cast<_Ty&&>(_Val);

  0001b	8b c6		 mov	 eax, esi

; 774  :     _Val         = static_cast<_Other&&>(_New_val);

  0001d	8b 36		 mov	 esi, DWORD PTR [esi]
; File C:\Program Files\Microsoft Visual Studio\2022\Professional\VC\Tools\MSVC\14.44.35207\include\xmemory

; 289  :         ::operator delete(_Ptr, _Bytes);

  0001f	6a 18		 push	 24			; 00000018H
  00021	50		 push	 eax
  00022	e8 00 00 00 00	 call	 ??3@YAXPAXI@Z		; operator delete
  00027	83 c4 08	 add	 esp, 8
; File C:\Program Files\Microsoft Visual Studio\2022\Professional\VC\Tools\MSVC\14.44.35207\include\xtree

; 768  :         while (!_Rootnode->_Isnil) { // free subtrees, then node

  0002a	80 7e 0d 00	 cmp	 BYTE PTR [esi+13], 0
  0002e	74 e0		 je	 SHORT $LL8@Tree
$LN61@Tree:
; File C:\Program Files\Microsoft Visual Studio\2022\Professional\VC\Tools\MSVC\14.44.35207\include\xmemory

; 289  :         ::operator delete(_Ptr, _Bytes);

  00030	6a 18		 push	 24			; 00000018H
  00032	ff 37		 push	 DWORD PTR [edi]
  00034	e8 00 00 00 00	 call	 ??3@YAXPAXI@Z		; operator delete
  00039	83 c4 08	 add	 esp, 8
  0003c	5f		 pop	 edi
  0003d	5e		 pop	 esi
; File C:\Program Files\Microsoft Visual Studio\2022\Professional\VC\Tools\MSVC\14.44.35207\include\xtree

; 1102 :     }

  0003e	c3		 ret	 0
??1?$_Tree@V?$_Tmap_traits@EPAU__TAXDETAIL@@U?$less@E@std@@V?$allocator@U?$pair@$$CBEPAU__TAXDETAIL@@@std@@@3@$0A@@std@@@std@@QAE@XZ ENDP ; std::_Tree<std::_Tmap_traits<unsigned char,__TAXDETAIL *,std::less<unsigned char>,std::allocator<std::pair<unsigned char const ,__TAXDETAIL *> >,0> >::~_Tree<std::_Tmap_traits<unsigned char,__TAXDETAIL *,std::less<unsigned char>,std::allocator<std::pair<unsigned char const ,__TAXDETAIL *> >,0> >
_TEXT	ENDS
; Function compile flags: /Ogtp
;	COMDAT ??_GCTaxDBController@@UAEPAXI@Z
_TEXT	SEGMENT
___flags$ = 8						; size = 4
??_GCTaxDBController@@UAEPAXI@Z PROC			; CTaxDBController::`scalar deleting destructor', COMDAT
; _this$ = ecx
  00000	55		 push	 ebp
  00001	8b ec		 mov	 ebp, esp
  00003	56		 push	 esi
  00004	8b f1		 mov	 esi, ecx
  00006	e8 00 00 00 00	 call	 ??1CTaxDBController@@UAE@XZ ; CTaxDBController::~CTaxDBController
  0000b	f6 45 08 01	 test	 BYTE PTR ___flags$[ebp], 1
  0000f	74 0b		 je	 SHORT $LN5@scalar
  00011	6a 1c		 push	 28			; 0000001cH
  00013	56		 push	 esi
  00014	e8 00 00 00 00	 call	 ??3@YAXPAXI@Z		; operator delete
  00019	83 c4 08	 add	 esp, 8
$LN5@scalar:
  0001c	8b c6		 mov	 eax, esi
  0001e	5e		 pop	 esi
  0001f	5d		 pop	 ebp
  00020	c2 04 00	 ret	 4
??_GCTaxDBController@@UAEPAXI@Z ENDP			; CTaxDBController::`scalar deleting destructor'
_TEXT	ENDS
; Function compile flags: /Ogtp
; File C:\IAGOS\server\v18\Source\Source\_Common\Tax.cpp
; File C:\Program Files\Microsoft Visual Studio\2022\Professional\VC\Tools\MSVC\14.44.35207\include\xtree
; File C:\IAGOS\server\v18\Source\Source\_Common\Tax.cpp
; File C:\Program Files\Microsoft Visual Studio\2022\Professional\VC\Tools\MSVC\14.44.35207\include\xtree
; File C:\IAGOS\server\v18\Source\Source\_Common\Tax.cpp
;	COMDAT ?UpdateAllToDB@CTaxDBController@@AAEXXZ
_TEXT	SEGMENT
?UpdateAllToDB@CTaxDBController@@AAEXXZ PROC		; CTaxDBController::UpdateAllToDB, COMDAT
; _this$ = ecx

; 864  : {

  00000	53		 push	 ebx
  00001	56		 push	 esi
  00002	57		 push	 edi
  00003	8b d9		 mov	 ebx, ecx

; 865  : 	CTax* tax = CTax::GetInstance();

  00005	e8 00 00 00 00	 call	 ?GetInstance@CTax@@SAPAV1@XZ ; CTax::GetInstance
  0000a	8b f8		 mov	 edi, eax
; File C:\Program Files\Microsoft Visual Studio\2022\Professional\VC\Tools\MSVC\14.44.35207\include\xtree

; 1142 :         return iterator(_Scary->_Myhead->_Left, _Scary);

  0000c	8b 57 08	 mov	 edx, DWORD PTR [edi+8]

; 37   :     _Tree_unchecked_const_iterator(_Nodeptr _Pnode, const _Mytree* _Plist) noexcept : _Ptr(_Pnode) {

  0000f	8b 32		 mov	 esi, DWORD PTR [edx]

; 237  :         return !(*this == _Right);

  00011	3b f2		 cmp	 esi, edx
; File C:\IAGOS\server\v18\Source\Source\_Common\Tax.cpp

; 866  : 	for( TAXINFOMAP::iterator it=tax->m_mapTaxInfo.begin(); it!=tax->m_mapTaxInfo.end(); it++ )

  00013	74 4d		 je	 SHORT $LN3@UpdateAllT
$LL4@UpdateAllT:

; 867  : 		UpdateToDB( it->first );

  00015	0f b6 46 10	 movzx	 eax, BYTE PTR [esi+16]
  00019	8b cb		 mov	 ecx, ebx
  0001b	50		 push	 eax
  0001c	e8 00 00 00 00	 call	 ?UpdateToDB@CTaxDBController@@AAEXE@Z ; CTaxDBController::UpdateToDB
; File C:\Program Files\Microsoft Visual Studio\2022\Professional\VC\Tools\MSVC\14.44.35207\include\xtree

; 50   :         if (_Ptr->_Right->_Isnil) { // climb looking for right subtree

  00021	8b 46 08	 mov	 eax, DWORD PTR [esi+8]
  00024	80 78 0d 00	 cmp	 BYTE PTR [eax+13], 0
  00028	74 1d		 je	 SHORT $LN27@UpdateAllT

; 51   :             _Nodeptr _Pnode;
; 52   :             while (!(_Pnode = _Ptr->_Parent)->_Isnil && _Ptr == _Pnode->_Right) {

  0002a	8b 46 04	 mov	 eax, DWORD PTR [esi+4]
  0002d	80 78 0d 00	 cmp	 BYTE PTR [eax+13], 0
  00031	75 10		 jne	 SHORT $LN75@UpdateAllT
$LL25@UpdateAllT:
  00033	3b 70 08	 cmp	 esi, DWORD PTR [eax+8]
  00036	75 0b		 jne	 SHORT $LN75@UpdateAllT

; 53   :                 _Ptr = _Pnode; // ==> parent while right subtree

  00038	8b f0		 mov	 esi, eax
  0003a	8b 40 04	 mov	 eax, DWORD PTR [eax+4]
  0003d	80 78 0d 00	 cmp	 BYTE PTR [eax+13], 0
  00041	74 f0		 je	 SHORT $LL25@UpdateAllT
$LN75@UpdateAllT:

; 54   :             }
; 55   : 
; 56   :             _Ptr = _Pnode; // ==> parent (head if end())

  00043	8b f0		 mov	 esi, eax

; 57   :         } else {

  00045	eb 16		 jmp	 SHORT $LN33@UpdateAllT
$LN27@UpdateAllT:

; 58   :             _Ptr = _Mytree::_Min(_Ptr->_Right); // ==> smallest of right subtree

  00047	8b f0		 mov	 esi, eax

; 476  :         while (!_Pnode->_Left->_Isnil) {

  00049	8b 0e		 mov	 ecx, DWORD PTR [esi]
  0004b	80 79 0d 00	 cmp	 BYTE PTR [ecx+13], 0
  0004f	75 0c		 jne	 SHORT $LN33@UpdateAllT
$LL32@UpdateAllT:
  00051	8b 01		 mov	 eax, DWORD PTR [ecx]

; 477  :             _Pnode = _Pnode->_Left;

  00053	8b f1		 mov	 esi, ecx
  00055	8b c8		 mov	 ecx, eax
  00057	80 78 0d 00	 cmp	 BYTE PTR [eax+13], 0
  0005b	74 f4		 je	 SHORT $LL32@UpdateAllT
$LN33@UpdateAllT:

; 237  :         return !(*this == _Right);

  0005d	3b 77 08	 cmp	 esi, DWORD PTR [edi+8]
; File C:\IAGOS\server\v18\Source\Source\_Common\Tax.cpp

; 866  : 	for( TAXINFOMAP::iterator it=tax->m_mapTaxInfo.begin(); it!=tax->m_mapTaxInfo.end(); it++ )

  00060	75 b3		 jne	 SHORT $LL4@UpdateAllT
$LN3@UpdateAllT:
  00062	5f		 pop	 edi

; 868  : }

  00063	5e		 pop	 esi
  00064	5b		 pop	 ebx
  00065	c3		 ret	 0
?UpdateAllToDB@CTaxDBController@@AAEXXZ ENDP		; CTaxDBController::UpdateAllToDB
_TEXT	ENDS
; Function compile flags: /Ogtp
; File C:\IAGOS\server\v18\Source\Source\_Common\Tax.cpp
; File C:\Program Files\Microsoft Visual Studio\2022\Professional\VC\Tools\MSVC\14.44.35207\include\xtree
; File C:\IAGOS\server\v18\Source\Source\_Common\Tax.cpp
; File C:\Program Files\Microsoft Visual Studio\2022\Professional\VC\Tools\MSVC\14.44.35207\include\xtree
; File C:\IAGOS\server\v18\Source\Source\_Common\Tax.cpp
;	COMDAT ?UpdateToDB@CTaxDBController@@AAEXE@Z
_TEXT	SEGMENT
$T1 = -40976						; size = 4
_this$GSCopy$1$ = -40976				; size = 4
_pQuery$1$ = -40972					; size = 4
_it2$2 = -40968						; size = 4
_nContinent$GSCopy$ = -40968				; size = 1
_szQuery$ = -40964					; size = 40960
__$ArrayPad$ = -4					; size = 4
_nContinent$ = 8					; size = 1
?UpdateToDB@CTaxDBController@@AAEXE@Z PROC		; CTaxDBController::UpdateToDB, COMDAT
; _this$ = ecx

; 832  : {

  00000	55		 push	 ebp
  00001	8b ec		 mov	 ebp, esp
  00003	b8 10 a0 00 00	 mov	 eax, 40976		; 0000a010H
  00008	e8 00 00 00 00	 call	 __chkstk
  0000d	a1 00 00 00 00	 mov	 eax, DWORD PTR ___security_cookie
  00012	33 c5		 xor	 eax, ebp
  00014	89 45 fc	 mov	 DWORD PTR __$ArrayPad$[ebp], eax

; 833  : 	CQuery* pQuery = GetQueryObject();

  00017	8b 41 0c	 mov	 eax, DWORD PTR [ecx+12]
  0001a	53		 push	 ebx
  0001b	8a 5d 08	 mov	 bl, BYTE PTR _nContinent$[ebp]
  0001e	56		 push	 esi
  0001f	57		 push	 edi

; 834  : 
; 835  : 	char szQuery[QUERY_SIZE] = {0,};

  00020	68 00 a0 00 00	 push	 40960			; 0000a000H
  00025	89 85 f4 5f ff
	ff		 mov	 DWORD PTR _pQuery$1$[ebp], eax
  0002b	8d 85 fc 5f ff
	ff		 lea	 eax, DWORD PTR _szQuery$[ebp]
  00031	6a 00		 push	 0
  00033	50		 push	 eax
  00034	89 8d f0 5f ff
	ff		 mov	 DWORD PTR _this$GSCopy$1$[ebp], ecx
  0003a	88 9d f8 5f ff
	ff		 mov	 BYTE PTR _nContinent$GSCopy$[ebp], bl
  00040	e8 00 00 00 00	 call	 _memset
  00045	83 c4 0c	 add	 esp, 12			; 0000000cH

; 836  : 
; 837  : 	__TAXINFO* taxInfo = CTax::GetInstance()->GetTaxInfo( nContinent );

  00048	ff b5 f8 5f ff
	ff		 push	 DWORD PTR _nContinent$GSCopy$[ebp]
  0004e	e8 00 00 00 00	 call	 ?GetInstance@CTax@@SAPAV1@XZ ; CTax::GetInstance
  00053	8b c8		 mov	 ecx, eax
  00055	e8 00 00 00 00	 call	 ?GetTaxInfo@CTax@@QAEPAU__TAXINFO@@E@Z ; CTax::GetTaxInfo
  0005a	8b f0		 mov	 esi, eax
  0005c	0f b6 fb	 movzx	 edi, bl

; 838  : 	if( !taxInfo )

  0005f	85 f6		 test	 esi, esi
  00061	75 21		 jne	 SHORT $LN5@UpdateToDB

; 839  : 	{
; 840  : 		WriteLog( "UpdateToDB() - taxInfo is NULL, nContinent = %x", nContinent );

  00063	57		 push	 edi
  00064	68 00 00 00 00	 push	 OFFSET ??_C@_0DA@LBKMKMAC@UpdateToDB?$CI?$CJ?5?9?5taxInfo?5is?5NULL?0@
  00069	e8 00 00 00 00	 call	 ?WriteLog@@YAXPBDZZ	; WriteLog
  0006e	83 c4 08	 add	 esp, 8
  00071	5f		 pop	 edi

; 860  : 	}
; 861  : }

  00072	5e		 pop	 esi
  00073	5b		 pop	 ebx
  00074	8b 4d fc	 mov	 ecx, DWORD PTR __$ArrayPad$[ebp]
  00077	33 cd		 xor	 ecx, ebp
  00079	e8 00 00 00 00	 call	 @__security_check_cookie@4
  0007e	8b e5		 mov	 esp, ebp
  00080	5d		 pop	 ebp
  00081	c2 04 00	 ret	 4
$LN5@UpdateToDB:

; 841  : 		return;
; 842  : 	}
; 843  : 
; 844  : 	DWORD dwTempId = 0, dwTempNextId = 0;
; 845  : 	if( taxInfo->dwId != NULL_ID ) dwTempId = taxInfo->dwId;
; 846  : 	if( taxInfo->dwNextId != NULL_ID ) dwTempNextId = taxInfo->dwNextId;
; 847  : 	sprintf( szQuery, "TAX_INFO_STR 'U1', '%02d', %d, %d, '%07d', '%07d', %d, '0'",

  00084	ff 76 04	 push	 DWORD PTR [esi+4]
  00087	8b 46 10	 mov	 eax, DWORD PTR [esi+16]
  0008a	33 d2		 xor	 edx, edx
  0008c	8b 0e		 mov	 ecx, DWORD PTR [esi]
  0008e	83 f8 ff	 cmp	 eax, -1
  00091	8b 9d f0 5f ff
	ff		 mov	 ebx, DWORD PTR _this$GSCopy$1$[ebp]
  00097	0f 44 c2	 cmove	 eax, edx
  0009a	50		 push	 eax
  0009b	33 c0		 xor	 eax, eax
  0009d	83 f9 ff	 cmp	 ecx, -1
  000a0	0f 44 c8	 cmove	 ecx, eax
  000a3	8d 85 fc 5f ff
	ff		 lea	 eax, DWORD PTR _szQuery$[ebp]
  000a9	51		 push	 ecx
  000aa	57		 push	 edi
  000ab	ff 73 14	 push	 DWORD PTR [ebx+20]
  000ae	ff 35 00 00 00
	00		 push	 DWORD PTR ?g_appInfo@@3UAppInfo@@A
  000b4	68 00 00 00 00	 push	 OFFSET ??_C@_0DL@EDBIPHKJ@TAX_INFO_STR?5?8U1?8?0?5?8?$CF02d?8?0?5?$CFd?0?5@
  000b9	50		 push	 eax
  000ba	e8 00 00 00 00	 call	 _sprintf

; 848  : 		g_appInfo.dwSys, m_nTimes, nContinent, dwTempId, dwTempNextId, taxInfo->bSetTaxRate );
; 849  : 	if( pQuery->Exec( szQuery ) == FALSE )

  000bf	8b 8d f4 5f ff
	ff		 mov	 ecx, DWORD PTR _pQuery$1$[ebp]
  000c5	8d 85 fc 5f ff
	ff		 lea	 eax, DWORD PTR _szQuery$[ebp]
  000cb	83 c4 20	 add	 esp, 32			; 00000020H
  000ce	50		 push	 eax
  000cf	e8 00 00 00 00	 call	 ?Exec@CQuery@@QAEHPBD@Z	; CQuery::Exec
  000d4	85 c0		 test	 eax, eax
  000d6	75 11		 jne	 SHORT $LN8@UpdateToDB

; 850  : 	{ WriteLog( "%s, %d\t%s", __FILE__, __LINE__, szQuery ); return; }

  000d8	8d 85 fc 5f ff
	ff		 lea	 eax, DWORD PTR _szQuery$[ebp]
  000de	50		 push	 eax
  000df	68 52 03 00 00	 push	 850			; 00000352H
  000e4	e9 9f 00 00 00	 jmp	 $LN68@UpdateToDB
$LN8@UpdateToDB:
; File C:\Program Files\Microsoft Visual Studio\2022\Professional\VC\Tools\MSVC\14.44.35207\include\xtree

; 1142 :         return iterator(_Scary->_Myhead->_Left, _Scary);

  000e9	8b 4e 08	 mov	 ecx, DWORD PTR [esi+8]

; 37   :     _Tree_unchecked_const_iterator(_Nodeptr _Pnode, const _Mytree* _Plist) noexcept : _Ptr(_Pnode) {

  000ec	8b 01		 mov	 eax, DWORD PTR [ecx]
  000ee	89 85 f8 5f ff
	ff		 mov	 DWORD PTR _it2$2[ebp], eax

; 237  :         return !(*this == _Right);

  000f4	3b c1		 cmp	 eax, ecx
; File C:\IAGOS\server\v18\Source\Source\_Common\Tax.cpp

; 852  : 	for( TAXDETAILMAP::iterator it2=taxInfo->mapTaxDetail.begin(); it2!=taxInfo->mapTaxDetail.end(); it2++ )

  000f6	0f 84 9e 00 00
	00		 je	 $LN3@UpdateToDB
  000fc	0f 1f 40 00	 npad	 4
$LL4@UpdateToDB:

; 853  : 	{
; 854  : 		__TAXDETAIL* taxDetail = it2->second;

  00100	8b 48 14	 mov	 ecx, DWORD PTR [eax+20]

; 855  : 		sprintf( szQuery, "TAX_DETAIL_STR 'U1', '%02d', %d, %d, %d, %d, %d, %d, %d, %d",

  00103	0f b6 40 10	 movzx	 eax, BYTE PTR [eax+16]
  00107	ff 71 10	 push	 DWORD PTR [ecx+16]
  0010a	ff 71 0c	 push	 DWORD PTR [ecx+12]
  0010d	ff 71 08	 push	 DWORD PTR [ecx+8]
  00110	ff 71 04	 push	 DWORD PTR [ecx+4]
  00113	ff 31		 push	 DWORD PTR [ecx]
  00115	50		 push	 eax
  00116	57		 push	 edi
  00117	ff 73 14	 push	 DWORD PTR [ebx+20]
  0011a	8d 85 fc 5f ff
	ff		 lea	 eax, DWORD PTR _szQuery$[ebp]
  00120	ff 35 00 00 00
	00		 push	 DWORD PTR ?g_appInfo@@3UAppInfo@@A
  00126	68 00 00 00 00	 push	 OFFSET ??_C@_0DM@BIDMIHDA@TAX_DETAIL_STR?5?8U1?8?0?5?8?$CF02d?8?0?5?$CFd@
  0012b	50		 push	 eax
  0012c	e8 00 00 00 00	 call	 _sprintf

; 856  : 			g_appInfo.dwSys, m_nTimes, nContinent, it2->first, taxDetail->nTaxRate, taxDetail->nTaxCount,
; 857  : 			taxDetail->nTaxGold, taxDetail->nTaxPerin, taxDetail->nNextTaxRate );
; 858  : 		if( pQuery->Exec( szQuery ) == FALSE )

  00131	8b 8d f4 5f ff
	ff		 mov	 ecx, DWORD PTR _pQuery$1$[ebp]
  00137	8d 85 fc 5f ff
	ff		 lea	 eax, DWORD PTR _szQuery$[ebp]
  0013d	83 c4 2c	 add	 esp, 44			; 0000002cH
  00140	50		 push	 eax
  00141	e8 00 00 00 00	 call	 ?Exec@CQuery@@QAEHPBD@Z	; CQuery::Exec
  00146	85 c0		 test	 eax, eax
  00148	74 32		 je	 SHORT $LN60@UpdateToDB

; 852  : 	for( TAXDETAILMAP::iterator it2=taxInfo->mapTaxDetail.begin(); it2!=taxInfo->mapTaxDetail.end(); it2++ )

  0014a	6a 00		 push	 0
  0014c	8d 85 f0 5f ff
	ff		 lea	 eax, DWORD PTR $T1[ebp]
  00152	50		 push	 eax
  00153	8d 8d f8 5f ff
	ff		 lea	 ecx, DWORD PTR _it2$2[ebp]
  00159	e8 00 00 00 00	 call	 ??E?$_Tree_iterator@V?$_Tree_val@U?$_Tree_simple_types@U?$pair@$$CBEPAU__TAXDETAIL@@@std@@@std@@@std@@@std@@QAE?AV01@H@Z ; std::_Tree_iterator<std::_Tree_val<std::_Tree_simple_types<std::pair<unsigned char const ,__TAXDETAIL *> > > >::operator++
; File C:\Program Files\Microsoft Visual Studio\2022\Professional\VC\Tools\MSVC\14.44.35207\include\xtree

; 237  :         return !(*this == _Right);

  0015e	8b 85 f8 5f ff
	ff		 mov	 eax, DWORD PTR _it2$2[ebp]
  00164	3b 46 08	 cmp	 eax, DWORD PTR [esi+8]
; File C:\IAGOS\server\v18\Source\Source\_Common\Tax.cpp

; 852  : 	for( TAXDETAILMAP::iterator it2=taxInfo->mapTaxDetail.begin(); it2!=taxInfo->mapTaxDetail.end(); it2++ )

  00167	75 97		 jne	 SHORT $LL4@UpdateToDB

; 860  : 	}
; 861  : }

  00169	5f		 pop	 edi
  0016a	5e		 pop	 esi
  0016b	5b		 pop	 ebx
  0016c	8b 4d fc	 mov	 ecx, DWORD PTR __$ArrayPad$[ebp]
  0016f	33 cd		 xor	 ecx, ebp
  00171	e8 00 00 00 00	 call	 @__security_check_cookie@4
  00176	8b e5		 mov	 esp, ebp
  00178	5d		 pop	 ebp
  00179	c2 04 00	 ret	 4
$LN60@UpdateToDB:

; 859  : 		{ WriteLog( "%s, %d\t%s", __FILE__, __LINE__, szQuery ); return; }

  0017c	8d 85 fc 5f ff
	ff		 lea	 eax, DWORD PTR _szQuery$[ebp]
  00182	50		 push	 eax
  00183	68 5b 03 00 00	 push	 859			; 0000035bH
$LN68@UpdateToDB:

; 860  : 	}
; 861  : }

  00188	68 00 00 00 00	 push	 OFFSET ??_C@_0DC@PBFLEGFH@C?3?2IAGOS?2server?2v18?2Source?2Sour@
  0018d	68 00 00 00 00	 push	 OFFSET ??_C@_09GBAEEKDE@?$CFs?0?5?$CFd?7?$CFs@
  00192	e8 00 00 00 00	 call	 ?WriteLog@@YAXPBDZZ	; WriteLog
  00197	83 c4 10	 add	 esp, 16			; 00000010H
$LN3@UpdateToDB:
  0019a	8b 4d fc	 mov	 ecx, DWORD PTR __$ArrayPad$[ebp]
  0019d	5f		 pop	 edi
  0019e	5e		 pop	 esi
  0019f	33 cd		 xor	 ecx, ebp
  001a1	5b		 pop	 ebx
  001a2	e8 00 00 00 00	 call	 @__security_check_cookie@4
  001a7	8b e5		 mov	 esp, ebp
  001a9	5d		 pop	 ebp
  001aa	c2 04 00	 ret	 4
?UpdateToDB@CTaxDBController@@AAEXE@Z ENDP		; CTaxDBController::UpdateToDB
_TEXT	ENDS
; Function compile flags: /Ogtp
; File C:\IAGOS\server\v18\Source\Source\_Common\Tax.cpp
; File C:\Program Files\Microsoft Visual Studio\2022\Professional\VC\Tools\MSVC\14.44.35207\include\xtree
; File C:\IAGOS\server\v18\Source\Source\_Common\Tax.cpp
; File C:\Program Files\Microsoft Visual Studio\2022\Professional\VC\Tools\MSVC\14.44.35207\include\xstring
; File C:\IAGOS\server\v18\Source\Source\_Common\Tax.cpp
; File C:\Program Files\Microsoft Visual Studio\2022\Professional\VC\Tools\MSVC\14.44.35207\include\xtree
; File C:\IAGOS\server\v18\Source\Source\_Common\Tax.cpp
; File C:\Program Files\Microsoft Visual Studio\2022\Professional\VC\Tools\MSVC\14.44.35207\include\xtree
; File C:\IAGOS\server\v18\Source\Source\_Common\Tax.cpp
; File C:\Program Files\Microsoft Visual Studio\2022\Professional\VC\Tools\MSVC\14.44.35207\include\xtree
; File C:\IAGOS\server\v18\Source\Source\_Common\Tax.cpp
;	COMDAT ?InsertToDB@CTaxDBController@@AAEXXZ
_TEXT	SEGMENT
_this$1$ = -40980					; size = 4
_pQuery$1$ = -40976					; size = 4
_this$GSCopy$1$ = -40972				; size = 4
_pTax$1$ = -40968					; size = 4
_szQuery$ = -40964					; size = 40960
__$ArrayPad$ = -4					; size = 4
?InsertToDB@CTaxDBController@@AAEXXZ PROC		; CTaxDBController::InsertToDB, COMDAT
; _this$ = ecx

; 801  : {

  00000	55		 push	 ebp
  00001	8b ec		 mov	 ebp, esp
  00003	b8 14 a0 00 00	 mov	 eax, 40980		; 0000a014H
  00008	e8 00 00 00 00	 call	 __chkstk
  0000d	a1 00 00 00 00	 mov	 eax, DWORD PTR ___security_cookie
  00012	33 c5		 xor	 eax, ebp
  00014	89 45 fc	 mov	 DWORD PTR __$ArrayPad$[ebp], eax
  00017	56		 push	 esi
  00018	8b f1		 mov	 esi, ecx
  0001a	57		 push	 edi

; 802  : 	CQuery* pQuery = GetQueryObject();
; 803  : 
; 804  : 	char szQuery[QUERY_SIZE] = {0,};

  0001b	68 00 a0 00 00	 push	 40960			; 0000a000H
  00020	6a 00		 push	 0
  00022	8b 46 0c	 mov	 eax, DWORD PTR [esi+12]
  00025	89 85 f0 5f ff
	ff		 mov	 DWORD PTR _pQuery$1$[ebp], eax
  0002b	8d 85 fc 5f ff
	ff		 lea	 eax, DWORD PTR _szQuery$[ebp]
  00031	50		 push	 eax
  00032	89 b5 f4 5f ff
	ff		 mov	 DWORD PTR _this$GSCopy$1$[ebp], esi
  00038	e8 00 00 00 00	 call	 _memset

; 805  : 	
; 806  : 	m_nTimes++;

  0003d	ff 46 14	 inc	 DWORD PTR [esi+20]
  00040	83 c4 0c	 add	 esp, 12			; 0000000cH

; 807  : 	CTax* pTax = CTax::GetInstance();

  00043	e8 00 00 00 00	 call	 ?GetInstance@CTax@@SAPAV1@XZ ; CTax::GetInstance
  00048	89 85 f8 5f ff
	ff		 mov	 DWORD PTR _pTax$1$[ebp], eax
; File C:\Program Files\Microsoft Visual Studio\2022\Professional\VC\Tools\MSVC\14.44.35207\include\xtree

; 1142 :         return iterator(_Scary->_Myhead->_Left, _Scary);

  0004e	8b 48 08	 mov	 ecx, DWORD PTR [eax+8]

; 37   :     _Tree_unchecked_const_iterator(_Nodeptr _Pnode, const _Mytree* _Plist) noexcept : _Ptr(_Pnode) {

  00051	8b 39		 mov	 edi, DWORD PTR [ecx]

; 237  :         return !(*this == _Right);

  00053	3b f9		 cmp	 edi, ecx
; File C:\IAGOS\server\v18\Source\Source\_Common\Tax.cpp

; 808  : 	for( TAXINFOMAP::iterator it=pTax->m_mapTaxInfo.begin(); it!=pTax->m_mapTaxInfo.end(); it++ )

  00055	0f 84 a9 01 00
	00		 je	 $LN3@InsertToDB
  0005b	8d 50 48	 lea	 edx, DWORD PTR [eax+72]
  0005e	89 95 ec 5f ff
	ff		 mov	 DWORD PTR _this$1$[ebp], edx
  00064	53		 push	 ebx
$LL4@InsertToDB:

; 809  : 	{
; 810  : 		__TAXINFO* taxInfo = it->second;

  00065	8b 5f 14	 mov	 ebx, DWORD PTR [edi+20]

; 811  : 		DWORD dwTempId = 0, dwTempNextId = 0;
; 812  : 		if( taxInfo->dwId != NULL_ID ) dwTempId = taxInfo->dwId;
; 813  : 		if( taxInfo->dwNextId != NULL_ID ) dwTempNextId = taxInfo->dwNextId;

  00068	33 c9		 xor	 ecx, ecx
  0006a	8b 03		 mov	 eax, DWORD PTR [ebx]
  0006c	83 f8 ff	 cmp	 eax, -1
  0006f	0f 44 c1	 cmove	 eax, ecx
  00072	8b 4b 10	 mov	 ecx, DWORD PTR [ebx+16]
; File C:\Program Files\Microsoft Visual Studio\2022\Professional\VC\Tools\MSVC\14.44.35207\include\xstring

; 2356 :         return _Mypair._Myval2._Myptr();

  00075	33 f6		 xor	 esi, esi
  00077	83 f9 ff	 cmp	 ecx, -1
  0007a	0f 44 ce	 cmove	 ecx, esi

; 453  :         return _Myres > _Small_string_capacity;

  0007d	8b b5 f8 5f ff
	ff		 mov	 esi, DWORD PTR _pTax$1$[ebp]
  00083	83 7e 5c 0f	 cmp	 DWORD PTR [esi+92], 15	; 0000000fH

; 445  :         if (_Large_mode_engaged()) {

  00087	8b b5 f4 5f ff
	ff		 mov	 esi, DWORD PTR _this$GSCopy$1$[ebp]
  0008d	76 09		 jbe	 SHORT $LN125@InsertToDB

; 446  :             _Result = _Unfancy(_Bx._Ptr);

  0008f	8b 95 f8 5f ff
	ff		 mov	 edx, DWORD PTR _pTax$1$[ebp]
  00095	8b 52 48	 mov	 edx, DWORD PTR [edx+72]
$LN125@InsertToDB:
; File C:\IAGOS\server\v18\Source\Source\_Common\Tax.cpp

; 814  : 		sprintf( szQuery, "TAX_INFO_STR 'I1', '%02d', %d, %d, '%07d', '%07d', %d, '%s'",

  00098	52		 push	 edx
  00099	ff 73 04	 push	 DWORD PTR [ebx+4]
  0009c	51		 push	 ecx
  0009d	50		 push	 eax
  0009e	0f b6 47 10	 movzx	 eax, BYTE PTR [edi+16]
  000a2	50		 push	 eax
  000a3	ff 76 14	 push	 DWORD PTR [esi+20]
  000a6	8d 85 fc 5f ff
	ff		 lea	 eax, DWORD PTR _szQuery$[ebp]
  000ac	ff 35 00 00 00
	00		 push	 DWORD PTR ?g_appInfo@@3UAppInfo@@A
  000b2	68 00 00 00 00	 push	 OFFSET ??_C@_0DM@IEFKIIDM@TAX_INFO_STR?5?8I1?8?0?5?8?$CF02d?8?0?5?$CFd?0?5@
  000b7	50		 push	 eax
  000b8	e8 00 00 00 00	 call	 _sprintf

; 815  : 				g_appInfo.dwSys, m_nTimes, it->first, dwTempId, dwTempNextId, taxInfo->bSetTaxRate, pTax->m_strChangedDate.c_str() );
; 816  : 		if( pQuery->Exec( szQuery ) == FALSE )

  000bd	8b 8d f0 5f ff
	ff		 mov	 ecx, DWORD PTR _pQuery$1$[ebp]
  000c3	8d 85 fc 5f ff
	ff		 lea	 eax, DWORD PTR _szQuery$[ebp]
  000c9	83 c4 24	 add	 esp, 36			; 00000024H
  000cc	50		 push	 eax
  000cd	e8 00 00 00 00	 call	 ?Exec@CQuery@@QAEHPBD@Z	; CQuery::Exec
  000d2	85 c0		 test	 eax, eax
  000d4	0f 84 0b 01 00
	00		 je	 $LN171@InsertToDB
; File C:\Program Files\Microsoft Visual Studio\2022\Professional\VC\Tools\MSVC\14.44.35207\include\xtree

; 1142 :         return iterator(_Scary->_Myhead->_Left, _Scary);

  000da	8b 43 08	 mov	 eax, DWORD PTR [ebx+8]

; 37   :     _Tree_unchecked_const_iterator(_Nodeptr _Pnode, const _Mytree* _Plist) noexcept : _Ptr(_Pnode) {

  000dd	8b 30		 mov	 esi, DWORD PTR [eax]

; 237  :         return !(*this == _Right);

  000df	3b f0		 cmp	 esi, eax
; File C:\IAGOS\server\v18\Source\Source\_Common\Tax.cpp

; 819  : 		for( TAXDETAILMAP::iterator it2=taxInfo->mapTaxDetail.begin(); it2!=taxInfo->mapTaxDetail.end(); it2++ )

  000e1	0f 84 9e 00 00
	00		 je	 $LN2@InsertToDB
$LL7@InsertToDB:

; 820  : 		{
; 821  : 			__TAXDETAIL* taxDetail = it2->second;

  000e7	8b 46 14	 mov	 eax, DWORD PTR [esi+20]

; 822  : 			sprintf( szQuery, "TAX_DETAIL_STR 'I1', '%02d', %d, %d, %d, %d, %d, %d, %d, %d",

  000ea	ff 70 10	 push	 DWORD PTR [eax+16]
  000ed	ff 70 0c	 push	 DWORD PTR [eax+12]
  000f0	ff 70 08	 push	 DWORD PTR [eax+8]
  000f3	ff 70 04	 push	 DWORD PTR [eax+4]
  000f6	ff 30		 push	 DWORD PTR [eax]
  000f8	0f b6 46 10	 movzx	 eax, BYTE PTR [esi+16]
  000fc	50		 push	 eax
  000fd	0f b6 47 10	 movzx	 eax, BYTE PTR [edi+16]
  00101	50		 push	 eax
  00102	8b 85 f4 5f ff
	ff		 mov	 eax, DWORD PTR _this$GSCopy$1$[ebp]
  00108	ff 70 14	 push	 DWORD PTR [eax+20]
  0010b	8d 85 fc 5f ff
	ff		 lea	 eax, DWORD PTR _szQuery$[ebp]
  00111	ff 35 00 00 00
	00		 push	 DWORD PTR ?g_appInfo@@3UAppInfo@@A
  00117	68 00 00 00 00	 push	 OFFSET ??_C@_0DM@PFLMCPAK@TAX_DETAIL_STR?5?8I1?8?0?5?8?$CF02d?8?0?5?$CFd@
  0011c	50		 push	 eax
  0011d	e8 00 00 00 00	 call	 _sprintf

; 823  : 					g_appInfo.dwSys, m_nTimes, it->first, it2->first, taxDetail->nTaxRate, taxDetail->nTaxCount,
; 824  : 					taxDetail->nTaxGold, taxDetail->nTaxPerin, taxDetail->nNextTaxRate );
; 825  : 			if( pQuery->Exec( szQuery ) == FALSE )

  00122	8b 8d f0 5f ff
	ff		 mov	 ecx, DWORD PTR _pQuery$1$[ebp]
  00128	8d 85 fc 5f ff
	ff		 lea	 eax, DWORD PTR _szQuery$[ebp]
  0012e	83 c4 2c	 add	 esp, 44			; 0000002cH
  00131	50		 push	 eax
  00132	e8 00 00 00 00	 call	 ?Exec@CQuery@@QAEHPBD@Z	; CQuery::Exec
  00137	85 c0		 test	 eax, eax
  00139	0f 84 98 00 00
	00		 je	 $LN170@InsertToDB
; File C:\Program Files\Microsoft Visual Studio\2022\Professional\VC\Tools\MSVC\14.44.35207\include\xtree

; 50   :         if (_Ptr->_Right->_Isnil) { // climb looking for right subtree

  0013f	8b 46 08	 mov	 eax, DWORD PTR [esi+8]
  00142	80 78 0d 00	 cmp	 BYTE PTR [eax+13], 0
  00146	74 1d		 je	 SHORT $LN103@InsertToDB

; 51   :             _Nodeptr _Pnode;
; 52   :             while (!(_Pnode = _Ptr->_Parent)->_Isnil && _Ptr == _Pnode->_Right) {

  00148	8b 46 04	 mov	 eax, DWORD PTR [esi+4]
  0014b	80 78 0d 00	 cmp	 BYTE PTR [eax+13], 0
  0014f	75 10		 jne	 SHORT $LN191@InsertToDB
$LL101@InsertToDB:
  00151	3b 70 08	 cmp	 esi, DWORD PTR [eax+8]
  00154	75 0b		 jne	 SHORT $LN191@InsertToDB

; 53   :                 _Ptr = _Pnode; // ==> parent while right subtree

  00156	8b f0		 mov	 esi, eax
  00158	8b 40 04	 mov	 eax, DWORD PTR [eax+4]
  0015b	80 78 0d 00	 cmp	 BYTE PTR [eax+13], 0
  0015f	74 f0		 je	 SHORT $LL101@InsertToDB
$LN191@InsertToDB:

; 54   :             }
; 55   : 
; 56   :             _Ptr = _Pnode; // ==> parent (head if end())

  00161	8b f0		 mov	 esi, eax

; 57   :         } else {

  00163	eb 17		 jmp	 SHORT $LN109@InsertToDB
$LN103@InsertToDB:

; 58   :             _Ptr = _Mytree::_Min(_Ptr->_Right); // ==> smallest of right subtree

  00165	8b f0		 mov	 esi, eax

; 476  :         while (!_Pnode->_Left->_Isnil) {

  00167	8b 0e		 mov	 ecx, DWORD PTR [esi]
  00169	80 79 0d 00	 cmp	 BYTE PTR [ecx+13], 0
  0016d	75 0d		 jne	 SHORT $LN109@InsertToDB
  0016f	90		 npad	 1
$LL108@InsertToDB:
  00170	8b 01		 mov	 eax, DWORD PTR [ecx]

; 477  :             _Pnode = _Pnode->_Left;

  00172	8b f1		 mov	 esi, ecx
  00174	8b c8		 mov	 ecx, eax
  00176	80 78 0d 00	 cmp	 BYTE PTR [eax+13], 0
  0017a	74 f4		 je	 SHORT $LL108@InsertToDB
$LN109@InsertToDB:

; 237  :         return !(*this == _Right);

  0017c	3b 73 08	 cmp	 esi, DWORD PTR [ebx+8]
; File C:\IAGOS\server\v18\Source\Source\_Common\Tax.cpp

; 819  : 		for( TAXDETAILMAP::iterator it2=taxInfo->mapTaxDetail.begin(); it2!=taxInfo->mapTaxDetail.end(); it2++ )

  0017f	0f 85 62 ff ff
	ff		 jne	 $LL7@InsertToDB
$LN2@InsertToDB:
; File C:\Program Files\Microsoft Visual Studio\2022\Professional\VC\Tools\MSVC\14.44.35207\include\xtree

; 50   :         if (_Ptr->_Right->_Isnil) { // climb looking for right subtree

  00185	8b 47 08	 mov	 eax, DWORD PTR [edi+8]
  00188	80 78 0d 00	 cmp	 BYTE PTR [eax+13], 0
  0018c	74 1d		 je	 SHORT $LN40@InsertToDB

; 51   :             _Nodeptr _Pnode;
; 52   :             while (!(_Pnode = _Ptr->_Parent)->_Isnil && _Ptr == _Pnode->_Right) {

  0018e	8b 47 04	 mov	 eax, DWORD PTR [edi+4]
  00191	80 78 0d 00	 cmp	 BYTE PTR [eax+13], 0
  00195	75 10		 jne	 SHORT $LN192@InsertToDB
$LL38@InsertToDB:
  00197	3b 78 08	 cmp	 edi, DWORD PTR [eax+8]
  0019a	75 0b		 jne	 SHORT $LN192@InsertToDB

; 53   :                 _Ptr = _Pnode; // ==> parent while right subtree

  0019c	8b f8		 mov	 edi, eax
  0019e	8b 40 04	 mov	 eax, DWORD PTR [eax+4]
  001a1	80 78 0d 00	 cmp	 BYTE PTR [eax+13], 0
  001a5	74 f0		 je	 SHORT $LL38@InsertToDB
$LN192@InsertToDB:

; 54   :             }
; 55   : 
; 56   :             _Ptr = _Pnode; // ==> parent (head if end())

  001a7	8b f8		 mov	 edi, eax

; 57   :         } else {

  001a9	eb 16		 jmp	 SHORT $LN46@InsertToDB
$LN40@InsertToDB:

; 58   :             _Ptr = _Mytree::_Min(_Ptr->_Right); // ==> smallest of right subtree

  001ab	8b f8		 mov	 edi, eax

; 476  :         while (!_Pnode->_Left->_Isnil) {

  001ad	8b 0f		 mov	 ecx, DWORD PTR [edi]
  001af	80 79 0d 00	 cmp	 BYTE PTR [ecx+13], 0
  001b3	75 0c		 jne	 SHORT $LN46@InsertToDB
$LL45@InsertToDB:
  001b5	8b 01		 mov	 eax, DWORD PTR [ecx]

; 477  :             _Pnode = _Pnode->_Left;

  001b7	8b f9		 mov	 edi, ecx
  001b9	8b c8		 mov	 ecx, eax
  001bb	80 78 0d 00	 cmp	 BYTE PTR [eax+13], 0
  001bf	74 f4		 je	 SHORT $LL45@InsertToDB
$LN46@InsertToDB:

; 237  :         return !(*this == _Right);

  001c1	8b 85 f8 5f ff
	ff		 mov	 eax, DWORD PTR _pTax$1$[ebp]
  001c7	3b 78 08	 cmp	 edi, DWORD PTR [eax+8]
; File C:\IAGOS\server\v18\Source\Source\_Common\Tax.cpp

; 808  : 	for( TAXINFOMAP::iterator it=pTax->m_mapTaxInfo.begin(); it!=pTax->m_mapTaxInfo.end(); it++ )

  001ca	74 37		 je	 SHORT $LN207@InsertToDB
  001cc	8b 95 ec 5f ff
	ff		 mov	 edx, DWORD PTR _this$1$[ebp]
  001d2	e9 8e fe ff ff	 jmp	 $LL4@InsertToDB
$LN170@InsertToDB:

; 826  : 			{ WriteLog( "%s, %d\t%s", __FILE__, __LINE__, szQuery ); return; }

  001d7	8d 85 fc 5f ff
	ff		 lea	 eax, DWORD PTR _szQuery$[ebp]
  001dd	50		 push	 eax
  001de	68 3a 03 00 00	 push	 826			; 0000033aH
  001e3	eb 0c		 jmp	 SHORT $LN208@InsertToDB
$LN171@InsertToDB:

; 817  : 		{ WriteLog( "%s, %d\t%s", __FILE__, __LINE__, szQuery ); return; }

  001e5	8d 85 fc 5f ff
	ff		 lea	 eax, DWORD PTR _szQuery$[ebp]
  001eb	50		 push	 eax
  001ec	68 31 03 00 00	 push	 817			; 00000331H
$LN208@InsertToDB:
  001f1	68 00 00 00 00	 push	 OFFSET ??_C@_0DC@PBFLEGFH@C?3?2IAGOS?2server?2v18?2Source?2Sour@
  001f6	68 00 00 00 00	 push	 OFFSET ??_C@_09GBAEEKDE@?$CFs?0?5?$CFd?7?$CFs@
  001fb	e8 00 00 00 00	 call	 ?WriteLog@@YAXPBDZZ	; WriteLog
  00200	83 c4 10	 add	 esp, 16			; 00000010H
$LN207@InsertToDB:
  00203	5b		 pop	 ebx
$LN3@InsertToDB:

; 827  : 		}
; 828  : 	}
; 829  : }

  00204	8b 4d fc	 mov	 ecx, DWORD PTR __$ArrayPad$[ebp]
  00207	5f		 pop	 edi
  00208	33 cd		 xor	 ecx, ebp
  0020a	5e		 pop	 esi
  0020b	e8 00 00 00 00	 call	 @__security_check_cookie@4
  00210	8b e5		 mov	 esp, ebp
  00212	5d		 pop	 ebp
  00213	c3		 ret	 0
?InsertToDB@CTaxDBController@@AAEXXZ ENDP		; CTaxDBController::InsertToDB
_TEXT	ENDS
; Function compile flags: /Ogtp
; File C:\IAGOS\server\v18\Source\Source\_Common\Tax.cpp
; File C:\IAGOS\server\v18\Source\Source\_Common\LuaBase.h
; File C:\IAGOS\server\v18\Source\Source\_Common\Tax.cpp
; File C:\Program Files\Microsoft Visual Studio\2022\Professional\VC\Tools\MSVC\14.44.35207\include\xtree
; File C:\IAGOS\server\v18\Source\Source\_Common\Tax.cpp
; File C:\Program Files\Microsoft Visual Studio\2022\Professional\VC\Tools\MSVC\14.44.35207\include\__msvc_string_view.hpp
; File C:\Program Files\Microsoft Visual Studio\2022\Professional\VC\Tools\MSVC\14.44.35207\include\xstring
; File C:\Program Files\Microsoft Visual Studio\2022\Professional\VC\Tools\MSVC\14.44.35207\include\__msvc_string_view.hpp
; File C:\Program Files\Microsoft Visual Studio\2022\Professional\VC\Tools\MSVC\14.44.35207\include\xstring
; File C:\Program Files\Microsoft Visual Studio\2022\Professional\VC\Tools\MSVC\14.44.35207\include\__msvc_string_view.hpp
; File C:\Program Files\Microsoft Visual Studio\2022\Professional\VC\Tools\MSVC\14.44.35207\include\xstring
; File C:\Program Files\Microsoft Visual Studio\2022\Professional\VC\Tools\MSVC\14.44.35207\include\xmemory
; File C:\Program Files\Microsoft Visual Studio\2022\Professional\VC\Tools\MSVC\14.44.35207\include\xstring
; File C:\Program Files\Microsoft Visual Studio\2022\Professional\VC\Tools\MSVC\14.44.35207\include\xmemory
; File C:\Program Files\Microsoft Visual Studio\2022\Professional\VC\Tools\MSVC\14.44.35207\include\xstring
; File C:\Program Files\Microsoft Visual Studio\2022\Professional\VC\Tools\MSVC\14.44.35207\include\xmemory
; File C:\Program Files\Microsoft Visual Studio\2022\Professional\VC\Tools\MSVC\14.44.35207\include\xstring
; File C:\Program Files\Microsoft Visual Studio\2022\Professional\VC\Tools\MSVC\14.44.35207\include\__msvc_string_view.hpp
; File C:\Program Files\Microsoft Visual Studio\2022\Professional\VC\Tools\MSVC\14.44.35207\include\xstring
; File C:\Program Files\Microsoft Visual Studio\2022\Professional\VC\Tools\MSVC\14.44.35207\include\__msvc_string_view.hpp
; File C:\Program Files\Microsoft Visual Studio\2022\Professional\VC\Tools\MSVC\14.44.35207\include\xstring
; File C:\Program Files\Microsoft Visual Studio\2022\Professional\VC\Tools\MSVC\14.44.35207\include\__msvc_string_view.hpp
; File C:\Program Files\Microsoft Visual Studio\2022\Professional\VC\Tools\MSVC\14.44.35207\include\xstring
; File C:\Program Files\Microsoft Visual Studio\2022\Professional\VC\Tools\MSVC\14.44.35207\include\xmemory
; File C:\IAGOS\server\v18\Source\Source\_Common\Tax.cpp
; File C:\Program Files\Microsoft Visual Studio\2022\Professional\VC\Tools\MSVC\14.44.35207\include\xtree
; File C:\IAGOS\server\v18\Source\Source\_Common\Tax.cpp
; File C:\Program Files\Microsoft Visual Studio\2022\Professional\VC\Tools\MSVC\14.44.35207\include\xtree
; File C:\Program Files\Microsoft Visual Studio\2022\Professional\VC\Tools\MSVC\14.44.35207\include\type_traits
; File C:\Program Files\Microsoft Visual Studio\2022\Professional\VC\Tools\MSVC\14.44.35207\include\xtree
; File C:\IAGOS\server\v18\Source\Source\_Common\Tax.cpp
; File C:\Program Files\Microsoft Visual Studio\2022\Professional\VC\Tools\MSVC\14.44.35207\include\xtree
; File C:\Program Files\Microsoft Visual Studio\2022\Professional\VC\Tools\MSVC\14.44.35207\include\type_traits
; File C:\Program Files\Microsoft Visual Studio\2022\Professional\VC\Tools\MSVC\14.44.35207\include\xtree
; File C:\IAGOS\server\v18\Source\Source\_Common\Tax.cpp
; File C:\Program Files\Microsoft Visual Studio\2022\Professional\VC\Tools\MSVC\14.44.35207\include\xtree
; File C:\IAGOS\server\v18\Source\Source\_Common\Tax.cpp
; File C:\Program Files\Microsoft Visual Studio\2022\Professional\VC\Tools\MSVC\14.44.35207\include\xmemory
; File C:\Program Files\Microsoft Visual Studio\2022\Professional\VC\Tools\MSVC\14.44.35207\include\xstring
; File C:\IAGOS\server\v18\Source\Source\_Common\Tax.cpp
;	COMDAT ?LoadTaxInfo@CTaxDBController@@AAEXXZ
_TEXT	SEGMENT
__Loc$1 = -41032					; size = 12
__Loc$2 = -41020					; size = 12
_pQuery$1$ = -41008					; size = 4
__Old$1$ = -41004					; size = 4
_it$3 = -41000						; size = 4
$T4 = -40996						; size = 4
$T5 = -40992						; size = 4
_taxInfo$1$ = -40992					; size = 4
_this$1$ = -40992					; size = 4
_tax$1$ = -40988					; size = 4
_nContinent$1$ = -40982					; size = 1
_nTaxKind$6 = -40981					; size = 1
_szQuery$ = -40980					; size = 40960
_szDate$7 = -20						; size = 16
__$ArrayPad$ = -4					; size = 4
?LoadTaxInfo@CTaxDBController@@AAEXXZ PROC		; CTaxDBController::LoadTaxInfo, COMDAT
; _this$ = ecx

; 730  : {

  00000	55		 push	 ebp
  00001	8b ec		 mov	 ebp, esp
  00003	b8 48 a0 00 00	 mov	 eax, 41032		; 0000a048H
  00008	e8 00 00 00 00	 call	 __chkstk
  0000d	a1 00 00 00 00	 mov	 eax, DWORD PTR ___security_cookie
  00012	33 c5		 xor	 eax, ebp
  00014	89 45 fc	 mov	 DWORD PTR __$ArrayPad$[ebp], eax
  00017	53		 push	 ebx
  00018	57		 push	 edi
  00019	8b f9		 mov	 edi, ecx

; 731  : 	CTax* tax = CTax::GetInstance();

  0001b	e8 00 00 00 00	 call	 ?GetInstance@CTax@@SAPAV1@XZ ; CTax::GetInstance

; 732  : 	CQuery* pQuery = GetQueryObject();

  00020	8b 5f 0c	 mov	 ebx, DWORD PTR [edi+12]

; 733  : 
; 734  : 	char szQuery[QUERY_SIZE] = {0,};

  00023	68 00 a0 00 00	 push	 40960			; 0000a000H
  00028	89 85 e4 5f ff
	ff		 mov	 DWORD PTR _tax$1$[ebp], eax
  0002e	8d 85 ec 5f ff
	ff		 lea	 eax, DWORD PTR _szQuery$[ebp]
  00034	6a 00		 push	 0
  00036	50		 push	 eax
  00037	89 9d d0 5f ff
	ff		 mov	 DWORD PTR _pQuery$1$[ebp], ebx
  0003d	e8 00 00 00 00	 call	 _memset

; 735  : 	// ŔÎµ¦˝ş ľňľîżŔ±â
; 736  : 	sprintf( szQuery, "TAX_INFO_STR 'S1', '%02d', 0, 0, '0', '0', 0, '0'", g_appInfo.dwSys );

  00042	ff 35 00 00 00
	00		 push	 DWORD PTR ?g_appInfo@@3UAppInfo@@A
  00048	8d 85 ec 5f ff
	ff		 lea	 eax, DWORD PTR _szQuery$[ebp]
  0004e	68 00 00 00 00	 push	 OFFSET ??_C@_0DC@HDFAFDC@TAX_INFO_STR?5?8S1?8?0?5?8?$CF02d?8?0?50?0?50@
  00053	50		 push	 eax
  00054	e8 00 00 00 00	 call	 _sprintf
  00059	83 c4 18	 add	 esp, 24			; 00000018H

; 737  : 	if( pQuery->Exec( szQuery ) == FALSE )

  0005c	8d 85 ec 5f ff
	ff		 lea	 eax, DWORD PTR _szQuery$[ebp]
  00062	8b cb		 mov	 ecx, ebx
  00064	50		 push	 eax
  00065	e8 00 00 00 00	 call	 ?Exec@CQuery@@QAEHPBD@Z	; CQuery::Exec
  0006a	85 c0		 test	 eax, eax
  0006c	75 2e		 jne	 SHORT $LN9@LoadTaxInf

; 738  : 	{ WriteLog( "%s, %d\t%s", __FILE__, __LINE__, szQuery ); return; }

  0006e	8d 85 ec 5f ff
	ff		 lea	 eax, DWORD PTR _szQuery$[ebp]
  00074	50		 push	 eax
  00075	68 e2 02 00 00	 push	 738			; 000002e2H
  0007a	68 00 00 00 00	 push	 OFFSET ??_C@_0DC@PBFLEGFH@C?3?2IAGOS?2server?2v18?2Source?2Sour@
  0007f	68 00 00 00 00	 push	 OFFSET ??_C@_09GBAEEKDE@?$CFs?0?5?$CFd?7?$CFs@
  00084	e8 00 00 00 00	 call	 ?WriteLog@@YAXPBDZZ	; WriteLog
  00089	83 c4 10	 add	 esp, 16			; 00000010H
  0008c	5f		 pop	 edi

; 797  : }

  0008d	5b		 pop	 ebx
  0008e	8b 4d fc	 mov	 ecx, DWORD PTR __$ArrayPad$[ebp]
  00091	33 cd		 xor	 ecx, ebp
  00093	e8 00 00 00 00	 call	 @__security_check_cookie@4
  00098	8b e5		 mov	 esp, ebp
  0009a	5d		 pop	 ebp
  0009b	c3		 ret	 0
$LN9@LoadTaxInf:

; 739  : 	if( pQuery->Fetch() )

  0009c	8d 47 14	 lea	 eax, DWORD PTR [edi+20]
  0009f	8b cb		 mov	 ecx, ebx
  000a1	89 85 dc 5f ff
	ff		 mov	 DWORD PTR $T4[ebp], eax
  000a7	e8 00 00 00 00	 call	 ?Fetch@CQuery@@QAEHXZ	; CQuery::Fetch
  000ac	85 c0		 test	 eax, eax
  000ae	74 13		 je	 SHORT $LN233@LoadTaxInf

; 740  : 		m_nTimes = pQuery->GetInt( "nTimes" );

  000b0	68 00 00 00 00	 push	 OFFSET ??_C@_06DJGFEEME@nTimes@
  000b5	8b cb		 mov	 ecx, ebx
  000b7	e8 00 00 00 00	 call	 ?GetInt@CQuery@@QAEHPAD@Z ; CQuery::GetInt
  000bc	8d 57 14	 lea	 edx, DWORD PTR [edi+20]
  000bf	89 02		 mov	 DWORD PTR [edx], eax
  000c1	eb 09		 jmp	 SHORT $LN226@LoadTaxInf
$LN233@LoadTaxInf:
  000c3	8d 57 14	 lea	 edx, DWORD PTR [edi+20]
  000c6	89 95 dc 5f ff
	ff		 mov	 DWORD PTR $T4[ebp], edx
$LN226@LoadTaxInf:

; 741  : 	
; 742  : 	if( m_nTimes <= 0 ) // DBżˇ ľĆą«°Íµµ ŔúŔĺµÇÁö ľĘŔş°ćżě

  000cc	83 3a 00	 cmp	 DWORD PTR [edx], 0
  000cf	56		 push	 esi
  000d0	7f 5d		 jg	 SHORT $LN11@LoadTaxInf

; 743  : 	{
; 744  : 		// ÇöŔç ˝Ă°ŁŔ» °ˇÁ®żÂ´Ů.
; 745  : 		if( tax->m_Lua.GetLuaFunction( "GetNowDate" ) )

  000d2	8b 9d e4 5f ff
	ff		 mov	 ebx, DWORD PTR _tax$1$[ebp]
  000d8	68 00 00 00 00	 push	 OFFSET ??_C@_0L@MDNPPPLJ@GetNowDate@
  000dd	8d 4b 24	 lea	 ecx, DWORD PTR [ebx+36]
  000e0	e8 00 00 00 00	 call	 ?GetLuaFunction@CLuaBase@@QAEHPAD@Z ; CLuaBase::GetLuaFunction
  000e5	85 c0		 test	 eax, eax
  000e7	74 24		 je	 SHORT $LN12@LoadTaxInf

; 746  : 		{
; 747  : 			tax->m_Lua.CallLuaFunction( 0, 1 );

  000e9	6a 01		 push	 1
  000eb	6a 00		 push	 0
  000ed	8d 4b 24	 lea	 ecx, DWORD PTR [ebx+36]
  000f0	e8 00 00 00 00	 call	 ?CallLuaFunction@CLuaBase@@QAEXHH@Z ; CLuaBase::CallLuaFunction
; File C:\IAGOS\server\v18\Source\Source\_Common\LuaBase.h

; 44   : 	const char*	ToString( int nStackPos )					{  return lua_tostring( m_pLuaState, nStackPos );  }

  000f5	6a 00		 push	 0
  000f7	6a ff		 push	 -1
  000f9	ff 73 28	 push	 DWORD PTR [ebx+40]
  000fc	e8 00 00 00 00	 call	 _lua_tolstring
  00101	83 c4 0c	 add	 esp, 12			; 0000000cH
; File C:\IAGOS\server\v18\Source\Source\_Common\Tax.cpp

; 748  : 			tax->m_strChangedDate = tax->m_Lua.ToString( -1 );

  00104	8d 4b 48	 lea	 ecx, DWORD PTR [ebx+72]
  00107	50		 push	 eax
  00108	e8 00 00 00 00	 call	 ??4?$basic_string@DU?$char_traits@D@std@@V?$allocator@D@2@@std@@QAEAAV01@QBD@Z ; std::basic_string<char,std::char_traits<char>,std::allocator<char> >::operator=
$LN12@LoadTaxInf:

; 749  : 		}
; 750  : 		tax->m_Lua.Pop(0);

  0010d	6a 00		 push	 0
  0010f	8d 4b 24	 lea	 ecx, DWORD PTR [ebx+36]
  00112	e8 00 00 00 00	 call	 ?Pop@CLuaBase@@QAEXH@Z	; CLuaBase::Pop

; 751  : 
; 752  : 		InsertToDB();	// dummy°Ş(ĂĘ±â°Ş)Ŕ» insert ÇŃ´Ů.

  00117	8b cf		 mov	 ecx, edi
  00119	e8 00 00 00 00	 call	 ?InsertToDB@CTaxDBController@@AAEXXZ ; CTaxDBController::InsertToDB
  0011e	5e		 pop	 esi
  0011f	5f		 pop	 edi

; 797  : }

  00120	5b		 pop	 ebx
  00121	8b 4d fc	 mov	 ecx, DWORD PTR __$ArrayPad$[ebp]
  00124	33 cd		 xor	 ecx, ebp
  00126	e8 00 00 00 00	 call	 @__security_check_cookie@4
  0012b	8b e5		 mov	 esp, ebp
  0012d	5d		 pop	 ebp
  0012e	c3		 ret	 0
$LN11@LoadTaxInf:
; File C:\Program Files\Microsoft Visual Studio\2022\Professional\VC\Tools\MSVC\14.44.35207\include\xtree

; 1142 :         return iterator(_Scary->_Myhead->_Left, _Scary);

  0012f	8b bd e4 5f ff
	ff		 mov	 edi, DWORD PTR _tax$1$[ebp]
  00135	8b 4f 08	 mov	 ecx, DWORD PTR [edi+8]

; 37   :     _Tree_unchecked_const_iterator(_Nodeptr _Pnode, const _Mytree* _Plist) noexcept : _Ptr(_Pnode) {

  00138	8b 01		 mov	 eax, DWORD PTR [ecx]
  0013a	89 85 d8 5f ff
	ff		 mov	 DWORD PTR _it$3[ebp], eax

; 237  :         return !(*this == _Right);

  00140	3b c1		 cmp	 eax, ecx
; File C:\IAGOS\server\v18\Source\Source\_Common\Tax.cpp

; 756  : 	for( TAXINFOMAP::iterator it=tax->m_mapTaxInfo.begin(); it!=tax->m_mapTaxInfo.end(); it++ )

  00142	0f 84 be 03 00
	00		 je	 $LN273@LoadTaxInf
  00148	0f 1f 84 00 00
	00 00 00	 npad	 8
$LL4@LoadTaxInf:

; 757  : 	{
; 758  : 		// DBżˇ ŔúŔĺµČ row°ˇ ŔÖŔ¸¸é Á¤ş¸¸¦ ŔĐľîżÂ´Ů.
; 759  : 		BYTE nContinent = it->first;

  00150	8a 48 10	 mov	 cl, BYTE PTR [eax+16]

; 760  : 		__TAXINFO* taxInfo = it->second;

  00153	8b 70 14	 mov	 esi, DWORD PTR [eax+20]

; 761  : 		
; 762  : 		sprintf( szQuery, "TAX_INFO_STR 'S2', '%02d', %d, %d, '0', '0', 0, '0'", g_appInfo.dwSys, m_nTimes, nContinent );

  00156	0f b6 c1	 movzx	 eax, cl
  00159	50		 push	 eax
  0015a	ff 32		 push	 DWORD PTR [edx]
  0015c	8d 85 ec 5f ff
	ff		 lea	 eax, DWORD PTR _szQuery$[ebp]
  00162	88 8d ea 5f ff
	ff		 mov	 BYTE PTR _nContinent$1$[ebp], cl
  00168	ff 35 00 00 00
	00		 push	 DWORD PTR ?g_appInfo@@3UAppInfo@@A
  0016e	89 b5 e0 5f ff
	ff		 mov	 DWORD PTR _taxInfo$1$[ebp], esi
  00174	68 00 00 00 00	 push	 OFFSET ??_C@_0DE@DAPHDHAC@TAX_INFO_STR?5?8S2?8?0?5?8?$CF02d?8?0?5?$CFd?0?5@
  00179	50		 push	 eax
  0017a	e8 00 00 00 00	 call	 _sprintf
  0017f	83 c4 14	 add	 esp, 20			; 00000014H

; 763  : 		if( pQuery->Exec( szQuery ) == FALSE )

  00182	8d 85 ec 5f ff
	ff		 lea	 eax, DWORD PTR _szQuery$[ebp]
  00188	8b cb		 mov	 ecx, ebx
  0018a	50		 push	 eax
  0018b	e8 00 00 00 00	 call	 ?Exec@CQuery@@QAEHPBD@Z	; CQuery::Exec
  00190	85 c0		 test	 eax, eax
  00192	0f 84 50 03 00
	00		 je	 $LN216@LoadTaxInf

; 765  : 		while( pQuery->Fetch() )

  00198	8b cb		 mov	 ecx, ebx
  0019a	e8 00 00 00 00	 call	 ?Fetch@CQuery@@QAEHXZ	; CQuery::Fetch
  0019f	85 c0		 test	 eax, eax
  001a1	0f 84 9d 01 00
	00		 je	 $LN240@LoadTaxInf
  001a7	83 c7 48	 add	 edi, 72			; 00000048H
  001aa	66 0f 1f 44 00
	00		 npad	 6
$LL5@LoadTaxInf:

; 766  : 		{
; 767  : 			taxInfo->dwId = static_cast<DWORD>( pQuery->GetInt( "dwID" ) );

  001b0	68 00 00 00 00	 push	 OFFSET ??_C@_04EINJHNAE@dwID@
  001b5	8b cb		 mov	 ecx, ebx
  001b7	e8 00 00 00 00	 call	 ?GetInt@CQuery@@QAEHPAD@Z ; CQuery::GetInt
  001bc	89 06		 mov	 DWORD PTR [esi], eax

; 768  : 			if( taxInfo->dwId == 0 ) taxInfo->dwId = NULL_ID;

  001be	85 c0		 test	 eax, eax
  001c0	75 06		 jne	 SHORT $LN14@LoadTaxInf
  001c2	c7 06 ff ff ff
	ff		 mov	 DWORD PTR [esi], -1
$LN14@LoadTaxInf:

; 769  : 			taxInfo->dwNextId = static_cast<DWORD>( pQuery->GetInt( "dwNextID" ) );

  001c8	68 00 00 00 00	 push	 OFFSET ??_C@_08DEEAJDDG@dwNextID@
  001cd	8b cb		 mov	 ecx, ebx
  001cf	e8 00 00 00 00	 call	 ?GetInt@CQuery@@QAEHPAD@Z ; CQuery::GetInt
  001d4	89 46 10	 mov	 DWORD PTR [esi+16], eax

; 770  : 			if( taxInfo->dwNextId == 0 ) taxInfo->dwNextId = NULL_ID;

  001d7	85 c0		 test	 eax, eax
  001d9	75 07		 jne	 SHORT $LN15@LoadTaxInf
  001db	c7 46 10 ff ff
	ff ff		 mov	 DWORD PTR [esi+16], -1
$LN15@LoadTaxInf:

; 771  : 			taxInfo->bSetTaxRate = static_cast<BOOL>( pQuery->GetInt( "bSetTaxRate" ) );

  001e2	68 00 00 00 00	 push	 OFFSET ??_C@_0M@KKHJELKN@bSetTaxRate@
  001e7	8b cb		 mov	 ecx, ebx
  001e9	e8 00 00 00 00	 call	 ?GetInt@CQuery@@QAEHPAD@Z ; CQuery::GetInt
  001ee	89 46 04	 mov	 DWORD PTR [esi+4], eax
  001f1	0f 57 c0	 xorps	 xmm0, xmm0

; 772  : 			char szDate[16] = {0,}; pQuery->GetStr( "change_time", szDate );

  001f4	8d 45 ec	 lea	 eax, DWORD PTR _szDate$7[ebp]
  001f7	8b cb		 mov	 ecx, ebx
  001f9	50		 push	 eax
  001fa	68 00 00 00 00	 push	 OFFSET ??_C@_0M@HHPEIMLI@change_time@
  001ff	0f 11 45 ec	 movups	 XMMWORD PTR _szDate$7[ebp], xmm0
  00203	e8 00 00 00 00	 call	 ?GetStr@CQuery@@QAEXPAD0@Z ; CQuery::GetStr
; File C:\Program Files\Microsoft Visual Studio\2022\Professional\VC\Tools\MSVC\14.44.35207\include\__msvc_string_view.hpp

; 459  :         return _CSTD strlen(reinterpret_cast<const char*>(_First));

  00208	8d 75 ec	 lea	 esi, DWORD PTR _szDate$7[ebp]
  0020b	8d 4e 01	 lea	 ecx, DWORD PTR [esi+1]
  0020e	66 90		 npad	 2
$LL238@LoadTaxInf:
  00210	8a 06		 mov	 al, BYTE PTR [esi]
  00212	46		 inc	 esi
  00213	84 c0		 test	 al, al
  00215	75 f9		 jne	 SHORT $LL238@LoadTaxInf
  00217	2b f1		 sub	 esi, ecx
; File C:\Program Files\Microsoft Visual Studio\2022\Professional\VC\Tools\MSVC\14.44.35207\include\xstring

; 1618 :         if (_Count <= _Mypair._Myval2._Myres) {

  00219	8b 4f 14	 mov	 ecx, DWORD PTR [edi+20]
  0021c	89 8d d4 5f ff
	ff		 mov	 DWORD PTR __Old$1$[ebp], ecx
  00222	3b f1		 cmp	 esi, ecx
  00224	77 23		 ja	 SHORT $LN27@LoadTaxInf

; 435  :         value_type* _Result = _Bx._Buf;

  00226	8b df		 mov	 ebx, edi

; 453  :         return _Myres > _Small_string_capacity;

  00228	83 f9 0f	 cmp	 ecx, 15			; 0000000fH

; 436  :         if (_Large_mode_engaged()) {

  0022b	76 02		 jbe	 SHORT $LN30@LoadTaxInf

; 437  :             _Result = _Unfancy(_Bx._Ptr);

  0022d	8b 1f		 mov	 ebx, DWORD PTR [edi]
$LN30@LoadTaxInf:
; File C:\Program Files\Microsoft Visual Studio\2022\Professional\VC\Tools\MSVC\14.44.35207\include\__msvc_string_view.hpp

; 174  :         _CSTD memmove(_First1, _First2, _Count * sizeof(_Elem));

  0022f	56		 push	 esi
  00230	8d 45 ec	 lea	 eax, DWORD PTR _szDate$7[ebp]
; File C:\Program Files\Microsoft Visual Studio\2022\Professional\VC\Tools\MSVC\14.44.35207\include\xstring

; 1621 :             _Mypair._Myval2._Mysize = _Count;

  00233	89 77 10	 mov	 DWORD PTR [edi+16], esi
; File C:\Program Files\Microsoft Visual Studio\2022\Professional\VC\Tools\MSVC\14.44.35207\include\__msvc_string_view.hpp

; 174  :         _CSTD memmove(_First1, _First2, _Count * sizeof(_Elem));

  00236	50		 push	 eax
  00237	53		 push	 ebx
  00238	e8 00 00 00 00	 call	 _memmove
  0023d	83 c4 0c	 add	 esp, 12			; 0000000cH
; File C:\Program Files\Microsoft Visual Studio\2022\Professional\VC\Tools\MSVC\14.44.35207\include\xstring

; 1623 :             _Traits::assign(_Old_ptr[_Count], _Elem());

  00240	c6 04 33 00	 mov	 BYTE PTR [ebx+esi], 0

; 1624 :             _ASAN_STRING_CREATE(*this);
; 1625 :             return *this;

  00244	e9 da 00 00 00	 jmp	 $LN42@LoadTaxInf
$LN27@LoadTaxInf:

; 2998 :         if (_New_size > max_size()) {

  00249	81 fe ff ff ff
	7f		 cmp	 esi, 2147483647		; 7fffffffH
  0024f	0f 87 d1 02 00
	00		 ja	 $LN213@LoadTaxInf

; 2978 :         const size_type _Masked = _Requested | _Alloc_mask;

  00255	8b fe		 mov	 edi, esi
  00257	83 cf 0f	 or	 edi, 15			; 0000000fH
  0025a	81 ff ff ff ff
	7f		 cmp	 edi, 2147483647		; 7fffffffH

; 2979 :         if (_Masked > _Max) { // the mask overflows, settle for max_size()

  00260	76 12		 jbe	 SHORT $LN48@LoadTaxInf

; 2980 :             return _Max;

  00262	b8 00 00 00 80	 mov	 eax, -2147483648	; 80000000H
  00267	bf ff ff ff 7f	 mov	 edi, 2147483647		; 7fffffffH
; File C:\Program Files\Microsoft Visual Studio\2022\Professional\VC\Tools\MSVC\14.44.35207\include\xmemory

; 253  :             return _Allocate_manually_vector_aligned<_Traits>(_Bytes);

  0026c	50		 push	 eax
  0026d	e8 00 00 00 00	 call	 ??$_Allocate_manually_vector_aligned@U_Default_allocate_traits@std@@@std@@YAPAXI@Z ; std::_Allocate_manually_vector_aligned<std::_Default_allocate_traits>
  00272	eb 49		 jmp	 SHORT $LN275@LoadTaxInf
$LN48@LoadTaxInf:
; File C:\Program Files\Microsoft Visual Studio\2022\Professional\VC\Tools\MSVC\14.44.35207\include\xstring

; 2983 :         if (_Old > _Max - _Old / 2) { // similarly, geometric overflows

  00274	8b d1		 mov	 edx, ecx
  00276	b8 ff ff ff 7f	 mov	 eax, 2147483647		; 7fffffffH
  0027b	d1 ea		 shr	 edx, 1
  0027d	2b c2		 sub	 eax, edx
  0027f	3b c8		 cmp	 ecx, eax
  00281	76 12		 jbe	 SHORT $LN49@LoadTaxInf

; 2984 :             return _Max;

  00283	b8 00 00 00 80	 mov	 eax, -2147483648	; 80000000H
  00288	bf ff ff ff 7f	 mov	 edi, 2147483647		; 7fffffffH
; File C:\Program Files\Microsoft Visual Studio\2022\Professional\VC\Tools\MSVC\14.44.35207\include\xmemory

; 253  :             return _Allocate_manually_vector_aligned<_Traits>(_Bytes);

  0028d	50		 push	 eax
  0028e	e8 00 00 00 00	 call	 ??$_Allocate_manually_vector_aligned@U_Default_allocate_traits@std@@@std@@YAPAXI@Z ; std::_Allocate_manually_vector_aligned<std::_Default_allocate_traits>
  00293	eb 28		 jmp	 SHORT $LN275@LoadTaxInf
$LN49@LoadTaxInf:
; File C:\Program Files\Microsoft Visual Studio\2022\Professional\VC\Tools\MSVC\14.44.35207\include\xstring

; 2987 :         return (_STD max)(_Masked, _Old + _Old / 2);

  00295	8d 04 0a	 lea	 eax, DWORD PTR [edx+ecx]
  00298	3b f8		 cmp	 edi, eax
  0029a	0f 42 f8	 cmovb	 edi, eax

; 825  :         ++_Capacity; // Take null terminator into consideration

  0029d	8d 47 01	 lea	 eax, DWORD PTR [edi+1]
; File C:\Program Files\Microsoft Visual Studio\2022\Professional\VC\Tools\MSVC\14.44.35207\include\xmemory

; 227  :     if (_Bytes == 0) {

  002a0	85 c0		 test	 eax, eax
  002a2	75 04		 jne	 SHORT $LN62@LoadTaxInf

; 228  :         return nullptr;

  002a4	33 db		 xor	 ebx, ebx
  002a6	eb 1a		 jmp	 SHORT $LN61@LoadTaxInf
$LN62@LoadTaxInf:

; 229  :     }
; 230  : 
; 231  : #if _HAS_CXX20 // TRANSITION, GH-1532
; 232  :     if (_STD is_constant_evaluated()) {
; 233  :         return _Traits::_Allocate(_Bytes);
; 234  :     }
; 235  : #endif // _HAS_CXX20
; 236  : 
; 237  : #ifdef __cpp_aligned_new
; 238  :     if constexpr (_Align > __STDCPP_DEFAULT_NEW_ALIGNMENT__) {
; 239  :         size_t _Passed_align = _Align;
; 240  : #if defined(_M_IX86) || defined(_M_X64)
; 241  :         if (_Bytes >= _Big_allocation_threshold) {
; 242  :             // boost the alignment of big allocations to help autovectorization
; 243  :             _Passed_align = (_STD max)(_Align, _Big_allocation_alignment);
; 244  :         }
; 245  : #endif // defined(_M_IX86) || defined(_M_X64)
; 246  :         return _Traits::_Allocate_aligned(_Bytes, _Passed_align);
; 247  :     } else
; 248  : #endif // defined(__cpp_aligned_new)
; 249  :     {
; 250  : #if defined(_M_IX86) || defined(_M_X64)
; 251  :         if (_Bytes >= _Big_allocation_threshold) {

  002a8	3d 00 10 00 00	 cmp	 eax, 4096		; 00001000H
  002ad	72 08		 jb	 SHORT $LN63@LoadTaxInf

; 253  :             return _Allocate_manually_vector_aligned<_Traits>(_Bytes);

  002af	50		 push	 eax
  002b0	e8 00 00 00 00	 call	 ??$_Allocate_manually_vector_aligned@U_Default_allocate_traits@std@@@std@@YAPAXI@Z ; std::_Allocate_manually_vector_aligned<std::_Default_allocate_traits>
  002b5	eb 06		 jmp	 SHORT $LN275@LoadTaxInf
$LN63@LoadTaxInf:

; 136  :         return ::operator new(_Bytes);

  002b7	50		 push	 eax
  002b8	e8 00 00 00 00	 call	 ??2@YAPAXI@Z		; operator new
$LN275@LoadTaxInf:
; File C:\Program Files\Microsoft Visual Studio\2022\Professional\VC\Tools\MSVC\14.44.35207\include\xstring

; 3009 :         _Mypair._Myval2._Mysize = _New_size;

  002bd	8b d8		 mov	 ebx, eax
  002bf	83 c4 04	 add	 esp, 4
$LN61@LoadTaxInf:
  002c2	8b 85 e4 5f ff
	ff		 mov	 eax, DWORD PTR _tax$1$[ebp]
; File C:\Program Files\Microsoft Visual Studio\2022\Professional\VC\Tools\MSVC\14.44.35207\include\__msvc_string_view.hpp

; 121  :         _CSTD memcpy(_First1, _First2, _Count * sizeof(_Elem));

  002c8	56		 push	 esi
; File C:\Program Files\Microsoft Visual Studio\2022\Professional\VC\Tools\MSVC\14.44.35207\include\xstring

; 3009 :         _Mypair._Myval2._Mysize = _New_size;

  002c9	89 70 58	 mov	 DWORD PTR [eax+88], esi

; 3010 :         _Mypair._Myval2._Myres  = _New_capacity;

  002cc	89 78 5c	 mov	 DWORD PTR [eax+92], edi
; File C:\Program Files\Microsoft Visual Studio\2022\Professional\VC\Tools\MSVC\14.44.35207\include\__msvc_string_view.hpp

; 121  :         _CSTD memcpy(_First1, _First2, _Count * sizeof(_Elem));

  002cf	8d 45 ec	 lea	 eax, DWORD PTR _szDate$7[ebp]
  002d2	50		 push	 eax
  002d3	53		 push	 ebx
  002d4	e8 00 00 00 00	 call	 _memcpy
; File C:\Program Files\Microsoft Visual Studio\2022\Professional\VC\Tools\MSVC\14.44.35207\include\xstring

; 3012 :         if (_Old_capacity > _Small_string_capacity) {

  002d9	8b bd e4 5f ff
	ff		 mov	 edi, DWORD PTR _tax$1$[ebp]
; File C:\Program Files\Microsoft Visual Studio\2022\Professional\VC\Tools\MSVC\14.44.35207\include\__msvc_string_view.hpp

; 121  :         _CSTD memcpy(_First1, _First2, _Count * sizeof(_Elem));

  002df	83 c4 0c	 add	 esp, 12			; 0000000cH
; File C:\Program Files\Microsoft Visual Studio\2022\Professional\VC\Tools\MSVC\14.44.35207\include\xstring

; 3012 :         if (_Old_capacity > _Small_string_capacity) {

  002e2	8b 85 d4 5f ff
	ff		 mov	 eax, DWORD PTR __Old$1$[ebp]
  002e8	83 c7 48	 add	 edi, 72			; 00000048H

; 1632 :                 _Traits::assign(_New_ptr[_Count], _Elem());

  002eb	c6 04 33 00	 mov	 BYTE PTR [ebx+esi], 0

; 3012 :         if (_Old_capacity > _Small_string_capacity) {

  002ef	83 f8 0f	 cmp	 eax, 15			; 0000000fH
  002f2	76 2d		 jbe	 SHORT $LN41@LoadTaxInf

; 852  :         _Al.deallocate(_Old_ptr, _Capacity + 1); // +1 for null terminator

  002f4	8d 48 01	 lea	 ecx, DWORD PTR [eax+1]
; File C:\Program Files\Microsoft Visual Studio\2022\Professional\VC\Tools\MSVC\14.44.35207\include\xmemory

; 985  :         _STD _Deallocate<_New_alignof<_Ty>>(_Ptr, sizeof(_Ty) * _Count);

  002f7	8b 07		 mov	 eax, DWORD PTR [edi]

; 284  :         if (_Bytes >= _Big_allocation_threshold) {

  002f9	81 f9 00 10 00
	00		 cmp	 ecx, 4096		; 00001000H
  002ff	72 16		 jb	 SHORT $LN85@LoadTaxInf

; 205  :     const uintptr_t _Ptr_container   = _Ptr_user[-1];

  00301	8b 50 fc	 mov	 edx, DWORD PTR [eax-4]
  00304	83 c1 23	 add	 ecx, 35			; 00000023H

; 206  : 
; 207  :     // If the following asserts, it likely means that we are performing
; 208  :     // an aligned delete on memory coming from an unaligned allocation.
; 209  :     _STL_ASSERT(_Ptr_user[-2] == _Big_allocation_sentinel, "invalid argument");
; 210  : 
; 211  :     // Extra paranoia on aligned allocation/deallocation; ensure _Ptr_container is
; 212  :     // in range [_Min_back_shift, _Non_user_size]
; 213  : #ifdef _DEBUG
; 214  :     constexpr uintptr_t _Min_back_shift = 2 * sizeof(void*);
; 215  : #else // ^^^ defined(_DEBUG) / !defined(_DEBUG) vvv
; 216  :     constexpr uintptr_t _Min_back_shift = sizeof(void*);
; 217  : #endif // ^^^ !defined(_DEBUG) ^^^
; 218  :     const uintptr_t _Back_shift = reinterpret_cast<uintptr_t>(_Ptr) - _Ptr_container;

  00307	2b c2		 sub	 eax, edx

; 219  :     _STL_VERIFY(_Back_shift >= _Min_back_shift && _Back_shift <= _Non_user_size, "invalid argument");

  00309	83 c0 fc	 add	 eax, -4			; fffffffcH
  0030c	83 f8 1f	 cmp	 eax, 31			; 0000001fH
  0030f	0f 87 02 02 00
	00		 ja	 $LN214@LoadTaxInf

; 220  :     _Ptr = reinterpret_cast<void*>(_Ptr_container);

  00315	8b c2		 mov	 eax, edx
$LN85@LoadTaxInf:

; 289  :         ::operator delete(_Ptr, _Bytes);

  00317	51		 push	 ecx
  00318	50		 push	 eax
  00319	e8 00 00 00 00	 call	 ??3@YAXPAXI@Z		; operator delete
  0031e	83 c4 08	 add	 esp, 8
$LN41@LoadTaxInf:
; File C:\IAGOS\server\v18\Source\Source\_Common\Tax.cpp

; 765  : 		while( pQuery->Fetch() )

  00321	89 1f		 mov	 DWORD PTR [edi], ebx
$LN42@LoadTaxInf:
  00323	8b 9d d0 5f ff
	ff		 mov	 ebx, DWORD PTR _pQuery$1$[ebp]
  00329	8b cb		 mov	 ecx, ebx
  0032b	e8 00 00 00 00	 call	 ?Fetch@CQuery@@QAEHXZ	; CQuery::Fetch
  00330	8b b5 e0 5f ff
	ff		 mov	 esi, DWORD PTR _taxInfo$1$[ebp]
  00336	85 c0		 test	 eax, eax
  00338	0f 85 72 fe ff
	ff		 jne	 $LL5@LoadTaxInf
  0033e	8b bd e4 5f ff
	ff		 mov	 edi, DWORD PTR _tax$1$[ebp]
$LN240@LoadTaxInf:

; 773  : 			tax->m_strChangedDate = szDate;
; 774  : 		}
; 775  : 	
; 776  : 		// »óĽĽ Á¤ş¸
; 777  : 		sprintf( szQuery, "TAX_DETAIL_STR 'S2', '%02d', %d, %d, 0, 0, 0, 0, 0, 0", g_appInfo.dwSys, m_nTimes, nContinent );

  00344	0f b6 85 ea 5f
	ff ff		 movzx	 eax, BYTE PTR _nContinent$1$[ebp]
  0034b	50		 push	 eax
  0034c	8b 85 dc 5f ff
	ff		 mov	 eax, DWORD PTR $T4[ebp]
  00352	ff 30		 push	 DWORD PTR [eax]
  00354	8d 85 ec 5f ff
	ff		 lea	 eax, DWORD PTR _szQuery$[ebp]
  0035a	ff 35 00 00 00
	00		 push	 DWORD PTR ?g_appInfo@@3UAppInfo@@A
  00360	68 00 00 00 00	 push	 OFFSET ??_C@_0DG@HDJLKLGO@TAX_DETAIL_STR?5?8S2?8?0?5?8?$CF02d?8?0?5?$CFd@
  00365	50		 push	 eax
  00366	e8 00 00 00 00	 call	 _sprintf
  0036b	83 c4 14	 add	 esp, 20			; 00000014H

; 778  : 		if( pQuery->Exec( szQuery ) == FALSE )

  0036e	8d 85 ec 5f ff
	ff		 lea	 eax, DWORD PTR _szQuery$[ebp]
  00374	8b cb		 mov	 ecx, ebx
  00376	50		 push	 eax
  00377	e8 00 00 00 00	 call	 ?Exec@CQuery@@QAEHPBD@Z	; CQuery::Exec
  0037c	85 c0		 test	 eax, eax
  0037e	0f 84 56 01 00
	00		 je	 $LN217@LoadTaxInf

; 780  : 		while( pQuery->Fetch() )

  00384	8b cb		 mov	 ecx, ebx
  00386	e8 00 00 00 00	 call	 ?Fetch@CQuery@@QAEHXZ	; CQuery::Fetch
  0038b	85 c0		 test	 eax, eax
  0038d	0f 84 f3 00 00
	00		 je	 $LN2@LoadTaxInf
  00393	83 c6 08	 add	 esi, 8
  00396	89 b5 e0 5f ff
	ff		 mov	 DWORD PTR _this$1$[ebp], esi
  0039c	0f 1f 40 00	 npad	 4
$LL7@LoadTaxInf:

; 782  : 			BYTE nTaxKind = static_cast<BYTE>( pQuery->GetInt( "nTaxKind" ) );

  003a0	68 00 00 00 00	 push	 OFFSET ??_C@_08LMFOBNPO@nTaxKind@
  003a5	8b cb		 mov	 ecx, ebx
  003a7	e8 00 00 00 00	 call	 ?GetInt@CQuery@@QAEHPAD@Z ; CQuery::GetInt
; File C:\Program Files\Microsoft Visual Studio\2022\Professional\VC\Tools\MSVC\14.44.35207\include\xtree

; 37   :     _Tree_unchecked_const_iterator(_Nodeptr _Pnode, const _Mytree* _Plist) noexcept : _Ptr(_Pnode) {

  003ac	8b 3e		 mov	 edi, DWORD PTR [esi]

; 1384 :         const _Tree_find_result<_Nodeptr> _Loc = _Find_lower_bound(_Keyval);

  003ae	8b ce		 mov	 ecx, esi
; File C:\IAGOS\server\v18\Source\Source\_Common\Tax.cpp

; 782  : 			BYTE nTaxKind = static_cast<BYTE>( pQuery->GetInt( "nTaxKind" ) );

  003b0	88 85 eb 5f ff
	ff		 mov	 BYTE PTR _nTaxKind$6[ebp], al
; File C:\Program Files\Microsoft Visual Studio\2022\Professional\VC\Tools\MSVC\14.44.35207\include\xtree

; 1384 :         const _Tree_find_result<_Nodeptr> _Loc = _Find_lower_bound(_Keyval);

  003b6	8d 85 eb 5f ff
	ff		 lea	 eax, DWORD PTR _nTaxKind$6[ebp]
  003bc	50		 push	 eax
  003bd	8d 85 c4 5f ff
	ff		 lea	 eax, DWORD PTR __Loc$2[ebp]
  003c3	50		 push	 eax
  003c4	e8 00 00 00 00	 call	 ??$_Find_lower_bound@E@?$_Tree@V?$_Tmap_traits@EPAU__TAXDETAIL@@U?$less@E@std@@V?$allocator@U?$pair@$$CBEPAU__TAXDETAIL@@@std@@@3@$0A@@std@@@std@@IBE?AU?$_Tree_find_result@PAU?$_Tree_node@U?$pair@$$CBEPAU__TAXDETAIL@@@std@@PAX@std@@@1@ABE@Z ; std::_Tree<std::_Tmap_traits<unsigned char,__TAXDETAIL *,std::less<unsigned char>,std::allocator<std::pair<unsigned char const ,__TAXDETAIL *> >,0> >::_Find_lower_bound<unsigned char>

; 1624 :         return !_Bound->_Isnil && !_DEBUG_LT_PRED(_Getcomp(), _Keyval, _Traits::_Kfn(_Bound->_Myval));

  003c9	8b 8d cc 5f ff
	ff		 mov	 ecx, DWORD PTR __Loc$2[ebp+8]
  003cf	8a 85 eb 5f ff
	ff		 mov	 al, BYTE PTR _nTaxKind$6[ebp]
  003d5	80 79 0d 00	 cmp	 BYTE PTR [ecx+13], 0
  003d9	0f 85 d1 00 00
	00		 jne	 $LN215@LoadTaxInf
; File C:\Program Files\Microsoft Visual Studio\2022\Professional\VC\Tools\MSVC\14.44.35207\include\type_traits

; 2380 :         return _Left < _Right;

  003df	3a 41 10	 cmp	 al, BYTE PTR [ecx+16]
; File C:\Program Files\Microsoft Visual Studio\2022\Professional\VC\Tools\MSVC\14.44.35207\include\xtree

; 1624 :         return !_Bound->_Isnil && !_DEBUG_LT_PRED(_Getcomp(), _Keyval, _Traits::_Kfn(_Bound->_Myval));

  003e2	0f 82 c8 00 00
	00		 jb	 $LN215@LoadTaxInf

; 232  :         return this->_Ptr == _Right._Ptr;

  003e8	3b cf		 cmp	 ecx, edi
; File C:\IAGOS\server\v18\Source\Source\_Common\Tax.cpp

; 783  : 			if( taxInfo->mapTaxDetail.find(nTaxKind) == taxInfo->mapTaxDetail.end() )

  003ea	0f 84 c0 00 00
	00		 je	 $LN215@LoadTaxInf
; File C:\Program Files\Microsoft Visual Studio\2022\Professional\VC\Tools\MSVC\14.44.35207\include\xtree

; 1384 :         const _Tree_find_result<_Nodeptr> _Loc = _Find_lower_bound(_Keyval);

  003f0	8d 85 eb 5f ff
	ff		 lea	 eax, DWORD PTR _nTaxKind$6[ebp]
  003f6	8b ce		 mov	 ecx, esi
  003f8	50		 push	 eax
  003f9	8d 85 b8 5f ff
	ff		 lea	 eax, DWORD PTR __Loc$1[ebp]
  003ff	50		 push	 eax
  00400	e8 00 00 00 00	 call	 ??$_Find_lower_bound@E@?$_Tree@V?$_Tmap_traits@EPAU__TAXDETAIL@@U?$less@E@std@@V?$allocator@U?$pair@$$CBEPAU__TAXDETAIL@@@std@@@3@$0A@@std@@@std@@IBE?AU?$_Tree_find_result@PAU?$_Tree_node@U?$pair@$$CBEPAU__TAXDETAIL@@@std@@PAX@std@@@1@ABE@Z ; std::_Tree<std::_Tmap_traits<unsigned char,__TAXDETAIL *,std::less<unsigned char>,std::allocator<std::pair<unsigned char const ,__TAXDETAIL *> >,0> >::_Find_lower_bound<unsigned char>

; 1624 :         return !_Bound->_Isnil && !_DEBUG_LT_PRED(_Getcomp(), _Keyval, _Traits::_Kfn(_Bound->_Myval));

  00405	8b b5 c0 5f ff
	ff		 mov	 esi, DWORD PTR __Loc$1[ebp+8]
  0040b	80 7e 0d 00	 cmp	 BYTE PTR [esi+13], 0
  0040f	75 0b		 jne	 SHORT $LN133@LoadTaxInf
; File C:\Program Files\Microsoft Visual Studio\2022\Professional\VC\Tools\MSVC\14.44.35207\include\type_traits

; 2380 :         return _Left < _Right;

  00411	8a 85 eb 5f ff
	ff		 mov	 al, BYTE PTR _nTaxKind$6[ebp]
  00417	3a 46 10	 cmp	 al, BYTE PTR [esi+16]
; File C:\Program Files\Microsoft Visual Studio\2022\Professional\VC\Tools\MSVC\14.44.35207\include\xtree

; 1624 :         return !_Bound->_Isnil && !_DEBUG_LT_PRED(_Getcomp(), _Keyval, _Traits::_Kfn(_Bound->_Myval));

  0041a	73 02		 jae	 SHORT $LN132@LoadTaxInf
$LN133@LoadTaxInf:

; 1389 :         return _Get_scary()->_Myhead;

  0041c	8b f7		 mov	 esi, edi
$LN132@LoadTaxInf:
; File C:\IAGOS\server\v18\Source\Source\_Common\Tax.cpp

; 789  : 			__TAXDETAIL* taxDetail = taxInfo->mapTaxDetail.find(nTaxKind)->second;

  0041e	8b 76 14	 mov	 esi, DWORD PTR [esi+20]

; 790  : 			taxDetail->nTaxRate = pQuery->GetInt( "nTaxRate" );

  00421	8b cb		 mov	 ecx, ebx
  00423	68 00 00 00 00	 push	 OFFSET ??_C@_08BMLANHAF@nTaxRate@
  00428	e8 00 00 00 00	 call	 ?GetInt@CQuery@@QAEHPAD@Z ; CQuery::GetInt

; 791  : 			taxDetail->nTaxCount = pQuery->GetInt( "nTaxCount" );

  0042d	68 00 00 00 00	 push	 OFFSET ??_C@_09PIHGBPHB@nTaxCount@
  00432	8b cb		 mov	 ecx, ebx
  00434	89 06		 mov	 DWORD PTR [esi], eax
  00436	e8 00 00 00 00	 call	 ?GetInt@CQuery@@QAEHPAD@Z ; CQuery::GetInt

; 792  : 			taxDetail->nTaxGold = pQuery->GetInt( "nTaxGold" );

  0043b	68 00 00 00 00	 push	 OFFSET ??_C@_08FPEBHLEN@nTaxGold@
  00440	8b cb		 mov	 ecx, ebx
  00442	89 46 04	 mov	 DWORD PTR [esi+4], eax
  00445	e8 00 00 00 00	 call	 ?GetInt@CQuery@@QAEHPAD@Z ; CQuery::GetInt

; 793  : 			taxDetail->nTaxPerin = pQuery->GetInt( "nTaxPerin" );

  0044a	68 00 00 00 00	 push	 OFFSET ??_C@_09BPDBKDAC@nTaxPerin@
  0044f	8b cb		 mov	 ecx, ebx
  00451	89 46 08	 mov	 DWORD PTR [esi+8], eax
  00454	e8 00 00 00 00	 call	 ?GetInt@CQuery@@QAEHPAD@Z ; CQuery::GetInt

; 794  : 			taxDetail->nNextTaxRate = pQuery->GetInt( "nNextTaxRate" );

  00459	68 00 00 00 00	 push	 OFFSET ??_C@_0N@CFHJAANA@nNextTaxRate@
  0045e	8b cb		 mov	 ecx, ebx
  00460	89 46 0c	 mov	 DWORD PTR [esi+12], eax
  00463	e8 00 00 00 00	 call	 ?GetInt@CQuery@@QAEHPAD@Z ; CQuery::GetInt
  00468	8b cb		 mov	 ecx, ebx
  0046a	89 46 10	 mov	 DWORD PTR [esi+16], eax
  0046d	e8 00 00 00 00	 call	 ?Fetch@CQuery@@QAEHXZ	; CQuery::Fetch
  00472	8b b5 e0 5f ff
	ff		 mov	 esi, DWORD PTR _this$1$[ebp]
  00478	85 c0		 test	 eax, eax
  0047a	0f 85 20 ff ff
	ff		 jne	 $LL7@LoadTaxInf
  00480	8b bd e4 5f ff
	ff		 mov	 edi, DWORD PTR _tax$1$[ebp]
$LN2@LoadTaxInf:

; 756  : 	for( TAXINFOMAP::iterator it=tax->m_mapTaxInfo.begin(); it!=tax->m_mapTaxInfo.end(); it++ )

  00486	6a 00		 push	 0
  00488	8d 85 e0 5f ff
	ff		 lea	 eax, DWORD PTR $T5[ebp]
  0048e	50		 push	 eax
  0048f	8d 8d d8 5f ff
	ff		 lea	 ecx, DWORD PTR _it$3[ebp]
  00495	e8 00 00 00 00	 call	 ??E?$_Tree_iterator@V?$_Tree_val@U?$_Tree_simple_types@U?$pair@$$CBEPAU__TAXINFO@@@std@@@std@@@std@@@std@@QAE?AV01@H@Z ; std::_Tree_iterator<std::_Tree_val<std::_Tree_simple_types<std::pair<unsigned char const ,__TAXINFO *> > > >::operator++
; File C:\Program Files\Microsoft Visual Studio\2022\Professional\VC\Tools\MSVC\14.44.35207\include\xtree

; 237  :         return !(*this == _Right);

  0049a	8b 85 d8 5f ff
	ff		 mov	 eax, DWORD PTR _it$3[ebp]
  004a0	3b 47 08	 cmp	 eax, DWORD PTR [edi+8]
; File C:\IAGOS\server\v18\Source\Source\_Common\Tax.cpp

; 756  : 	for( TAXINFOMAP::iterator it=tax->m_mapTaxInfo.begin(); it!=tax->m_mapTaxInfo.end(); it++ )

  004a3	74 61		 je	 SHORT $LN273@LoadTaxInf
  004a5	8b 95 dc 5f ff
	ff		 mov	 edx, DWORD PTR $T4[ebp]
  004ab	e9 a0 fc ff ff	 jmp	 $LL4@LoadTaxInf
$LN215@LoadTaxInf:

; 784  : 			{
; 785  : 				WriteLog( "LoadTaxInfo() - taxDetail is wrong, nContinent = %d, nTaxKind = %d", nContinent, nTaxKind );

  004b0	0f b6 c0	 movzx	 eax, al
  004b3	50		 push	 eax
  004b4	0f b6 85 ea 5f
	ff ff		 movzx	 eax, BYTE PTR _nContinent$1$[ebp]
  004bb	50		 push	 eax
  004bc	68 00 00 00 00	 push	 OFFSET ??_C@_0ED@KONCKI@LoadTaxInfo?$CI?$CJ?5?9?5taxDetail?5is?5wr@
  004c1	e8 00 00 00 00	 call	 ?WriteLog@@YAXPBDZZ	; WriteLog
  004c6	83 c4 0c	 add	 esp, 12			; 0000000cH
  004c9	5e		 pop	 esi
  004ca	5f		 pop	 edi

; 797  : }

  004cb	5b		 pop	 ebx
  004cc	8b 4d fc	 mov	 ecx, DWORD PTR __$ArrayPad$[ebp]
  004cf	33 cd		 xor	 ecx, ebp
  004d1	e8 00 00 00 00	 call	 @__security_check_cookie@4
  004d6	8b e5		 mov	 esp, ebp
  004d8	5d		 pop	 ebp
  004d9	c3		 ret	 0
$LN217@LoadTaxInf:

; 779  : 		{ WriteLog( "%s, %d\t%s", __FILE__, __LINE__, szQuery ); return; }

  004da	8d 85 ec 5f ff
	ff		 lea	 eax, DWORD PTR _szQuery$[ebp]
  004e0	50		 push	 eax
  004e1	68 0b 03 00 00	 push	 779			; 0000030bH
  004e6	eb 0c		 jmp	 SHORT $LN276@LoadTaxInf
$LN216@LoadTaxInf:

; 764  : 		{ WriteLog( "%s, %d\t%s", __FILE__, __LINE__, szQuery ); return; }

  004e8	8d 85 ec 5f ff
	ff		 lea	 eax, DWORD PTR _szQuery$[ebp]
  004ee	50		 push	 eax
  004ef	68 fc 02 00 00	 push	 764			; 000002fcH
$LN276@LoadTaxInf:
  004f4	68 00 00 00 00	 push	 OFFSET ??_C@_0DC@PBFLEGFH@C?3?2IAGOS?2server?2v18?2Source?2Sour@
  004f9	68 00 00 00 00	 push	 OFFSET ??_C@_09GBAEEKDE@?$CFs?0?5?$CFd?7?$CFs@
  004fe	e8 00 00 00 00	 call	 ?WriteLog@@YAXPBDZZ	; WriteLog
  00503	83 c4 10	 add	 esp, 16			; 00000010H
$LN273@LoadTaxInf:

; 797  : }

  00506	8b 4d fc	 mov	 ecx, DWORD PTR __$ArrayPad$[ebp]
  00509	5e		 pop	 esi
  0050a	5f		 pop	 edi
  0050b	33 cd		 xor	 ecx, ebp
  0050d	5b		 pop	 ebx
  0050e	e8 00 00 00 00	 call	 @__security_check_cookie@4
  00513	8b e5		 mov	 esp, ebp
  00515	5d		 pop	 ebp
  00516	c3		 ret	 0
$LN214@LoadTaxInf:
; File C:\Program Files\Microsoft Visual Studio\2022\Professional\VC\Tools\MSVC\14.44.35207\include\xmemory

; 219  :     _STL_VERIFY(_Back_shift >= _Min_back_shift && _Back_shift <= _Non_user_size, "invalid argument");

  00517	6a 00		 push	 0
  00519	6a 00		 push	 0
  0051b	6a 00		 push	 0
  0051d	6a 00		 push	 0
  0051f	6a 00		 push	 0
  00521	e8 00 00 00 00	 call	 __invoke_watson
$LN213@LoadTaxInf:
; File C:\Program Files\Microsoft Visual Studio\2022\Professional\VC\Tools\MSVC\14.44.35207\include\xstring

; 2999 :             _Xlen_string(); // result too long

  00526	e8 00 00 00 00	 call	 ?_Xlen_string@std@@YAXXZ ; std::_Xlen_string
$LN274@LoadTaxInf:
  0052b	cc		 int	 3
?LoadTaxInfo@CTaxDBController@@AAEXXZ ENDP		; CTaxDBController::LoadTaxInfo
_TEXT	ENDS
; Function compile flags: /Ogtp
; File C:\IAGOS\server\v18\Source\Source\_Common\Tax.cpp
; File C:\Program Files\Microsoft Visual Studio\2022\Professional\VC\Tools\MSVC\14.44.35207\include\xtree
; File C:\IAGOS\server\v18\Source\Source\_Common\Tax.cpp
; File C:\Program Files\Microsoft Visual Studio\2022\Professional\VC\Tools\MSVC\14.44.35207\include\xtree
; File C:\IAGOS\server\v18\Source\Source\_Common\Tax.cpp
; File C:\Program Files (x86)\Windows Kits\10\Include\10.0.26100.0\ucrt\time.h
; File C:\IAGOS\server\v18\Source\Source\_Common\Tax.cpp
; File C:\Program Files (x86)\Windows Kits\10\Include\10.0.26100.0\ucrt\time.h
; File C:\IAGOS\server\v18\Source\Source\_Common\Tax.cpp
; File C:\Program Files (x86)\Windows Kits\10\Include\10.0.26100.0\ucrt\time.h
; File C:\IAGOS\server\v18\Source\Source\_Common\Tax.cpp
; File C:\IAGOS\server\v18\Source\Source\_Common\Data.h
; File C:\IAGOS\server\v18\Source\Source\_Common\Tax.cpp
; File C:\IAGOS\server\v18\Source\Source\_Common\Data.h
; File C:\IAGOS\server\v18\Source\Source\DatabaseServer\Project.h
; File C:\IAGOS\server\v18\Source\Source\_Common\Tax.cpp
; File C:\Program Files\Microsoft Visual Studio\2022\Professional\VC\Tools\MSVC\14.44.35207\atlmfc\include\atlsimpstr.h
; File C:\IAGOS\server\v18\Source\Source\_Common\Tax.cpp
; File C:\IAGOS\server\v18\Source\Source\_Common\Data.h
; File C:\IAGOS\server\v18\Source\Source\_Common\Tax.cpp
; File C:\IAGOS\server\v18\Source\Source\_Common\Data.h
; File C:\IAGOS\server\v18\Source\Source\DatabaseServer\Project.h
; File C:\IAGOS\server\v18\Source\Source\_Common\Tax.cpp
; File C:\Program Files\Microsoft Visual Studio\2022\Professional\VC\Tools\MSVC\14.44.35207\atlmfc\include\atlsimpstr.h
; File C:\IAGOS\server\v18\Source\Source\_Common\Tax.cpp
; File C:\IAGOS\server\v18\Source\Source\_Common\Data.h
; File C:\IAGOS\server\v18\Source\Source\_Common\Tax.cpp
; File C:\IAGOS\server\v18\Source\Source\_Common\Data.h
; File C:\IAGOS\server\v18\Source\Source\DatabaseServer\Project.h
; File C:\IAGOS\server\v18\Source\Source\_Common\Tax.cpp
; File C:\Program Files\Microsoft Visual Studio\2022\Professional\VC\Tools\MSVC\14.44.35207\atlmfc\include\atlsimpstr.h
; File C:\IAGOS\server\v18\Source\Source\_Common\Tax.cpp
; File C:\Program Files\Microsoft Visual Studio\2022\Professional\VC\Tools\MSVC\14.44.35207\atlmfc\include\atltime.h
; File C:\IAGOS\server\v18\Source\Source\_Common\Data.h
; File C:\IAGOS\server\v18\Source\Source\DatabaseServer\Project.h
; File C:\IAGOS\server\v18\Source\Source\_Common\Tax.cpp
; File C:\IAGOS\server\v18\Source\Source\_Common\Data.h
; File C:\IAGOS\server\v18\Source\Source\DatabaseServer\Project.h
; File C:\IAGOS\server\v18\Source\Source\_Common\Tax.cpp
; File C:\IAGOS\server\v18\Source\Source\_Common\xutil.h
; File C:\IAGOS\server\v18\Source\Source\_Network\Objects\Obj.h
; File C:\IAGOS\server\v18\Source\Source\_Common\Tax.cpp
; File C:\Program Files\Microsoft Visual Studio\2022\Professional\VC\Tools\MSVC\14.44.35207\include\xtree
; File C:\IAGOS\server\v18\Source\Source\_Common\Tax.cpp
; File C:\Program Files\Microsoft Visual Studio\2022\Professional\VC\Tools\MSVC\14.44.35207\include\xtree
; File C:\IAGOS\server\v18\Source\Source\_Common\Tax.cpp
;	COMDAT ?PayTaxToPost@CTaxDBController@@AAEXXZ
_TEXT	SEGMENT
$T2 = -41280						; size = 4
$T3 = -41276						; size = 4
_tax$1$ = -41272					; size = 4
$T4 = -41268						; size = 4
$T5 = -41264						; size = 4
$T6 = -41260						; size = 4
_cTime$7 = -41256					; size = 8
_taxInfo$1$ = -41248					; size = 4
_dwId$1$ = -41244					; size = 4
_pQuery$1$ = -41240					; size = 4
$T8 = -41236						; size = 4
$T9 = -41232						; size = 4
_taxDetail$1$ = -41228					; size = 4
$T10 = -41224						; size = 4
_ttm$11 = -41220					; size = 36
_ttm$12 = -41184					; size = 36
_ttm$13 = -41148					; size = 36
_ptmTemp$14 = -41112					; size = 36
_ptmTemp$15 = -41112					; size = 36
_ptmTemp$16 = -41112					; size = 36
_szQuery$17 = -41076					; size = 40960
_strDate$18 = -116					; size = 100
__$ArrayPad$ = -16					; size = 4
__$EHRec$ = -12						; size = 12
?PayTaxToPost@CTaxDBController@@AAEXXZ PROC		; CTaxDBController::PayTaxToPost, COMDAT
; _this$ = ecx

; 654  : {

  00000	55		 push	 ebp
  00001	8b ec		 mov	 ebp, esp
  00003	6a ff		 push	 -1
  00005	68 00 00 00 00	 push	 __ehhandler$?PayTaxToPost@CTaxDBController@@AAEXXZ
  0000a	64 a1 00 00 00
	00		 mov	 eax, DWORD PTR fs:0
  00010	50		 push	 eax
  00011	b8 34 a1 00 00	 mov	 eax, 41268		; 0000a134H
  00016	e8 00 00 00 00	 call	 __chkstk
  0001b	a1 00 00 00 00	 mov	 eax, DWORD PTR ___security_cookie
  00020	33 c5		 xor	 eax, ebp
  00022	89 45 f0	 mov	 DWORD PTR __$ArrayPad$[ebp], eax
  00025	56		 push	 esi
  00026	57		 push	 edi
  00027	50		 push	 eax
  00028	8d 45 f4	 lea	 eax, DWORD PTR __$EHRec$[ebp]
  0002b	64 a3 00 00 00
	00		 mov	 DWORD PTR fs:0, eax
  00031	8b f1		 mov	 esi, ecx

; 655  : 	CTax* tax = CTax::GetInstance();

  00033	e8 00 00 00 00	 call	 ?GetInstance@CTax@@SAPAV1@XZ ; CTax::GetInstance
  00038	8b c8		 mov	 ecx, eax

; 656  : 	CQuery* pQuery = GetQueryObject();

  0003a	8b 46 0c	 mov	 eax, DWORD PTR [esi+12]
  0003d	89 8d c8 5e ff
	ff		 mov	 DWORD PTR _tax$1$[ebp], ecx
  00043	89 85 e8 5e ff
	ff		 mov	 DWORD PTR _pQuery$1$[ebp], eax
; File C:\Program Files\Microsoft Visual Studio\2022\Professional\VC\Tools\MSVC\14.44.35207\include\xtree

; 1142 :         return iterator(_Scary->_Myhead->_Left, _Scary);

  00049	8b 49 08	 mov	 ecx, DWORD PTR [ecx+8]

; 37   :     _Tree_unchecked_const_iterator(_Nodeptr _Pnode, const _Mytree* _Plist) noexcept : _Ptr(_Pnode) {

  0004c	8b 39		 mov	 edi, DWORD PTR [ecx]

; 237  :         return !(*this == _Right);

  0004e	3b f9		 cmp	 edi, ecx
; File C:\IAGOS\server\v18\Source\Source\_Common\Tax.cpp

; 657  : 	for( TAXINFOMAP::iterator it=tax->m_mapTaxInfo.begin(); it!=tax->m_mapTaxInfo.end(); it++ )

  00050	0f 84 b5 05 00
	00		 je	 $LN345@PayTaxToPo
  00056	66 66 0f 1f 84
	00 00 00 00 00	 npad	 10
$LL4@PayTaxToPo:

; 658  : 	{
; 659  : 		__TAXINFO* taxInfo = it->second;
; 660  : 
; 661  : 		DWORD dwId = taxInfo->dwId;
; 662  : 
; 663  : 		if( ( it->first != CONT_ALL ) && ( dwId != NULL_ID ) )

  00060	80 7f 10 ff	 cmp	 BYTE PTR [edi+16], 255	; 000000ffH
  00064	8b 47 14	 mov	 eax, DWORD PTR [edi+20]
  00067	89 85 e0 5e ff
	ff		 mov	 DWORD PTR _taxInfo$1$[ebp], eax
  0006d	8b 30		 mov	 esi, DWORD PTR [eax]
  0006f	89 b5 e4 5e ff
	ff		 mov	 DWORD PTR _dwId$1$[ebp], esi
  00075	0f 84 91 00 00
	00		 je	 $LN12@PayTaxToPo
  0007b	83 fe ff	 cmp	 esi, -1
  0007e	0f 84 37 05 00
	00		 je	 $LN2@PayTaxToPo

; 664  : 		{
; 665  : 			char szQuery[QUERY_SIZE] = {0,};

  00084	68 00 a0 00 00	 push	 40960			; 0000a000H
  00089	8d 85 8c 5f ff
	ff		 lea	 eax, DWORD PTR _szQuery$17[ebp]
  0008f	6a 00		 push	 0
  00091	50		 push	 eax
  00092	e8 00 00 00 00	 call	 _memset

; 666  : 			sprintf( szQuery, "TAX_INFO_STR 'S3', '%02d', 0, 0, '%07d', '0', 0, '0'", g_appInfo.dwSys, dwId );

  00097	56		 push	 esi
  00098	ff 35 00 00 00
	00		 push	 DWORD PTR ?g_appInfo@@3UAppInfo@@A
  0009e	8d 85 8c 5f ff
	ff		 lea	 eax, DWORD PTR _szQuery$17[ebp]
  000a4	68 00 00 00 00	 push	 OFFSET ??_C@_0DF@PKLOAGED@TAX_INFO_STR?5?8S3?8?0?5?8?$CF02d?8?0?50?0?50@
  000a9	50		 push	 eax
  000aa	e8 00 00 00 00	 call	 _sprintf

; 667  : 			if( pQuery->Exec( szQuery ) )

  000af	8b b5 e8 5e ff
	ff		 mov	 esi, DWORD PTR _pQuery$1$[ebp]
  000b5	8d 85 8c 5f ff
	ff		 lea	 eax, DWORD PTR _szQuery$17[ebp]
  000bb	83 c4 1c	 add	 esp, 28			; 0000001cH
  000be	8b ce		 mov	 ecx, esi
  000c0	50		 push	 eax
  000c1	e8 00 00 00 00	 call	 ?Exec@CQuery@@QAEHPBD@Z	; CQuery::Exec
  000c6	85 c0		 test	 eax, eax
  000c8	0f 84 8a 00 00
	00		 je	 $LN11@PayTaxToPo

; 668  : 			{ 
; 669  : 				if( pQuery->Fetch() )

  000ce	8b ce		 mov	 ecx, esi
  000d0	e8 00 00 00 00	 call	 ?Fetch@CQuery@@QAEHXZ	; CQuery::Fetch
  000d5	85 c0		 test	 eax, eax
  000d7	0f 84 de 04 00
	00		 je	 $LN2@PayTaxToPo

; 670  : 					dwId = static_cast<DWORD>( pQuery->GetInt( "m_idPlayer" ) <= CQuery::CQUERYNULL ? NULL_ID : pQuery->GetInt( "m_idPlayer" ) );

  000dd	68 00 00 00 00	 push	 OFFSET ??_C@_0L@FONFFEJF@m_idPlayer@
  000e2	8b ce		 mov	 ecx, esi
  000e4	e8 00 00 00 00	 call	 ?GetInt@CQuery@@QAEHPAD@Z ; CQuery::GetInt
  000e9	83 f8 9c	 cmp	 eax, -100		; ffffff9cH
  000ec	0f 8e c9 04 00
	00		 jle	 $LN2@PayTaxToPo
  000f2	68 00 00 00 00	 push	 OFFSET ??_C@_0L@FONFFEJF@m_idPlayer@
  000f7	8b ce		 mov	 ecx, esi
  000f9	e8 00 00 00 00	 call	 ?GetInt@CQuery@@QAEHPAD@Z ; CQuery::GetInt
  000fe	8b f0		 mov	 esi, eax
  00100	8b 85 e0 5e ff
	ff		 mov	 eax, DWORD PTR _taxInfo$1$[ebp]
  00106	89 b5 e4 5e ff
	ff		 mov	 DWORD PTR _dwId$1$[ebp], esi
$LN12@PayTaxToPo:

; 677  : 				dwId = NULL_ID;
; 678  : 			}
; 679  : 		}
; 680  : 
; 681  : 		if( dwId == NULL_ID )

  0010c	83 fe ff	 cmp	 esi, -1
  0010f	0f 84 a6 04 00
	00		 je	 $LN2@PayTaxToPo
; File C:\Program Files\Microsoft Visual Studio\2022\Professional\VC\Tools\MSVC\14.44.35207\include\xtree

; 1142 :         return iterator(_Scary->_Myhead->_Left, _Scary);

  00115	8b 40 08	 mov	 eax, DWORD PTR [eax+8]

; 37   :     _Tree_unchecked_const_iterator(_Nodeptr _Pnode, const _Mytree* _Plist) noexcept : _Ptr(_Pnode) {

  00118	8b 30		 mov	 esi, DWORD PTR [eax]

; 237  :         return !(*this == _Right);

  0011a	3b f0		 cmp	 esi, eax
; File C:\IAGOS\server\v18\Source\Source\_Common\Tax.cpp

; 684  : 		for( TAXDETAILMAP::iterator it2=taxInfo->mapTaxDetail.begin(); it2!=taxInfo->mapTaxDetail.end(); it2++ )

  0011c	0f 84 99 04 00
	00		 je	 $LN2@PayTaxToPo
$LL7@PayTaxToPo:

; 685  : 		{
; 686  : 			__TAXDETAIL* taxDetail = it2->second;

  00122	8b 46 14	 mov	 eax, DWORD PTR [esi+20]

; 688  : 			CMail* pMail = new CMail;

  00125	68 40 01 00 00	 push	 320			; 00000140H
  0012a	89 85 f4 5e ff
	ff		 mov	 DWORD PTR _taxDetail$1$[ebp], eax
  00130	e8 00 00 00 00	 call	 ??2@YAPAXI@Z		; operator new
  00135	83 c4 04	 add	 esp, 4
  00138	89 85 c4 5e ff
	ff		 mov	 DWORD PTR $T3[ebp], eax
  0013e	c7 45 fc 00 00
	00 00		 mov	 DWORD PTR __$EHRec$[ebp+8], 0
  00145	85 c0		 test	 eax, eax
  00147	74 32		 je	 SHORT $LN23@PayTaxToPo
  00149	8b c8		 mov	 ecx, eax
  0014b	e8 00 00 00 00	 call	 ??0CMail@@QAE@XZ	; CMail::CMail
  00150	89 85 f8 5e ff
	ff		 mov	 DWORD PTR $T10[ebp], eax
  00156	eb 2d		 jmp	 SHORT $LN24@PayTaxToPo
$LN11@PayTaxToPo:

; 671  : 				else
; 672  : 					dwId = NULL_ID;
; 673  : 			}
; 674  : 			else
; 675  : 			{
; 676  : 				WriteLog( "%s, %d\t%s", __FILE__, __LINE__, szQuery );

  00158	8d 85 8c 5f ff
	ff		 lea	 eax, DWORD PTR _szQuery$17[ebp]
  0015e	50		 push	 eax
  0015f	68 a4 02 00 00	 push	 676			; 000002a4H
  00164	68 00 00 00 00	 push	 OFFSET ??_C@_0DC@PBFLEGFH@C?3?2IAGOS?2server?2v18?2Source?2Sour@
  00169	68 00 00 00 00	 push	 OFFSET ??_C@_09GBAEEKDE@?$CFs?0?5?$CFd?7?$CFs@
  0016e	e8 00 00 00 00	 call	 ?WriteLog@@YAXPBDZZ	; WriteLog
  00173	83 c4 10	 add	 esp, 16			; 00000010H

; 677  : 				dwId = NULL_ID;
; 678  : 			}
; 679  : 		}
; 680  : 
; 681  : 		if( dwId == NULL_ID )

  00176	e9 40 04 00 00	 jmp	 $LN2@PayTaxToPo
$LN23@PayTaxToPo:

; 688  : 			CMail* pMail = new CMail;

  0017b	c7 85 f8 5e ff
	ff 00 00 00 00	 mov	 DWORD PTR $T10[ebp], 0
$LN24@PayTaxToPo:
; File C:\Program Files (x86)\Windows Kits\10\Include\10.0.26100.0\ucrt\time.h

; 428  :             return _time32(_Time);

  00185	6a 00		 push	 0
; File C:\IAGOS\server\v18\Source\Source\_Common\Tax.cpp

; 688  : 			CMail* pMail = new CMail;

  00187	c7 45 fc ff ff
	ff ff		 mov	 DWORD PTR __$EHRec$[ebp+8], -1
; File C:\Program Files (x86)\Windows Kits\10\Include\10.0.26100.0\ucrt\time.h

; 428  :             return _time32(_Time);

  0018e	e8 00 00 00 00	 call	 __time32
; File C:\IAGOS\server\v18\Source\Source\_Common\Tax.cpp

; 689  : 			pMail->m_tmCreate	= ::time_null();

  00193	8b 8d f8 5e ff
	ff		 mov	 ecx, DWORD PTR $T10[ebp]
; File C:\Program Files (x86)\Windows Kits\10\Include\10.0.26100.0\ucrt\time.h

; 428  :             return _time32(_Time);

  00199	83 c4 04	 add	 esp, 4
; File C:\IAGOS\server\v18\Source\Source\_Common\Tax.cpp

; 689  : 			pMail->m_tmCreate	= ::time_null();

  0019c	89 41 14	 mov	 DWORD PTR [ecx+20], eax

; 690  : 			pMail->m_idSender	= 0;	//
; 691  : 			pMail->m_nGold		= taxDetail->nTaxGold;

  0019f	8b 85 f4 5e ff
	ff		 mov	 eax, DWORD PTR _taxDetail$1$[ebp]
  001a5	c7 41 08 00 00
	00 00		 mov	 DWORD PTR [ecx+8], 0
  001ac	8b 40 08	 mov	 eax, DWORD PTR [eax+8]
  001af	89 41 10	 mov	 DWORD PTR [ecx+16], eax

; 692  : 			switch( it2->first )

  001b2	0f b6 46 10	 movzx	 eax, BYTE PTR [esi+16]
  001b6	83 e8 00	 sub	 eax, 0
  001b9	0f 84 c3 00 00
	00		 je	 $LN16@PayTaxToPo
  001bf	83 e8 01	 sub	 eax, 1
  001c2	74 65		 je	 SHORT $LN17@PayTaxToPo
  001c4	83 e8 01	 sub	 eax, 1
  001c7	0f 85 27 01 00
	00		 jne	 $LN268@PayTaxToPo

; 703  : 					sprintf( pMail->m_szTitle, prj.GetText(TID_GAME_TAX_PAY_ADMISSION_TITLE),

  001cd	8a 47 10	 mov	 al, BYTE PTR [edi+16]
  001d0	50		 push	 eax
  001d1	8d 85 d4 5e ff
	ff		 lea	 eax, DWORD PTR $T6[ebp]
  001d7	50		 push	 eax
  001d8	e8 00 00 00 00	 call	 ?GetInstance@CContinent@@SAPAV1@XZ ; CContinent::GetInstance
  001dd	8b c8		 mov	 ecx, eax
  001df	e8 00 00 00 00	 call	 ?GetContinentName@CContinent@@QAE?AV?$CStringT@DV?$StrTraitMFC@DV?$ChTraitsCRT@D@ATL@@@@@ATL@@E@Z ; CContinent::GetContinentName
; File C:\IAGOS\server\v18\Source\Source\_Common\Data.h

; 270  : 	if( dwIndex >= (DWORD)m_nMaxIndex )

  001e4	81 3d 78 00 00
	00 b5 0e 00 00	 cmp	 DWORD PTR ?prj@@3VCProject@@A+120, 3765 ; 00000eb5H
; File C:\IAGOS\server\v18\Source\Source\_Common\Tax.cpp

; 703  : 					sprintf( pMail->m_szTitle, prj.GetText(TID_GAME_TAX_PAY_ADMISSION_TITLE),

  001ee	8b d0		 mov	 edx, eax
; File C:\IAGOS\server\v18\Source\Source\_Common\Data.h

; 270  : 	if( dwIndex >= (DWORD)m_nMaxIndex )

  001f0	76 15		 jbe	 SHORT $LN358@PayTaxToPo

; 271  : 		return NULL;
; 272  : 	return (T*) m_apOffset[ dwIndex ];

  001f2	8b 0d 68 00 00
	00		 mov	 ecx, DWORD PTR ?prj@@3VCProject@@A+104
  001f8	8b 89 d4 3a 00
	00		 mov	 ecx, DWORD PTR [ecx+15060]
; File C:\IAGOS\server\v18\Source\Source\DatabaseServer\Project.h

; 184  : 		if( m_colorText.GetAt( dwIndex ) == NULL )

  001fe	85 c9		 test	 ecx, ecx
  00200	74 05		 je	 SHORT $LN358@PayTaxToPo

; 186  : 		return m_colorText.GetAt( dwIndex )->lpszData; 

  00202	8b 41 04	 mov	 eax, DWORD PTR [ecx+4]
  00205	eb 05		 jmp	 SHORT $LN225@PayTaxToPo
$LN358@PayTaxToPo:

; 185  : 			return "";

  00207	b8 00 00 00 00	 mov	 eax, OFFSET ??_C@_00CNPNBAHC@@
$LN225@PayTaxToPo:
; File C:\IAGOS\server\v18\Source\Source\_Common\Tax.cpp

; 703  : 					sprintf( pMail->m_szTitle, prj.GetText(TID_GAME_TAX_PAY_ADMISSION_TITLE),

  0020c	ff 32		 push	 DWORD PTR [edx]
  0020e	50		 push	 eax
  0020f	8b 85 f8 5e ff
	ff		 mov	 eax, DWORD PTR $T10[ebp]
  00215	83 c0 19	 add	 eax, 25			; 00000019H
  00218	50		 push	 eax
  00219	e8 00 00 00 00	 call	 _sprintf
; File C:\Program Files\Microsoft Visual Studio\2022\Professional\VC\Tools\MSVC\14.44.35207\atlmfc\include\atlsimpstr.h

; 804  : 		return( reinterpret_cast< CStringData* >( m_pszData )-1 );

  0021e	8b 95 d4 5e ff
	ff		 mov	 edx, DWORD PTR $T6[ebp]

; 94   : 			pStringMgr->Free( this );

  00224	e9 b0 00 00 00	 jmp	 $LN371@PayTaxToPo
$LN17@PayTaxToPo:
; File C:\IAGOS\server\v18\Source\Source\_Common\Tax.cpp

; 699  : 					sprintf( pMail->m_szTitle, prj.GetText(TID_GAME_TAX_PAY_PURCHASE_TITLE),

  00229	8a 47 10	 mov	 al, BYTE PTR [edi+16]
  0022c	50		 push	 eax
  0022d	8d 85 d0 5e ff
	ff		 lea	 eax, DWORD PTR $T5[ebp]
  00233	50		 push	 eax
  00234	e8 00 00 00 00	 call	 ?GetInstance@CContinent@@SAPAV1@XZ ; CContinent::GetInstance
  00239	8b c8		 mov	 ecx, eax
  0023b	e8 00 00 00 00	 call	 ?GetContinentName@CContinent@@QAE?AV?$CStringT@DV?$StrTraitMFC@DV?$ChTraitsCRT@D@ATL@@@@@ATL@@E@Z ; CContinent::GetContinentName
; File C:\IAGOS\server\v18\Source\Source\_Common\Data.h

; 270  : 	if( dwIndex >= (DWORD)m_nMaxIndex )

  00240	81 3d 78 00 00
	00 b4 0e 00 00	 cmp	 DWORD PTR ?prj@@3VCProject@@A+120, 3764 ; 00000eb4H
; File C:\IAGOS\server\v18\Source\Source\_Common\Tax.cpp

; 699  : 					sprintf( pMail->m_szTitle, prj.GetText(TID_GAME_TAX_PAY_PURCHASE_TITLE),

  0024a	8b d0		 mov	 edx, eax
; File C:\IAGOS\server\v18\Source\Source\_Common\Data.h

; 270  : 	if( dwIndex >= (DWORD)m_nMaxIndex )

  0024c	76 15		 jbe	 SHORT $LN359@PayTaxToPo

; 271  : 		return NULL;
; 272  : 	return (T*) m_apOffset[ dwIndex ];

  0024e	8b 0d 68 00 00
	00		 mov	 ecx, DWORD PTR ?prj@@3VCProject@@A+104
  00254	8b 89 d0 3a 00
	00		 mov	 ecx, DWORD PTR [ecx+15056]
; File C:\IAGOS\server\v18\Source\Source\DatabaseServer\Project.h

; 184  : 		if( m_colorText.GetAt( dwIndex ) == NULL )

  0025a	85 c9		 test	 ecx, ecx
  0025c	74 05		 je	 SHORT $LN359@PayTaxToPo

; 186  : 		return m_colorText.GetAt( dwIndex )->lpszData; 

  0025e	8b 41 04	 mov	 eax, DWORD PTR [ecx+4]
  00261	eb 05		 jmp	 SHORT $LN279@PayTaxToPo
$LN359@PayTaxToPo:

; 185  : 			return "";

  00263	b8 00 00 00 00	 mov	 eax, OFFSET ??_C@_00CNPNBAHC@@
$LN279@PayTaxToPo:
; File C:\IAGOS\server\v18\Source\Source\_Common\Tax.cpp

; 699  : 					sprintf( pMail->m_szTitle, prj.GetText(TID_GAME_TAX_PAY_PURCHASE_TITLE),

  00268	ff 32		 push	 DWORD PTR [edx]
  0026a	50		 push	 eax
  0026b	8b 85 f8 5e ff
	ff		 mov	 eax, DWORD PTR $T10[ebp]
  00271	83 c0 19	 add	 eax, 25			; 00000019H
  00274	50		 push	 eax
  00275	e8 00 00 00 00	 call	 _sprintf
; File C:\Program Files\Microsoft Visual Studio\2022\Professional\VC\Tools\MSVC\14.44.35207\atlmfc\include\atlsimpstr.h

; 804  : 		return( reinterpret_cast< CStringData* >( m_pszData )-1 );

  0027a	8b 95 d0 5e ff
	ff		 mov	 edx, DWORD PTR $T5[ebp]
; File C:\IAGOS\server\v18\Source\Source\_Common\Tax.cpp

; 701  : 					break;

  00280	eb 57		 jmp	 SHORT $LN371@PayTaxToPo
$LN16@PayTaxToPo:

; 695  : 					sprintf( pMail->m_szTitle, prj.GetText(TID_GAME_TAX_PAY_SALES_TITLE),

  00282	8a 47 10	 mov	 al, BYTE PTR [edi+16]
  00285	50		 push	 eax
  00286	8d 85 cc 5e ff
	ff		 lea	 eax, DWORD PTR $T4[ebp]
  0028c	50		 push	 eax
  0028d	e8 00 00 00 00	 call	 ?GetInstance@CContinent@@SAPAV1@XZ ; CContinent::GetInstance
  00292	8b c8		 mov	 ecx, eax
  00294	e8 00 00 00 00	 call	 ?GetContinentName@CContinent@@QAE?AV?$CStringT@DV?$StrTraitMFC@DV?$ChTraitsCRT@D@ATL@@@@@ATL@@E@Z ; CContinent::GetContinentName
; File C:\IAGOS\server\v18\Source\Source\_Common\Data.h

; 270  : 	if( dwIndex >= (DWORD)m_nMaxIndex )

  00299	81 3d 78 00 00
	00 b3 0e 00 00	 cmp	 DWORD PTR ?prj@@3VCProject@@A+120, 3763 ; 00000eb3H
; File C:\IAGOS\server\v18\Source\Source\_Common\Tax.cpp

; 695  : 					sprintf( pMail->m_szTitle, prj.GetText(TID_GAME_TAX_PAY_SALES_TITLE),

  002a3	8b d0		 mov	 edx, eax
; File C:\IAGOS\server\v18\Source\Source\_Common\Data.h

; 270  : 	if( dwIndex >= (DWORD)m_nMaxIndex )

  002a5	76 15		 jbe	 SHORT $LN360@PayTaxToPo

; 271  : 		return NULL;
; 272  : 	return (T*) m_apOffset[ dwIndex ];

  002a7	8b 0d 68 00 00
	00		 mov	 ecx, DWORD PTR ?prj@@3VCProject@@A+104
  002ad	8b 89 cc 3a 00
	00		 mov	 ecx, DWORD PTR [ecx+15052]
; File C:\IAGOS\server\v18\Source\Source\DatabaseServer\Project.h

; 184  : 		if( m_colorText.GetAt( dwIndex ) == NULL )

  002b3	85 c9		 test	 ecx, ecx
  002b5	74 05		 je	 SHORT $LN360@PayTaxToPo

; 186  : 		return m_colorText.GetAt( dwIndex )->lpszData; 

  002b7	8b 41 04	 mov	 eax, DWORD PTR [ecx+4]
  002ba	eb 05		 jmp	 SHORT $LN252@PayTaxToPo
$LN360@PayTaxToPo:

; 185  : 			return "";

  002bc	b8 00 00 00 00	 mov	 eax, OFFSET ??_C@_00CNPNBAHC@@
$LN252@PayTaxToPo:
; File C:\IAGOS\server\v18\Source\Source\_Common\Tax.cpp

; 695  : 					sprintf( pMail->m_szTitle, prj.GetText(TID_GAME_TAX_PAY_SALES_TITLE),

  002c1	ff 32		 push	 DWORD PTR [edx]
  002c3	50		 push	 eax
  002c4	8b 85 f8 5e ff
	ff		 mov	 eax, DWORD PTR $T10[ebp]
  002ca	83 c0 19	 add	 eax, 25			; 00000019H
  002cd	50		 push	 eax
  002ce	e8 00 00 00 00	 call	 _sprintf
; File C:\Program Files\Microsoft Visual Studio\2022\Professional\VC\Tools\MSVC\14.44.35207\atlmfc\include\atlsimpstr.h

; 804  : 		return( reinterpret_cast< CStringData* >( m_pszData )-1 );

  002d3	8b 95 cc 5e ff
	ff		 mov	 edx, DWORD PTR $T4[ebp]
$LN371@PayTaxToPo:
; File C:\IAGOS\server\v18\Source\Source\_Common\Tax.cpp

; 707  : 			char strDate[100]={0,};

  002d9	83 c4 0c	 add	 esp, 12			; 0000000cH
  002dc	83 c2 f0	 add	 edx, -16		; fffffff0H
  002df	83 c8 ff	 or	 eax, -1
  002e2	f0 0f c1 42 0c	 lock	  xadd	 DWORD PTR [edx+12], eax
  002e7	48		 dec	 eax
  002e8	85 c0		 test	 eax, eax
  002ea	7f 08		 jg	 SHORT $LN268@PayTaxToPo
  002ec	8b 0a		 mov	 ecx, DWORD PTR [edx]
  002ee	52		 push	 edx
  002ef	8b 01		 mov	 eax, DWORD PTR [ecx]
  002f1	ff 50 04	 call	 DWORD PTR [eax+4]
$LN268@PayTaxToPo:
  002f4	6a 64		 push	 100			; 00000064H
  002f6	8d 45 8c	 lea	 eax, DWORD PTR _strDate$18[ebp]
  002f9	6a 00		 push	 0
  002fb	50		 push	 eax
  002fc	e8 00 00 00 00	 call	 _memset
; File C:\Program Files\Microsoft Visual Studio\2022\Professional\VC\Tools\MSVC\14.44.35207\atlmfc\include\atltime.h

; 377  : 	return( CTime( ::_time64( NULL ) ) );

  00301	6a 00		 push	 0
  00303	e8 00 00 00 00	 call	 __time64

; 551  : 	return( CTime( m_time-span.GetTimeSpan() ) );

  00308	2d 80 51 01 00	 sub	 eax, 86400		; 00015180H

; 420  : 	m_time( time )

  0030d	89 85 d8 5e ff
	ff		 mov	 DWORD PTR _cTime$7[ebp], eax

; 617  : 		errno_t err = _localtime64_s(&ptmTemp, &m_time);

  00313	8d 85 d8 5e ff
	ff		 lea	 eax, DWORD PTR _cTime$7[ebp]
  00319	50		 push	 eax
  0031a	8d 85 68 5f ff
	ff		 lea	 eax, DWORD PTR _ptmTemp$14[ebp]

; 551  : 	return( CTime( m_time-span.GetTimeSpan() ) );

  00320	83 da 00	 sbb	 edx, 0

; 617  : 		errno_t err = _localtime64_s(&ptmTemp, &m_time);

  00323	50		 push	 eax

; 420  : 	m_time( time )

  00324	89 95 dc 5e ff
	ff		 mov	 DWORD PTR _cTime$7[ebp+4], edx

; 617  : 		errno_t err = _localtime64_s(&ptmTemp, &m_time);

  0032a	e8 00 00 00 00	 call	 __localtime64_s
  0032f	83 c4 18	 add	 esp, 24			; 00000018H

; 618  : 
; 619  : 		if (err != 0)

  00332	85 c0		 test	 eax, eax
  00334	74 0c		 je	 SHORT $LN149@PayTaxToPo

; 683  : 	return ptm ? ptm->tm_mday : 0 ;

  00336	c7 85 f0 5e ff
	ff 00 00 00 00	 mov	 DWORD PTR $T9[ebp], 0
  00340	eb 37		 jmp	 SHORT $LN139@PayTaxToPo
$LN149@PayTaxToPo:

; 624  : 		*ptm = ptmTemp;

  00342	0f 10 85 68 5f
	ff ff		 movups	 xmm0, XMMWORD PTR _ptmTemp$14[ebp]
  00349	8b 85 88 5f ff
	ff		 mov	 eax, DWORD PTR _ptmTemp$14[ebp+32]
  0034f	89 85 64 5f ff
	ff		 mov	 DWORD PTR _ttm$13[ebp+32], eax

; 625  : 		return ptm;

  00355	8d 85 44 5f ff
	ff		 lea	 eax, DWORD PTR _ttm$13[ebp]
  0035b	0f 11 85 44 5f
	ff ff		 movups	 XMMWORD PTR _ttm$13[ebp], xmm0
  00362	0f 10 85 78 5f
	ff ff		 movups	 xmm0, XMMWORD PTR _ptmTemp$14[ebp+16]
  00369	0f 11 85 54 5f
	ff ff		 movups	 XMMWORD PTR _ttm$13[ebp+16], xmm0

; 683  : 	return ptm ? ptm->tm_mday : 0 ;

  00370	8b 40 0c	 mov	 eax, DWORD PTR [eax+12]
  00373	89 85 f0 5e ff
	ff		 mov	 DWORD PTR $T9[ebp], eax
$LN139@PayTaxToPo:

; 617  : 		errno_t err = _localtime64_s(&ptmTemp, &m_time);

  00379	8d 85 d8 5e ff
	ff		 lea	 eax, DWORD PTR _cTime$7[ebp]
  0037f	50		 push	 eax
  00380	8d 85 68 5f ff
	ff		 lea	 eax, DWORD PTR _ptmTemp$15[ebp]
  00386	50		 push	 eax
  00387	e8 00 00 00 00	 call	 __localtime64_s
  0038c	83 c4 08	 add	 esp, 8

; 618  : 
; 619  : 		if (err != 0)

  0038f	85 c0		 test	 eax, eax
  00391	74 0c		 je	 SHORT $LN166@PayTaxToPo

; 674  : 	return ptm ? ptm->tm_mon + 1 : 0;

  00393	c7 85 ec 5e ff
	ff 00 00 00 00	 mov	 DWORD PTR $T8[ebp], 0
  0039d	eb 38		 jmp	 SHORT $LN156@PayTaxToPo
$LN166@PayTaxToPo:

; 624  : 		*ptm = ptmTemp;

  0039f	0f 10 85 68 5f
	ff ff		 movups	 xmm0, XMMWORD PTR _ptmTemp$15[ebp]
  003a6	8b 85 88 5f ff
	ff		 mov	 eax, DWORD PTR _ptmTemp$15[ebp+32]
  003ac	89 85 40 5f ff
	ff		 mov	 DWORD PTR _ttm$12[ebp+32], eax

; 625  : 		return ptm;

  003b2	8d 85 20 5f ff
	ff		 lea	 eax, DWORD PTR _ttm$12[ebp]
  003b8	0f 11 85 20 5f
	ff ff		 movups	 XMMWORD PTR _ttm$12[ebp], xmm0
  003bf	0f 10 85 78 5f
	ff ff		 movups	 xmm0, XMMWORD PTR _ptmTemp$15[ebp+16]
  003c6	0f 11 85 30 5f
	ff ff		 movups	 XMMWORD PTR _ttm$12[ebp+16], xmm0

; 674  : 	return ptm ? ptm->tm_mon + 1 : 0;

  003cd	8b 40 10	 mov	 eax, DWORD PTR [eax+16]
  003d0	40		 inc	 eax
  003d1	89 85 ec 5e ff
	ff		 mov	 DWORD PTR $T8[ebp], eax
$LN156@PayTaxToPo:

; 617  : 		errno_t err = _localtime64_s(&ptmTemp, &m_time);

  003d7	8d 85 d8 5e ff
	ff		 lea	 eax, DWORD PTR _cTime$7[ebp]
  003dd	50		 push	 eax
  003de	8d 85 68 5f ff
	ff		 lea	 eax, DWORD PTR _ptmTemp$16[ebp]
  003e4	50		 push	 eax
  003e5	e8 00 00 00 00	 call	 __localtime64_s
  003ea	83 c4 08	 add	 esp, 8

; 618  : 
; 619  : 		if (err != 0)

  003ed	85 c0		 test	 eax, eax
  003ef	74 04		 je	 SHORT $LN182@PayTaxToPo

; 665  : 	return ptm ? (ptm->tm_year) + 1900 : 0 ;

  003f1	33 c9		 xor	 ecx, ecx
  003f3	eb 37		 jmp	 SHORT $LN172@PayTaxToPo
$LN182@PayTaxToPo:

; 624  : 		*ptm = ptmTemp;

  003f5	0f 10 85 68 5f
	ff ff		 movups	 xmm0, XMMWORD PTR _ptmTemp$16[ebp]
  003fc	8b 85 88 5f ff
	ff		 mov	 eax, DWORD PTR _ptmTemp$16[ebp+32]

; 625  : 		return ptm;

  00402	8d 8d fc 5e ff
	ff		 lea	 ecx, DWORD PTR _ttm$11[ebp]
  00408	89 85 1c 5f ff
	ff		 mov	 DWORD PTR _ttm$11[ebp+32], eax
  0040e	0f 11 85 fc 5e
	ff ff		 movups	 XMMWORD PTR _ttm$11[ebp], xmm0
  00415	0f 10 85 78 5f
	ff ff		 movups	 xmm0, XMMWORD PTR _ptmTemp$16[ebp+16]
  0041c	0f 11 85 0c 5f
	ff ff		 movups	 XMMWORD PTR _ttm$11[ebp+16], xmm0

; 665  : 	return ptm ? (ptm->tm_year) + 1900 : 0 ;

  00423	8b 49 14	 mov	 ecx, DWORD PTR [ecx+20]
  00426	81 c1 6c 07 00
	00		 add	 ecx, 1900		; 0000076cH
$LN172@PayTaxToPo:
; File C:\IAGOS\server\v18\Source\Source\_Common\Data.h

; 270  : 	if( dwIndex >= (DWORD)m_nMaxIndex )

  0042c	81 3d 78 00 00
	00 b6 0e 00 00	 cmp	 DWORD PTR ?prj@@3VCProject@@A+120, 3766 ; 00000eb6H
  00436	76 14		 jbe	 SHORT $LN361@PayTaxToPo

; 271  : 		return NULL;
; 272  : 	return (T*) m_apOffset[ dwIndex ];

  00438	a1 68 00 00 00	 mov	 eax, DWORD PTR ?prj@@3VCProject@@A+104
  0043d	8b 80 d8 3a 00
	00		 mov	 eax, DWORD PTR [eax+15064]
; File C:\IAGOS\server\v18\Source\Source\DatabaseServer\Project.h

; 184  : 		if( m_colorText.GetAt( dwIndex ) == NULL )

  00443	85 c0		 test	 eax, eax
  00445	74 05		 je	 SHORT $LN361@PayTaxToPo

; 186  : 		return m_colorText.GetAt( dwIndex )->lpszData; 

  00447	8b 40 04	 mov	 eax, DWORD PTR [eax+4]
  0044a	eb 05		 jmp	 SHORT $LN185@PayTaxToPo
$LN361@PayTaxToPo:

; 185  : 			return "";

  0044c	b8 00 00 00 00	 mov	 eax, OFFSET ??_C@_00CNPNBAHC@@
$LN185@PayTaxToPo:
; File C:\IAGOS\server\v18\Source\Source\_Common\Tax.cpp

; 709  : 			sprintf( strDate, prj.GetText( TID_GAME_TAX_PAY_DATE ), cTime.GetYear(), cTime.GetMonth(), cTime.GetDay() );

  00451	ff b5 f0 5e ff
	ff		 push	 DWORD PTR $T9[ebp]
  00457	ff b5 ec 5e ff
	ff		 push	 DWORD PTR $T8[ebp]
  0045d	51		 push	 ecx
  0045e	50		 push	 eax
  0045f	8d 45 8c	 lea	 eax, DWORD PTR _strDate$18[ebp]
  00462	50		 push	 eax
  00463	e8 00 00 00 00	 call	 _sprintf
  00468	83 c4 14	 add	 esp, 20			; 00000014H
; File C:\IAGOS\server\v18\Source\Source\_Common\Data.h

; 270  : 	if( dwIndex >= (DWORD)m_nMaxIndex )

  0046b	81 3d 78 00 00
	00 b7 0e 00 00	 cmp	 DWORD PTR ?prj@@3VCProject@@A+120, 3767 ; 00000eb7H
  00475	76 14		 jbe	 SHORT $LN362@PayTaxToPo

; 271  : 		return NULL;
; 272  : 	return (T*) m_apOffset[ dwIndex ];

  00477	a1 68 00 00 00	 mov	 eax, DWORD PTR ?prj@@3VCProject@@A+104
  0047c	8b 80 dc 3a 00
	00		 mov	 eax, DWORD PTR [eax+15068]
; File C:\IAGOS\server\v18\Source\Source\DatabaseServer\Project.h

; 184  : 		if( m_colorText.GetAt( dwIndex ) == NULL )

  00482	85 c0		 test	 eax, eax
  00484	74 05		 je	 SHORT $LN362@PayTaxToPo

; 186  : 		return m_colorText.GetAt( dwIndex )->lpszData; 

  00486	8b 40 04	 mov	 eax, DWORD PTR [eax+4]
  00489	eb 05		 jmp	 SHORT $LN194@PayTaxToPo
$LN362@PayTaxToPo:

; 185  : 			return "";

  0048b	b8 00 00 00 00	 mov	 eax, OFFSET ??_C@_00CNPNBAHC@@
$LN194@PayTaxToPo:
; File C:\IAGOS\server\v18\Source\Source\_Common\Tax.cpp

; 710  : 			sprintf( pMail->m_szText, prj.GetText( TID_GAME_TAX_PAY_INFO ), strDate, taxDetail->nTaxCount, taxDetail->nTaxPerin, taxDetail->nTaxGold );

  00490	8b 8d f4 5e ff
	ff		 mov	 ecx, DWORD PTR _taxDetail$1$[ebp]
  00496	ff 71 08	 push	 DWORD PTR [ecx+8]
  00499	ff 71 0c	 push	 DWORD PTR [ecx+12]
  0049c	ff 71 04	 push	 DWORD PTR [ecx+4]
  0049f	8d 4d 8c	 lea	 ecx, DWORD PTR _strDate$18[ebp]
  004a2	51		 push	 ecx
  004a3	50		 push	 eax
  004a4	8b 85 f8 5e ff
	ff		 mov	 eax, DWORD PTR $T10[ebp]
  004aa	83 c0 39	 add	 eax, 57			; 00000039H
  004ad	50		 push	 eax
  004ae	e8 00 00 00 00	 call	 _sprintf

; 711  : 			if( taxDetail->nTaxPerin )

  004b3	8b 85 f4 5e ff
	ff		 mov	 eax, DWORD PTR _taxDetail$1$[ebp]
  004b9	83 c4 18	 add	 esp, 24			; 00000018H
  004bc	83 78 0c 00	 cmp	 DWORD PTR [eax+12], 0
  004c0	74 6f		 je	 SHORT $LN368@PayTaxToPo

; 712  : 			{
; 713  : 				pMail->m_pItemElem	= new CItemElem;

  004c2	68 98 00 00 00	 push	 152			; 00000098H
  004c7	e8 00 00 00 00	 call	 ??2@YAPAXI@Z		; operator new
  004cc	83 c4 04	 add	 esp, 4
  004cf	89 85 c0 5e ff
	ff		 mov	 DWORD PTR $T2[ebp], eax
  004d5	c7 45 fc 01 00
	00 00		 mov	 DWORD PTR __$EHRec$[ebp+8], 1
  004dc	85 c0		 test	 eax, eax
  004de	74 09		 je	 SHORT $LN25@PayTaxToPo
  004e0	8b c8		 mov	 ecx, eax
  004e2	e8 00 00 00 00	 call	 ??0CItemElem@@QAE@XZ	; CItemElem::CItemElem
  004e7	eb 02		 jmp	 SHORT $LN26@PayTaxToPo
$LN25@PayTaxToPo:
  004e9	33 c0		 xor	 eax, eax
$LN26@PayTaxToPo:
  004eb	8b 95 f8 5e ff
	ff		 mov	 edx, DWORD PTR $T10[ebp]
  004f1	c7 45 fc ff ff
	ff ff		 mov	 DWORD PTR __$EHRec$[ebp+8], -1
  004f8	89 42 0c	 mov	 DWORD PTR [edx+12], eax

; 714  : 				pMail->m_pItemElem->m_dwItemId	= II_SYS_SYS_SCR_PERIN;

  004fb	c7 40 08 58 67
	00 00		 mov	 DWORD PTR [eax+8], 26456 ; 00006758H

; 715  : 				pMail->m_pItemElem->m_nItemNum	= static_cast<short>( taxDetail->nTaxPerin );

  00502	8b 4a 0c	 mov	 ecx, DWORD PTR [edx+12]
  00505	8b 85 f4 5e ff
	ff		 mov	 eax, DWORD PTR _taxDetail$1$[ebp]
  0050b	66 8b 40 0c	 mov	 ax, WORD PTR [eax+12]
  0050f	66 89 41 66	 mov	 WORD PTR [ecx+102], ax
; File C:\IAGOS\server\v18\Source\Source\_Common\xutil.h

; 16   : 	g_next = g_next * 1103515245 + 12345;// + nRandomSeed[ i++ ];

  00513	69 0d 00 00 00
	00 6d 4e c6 41	 imul	 ecx, DWORD PTR ?g_next@@3KA, 1103515245 ; g_next
  0051d	81 c1 39 30 00
	00		 add	 ecx, 12345		; 00003039H
  00523	89 0d 00 00 00
	00		 mov	 DWORD PTR ?g_next@@3KA, ecx ; g_next
; File C:\IAGOS\server\v18\Source\Source\_Network\Objects\Obj.h

; 141  : 	void	SetSerialNumber( SERIALNUMBER liSerialNumber )	{	m_liSerialNumber	= liSerialNumber;	}

  00529	8b 42 0c	 mov	 eax, DWORD PTR [edx+12]
  0052c	89 48 30	 mov	 DWORD PTR [eax+48], ecx
; File C:\IAGOS\server\v18\Source\Source\_Common\Tax.cpp

; 711  : 			if( taxDetail->nTaxPerin )

  0052f	eb 06		 jmp	 SHORT $LN19@PayTaxToPo
$LN368@PayTaxToPo:
  00531	8b 95 f8 5e ff
	ff		 mov	 edx, DWORD PTR $T10[ebp]
$LN19@PayTaxToPo:

; 716  : 				pMail->m_pItemElem->SetSerialNumber( xRand() );
; 717  : 			}
; 718  : 
; 719  : 			post::Post( dwId, pMail, pQuery );

  00537	ff b5 e8 5e ff
	ff		 push	 DWORD PTR _pQuery$1$[ebp]
  0053d	52		 push	 edx
  0053e	ff b5 e4 5e ff
	ff		 push	 DWORD PTR _dwId$1$[ebp]
  00544	e8 00 00 00 00	 call	 ?Post@post@@YAXKPAVCMail@@PAVCQuery@@@Z ; post::Post

; 720  : 			
; 721  : 			taxDetail->nTaxCount = 0;

  00549	8b 85 f4 5e ff
	ff		 mov	 eax, DWORD PTR _taxDetail$1$[ebp]
  0054f	83 c4 0c	 add	 esp, 12			; 0000000cH
  00552	c7 40 04 00 00
	00 00		 mov	 DWORD PTR [eax+4], 0

; 722  : 			taxDetail->nTaxGold = 0;

  00559	c7 40 08 00 00
	00 00		 mov	 DWORD PTR [eax+8], 0

; 723  : 			taxDetail->nTaxPerin = 0;

  00560	c7 40 0c 00 00
	00 00		 mov	 DWORD PTR [eax+12], 0
; File C:\Program Files\Microsoft Visual Studio\2022\Professional\VC\Tools\MSVC\14.44.35207\include\xtree

; 50   :         if (_Ptr->_Right->_Isnil) { // climb looking for right subtree

  00567	8b 46 08	 mov	 eax, DWORD PTR [esi+8]
  0056a	80 78 0d 00	 cmp	 BYTE PTR [eax+13], 0
  0056e	74 24		 je	 SHORT $LN101@PayTaxToPo

; 51   :             _Nodeptr _Pnode;
; 52   :             while (!(_Pnode = _Ptr->_Parent)->_Isnil && _Ptr == _Pnode->_Right) {

  00570	8b 46 04	 mov	 eax, DWORD PTR [esi+4]
  00573	80 78 0d 00	 cmp	 BYTE PTR [eax+13], 0
  00577	75 17		 jne	 SHORT $LN100@PayTaxToPo
  00579	0f 1f 80 00 00
	00 00		 npad	 7
$LL99@PayTaxToPo:
  00580	3b 70 08	 cmp	 esi, DWORD PTR [eax+8]
  00583	75 0b		 jne	 SHORT $LN100@PayTaxToPo

; 53   :                 _Ptr = _Pnode; // ==> parent while right subtree

  00585	8b f0		 mov	 esi, eax
  00587	8b 40 04	 mov	 eax, DWORD PTR [eax+4]
  0058a	80 78 0d 00	 cmp	 BYTE PTR [eax+13], 0
  0058e	74 f0		 je	 SHORT $LL99@PayTaxToPo
$LN100@PayTaxToPo:

; 54   :             }
; 55   : 
; 56   :             _Ptr = _Pnode; // ==> parent (head if end())

  00590	8b f0		 mov	 esi, eax

; 57   :         } else {

  00592	eb 18		 jmp	 SHORT $LN341@PayTaxToPo
$LN101@PayTaxToPo:

; 58   :             _Ptr = _Mytree::_Min(_Ptr->_Right); // ==> smallest of right subtree

  00594	8b f0		 mov	 esi, eax

; 476  :         while (!_Pnode->_Left->_Isnil) {

  00596	8b 0e		 mov	 ecx, DWORD PTR [esi]
  00598	80 79 0d 00	 cmp	 BYTE PTR [ecx+13], 0
  0059c	75 0e		 jne	 SHORT $LN341@PayTaxToPo
  0059e	66 90		 npad	 2
$LL106@PayTaxToPo:
  005a0	8b 01		 mov	 eax, DWORD PTR [ecx]

; 477  :             _Pnode = _Pnode->_Left;

  005a2	8b f1		 mov	 esi, ecx
  005a4	8b c8		 mov	 ecx, eax
  005a6	80 78 0d 00	 cmp	 BYTE PTR [eax+13], 0
  005aa	74 f4		 je	 SHORT $LL106@PayTaxToPo
$LN341@PayTaxToPo:

; 237  :         return !(*this == _Right);

  005ac	8b 85 e0 5e ff
	ff		 mov	 eax, DWORD PTR _taxInfo$1$[ebp]
  005b2	3b 70 08	 cmp	 esi, DWORD PTR [eax+8]
; File C:\IAGOS\server\v18\Source\Source\_Common\Tax.cpp

; 684  : 		for( TAXDETAILMAP::iterator it2=taxInfo->mapTaxDetail.begin(); it2!=taxInfo->mapTaxDetail.end(); it2++ )

  005b5	0f 85 67 fb ff
	ff		 jne	 $LL7@PayTaxToPo
$LN2@PayTaxToPo:
; File C:\Program Files\Microsoft Visual Studio\2022\Professional\VC\Tools\MSVC\14.44.35207\include\xtree

; 50   :         if (_Ptr->_Right->_Isnil) { // climb looking for right subtree

  005bb	8b 47 08	 mov	 eax, DWORD PTR [edi+8]
  005be	80 78 0d 00	 cmp	 BYTE PTR [eax+13], 0
  005c2	74 20		 je	 SHORT $LN59@PayTaxToPo

; 51   :             _Nodeptr _Pnode;
; 52   :             while (!(_Pnode = _Ptr->_Parent)->_Isnil && _Ptr == _Pnode->_Right) {

  005c4	8b 47 04	 mov	 eax, DWORD PTR [edi+4]
  005c7	80 78 0d 00	 cmp	 BYTE PTR [eax+13], 0
  005cb	75 13		 jne	 SHORT $LN58@PayTaxToPo
  005cd	0f 1f 00	 npad	 3
$LL57@PayTaxToPo:
  005d0	3b 78 08	 cmp	 edi, DWORD PTR [eax+8]
  005d3	75 0b		 jne	 SHORT $LN58@PayTaxToPo

; 53   :                 _Ptr = _Pnode; // ==> parent while right subtree

  005d5	8b f8		 mov	 edi, eax
  005d7	8b 40 04	 mov	 eax, DWORD PTR [eax+4]
  005da	80 78 0d 00	 cmp	 BYTE PTR [eax+13], 0
  005de	74 f0		 je	 SHORT $LL57@PayTaxToPo
$LN58@PayTaxToPo:

; 54   :             }
; 55   : 
; 56   :             _Ptr = _Pnode; // ==> parent (head if end())

  005e0	8b f8		 mov	 edi, eax

; 57   :         } else {

  005e2	eb 18		 jmp	 SHORT $LN344@PayTaxToPo
$LN59@PayTaxToPo:

; 58   :             _Ptr = _Mytree::_Min(_Ptr->_Right); // ==> smallest of right subtree

  005e4	8b f8		 mov	 edi, eax

; 476  :         while (!_Pnode->_Left->_Isnil) {

  005e6	8b 0f		 mov	 ecx, DWORD PTR [edi]
  005e8	80 79 0d 00	 cmp	 BYTE PTR [ecx+13], 0
  005ec	75 0e		 jne	 SHORT $LN344@PayTaxToPo
  005ee	66 90		 npad	 2
$LL64@PayTaxToPo:
  005f0	8b 01		 mov	 eax, DWORD PTR [ecx]

; 477  :             _Pnode = _Pnode->_Left;

  005f2	8b f9		 mov	 edi, ecx
  005f4	8b c8		 mov	 ecx, eax
  005f6	80 78 0d 00	 cmp	 BYTE PTR [eax+13], 0
  005fa	74 f4		 je	 SHORT $LL64@PayTaxToPo
$LN344@PayTaxToPo:

; 237  :         return !(*this == _Right);

  005fc	8b 85 c8 5e ff
	ff		 mov	 eax, DWORD PTR _tax$1$[ebp]
  00602	3b 78 08	 cmp	 edi, DWORD PTR [eax+8]
; File C:\IAGOS\server\v18\Source\Source\_Common\Tax.cpp

; 657  : 	for( TAXINFOMAP::iterator it=tax->m_mapTaxInfo.begin(); it!=tax->m_mapTaxInfo.end(); it++ )

  00605	0f 85 55 fa ff
	ff		 jne	 $LL4@PayTaxToPo
$LN345@PayTaxToPo:

; 724  : 		} // for it2
; 725  : 	}	// for it
; 726  : }

  0060b	8b 4d f4	 mov	 ecx, DWORD PTR __$EHRec$[ebp]
  0060e	64 89 0d 00 00
	00 00		 mov	 DWORD PTR fs:0, ecx
  00615	59		 pop	 ecx
  00616	5f		 pop	 edi
  00617	5e		 pop	 esi
  00618	8b 4d f0	 mov	 ecx, DWORD PTR __$ArrayPad$[ebp]
  0061b	33 cd		 xor	 ecx, ebp
  0061d	e8 00 00 00 00	 call	 @__security_check_cookie@4
  00622	8b e5		 mov	 esp, ebp
  00624	5d		 pop	 ebp
  00625	c3		 ret	 0
_TEXT	ENDS
;	COMDAT text$x
text$x	SEGMENT
__unwindfunclet$?PayTaxToPost@CTaxDBController@@AAEXXZ$0:
  00000	68 40 01 00 00	 push	 320			; 00000140H
  00005	8b 85 c4 5e ff
	ff		 mov	 eax, DWORD PTR $T3[ebp]
  0000b	50		 push	 eax
  0000c	e8 00 00 00 00	 call	 ??3@YAXPAXI@Z		; operator delete
  00011	83 c4 08	 add	 esp, 8
  00014	c3		 ret	 0
__unwindfunclet$?PayTaxToPost@CTaxDBController@@AAEXXZ$4:
  00015	68 98 00 00 00	 push	 152			; 00000098H
  0001a	8b 85 c0 5e ff
	ff		 mov	 eax, DWORD PTR $T2[ebp]
  00020	50		 push	 eax
  00021	e8 00 00 00 00	 call	 ??3@YAXPAXI@Z		; operator delete
  00026	83 c4 08	 add	 esp, 8
  00029	c3		 ret	 0
  0002a	cc		 int	 3
  0002b	cc		 int	 3
  0002c	cc		 int	 3
  0002d	cc		 int	 3
  0002e	cc		 int	 3
__ehhandler$?PayTaxToPost@CTaxDBController@@AAEXXZ:
  0002f	90		 npad	 1
  00030	90		 npad	 1
  00031	8b 54 24 08	 mov	 edx, DWORD PTR [esp+8]
  00035	8d 42 0c	 lea	 eax, DWORD PTR [edx+12]
  00038	8b 8a c0 5e ff
	ff		 mov	 ecx, DWORD PTR [edx-41280]
  0003e	33 c8		 xor	 ecx, eax
  00040	e8 00 00 00 00	 call	 @__security_check_cookie@4
  00045	8b 4a fc	 mov	 ecx, DWORD PTR [edx-4]
  00048	33 c8		 xor	 ecx, eax
  0004a	e8 00 00 00 00	 call	 @__security_check_cookie@4
  0004f	b8 00 00 00 00	 mov	 eax, OFFSET __ehfuncinfo$?PayTaxToPost@CTaxDBController@@AAEXXZ
  00054	e9 00 00 00 00	 jmp	 ___CxxFrameHandler3
text$x	ENDS
?PayTaxToPost@CTaxDBController@@AAEXXZ ENDP		; CTaxDBController::PayTaxToPost
; Function compile flags: /Ogtp
; File C:\IAGOS\server\v18\Source\Source\_Common\Tax.cpp
;	COMDAT ?OnTimer@CTaxDBController@@UAEXXZ
_TEXT	SEGMENT
?OnTimer@CTaxDBController@@UAEXXZ PROC			; CTaxDBController::OnTimer, COMDAT
; _this$ = ecx

; 649  : 	BOOL bPay = CTax::GetInstance()->CheckPayTime();

  00000	e8 00 00 00 00	 call	 ?GetInstance@CTax@@SAPAV1@XZ ; CTax::GetInstance
  00005	8b c8		 mov	 ecx, eax
  00007	e8 00 00 00 00	 call	 ?CheckPayTime@CTax@@QAEHXZ ; CTax::CheckPayTime

; 650  : 	CTax::GetInstance()->CheckChangeTime( bPay );

  0000c	6a 00		 push	 0
  0000e	50		 push	 eax
  0000f	e8 00 00 00 00	 call	 ?GetInstance@CTax@@SAPAV1@XZ ; CTax::GetInstance
  00014	8b c8		 mov	 ecx, eax
  00016	e8 00 00 00 00	 call	 ?CheckChangeTime@CTax@@QAEXHH@Z ; CTax::CheckChangeTime

; 651  : }

  0001b	c3		 ret	 0
?OnTimer@CTaxDBController@@UAEXXZ ENDP			; CTaxDBController::OnTimer
_TEXT	ENDS
; Function compile flags: /Ogtp
; File C:\IAGOS\server\v18\Source\Source\_Common\Tax.cpp
;	COMDAT ?Handler@CTaxDBController@@UAEXPAUtagDB_OVERLAPPED_PLUS@@K@Z
_TEXT	SEGMENT
_nCont$2 = -32836					; size = 1
_nTaxKind$3 = -32836					; size = 1
_dwGuildId$4 = -32832					; size = 4
_nSalesTaxRate$5 = -32832				; size = 4
_nCont$6 = -32832					; size = 1
_dwIdPlayer$7 = -32828					; size = 4
_nPurchaseTaxRate$8 = -32828				; size = 4
_nTax$9 = -32828					; size = 4
_nCont$10 = -32828					; size = 1
_ar$11 = -32824						; size = 16404
_ar$12 = -16420						; size = 16404
_ar$13 = -16420						; size = 16404
_ar$14 = -16420						; size = 16404
__$ArrayPad$ = -16					; size = 4
__$EHRec$ = -12						; size = 12
_pov$ = 8						; size = 4
_dwCompletionKey$ = 12					; size = 4
?Handler@CTaxDBController@@UAEXPAUtagDB_OVERLAPPED_PLUS@@K@Z PROC ; CTaxDBController::Handler, COMDAT
; _this$ = ecx

; 558  : {

  00000	55		 push	 ebp
  00001	8b ec		 mov	 ebp, esp
  00003	6a ff		 push	 -1
  00005	68 00 00 00 00	 push	 __ehhandler$?Handler@CTaxDBController@@UAEXPAUtagDB_OVERLAPPED_PLUS@@K@Z
  0000a	64 a1 00 00 00
	00		 mov	 eax, DWORD PTR fs:0
  00010	50		 push	 eax
  00011	b8 38 80 00 00	 mov	 eax, 32824		; 00008038H
  00016	e8 00 00 00 00	 call	 __chkstk
  0001b	a1 00 00 00 00	 mov	 eax, DWORD PTR ___security_cookie
  00020	33 c5		 xor	 eax, ebp
  00022	89 45 f0	 mov	 DWORD PTR __$ArrayPad$[ebp], eax
  00025	56		 push	 esi
  00026	57		 push	 edi
  00027	50		 push	 eax
  00028	8d 45 f4	 lea	 eax, DWORD PTR __$EHRec$[ebp]
  0002b	64 a3 00 00 00
	00		 mov	 DWORD PTR fs:0, eax
  00031	8b f9		 mov	 edi, ecx
  00033	8b 45 08	 mov	 eax, DWORD PTR _pov$[ebp]

; 559  : 	switch( pov->nQueryMode )

  00036	8b 48 14	 mov	 ecx, DWORD PTR [eax+20]
  00039	83 f9 06	 cmp	 ecx, 6
  0003c	0f 87 55 02 00
	00		 ja	 $LN2@Handler
  00042	ff 24 8d 00 00
	00 00		 jmp	 DWORD PTR $LN20@Handler[ecx*4]
$LN4@Handler:

; 560  : 	{
; 561  : 		case QUERY_TAX_LOAD :
; 562  : 			{
; 563  : 				if( !m_bLoadTaxInfo )	// DBżˇĽ­ ·ÎµůŔş ÇŃąř¸¸...

  00049	83 7f 18 00	 cmp	 DWORD PTR [edi+24], 0
  0004d	75 0e		 jne	 SHORT $LN5@Handler

; 564  : 				{
; 565  : 					LoadTaxInfo();

  0004f	8b cf		 mov	 ecx, edi
  00051	e8 00 00 00 00	 call	 ?LoadTaxInfo@CTaxDBController@@AAEXXZ ; CTaxDBController::LoadTaxInfo

; 566  : 					m_bLoadTaxInfo = TRUE;

  00056	c7 47 18 01 00
	00 00		 mov	 DWORD PTR [edi+24], 1
$LN5@Handler:

; 567  : 				}
; 568  : 				CDPTrans::GetInstance()->SendTaxInfo( dwCompletionKey, TRUE );

  0005d	6a 00		 push	 0
  0005f	6a 01		 push	 1
  00061	ff 75 0c	 push	 DWORD PTR _dwCompletionKey$[ebp]
  00064	e8 00 00 00 00	 call	 ?GetInstance@CDPTrans@@SAPAV1@XZ ; CDPTrans::GetInstance
  00069	8b c8		 mov	 ecx, eax
  0006b	e8 00 00 00 00	 call	 ?SendTaxInfo@CDPTrans@@QAEXKHH@Z ; CDPTrans::SendTaxInfo

; 569  : 			}
; 570  : 			break;

  00070	e9 22 02 00 00	 jmp	 $LN2@Handler
$LN6@Handler:

; 571  : 
; 572  : 		case QUERY_TAX_PAY :	
; 573  : 			{
; 574  : 				PayTaxToPost();

  00075	8b cf		 mov	 ecx, edi
  00077	e8 00 00 00 00	 call	 ?PayTaxToPost@CTaxDBController@@AAEXXZ ; CTaxDBController::PayTaxToPost

; 575  : 				UpdateAllToDB(); // ¸đµç ´ë·úŔÇ ĽĽ±Ý Á¤ş¸¸¦ ŔúŔĺÇŃ´Ů.

  0007c	8b cf		 mov	 ecx, edi
  0007e	e8 00 00 00 00	 call	 ?UpdateAllToDB@CTaxDBController@@AAEXXZ ; CTaxDBController::UpdateAllToDB

; 576  : 			}
; 577  : 			break;

  00083	e9 0f 02 00 00	 jmp	 $LN2@Handler
$LN7@Handler:

; 578  : 		
; 579  : 		case QUERY_TAX_CHANGENEXT :
; 580  : 			{
; 581  : 				CTax::GetInstance()->SetChangeNextTax();

  00088	e8 00 00 00 00	 call	 ?GetInstance@CTax@@SAPAV1@XZ ; CTax::GetInstance
  0008d	8b c8		 mov	 ecx, eax
  0008f	e8 00 00 00 00	 call	 ?SetChangeNextTax@CTax@@QAEXXZ ; CTax::SetChangeNextTax

; 582  : 				CDPTrans::GetInstance()->SendTaxInfo( DPID_ALLPLAYERS, FALSE, TRUE ); // WorldServer·Î ŔüĽŰ

  00094	6a 01		 push	 1
  00096	6a 00		 push	 0
  00098	6a 00		 push	 0
  0009a	e8 00 00 00 00	 call	 ?GetInstance@CDPTrans@@SAPAV1@XZ ; CDPTrans::GetInstance
  0009f	8b c8		 mov	 ecx, eax
  000a1	e8 00 00 00 00	 call	 ?SendTaxInfo@CDPTrans@@QAEXKHH@Z ; CDPTrans::SendTaxInfo

; 583  : 				InsertToDB();		// şŻ°ćµČ Á¤ş¸¸¦ DBżˇ Ăß°ˇ 

  000a6	8b cf		 mov	 ecx, edi
  000a8	e8 00 00 00 00	 call	 ?InsertToDB@CTaxDBController@@AAEXXZ ; CTaxDBController::InsertToDB

; 584  : 			}
; 585  : 			break;

  000ad	e9 e5 01 00 00	 jmp	 $LN2@Handler
$LN8@Handler:

; 586  : 
; 587  : 		
; 588  : 		case QUERY_TAX_SETNEXT_SECRETROOMWINGUILD :
; 589  : 			{
; 590  : 				CAr ar( pov->lpBuf, pov->uBufSize );

  000b2	ff 70 1c	 push	 DWORD PTR [eax+28]
  000b5	8d 8d dc bf ff
	ff		 lea	 ecx, DWORD PTR _ar$12[ebp]
  000bb	ff 70 18	 push	 DWORD PTR [eax+24]
  000be	e8 00 00 00 00	 call	 ??0CAr@@QAE@PAXI@Z	; CAr::CAr

; 591  : 				BYTE nCont;
; 592  : 				DWORD dwGuildId;
; 593  : 				ar >> nCont >> dwGuildId;

  000c3	8d 85 c0 7f ff
	ff		 lea	 eax, DWORD PTR _dwGuildId$4[ebp]
  000c9	c7 45 fc 00 00
	00 00		 mov	 DWORD PTR __$EHRec$[ebp+8], 0
  000d0	50		 push	 eax
  000d1	8d 85 c4 7f ff
	ff		 lea	 eax, DWORD PTR _nCont$10[ebp]
  000d7	50		 push	 eax
  000d8	8d 8d dc bf ff
	ff		 lea	 ecx, DWORD PTR _ar$12[ebp]
  000de	e8 00 00 00 00	 call	 ??$?5E@CAr@@QAEAAV0@AAE@Z ; CAr::operator>><unsigned char>
  000e3	8b c8		 mov	 ecx, eax
  000e5	e8 00 00 00 00	 call	 ??$?5K@CAr@@QAEAAV0@AAK@Z ; CAr::operator>><unsigned long>

; 594  : 				CTax::GetInstance()->SetNextSecretRoomGuild( nCont, dwGuildId );

  000ea	ff b5 c0 7f ff
	ff		 push	 DWORD PTR _dwGuildId$4[ebp]
  000f0	8b b5 c4 7f ff
	ff		 mov	 esi, DWORD PTR _nCont$10[ebp]
  000f6	56		 push	 esi
  000f7	e8 00 00 00 00	 call	 ?GetInstance@CTax@@SAPAV1@XZ ; CTax::GetInstance
  000fc	8b c8		 mov	 ecx, eax
  000fe	e8 00 00 00 00	 call	 ?SetNextSecretRoomGuild@CTax@@QAEXEK@Z ; CTax::SetNextSecretRoomGuild
$LN23@Handler:

; 643  : 			break;
; 644  : 	}	// switch
; 645  : }

  00103	6a 00		 push	 0
  00105	6a 00		 push	 0
  00107	6a 00		 push	 0
  00109	e8 00 00 00 00	 call	 ?GetInstance@CDPTrans@@SAPAV1@XZ ; CDPTrans::GetInstance
  0010e	8b c8		 mov	 ecx, eax
  00110	e8 00 00 00 00	 call	 ?SendTaxInfo@CDPTrans@@QAEXKHH@Z ; CDPTrans::SendTaxInfo
  00115	56		 push	 esi
  00116	8b cf		 mov	 ecx, edi
  00118	e8 00 00 00 00	 call	 ?UpdateToDB@CTaxDBController@@AAEXE@Z ; CTaxDBController::UpdateToDB
  0011d	8d 8d dc bf ff
	ff		 lea	 ecx, DWORD PTR _ar$12[ebp]
  00123	e9 6a 01 00 00	 jmp	 $LN22@Handler
$LN9@Handler:

; 595  : 				CDPTrans::GetInstance()->SendTaxInfo( DPID_ALLPLAYERS );
; 596  : 				UpdateToDB( nCont );
; 597  : 			}
; 598  : 			break;
; 599  : 		
; 600  : 		case QUERY_TAX_SETNEXT_LORD :
; 601  : 			{
; 602  : 				if( dwCompletionKey == 0 )

  00128	8b 4d 0c	 mov	 ecx, DWORD PTR _dwCompletionKey$[ebp]
  0012b	85 c9		 test	 ecx, ecx
  0012d	75 50		 jne	 SHORT $LN10@Handler

; 603  : 				{
; 604  : 					CAr ar( pov->lpBuf, pov->uBufSize );

  0012f	ff 70 1c	 push	 DWORD PTR [eax+28]
  00132	8d 8d dc bf ff
	ff		 lea	 ecx, DWORD PTR _ar$13[ebp]
  00138	ff 70 18	 push	 DWORD PTR [eax+24]
  0013b	e8 00 00 00 00	 call	 ??0CAr@@QAE@PAXI@Z	; CAr::CAr

; 605  : 					DWORD dwIdPlayer;
; 606  : 					ar >> dwIdPlayer;

  00140	8d 85 c4 7f ff
	ff		 lea	 eax, DWORD PTR _dwIdPlayer$7[ebp]
  00146	c7 45 fc 01 00
	00 00		 mov	 DWORD PTR __$EHRec$[ebp+8], 1
  0014d	50		 push	 eax
  0014e	8d 8d dc bf ff
	ff		 lea	 ecx, DWORD PTR _ar$13[ebp]
  00154	e8 00 00 00 00	 call	 ??$?5K@CAr@@QAEAAV0@AAK@Z ; CAr::operator>><unsigned long>

; 607  : 					CTax::GetInstance()->SetNextLord( dwIdPlayer );

  00159	ff b5 c4 7f ff
	ff		 push	 DWORD PTR _dwIdPlayer$7[ebp]
  0015f	e8 00 00 00 00	 call	 ?GetInstance@CTax@@SAPAV1@XZ ; CTax::GetInstance
  00164	8b c8		 mov	 ecx, eax
  00166	e8 00 00 00 00	 call	 ?SetNextLord@CTax@@QAEXK@Z ; CTax::SetNextLord

; 608  : 				}

  0016b	8d 8d dc bf ff
	ff		 lea	 ecx, DWORD PTR _ar$13[ebp]
  00171	c7 45 fc ff ff
	ff ff		 mov	 DWORD PTR __$EHRec$[ebp+8], -1
  00178	e8 00 00 00 00	 call	 ??1CAr@@QAE@XZ		; CAr::~CAr
  0017d	eb 0d		 jmp	 SHORT $LN11@Handler
$LN10@Handler:

; 609  : 				else
; 610  : 					CTax::GetInstance()->SetNextLord( dwCompletionKey );

  0017f	51		 push	 ecx
  00180	e8 00 00 00 00	 call	 ?GetInstance@CTax@@SAPAV1@XZ ; CTax::GetInstance
  00185	8b c8		 mov	 ecx, eax
  00187	e8 00 00 00 00	 call	 ?SetNextLord@CTax@@QAEXK@Z ; CTax::SetNextLord
$LN11@Handler:

; 611  : 
; 612  : 				CDPTrans::GetInstance()->SendTaxInfo( DPID_ALLPLAYERS );

  0018c	6a 00		 push	 0
  0018e	6a 00		 push	 0
  00190	6a 00		 push	 0
  00192	e8 00 00 00 00	 call	 ?GetInstance@CDPTrans@@SAPAV1@XZ ; CDPTrans::GetInstance
  00197	8b c8		 mov	 ecx, eax
  00199	e8 00 00 00 00	 call	 ?SendTaxInfo@CDPTrans@@QAEXKHH@Z ; CDPTrans::SendTaxInfo

; 613  : 				UpdateToDB( CONT_ALL );

  0019e	68 ff 00 00 00	 push	 255			; 000000ffH
  001a3	8b cf		 mov	 ecx, edi
  001a5	e8 00 00 00 00	 call	 ?UpdateToDB@CTaxDBController@@AAEXE@Z ; CTaxDBController::UpdateToDB

; 614  : 			}
; 615  : 			break;

  001aa	e9 e8 00 00 00	 jmp	 $LN2@Handler
$LN12@Handler:

; 616  : 
; 617  : 		case QUERY_TAX_SETNEXT_TAXRATE :
; 618  : 			{
; 619  : 				CAr ar( pov->lpBuf, pov->uBufSize );

  001af	ff 70 1c	 push	 DWORD PTR [eax+28]
  001b2	8d 8d dc bf ff
	ff		 lea	 ecx, DWORD PTR _ar$14[ebp]
  001b8	ff 70 18	 push	 DWORD PTR [eax+24]
  001bb	e8 00 00 00 00	 call	 ??0CAr@@QAE@PAXI@Z	; CAr::CAr

; 620  : 				BYTE nCont;
; 621  : 				int nSalesTaxRate, nPurchaseTaxRate;
; 622  : 				ar >> nCont;

  001c0	8d 85 bc 7f ff
	ff		 lea	 eax, DWORD PTR _nCont$2[ebp]
  001c6	c7 45 fc 02 00
	00 00		 mov	 DWORD PTR __$EHRec$[ebp+8], 2
  001cd	50		 push	 eax
  001ce	8d 8d dc bf ff
	ff		 lea	 ecx, DWORD PTR _ar$14[ebp]
  001d4	e8 00 00 00 00	 call	 ??$?5E@CAr@@QAEAAV0@AAE@Z ; CAr::operator>><unsigned char>

; 623  : 				ar >> nSalesTaxRate >> nPurchaseTaxRate;

  001d9	8d 85 c4 7f ff
	ff		 lea	 eax, DWORD PTR _nPurchaseTaxRate$8[ebp]
  001df	50		 push	 eax
  001e0	8d 85 c0 7f ff
	ff		 lea	 eax, DWORD PTR _nSalesTaxRate$5[ebp]
  001e6	50		 push	 eax
  001e7	8d 8d dc bf ff
	ff		 lea	 ecx, DWORD PTR _ar$14[ebp]
  001ed	e8 00 00 00 00	 call	 ??$?5H@CAr@@QAEAAV0@AAH@Z ; CAr::operator>><int>
  001f2	8b c8		 mov	 ecx, eax
  001f4	e8 00 00 00 00	 call	 ??$?5H@CAr@@QAEAAV0@AAH@Z ; CAr::operator>><int>

; 624  : 				CTax::GetInstance()->SetNextTaxRate( nCont, nSalesTaxRate, nPurchaseTaxRate );

  001f9	ff b5 c4 7f ff
	ff		 push	 DWORD PTR _nPurchaseTaxRate$8[ebp]
  001ff	8b b5 bc 7f ff
	ff		 mov	 esi, DWORD PTR _nCont$2[ebp]
  00205	ff b5 c0 7f ff
	ff		 push	 DWORD PTR _nSalesTaxRate$5[ebp]
  0020b	56		 push	 esi
  0020c	e8 00 00 00 00	 call	 ?GetInstance@CTax@@SAPAV1@XZ ; CTax::GetInstance
  00211	8b c8		 mov	 ecx, eax
  00213	e8 00 00 00 00	 call	 ?SetNextTaxRate@CTax@@QAEXEHH@Z ; CTax::SetNextTaxRate

; 625  : 				CDPTrans::GetInstance()->SendTaxInfo( DPID_ALLPLAYERS );
; 626  : 				UpdateToDB( nCont );
; 627  : 			}
; 628  : 			break;

  00218	e9 e6 fe ff ff	 jmp	 $LN23@Handler
$LN13@Handler:

; 629  : 
; 630  : 		case QUERY_TAX_ADDTAX :
; 631  : 			{
; 632  : 				CAr ar( pov->lpBuf, pov->uBufSize );

  0021d	ff 70 1c	 push	 DWORD PTR [eax+28]
  00220	8d 8d c8 7f ff
	ff		 lea	 ecx, DWORD PTR _ar$11[ebp]
  00226	ff 70 18	 push	 DWORD PTR [eax+24]
  00229	e8 00 00 00 00	 call	 ??0CAr@@QAE@PAXI@Z	; CAr::CAr

; 633  : 				BYTE nCont, nTaxKind;
; 634  : 				int nTax;
; 635  : 				ar >> nCont >> nTax >> nTaxKind;

  0022e	8d 85 bc 7f ff
	ff		 lea	 eax, DWORD PTR _nTaxKind$3[ebp]
  00234	c7 45 fc 03 00
	00 00		 mov	 DWORD PTR __$EHRec$[ebp+8], 3
  0023b	50		 push	 eax
  0023c	8d 85 c4 7f ff
	ff		 lea	 eax, DWORD PTR _nTax$9[ebp]
  00242	50		 push	 eax
  00243	8d 85 c0 7f ff
	ff		 lea	 eax, DWORD PTR _nCont$6[ebp]
  00249	50		 push	 eax
  0024a	8d 8d c8 7f ff
	ff		 lea	 ecx, DWORD PTR _ar$11[ebp]
  00250	e8 00 00 00 00	 call	 ??$?5E@CAr@@QAEAAV0@AAE@Z ; CAr::operator>><unsigned char>
  00255	8b c8		 mov	 ecx, eax
  00257	e8 00 00 00 00	 call	 ??$?5H@CAr@@QAEAAV0@AAH@Z ; CAr::operator>><int>
  0025c	8b c8		 mov	 ecx, eax
  0025e	e8 00 00 00 00	 call	 ??$?5E@CAr@@QAEAAV0@AAE@Z ; CAr::operator>><unsigned char>

; 636  : 				if( CTax::GetInstance()->AddTax( nCont, nTax, nTaxKind ) )

  00263	ff b5 bc 7f ff
	ff		 push	 DWORD PTR _nTaxKind$3[ebp]
  00269	ff b5 c4 7f ff
	ff		 push	 DWORD PTR _nTax$9[ebp]
  0026f	ff b5 c0 7f ff
	ff		 push	 DWORD PTR _nCont$6[ebp]
  00275	e8 00 00 00 00	 call	 ?GetInstance@CTax@@SAPAV1@XZ ; CTax::GetInstance
  0027a	8b c8		 mov	 ecx, eax
  0027c	e8 00 00 00 00	 call	 ?AddTax@CTax@@QAEHEHE@Z	; CTax::AddTax
  00281	85 c0		 test	 eax, eax
  00283	74 07		 je	 SHORT $LN14@Handler

; 637  : 				{
; 638  :  					//UpdateToDB( nCont );
; 639  :  					//UpdateToDB( CONT_ALL );
; 640  : 					UpdateAllToDB();

  00285	8b cf		 mov	 ecx, edi
  00287	e8 00 00 00 00	 call	 ?UpdateAllToDB@CTaxDBController@@AAEXXZ ; CTaxDBController::UpdateAllToDB
$LN14@Handler:

; 641  : 				}
; 642  : 			}

  0028c	8d 8d c8 7f ff
	ff		 lea	 ecx, DWORD PTR _ar$11[ebp]
$LN22@Handler:

; 643  : 			break;
; 644  : 	}	// switch
; 645  : }

  00292	e8 00 00 00 00	 call	 ??1CAr@@QAE@XZ		; CAr::~CAr
$LN2@Handler:
  00297	8b 4d f4	 mov	 ecx, DWORD PTR __$EHRec$[ebp]
  0029a	64 89 0d 00 00
	00 00		 mov	 DWORD PTR fs:0, ecx
  002a1	59		 pop	 ecx
  002a2	5f		 pop	 edi
  002a3	5e		 pop	 esi
  002a4	8b 4d f0	 mov	 ecx, DWORD PTR __$ArrayPad$[ebp]
  002a7	33 cd		 xor	 ecx, ebp
  002a9	e8 00 00 00 00	 call	 @__security_check_cookie@4
  002ae	8b e5		 mov	 esp, ebp
  002b0	5d		 pop	 ebp
  002b1	c2 08 00	 ret	 8
$LN20@Handler:
  002b4	00 00 00 00	 DD	 $LN4@Handler
  002b8	00 00 00 00	 DD	 $LN6@Handler
  002bc	00 00 00 00	 DD	 $LN7@Handler
  002c0	00 00 00 00	 DD	 $LN8@Handler
  002c4	00 00 00 00	 DD	 $LN9@Handler
  002c8	00 00 00 00	 DD	 $LN12@Handler
  002cc	00 00 00 00	 DD	 $LN13@Handler
_TEXT	ENDS
;	COMDAT text$x
text$x	SEGMENT
__unwindfunclet$?Handler@CTaxDBController@@UAEXPAUtagDB_OVERLAPPED_PLUS@@K@Z$0:
  00000	8d 8d dc bf ff
	ff		 lea	 ecx, DWORD PTR _ar$12[ebp]
  00006	e9 00 00 00 00	 jmp	 ??1CAr@@QAE@XZ		; CAr::~CAr
__unwindfunclet$?Handler@CTaxDBController@@UAEXPAUtagDB_OVERLAPPED_PLUS@@K@Z$1:
  0000b	8d 8d dc bf ff
	ff		 lea	 ecx, DWORD PTR _ar$13[ebp]
  00011	e9 00 00 00 00	 jmp	 ??1CAr@@QAE@XZ		; CAr::~CAr
__unwindfunclet$?Handler@CTaxDBController@@UAEXPAUtagDB_OVERLAPPED_PLUS@@K@Z$2:
  00016	8d 8d dc bf ff
	ff		 lea	 ecx, DWORD PTR _ar$14[ebp]
  0001c	e9 00 00 00 00	 jmp	 ??1CAr@@QAE@XZ		; CAr::~CAr
__unwindfunclet$?Handler@CTaxDBController@@UAEXPAUtagDB_OVERLAPPED_PLUS@@K@Z$3:
  00021	8d 8d c8 7f ff
	ff		 lea	 ecx, DWORD PTR _ar$11[ebp]
  00027	e9 00 00 00 00	 jmp	 ??1CAr@@QAE@XZ		; CAr::~CAr
  0002c	cc		 int	 3
  0002d	cc		 int	 3
  0002e	cc		 int	 3
  0002f	cc		 int	 3
  00030	cc		 int	 3
__ehhandler$?Handler@CTaxDBController@@UAEXPAUtagDB_OVERLAPPED_PLUS@@K@Z:
  00031	90		 npad	 1
  00032	90		 npad	 1
  00033	8b 54 24 08	 mov	 edx, DWORD PTR [esp+8]
  00037	8d 42 0c	 lea	 eax, DWORD PTR [edx+12]
  0003a	8b 8a bc 7f ff
	ff		 mov	 ecx, DWORD PTR [edx-32836]
  00040	33 c8		 xor	 ecx, eax
  00042	e8 00 00 00 00	 call	 @__security_check_cookie@4
  00047	8b 4a fc	 mov	 ecx, DWORD PTR [edx-4]
  0004a	33 c8		 xor	 ecx, eax
  0004c	e8 00 00 00 00	 call	 @__security_check_cookie@4
  00051	b8 00 00 00 00	 mov	 eax, OFFSET __ehfuncinfo$?Handler@CTaxDBController@@UAEXPAUtagDB_OVERLAPPED_PLUS@@K@Z
  00056	e9 00 00 00 00	 jmp	 ___CxxFrameHandler3
text$x	ENDS
?Handler@CTaxDBController@@UAEXPAUtagDB_OVERLAPPED_PLUS@@K@Z ENDP ; CTaxDBController::Handler
; Function compile flags: /Ogtp
; File C:\IAGOS\server\v18\Source\Source\_Common\Tax.cpp
;	COMDAT ??1CTaxDBController@@UAE@XZ
_TEXT	SEGMENT
??1CTaxDBController@@UAE@XZ PROC			; CTaxDBController::~CTaxDBController, COMDAT
; _this$ = ecx

; 554  : {

  00000	c7 01 00 00 00
	00		 mov	 DWORD PTR [ecx], OFFSET ??_7CTaxDBController@@6B@

; 555  : }

  00006	e9 00 00 00 00	 jmp	 ??1CDbController@@UAE@XZ ; CDbController::~CDbController
??1CTaxDBController@@UAE@XZ ENDP			; CTaxDBController::~CTaxDBController
_TEXT	ENDS
; Function compile flags: /Ogtp
; File C:\IAGOS\server\v18\Source\Source\_Common\Tax.cpp
;	COMDAT ??0CTaxDBController@@QAE@XZ
_TEXT	SEGMENT
_this$ = -4						; size = 4
??0CTaxDBController@@QAE@XZ PROC			; CTaxDBController::CTaxDBController, COMDAT
; _this$ = ecx

; 550  : {

  00000	55		 push	 ebp
  00001	8b ec		 mov	 ebp, esp
  00003	51		 push	 ecx
  00004	56		 push	 esi
  00005	8b f1		 mov	 esi, ecx
  00007	89 75 fc	 mov	 DWORD PTR _this$[ebp], esi
  0000a	e8 00 00 00 00	 call	 ??0CDbController@@QAE@XZ ; CDbController::CDbController
  0000f	c7 06 00 00 00
	00		 mov	 DWORD PTR [esi], OFFSET ??_7CTaxDBController@@6B@

; 551  : }

  00015	8b c6		 mov	 eax, esi
  00017	c7 46 14 00 00
	00 00		 mov	 DWORD PTR [esi+20], 0
  0001e	c7 46 18 00 00
	00 00		 mov	 DWORD PTR [esi+24], 0
  00025	5e		 pop	 esi
  00026	8b e5		 mov	 esp, ebp
  00028	5d		 pop	 ebp
  00029	c3		 ret	 0
??0CTaxDBController@@QAE@XZ ENDP			; CTaxDBController::CTaxDBController
_TEXT	ENDS
; Function compile flags: /Ogtp
; File C:\Program Files\Microsoft Visual Studio\2022\Professional\VC\Tools\MSVC\14.44.35207\include\xmemory
;	COMDAT ??$_Allocate_manually_vector_aligned@U_Default_allocate_traits@std@@@std@@YAPAXI@Z
_TEXT	SEGMENT
__Bytes$ = 8						; size = 4
??$_Allocate_manually_vector_aligned@U_Default_allocate_traits@std@@@std@@YAPAXI@Z PROC ; std::_Allocate_manually_vector_aligned<std::_Default_allocate_traits>, COMDAT

; 182  : __declspec(allocator) void* _Allocate_manually_vector_aligned(const size_t _Bytes) {

  00000	55		 push	 ebp
  00001	8b ec		 mov	 ebp, esp

; 183  :     // allocate _Bytes manually aligned to at least _Big_allocation_alignment
; 184  :     const size_t _Block_size = _Non_user_size + _Bytes;

  00003	8b 45 08	 mov	 eax, DWORD PTR __Bytes$[ebp]
  00006	8d 48 23	 lea	 ecx, DWORD PTR [eax+35]

; 185  :     if (_Block_size <= _Bytes) {

  00009	3b c8		 cmp	 ecx, eax
  0000b	0f 86 00 00 00
	00		 jbe	 ?_Throw_bad_array_new_length@std@@YAXXZ ; std::_Throw_bad_array_new_length

; 136  :         return ::operator new(_Bytes);

  00011	51		 push	 ecx
  00012	e8 00 00 00 00	 call	 ??2@YAPAXI@Z		; operator new

; 186  :         _Throw_bad_array_new_length(); // add overflow
; 187  :     }
; 188  : 
; 189  :     const uintptr_t _Ptr_container = reinterpret_cast<uintptr_t>(_Traits::_Allocate(_Block_size));

  00017	8b c8		 mov	 ecx, eax

; 136  :         return ::operator new(_Bytes);

  00019	83 c4 04	 add	 esp, 4

; 190  :     _STL_VERIFY(_Ptr_container != 0, "invalid argument"); // validate even in release since we're doing p[-1]

  0001c	85 c9		 test	 ecx, ecx
  0001e	74 0b		 je	 SHORT $LN9@Allocate_m

; 191  :     void* const _Ptr = reinterpret_cast<void*>((_Ptr_container + _Non_user_size) & ~(_Big_allocation_alignment - 1));

  00020	8d 41 23	 lea	 eax, DWORD PTR [ecx+35]
  00023	83 e0 e0	 and	 eax, -32		; ffffffe0H

; 192  :     static_cast<uintptr_t*>(_Ptr)[-1] = _Ptr_container;

  00026	89 48 fc	 mov	 DWORD PTR [eax-4], ecx

; 193  : 
; 194  : #ifdef _DEBUG
; 195  :     static_cast<uintptr_t*>(_Ptr)[-2] = _Big_allocation_sentinel;
; 196  : #endif // defined(_DEBUG)
; 197  :     return _Ptr;
; 198  : }

  00029	5d		 pop	 ebp
  0002a	c3		 ret	 0
$LN9@Allocate_m:

; 190  :     _STL_VERIFY(_Ptr_container != 0, "invalid argument"); // validate even in release since we're doing p[-1]

  0002b	6a 00		 push	 0
  0002d	6a 00		 push	 0
  0002f	6a 00		 push	 0
  00031	6a 00		 push	 0
  00033	6a 00		 push	 0
  00035	e8 00 00 00 00	 call	 __invoke_watson
$LN7@Allocate_m:
  0003a	cc		 int	 3
??$_Allocate_manually_vector_aligned@U_Default_allocate_traits@std@@@std@@YAPAXI@Z ENDP ; std::_Allocate_manually_vector_aligned<std::_Default_allocate_traits>
_TEXT	ENDS
; Function compile flags: /Ogtp
; File C:\Program Files\Microsoft Visual Studio\2022\Professional\VC\Tools\MSVC\14.44.35207\include\vector
;	COMDAT ?_Xlength@?$vector@KV?$allocator@K@std@@@std@@CAXXZ
_TEXT	SEGMENT
?_Xlength@?$vector@KV?$allocator@K@std@@@std@@CAXXZ PROC ; std::vector<unsigned long,std::allocator<unsigned long> >::_Xlength, COMDAT

; 2184 :         _Xlength_error("vector too long");

  00000	68 00 00 00 00	 push	 OFFSET ??_C@_0BA@FOIKENOD@vector?5too?5long@
  00005	e8 00 00 00 00	 call	 ?_Xlength_error@std@@YAXPBD@Z ; std::_Xlength_error
$LN3@Xlength:
  0000a	cc		 int	 3
?_Xlength@?$vector@KV?$allocator@K@std@@@std@@CAXXZ ENDP ; std::vector<unsigned long,std::allocator<unsigned long> >::_Xlength
_TEXT	ENDS
; Function compile flags: /Ogtp
; File C:\Program Files\Microsoft Visual Studio\2022\Professional\VC\Tools\MSVC\14.44.35207\include\vector
; File C:\Program Files\Microsoft Visual Studio\2022\Professional\VC\Tools\MSVC\14.44.35207\include\xmemory
; File C:\Program Files\Microsoft Visual Studio\2022\Professional\VC\Tools\MSVC\14.44.35207\include\vector
; File C:\Program Files\Microsoft Visual Studio\2022\Professional\VC\Tools\MSVC\14.44.35207\include\xmemory
; File C:\Program Files\Microsoft Visual Studio\2022\Professional\VC\Tools\MSVC\14.44.35207\include\vector
; File C:\Program Files\Microsoft Visual Studio\2022\Professional\VC\Tools\MSVC\14.44.35207\include\xmemory
; File C:\Program Files\Microsoft Visual Studio\2022\Professional\VC\Tools\MSVC\14.44.35207\include\vector
;	COMDAT ??1?$vector@KV?$allocator@K@std@@@std@@QAE@XZ
_TEXT	SEGMENT
??1?$vector@KV?$allocator@K@std@@@std@@QAE@XZ PROC	; std::vector<unsigned long,std::allocator<unsigned long> >::~vector<unsigned long,std::allocator<unsigned long> >, COMDAT
; _this$ = ecx

; 829  :     _CONSTEXPR20 ~vector() noexcept {

  00000	56		 push	 esi
  00001	8b f1		 mov	 esi, ecx

; 2090 :         if (_Myfirst) { // destroy and deallocate old array

  00003	8b 06		 mov	 eax, DWORD PTR [esi]
  00005	85 c0		 test	 eax, eax
  00007	74 40		 je	 SHORT $LN5@vector

; 2091 :             _STD _Destroy_range(_Myfirst, _Mylast, _Al);
; 2092 :             _ASAN_VECTOR_REMOVE;
; 2093 :             _Al.deallocate(_Myfirst, static_cast<size_type>(_Myend - _Myfirst));

  00009	8b 4e 08	 mov	 ecx, DWORD PTR [esi+8]
  0000c	2b c8		 sub	 ecx, eax
; File C:\Program Files\Microsoft Visual Studio\2022\Professional\VC\Tools\MSVC\14.44.35207\include\xmemory

; 985  :         _STD _Deallocate<_New_alignof<_Ty>>(_Ptr, sizeof(_Ty) * _Count);

  0000e	83 e1 fc	 and	 ecx, -4			; fffffffcH

; 284  :         if (_Bytes >= _Big_allocation_threshold) {

  00011	81 f9 00 10 00
	00		 cmp	 ecx, 4096		; 00001000H
  00017	72 12		 jb	 SHORT $LN18@vector

; 205  :     const uintptr_t _Ptr_container   = _Ptr_user[-1];

  00019	8b 50 fc	 mov	 edx, DWORD PTR [eax-4]
  0001c	83 c1 23	 add	 ecx, 35			; 00000023H

; 206  : 
; 207  :     // If the following asserts, it likely means that we are performing
; 208  :     // an aligned delete on memory coming from an unaligned allocation.
; 209  :     _STL_ASSERT(_Ptr_user[-2] == _Big_allocation_sentinel, "invalid argument");
; 210  : 
; 211  :     // Extra paranoia on aligned allocation/deallocation; ensure _Ptr_container is
; 212  :     // in range [_Min_back_shift, _Non_user_size]
; 213  : #ifdef _DEBUG
; 214  :     constexpr uintptr_t _Min_back_shift = 2 * sizeof(void*);
; 215  : #else // ^^^ defined(_DEBUG) / !defined(_DEBUG) vvv
; 216  :     constexpr uintptr_t _Min_back_shift = sizeof(void*);
; 217  : #endif // ^^^ !defined(_DEBUG) ^^^
; 218  :     const uintptr_t _Back_shift = reinterpret_cast<uintptr_t>(_Ptr) - _Ptr_container;

  0001f	2b c2		 sub	 eax, edx

; 219  :     _STL_VERIFY(_Back_shift >= _Min_back_shift && _Back_shift <= _Non_user_size, "invalid argument");

  00021	83 c0 fc	 add	 eax, -4			; fffffffcH
  00024	83 f8 1f	 cmp	 eax, 31			; 0000001fH
  00027	77 22		 ja	 SHORT $LN17@vector

; 220  :     _Ptr = reinterpret_cast<void*>(_Ptr_container);

  00029	8b c2		 mov	 eax, edx
$LN18@vector:

; 289  :         ::operator delete(_Ptr, _Bytes);

  0002b	51		 push	 ecx
  0002c	50		 push	 eax
  0002d	e8 00 00 00 00	 call	 ??3@YAXPAXI@Z		; operator delete
; File C:\Program Files\Microsoft Visual Studio\2022\Professional\VC\Tools\MSVC\14.44.35207\include\vector

; 2095 :             _Myfirst = nullptr;

  00032	c7 06 00 00 00
	00		 mov	 DWORD PTR [esi], 0
; File C:\Program Files\Microsoft Visual Studio\2022\Professional\VC\Tools\MSVC\14.44.35207\include\xmemory

; 289  :         ::operator delete(_Ptr, _Bytes);

  00038	83 c4 08	 add	 esp, 8
; File C:\Program Files\Microsoft Visual Studio\2022\Professional\VC\Tools\MSVC\14.44.35207\include\vector

; 2096 :             _Mylast  = nullptr;

  0003b	c7 46 04 00 00
	00 00		 mov	 DWORD PTR [esi+4], 0

; 2097 :             _Myend   = nullptr;

  00042	c7 46 08 00 00
	00 00		 mov	 DWORD PTR [esi+8], 0
$LN5@vector:
  00049	5e		 pop	 esi

; 835  :     }

  0004a	c3		 ret	 0
$LN17@vector:
; File C:\Program Files\Microsoft Visual Studio\2022\Professional\VC\Tools\MSVC\14.44.35207\include\xmemory

; 219  :     _STL_VERIFY(_Back_shift >= _Min_back_shift && _Back_shift <= _Non_user_size, "invalid argument");

  0004b	6a 00		 push	 0
  0004d	6a 00		 push	 0
  0004f	6a 00		 push	 0
  00051	6a 00		 push	 0
  00053	6a 00		 push	 0
  00055	e8 00 00 00 00	 call	 __invoke_watson
$LN26@vector:
  0005a	cc		 int	 3
??1?$vector@KV?$allocator@K@std@@@std@@QAE@XZ ENDP	; std::vector<unsigned long,std::allocator<unsigned long> >::~vector<unsigned long,std::allocator<unsigned long> >
_TEXT	ENDS
; Function compile flags: /Ogtp
; File C:\Program Files\Microsoft Visual Studio\2022\Professional\VC\Tools\MSVC\14.44.35207\include\xtree
;	COMDAT ?_Throw_tree_length_error@std@@YAXXZ
_TEXT	SEGMENT
?_Throw_tree_length_error@std@@YAXXZ PROC		; std::_Throw_tree_length_error, COMDAT

; 417  :     _Xlength_error("map/set too long");

  00000	68 00 00 00 00	 push	 OFFSET ??_C@_0BB@GCADKGJO@map?1set?5too?5long@
  00005	e8 00 00 00 00	 call	 ?_Xlength_error@std@@YAXPBD@Z ; std::_Xlength_error
$LN3@Throw_tree:
  0000a	cc		 int	 3
?_Throw_tree_length_error@std@@YAXXZ ENDP		; std::_Throw_tree_length_error
_TEXT	ENDS
; Function compile flags: /Ogtp
; File C:\Program Files\Microsoft Visual Studio\2022\Professional\VC\Tools\MSVC\14.44.35207\include\xstring
; File C:\Program Files\Microsoft Visual Studio\2022\Professional\VC\Tools\MSVC\14.44.35207\include\__msvc_string_view.hpp
; File C:\Program Files\Microsoft Visual Studio\2022\Professional\VC\Tools\MSVC\14.44.35207\include\xstring
; File C:\Program Files\Microsoft Visual Studio\2022\Professional\VC\Tools\MSVC\14.44.35207\include\__msvc_string_view.hpp
; File C:\Program Files\Microsoft Visual Studio\2022\Professional\VC\Tools\MSVC\14.44.35207\include\xstring
; File C:\Program Files\Microsoft Visual Studio\2022\Professional\VC\Tools\MSVC\14.44.35207\include\__msvc_string_view.hpp
; File C:\Program Files\Microsoft Visual Studio\2022\Professional\VC\Tools\MSVC\14.44.35207\include\xstring
; File C:\Program Files\Microsoft Visual Studio\2022\Professional\VC\Tools\MSVC\14.44.35207\include\__msvc_string_view.hpp
; File C:\Program Files\Microsoft Visual Studio\2022\Professional\VC\Tools\MSVC\14.44.35207\include\xstring
; File C:\Program Files\Microsoft Visual Studio\2022\Professional\VC\Tools\MSVC\14.44.35207\include\__msvc_string_view.hpp
; File C:\Program Files\Microsoft Visual Studio\2022\Professional\VC\Tools\MSVC\14.44.35207\include\xstring
; File C:\Program Files\Microsoft Visual Studio\2022\Professional\VC\Tools\MSVC\14.44.35207\include\xmemory
; File C:\Program Files\Microsoft Visual Studio\2022\Professional\VC\Tools\MSVC\14.44.35207\include\xstring
; File C:\Program Files\Microsoft Visual Studio\2022\Professional\VC\Tools\MSVC\14.44.35207\include\xmemory
; File C:\Program Files\Microsoft Visual Studio\2022\Professional\VC\Tools\MSVC\14.44.35207\include\xstring
; File C:\Program Files\Microsoft Visual Studio\2022\Professional\VC\Tools\MSVC\14.44.35207\include\xmemory
; File C:\Program Files\Microsoft Visual Studio\2022\Professional\VC\Tools\MSVC\14.44.35207\include\xstring
; File C:\Program Files\Microsoft Visual Studio\2022\Professional\VC\Tools\MSVC\14.44.35207\include\__msvc_string_view.hpp
; File C:\Program Files\Microsoft Visual Studio\2022\Professional\VC\Tools\MSVC\14.44.35207\include\xstring
; File C:\Program Files\Microsoft Visual Studio\2022\Professional\VC\Tools\MSVC\14.44.35207\include\__msvc_string_view.hpp
; File C:\Program Files\Microsoft Visual Studio\2022\Professional\VC\Tools\MSVC\14.44.35207\include\xstring
; File C:\Program Files\Microsoft Visual Studio\2022\Professional\VC\Tools\MSVC\14.44.35207\include\__msvc_string_view.hpp
; File C:\Program Files\Microsoft Visual Studio\2022\Professional\VC\Tools\MSVC\14.44.35207\include\xstring
; File C:\Program Files\Microsoft Visual Studio\2022\Professional\VC\Tools\MSVC\14.44.35207\include\__msvc_string_view.hpp
; File C:\Program Files\Microsoft Visual Studio\2022\Professional\VC\Tools\MSVC\14.44.35207\include\xstring
; File C:\Program Files\Microsoft Visual Studio\2022\Professional\VC\Tools\MSVC\14.44.35207\include\xmemory
; File C:\Program Files\Microsoft Visual Studio\2022\Professional\VC\Tools\MSVC\14.44.35207\include\xstring
; File C:\Program Files\Microsoft Visual Studio\2022\Professional\VC\Tools\MSVC\14.44.35207\include\xmemory
; File C:\Program Files\Microsoft Visual Studio\2022\Professional\VC\Tools\MSVC\14.44.35207\include\xstring
;	COMDAT ??4?$basic_string@DU?$char_traits@D@std@@V?$allocator@D@2@@std@@QAEAAV01@QBD@Z
_TEXT	SEGMENT
__Old$1$ = -8						; size = 4
$T1 = -4						; size = 4
__Ptr$ = 8						; size = 4
??4?$basic_string@DU?$char_traits@D@std@@V?$allocator@D@2@@std@@QAEAAV01@QBD@Z PROC ; std::basic_string<char,std::char_traits<char>,std::allocator<char> >::operator=, COMDAT
; _this$ = ecx

; 1445 :     _CONSTEXPR20 basic_string& operator=(_In_z_ const _Elem* const _Ptr) {

  00000	55		 push	 ebp
  00001	8b ec		 mov	 ebp, esp
; File C:\Program Files\Microsoft Visual Studio\2022\Professional\VC\Tools\MSVC\14.44.35207\include\__msvc_string_view.hpp

; 459  :         return _CSTD strlen(reinterpret_cast<const char*>(_First));

  00003	8b 55 08	 mov	 edx, DWORD PTR __Ptr$[ebp]
; File C:\Program Files\Microsoft Visual Studio\2022\Professional\VC\Tools\MSVC\14.44.35207\include\xstring

; 1445 :     _CONSTEXPR20 basic_string& operator=(_In_z_ const _Elem* const _Ptr) {

  00006	83 ec 08	 sub	 esp, 8
  00009	53		 push	 ebx
  0000a	56		 push	 esi
; File C:\Program Files\Microsoft Visual Studio\2022\Professional\VC\Tools\MSVC\14.44.35207\include\__msvc_string_view.hpp

; 459  :         return _CSTD strlen(reinterpret_cast<const char*>(_First));

  0000b	8b f2		 mov	 esi, edx
; File C:\Program Files\Microsoft Visual Studio\2022\Professional\VC\Tools\MSVC\14.44.35207\include\xstring

; 1445 :     _CONSTEXPR20 basic_string& operator=(_In_z_ const _Elem* const _Ptr) {

  0000d	57		 push	 edi
  0000e	8b f9		 mov	 edi, ecx
; File C:\Program Files\Microsoft Visual Studio\2022\Professional\VC\Tools\MSVC\14.44.35207\include\__msvc_string_view.hpp

; 459  :         return _CSTD strlen(reinterpret_cast<const char*>(_First));

  00010	8d 4e 01	 lea	 ecx, DWORD PTR [esi+1]
$LL76@operator:
  00013	8a 06		 mov	 al, BYTE PTR [esi]
  00015	46		 inc	 esi
  00016	84 c0		 test	 al, al
  00018	75 f9		 jne	 SHORT $LL76@operator
  0001a	2b f1		 sub	 esi, ecx
; File C:\Program Files\Microsoft Visual Studio\2022\Professional\VC\Tools\MSVC\14.44.35207\include\xstring

; 1618 :         if (_Count <= _Mypair._Myval2._Myres) {

  0001c	8b 4f 14	 mov	 ecx, DWORD PTR [edi+20]
  0001f	89 4d f8	 mov	 DWORD PTR __Old$1$[ebp], ecx
  00022	3b f1		 cmp	 esi, ecx
  00024	77 26		 ja	 SHORT $LN9@operator

; 435  :         value_type* _Result = _Bx._Buf;

  00026	8b df		 mov	 ebx, edi

; 453  :         return _Myres > _Small_string_capacity;

  00028	83 f9 0f	 cmp	 ecx, 15			; 0000000fH

; 436  :         if (_Large_mode_engaged()) {

  0002b	76 02		 jbe	 SHORT $LN12@operator

; 437  :             _Result = _Unfancy(_Bx._Ptr);

  0002d	8b 1f		 mov	 ebx, DWORD PTR [edi]
$LN12@operator:
; File C:\Program Files\Microsoft Visual Studio\2022\Professional\VC\Tools\MSVC\14.44.35207\include\__msvc_string_view.hpp

; 174  :         _CSTD memmove(_First1, _First2, _Count * sizeof(_Elem));

  0002f	56		 push	 esi
  00030	52		 push	 edx
  00031	53		 push	 ebx
; File C:\Program Files\Microsoft Visual Studio\2022\Professional\VC\Tools\MSVC\14.44.35207\include\xstring

; 1621 :             _Mypair._Myval2._Mysize = _Count;

  00032	89 77 10	 mov	 DWORD PTR [edi+16], esi
; File C:\Program Files\Microsoft Visual Studio\2022\Professional\VC\Tools\MSVC\14.44.35207\include\__msvc_string_view.hpp

; 174  :         _CSTD memmove(_First1, _First2, _Count * sizeof(_Elem));

  00035	e8 00 00 00 00	 call	 _memmove
  0003a	83 c4 0c	 add	 esp, 12			; 0000000cH
; File C:\Program Files\Microsoft Visual Studio\2022\Professional\VC\Tools\MSVC\14.44.35207\include\xstring

; 1623 :             _Traits::assign(_Old_ptr[_Count], _Elem());

  0003d	c6 04 33 00	 mov	 BYTE PTR [ebx+esi], 0

; 1446 :         return assign(_Ptr);

  00041	8b c7		 mov	 eax, edi

; 1447 :     }

  00043	5f		 pop	 edi
  00044	5e		 pop	 esi
  00045	5b		 pop	 ebx
  00046	8b e5		 mov	 esp, ebp
  00048	5d		 pop	 ebp
  00049	c2 04 00	 ret	 4
$LN9@operator:

; 2998 :         if (_New_size > max_size()) {

  0004c	81 fe ff ff ff
	7f		 cmp	 esi, 2147483647		; 7fffffffH
  00052	0f 87 d1 00 00
	00		 ja	 $LN91@operator

; 2978 :         const size_type _Masked = _Requested | _Alloc_mask;

  00058	8b de		 mov	 ebx, esi
  0005a	83 cb 0f	 or	 ebx, 15			; 0000000fH
  0005d	81 fb ff ff ff
	7f		 cmp	 ebx, 2147483647		; 7fffffffH

; 2979 :         if (_Masked > _Max) { // the mask overflows, settle for max_size()

  00063	76 12		 jbe	 SHORT $LN30@operator

; 2980 :             return _Max;

  00065	b8 00 00 00 80	 mov	 eax, -2147483648	; 80000000H
  0006a	bb ff ff ff 7f	 mov	 ebx, 2147483647		; 7fffffffH
; File C:\Program Files\Microsoft Visual Studio\2022\Professional\VC\Tools\MSVC\14.44.35207\include\xmemory

; 253  :             return _Allocate_manually_vector_aligned<_Traits>(_Bytes);

  0006f	50		 push	 eax
  00070	e8 00 00 00 00	 call	 ??$_Allocate_manually_vector_aligned@U_Default_allocate_traits@std@@@std@@YAPAXI@Z ; std::_Allocate_manually_vector_aligned<std::_Default_allocate_traits>
  00075	eb 45		 jmp	 SHORT $LN89@operator
$LN30@operator:
; File C:\Program Files\Microsoft Visual Studio\2022\Professional\VC\Tools\MSVC\14.44.35207\include\xstring

; 2983 :         if (_Old > _Max - _Old / 2) { // similarly, geometric overflows

  00077	8b d1		 mov	 edx, ecx
  00079	b8 ff ff ff 7f	 mov	 eax, 2147483647		; 7fffffffH
  0007e	d1 ea		 shr	 edx, 1
  00080	2b c2		 sub	 eax, edx
  00082	3b c8		 cmp	 ecx, eax
  00084	76 12		 jbe	 SHORT $LN31@operator

; 2984 :             return _Max;

  00086	b8 00 00 00 80	 mov	 eax, -2147483648	; 80000000H
  0008b	bb ff ff ff 7f	 mov	 ebx, 2147483647		; 7fffffffH
; File C:\Program Files\Microsoft Visual Studio\2022\Professional\VC\Tools\MSVC\14.44.35207\include\xmemory

; 253  :             return _Allocate_manually_vector_aligned<_Traits>(_Bytes);

  00090	50		 push	 eax
  00091	e8 00 00 00 00	 call	 ??$_Allocate_manually_vector_aligned@U_Default_allocate_traits@std@@@std@@YAPAXI@Z ; std::_Allocate_manually_vector_aligned<std::_Default_allocate_traits>
  00096	eb 24		 jmp	 SHORT $LN89@operator
$LN31@operator:
; File C:\Program Files\Microsoft Visual Studio\2022\Professional\VC\Tools\MSVC\14.44.35207\include\xstring

; 2987 :         return (_STD max)(_Masked, _Old + _Old / 2);

  00098	8d 04 0a	 lea	 eax, DWORD PTR [edx+ecx]
  0009b	3b d8		 cmp	 ebx, eax
  0009d	0f 42 d8	 cmovb	 ebx, eax

; 825  :         ++_Capacity; // Take null terminator into consideration

  000a0	8d 43 01	 lea	 eax, DWORD PTR [ebx+1]
; File C:\Program Files\Microsoft Visual Studio\2022\Professional\VC\Tools\MSVC\14.44.35207\include\xmemory

; 227  :     if (_Bytes == 0) {

  000a3	85 c0		 test	 eax, eax
  000a5	74 18		 je	 SHORT $LN88@operator
$LN44@operator:

; 228  :         return nullptr;
; 229  :     }
; 230  : 
; 231  : #if _HAS_CXX20 // TRANSITION, GH-1532
; 232  :     if (_STD is_constant_evaluated()) {
; 233  :         return _Traits::_Allocate(_Bytes);
; 234  :     }
; 235  : #endif // _HAS_CXX20
; 236  : 
; 237  : #ifdef __cpp_aligned_new
; 238  :     if constexpr (_Align > __STDCPP_DEFAULT_NEW_ALIGNMENT__) {
; 239  :         size_t _Passed_align = _Align;
; 240  : #if defined(_M_IX86) || defined(_M_X64)
; 241  :         if (_Bytes >= _Big_allocation_threshold) {
; 242  :             // boost the alignment of big allocations to help autovectorization
; 243  :             _Passed_align = (_STD max)(_Align, _Big_allocation_alignment);
; 244  :         }
; 245  : #endif // defined(_M_IX86) || defined(_M_X64)
; 246  :         return _Traits::_Allocate_aligned(_Bytes, _Passed_align);
; 247  :     } else
; 248  : #endif // defined(__cpp_aligned_new)
; 249  :     {
; 250  : #if defined(_M_IX86) || defined(_M_X64)
; 251  :         if (_Bytes >= _Big_allocation_threshold) {

  000a7	3d 00 10 00 00	 cmp	 eax, 4096		; 00001000H
  000ac	72 08		 jb	 SHORT $LN45@operator

; 253  :             return _Allocate_manually_vector_aligned<_Traits>(_Bytes);

  000ae	50		 push	 eax
  000af	e8 00 00 00 00	 call	 ??$_Allocate_manually_vector_aligned@U_Default_allocate_traits@std@@@std@@YAPAXI@Z ; std::_Allocate_manually_vector_aligned<std::_Default_allocate_traits>
  000b4	eb 06		 jmp	 SHORT $LN89@operator
$LN45@operator:

; 136  :         return ::operator new(_Bytes);

  000b6	50		 push	 eax
  000b7	e8 00 00 00 00	 call	 ??2@YAPAXI@Z		; operator new
$LN89@operator:
; File C:\Program Files\Microsoft Visual Studio\2022\Professional\VC\Tools\MSVC\14.44.35207\include\xstring

; 3009 :         _Mypair._Myval2._Mysize = _New_size;

  000bc	83 c4 04	 add	 esp, 4
$LN88@operator:
; File C:\Program Files\Microsoft Visual Studio\2022\Professional\VC\Tools\MSVC\14.44.35207\include\__msvc_string_view.hpp

; 121  :         _CSTD memcpy(_First1, _First2, _Count * sizeof(_Elem));

  000bf	56		 push	 esi
  000c0	ff 75 08	 push	 DWORD PTR __Ptr$[ebp]
; File C:\Program Files\Microsoft Visual Studio\2022\Professional\VC\Tools\MSVC\14.44.35207\include\xstring

; 3009 :         _Mypair._Myval2._Mysize = _New_size;

  000c3	89 45 fc	 mov	 DWORD PTR $T1[ebp], eax
; File C:\Program Files\Microsoft Visual Studio\2022\Professional\VC\Tools\MSVC\14.44.35207\include\__msvc_string_view.hpp

; 121  :         _CSTD memcpy(_First1, _First2, _Count * sizeof(_Elem));

  000c6	50		 push	 eax
; File C:\Program Files\Microsoft Visual Studio\2022\Professional\VC\Tools\MSVC\14.44.35207\include\xstring

; 3009 :         _Mypair._Myval2._Mysize = _New_size;

  000c7	89 77 10	 mov	 DWORD PTR [edi+16], esi

; 3010 :         _Mypair._Myval2._Myres  = _New_capacity;

  000ca	89 5f 14	 mov	 DWORD PTR [edi+20], ebx
; File C:\Program Files\Microsoft Visual Studio\2022\Professional\VC\Tools\MSVC\14.44.35207\include\__msvc_string_view.hpp

; 121  :         _CSTD memcpy(_First1, _First2, _Count * sizeof(_Elem));

  000cd	e8 00 00 00 00	 call	 _memcpy
; File C:\Program Files\Microsoft Visual Studio\2022\Professional\VC\Tools\MSVC\14.44.35207\include\xstring

; 1632 :                 _Traits::assign(_New_ptr[_Count], _Elem());

  000d2	8b 5d fc	 mov	 ebx, DWORD PTR $T1[ebp]
; File C:\Program Files\Microsoft Visual Studio\2022\Professional\VC\Tools\MSVC\14.44.35207\include\__msvc_string_view.hpp

; 121  :         _CSTD memcpy(_First1, _First2, _Count * sizeof(_Elem));

  000d5	83 c4 0c	 add	 esp, 12			; 0000000cH
; File C:\Program Files\Microsoft Visual Studio\2022\Professional\VC\Tools\MSVC\14.44.35207\include\xstring

; 3012 :         if (_Old_capacity > _Small_string_capacity) {

  000d8	8b 45 f8	 mov	 eax, DWORD PTR __Old$1$[ebp]

; 1632 :                 _Traits::assign(_New_ptr[_Count], _Elem());

  000db	c6 04 33 00	 mov	 BYTE PTR [ebx+esi], 0

; 3012 :         if (_Old_capacity > _Small_string_capacity) {

  000df	83 f8 0f	 cmp	 eax, 15			; 0000000fH
  000e2	76 29		 jbe	 SHORT $LN23@operator

; 852  :         _Al.deallocate(_Old_ptr, _Capacity + 1); // +1 for null terminator

  000e4	8d 48 01	 lea	 ecx, DWORD PTR [eax+1]
; File C:\Program Files\Microsoft Visual Studio\2022\Professional\VC\Tools\MSVC\14.44.35207\include\xmemory

; 985  :         _STD _Deallocate<_New_alignof<_Ty>>(_Ptr, sizeof(_Ty) * _Count);

  000e7	8b 07		 mov	 eax, DWORD PTR [edi]

; 284  :         if (_Bytes >= _Big_allocation_threshold) {

  000e9	81 f9 00 10 00
	00		 cmp	 ecx, 4096		; 00001000H
  000ef	72 12		 jb	 SHORT $LN67@operator

; 205  :     const uintptr_t _Ptr_container   = _Ptr_user[-1];

  000f1	8b 50 fc	 mov	 edx, DWORD PTR [eax-4]
  000f4	83 c1 23	 add	 ecx, 35			; 00000023H

; 206  : 
; 207  :     // If the following asserts, it likely means that we are performing
; 208  :     // an aligned delete on memory coming from an unaligned allocation.
; 209  :     _STL_ASSERT(_Ptr_user[-2] == _Big_allocation_sentinel, "invalid argument");
; 210  : 
; 211  :     // Extra paranoia on aligned allocation/deallocation; ensure _Ptr_container is
; 212  :     // in range [_Min_back_shift, _Non_user_size]
; 213  : #ifdef _DEBUG
; 214  :     constexpr uintptr_t _Min_back_shift = 2 * sizeof(void*);
; 215  : #else // ^^^ defined(_DEBUG) / !defined(_DEBUG) vvv
; 216  :     constexpr uintptr_t _Min_back_shift = sizeof(void*);
; 217  : #endif // ^^^ !defined(_DEBUG) ^^^
; 218  :     const uintptr_t _Back_shift = reinterpret_cast<uintptr_t>(_Ptr) - _Ptr_container;

  000f7	2b c2		 sub	 eax, edx

; 219  :     _STL_VERIFY(_Back_shift >= _Min_back_shift && _Back_shift <= _Non_user_size, "invalid argument");

  000f9	83 c0 fc	 add	 eax, -4			; fffffffcH
  000fc	83 f8 1f	 cmp	 eax, 31			; 0000001fH
  000ff	77 19		 ja	 SHORT $LN66@operator

; 220  :     _Ptr = reinterpret_cast<void*>(_Ptr_container);

  00101	8b c2		 mov	 eax, edx
$LN67@operator:

; 289  :         ::operator delete(_Ptr, _Bytes);

  00103	51		 push	 ecx
  00104	50		 push	 eax
  00105	e8 00 00 00 00	 call	 ??3@YAXPAXI@Z		; operator delete
  0010a	83 c4 08	 add	 esp, 8
$LN23@operator:
; File C:\Program Files\Microsoft Visual Studio\2022\Professional\VC\Tools\MSVC\14.44.35207\include\xstring

; 1628 :         return _Reallocate_for(

  0010d	89 1f		 mov	 DWORD PTR [edi], ebx

; 1446 :         return assign(_Ptr);

  0010f	8b c7		 mov	 eax, edi

; 1447 :     }

  00111	5f		 pop	 edi
  00112	5e		 pop	 esi
  00113	5b		 pop	 ebx
  00114	8b e5		 mov	 esp, ebp
  00116	5d		 pop	 ebp
  00117	c2 04 00	 ret	 4
$LN66@operator:
; File C:\Program Files\Microsoft Visual Studio\2022\Professional\VC\Tools\MSVC\14.44.35207\include\xmemory

; 219  :     _STL_VERIFY(_Back_shift >= _Min_back_shift && _Back_shift <= _Non_user_size, "invalid argument");

  0011a	6a 00		 push	 0
  0011c	6a 00		 push	 0
  0011e	6a 00		 push	 0
  00120	6a 00		 push	 0
  00122	6a 00		 push	 0
  00124	e8 00 00 00 00	 call	 __invoke_watson
$LN91@operator:
; File C:\Program Files\Microsoft Visual Studio\2022\Professional\VC\Tools\MSVC\14.44.35207\include\xstring

; 2999 :             _Xlen_string(); // result too long

  00129	e8 00 00 00 00	 call	 ?_Xlen_string@std@@YAXXZ ; std::_Xlen_string
$LN87@operator:
  0012e	cc		 int	 3
??4?$basic_string@DU?$char_traits@D@std@@V?$allocator@D@2@@std@@QAEAAV01@QBD@Z ENDP ; std::basic_string<char,std::char_traits<char>,std::allocator<char> >::operator=
_TEXT	ENDS
; Function compile flags: /Ogtp
; File C:\Program Files\Microsoft Visual Studio\2022\Professional\VC\Tools\MSVC\14.44.35207\include\xstring
; File C:\Program Files\Microsoft Visual Studio\2022\Professional\VC\Tools\MSVC\14.44.35207\include\xmemory
; File C:\Program Files\Microsoft Visual Studio\2022\Professional\VC\Tools\MSVC\14.44.35207\include\xstring
; File C:\Program Files\Microsoft Visual Studio\2022\Professional\VC\Tools\MSVC\14.44.35207\include\xmemory
; File C:\Program Files\Microsoft Visual Studio\2022\Professional\VC\Tools\MSVC\14.44.35207\include\xstring
; File C:\Program Files\Microsoft Visual Studio\2022\Professional\VC\Tools\MSVC\14.44.35207\include\xmemory
; File C:\Program Files\Microsoft Visual Studio\2022\Professional\VC\Tools\MSVC\14.44.35207\include\xstring
;	COMDAT ??1?$basic_string@DU?$char_traits@D@std@@V?$allocator@D@2@@std@@QAE@XZ
_TEXT	SEGMENT
??1?$basic_string@DU?$char_traits@D@std@@V?$allocator@D@2@@std@@QAE@XZ PROC ; std::basic_string<char,std::char_traits<char>,std::allocator<char> >::~basic_string<char,std::char_traits<char>,std::allocator<char> >, COMDAT
; _this$ = ecx

; 1382 :     _CONSTEXPR20 ~basic_string() noexcept {

  00000	56		 push	 esi
  00001	8b f1		 mov	 esi, ecx

; 453  :         return _Myres > _Small_string_capacity;

  00003	8b 4e 14	 mov	 ecx, DWORD PTR [esi+20]
  00006	83 f9 0f	 cmp	 ecx, 15			; 0000000fH

; 3083 :         if (_My_data._Large_mode_engaged()) {

  00009	76 27		 jbe	 SHORT $LN19@basic_stri
; File C:\Program Files\Microsoft Visual Studio\2022\Professional\VC\Tools\MSVC\14.44.35207\include\xmemory

; 985  :         _STD _Deallocate<_New_alignof<_Ty>>(_Ptr, sizeof(_Ty) * _Count);

  0000b	8b 06		 mov	 eax, DWORD PTR [esi]
; File C:\Program Files\Microsoft Visual Studio\2022\Professional\VC\Tools\MSVC\14.44.35207\include\xstring

; 852  :         _Al.deallocate(_Old_ptr, _Capacity + 1); // +1 for null terminator

  0000d	41		 inc	 ecx
; File C:\Program Files\Microsoft Visual Studio\2022\Professional\VC\Tools\MSVC\14.44.35207\include\xmemory

; 284  :         if (_Bytes >= _Big_allocation_threshold) {

  0000e	81 f9 00 10 00
	00		 cmp	 ecx, 4096		; 00001000H
  00014	72 12		 jb	 SHORT $LN24@basic_stri

; 205  :     const uintptr_t _Ptr_container   = _Ptr_user[-1];

  00016	8b 50 fc	 mov	 edx, DWORD PTR [eax-4]
  00019	83 c1 23	 add	 ecx, 35			; 00000023H

; 206  : 
; 207  :     // If the following asserts, it likely means that we are performing
; 208  :     // an aligned delete on memory coming from an unaligned allocation.
; 209  :     _STL_ASSERT(_Ptr_user[-2] == _Big_allocation_sentinel, "invalid argument");
; 210  : 
; 211  :     // Extra paranoia on aligned allocation/deallocation; ensure _Ptr_container is
; 212  :     // in range [_Min_back_shift, _Non_user_size]
; 213  : #ifdef _DEBUG
; 214  :     constexpr uintptr_t _Min_back_shift = 2 * sizeof(void*);
; 215  : #else // ^^^ defined(_DEBUG) / !defined(_DEBUG) vvv
; 216  :     constexpr uintptr_t _Min_back_shift = sizeof(void*);
; 217  : #endif // ^^^ !defined(_DEBUG) ^^^
; 218  :     const uintptr_t _Back_shift = reinterpret_cast<uintptr_t>(_Ptr) - _Ptr_container;

  0001c	2b c2		 sub	 eax, edx

; 219  :     _STL_VERIFY(_Back_shift >= _Min_back_shift && _Back_shift <= _Non_user_size, "invalid argument");

  0001e	83 c0 fc	 add	 eax, -4			; fffffffcH
  00021	83 f8 1f	 cmp	 eax, 31			; 0000001fH
  00024	77 1f		 ja	 SHORT $LN23@basic_stri

; 220  :     _Ptr = reinterpret_cast<void*>(_Ptr_container);

  00026	8b c2		 mov	 eax, edx
$LN24@basic_stri:

; 289  :         ::operator delete(_Ptr, _Bytes);

  00028	51		 push	 ecx
  00029	50		 push	 eax
  0002a	e8 00 00 00 00	 call	 ??3@YAXPAXI@Z		; operator delete
  0002f	83 c4 08	 add	 esp, 8
$LN19@basic_stri:
; File C:\Program Files\Microsoft Visual Studio\2022\Professional\VC\Tools\MSVC\14.44.35207\include\xstring

; 3090 :         _My_data._Mysize = 0;

  00032	c7 46 10 00 00
	00 00		 mov	 DWORD PTR [esi+16], 0

; 3091 :         _My_data._Myres  = _Small_string_capacity;

  00039	c7 46 14 0f 00
	00 00		 mov	 DWORD PTR [esi+20], 15	; 0000000fH

; 3092 :         // the _Traits::assign is last so the codegen doesn't think the char write can alias this
; 3093 :         _Traits::assign(_My_data._Bx._Buf[0], _Elem());

  00040	c6 06 00	 mov	 BYTE PTR [esi], 0
  00043	5e		 pop	 esi

; 1390 :     }

  00044	c3		 ret	 0
$LN23@basic_stri:
; File C:\Program Files\Microsoft Visual Studio\2022\Professional\VC\Tools\MSVC\14.44.35207\include\xmemory

; 219  :     _STL_VERIFY(_Back_shift >= _Min_back_shift && _Back_shift <= _Non_user_size, "invalid argument");

  00045	6a 00		 push	 0
  00047	6a 00		 push	 0
  00049	6a 00		 push	 0
  0004b	6a 00		 push	 0
  0004d	6a 00		 push	 0
  0004f	e8 00 00 00 00	 call	 __invoke_watson
$LN33@basic_stri:
  00054	cc		 int	 3
??1?$basic_string@DU?$char_traits@D@std@@V?$allocator@D@2@@std@@QAE@XZ ENDP ; std::basic_string<char,std::char_traits<char>,std::allocator<char> >::~basic_string<char,std::char_traits<char>,std::allocator<char> >
_TEXT	ENDS
; Function compile flags: /Ogtp
; File C:\Program Files\Microsoft Visual Studio\2022\Professional\VC\Tools\MSVC\14.44.35207\include\xstring
;	COMDAT ?_Xlen_string@std@@YAXXZ
_TEXT	SEGMENT
?_Xlen_string@std@@YAXXZ PROC				; std::_Xlen_string, COMDAT

; 531  :     _Xlength_error("string too long");

  00000	68 00 00 00 00	 push	 OFFSET ??_C@_0BA@JFNIOLAK@string?5too?5long@
  00005	e8 00 00 00 00	 call	 ?_Xlength_error@std@@YAXPBD@Z ; std::_Xlength_error
$LN3@Xlen_strin:
  0000a	cc		 int	 3
?_Xlen_string@std@@YAXXZ ENDP				; std::_Xlen_string
_TEXT	ENDS
; Function compile flags: /Ogtp
; File C:\Program Files\Microsoft Visual Studio\2022\Professional\VC\Tools\MSVC\14.44.35207\include\xmemory
;	COMDAT ?_Throw_bad_array_new_length@std@@YAXXZ
_TEXT	SEGMENT
$T1 = -12						; size = 12
?_Throw_bad_array_new_length@std@@YAXXZ PROC		; std::_Throw_bad_array_new_length, COMDAT

; 107  : [[noreturn]] inline void _Throw_bad_array_new_length() {

  00000	55		 push	 ebp
  00001	8b ec		 mov	 ebp, esp
  00003	83 ec 0c	 sub	 esp, 12			; 0000000cH

; 108  :     _THROW(bad_array_new_length{});

  00006	8d 4d f4	 lea	 ecx, DWORD PTR $T1[ebp]
  00009	e8 00 00 00 00	 call	 ??0bad_array_new_length@std@@QAE@XZ ; std::bad_array_new_length::bad_array_new_length
  0000e	68 00 00 00 00	 push	 OFFSET __TI3?AVbad_array_new_length@std@@
  00013	8d 45 f4	 lea	 eax, DWORD PTR $T1[ebp]
  00016	50		 push	 eax
  00017	e8 00 00 00 00	 call	 __CxxThrowException@8
$LN3@Throw_bad_:
  0001c	cc		 int	 3
?_Throw_bad_array_new_length@std@@YAXXZ ENDP		; std::_Throw_bad_array_new_length
_TEXT	ENDS
; Function compile flags: /Ogtp
; File C:\Program Files\Microsoft Visual Studio\2022\Professional\VC\Tools\MSVC\14.44.35207\include\vcruntime_exception.h
;	COMDAT ??_Gbad_array_new_length@std@@UAEPAXI@Z
_TEXT	SEGMENT
___flags$ = 8						; size = 4
??_Gbad_array_new_length@std@@UAEPAXI@Z PROC		; std::bad_array_new_length::`scalar deleting destructor', COMDAT
; _this$ = ecx
  00000	55		 push	 ebp
  00001	8b ec		 mov	 ebp, esp

; 90   :     {

  00003	56		 push	 esi
  00004	8b f1		 mov	 esi, ecx

; 91   :         __std_exception_destroy(&_Data);

  00006	8d 46 04	 lea	 eax, DWORD PTR [esi+4]
  00009	c7 06 00 00 00
	00		 mov	 DWORD PTR [esi], OFFSET ??_7exception@std@@6B@
  0000f	50		 push	 eax
  00010	e8 00 00 00 00	 call	 ___std_exception_destroy
  00015	83 c4 04	 add	 esp, 4
  00018	f6 45 08 01	 test	 BYTE PTR ___flags$[ebp], 1
  0001c	74 0b		 je	 SHORT $LN18@scalar
  0001e	6a 0c		 push	 12			; 0000000cH
  00020	56		 push	 esi
  00021	e8 00 00 00 00	 call	 ??3@YAXPAXI@Z		; operator delete
  00026	83 c4 08	 add	 esp, 8
$LN18@scalar:
  00029	8b c6		 mov	 eax, esi
  0002b	5e		 pop	 esi
  0002c	5d		 pop	 ebp
  0002d	c2 04 00	 ret	 4
??_Gbad_array_new_length@std@@UAEPAXI@Z ENDP		; std::bad_array_new_length::`scalar deleting destructor'
_TEXT	ENDS
; Function compile flags: /Ogtp
; File C:\Program Files\Microsoft Visual Studio\2022\Professional\VC\Tools\MSVC\14.44.35207\include\vcruntime_exception.h
;	COMDAT ??0bad_array_new_length@std@@QAE@ABV01@@Z
_TEXT	SEGMENT
___that$ = 8						; size = 4
??0bad_array_new_length@std@@QAE@ABV01@@Z PROC		; std::bad_array_new_length::bad_array_new_length, COMDAT
; _this$ = ecx
  00000	55		 push	 ebp
  00001	8b ec		 mov	 ebp, esp

; 73   :     {

  00003	56		 push	 esi
  00004	8b f1		 mov	 esi, ecx
  00006	0f 57 c0	 xorps	 xmm0, xmm0

; 72   :         : _Data()

  00009	8d 46 04	 lea	 eax, DWORD PTR [esi+4]

; 74   :         __std_exception_copy(&_Other._Data, &_Data);

  0000c	50		 push	 eax
  0000d	c7 06 00 00 00
	00		 mov	 DWORD PTR [esi], OFFSET ??_7exception@std@@6B@
  00013	66 0f d6 00	 movq	 QWORD PTR [eax], xmm0
  00017	8b 45 08	 mov	 eax, DWORD PTR ___that$[ebp]
  0001a	83 c0 04	 add	 eax, 4
  0001d	50		 push	 eax
  0001e	e8 00 00 00 00	 call	 ___std_exception_copy
  00023	83 c4 08	 add	 esp, 8
  00026	c7 06 00 00 00
	00		 mov	 DWORD PTR [esi], OFFSET ??_7bad_array_new_length@std@@6B@
  0002c	8b c6		 mov	 eax, esi
  0002e	5e		 pop	 esi
  0002f	5d		 pop	 ebp
  00030	c2 04 00	 ret	 4
??0bad_array_new_length@std@@QAE@ABV01@@Z ENDP		; std::bad_array_new_length::bad_array_new_length
_TEXT	ENDS
; Function compile flags: /Ogtp
; File C:\Program Files\Microsoft Visual Studio\2022\Professional\VC\Tools\MSVC\14.44.35207\include\vcruntime_exception.h
;	COMDAT ??1bad_array_new_length@std@@UAE@XZ
_TEXT	SEGMENT
??1bad_array_new_length@std@@UAE@XZ PROC		; std::bad_array_new_length::~bad_array_new_length, COMDAT
; _this$ = ecx

; 91   :         __std_exception_destroy(&_Data);

  00000	8d 41 04	 lea	 eax, DWORD PTR [ecx+4]
  00003	c7 01 00 00 00
	00		 mov	 DWORD PTR [ecx], OFFSET ??_7exception@std@@6B@
  00009	50		 push	 eax
  0000a	e8 00 00 00 00	 call	 ___std_exception_destroy
  0000f	59		 pop	 ecx
  00010	c3		 ret	 0
??1bad_array_new_length@std@@UAE@XZ ENDP		; std::bad_array_new_length::~bad_array_new_length
_TEXT	ENDS
; Function compile flags: /Ogtp
; File C:\Program Files\Microsoft Visual Studio\2022\Professional\VC\Tools\MSVC\14.44.35207\include\vcruntime_exception.h
;	COMDAT ??0bad_array_new_length@std@@QAE@XZ
_TEXT	SEGMENT
??0bad_array_new_length@std@@QAE@XZ PROC		; std::bad_array_new_length::bad_array_new_length, COMDAT
; _this$ = ecx

; 144  :     {

  00000	0f 57 c0	 xorps	 xmm0, xmm0

; 145  :     }

  00003	8b c1		 mov	 eax, ecx

; 66   :         : _Data()

  00005	66 0f d6 41 04	 movq	 QWORD PTR [ecx+4], xmm0

; 67   :     {
; 68   :         _Data._What = _Message;

  0000a	c7 41 04 00 00
	00 00		 mov	 DWORD PTR [ecx+4], OFFSET ??_C@_0BF@KINCDENJ@bad?5array?5new?5length@

; 144  :     {

  00011	c7 01 00 00 00
	00		 mov	 DWORD PTR [ecx], OFFSET ??_7bad_array_new_length@std@@6B@

; 145  :     }

  00017	c3		 ret	 0
??0bad_array_new_length@std@@QAE@XZ ENDP		; std::bad_array_new_length::bad_array_new_length
_TEXT	ENDS
; Function compile flags: /Ogtp
; File C:\Program Files\Microsoft Visual Studio\2022\Professional\VC\Tools\MSVC\14.44.35207\include\vcruntime_exception.h
;	COMDAT ??_Gbad_alloc@std@@UAEPAXI@Z
_TEXT	SEGMENT
___flags$ = 8						; size = 4
??_Gbad_alloc@std@@UAEPAXI@Z PROC			; std::bad_alloc::`scalar deleting destructor', COMDAT
; _this$ = ecx
  00000	55		 push	 ebp
  00001	8b ec		 mov	 ebp, esp

; 90   :     {

  00003	56		 push	 esi
  00004	8b f1		 mov	 esi, ecx

; 91   :         __std_exception_destroy(&_Data);

  00006	8d 46 04	 lea	 eax, DWORD PTR [esi+4]
  00009	c7 06 00 00 00
	00		 mov	 DWORD PTR [esi], OFFSET ??_7exception@std@@6B@
  0000f	50		 push	 eax
  00010	e8 00 00 00 00	 call	 ___std_exception_destroy
  00015	83 c4 04	 add	 esp, 4
  00018	f6 45 08 01	 test	 BYTE PTR ___flags$[ebp], 1
  0001c	74 0b		 je	 SHORT $LN13@scalar
  0001e	6a 0c		 push	 12			; 0000000cH
  00020	56		 push	 esi
  00021	e8 00 00 00 00	 call	 ??3@YAXPAXI@Z		; operator delete
  00026	83 c4 08	 add	 esp, 8
$LN13@scalar:
  00029	8b c6		 mov	 eax, esi
  0002b	5e		 pop	 esi
  0002c	5d		 pop	 ebp
  0002d	c2 04 00	 ret	 4
??_Gbad_alloc@std@@UAEPAXI@Z ENDP			; std::bad_alloc::`scalar deleting destructor'
_TEXT	ENDS
; Function compile flags: /Ogtp
; File C:\Program Files\Microsoft Visual Studio\2022\Professional\VC\Tools\MSVC\14.44.35207\include\vcruntime_exception.h
;	COMDAT ??0bad_alloc@std@@QAE@ABV01@@Z
_TEXT	SEGMENT
___that$ = 8						; size = 4
??0bad_alloc@std@@QAE@ABV01@@Z PROC			; std::bad_alloc::bad_alloc, COMDAT
; _this$ = ecx
  00000	55		 push	 ebp
  00001	8b ec		 mov	 ebp, esp

; 73   :     {

  00003	56		 push	 esi
  00004	8b f1		 mov	 esi, ecx
  00006	0f 57 c0	 xorps	 xmm0, xmm0

; 72   :         : _Data()

  00009	8d 46 04	 lea	 eax, DWORD PTR [esi+4]

; 74   :         __std_exception_copy(&_Other._Data, &_Data);

  0000c	50		 push	 eax
  0000d	c7 06 00 00 00
	00		 mov	 DWORD PTR [esi], OFFSET ??_7exception@std@@6B@
  00013	66 0f d6 00	 movq	 QWORD PTR [eax], xmm0
  00017	8b 45 08	 mov	 eax, DWORD PTR ___that$[ebp]
  0001a	83 c0 04	 add	 eax, 4
  0001d	50		 push	 eax
  0001e	e8 00 00 00 00	 call	 ___std_exception_copy
  00023	83 c4 08	 add	 esp, 8
  00026	c7 06 00 00 00
	00		 mov	 DWORD PTR [esi], OFFSET ??_7bad_alloc@std@@6B@
  0002c	8b c6		 mov	 eax, esi
  0002e	5e		 pop	 esi
  0002f	5d		 pop	 ebp
  00030	c2 04 00	 ret	 4
??0bad_alloc@std@@QAE@ABV01@@Z ENDP			; std::bad_alloc::bad_alloc
_TEXT	ENDS
; Function compile flags: /Ogtp
; File C:\Program Files\Microsoft Visual Studio\2022\Professional\VC\Tools\MSVC\14.44.35207\include\vcruntime_exception.h
;	COMDAT ??_Gexception@std@@UAEPAXI@Z
_TEXT	SEGMENT
___flags$ = 8						; size = 4
??_Gexception@std@@UAEPAXI@Z PROC			; std::exception::`scalar deleting destructor', COMDAT
; _this$ = ecx
  00000	55		 push	 ebp
  00001	8b ec		 mov	 ebp, esp

; 90   :     {

  00003	56		 push	 esi
  00004	8b f1		 mov	 esi, ecx

; 91   :         __std_exception_destroy(&_Data);

  00006	8d 46 04	 lea	 eax, DWORD PTR [esi+4]
  00009	c7 06 00 00 00
	00		 mov	 DWORD PTR [esi], OFFSET ??_7exception@std@@6B@
  0000f	50		 push	 eax
  00010	e8 00 00 00 00	 call	 ___std_exception_destroy
  00015	83 c4 04	 add	 esp, 4
  00018	f6 45 08 01	 test	 BYTE PTR ___flags$[ebp], 1
  0001c	74 0b		 je	 SHORT $LN8@scalar
  0001e	6a 0c		 push	 12			; 0000000cH
  00020	56		 push	 esi
  00021	e8 00 00 00 00	 call	 ??3@YAXPAXI@Z		; operator delete
  00026	83 c4 08	 add	 esp, 8
$LN8@scalar:
  00029	8b c6		 mov	 eax, esi
  0002b	5e		 pop	 esi
  0002c	5d		 pop	 ebp
  0002d	c2 04 00	 ret	 4
??_Gexception@std@@UAEPAXI@Z ENDP			; std::exception::`scalar deleting destructor'
_TEXT	ENDS
; Function compile flags: /Ogtp
; File C:\Program Files\Microsoft Visual Studio\2022\Professional\VC\Tools\MSVC\14.44.35207\include\vcruntime_exception.h
;	COMDAT ?what@exception@std@@UBEPBDXZ
_TEXT	SEGMENT
?what@exception@std@@UBEPBDXZ PROC			; std::exception::what, COMDAT
; _this$ = ecx

; 96   :         return _Data._What ? _Data._What : "Unknown exception";

  00000	8b 49 04	 mov	 ecx, DWORD PTR [ecx+4]
  00003	b8 00 00 00 00	 mov	 eax, OFFSET ??_C@_0BC@EOODALEL@Unknown?5exception@
  00008	85 c9		 test	 ecx, ecx
  0000a	0f 45 c1	 cmovne	 eax, ecx

; 97   :     }

  0000d	c3		 ret	 0
?what@exception@std@@UBEPBDXZ ENDP			; std::exception::what
_TEXT	ENDS
; Function compile flags: /Ogtp
; File C:\Program Files\Microsoft Visual Studio\2022\Professional\VC\Tools\MSVC\14.44.35207\include\vcruntime_exception.h
;	COMDAT ??1exception@std@@UAE@XZ
_TEXT	SEGMENT
??1exception@std@@UAE@XZ PROC				; std::exception::~exception, COMDAT
; _this$ = ecx

; 91   :         __std_exception_destroy(&_Data);

  00000	8d 41 04	 lea	 eax, DWORD PTR [ecx+4]
  00003	c7 01 00 00 00
	00		 mov	 DWORD PTR [ecx], OFFSET ??_7exception@std@@6B@
  00009	50		 push	 eax
  0000a	e8 00 00 00 00	 call	 ___std_exception_destroy
  0000f	59		 pop	 ecx

; 92   :     }

  00010	c3		 ret	 0
??1exception@std@@UAE@XZ ENDP				; std::exception::~exception
_TEXT	ENDS
; Function compile flags: /Ogtp
; File C:\Program Files\Microsoft Visual Studio\2022\Professional\VC\Tools\MSVC\14.44.35207\include\vcruntime_exception.h
;	COMDAT ??0exception@std@@QAE@ABV01@@Z
_TEXT	SEGMENT
__Other$ = 8						; size = 4
??0exception@std@@QAE@ABV01@@Z PROC			; std::exception::exception, COMDAT
; _this$ = ecx

; 73   :     {

  00000	55		 push	 ebp
  00001	8b ec		 mov	 ebp, esp
  00003	56		 push	 esi
  00004	8b f1		 mov	 esi, ecx
  00006	0f 57 c0	 xorps	 xmm0, xmm0
  00009	8d 46 04	 lea	 eax, DWORD PTR [esi+4]

; 74   :         __std_exception_copy(&_Other._Data, &_Data);

  0000c	50		 push	 eax
  0000d	c7 06 00 00 00
	00		 mov	 DWORD PTR [esi], OFFSET ??_7exception@std@@6B@
  00013	66 0f d6 00	 movq	 QWORD PTR [eax], xmm0
  00017	8b 45 08	 mov	 eax, DWORD PTR __Other$[ebp]
  0001a	83 c0 04	 add	 eax, 4
  0001d	50		 push	 eax
  0001e	e8 00 00 00 00	 call	 ___std_exception_copy
  00023	83 c4 08	 add	 esp, 8

; 75   :     }

  00026	8b c6		 mov	 eax, esi
  00028	5e		 pop	 esi
  00029	5d		 pop	 ebp
  0002a	c2 04 00	 ret	 4
??0exception@std@@QAE@ABV01@@Z ENDP			; std::exception::exception
_TEXT	ENDS
; Function compile flags: /Ogtp
; File C:\Program Files\Microsoft Visual Studio\2022\Professional\VC\Tools\MSVC\14.44.35207\atlmfc\include\cstringt.h
; File C:\Program Files\Microsoft Visual Studio\2022\Professional\VC\Tools\MSVC\14.44.35207\atlmfc\include\atlsimpstr.h
; File C:\Program Files\Microsoft Visual Studio\2022\Professional\VC\Tools\MSVC\14.44.35207\atlmfc\include\cstringt.h
;	COMDAT ??1?$CStringT@DV?$StrTraitMFC@DV?$ChTraitsCRT@D@ATL@@@@@ATL@@QAE@XZ
_TEXT	SEGMENT
??1?$CStringT@DV?$StrTraitMFC@DV?$ChTraitsCRT@D@ATL@@@@@ATL@@QAE@XZ PROC ; ATL::CStringT<char,StrTraitMFC<char,ATL::ChTraitsCRT<char> > >::~CStringT<char,StrTraitMFC<char,ATL::ChTraitsCRT<char> > >, COMDAT
; _this$ = ecx
; File C:\Program Files\Microsoft Visual Studio\2022\Professional\VC\Tools\MSVC\14.44.35207\atlmfc\include\atlsimpstr.h

; 804  : 		return( reinterpret_cast< CStringData* >( m_pszData )-1 );

  00000	8b 11		 mov	 edx, DWORD PTR [ecx]

; 92   : 		if( _InterlockedDecrement( &nRefs ) <= 0 )

  00002	83 c8 ff	 or	 eax, -1

; 804  : 		return( reinterpret_cast< CStringData* >( m_pszData )-1 );

  00005	83 ea 10	 sub	 edx, 16			; 00000010H

; 92   : 		if( _InterlockedDecrement( &nRefs ) <= 0 )

  00008	f0 0f c1 42 0c	 lock	  xadd	 DWORD PTR [edx+12], eax
  0000d	48		 dec	 eax
  0000e	85 c0		 test	 eax, eax
  00010	7f 08		 jg	 SHORT $LN8@CStringT

; 93   : 		{
; 94   : 			pStringMgr->Free( this );

  00012	8b 0a		 mov	 ecx, DWORD PTR [edx]
  00014	52		 push	 edx
  00015	8b 01		 mov	 eax, DWORD PTR [ecx]
  00017	ff 50 04	 call	 DWORD PTR [eax+4]
$LN8@CStringT:
; File C:\Program Files\Microsoft Visual Studio\2022\Professional\VC\Tools\MSVC\14.44.35207\atlmfc\include\cstringt.h

; 1303 : 	}

  0001a	c3		 ret	 0
??1?$CStringT@DV?$StrTraitMFC@DV?$ChTraitsCRT@D@ATL@@@@@ATL@@QAE@XZ ENDP ; ATL::CStringT<char,StrTraitMFC<char,ATL::ChTraitsCRT<char> > >::~CStringT<char,StrTraitMFC<char,ATL::ChTraitsCRT<char> > >
_TEXT	ENDS
; Function compile flags: /Ogtp
; File C:\Program Files (x86)\Windows Kits\10\Include\10.0.26100.0\ucrt\stdio.h
;	COMDAT _sprintf
_TEXT	SEGMENT
__Buffer$ = 8						; size = 4
__Format$ = 12						; size = 4
_sprintf PROC						; COMDAT

; 1771 :     {

  00000	55		 push	 ebp
  00001	8b ec		 mov	 ebp, esp

; 1392 :         int const _Result = __stdio_common_vsprintf(

  00003	8d 45 10	 lea	 eax, DWORD PTR __Format$[ebp+4]
  00006	50		 push	 eax
  00007	6a 00		 push	 0
  00009	ff 75 0c	 push	 DWORD PTR __Format$[ebp]
  0000c	6a ff		 push	 -1
  0000e	ff 75 08	 push	 DWORD PTR __Buffer$[ebp]
  00011	e8 00 00 00 00	 call	 ___local_stdio_printf_options
  00016	8b 08		 mov	 ecx, DWORD PTR [eax]
  00018	ff 70 04	 push	 DWORD PTR [eax+4]
  0001b	83 c9 01	 or	 ecx, 1
  0001e	51		 push	 ecx
  0001f	e8 00 00 00 00	 call	 ___stdio_common_vsprintf

; 1393 :             _CRT_INTERNAL_LOCAL_PRINTF_OPTIONS | _CRT_INTERNAL_PRINTF_LEGACY_VSPRINTF_NULL_TERMINATION,
; 1394 :             _Buffer, _BufferCount, _Format, _Locale, _ArgList);
; 1395 : 
; 1396 :         return _Result < 0 ? -1 : _Result;

  00024	83 c9 ff	 or	 ecx, -1
  00027	83 c4 1c	 add	 esp, 28			; 0000001cH
  0002a	85 c0		 test	 eax, eax
  0002c	0f 48 c1	 cmovs	 eax, ecx

; 1772 :         int _Result;
; 1773 :         va_list _ArgList;
; 1774 :         __crt_va_start(_ArgList, _Format);
; 1775 : 
; 1776 :         _Result = _vsprintf_l(_Buffer, _Format, NULL, _ArgList);
; 1777 : 
; 1778 :         __crt_va_end(_ArgList);
; 1779 :         return _Result;
; 1780 :     }

  0002f	5d		 pop	 ebp
  00030	c3		 ret	 0
_sprintf ENDP
_TEXT	ENDS
; Function compile flags: /Ogtp
; File C:\Program Files (x86)\Windows Kits\10\Include\10.0.26100.0\ucrt\corecrt_stdio_config.h
;	COMDAT ___local_stdio_printf_options
_TEXT	SEGMENT
___local_stdio_printf_options PROC			; COMDAT

; 91   :         static unsigned __int64 _OptionsStorage;
; 92   :         return &_OptionsStorage;

  00000	b8 00 00 00 00	 mov	 eax, OFFSET ?_OptionsStorage@?1??__local_stdio_printf_options@@9@4_KA ; `__local_stdio_printf_options'::`2'::_OptionsStorage

; 93   :     }

  00005	c3		 ret	 0
___local_stdio_printf_options ENDP
_TEXT	ENDS
; Function compile flags: /Ogtp
; File C:\IAGOS\server\v18\Source\Source\_Common\Tax.cpp
;	COMDAT ?__empty_global_delete@@YAXPAXI@Z
_TEXT	SEGMENT
___formal$ = 8						; size = 4
___formal$ = 12						; size = 4
?__empty_global_delete@@YAXPAXI@Z PROC			; __empty_global_delete, COMDAT

  00000	c2 00 00	 ret	 0
?__empty_global_delete@@YAXPAXI@Z ENDP			; __empty_global_delete
_TEXT	ENDS
; Function compile flags: /Ogtp
; File C:\IAGOS\server\v18\Source\Source\_Common\Tax.cpp
;	COMDAT ?__empty_global_delete@@YAXPAX@Z
_TEXT	SEGMENT
___formal$ = 8						; size = 4
?__empty_global_delete@@YAXPAX@Z PROC			; __empty_global_delete, COMDAT

  00000	c2 00 00	 ret	 0
?__empty_global_delete@@YAXPAX@Z ENDP			; __empty_global_delete
_TEXT	ENDS
END
