; Listing generated by Microsoft (R) Optimizing Compiler Version 19.44.35225.0 

	TITLE	C:\IAGOS\server\v18\Source\Output\DatabaseServer\Release\Tax.obj
	.686P
	.XMM
	include listing.inc
	.model	flat

INCLUDELIB LIBCMT
INCLUDELIB OLDNAMES

PUBLIC	?__empty_global_delete@@YAXPAX@Z		; __empty_global_delete
PUBLIC	?__empty_global_delete@@YAXPAXI@Z		; __empty_global_delete
PUBLIC	___local_stdio_printf_options
PUBLIC	_sprintf
PUBLIC	??1?$CStringT@DV?$StrTraitMFC@DV?$ChTraitsCRT@D@ATL@@@@@ATL@@QAE@XZ ; ATL::CStringT<char,StrTraitMFC<char,ATL::ChTraitsCRT<char> > >::~CStringT<char,StrTraitMFC<char,ATL::ChTraitsCRT<char> > >
PUBLIC	??0exception@std@@QAE@ABV01@@Z			; std::exception::exception
PUBLIC	??1exception@std@@UAE@XZ			; std::exception::~exception
PUBLIC	?what@exception@std@@UBEPBDXZ			; std::exception::what
PUBLIC	??_Gexception@std@@UAEPAXI@Z			; std::exception::`scalar deleting destructor'
PUBLIC	??0bad_alloc@std@@QAE@ABV01@@Z			; std::bad_alloc::bad_alloc
PUBLIC	??_Gbad_alloc@std@@UAEPAXI@Z			; std::bad_alloc::`scalar deleting destructor'
PUBLIC	??0bad_array_new_length@std@@QAE@XZ		; std::bad_array_new_length::bad_array_new_length
PUBLIC	??1bad_array_new_length@std@@UAE@XZ		; std::bad_array_new_length::~bad_array_new_length
PUBLIC	??0bad_array_new_length@std@@QAE@ABV01@@Z	; std::bad_array_new_length::bad_array_new_length
PUBLIC	??_Gbad_array_new_length@std@@UAEPAXI@Z		; std::bad_array_new_length::`scalar deleting destructor'
PUBLIC	?_Throw_bad_array_new_length@std@@YAXXZ		; std::_Throw_bad_array_new_length
PUBLIC	?_Xlen_string@std@@YAXXZ			; std::_Xlen_string
PUBLIC	??1?$basic_string@DU?$char_traits@D@std@@V?$allocator@D@2@@std@@QAE@XZ ; std::basic_string<char,std::char_traits<char>,std::allocator<char> >::~basic_string<char,std::char_traits<char>,std::allocator<char> >
PUBLIC	??4?$basic_string@DU?$char_traits@D@std@@V?$allocator@D@2@@std@@QAEAAV01@QBD@Z ; std::basic_string<char,std::char_traits<char>,std::allocator<char> >::operator=
PUBLIC	?_Throw_tree_length_error@std@@YAXXZ		; std::_Throw_tree_length_error
PUBLIC	??1?$vector@KV?$allocator@K@std@@@std@@QAE@XZ	; std::vector<unsigned long,std::allocator<unsigned long> >::~vector<unsigned long,std::allocator<unsigned long> >
PUBLIC	?_Xlength@?$vector@KV?$allocator@K@std@@@std@@CAXXZ ; std::vector<unsigned long,std::allocator<unsigned long> >::_Xlength
PUBLIC	??$_Allocate_manually_vector_aligned@U_Default_allocate_traits@std@@@std@@YAPAXI@Z ; std::_Allocate_manually_vector_aligned<std::_Default_allocate_traits>
PUBLIC	??0CTaxDBController@@QAE@XZ			; CTaxDBController::CTaxDBController
PUBLIC	??1CTaxDBController@@UAE@XZ			; CTaxDBController::~CTaxDBController
PUBLIC	?Handler@CTaxDBController@@UAEXPAUtagDB_OVERLAPPED_PLUS@@K@Z ; CTaxDBController::Handler
PUBLIC	?OnTimer@CTaxDBController@@UAEXXZ		; CTaxDBController::OnTimer
PUBLIC	?PayTaxToPost@CTaxDBController@@AAEXXZ		; CTaxDBController::PayTaxToPost
PUBLIC	?LoadTaxInfo@CTaxDBController@@AAEXXZ		; CTaxDBController::LoadTaxInfo
PUBLIC	?InsertToDB@CTaxDBController@@AAEXXZ		; CTaxDBController::InsertToDB
PUBLIC	?UpdateToDB@CTaxDBController@@AAEXE@Z		; CTaxDBController::UpdateToDB
PUBLIC	?UpdateAllToDB@CTaxDBController@@AAEXXZ		; CTaxDBController::UpdateAllToDB
PUBLIC	??_GCTaxDBController@@UAEPAXI@Z			; CTaxDBController::`scalar deleting destructor'
PUBLIC	??1?$_Tree@V?$_Tmap_traits@EPAU__TAXDETAIL@@U?$less@E@std@@V?$allocator@U?$pair@$$CBEPAU__TAXDETAIL@@@std@@@3@$0A@@std@@@std@@QAE@XZ ; std::_Tree<std::_Tmap_traits<unsigned char,__TAXDETAIL *,std::less<unsigned char>,std::allocator<std::pair<unsigned char const ,__TAXDETAIL *> >,0> >::~_Tree<std::_Tmap_traits<unsigned char,__TAXDETAIL *,std::less<unsigned char>,std::allocator<std::pair<unsigned char const ,__TAXDETAIL *> >,0> >
PUBLIC	?_Insert_node@?$_Tree_val@U?$_Tree_simple_types@U?$pair@$$CBEPAU__TAXDETAIL@@@std@@@std@@@std@@QAEPAU?$_Tree_node@U?$pair@$$CBEPAU__TAXDETAIL@@@std@@PAX@2@U?$_Tree_id@PAU?$_Tree_node@U?$pair@$$CBEPAU__TAXDETAIL@@@std@@PAX@std@@@2@QAU32@@Z ; std::_Tree_val<std::_Tree_simple_types<std::pair<unsigned char const ,__TAXDETAIL *> > >::_Insert_node
PUBLIC	??1?$map@EPAU__TAXDETAIL@@U?$less@E@std@@V?$allocator@U?$pair@$$CBEPAU__TAXDETAIL@@@std@@@3@@std@@QAE@XZ ; std::map<unsigned char,__TAXDETAIL *,std::less<unsigned char>,std::allocator<std::pair<unsigned char const ,__TAXDETAIL *> > >::~map<unsigned char,__TAXDETAIL *,std::less<unsigned char>,std::allocator<std::pair<unsigned char const ,__TAXDETAIL *> > >
PUBLIC	??0__TAXINFO@@QAE@XZ				; __TAXINFO::__TAXINFO
PUBLIC	??$insert@U?$pair@EPAU__TAXDETAIL@@@std@@$0A@@?$map@EPAU__TAXDETAIL@@U?$less@E@std@@V?$allocator@U?$pair@$$CBEPAU__TAXDETAIL@@@std@@@3@@std@@QAE?AU?$pair@V?$_Tree_iterator@V?$_Tree_val@U?$_Tree_simple_types@U?$pair@$$CBEPAU__TAXDETAIL@@@std@@@std@@@std@@@std@@_N@1@$$QAU?$pair@EPAU__TAXDETAIL@@@1@@Z ; std::map<unsigned char,__TAXDETAIL *,std::less<unsigned char>,std::allocator<std::pair<unsigned char const ,__TAXDETAIL *> > >::insert<std::pair<unsigned char,__TAXDETAIL *>,0>
PUBLIC	??E?$_Tree_iterator@V?$_Tree_val@U?$_Tree_simple_types@U?$pair@$$CBEPAU__TAXDETAIL@@@std@@@std@@@std@@@std@@QAE?AV01@H@Z ; std::_Tree_iterator<std::_Tree_val<std::_Tree_simple_types<std::pair<unsigned char const ,__TAXDETAIL *> > > >::operator++
PUBLIC	??0CTax@@QAE@XZ					; CTax::CTax
PUBLIC	??1CTax@@QAE@XZ					; CTax::~CTax
PUBLIC	?GetInstance@CTax@@SAPAV1@XZ			; CTax::GetInstance
PUBLIC	?Serialize@CTax@@QAEXAAVCAr@@@Z			; CTax::Serialize
PUBLIC	??1?$_Tree@V?$_Tmap_traits@EPAU__TAXINFO@@U?$less@E@std@@V?$allocator@U?$pair@$$CBEPAU__TAXINFO@@@std@@@3@$0A@@std@@@std@@QAE@XZ ; std::_Tree<std::_Tmap_traits<unsigned char,__TAXINFO *,std::less<unsigned char>,std::allocator<std::pair<unsigned char const ,__TAXINFO *> >,0> >::~_Tree<std::_Tmap_traits<unsigned char,__TAXINFO *,std::less<unsigned char>,std::allocator<std::pair<unsigned char const ,__TAXINFO *> >,0> >
PUBLIC	?_Insert_node@?$_Tree_val@U?$_Tree_simple_types@U?$pair@$$CBEPAU__TAXINFO@@@std@@@std@@@std@@QAEPAU?$_Tree_node@U?$pair@$$CBEPAU__TAXINFO@@@std@@PAX@2@U?$_Tree_id@PAU?$_Tree_node@U?$pair@$$CBEPAU__TAXINFO@@@std@@PAX@std@@@2@QAU32@@Z ; std::_Tree_val<std::_Tree_simple_types<std::pair<unsigned char const ,__TAXINFO *> > >::_Insert_node
PUBLIC	??1?$map@EPAU__TAXINFO@@U?$less@E@std@@V?$allocator@U?$pair@$$CBEPAU__TAXINFO@@@std@@@3@@std@@QAE@XZ ; std::map<unsigned char,__TAXINFO *,std::less<unsigned char>,std::allocator<std::pair<unsigned char const ,__TAXINFO *> > >::~map<unsigned char,__TAXINFO *,std::less<unsigned char>,std::allocator<std::pair<unsigned char const ,__TAXINFO *> > >
PUBLIC	?GetTaxInfo@CTax@@QAEPAU__TAXINFO@@E@Z		; CTax::GetTaxInfo
PUBLIC	?SetNextSecretRoomGuild@CTax@@QAEXEK@Z		; CTax::SetNextSecretRoomGuild
PUBLIC	?SetNextLord@CTax@@QAEXK@Z			; CTax::SetNextLord
PUBLIC	?SetNextTaxRate@CTax@@QAEXEHH@Z			; CTax::SetNextTaxRate
PUBLIC	?SetApplyTaxRateNow@CTax@@QAEXXZ		; CTax::SetApplyTaxRateNow
PUBLIC	?AddTax@CTax@@QAEHEHE@Z				; CTax::AddTax
PUBLIC	?LoadScript@CTax@@QAEXXZ			; CTax::LoadScript
PUBLIC	?CheckPayTime@CTax@@QAEHXZ			; CTax::CheckPayTime
PUBLIC	?CheckChangeTime@CTax@@QAEXHH@Z			; CTax::CheckChangeTime
PUBLIC	?SetChangeNextTax@CTax@@QAEXXZ			; CTax::SetChangeNextTax
PUBLIC	?GetEarningRate@CTax@@QAEMEE@Z			; CTax::GetEarningRate
PUBLIC	?LoadTaxInfo@CTax@@QAEXK@Z			; CTax::LoadTaxInfo
PUBLIC	??$?6H@CAr@@QAEAAV0@ABH@Z			; CAr::operator<<<int>
PUBLIC	??$?5H@CAr@@QAEAAV0@AAH@Z			; CAr::operator>><int>
PUBLIC	??$?6K@CAr@@QAEAAV0@ABK@Z			; CAr::operator<<<unsigned long>
PUBLIC	??$?5K@CAr@@QAEAAV0@AAK@Z			; CAr::operator>><unsigned long>
PUBLIC	??$insert@U?$pair@HPAU__TAXINFO@@@std@@$0A@@?$map@EPAU__TAXINFO@@U?$less@E@std@@V?$allocator@U?$pair@$$CBEPAU__TAXINFO@@@std@@@3@@std@@QAE?AU?$pair@V?$_Tree_iterator@V?$_Tree_val@U?$_Tree_simple_types@U?$pair@$$CBEPAU__TAXINFO@@@std@@@std@@@std@@@std@@_N@1@$$QAU?$pair@HPAU__TAXINFO@@@1@@Z ; std::map<unsigned char,__TAXINFO *,std::less<unsigned char>,std::allocator<std::pair<unsigned char const ,__TAXINFO *> > >::insert<std::pair<int,__TAXINFO *>,0>
PUBLIC	??E?$_Tree_iterator@V?$_Tree_val@U?$_Tree_simple_types@U?$pair@$$CBEPAU__TAXINFO@@@std@@@std@@@std@@@std@@QAE?AV01@H@Z ; std::_Tree_iterator<std::_Tree_val<std::_Tree_simple_types<std::pair<unsigned char const ,__TAXINFO *> > > >::operator++
PUBLIC	??$?6I@CAr@@QAEAAV0@ABI@Z			; CAr::operator<<<unsigned int>
PUBLIC	??$?6E@CAr@@QAEAAV0@ABE@Z			; CAr::operator<<<unsigned char>
PUBLIC	??$?5E@CAr@@QAEAAV0@AAE@Z			; CAr::operator>><unsigned char>
PUBLIC	??$_Erase_tree@V?$allocator@U?$_Tree_node@U?$pair@$$CBEPAU__TAXINFO@@@std@@PAX@std@@@std@@@?$_Tree_val@U?$_Tree_simple_types@U?$pair@$$CBEPAU__TAXINFO@@@std@@@std@@@std@@QAEXAAV?$allocator@U?$_Tree_node@U?$pair@$$CBEPAU__TAXINFO@@@std@@PAX@std@@@1@PAU?$_Tree_node@U?$pair@$$CBEPAU__TAXINFO@@@std@@PAX@1@@Z ; std::_Tree_val<std::_Tree_simple_types<std::pair<unsigned char const ,__TAXINFO *> > >::_Erase_tree<std::allocator<std::_Tree_node<std::pair<unsigned char const ,__TAXINFO *>,void *> > >
PUBLIC	??$_Find_lower_bound@E@?$_Tree@V?$_Tmap_traits@EPAU__TAXINFO@@U?$less@E@std@@V?$allocator@U?$pair@$$CBEPAU__TAXINFO@@@std@@@3@$0A@@std@@@std@@IBE?AU?$_Tree_find_result@PAU?$_Tree_node@U?$pair@$$CBEPAU__TAXINFO@@@std@@PAX@std@@@1@ABE@Z ; std::_Tree<std::_Tmap_traits<unsigned char,__TAXINFO *,std::less<unsigned char>,std::allocator<std::pair<unsigned char const ,__TAXINFO *> >,0> >::_Find_lower_bound<unsigned char>
PUBLIC	??$_Find_lower_bound@E@?$_Tree@V?$_Tmap_traits@EPAU__TAXDETAIL@@U?$less@E@std@@V?$allocator@U?$pair@$$CBEPAU__TAXDETAIL@@@std@@@3@$0A@@std@@@std@@IBE?AU?$_Tree_find_result@PAU?$_Tree_node@U?$pair@$$CBEPAU__TAXDETAIL@@@std@@PAX@std@@@1@ABE@Z ; std::_Tree<std::_Tmap_traits<unsigned char,__TAXDETAIL *,std::less<unsigned char>,std::allocator<std::pair<unsigned char const ,__TAXDETAIL *> >,0> >::_Find_lower_bound<unsigned char>
PUBLIC	??$_Erase_tree@V?$allocator@U?$_Tree_node@U?$pair@$$CBEPAU__TAXDETAIL@@@std@@PAX@std@@@std@@@?$_Tree_val@U?$_Tree_simple_types@U?$pair@$$CBEPAU__TAXDETAIL@@@std@@@std@@@std@@QAEXAAV?$allocator@U?$_Tree_node@U?$pair@$$CBEPAU__TAXDETAIL@@@std@@PAX@std@@@1@PAU?$_Tree_node@U?$pair@$$CBEPAU__TAXDETAIL@@@std@@PAX@1@@Z ; std::_Tree_val<std::_Tree_simple_types<std::pair<unsigned char const ,__TAXDETAIL *> > >::_Erase_tree<std::allocator<std::_Tree_node<std::pair<unsigned char const ,__TAXDETAIL *>,void *> > >
PUBLIC	??$_Emplace_reallocate@K@?$vector@KV?$allocator@K@std@@@std@@AAEPAKQAK$$QAK@Z ; std::vector<unsigned long,std::allocator<unsigned long> >::_Emplace_reallocate<unsigned long>
PUBLIC	??1?$_Alloc_construct_ptr@V?$allocator@U?$_Tree_node@U?$pair@$$CBEPAU__TAXDETAIL@@@std@@PAX@std@@@std@@@std@@QAE@XZ ; std::_Alloc_construct_ptr<std::allocator<std::_Tree_node<std::pair<unsigned char const ,__TAXDETAIL *>,void *> > >::~_Alloc_construct_ptr<std::allocator<std::_Tree_node<std::pair<unsigned char const ,__TAXDETAIL *>,void *> > >
PUBLIC	??1?$_Alloc_construct_ptr@V?$allocator@U?$_Tree_node@U?$pair@$$CBEPAU__TAXINFO@@@std@@PAX@std@@@std@@@std@@QAE@XZ ; std::_Alloc_construct_ptr<std::allocator<std::_Tree_node<std::pair<unsigned char const ,__TAXINFO *>,void *> > >::~_Alloc_construct_ptr<std::allocator<std::_Tree_node<std::pair<unsigned char const ,__TAXINFO *>,void *> > >
PUBLIC	??1?$_Tree_temp_node@V?$allocator@U?$_Tree_node@U?$pair@$$CBEPAU__TAXINFO@@@std@@PAX@std@@@std@@@std@@QAE@XZ ; std::_Tree_temp_node<std::allocator<std::_Tree_node<std::pair<unsigned char const ,__TAXINFO *>,void *> > >::~_Tree_temp_node<std::allocator<std::_Tree_node<std::pair<unsigned char const ,__TAXINFO *>,void *> > >
PUBLIC	??$_Copy_memmove@PAKPAK@std@@YAPAKPAK00@Z	; std::_Copy_memmove<unsigned long *,unsigned long *>
PUBLIC	??$_Copy_memmove_tail@PAK@std@@YAPAKQBDQAKII@Z	; std::_Copy_memmove_tail<unsigned long *>
PUBLIC	?_OptionsStorage@?1??__local_stdio_printf_options@@9@4_KA ; `__local_stdio_printf_options'::`2'::_OptionsStorage
PUBLIC	??_C@_00CNPNBAHC@@				; `string'
PUBLIC	??_7exception@std@@6B@				; std::exception::`vftable'
PUBLIC	??_C@_0BC@EOODALEL@Unknown?5exception@		; `string'
PUBLIC	??_7bad_alloc@std@@6B@				; std::bad_alloc::`vftable'
PUBLIC	??_7bad_array_new_length@std@@6B@		; std::bad_array_new_length::`vftable'
PUBLIC	??_C@_0BF@KINCDENJ@bad?5array?5new?5length@	; `string'
PUBLIC	??_R0?AVexception@std@@@8			; std::exception `RTTI Type Descriptor'
PUBLIC	__CT??_R0?AVexception@std@@@8??0exception@std@@QAE@ABV01@@Z12
PUBLIC	__TI3?AVbad_array_new_length@std@@
PUBLIC	__CTA3?AVbad_array_new_length@std@@
PUBLIC	??_R0?AVbad_array_new_length@std@@@8		; std::bad_array_new_length `RTTI Type Descriptor'
PUBLIC	__CT??_R0?AVbad_array_new_length@std@@@8??0bad_array_new_length@std@@QAE@ABV01@@Z12
PUBLIC	??_R0?AVbad_alloc@std@@@8			; std::bad_alloc `RTTI Type Descriptor'
PUBLIC	__CT??_R0?AVbad_alloc@std@@@8??0bad_alloc@std@@QAE@ABV01@@Z12
PUBLIC	??_C@_0BA@JFNIOLAK@string?5too?5long@		; `string'
PUBLIC	??_C@_0BB@GCADKGJO@map?1set?5too?5long@		; `string'
PUBLIC	??_C@_09GBAEEKDE@?$CFs?0?5?$CFd?7?$CFs@		; `string'
PUBLIC	??_C@_0BA@FOIKENOD@vector?5too?5long@		; `string'
PUBLIC	??_R4exception@std@@6B@				; std::exception::`RTTI Complete Object Locator'
PUBLIC	??_R3exception@std@@8				; std::exception::`RTTI Class Hierarchy Descriptor'
PUBLIC	??_R2exception@std@@8				; std::exception::`RTTI Base Class Array'
PUBLIC	??_R1A@?0A@EA@exception@std@@8			; std::exception::`RTTI Base Class Descriptor at (0,-1,0,64)'
PUBLIC	??_R4bad_array_new_length@std@@6B@		; std::bad_array_new_length::`RTTI Complete Object Locator'
PUBLIC	??_R3bad_array_new_length@std@@8		; std::bad_array_new_length::`RTTI Class Hierarchy Descriptor'
PUBLIC	??_R2bad_array_new_length@std@@8		; std::bad_array_new_length::`RTTI Base Class Array'
PUBLIC	??_R1A@?0A@EA@bad_array_new_length@std@@8	; std::bad_array_new_length::`RTTI Base Class Descriptor at (0,-1,0,64)'
PUBLIC	??_R1A@?0A@EA@bad_alloc@std@@8			; std::bad_alloc::`RTTI Base Class Descriptor at (0,-1,0,64)'
PUBLIC	??_R3bad_alloc@std@@8				; std::bad_alloc::`RTTI Class Hierarchy Descriptor'
PUBLIC	??_R2bad_alloc@std@@8				; std::bad_alloc::`RTTI Base Class Array'
PUBLIC	??_R4bad_alloc@std@@6B@				; std::bad_alloc::`RTTI Complete Object Locator'
PUBLIC	??_7CTaxDBController@@6B@			; CTaxDBController::`vftable'
PUBLIC	??_C@_0CG@PBPHIFHD@CTax?5?9?5m_Controller?4CreateDbHan@ ; `string'
PUBLIC	??_C@_0CI@EGGDFMCC@CTax?3?3GetTaxInfo?$CI?$CJ?5?9?5?$MA?$NP?$LI?x?$LF?H?5?$LE?k?$LH@ ; `string'
PUBLIC	??_C@_07KANMDMNE@Tax?4lua@			; `string'
PUBLIC	??_C@_0BH@GCMNILJK@Tax?4lua?5Run?5Failed?5?$CB?$CB?$CB@ ; `string'
PUBLIC	??_C@_0L@KBBAAJBF@MinTaxRate@			; `string'
PUBLIC	??_C@_0L@GNBNHCBK@MaxTaxRate@			; `string'
PUBLIC	??_C@_0BC@HLGHAKHH@TaxSecretRoomRate@		; `string'
PUBLIC	??_C@_0M@JMFHEJJO@TaxLordRate@			; `string'
PUBLIC	??_C@_0BI@LJACBDPE@AdmissionSecretRoomRate@	; `string'
PUBLIC	??_C@_0BC@LCJMAADJ@AdmissionLordRate@		; `string'
PUBLIC	??_C@_0M@FELENEOA@DBSaveCount@			; `string'
PUBLIC	??_C@_0BE@DCFJJNKF@tOccupationShopItem@		; `string'
PUBLIC	??_C@_0BA@LNDBAGIB@CheckChangeTime@		; `string'
PUBLIC	??_C@_0N@JMAFDKBD@CheckPayTime@			; `string'
PUBLIC	??_C@_0DF@PKLOAGED@TAX_INFO_STR?5?8S3?8?0?5?8?$CF02d?8?0?50?0?50@ ; `string'
PUBLIC	??_C@_0L@FONFFEJF@m_idPlayer@			; `string'
PUBLIC	??_C@_0DC@PBFLEGFH@C?3?2IAGOS?2server?2v18?2Source?2Sour@ ; `string'
PUBLIC	??_C@_0DC@HDFAFDC@TAX_INFO_STR?5?8S1?8?0?5?8?$CF02d?8?0?50?0?50@ ; `string'
PUBLIC	??_C@_06DJGFEEME@nTimes@			; `string'
PUBLIC	??_C@_0L@MDNPPPLJ@GetNowDate@			; `string'
PUBLIC	??_C@_0DE@DAPHDHAC@TAX_INFO_STR?5?8S2?8?0?5?8?$CF02d?8?0?5?$CFd?0?5@ ; `string'
PUBLIC	??_C@_04EINJHNAE@dwID@				; `string'
PUBLIC	??_C@_08DEEAJDDG@dwNextID@			; `string'
PUBLIC	??_C@_0M@KKHJELKN@bSetTaxRate@			; `string'
PUBLIC	??_C@_0M@HHPEIMLI@change_time@			; `string'
PUBLIC	??_C@_0DG@HDJLKLGO@TAX_DETAIL_STR?5?8S2?8?0?5?8?$CF02d?8?0?5?$CFd@ ; `string'
PUBLIC	??_C@_08LMFOBNPO@nTaxKind@			; `string'
PUBLIC	??_C@_0ED@KONCKI@LoadTaxInfo?$CI?$CJ?5?9?5taxDetail?5is?5wr@ ; `string'
PUBLIC	??_C@_08BMLANHAF@nTaxRate@			; `string'
PUBLIC	??_C@_09PIHGBPHB@nTaxCount@			; `string'
PUBLIC	??_C@_08FPEBHLEN@nTaxGold@			; `string'
PUBLIC	??_C@_09BPDBKDAC@nTaxPerin@			; `string'
PUBLIC	??_C@_0N@CFHJAANA@nNextTaxRate@			; `string'
PUBLIC	??_C@_0DM@IEFKIIDM@TAX_INFO_STR?5?8I1?8?0?5?8?$CF02d?8?0?5?$CFd?0?5@ ; `string'
PUBLIC	??_C@_0DM@PFLMCPAK@TAX_DETAIL_STR?5?8I1?8?0?5?8?$CF02d?8?0?5?$CFd@ ; `string'
PUBLIC	??_C@_0DA@LBKMKMAC@UpdateToDB?$CI?$CJ?5?9?5taxInfo?5is?5NULL?0@ ; `string'
PUBLIC	??_C@_0DL@EDBIPHKJ@TAX_INFO_STR?5?8U1?8?0?5?8?$CF02d?8?0?5?$CFd?0?5@ ; `string'
PUBLIC	??_C@_0DM@BIDMIHDA@TAX_DETAIL_STR?5?8U1?8?0?5?8?$CF02d?8?0?5?$CFd@ ; `string'
PUBLIC	??_R4CTaxDBController@@6B@			; CTaxDBController::`RTTI Complete Object Locator'
PUBLIC	??_R0?AVCTaxDBController@@@8			; CTaxDBController `RTTI Type Descriptor'
PUBLIC	??_R3CTaxDBController@@8			; CTaxDBController::`RTTI Class Hierarchy Descriptor'
PUBLIC	??_R2CTaxDBController@@8			; CTaxDBController::`RTTI Base Class Array'
PUBLIC	??_R1A@?0A@EA@CTaxDBController@@8		; CTaxDBController::`RTTI Base Class Descriptor at (0,-1,0,64)'
PUBLIC	??_R1A@?0A@EA@CDbController@@8			; CDbController::`RTTI Base Class Descriptor at (0,-1,0,64)'
PUBLIC	??_R0?AVCDbController@@@8			; CDbController `RTTI Type Descriptor'
PUBLIC	??_R3CDbController@@8				; CDbController::`RTTI Class Hierarchy Descriptor'
PUBLIC	??_R2CDbController@@8				; CDbController::`RTTI Base Class Array'
PUBLIC	__real@3dcccccd
EXTRN	??2@YAPAXI@Z:PROC				; operator new
EXTRN	??3@YAXPAXI@Z:PROC				; operator delete
EXTRN	_atexit:PROC
EXTRN	__Init_thread_header:PROC
EXTRN	__Init_thread_abort:PROC
EXTRN	__Init_thread_footer:PROC
EXTRN	__invoke_watson:PROC
EXTRN	___stdio_common_vsprintf:PROC
EXTRN	__localtime64_s:PROC
EXTRN	__time32:PROC
EXTRN	__time64:PROC
EXTRN	?AfxThrowMemoryException@@YGXXZ:PROC		; AfxThrowMemoryException
EXTRN	?AfxThrowOleException@@YGXJ@Z:PROC		; AfxThrowOleException
EXTRN	?_Xlength_error@std@@YAXPBD@Z:PROC		; std::_Xlength_error
EXTRN	___std_exception_copy:PROC
EXTRN	___std_exception_destroy:PROC
EXTRN	??_Eexception@std@@UAEPAXI@Z:PROC		; std::exception::`vector deleting destructor'
EXTRN	??_Ebad_alloc@std@@UAEPAXI@Z:PROC		; std::bad_alloc::`vector deleting destructor'
EXTRN	??_Ebad_array_new_length@std@@UAEPAXI@Z:PROC	; std::bad_array_new_length::`vector deleting destructor'
EXTRN	?Error@@YAPBDPBDZZ:PROC				; Error
EXTRN	?GetDefineNum@CScript@@SAHPBD@Z:PROC		; CScript::GetDefineNum
EXTRN	_lua_toboolean:PROC
EXTRN	_lua_tolstring:PROC
EXTRN	_lua_pushnil:PROC
EXTRN	_lua_pushstring:PROC
EXTRN	_lua_getglobal:PROC
EXTRN	_lua_next:PROC
EXTRN	??0CLuaBase@@QAE@XZ:PROC			; CLuaBase::CLuaBase
EXTRN	??1CLuaBase@@UAE@XZ:PROC			; CLuaBase::~CLuaBase
EXTRN	?RunScript@CLuaBase@@QAEHPBD@Z:PROC		; CLuaBase::RunScript
EXTRN	?Pop@CLuaBase@@QAEXH@Z:PROC			; CLuaBase::Pop
EXTRN	?GetGlobalNumber@CLuaBase@@QAENPAD@Z:PROC	; CLuaBase::GetGlobalNumber
EXTRN	?GetLuaFunction@CLuaBase@@QAEHPAD@Z:PROC	; CLuaBase::GetLuaFunction
EXTRN	?CallLuaFunction@CLuaBase@@QAEXHH@Z:PROC	; CLuaBase::CallLuaFunction
EXTRN	?WriteLog@@YAXPBDZZ:PROC			; WriteLog
EXTRN	?Exec@CQuery@@QAEHPBD@Z:PROC			; CQuery::Exec
EXTRN	?Fetch@CQuery@@QAEHXZ:PROC			; CQuery::Fetch
EXTRN	?GetInt@CQuery@@QAEHPAD@Z:PROC			; CQuery::GetInt
EXTRN	?GetStr@CQuery@@QAEXPAD0@Z:PROC			; CQuery::GetStr
EXTRN	??0CAr@@QAE@PAXI@Z:PROC				; CAr::CAr
EXTRN	??1CAr@@QAE@XZ:PROC				; CAr::~CAr
EXTRN	?CheckBuf@CAr@@QAEXI@Z:PROC			; CAr::CheckBuf
EXTRN	??0CItemElem@@QAE@XZ:PROC			; CItemElem::CItemElem
EXTRN	?GetInstance@CContinent@@SAPAV1@XZ:PROC		; CContinent::GetInstance
EXTRN	?GetContinentName@CContinent@@QAE?AV?$CStringT@DV?$StrTraitMFC@DV?$ChTraitsCRT@D@ATL@@@@@ATL@@E@Z:PROC ; CContinent::GetContinentName
EXTRN	??0CDbController@@QAE@XZ:PROC			; CDbController::CDbController
EXTRN	??1CDbController@@UAE@XZ:PROC			; CDbController::~CDbController
EXTRN	?CreateDbHandler@CDbController@@QAEHK@Z:PROC	; CDbController::CreateDbHandler
EXTRN	?CloseDbHandler@CDbController@@QAEXXZ:PROC	; CDbController::CloseDbHandler
EXTRN	?PostRequest@CDbController@@QAEHHPAEHK@Z:PROC	; CDbController::PostRequest
EXTRN	?Post@post@@YAXKPAVCMail@@PAVCQuery@@@Z:PROC	; post::Post
EXTRN	??_ECTaxDBController@@UAEPAXI@Z:PROC		; CTaxDBController::`vector deleting destructor'
EXTRN	?GetInstance@CDPTrans@@SAPAV1@XZ:PROC		; CDPTrans::GetInstance
EXTRN	?SendTaxInfo@CDPTrans@@QAEXKHH@Z:PROC		; CDPTrans::SendTaxInfo
EXTRN	??0CMail@@QAE@XZ:PROC				; CMail::CMail
EXTRN	?Instance@CTLord@@SAPAV1@XZ:PROC		; CTLord::Instance
EXTRN	@__security_check_cookie@4:PROC
EXTRN	__CxxThrowException@8:PROC
EXTRN	___CxxFrameHandler3:PROC
EXTRN	__allmul:PROC
EXTRN	__chkstk:PROC
EXTRN	__ftol2_sse:PROC
EXTRN	_memcpy:PROC
EXTRN	_memmove:PROC
EXTRN	_memset:PROC
EXTRN	__Init_thread_epoch:DWORD
EXTRN	??_7type_info@@6B@:QWORD			; type_info::`vftable'
EXTRN	?g_next@@3KA:DWORD				; g_next
EXTRN	?prj@@3VCProject@@A:BYTE			; prj
EXTRN	?g_appInfo@@3UAppInfo@@A:QWORD			; g_appInfo
EXTRN	___security_cookie:DWORD
EXTRN	__fltused:DWORD
EXTRN	__tls_array:DWORD
EXTRN	__tls_index:DWORD
;	COMDAT ?_OptionsStorage@?1??__local_stdio_printf_options@@9@4_KA
_BSS	SEGMENT
?_OptionsStorage@?1??__local_stdio_printf_options@@9@4_KA DQ 01H DUP (?) ; `__local_stdio_printf_options'::`2'::_OptionsStorage
_BSS	ENDS
;	COMDAT ?sTax@?1??GetInstance@CTax@@SAPAV2@XZ@4V2@A
_BSS	SEGMENT
?sTax@?1??GetInstance@CTax@@SAPAV2@XZ@4V2@A DB 06cH DUP (?) ; `CTax::GetInstance'::`2'::sTax
_BSS	ENDS
;	COMDAT ?$TSS0@?1??GetInstance@CTax@@SAPAV2@XZ@4HA
_BSS	SEGMENT
?$TSS0@?1??GetInstance@CTax@@SAPAV2@XZ@4HA DD 01H DUP (?) ; `CTax::GetInstance'::`2'::$TSS0
_BSS	ENDS
;	COMDAT __real@3dcccccd
CONST	SEGMENT
__real@3dcccccd DD 03dcccccdr			; 0.1
CONST	ENDS
;	COMDAT ??_R2CDbController@@8
rdata$r	SEGMENT
??_R2CDbController@@8 DD FLAT:??_R1A@?0A@EA@CDbController@@8 ; CDbController::`RTTI Base Class Array'
rdata$r	ENDS
;	COMDAT ??_R3CDbController@@8
rdata$r	SEGMENT
??_R3CDbController@@8 DD 00H				; CDbController::`RTTI Class Hierarchy Descriptor'
	DD	00H
	DD	01H
	DD	FLAT:??_R2CDbController@@8
rdata$r	ENDS
;	COMDAT ??_R0?AVCDbController@@@8
data$rs	SEGMENT
??_R0?AVCDbController@@@8 DD FLAT:??_7type_info@@6B@	; CDbController `RTTI Type Descriptor'
	DD	00H
	DB	'.?AVCDbController@@', 00H
data$rs	ENDS
;	COMDAT ??_R1A@?0A@EA@CDbController@@8
rdata$r	SEGMENT
??_R1A@?0A@EA@CDbController@@8 DD FLAT:??_R0?AVCDbController@@@8 ; CDbController::`RTTI Base Class Descriptor at (0,-1,0,64)'
	DD	00H
	DD	00H
	DD	0ffffffffH
	DD	00H
	DD	040H
	DD	FLAT:??_R3CDbController@@8
rdata$r	ENDS
;	COMDAT ??_R1A@?0A@EA@CTaxDBController@@8
rdata$r	SEGMENT
??_R1A@?0A@EA@CTaxDBController@@8 DD FLAT:??_R0?AVCTaxDBController@@@8 ; CTaxDBController::`RTTI Base Class Descriptor at (0,-1,0,64)'
	DD	01H
	DD	00H
	DD	0ffffffffH
	DD	00H
	DD	040H
	DD	FLAT:??_R3CTaxDBController@@8
rdata$r	ENDS
;	COMDAT ??_R2CTaxDBController@@8
rdata$r	SEGMENT
??_R2CTaxDBController@@8 DD FLAT:??_R1A@?0A@EA@CTaxDBController@@8 ; CTaxDBController::`RTTI Base Class Array'
	DD	FLAT:??_R1A@?0A@EA@CDbController@@8
rdata$r	ENDS
;	COMDAT ??_R3CTaxDBController@@8
rdata$r	SEGMENT
??_R3CTaxDBController@@8 DD 00H				; CTaxDBController::`RTTI Class Hierarchy Descriptor'
	DD	00H
	DD	02H
	DD	FLAT:??_R2CTaxDBController@@8
rdata$r	ENDS
;	COMDAT ??_R0?AVCTaxDBController@@@8
data$rs	SEGMENT
??_R0?AVCTaxDBController@@@8 DD FLAT:??_7type_info@@6B@	; CTaxDBController `RTTI Type Descriptor'
	DD	00H
	DB	'.?AVCTaxDBController@@', 00H
data$rs	ENDS
;	COMDAT ??_R4CTaxDBController@@6B@
rdata$r	SEGMENT
??_R4CTaxDBController@@6B@ DD 00H			; CTaxDBController::`RTTI Complete Object Locator'
	DD	00H
	DD	00H
	DD	FLAT:??_R0?AVCTaxDBController@@@8
	DD	FLAT:??_R3CTaxDBController@@8
rdata$r	ENDS
;	COMDAT ??_C@_0DM@BIDMIHDA@TAX_DETAIL_STR?5?8U1?8?0?5?8?$CF02d?8?0?5?$CFd@
CONST	SEGMENT
??_C@_0DM@BIDMIHDA@TAX_DETAIL_STR?5?8U1?8?0?5?8?$CF02d?8?0?5?$CFd@ DB 'TA'
	DB	'X_DETAIL_STR ''U1'', ''%02d'', %d, %d, %d, %d, %d, %d, %d, %d'
	DB	00H						; `string'
CONST	ENDS
;	COMDAT ??_C@_0DL@EDBIPHKJ@TAX_INFO_STR?5?8U1?8?0?5?8?$CF02d?8?0?5?$CFd?0?5@
CONST	SEGMENT
??_C@_0DL@EDBIPHKJ@TAX_INFO_STR?5?8U1?8?0?5?8?$CF02d?8?0?5?$CFd?0?5@ DB 'T'
	DB	'AX_INFO_STR ''U1'', ''%02d'', %d, %d, ''%07d'', ''%07d'', %d,'
	DB	' ''0''', 00H				; `string'
CONST	ENDS
;	COMDAT ??_C@_0DA@LBKMKMAC@UpdateToDB?$CI?$CJ?5?9?5taxInfo?5is?5NULL?0@
CONST	SEGMENT
??_C@_0DA@LBKMKMAC@UpdateToDB?$CI?$CJ?5?9?5taxInfo?5is?5NULL?0@ DB 'Updat'
	DB	'eToDB() - taxInfo is NULL, nContinent = %x', 00H ; `string'
CONST	ENDS
;	COMDAT ??_C@_0DM@PFLMCPAK@TAX_DETAIL_STR?5?8I1?8?0?5?8?$CF02d?8?0?5?$CFd@
CONST	SEGMENT
??_C@_0DM@PFLMCPAK@TAX_DETAIL_STR?5?8I1?8?0?5?8?$CF02d?8?0?5?$CFd@ DB 'TA'
	DB	'X_DETAIL_STR ''I1'', ''%02d'', %d, %d, %d, %d, %d, %d, %d, %d'
	DB	00H						; `string'
CONST	ENDS
;	COMDAT ??_C@_0DM@IEFKIIDM@TAX_INFO_STR?5?8I1?8?0?5?8?$CF02d?8?0?5?$CFd?0?5@
CONST	SEGMENT
??_C@_0DM@IEFKIIDM@TAX_INFO_STR?5?8I1?8?0?5?8?$CF02d?8?0?5?$CFd?0?5@ DB 'T'
	DB	'AX_INFO_STR ''I1'', ''%02d'', %d, %d, ''%07d'', ''%07d'', %d,'
	DB	' ''%s''', 00H				; `string'
CONST	ENDS
;	COMDAT ??_C@_0N@CFHJAANA@nNextTaxRate@
CONST	SEGMENT
??_C@_0N@CFHJAANA@nNextTaxRate@ DB 'nNextTaxRate', 00H	; `string'
CONST	ENDS
;	COMDAT ??_C@_09BPDBKDAC@nTaxPerin@
CONST	SEGMENT
??_C@_09BPDBKDAC@nTaxPerin@ DB 'nTaxPerin', 00H		; `string'
CONST	ENDS
;	COMDAT ??_C@_08FPEBHLEN@nTaxGold@
CONST	SEGMENT
??_C@_08FPEBHLEN@nTaxGold@ DB 'nTaxGold', 00H		; `string'
CONST	ENDS
;	COMDAT ??_C@_09PIHGBPHB@nTaxCount@
CONST	SEGMENT
??_C@_09PIHGBPHB@nTaxCount@ DB 'nTaxCount', 00H		; `string'
CONST	ENDS
;	COMDAT ??_C@_08BMLANHAF@nTaxRate@
CONST	SEGMENT
??_C@_08BMLANHAF@nTaxRate@ DB 'nTaxRate', 00H		; `string'
CONST	ENDS
;	COMDAT ??_C@_0ED@KONCKI@LoadTaxInfo?$CI?$CJ?5?9?5taxDetail?5is?5wr@
CONST	SEGMENT
??_C@_0ED@KONCKI@LoadTaxInfo?$CI?$CJ?5?9?5taxDetail?5is?5wr@ DB 'LoadTaxI'
	DB	'nfo() - taxDetail is wrong, nContinent = %d, nTaxKind = %d', 00H ; `string'
CONST	ENDS
;	COMDAT ??_C@_08LMFOBNPO@nTaxKind@
CONST	SEGMENT
??_C@_08LMFOBNPO@nTaxKind@ DB 'nTaxKind', 00H		; `string'
CONST	ENDS
;	COMDAT ??_C@_0DG@HDJLKLGO@TAX_DETAIL_STR?5?8S2?8?0?5?8?$CF02d?8?0?5?$CFd@
CONST	SEGMENT
??_C@_0DG@HDJLKLGO@TAX_DETAIL_STR?5?8S2?8?0?5?8?$CF02d?8?0?5?$CFd@ DB 'TA'
	DB	'X_DETAIL_STR ''S2'', ''%02d'', %d, %d, 0, 0, 0, 0, 0, 0', 00H ; `string'
CONST	ENDS
;	COMDAT ??_C@_0M@HHPEIMLI@change_time@
CONST	SEGMENT
??_C@_0M@HHPEIMLI@change_time@ DB 'change_time', 00H	; `string'
CONST	ENDS
;	COMDAT ??_C@_0M@KKHJELKN@bSetTaxRate@
CONST	SEGMENT
??_C@_0M@KKHJELKN@bSetTaxRate@ DB 'bSetTaxRate', 00H	; `string'
CONST	ENDS
;	COMDAT ??_C@_08DEEAJDDG@dwNextID@
CONST	SEGMENT
??_C@_08DEEAJDDG@dwNextID@ DB 'dwNextID', 00H		; `string'
CONST	ENDS
;	COMDAT ??_C@_04EINJHNAE@dwID@
CONST	SEGMENT
??_C@_04EINJHNAE@dwID@ DB 'dwID', 00H			; `string'
CONST	ENDS
;	COMDAT ??_C@_0DE@DAPHDHAC@TAX_INFO_STR?5?8S2?8?0?5?8?$CF02d?8?0?5?$CFd?0?5@
CONST	SEGMENT
??_C@_0DE@DAPHDHAC@TAX_INFO_STR?5?8S2?8?0?5?8?$CF02d?8?0?5?$CFd?0?5@ DB 'T'
	DB	'AX_INFO_STR ''S2'', ''%02d'', %d, %d, ''0'', ''0'', 0, ''0''', 00H ; `string'
CONST	ENDS
;	COMDAT ??_C@_0L@MDNPPPLJ@GetNowDate@
CONST	SEGMENT
??_C@_0L@MDNPPPLJ@GetNowDate@ DB 'GetNowDate', 00H	; `string'
CONST	ENDS
;	COMDAT ??_C@_06DJGFEEME@nTimes@
CONST	SEGMENT
??_C@_06DJGFEEME@nTimes@ DB 'nTimes', 00H		; `string'
CONST	ENDS
;	COMDAT ??_C@_0DC@HDFAFDC@TAX_INFO_STR?5?8S1?8?0?5?8?$CF02d?8?0?50?0?50@
CONST	SEGMENT
??_C@_0DC@HDFAFDC@TAX_INFO_STR?5?8S1?8?0?5?8?$CF02d?8?0?50?0?50@ DB 'TAX_'
	DB	'INFO_STR ''S1'', ''%02d'', 0, 0, ''0'', ''0'', 0, ''0''', 00H ; `string'
CONST	ENDS
;	COMDAT ??_C@_0DC@PBFLEGFH@C?3?2IAGOS?2server?2v18?2Source?2Sour@
CONST	SEGMENT
??_C@_0DC@PBFLEGFH@C?3?2IAGOS?2server?2v18?2Source?2Sour@ DB 'C:\IAGOS\se'
	DB	'rver\v18\Source\Source\_Common\Tax.cpp', 00H ; `string'
CONST	ENDS
;	COMDAT ??_C@_0L@FONFFEJF@m_idPlayer@
CONST	SEGMENT
??_C@_0L@FONFFEJF@m_idPlayer@ DB 'm_idPlayer', 00H	; `string'
CONST	ENDS
;	COMDAT ??_C@_0DF@PKLOAGED@TAX_INFO_STR?5?8S3?8?0?5?8?$CF02d?8?0?50?0?50@
CONST	SEGMENT
??_C@_0DF@PKLOAGED@TAX_INFO_STR?5?8S3?8?0?5?8?$CF02d?8?0?50?0?50@ DB 'TAX'
	DB	'_INFO_STR ''S3'', ''%02d'', 0, 0, ''%07d'', ''0'', 0, ''0''', 00H ; `string'
CONST	ENDS
;	COMDAT ??_C@_0N@JMAFDKBD@CheckPayTime@
CONST	SEGMENT
??_C@_0N@JMAFDKBD@CheckPayTime@ DB 'CheckPayTime', 00H	; `string'
CONST	ENDS
;	COMDAT ??_C@_0BA@LNDBAGIB@CheckChangeTime@
CONST	SEGMENT
??_C@_0BA@LNDBAGIB@CheckChangeTime@ DB 'CheckChangeTime', 00H ; `string'
CONST	ENDS
;	COMDAT ??_C@_0BE@DCFJJNKF@tOccupationShopItem@
CONST	SEGMENT
??_C@_0BE@DCFJJNKF@tOccupationShopItem@ DB 'tOccupationShopItem', 00H ; `string'
CONST	ENDS
;	COMDAT ??_C@_0M@FELENEOA@DBSaveCount@
CONST	SEGMENT
??_C@_0M@FELENEOA@DBSaveCount@ DB 'DBSaveCount', 00H	; `string'
CONST	ENDS
;	COMDAT ??_C@_0BC@LCJMAADJ@AdmissionLordRate@
CONST	SEGMENT
??_C@_0BC@LCJMAADJ@AdmissionLordRate@ DB 'AdmissionLordRate', 00H ; `string'
CONST	ENDS
;	COMDAT ??_C@_0BI@LJACBDPE@AdmissionSecretRoomRate@
CONST	SEGMENT
??_C@_0BI@LJACBDPE@AdmissionSecretRoomRate@ DB 'AdmissionSecretRoomRate', 00H ; `string'
CONST	ENDS
;	COMDAT ??_C@_0M@JMFHEJJO@TaxLordRate@
CONST	SEGMENT
??_C@_0M@JMFHEJJO@TaxLordRate@ DB 'TaxLordRate', 00H	; `string'
CONST	ENDS
;	COMDAT ??_C@_0BC@HLGHAKHH@TaxSecretRoomRate@
CONST	SEGMENT
??_C@_0BC@HLGHAKHH@TaxSecretRoomRate@ DB 'TaxSecretRoomRate', 00H ; `string'
CONST	ENDS
;	COMDAT ??_C@_0L@GNBNHCBK@MaxTaxRate@
CONST	SEGMENT
??_C@_0L@GNBNHCBK@MaxTaxRate@ DB 'MaxTaxRate', 00H	; `string'
CONST	ENDS
;	COMDAT ??_C@_0L@KBBAAJBF@MinTaxRate@
CONST	SEGMENT
??_C@_0L@KBBAAJBF@MinTaxRate@ DB 'MinTaxRate', 00H	; `string'
CONST	ENDS
;	COMDAT ??_C@_0BH@GCMNILJK@Tax?4lua?5Run?5Failed?5?$CB?$CB?$CB@
CONST	SEGMENT
??_C@_0BH@GCMNILJK@Tax?4lua?5Run?5Failed?5?$CB?$CB?$CB@ DB 'Tax.lua Run F'
	DB	'ailed !!!', 00H				; `string'
CONST	ENDS
;	COMDAT ??_C@_07KANMDMNE@Tax?4lua@
CONST	SEGMENT
??_C@_07KANMDMNE@Tax?4lua@ DB 'Tax.lua', 00H		; `string'
CONST	ENDS
;	COMDAT ??_C@_0CI@EGGDFMCC@CTax?3?3GetTaxInfo?$CI?$CJ?5?9?5?$MA?$NP?$LI?x?$LF?H?5?$LE?k?$LH@
CONST	SEGMENT
??_C@_0CI@EGGDFMCC@CTax?3?3GetTaxInfo?$CI?$CJ?5?9?5?$MA?$NP?$LI?x?$LF?H?5?$LE?k?$LH@ DB 'C'
	DB	'Tax::GetTaxInfo() - ', 0c0H, 0dfH, 0b8H, 0f8H, 0b5H, 0c8H, ' '
	DB	0b4H, 0ebH, 0b7H, 0faH, 0c1H, 0a4H, 0baH, 0b8H, ' %x', 00H ; `string'
CONST	ENDS
;	COMDAT ??_C@_0CG@PBPHIFHD@CTax?5?9?5m_Controller?4CreateDbHan@
CONST	SEGMENT
??_C@_0CG@PBPHIFHD@CTax?5?9?5m_Controller?4CreateDbHan@ DB 'CTax - m_Cont'
	DB	'roller.CreateDbHandler()', 00H		; `string'
CONST	ENDS
;	COMDAT ??_7CTaxDBController@@6B@
CONST	SEGMENT
??_7CTaxDBController@@6B@ DD FLAT:??_R4CTaxDBController@@6B@ ; CTaxDBController::`vftable'
	DD	FLAT:??_ECTaxDBController@@UAEPAXI@Z
	DD	FLAT:?Handler@CTaxDBController@@UAEXPAUtagDB_OVERLAPPED_PLUS@@K@Z
	DD	FLAT:?OnTimer@CTaxDBController@@UAEXXZ
CONST	ENDS
;	COMDAT ??_R4bad_alloc@std@@6B@
rdata$r	SEGMENT
??_R4bad_alloc@std@@6B@ DD 00H				; std::bad_alloc::`RTTI Complete Object Locator'
	DD	00H
	DD	00H
	DD	FLAT:??_R0?AVbad_alloc@std@@@8
	DD	FLAT:??_R3bad_alloc@std@@8
rdata$r	ENDS
;	COMDAT ??_R2bad_alloc@std@@8
rdata$r	SEGMENT
??_R2bad_alloc@std@@8 DD FLAT:??_R1A@?0A@EA@bad_alloc@std@@8 ; std::bad_alloc::`RTTI Base Class Array'
	DD	FLAT:??_R1A@?0A@EA@exception@std@@8
rdata$r	ENDS
;	COMDAT ??_R3bad_alloc@std@@8
rdata$r	SEGMENT
??_R3bad_alloc@std@@8 DD 00H				; std::bad_alloc::`RTTI Class Hierarchy Descriptor'
	DD	00H
	DD	02H
	DD	FLAT:??_R2bad_alloc@std@@8
rdata$r	ENDS
;	COMDAT ??_R1A@?0A@EA@bad_alloc@std@@8
rdata$r	SEGMENT
??_R1A@?0A@EA@bad_alloc@std@@8 DD FLAT:??_R0?AVbad_alloc@std@@@8 ; std::bad_alloc::`RTTI Base Class Descriptor at (0,-1,0,64)'
	DD	01H
	DD	00H
	DD	0ffffffffH
	DD	00H
	DD	040H
	DD	FLAT:??_R3bad_alloc@std@@8
rdata$r	ENDS
;	COMDAT ??_R1A@?0A@EA@bad_array_new_length@std@@8
rdata$r	SEGMENT
??_R1A@?0A@EA@bad_array_new_length@std@@8 DD FLAT:??_R0?AVbad_array_new_length@std@@@8 ; std::bad_array_new_length::`RTTI Base Class Descriptor at (0,-1,0,64)'
	DD	02H
	DD	00H
	DD	0ffffffffH
	DD	00H
	DD	040H
	DD	FLAT:??_R3bad_array_new_length@std@@8
rdata$r	ENDS
;	COMDAT ??_R2bad_array_new_length@std@@8
rdata$r	SEGMENT
??_R2bad_array_new_length@std@@8 DD FLAT:??_R1A@?0A@EA@bad_array_new_length@std@@8 ; std::bad_array_new_length::`RTTI Base Class Array'
	DD	FLAT:??_R1A@?0A@EA@bad_alloc@std@@8
	DD	FLAT:??_R1A@?0A@EA@exception@std@@8
rdata$r	ENDS
;	COMDAT ??_R3bad_array_new_length@std@@8
rdata$r	SEGMENT
??_R3bad_array_new_length@std@@8 DD 00H			; std::bad_array_new_length::`RTTI Class Hierarchy Descriptor'
	DD	00H
	DD	03H
	DD	FLAT:??_R2bad_array_new_length@std@@8
rdata$r	ENDS
;	COMDAT ??_R4bad_array_new_length@std@@6B@
rdata$r	SEGMENT
??_R4bad_array_new_length@std@@6B@ DD 00H		; std::bad_array_new_length::`RTTI Complete Object Locator'
	DD	00H
	DD	00H
	DD	FLAT:??_R0?AVbad_array_new_length@std@@@8
	DD	FLAT:??_R3bad_array_new_length@std@@8
rdata$r	ENDS
;	COMDAT ??_R1A@?0A@EA@exception@std@@8
rdata$r	SEGMENT
??_R1A@?0A@EA@exception@std@@8 DD FLAT:??_R0?AVexception@std@@@8 ; std::exception::`RTTI Base Class Descriptor at (0,-1,0,64)'
	DD	00H
	DD	00H
	DD	0ffffffffH
	DD	00H
	DD	040H
	DD	FLAT:??_R3exception@std@@8
rdata$r	ENDS
;	COMDAT ??_R2exception@std@@8
rdata$r	SEGMENT
??_R2exception@std@@8 DD FLAT:??_R1A@?0A@EA@exception@std@@8 ; std::exception::`RTTI Base Class Array'
rdata$r	ENDS
;	COMDAT ??_R3exception@std@@8
rdata$r	SEGMENT
??_R3exception@std@@8 DD 00H				; std::exception::`RTTI Class Hierarchy Descriptor'
	DD	00H
	DD	01H
	DD	FLAT:??_R2exception@std@@8
rdata$r	ENDS
;	COMDAT ??_R4exception@std@@6B@
rdata$r	SEGMENT
??_R4exception@std@@6B@ DD 00H				; std::exception::`RTTI Complete Object Locator'
	DD	00H
	DD	00H
	DD	FLAT:??_R0?AVexception@std@@@8
	DD	FLAT:??_R3exception@std@@8
rdata$r	ENDS
;	COMDAT ??_C@_0BA@FOIKENOD@vector?5too?5long@
CONST	SEGMENT
??_C@_0BA@FOIKENOD@vector?5too?5long@ DB 'vector too long', 00H ; `string'
CONST	ENDS
;	COMDAT ??_C@_09GBAEEKDE@?$CFs?0?5?$CFd?7?$CFs@
CONST	SEGMENT
??_C@_09GBAEEKDE@?$CFs?0?5?$CFd?7?$CFs@ DB '%s, %d', 09H, '%s', 00H ; `string'
CONST	ENDS
;	COMDAT ??_C@_0BB@GCADKGJO@map?1set?5too?5long@
CONST	SEGMENT
??_C@_0BB@GCADKGJO@map?1set?5too?5long@ DB 'map/set too long', 00H ; `string'
CONST	ENDS
;	COMDAT ??_C@_0BA@JFNIOLAK@string?5too?5long@
CONST	SEGMENT
??_C@_0BA@JFNIOLAK@string?5too?5long@ DB 'string too long', 00H ; `string'
CONST	ENDS
;	COMDAT __CT??_R0?AVbad_alloc@std@@@8??0bad_alloc@std@@QAE@ABV01@@Z12
xdata$x	SEGMENT
__CT??_R0?AVbad_alloc@std@@@8??0bad_alloc@std@@QAE@ABV01@@Z12 DD 010H
	DD	FLAT:??_R0?AVbad_alloc@std@@@8
	DD	00H
	DD	0ffffffffH
	ORG $+4
	DD	0cH
	DD	FLAT:??0bad_alloc@std@@QAE@ABV01@@Z
xdata$x	ENDS
;	COMDAT ??_R0?AVbad_alloc@std@@@8
data$r	SEGMENT
??_R0?AVbad_alloc@std@@@8 DD FLAT:??_7type_info@@6B@	; std::bad_alloc `RTTI Type Descriptor'
	DD	00H
	DB	'.?AVbad_alloc@std@@', 00H
data$r	ENDS
;	COMDAT __CT??_R0?AVbad_array_new_length@std@@@8??0bad_array_new_length@std@@QAE@ABV01@@Z12
xdata$x	SEGMENT
__CT??_R0?AVbad_array_new_length@std@@@8??0bad_array_new_length@std@@QAE@ABV01@@Z12 DD 00H
	DD	FLAT:??_R0?AVbad_array_new_length@std@@@8
	DD	00H
	DD	0ffffffffH
	ORG $+4
	DD	0cH
	DD	FLAT:??0bad_array_new_length@std@@QAE@ABV01@@Z
xdata$x	ENDS
;	COMDAT ??_R0?AVbad_array_new_length@std@@@8
data$r	SEGMENT
??_R0?AVbad_array_new_length@std@@@8 DD FLAT:??_7type_info@@6B@ ; std::bad_array_new_length `RTTI Type Descriptor'
	DD	00H
	DB	'.?AVbad_array_new_length@std@@', 00H
data$r	ENDS
;	COMDAT __CTA3?AVbad_array_new_length@std@@
xdata$x	SEGMENT
__CTA3?AVbad_array_new_length@std@@ DD 03H
	DD	FLAT:__CT??_R0?AVbad_array_new_length@std@@@8??0bad_array_new_length@std@@QAE@ABV01@@Z12
	DD	FLAT:__CT??_R0?AVbad_alloc@std@@@8??0bad_alloc@std@@QAE@ABV01@@Z12
	DD	FLAT:__CT??_R0?AVexception@std@@@8??0exception@std@@QAE@ABV01@@Z12
xdata$x	ENDS
;	COMDAT __TI3?AVbad_array_new_length@std@@
xdata$x	SEGMENT
__TI3?AVbad_array_new_length@std@@ DD 00H
	DD	FLAT:??1bad_array_new_length@std@@UAE@XZ
	DD	00H
	DD	FLAT:__CTA3?AVbad_array_new_length@std@@
xdata$x	ENDS
;	COMDAT __CT??_R0?AVexception@std@@@8??0exception@std@@QAE@ABV01@@Z12
xdata$x	SEGMENT
__CT??_R0?AVexception@std@@@8??0exception@std@@QAE@ABV01@@Z12 DD 00H
	DD	FLAT:??_R0?AVexception@std@@@8
	DD	00H
	DD	0ffffffffH
	ORG $+4
	DD	0cH
	DD	FLAT:??0exception@std@@QAE@ABV01@@Z
xdata$x	ENDS
;	COMDAT ??_R0?AVexception@std@@@8
data$r	SEGMENT
??_R0?AVexception@std@@@8 DD FLAT:??_7type_info@@6B@	; std::exception `RTTI Type Descriptor'
	DD	00H
	DB	'.?AVexception@std@@', 00H
data$r	ENDS
;	COMDAT ??_C@_0BF@KINCDENJ@bad?5array?5new?5length@
CONST	SEGMENT
??_C@_0BF@KINCDENJ@bad?5array?5new?5length@ DB 'bad array new length', 00H ; `string'
CONST	ENDS
;	COMDAT ??_7bad_array_new_length@std@@6B@
CONST	SEGMENT
??_7bad_array_new_length@std@@6B@ DD FLAT:??_R4bad_array_new_length@std@@6B@ ; std::bad_array_new_length::`vftable'
	DD	FLAT:??_Ebad_array_new_length@std@@UAEPAXI@Z
	DD	FLAT:?what@exception@std@@UBEPBDXZ
CONST	ENDS
;	COMDAT ??_7bad_alloc@std@@6B@
CONST	SEGMENT
??_7bad_alloc@std@@6B@ DD FLAT:??_R4bad_alloc@std@@6B@	; std::bad_alloc::`vftable'
	DD	FLAT:??_Ebad_alloc@std@@UAEPAXI@Z
	DD	FLAT:?what@exception@std@@UBEPBDXZ
CONST	ENDS
;	COMDAT ??_C@_0BC@EOODALEL@Unknown?5exception@
CONST	SEGMENT
??_C@_0BC@EOODALEL@Unknown?5exception@ DB 'Unknown exception', 00H ; `string'
CONST	ENDS
;	COMDAT ??_7exception@std@@6B@
CONST	SEGMENT
??_7exception@std@@6B@ DD FLAT:??_R4exception@std@@6B@	; std::exception::`vftable'
	DD	FLAT:??_Eexception@std@@UAEPAXI@Z
	DD	FLAT:?what@exception@std@@UBEPBDXZ
CONST	ENDS
;	COMDAT ??_C@_00CNPNBAHC@@
CONST	SEGMENT
??_C@_00CNPNBAHC@@ DB 00H				; `string'
CONST	ENDS
;	COMDAT xdata$x
xdata$x	SEGMENT
__unwindtable$??$?0U?$pair@HPAU__TAXINFO@@@std@@@?$_Tree_temp_node@V?$allocator@U?$_Tree_node@U?$pair@$$CBEPAU__TAXINFO@@@std@@PAX@std@@@std@@@std@@QAE@AAV?$allocator@U?$_Tree_node@U?$pair@$$CBEPAU__TAXINFO@@@std@@PAX@std@@@1@PAU?$_Tree_node@U?$pair@$$CBEPAU__TAXINFO@@@std@@PAX@1@$$QAU?$pair@HPAU__TAXINFO@@@1@@Z DD 0ffffffffH
	DD	FLAT:__unwindfunclet$??$?0U?$pair@HPAU__TAXINFO@@@std@@@?$_Tree_temp_node@V?$allocator@U?$_Tree_node@U?$pair@$$CBEPAU__TAXINFO@@@std@@PAX@std@@@std@@@std@@QAE@AAV?$allocator@U?$_Tree_node@U?$pair@$$CBEPAU__TAXINFO@@@std@@PAX@std@@@1@PAU?$_Tree_node@U?$pair@$$CBEPAU__TAXINFO@@@std@@PAX@1@$$QAU?$pair@HPAU__TAXINFO@@@1@@Z$1
__ehfuncinfo$??$?0U?$pair@HPAU__TAXINFO@@@std@@@?$_Tree_temp_node@V?$allocator@U?$_Tree_node@U?$pair@$$CBEPAU__TAXINFO@@@std@@PAX@std@@@std@@@std@@QAE@AAV?$allocator@U?$_Tree_node@U?$pair@$$CBEPAU__TAXINFO@@@std@@PAX@std@@@1@PAU?$_Tree_node@U?$pair@$$CBEPAU__TAXINFO@@@std@@PAX@1@$$QAU?$pair@HPAU__TAXINFO@@@1@@Z DD 019930522H
	DD	01H
	DD	FLAT:__unwindtable$??$?0U?$pair@HPAU__TAXINFO@@@std@@@?$_Tree_temp_node@V?$allocator@U?$_Tree_node@U?$pair@$$CBEPAU__TAXINFO@@@std@@PAX@std@@@std@@@std@@QAE@AAV?$allocator@U?$_Tree_node@U?$pair@$$CBEPAU__TAXINFO@@@std@@PAX@std@@@1@PAU?$_Tree_node@U?$pair@$$CBEPAU__TAXINFO@@@std@@PAX@1@$$QAU?$pair@HPAU__TAXINFO@@@1@@Z
	DD	2 DUP(00H)
	DD	2 DUP(00H)
	DD	00H
	DD	01H
xdata$x	ENDS
;	COMDAT xdata$x
xdata$x	SEGMENT
__unwindtable$??0?$_Tree_temp_node_alloc@V?$allocator@U?$_Tree_node@U?$pair@$$CBEPAU__TAXINFO@@@std@@PAX@std@@@std@@@std@@QAE@AAV?$allocator@U?$_Tree_node@U?$pair@$$CBEPAU__TAXINFO@@@std@@PAX@std@@@1@@Z DD 0ffffffffH
	DD	FLAT:__unwindfunclet$??0?$_Tree_temp_node_alloc@V?$allocator@U?$_Tree_node@U?$pair@$$CBEPAU__TAXINFO@@@std@@PAX@std@@@std@@@std@@QAE@AAV?$allocator@U?$_Tree_node@U?$pair@$$CBEPAU__TAXINFO@@@std@@PAX@std@@@1@@Z$0
__ehfuncinfo$??0?$_Tree_temp_node_alloc@V?$allocator@U?$_Tree_node@U?$pair@$$CBEPAU__TAXINFO@@@std@@PAX@std@@@std@@@std@@QAE@AAV?$allocator@U?$_Tree_node@U?$pair@$$CBEPAU__TAXINFO@@@std@@PAX@std@@@1@@Z DD 019930522H
	DD	01H
	DD	FLAT:__unwindtable$??0?$_Tree_temp_node_alloc@V?$allocator@U?$_Tree_node@U?$pair@$$CBEPAU__TAXINFO@@@std@@PAX@std@@@std@@@std@@QAE@AAV?$allocator@U?$_Tree_node@U?$pair@$$CBEPAU__TAXINFO@@@std@@PAX@std@@@1@@Z
	DD	2 DUP(00H)
	DD	2 DUP(00H)
	DD	00H
	DD	01H
xdata$x	ENDS
;	COMDAT xdata$x
xdata$x	SEGMENT
__unwindtable$??$?0U?$pair@EPAU__TAXDETAIL@@@std@@@?$_Tree_temp_node@V?$allocator@U?$_Tree_node@U?$pair@$$CBEPAU__TAXDETAIL@@@std@@PAX@std@@@std@@@std@@QAE@AAV?$allocator@U?$_Tree_node@U?$pair@$$CBEPAU__TAXDETAIL@@@std@@PAX@std@@@1@PAU?$_Tree_node@U?$pair@$$CBEPAU__TAXDETAIL@@@std@@PAX@1@$$QAU?$pair@EPAU__TAXDETAIL@@@1@@Z DD 0ffffffffH
	DD	FLAT:__unwindfunclet$??$?0U?$pair@EPAU__TAXDETAIL@@@std@@@?$_Tree_temp_node@V?$allocator@U?$_Tree_node@U?$pair@$$CBEPAU__TAXDETAIL@@@std@@PAX@std@@@std@@@std@@QAE@AAV?$allocator@U?$_Tree_node@U?$pair@$$CBEPAU__TAXDETAIL@@@std@@PAX@std@@@1@PAU?$_Tree_node@U?$pair@$$CBEPAU__TAXDETAIL@@@std@@PAX@1@$$QAU?$pair@EPAU__TAXDETAIL@@@1@@Z$1
__ehfuncinfo$??$?0U?$pair@EPAU__TAXDETAIL@@@std@@@?$_Tree_temp_node@V?$allocator@U?$_Tree_node@U?$pair@$$CBEPAU__TAXDETAIL@@@std@@PAX@std@@@std@@@std@@QAE@AAV?$allocator@U?$_Tree_node@U?$pair@$$CBEPAU__TAXDETAIL@@@std@@PAX@std@@@1@PAU?$_Tree_node@U?$pair@$$CBEPAU__TAXDETAIL@@@std@@PAX@1@$$QAU?$pair@EPAU__TAXDETAIL@@@1@@Z DD 019930522H
	DD	01H
	DD	FLAT:__unwindtable$??$?0U?$pair@EPAU__TAXDETAIL@@@std@@@?$_Tree_temp_node@V?$allocator@U?$_Tree_node@U?$pair@$$CBEPAU__TAXDETAIL@@@std@@PAX@std@@@std@@@std@@QAE@AAV?$allocator@U?$_Tree_node@U?$pair@$$CBEPAU__TAXDETAIL@@@std@@PAX@std@@@1@PAU?$_Tree_node@U?$pair@$$CBEPAU__TAXDETAIL@@@std@@PAX@1@$$QAU?$pair@EPAU__TAXDETAIL@@@1@@Z
	DD	2 DUP(00H)
	DD	2 DUP(00H)
	DD	00H
	DD	01H
xdata$x	ENDS
;	COMDAT xdata$x
xdata$x	SEGMENT
__unwindtable$??0?$_Tree_temp_node_alloc@V?$allocator@U?$_Tree_node@U?$pair@$$CBEPAU__TAXDETAIL@@@std@@PAX@std@@@std@@@std@@QAE@AAV?$allocator@U?$_Tree_node@U?$pair@$$CBEPAU__TAXDETAIL@@@std@@PAX@std@@@1@@Z DD 0ffffffffH
	DD	FLAT:__unwindfunclet$??0?$_Tree_temp_node_alloc@V?$allocator@U?$_Tree_node@U?$pair@$$CBEPAU__TAXDETAIL@@@std@@PAX@std@@@std@@@std@@QAE@AAV?$allocator@U?$_Tree_node@U?$pair@$$CBEPAU__TAXDETAIL@@@std@@PAX@std@@@1@@Z$0
__ehfuncinfo$??0?$_Tree_temp_node_alloc@V?$allocator@U?$_Tree_node@U?$pair@$$CBEPAU__TAXDETAIL@@@std@@PAX@std@@@std@@@std@@QAE@AAV?$allocator@U?$_Tree_node@U?$pair@$$CBEPAU__TAXDETAIL@@@std@@PAX@std@@@1@@Z DD 019930522H
	DD	01H
	DD	FLAT:__unwindtable$??0?$_Tree_temp_node_alloc@V?$allocator@U?$_Tree_node@U?$pair@$$CBEPAU__TAXDETAIL@@@std@@PAX@std@@@std@@@std@@QAE@AAV?$allocator@U?$_Tree_node@U?$pair@$$CBEPAU__TAXDETAIL@@@std@@PAX@std@@@1@@Z
	DD	2 DUP(00H)
	DD	2 DUP(00H)
	DD	00H
	DD	01H
xdata$x	ENDS
;	COMDAT xdata$x
xdata$x	SEGMENT
__unwindtable$??$_Emplace@U?$pair@HPAU__TAXINFO@@@std@@@?$_Tree@V?$_Tmap_traits@EPAU__TAXINFO@@U?$less@E@std@@V?$allocator@U?$pair@$$CBEPAU__TAXINFO@@@std@@@3@$0A@@std@@@std@@IAE?AU?$pair@PAU?$_Tree_node@U?$pair@$$CBEPAU__TAXINFO@@@std@@PAX@std@@_N@1@$$QAU?$pair@HPAU__TAXINFO@@@1@@Z DD 0ffffffffH
	DD	FLAT:__unwindfunclet$??$_Emplace@U?$pair@HPAU__TAXINFO@@@std@@@?$_Tree@V?$_Tmap_traits@EPAU__TAXINFO@@U?$less@E@std@@V?$allocator@U?$pair@$$CBEPAU__TAXINFO@@@std@@@3@$0A@@std@@@std@@IAE?AU?$pair@PAU?$_Tree_node@U?$pair@$$CBEPAU__TAXINFO@@@std@@PAX@std@@_N@1@$$QAU?$pair@HPAU__TAXINFO@@@1@@Z$2
	DD	0ffffffffH
	DD	FLAT:__unwindfunclet$??$_Emplace@U?$pair@HPAU__TAXINFO@@@std@@@?$_Tree@V?$_Tmap_traits@EPAU__TAXINFO@@U?$less@E@std@@V?$allocator@U?$pair@$$CBEPAU__TAXINFO@@@std@@@3@$0A@@std@@@std@@IAE?AU?$pair@PAU?$_Tree_node@U?$pair@$$CBEPAU__TAXINFO@@@std@@PAX@std@@_N@1@$$QAU?$pair@HPAU__TAXINFO@@@1@@Z$0
__ehfuncinfo$??$_Emplace@U?$pair@HPAU__TAXINFO@@@std@@@?$_Tree@V?$_Tmap_traits@EPAU__TAXINFO@@U?$less@E@std@@V?$allocator@U?$pair@$$CBEPAU__TAXINFO@@@std@@@3@$0A@@std@@@std@@IAE?AU?$pair@PAU?$_Tree_node@U?$pair@$$CBEPAU__TAXINFO@@@std@@PAX@std@@_N@1@$$QAU?$pair@HPAU__TAXINFO@@@1@@Z DD 019930522H
	DD	02H
	DD	FLAT:__unwindtable$??$_Emplace@U?$pair@HPAU__TAXINFO@@@std@@@?$_Tree@V?$_Tmap_traits@EPAU__TAXINFO@@U?$less@E@std@@V?$allocator@U?$pair@$$CBEPAU__TAXINFO@@@std@@@3@$0A@@std@@@std@@IAE?AU?$pair@PAU?$_Tree_node@U?$pair@$$CBEPAU__TAXINFO@@@std@@PAX@std@@_N@1@$$QAU?$pair@HPAU__TAXINFO@@@1@@Z
	DD	2 DUP(00H)
	DD	2 DUP(00H)
	DD	00H
	DD	01H
xdata$x	ENDS
;	COMDAT xdata$x
xdata$x	SEGMENT
__unwindtable$??$_Emplace@U?$pair@EPAU__TAXDETAIL@@@std@@@?$_Tree@V?$_Tmap_traits@EPAU__TAXDETAIL@@U?$less@E@std@@V?$allocator@U?$pair@$$CBEPAU__TAXDETAIL@@@std@@@3@$0A@@std@@@std@@IAE?AU?$pair@PAU?$_Tree_node@U?$pair@$$CBEPAU__TAXDETAIL@@@std@@PAX@std@@_N@1@$$QAU?$pair@EPAU__TAXDETAIL@@@1@@Z DD 0ffffffffH
	DD	FLAT:__unwindfunclet$??$_Emplace@U?$pair@EPAU__TAXDETAIL@@@std@@@?$_Tree@V?$_Tmap_traits@EPAU__TAXDETAIL@@U?$less@E@std@@V?$allocator@U?$pair@$$CBEPAU__TAXDETAIL@@@std@@@3@$0A@@std@@@std@@IAE?AU?$pair@PAU?$_Tree_node@U?$pair@$$CBEPAU__TAXDETAIL@@@std@@PAX@std@@_N@1@$$QAU?$pair@EPAU__TAXDETAIL@@@1@@Z$2
__ehfuncinfo$??$_Emplace@U?$pair@EPAU__TAXDETAIL@@@std@@@?$_Tree@V?$_Tmap_traits@EPAU__TAXDETAIL@@U?$less@E@std@@V?$allocator@U?$pair@$$CBEPAU__TAXDETAIL@@@std@@@3@$0A@@std@@@std@@IAE?AU?$pair@PAU?$_Tree_node@U?$pair@$$CBEPAU__TAXDETAIL@@@std@@PAX@std@@_N@1@$$QAU?$pair@EPAU__TAXDETAIL@@@1@@Z DD 019930522H
	DD	01H
	DD	FLAT:__unwindtable$??$_Emplace@U?$pair@EPAU__TAXDETAIL@@@std@@@?$_Tree@V?$_Tmap_traits@EPAU__TAXDETAIL@@U?$less@E@std@@V?$allocator@U?$pair@$$CBEPAU__TAXDETAIL@@@std@@@3@$0A@@std@@@std@@IAE?AU?$pair@PAU?$_Tree_node@U?$pair@$$CBEPAU__TAXDETAIL@@@std@@PAX@std@@_N@1@$$QAU?$pair@EPAU__TAXDETAIL@@@1@@Z
	DD	2 DUP(00H)
	DD	2 DUP(00H)
	DD	00H
	DD	01H
xdata$x	ENDS
;	COMDAT xdata$x
xdata$x	SEGMENT
__unwindtable$??$emplace@U?$pair@HPAU__TAXINFO@@@std@@@?$_Tree@V?$_Tmap_traits@EPAU__TAXINFO@@U?$less@E@std@@V?$allocator@U?$pair@$$CBEPAU__TAXINFO@@@std@@@3@$0A@@std@@@std@@QAE?AU?$pair@V?$_Tree_iterator@V?$_Tree_val@U?$_Tree_simple_types@U?$pair@$$CBEPAU__TAXINFO@@@std@@@std@@@std@@@std@@_N@1@$$QAU?$pair@HPAU__TAXINFO@@@1@@Z DD 0ffffffffH
	DD	FLAT:__unwindfunclet$??$emplace@U?$pair@HPAU__TAXINFO@@@std@@@?$_Tree@V?$_Tmap_traits@EPAU__TAXINFO@@U?$less@E@std@@V?$allocator@U?$pair@$$CBEPAU__TAXINFO@@@std@@@3@$0A@@std@@@std@@QAE?AU?$pair@V?$_Tree_iterator@V?$_Tree_val@U?$_Tree_simple_types@U?$pair@$$CBEPAU__TAXINFO@@@std@@@std@@@std@@@std@@_N@1@$$QAU?$pair@HPAU__TAXINFO@@@1@@Z$2
	DD	0ffffffffH
	DD	FLAT:__unwindfunclet$??$emplace@U?$pair@HPAU__TAXINFO@@@std@@@?$_Tree@V?$_Tmap_traits@EPAU__TAXINFO@@U?$less@E@std@@V?$allocator@U?$pair@$$CBEPAU__TAXINFO@@@std@@@3@$0A@@std@@@std@@QAE?AU?$pair@V?$_Tree_iterator@V?$_Tree_val@U?$_Tree_simple_types@U?$pair@$$CBEPAU__TAXINFO@@@std@@@std@@@std@@@std@@_N@1@$$QAU?$pair@HPAU__TAXINFO@@@1@@Z$0
__ehfuncinfo$??$emplace@U?$pair@HPAU__TAXINFO@@@std@@@?$_Tree@V?$_Tmap_traits@EPAU__TAXINFO@@U?$less@E@std@@V?$allocator@U?$pair@$$CBEPAU__TAXINFO@@@std@@@3@$0A@@std@@@std@@QAE?AU?$pair@V?$_Tree_iterator@V?$_Tree_val@U?$_Tree_simple_types@U?$pair@$$CBEPAU__TAXINFO@@@std@@@std@@@std@@@std@@_N@1@$$QAU?$pair@HPAU__TAXINFO@@@1@@Z DD 019930522H
	DD	02H
	DD	FLAT:__unwindtable$??$emplace@U?$pair@HPAU__TAXINFO@@@std@@@?$_Tree@V?$_Tmap_traits@EPAU__TAXINFO@@U?$less@E@std@@V?$allocator@U?$pair@$$CBEPAU__TAXINFO@@@std@@@3@$0A@@std@@@std@@QAE?AU?$pair@V?$_Tree_iterator@V?$_Tree_val@U?$_Tree_simple_types@U?$pair@$$CBEPAU__TAXINFO@@@std@@@std@@@std@@@std@@_N@1@$$QAU?$pair@HPAU__TAXINFO@@@1@@Z
	DD	2 DUP(00H)
	DD	2 DUP(00H)
	DD	00H
	DD	01H
xdata$x	ENDS
;	COMDAT xdata$x
xdata$x	SEGMENT
__unwindtable$??$emplace@U?$pair@EPAU__TAXDETAIL@@@std@@@?$_Tree@V?$_Tmap_traits@EPAU__TAXDETAIL@@U?$less@E@std@@V?$allocator@U?$pair@$$CBEPAU__TAXDETAIL@@@std@@@3@$0A@@std@@@std@@QAE?AU?$pair@V?$_Tree_iterator@V?$_Tree_val@U?$_Tree_simple_types@U?$pair@$$CBEPAU__TAXDETAIL@@@std@@@std@@@std@@@std@@_N@1@$$QAU?$pair@EPAU__TAXDETAIL@@@1@@Z DD 0ffffffffH
	DD	FLAT:__unwindfunclet$??$emplace@U?$pair@EPAU__TAXDETAIL@@@std@@@?$_Tree@V?$_Tmap_traits@EPAU__TAXDETAIL@@U?$less@E@std@@V?$allocator@U?$pair@$$CBEPAU__TAXDETAIL@@@std@@@3@$0A@@std@@@std@@QAE?AU?$pair@V?$_Tree_iterator@V?$_Tree_val@U?$_Tree_simple_types@U?$pair@$$CBEPAU__TAXDETAIL@@@std@@@std@@@std@@@std@@_N@1@$$QAU?$pair@EPAU__TAXDETAIL@@@1@@Z$2
__ehfuncinfo$??$emplace@U?$pair@EPAU__TAXDETAIL@@@std@@@?$_Tree@V?$_Tmap_traits@EPAU__TAXDETAIL@@U?$less@E@std@@V?$allocator@U?$pair@$$CBEPAU__TAXDETAIL@@@std@@@3@$0A@@std@@@std@@QAE?AU?$pair@V?$_Tree_iterator@V?$_Tree_val@U?$_Tree_simple_types@U?$pair@$$CBEPAU__TAXDETAIL@@@std@@@std@@@std@@@std@@_N@1@$$QAU?$pair@EPAU__TAXDETAIL@@@1@@Z DD 019930522H
	DD	01H
	DD	FLAT:__unwindtable$??$emplace@U?$pair@EPAU__TAXDETAIL@@@std@@@?$_Tree@V?$_Tmap_traits@EPAU__TAXDETAIL@@U?$less@E@std@@V?$allocator@U?$pair@$$CBEPAU__TAXDETAIL@@@std@@@3@$0A@@std@@@std@@QAE?AU?$pair@V?$_Tree_iterator@V?$_Tree_val@U?$_Tree_simple_types@U?$pair@$$CBEPAU__TAXDETAIL@@@std@@@std@@@std@@@std@@_N@1@$$QAU?$pair@EPAU__TAXDETAIL@@@1@@Z
	DD	2 DUP(00H)
	DD	2 DUP(00H)
	DD	00H
	DD	01H
xdata$x	ENDS
;	COMDAT xdata$x
xdata$x	SEGMENT
__unwindtable$??$insert@U?$pair@HPAU__TAXINFO@@@std@@$0A@@?$map@EPAU__TAXINFO@@U?$less@E@std@@V?$allocator@U?$pair@$$CBEPAU__TAXINFO@@@std@@@3@@std@@QAE?AU?$pair@V?$_Tree_iterator@V?$_Tree_val@U?$_Tree_simple_types@U?$pair@$$CBEPAU__TAXINFO@@@std@@@std@@@std@@@std@@_N@1@$$QAU?$pair@HPAU__TAXINFO@@@1@@Z DD 0ffffffffH
	DD	FLAT:__unwindfunclet$??$insert@U?$pair@HPAU__TAXINFO@@@std@@$0A@@?$map@EPAU__TAXINFO@@U?$less@E@std@@V?$allocator@U?$pair@$$CBEPAU__TAXINFO@@@std@@@3@@std@@QAE?AU?$pair@V?$_Tree_iterator@V?$_Tree_val@U?$_Tree_simple_types@U?$pair@$$CBEPAU__TAXINFO@@@std@@@std@@@std@@@std@@_N@1@$$QAU?$pair@HPAU__TAXINFO@@@1@@Z$2
	DD	0ffffffffH
	DD	FLAT:__unwindfunclet$??$insert@U?$pair@HPAU__TAXINFO@@@std@@$0A@@?$map@EPAU__TAXINFO@@U?$less@E@std@@V?$allocator@U?$pair@$$CBEPAU__TAXINFO@@@std@@@3@@std@@QAE?AU?$pair@V?$_Tree_iterator@V?$_Tree_val@U?$_Tree_simple_types@U?$pair@$$CBEPAU__TAXINFO@@@std@@@std@@@std@@@std@@_N@1@$$QAU?$pair@HPAU__TAXINFO@@@1@@Z$0
__ehfuncinfo$??$insert@U?$pair@HPAU__TAXINFO@@@std@@$0A@@?$map@EPAU__TAXINFO@@U?$less@E@std@@V?$allocator@U?$pair@$$CBEPAU__TAXINFO@@@std@@@3@@std@@QAE?AU?$pair@V?$_Tree_iterator@V?$_Tree_val@U?$_Tree_simple_types@U?$pair@$$CBEPAU__TAXINFO@@@std@@@std@@@std@@@std@@_N@1@$$QAU?$pair@HPAU__TAXINFO@@@1@@Z DD 019930522H
	DD	02H
	DD	FLAT:__unwindtable$??$insert@U?$pair@HPAU__TAXINFO@@@std@@$0A@@?$map@EPAU__TAXINFO@@U?$less@E@std@@V?$allocator@U?$pair@$$CBEPAU__TAXINFO@@@std@@@3@@std@@QAE?AU?$pair@V?$_Tree_iterator@V?$_Tree_val@U?$_Tree_simple_types@U?$pair@$$CBEPAU__TAXINFO@@@std@@@std@@@std@@@std@@_N@1@$$QAU?$pair@HPAU__TAXINFO@@@1@@Z
	DD	2 DUP(00H)
	DD	2 DUP(00H)
	DD	00H
	DD	01H
xdata$x	ENDS
;	COMDAT xdata$x
xdata$x	SEGMENT
__unwindtable$?GetInstance@CTax@@SAPAV1@XZ DD 0ffffffffH
	DD	FLAT:__unwindfunclet$?GetInstance@CTax@@SAPAV1@XZ$0
__ehfuncinfo$?GetInstance@CTax@@SAPAV1@XZ DD 019930522H
	DD	01H
	DD	FLAT:__unwindtable$?GetInstance@CTax@@SAPAV1@XZ
	DD	2 DUP(00H)
	DD	2 DUP(00H)
	DD	00H
	DD	01H
xdata$x	ENDS
;	COMDAT xdata$x
xdata$x	SEGMENT
__ehfuncinfo$??1CTax@@QAE@XZ DD 019930522H
	DD	00H
	DD	00H
	DD	2 DUP(00H)
	DD	2 DUP(00H)
	DD	00H
	DD	05H
xdata$x	ENDS
;	COMDAT xdata$x
xdata$x	SEGMENT
__ehfuncinfo$??0CTax@@QAE@XZ DD 019930522H
	DD	08H
	DD	FLAT:__unwindtable$??0CTax@@QAE@XZ
	DD	2 DUP(00H)
	DD	2 DUP(00H)
	DD	00H
	DD	01H
__unwindtable$??0CTax@@QAE@XZ DD 0ffffffffH
	DD	FLAT:__unwindfunclet$??0CTax@@QAE@XZ$0
	DD	00H
	DD	FLAT:__unwindfunclet$??0CTax@@QAE@XZ$1
	DD	01H
	DD	FLAT:__unwindfunclet$??0CTax@@QAE@XZ$2
	DD	02H
	DD	FLAT:__unwindfunclet$??0CTax@@QAE@XZ$3
	DD	03H
	DD	FLAT:__unwindfunclet$??0CTax@@QAE@XZ$4
	DD	04H
	DD	FLAT:__unwindfunclet$??0CTax@@QAE@XZ$5
	DD	04H
	DD	FLAT:__unwindfunclet$??0CTax@@QAE@XZ$7
	DD	04H
	DD	FLAT:__unwindfunclet$??0CTax@@QAE@XZ$8
xdata$x	ENDS
;	COMDAT xdata$x
xdata$x	SEGMENT
__unwindtable$??$insert@U?$pair@EPAU__TAXDETAIL@@@std@@$0A@@?$map@EPAU__TAXDETAIL@@U?$less@E@std@@V?$allocator@U?$pair@$$CBEPAU__TAXDETAIL@@@std@@@3@@std@@QAE?AU?$pair@V?$_Tree_iterator@V?$_Tree_val@U?$_Tree_simple_types@U?$pair@$$CBEPAU__TAXDETAIL@@@std@@@std@@@std@@@std@@_N@1@$$QAU?$pair@EPAU__TAXDETAIL@@@1@@Z DD 0ffffffffH
	DD	FLAT:__unwindfunclet$??$insert@U?$pair@EPAU__TAXDETAIL@@@std@@$0A@@?$map@EPAU__TAXDETAIL@@U?$less@E@std@@V?$allocator@U?$pair@$$CBEPAU__TAXDETAIL@@@std@@@3@@std@@QAE?AU?$pair@V?$_Tree_iterator@V?$_Tree_val@U?$_Tree_simple_types@U?$pair@$$CBEPAU__TAXDETAIL@@@std@@@std@@@std@@@std@@_N@1@$$QAU?$pair@EPAU__TAXDETAIL@@@1@@Z$2
__ehfuncinfo$??$insert@U?$pair@EPAU__TAXDETAIL@@@std@@$0A@@?$map@EPAU__TAXDETAIL@@U?$less@E@std@@V?$allocator@U?$pair@$$CBEPAU__TAXDETAIL@@@std@@@3@@std@@QAE?AU?$pair@V?$_Tree_iterator@V?$_Tree_val@U?$_Tree_simple_types@U?$pair@$$CBEPAU__TAXDETAIL@@@std@@@std@@@std@@@std@@_N@1@$$QAU?$pair@EPAU__TAXDETAIL@@@1@@Z DD 019930522H
	DD	01H
	DD	FLAT:__unwindtable$??$insert@U?$pair@EPAU__TAXDETAIL@@@std@@$0A@@?$map@EPAU__TAXDETAIL@@U?$less@E@std@@V?$allocator@U?$pair@$$CBEPAU__TAXDETAIL@@@std@@@3@@std@@QAE?AU?$pair@V?$_Tree_iterator@V?$_Tree_val@U?$_Tree_simple_types@U?$pair@$$CBEPAU__TAXDETAIL@@@std@@@std@@@std@@@std@@_N@1@$$QAU?$pair@EPAU__TAXDETAIL@@@1@@Z
	DD	2 DUP(00H)
	DD	2 DUP(00H)
	DD	00H
	DD	01H
xdata$x	ENDS
;	COMDAT xdata$x
xdata$x	SEGMENT
__unwindtable$??0__TAXINFO@@QAE@XZ DD 0ffffffffH
	DD	FLAT:__unwindfunclet$??0__TAXINFO@@QAE@XZ$0
	DD	00H
	DD	FLAT:__unwindfunclet$??0__TAXINFO@@QAE@XZ$6
	DD	00H
	DD	FLAT:__unwindfunclet$??0__TAXINFO@@QAE@XZ$11
__ehfuncinfo$??0__TAXINFO@@QAE@XZ DD 019930522H
	DD	03H
	DD	FLAT:__unwindtable$??0__TAXINFO@@QAE@XZ
	DD	2 DUP(00H)
	DD	2 DUP(00H)
	DD	00H
	DD	01H
xdata$x	ENDS
;	COMDAT xdata$x
xdata$x	SEGMENT
__unwindtable$?PayTaxToPost@CTaxDBController@@AAEXXZ DD 0ffffffffH
	DD	FLAT:__unwindfunclet$?PayTaxToPost@CTaxDBController@@AAEXXZ$0
	DD	0ffffffffH
	DD	FLAT:__unwindfunclet$?PayTaxToPost@CTaxDBController@@AAEXXZ$4
__ehfuncinfo$?PayTaxToPost@CTaxDBController@@AAEXXZ DD 019930522H
	DD	02H
	DD	FLAT:__unwindtable$?PayTaxToPost@CTaxDBController@@AAEXXZ
	DD	2 DUP(00H)
	DD	2 DUP(00H)
	DD	00H
	DD	01H
xdata$x	ENDS
;	COMDAT xdata$x
xdata$x	SEGMENT
__unwindtable$?Handler@CTaxDBController@@UAEXPAUtagDB_OVERLAPPED_PLUS@@K@Z DD 0ffffffffH
	DD	FLAT:__unwindfunclet$?Handler@CTaxDBController@@UAEXPAUtagDB_OVERLAPPED_PLUS@@K@Z$0
	DD	0ffffffffH
	DD	FLAT:__unwindfunclet$?Handler@CTaxDBController@@UAEXPAUtagDB_OVERLAPPED_PLUS@@K@Z$1
	DD	0ffffffffH
	DD	FLAT:__unwindfunclet$?Handler@CTaxDBController@@UAEXPAUtagDB_OVERLAPPED_PLUS@@K@Z$2
	DD	0ffffffffH
	DD	FLAT:__unwindfunclet$?Handler@CTaxDBController@@UAEXPAUtagDB_OVERLAPPED_PLUS@@K@Z$3
__ehfuncinfo$?Handler@CTaxDBController@@UAEXPAUtagDB_OVERLAPPED_PLUS@@K@Z DD 019930522H
	DD	04H
	DD	FLAT:__unwindtable$?Handler@CTaxDBController@@UAEXPAUtagDB_OVERLAPPED_PLUS@@K@Z
	DD	2 DUP(00H)
	DD	2 DUP(00H)
	DD	00H
	DD	01H
xdata$x	ENDS
; Function compile flags: /Ogtp
; File C:\Program Files\Microsoft Visual Studio\2022\Professional\VC\Tools\MSVC\14.44.35207\include\xutility
;	COMDAT ??$_Copy_memmove_tail@PAK@std@@YAPAKQBDQAKII@Z
_TEXT	SEGMENT
__First_ch$ = 8						; size = 4
__Dest$ = 12						; size = 4
__Byte_count$ = 16					; size = 4
__Object_count$ = 20					; size = 4
??$_Copy_memmove_tail@PAK@std@@YAPAKQBDQAKII@Z PROC	; std::_Copy_memmove_tail<unsigned long *>, COMDAT

; 4747 :     const char* const _First_ch, const _OutCtgIt _Dest, const size_t _Byte_count, const size_t _Object_count) {

  00000	55		 push	 ebp
  00001	8b ec		 mov	 ebp, esp
  00003	56		 push	 esi

; 4748 :     _STL_INTERNAL_CHECK(_Byte_count == _Object_count * sizeof(*_Dest));
; 4749 :     const auto _Dest_ptr = _STD _To_address(_Dest);
; 4750 :     const auto _Dest_ch  = const_cast<char*>(reinterpret_cast<const volatile char*>(_Dest_ptr));
; 4751 :     _CSTD memmove(_Dest_ch, _First_ch, _Byte_count);

  00004	8b 75 0c	 mov	 esi, DWORD PTR __Dest$[ebp]
  00007	57		 push	 edi
  00008	8b 7d 10	 mov	 edi, DWORD PTR __Byte_count$[ebp]
  0000b	57		 push	 edi
  0000c	ff 75 08	 push	 DWORD PTR __First_ch$[ebp]
  0000f	56		 push	 esi
  00010	e8 00 00 00 00	 call	 _memmove
  00015	83 c4 0c	 add	 esp, 12			; 0000000cH

; 4752 :     if constexpr (is_pointer_v<_OutCtgIt>) {
; 4753 :         (void) _Object_count;
; 4754 :         // CodeQL [SM02986] This cast is correct: we're bypassing pointer arithmetic for performance.
; 4755 :         return reinterpret_cast<_OutCtgIt>(_Dest_ch + _Byte_count);

  00018	8d 04 3e	 lea	 eax, DWORD PTR [esi+edi]
  0001b	5f		 pop	 edi
  0001c	5e		 pop	 esi

; 4756 :     } else {
; 4757 :         return _Dest + static_cast<_Iter_diff_t<_OutCtgIt>>(_Object_count);
; 4758 :     }
; 4759 : }

  0001d	5d		 pop	 ebp
  0001e	c3		 ret	 0
??$_Copy_memmove_tail@PAK@std@@YAPAKQBDQAKII@Z ENDP	; std::_Copy_memmove_tail<unsigned long *>
_TEXT	ENDS
; Function compile flags: /Ogtp
; File C:\Program Files\Microsoft Visual Studio\2022\Professional\VC\Tools\MSVC\14.44.35207\include\xutility
;	COMDAT ??$_Copy_memmove@PAKPAK@std@@YAPAKPAK00@Z
_TEXT	SEGMENT
__First$ = 8						; size = 4
__Last$ = 12						; size = 4
__Dest$ = 16						; size = 4
??$_Copy_memmove@PAKPAK@std@@YAPAKPAK00@Z PROC		; std::_Copy_memmove<unsigned long *,unsigned long *>, COMDAT

; 4762 : _OutCtgIt _Copy_memmove(_CtgIt _First, _CtgIt _Last, _OutCtgIt _Dest) {

  00000	55		 push	 ebp
  00001	8b ec		 mov	 ebp, esp

; 4763 :     _STL_INTERNAL_CHECK(_First <= _Last);
; 4764 :     const auto _First_ptr    = _STD _To_address(_First);
; 4765 :     const auto _Last_ptr     = _STD _To_address(_Last);
; 4766 :     const auto _Object_count = static_cast<size_t>(_Last_ptr - _First_ptr);

  00003	8b 55 08	 mov	 edx, DWORD PTR __First$[ebp]
  00006	8b 4d 0c	 mov	 ecx, DWORD PTR __Last$[ebp]
  00009	2b ca		 sub	 ecx, edx
  0000b	8b c1		 mov	 eax, ecx
  0000d	c1 f8 02	 sar	 eax, 2

; 4767 :     const auto _First_ch     = const_cast<const char*>(reinterpret_cast<const volatile char*>(_First_ptr));
; 4768 :     const auto _Last_ch      = const_cast<const char*>(reinterpret_cast<const volatile char*>(_Last_ptr));
; 4769 :     const auto _Byte_count   = static_cast<size_t>(_Last_ch - _First_ch);
; 4770 :     return _STD _Copy_memmove_tail(_First_ch, _STD move(_Dest), _Byte_count, _Object_count);

  00010	50		 push	 eax
  00011	51		 push	 ecx
  00012	ff 75 10	 push	 DWORD PTR __Dest$[ebp]
  00015	52		 push	 edx
  00016	e8 00 00 00 00	 call	 ??$_Copy_memmove_tail@PAK@std@@YAPAKQBDQAKII@Z ; std::_Copy_memmove_tail<unsigned long *>
  0001b	83 c4 10	 add	 esp, 16			; 00000010H

; 4771 : }

  0001e	5d		 pop	 ebp
  0001f	c3		 ret	 0
??$_Copy_memmove@PAKPAK@std@@YAPAKPAK00@Z ENDP		; std::_Copy_memmove<unsigned long *,unsigned long *>
_TEXT	ENDS
; Function compile flags: /Ogtp
; File C:\Program Files\Microsoft Visual Studio\2022\Professional\VC\Tools\MSVC\14.44.35207\include\xtree
; File C:\Program Files\Microsoft Visual Studio\2022\Professional\VC\Tools\MSVC\14.44.35207\include\xmemory
; File C:\Program Files\Microsoft Visual Studio\2022\Professional\VC\Tools\MSVC\14.44.35207\include\xtree
;	COMDAT ??1?$_Tree_temp_node@V?$allocator@U?$_Tree_node@U?$pair@$$CBEPAU__TAXINFO@@@std@@PAX@std@@@std@@@std@@QAE@XZ
_TEXT	SEGMENT
??1?$_Tree_temp_node@V?$allocator@U?$_Tree_node@U?$pair@$$CBEPAU__TAXINFO@@@std@@PAX@std@@@std@@@std@@QAE@XZ PROC ; std::_Tree_temp_node<std::allocator<std::_Tree_node<std::pair<unsigned char const ,__TAXINFO *>,void *> > >::~_Tree_temp_node<std::allocator<std::_Tree_node<std::pair<unsigned char const ,__TAXINFO *>,void *> > >, COMDAT
; _this$ = ecx
; File C:\Program Files\Microsoft Visual Studio\2022\Professional\VC\Tools\MSVC\14.44.35207\include\xmemory

; 1172 :         if (_Ptr) {

  00000	8b 41 04	 mov	 eax, DWORD PTR [ecx+4]
  00003	85 c0		 test	 eax, eax
  00005	74 0b		 je	 SHORT $LN19@Tree_temp_

; 289  :         ::operator delete(_Ptr, _Bytes);

  00007	6a 18		 push	 24			; 00000018H
  00009	50		 push	 eax
  0000a	e8 00 00 00 00	 call	 ??3@YAXPAXI@Z		; operator delete
  0000f	83 c4 08	 add	 esp, 8
$LN19@Tree_temp_:
; File C:\Program Files\Microsoft Visual Studio\2022\Professional\VC\Tools\MSVC\14.44.35207\include\xtree

; 848  :     }

  00012	c3		 ret	 0
??1?$_Tree_temp_node@V?$allocator@U?$_Tree_node@U?$pair@$$CBEPAU__TAXINFO@@@std@@PAX@std@@@std@@@std@@QAE@XZ ENDP ; std::_Tree_temp_node<std::allocator<std::_Tree_node<std::pair<unsigned char const ,__TAXINFO *>,void *> > >::~_Tree_temp_node<std::allocator<std::_Tree_node<std::pair<unsigned char const ,__TAXINFO *>,void *> > >
_TEXT	ENDS
; Function compile flags: /Ogtp
; File C:\Program Files\Microsoft Visual Studio\2022\Professional\VC\Tools\MSVC\14.44.35207\include\xmemory
;	COMDAT ??1?$_Alloc_construct_ptr@V?$allocator@U?$_Tree_node@U?$pair@$$CBEPAU__TAXINFO@@@std@@PAX@std@@@std@@@std@@QAE@XZ
_TEXT	SEGMENT
??1?$_Alloc_construct_ptr@V?$allocator@U?$_Tree_node@U?$pair@$$CBEPAU__TAXINFO@@@std@@PAX@std@@@std@@@std@@QAE@XZ PROC ; std::_Alloc_construct_ptr<std::allocator<std::_Tree_node<std::pair<unsigned char const ,__TAXINFO *>,void *> > >::~_Alloc_construct_ptr<std::allocator<std::_Tree_node<std::pair<unsigned char const ,__TAXINFO *>,void *> > >, COMDAT
; _this$ = ecx

; 1172 :         if (_Ptr) {

  00000	8b 41 04	 mov	 eax, DWORD PTR [ecx+4]
  00003	85 c0		 test	 eax, eax
  00005	74 0b		 je	 SHORT $LN10@Alloc_cons

; 289  :         ::operator delete(_Ptr, _Bytes);

  00007	6a 18		 push	 24			; 00000018H
  00009	50		 push	 eax
  0000a	e8 00 00 00 00	 call	 ??3@YAXPAXI@Z		; operator delete
  0000f	83 c4 08	 add	 esp, 8
$LN10@Alloc_cons:

; 1173 :             _Al.deallocate(_Ptr, 1);
; 1174 :         }
; 1175 :     }

  00012	c3		 ret	 0
??1?$_Alloc_construct_ptr@V?$allocator@U?$_Tree_node@U?$pair@$$CBEPAU__TAXINFO@@@std@@PAX@std@@@std@@@std@@QAE@XZ ENDP ; std::_Alloc_construct_ptr<std::allocator<std::_Tree_node<std::pair<unsigned char const ,__TAXINFO *>,void *> > >::~_Alloc_construct_ptr<std::allocator<std::_Tree_node<std::pair<unsigned char const ,__TAXINFO *>,void *> > >
_TEXT	ENDS
; Function compile flags: /Ogtp
; File C:\Program Files\Microsoft Visual Studio\2022\Professional\VC\Tools\MSVC\14.44.35207\include\xmemory
;	COMDAT ??1?$_Alloc_construct_ptr@V?$allocator@U?$_Tree_node@U?$pair@$$CBEPAU__TAXDETAIL@@@std@@PAX@std@@@std@@@std@@QAE@XZ
_TEXT	SEGMENT
??1?$_Alloc_construct_ptr@V?$allocator@U?$_Tree_node@U?$pair@$$CBEPAU__TAXDETAIL@@@std@@PAX@std@@@std@@@std@@QAE@XZ PROC ; std::_Alloc_construct_ptr<std::allocator<std::_Tree_node<std::pair<unsigned char const ,__TAXDETAIL *>,void *> > >::~_Alloc_construct_ptr<std::allocator<std::_Tree_node<std::pair<unsigned char const ,__TAXDETAIL *>,void *> > >, COMDAT
; _this$ = ecx

; 1172 :         if (_Ptr) {

  00000	8b 41 04	 mov	 eax, DWORD PTR [ecx+4]
  00003	85 c0		 test	 eax, eax
  00005	74 0b		 je	 SHORT $LN10@Alloc_cons

; 289  :         ::operator delete(_Ptr, _Bytes);

  00007	6a 18		 push	 24			; 00000018H
  00009	50		 push	 eax
  0000a	e8 00 00 00 00	 call	 ??3@YAXPAXI@Z		; operator delete
  0000f	83 c4 08	 add	 esp, 8
$LN10@Alloc_cons:

; 1173 :             _Al.deallocate(_Ptr, 1);
; 1174 :         }
; 1175 :     }

  00012	c3		 ret	 0
??1?$_Alloc_construct_ptr@V?$allocator@U?$_Tree_node@U?$pair@$$CBEPAU__TAXDETAIL@@@std@@PAX@std@@@std@@@std@@QAE@XZ ENDP ; std::_Alloc_construct_ptr<std::allocator<std::_Tree_node<std::pair<unsigned char const ,__TAXDETAIL *>,void *> > >::~_Alloc_construct_ptr<std::allocator<std::_Tree_node<std::pair<unsigned char const ,__TAXDETAIL *>,void *> > >
_TEXT	ENDS
; Function compile flags: /Ogtp
; File C:\Program Files\Microsoft Visual Studio\2022\Professional\VC\Tools\MSVC\14.44.35207\include\vector
; File C:\Program Files\Microsoft Visual Studio\2022\Professional\VC\Tools\MSVC\14.44.35207\include\xmemory
; File C:\Program Files\Microsoft Visual Studio\2022\Professional\VC\Tools\MSVC\14.44.35207\include\vector
; File C:\Program Files\Microsoft Visual Studio\2022\Professional\VC\Tools\MSVC\14.44.35207\include\xmemory
; File C:\Program Files\Microsoft Visual Studio\2022\Professional\VC\Tools\MSVC\14.44.35207\include\vector
; File C:\Program Files\Microsoft Visual Studio\2022\Professional\VC\Tools\MSVC\14.44.35207\include\xmemory
; File C:\Program Files\Microsoft Visual Studio\2022\Professional\VC\Tools\MSVC\14.44.35207\include\vector
; File C:\Program Files\Microsoft Visual Studio\2022\Professional\VC\Tools\MSVC\14.44.35207\include\xmemory
; File C:\Program Files\Microsoft Visual Studio\2022\Professional\VC\Tools\MSVC\14.44.35207\include\vector
; File C:\Program Files\Microsoft Visual Studio\2022\Professional\VC\Tools\MSVC\14.44.35207\include\xmemory
; File C:\Program Files\Microsoft Visual Studio\2022\Professional\VC\Tools\MSVC\14.44.35207\include\vector
; File C:\Program Files\Microsoft Visual Studio\2022\Professional\VC\Tools\MSVC\14.44.35207\include\xmemory
; File C:\Program Files\Microsoft Visual Studio\2022\Professional\VC\Tools\MSVC\14.44.35207\include\vector
; File C:\Program Files\Microsoft Visual Studio\2022\Professional\VC\Tools\MSVC\14.44.35207\include\xmemory
; File C:\Program Files\Microsoft Visual Studio\2022\Professional\VC\Tools\MSVC\14.44.35207\include\vector
; File C:\Program Files\Microsoft Visual Studio\2022\Professional\VC\Tools\MSVC\14.44.35207\include\xmemory
; File C:\Program Files\Microsoft Visual Studio\2022\Professional\VC\Tools\MSVC\14.44.35207\include\vector
;	COMDAT ??$_Emplace_reallocate@K@?$vector@KV?$allocator@K@std@@@std@@AAEPAKQAK$$QAK@Z
_TEXT	SEGMENT
__Newsize$1$ = -12					; size = 4
tv652 = -8						; size = 4
tv650 = -4						; size = 4
__Whereptr$ = 8						; size = 4
_<_Val_0>$ = 12						; size = 4
??$_Emplace_reallocate@K@?$vector@KV?$allocator@K@std@@@std@@AAEPAKQAK$$QAK@Z PROC ; std::vector<unsigned long,std::allocator<unsigned long> >::_Emplace_reallocate<unsigned long>, COMDAT
; _this$ = ecx

; 875  :     _CONSTEXPR20 pointer _Emplace_reallocate(const pointer _Whereptr, _Valty&&... _Val) {

  00000	55		 push	 ebp
  00001	8b ec		 mov	 ebp, esp
  00003	83 ec 0c	 sub	 esp, 12			; 0000000cH
  00006	53		 push	 ebx

; 876  :         // reallocate and insert by perfectly forwarding _Val at _Whereptr
; 877  :         _Alty& _Al        = _Getal();
; 878  :         auto& _My_data    = _Mypair._Myval2;
; 879  :         pointer& _Myfirst = _My_data._Myfirst;
; 880  :         pointer& _Mylast  = _My_data._Mylast;
; 881  : 
; 882  :         _STL_INTERNAL_CHECK(_Mylast == _My_data._Myend); // check that we have no unused capacity
; 883  : 
; 884  :         const auto _Whereoff = static_cast<size_type>(_Whereptr - _Myfirst);

  00007	8b 5d 08	 mov	 ebx, DWORD PTR __Whereptr$[ebp]
  0000a	56		 push	 esi
  0000b	8b f1		 mov	 esi, ecx
  0000d	57		 push	 edi
  0000e	8b 0e		 mov	 ecx, DWORD PTR [esi]
  00010	2b d9		 sub	 ebx, ecx

; 885  :         const auto _Oldsize  = static_cast<size_type>(_Mylast - _Myfirst);

  00012	8b 46 04	 mov	 eax, DWORD PTR [esi+4]
  00015	2b c1		 sub	 eax, ecx
  00017	c1 fb 02	 sar	 ebx, 2
  0001a	c1 f8 02	 sar	 eax, 2

; 886  : 
; 887  :         if (_Oldsize == max_size()) {

  0001d	3d ff ff ff 3f	 cmp	 eax, 1073741823		; 3fffffffH
  00022	0f 84 13 01 00
	00		 je	 $LN111@Emplace_re

; 1924 :         return static_cast<size_type>(_My_data._Myend - _My_data._Myfirst);

  00028	8b 56 08	 mov	 edx, DWORD PTR [esi+8]

; 889  :         }
; 890  : 
; 891  :         const size_type _Newsize = _Oldsize + 1;

  0002b	8d 78 01	 lea	 edi, DWORD PTR [eax+1]

; 1924 :         return static_cast<size_type>(_My_data._Myend - _My_data._Myfirst);

  0002e	2b d1		 sub	 edx, ecx

; 889  :         }
; 890  : 
; 891  :         const size_type _Newsize = _Oldsize + 1;

  00030	89 7d f4	 mov	 DWORD PTR __Newsize$1$[ebp], edi

; 1924 :         return static_cast<size_type>(_My_data._Myend - _My_data._Myfirst);

  00033	c1 fa 02	 sar	 edx, 2

; 2011 :         if (_Oldcapacity > _Max - _Oldcapacity / 2) {

  00036	b8 ff ff ff 3f	 mov	 eax, 1073741823		; 3fffffffH
  0003b	8b ca		 mov	 ecx, edx
  0003d	d1 e9		 shr	 ecx, 1
  0003f	2b c1		 sub	 eax, ecx
  00041	3b d0		 cmp	 edx, eax
  00043	76 14		 jbe	 SHORT $LN8@Emplace_re

; 2012 :             return _Max; // geometric growth would overflow

  00045	b8 fc ff ff ff	 mov	 eax, -4			; fffffffcH
  0004a	c7 45 f8 fc ff
	ff ff		 mov	 DWORD PTR tv652[ebp], -4 ; fffffffcH
; File C:\Program Files\Microsoft Visual Studio\2022\Professional\VC\Tools\MSVC\14.44.35207\include\xmemory

; 253  :             return _Allocate_manually_vector_aligned<_Traits>(_Bytes);

  00051	50		 push	 eax
  00052	e8 00 00 00 00	 call	 ??$_Allocate_manually_vector_aligned@U_Default_allocate_traits@std@@@std@@YAPAXI@Z ; std::_Allocate_manually_vector_aligned<std::_Default_allocate_traits>
  00057	eb 3d		 jmp	 SHORT $LN109@Emplace_re
$LN8@Emplace_re:
; File C:\Program Files\Microsoft Visual Studio\2022\Professional\VC\Tools\MSVC\14.44.35207\include\vector

; 2015 :         const size_type _Geometric = _Oldcapacity + _Oldcapacity / 2;

  00059	8d 04 11	 lea	 eax, DWORD PTR [ecx+edx]
; File C:\Program Files\Microsoft Visual Studio\2022\Professional\VC\Tools\MSVC\14.44.35207\include\xmemory

; 117  :         if (_Count > _Max_possible) {

  0005c	8b cf		 mov	 ecx, edi
  0005e	3b c7		 cmp	 eax, edi
  00060	0f 43 c8	 cmovae	 ecx, eax
  00063	81 f9 ff ff ff
	3f		 cmp	 ecx, 1073741823		; 3fffffffH
  00069	0f 87 d1 00 00
	00		 ja	 $LN112@Emplace_re

; 119  :         }
; 120  :     }
; 121  : 
; 122  :     return _Count * _Ty_size;

  0006f	8d 04 8d 00 00
	00 00		 lea	 eax, DWORD PTR [ecx*4]
  00076	89 45 f8	 mov	 DWORD PTR tv652[ebp], eax

; 227  :     if (_Bytes == 0) {

  00079	85 c0		 test	 eax, eax
  0007b	75 04		 jne	 SHORT $LN23@Emplace_re

; 228  :         return nullptr;

  0007d	33 ff		 xor	 edi, edi
  0007f	eb 1a		 jmp	 SHORT $LN22@Emplace_re
$LN23@Emplace_re:

; 229  :     }
; 230  : 
; 231  : #if _HAS_CXX20 // TRANSITION, GH-1532
; 232  :     if (_STD is_constant_evaluated()) {
; 233  :         return _Traits::_Allocate(_Bytes);
; 234  :     }
; 235  : #endif // _HAS_CXX20
; 236  : 
; 237  : #ifdef __cpp_aligned_new
; 238  :     if constexpr (_Align > __STDCPP_DEFAULT_NEW_ALIGNMENT__) {
; 239  :         size_t _Passed_align = _Align;
; 240  : #if defined(_M_IX86) || defined(_M_X64)
; 241  :         if (_Bytes >= _Big_allocation_threshold) {
; 242  :             // boost the alignment of big allocations to help autovectorization
; 243  :             _Passed_align = (_STD max)(_Align, _Big_allocation_alignment);
; 244  :         }
; 245  : #endif // defined(_M_IX86) || defined(_M_X64)
; 246  :         return _Traits::_Allocate_aligned(_Bytes, _Passed_align);
; 247  :     } else
; 248  : #endif // defined(__cpp_aligned_new)
; 249  :     {
; 250  : #if defined(_M_IX86) || defined(_M_X64)
; 251  :         if (_Bytes >= _Big_allocation_threshold) {

  00081	3d 00 10 00 00	 cmp	 eax, 4096		; 00001000H
  00086	72 08		 jb	 SHORT $LN24@Emplace_re

; 253  :             return _Allocate_manually_vector_aligned<_Traits>(_Bytes);

  00088	50		 push	 eax
  00089	e8 00 00 00 00	 call	 ??$_Allocate_manually_vector_aligned@U_Default_allocate_traits@std@@@std@@YAPAXI@Z ; std::_Allocate_manually_vector_aligned<std::_Default_allocate_traits>
  0008e	eb 06		 jmp	 SHORT $LN109@Emplace_re
$LN24@Emplace_re:

; 136  :         return ::operator new(_Bytes);

  00090	50		 push	 eax
  00091	e8 00 00 00 00	 call	 ??2@YAPAXI@Z		; operator new
$LN109@Emplace_re:
; File C:\Program Files\Microsoft Visual Studio\2022\Professional\VC\Tools\MSVC\14.44.35207\include\vector

; 900  :         _Alty_traits::construct(_Al, _STD _Unfancy(_Newvec + _Whereoff), _STD forward<_Valty>(_Val)...);

  00096	8b f8		 mov	 edi, eax
  00098	83 c4 04	 add	 esp, 4
$LN22@Emplace_re:
  0009b	8b 45 0c	 mov	 eax, DWORD PTR _<_Val_0>$[ebp]
  0009e	8d 0c 9f	 lea	 ecx, DWORD PTR [edi+ebx*4]

; 901  :         _Constructed_first = _Newvec + _Whereoff;
; 902  : 
; 903  :         if (_Whereptr == _Mylast) { // at back, provide strong guarantee

  000a1	8b 5d 08	 mov	 ebx, DWORD PTR __Whereptr$[ebp]
  000a4	89 4d fc	 mov	 DWORD PTR tv650[ebp], ecx
  000a7	8b 00		 mov	 eax, DWORD PTR [eax]
  000a9	89 01		 mov	 DWORD PTR [ecx], eax
  000ab	8b 46 04	 mov	 eax, DWORD PTR [esi+4]
  000ae	8b 0e		 mov	 ecx, DWORD PTR [esi]
  000b0	3b d8		 cmp	 ebx, eax
  000b2	75 07		 jne	 SHORT $LN3@Emplace_re

; 909  :         } else { // provide basic guarantee

  000b4	8b 5d fc	 mov	 ebx, DWORD PTR tv650[ebp]
; File C:\Program Files\Microsoft Visual Studio\2022\Professional\VC\Tools\MSVC\14.44.35207\include\xmemory

; 1992 :             _STD _Copy_memmove(_UFirst, _ULast, _STD _Unfancy(_Dest));

  000b7	8b d7		 mov	 edx, edi
; File C:\Program Files\Microsoft Visual Studio\2022\Professional\VC\Tools\MSVC\14.44.35207\include\vector

; 909  :         } else { // provide basic guarantee

  000b9	eb 16		 jmp	 SHORT $LN52@Emplace_re
$LN3@Emplace_re:
; File C:\Program Files\Microsoft Visual Studio\2022\Professional\VC\Tools\MSVC\14.44.35207\include\xmemory

; 1992 :             _STD _Copy_memmove(_UFirst, _ULast, _STD _Unfancy(_Dest));

  000bb	57		 push	 edi
  000bc	53		 push	 ebx
  000bd	51		 push	 ecx
  000be	e8 00 00 00 00	 call	 ??$_Copy_memmove@PAKPAK@std@@YAPAKPAK00@Z ; std::_Copy_memmove<unsigned long *,unsigned long *>
  000c3	8b 46 04	 mov	 eax, DWORD PTR [esi+4]
  000c6	8b cb		 mov	 ecx, ebx
; File C:\Program Files\Microsoft Visual Studio\2022\Professional\VC\Tools\MSVC\14.44.35207\include\vector

; 912  :             _STD _Uninitialized_move(_Whereptr, _Mylast, _Newvec + _Whereoff + 1, _Al);

  000c8	8b 5d fc	 mov	 ebx, DWORD PTR tv650[ebp]
; File C:\Program Files\Microsoft Visual Studio\2022\Professional\VC\Tools\MSVC\14.44.35207\include\xmemory

; 1992 :             _STD _Copy_memmove(_UFirst, _ULast, _STD _Unfancy(_Dest));

  000cb	83 c4 0c	 add	 esp, 12			; 0000000cH
; File C:\Program Files\Microsoft Visual Studio\2022\Professional\VC\Tools\MSVC\14.44.35207\include\vector

; 912  :             _STD _Uninitialized_move(_Whereptr, _Mylast, _Newvec + _Whereoff + 1, _Al);

  000ce	8d 53 04	 lea	 edx, DWORD PTR [ebx+4]
$LN52@Emplace_re:

; 913  :         }
; 914  : 
; 915  :         _Guard._New_begin = nullptr;

  000d1	52		 push	 edx
  000d2	50		 push	 eax
  000d3	51		 push	 ecx
  000d4	e8 00 00 00 00	 call	 ??$_Copy_memmove@PAKPAK@std@@YAPAKPAK00@Z ; std::_Copy_memmove<unsigned long *,unsigned long *>

; 2069 :         if (_Myfirst) { // destroy and deallocate old array

  000d9	8b 06		 mov	 eax, DWORD PTR [esi]

; 913  :         }
; 914  : 
; 915  :         _Guard._New_begin = nullptr;

  000db	83 c4 0c	 add	 esp, 12			; 0000000cH

; 2069 :         if (_Myfirst) { // destroy and deallocate old array

  000de	85 c0		 test	 eax, eax
  000e0	74 2c		 je	 SHORT $LN72@Emplace_re

; 2070 :             _STD _Destroy_range(_Myfirst, _Mylast, _Al);
; 2071 :             _ASAN_VECTOR_REMOVE;
; 2072 :             _Al.deallocate(_Myfirst, static_cast<size_type>(_Myend - _Myfirst));

  000e2	8b 4e 08	 mov	 ecx, DWORD PTR [esi+8]
  000e5	2b c8		 sub	 ecx, eax
; File C:\Program Files\Microsoft Visual Studio\2022\Professional\VC\Tools\MSVC\14.44.35207\include\xmemory

; 985  :         _STD _Deallocate<_New_alignof<_Ty>>(_Ptr, sizeof(_Ty) * _Count);

  000e7	83 e1 fc	 and	 ecx, -4			; fffffffcH

; 284  :         if (_Bytes >= _Big_allocation_threshold) {

  000ea	81 f9 00 10 00
	00		 cmp	 ecx, 4096		; 00001000H
  000f0	72 12		 jb	 SHORT $LN77@Emplace_re

; 205  :     const uintptr_t _Ptr_container   = _Ptr_user[-1];

  000f2	8b 50 fc	 mov	 edx, DWORD PTR [eax-4]
  000f5	83 c1 23	 add	 ecx, 35			; 00000023H

; 206  : 
; 207  :     // If the following asserts, it likely means that we are performing
; 208  :     // an aligned delete on memory coming from an unaligned allocation.
; 209  :     _STL_ASSERT(_Ptr_user[-2] == _Big_allocation_sentinel, "invalid argument");
; 210  : 
; 211  :     // Extra paranoia on aligned allocation/deallocation; ensure _Ptr_container is
; 212  :     // in range [_Min_back_shift, _Non_user_size]
; 213  : #ifdef _DEBUG
; 214  :     constexpr uintptr_t _Min_back_shift = 2 * sizeof(void*);
; 215  : #else // ^^^ defined(_DEBUG) / !defined(_DEBUG) vvv
; 216  :     constexpr uintptr_t _Min_back_shift = sizeof(void*);
; 217  : #endif // ^^^ !defined(_DEBUG) ^^^
; 218  :     const uintptr_t _Back_shift = reinterpret_cast<uintptr_t>(_Ptr) - _Ptr_container;

  000f8	2b c2		 sub	 eax, edx

; 219  :     _STL_VERIFY(_Back_shift >= _Min_back_shift && _Back_shift <= _Non_user_size, "invalid argument");

  000fa	83 c0 fc	 add	 eax, -4			; fffffffcH
  000fd	83 f8 1f	 cmp	 eax, 31			; 0000001fH
  00100	77 2a		 ja	 SHORT $LN76@Emplace_re

; 220  :     _Ptr = reinterpret_cast<void*>(_Ptr_container);

  00102	8b c2		 mov	 eax, edx
$LN77@Emplace_re:

; 289  :         ::operator delete(_Ptr, _Bytes);

  00104	51		 push	 ecx
  00105	50		 push	 eax
  00106	e8 00 00 00 00	 call	 ??3@YAXPAXI@Z		; operator delete
  0010b	83 c4 08	 add	 esp, 8
$LN72@Emplace_re:
; File C:\Program Files\Microsoft Visual Studio\2022\Professional\VC\Tools\MSVC\14.44.35207\include\vector

; 2076 :         _Mylast  = _Newvec + _Newsize;

  0010e	8b 45 f4	 mov	 eax, DWORD PTR __Newsize$1$[ebp]
  00111	89 3e		 mov	 DWORD PTR [esi], edi
  00113	8d 0c 87	 lea	 ecx, DWORD PTR [edi+eax*4]

; 916  :         _Change_array(_Newvec, _Newsize, _Newcapacity);
; 917  :         return _Newvec + _Whereoff;

  00116	8b c3		 mov	 eax, ebx

; 2076 :         _Mylast  = _Newvec + _Newsize;

  00118	89 4e 04	 mov	 DWORD PTR [esi+4], ecx

; 2077 :         _Myend   = _Newvec + _Newcapacity;

  0011b	8b 4d f8	 mov	 ecx, DWORD PTR tv652[ebp]
  0011e	03 cf		 add	 ecx, edi

; 918  :     }

  00120	5f		 pop	 edi

; 2077 :         _Myend   = _Newvec + _Newcapacity;

  00121	89 4e 08	 mov	 DWORD PTR [esi+8], ecx

; 918  :     }

  00124	5e		 pop	 esi
  00125	5b		 pop	 ebx
  00126	8b e5		 mov	 esp, ebp
  00128	5d		 pop	 ebp
  00129	c2 08 00	 ret	 8
$LN76@Emplace_re:
; File C:\Program Files\Microsoft Visual Studio\2022\Professional\VC\Tools\MSVC\14.44.35207\include\xmemory

; 219  :     _STL_VERIFY(_Back_shift >= _Min_back_shift && _Back_shift <= _Non_user_size, "invalid argument");

  0012c	6a 00		 push	 0
  0012e	6a 00		 push	 0
  00130	6a 00		 push	 0
  00132	6a 00		 push	 0
  00134	6a 00		 push	 0
  00136	e8 00 00 00 00	 call	 __invoke_watson
$LN111@Emplace_re:
; File C:\Program Files\Microsoft Visual Studio\2022\Professional\VC\Tools\MSVC\14.44.35207\include\vector

; 888  :             _Xlength();

  0013b	e8 00 00 00 00	 call	 ?_Xlength@?$vector@KV?$allocator@K@std@@@std@@CAXXZ ; std::vector<unsigned long,std::allocator<unsigned long> >::_Xlength
$LN112@Emplace_re:
; File C:\Program Files\Microsoft Visual Studio\2022\Professional\VC\Tools\MSVC\14.44.35207\include\xmemory

; 118  :             _Throw_bad_array_new_length(); // multiply overflow

  00140	e8 00 00 00 00	 call	 ?_Throw_bad_array_new_length@std@@YAXXZ ; std::_Throw_bad_array_new_length
$LN108@Emplace_re:
  00145	cc		 int	 3
??$_Emplace_reallocate@K@?$vector@KV?$allocator@K@std@@@std@@AAEPAKQAK$$QAK@Z ENDP ; std::vector<unsigned long,std::allocator<unsigned long> >::_Emplace_reallocate<unsigned long>
_TEXT	ENDS
; Function compile flags: /Ogtp
; File C:\Program Files\Microsoft Visual Studio\2022\Professional\VC\Tools\MSVC\14.44.35207\include\xtree
; File C:\Program Files\Microsoft Visual Studio\2022\Professional\VC\Tools\MSVC\14.44.35207\include\utility
; File C:\Program Files\Microsoft Visual Studio\2022\Professional\VC\Tools\MSVC\14.44.35207\include\xmemory
; File C:\Program Files\Microsoft Visual Studio\2022\Professional\VC\Tools\MSVC\14.44.35207\include\xtree
;	COMDAT ??$_Erase_tree@V?$allocator@U?$_Tree_node@U?$pair@$$CBEPAU__TAXDETAIL@@@std@@PAX@std@@@std@@@?$_Tree_val@U?$_Tree_simple_types@U?$pair@$$CBEPAU__TAXDETAIL@@@std@@@std@@@std@@QAEXAAV?$allocator@U?$_Tree_node@U?$pair@$$CBEPAU__TAXDETAIL@@@std@@PAX@std@@@1@PAU?$_Tree_node@U?$pair@$$CBEPAU__TAXDETAIL@@@std@@PAX@1@@Z
_TEXT	SEGMENT
__Al$ = 8						; size = 4
__Rootnode$ = 12					; size = 4
??$_Erase_tree@V?$allocator@U?$_Tree_node@U?$pair@$$CBEPAU__TAXDETAIL@@@std@@PAX@std@@@std@@@?$_Tree_val@U?$_Tree_simple_types@U?$pair@$$CBEPAU__TAXDETAIL@@@std@@@std@@@std@@QAEXAAV?$allocator@U?$_Tree_node@U?$pair@$$CBEPAU__TAXDETAIL@@@std@@PAX@std@@@1@PAU?$_Tree_node@U?$pair@$$CBEPAU__TAXDETAIL@@@std@@PAX@1@@Z PROC ; std::_Tree_val<std::_Tree_simple_types<std::pair<unsigned char const ,__TAXDETAIL *> > >::_Erase_tree<std::allocator<std::_Tree_node<std::pair<unsigned char const ,__TAXDETAIL *>,void *> > >, COMDAT
; _this$ = ecx

; 767  :     void _Erase_tree(_Alnode& _Al, _Nodeptr _Rootnode) noexcept {

  00000	55		 push	 ebp
  00001	8b ec		 mov	 ebp, esp
  00003	53		 push	 ebx
  00004	56		 push	 esi

; 768  :         while (!_Rootnode->_Isnil) { // free subtrees, then node

  00005	8b 75 0c	 mov	 esi, DWORD PTR __Rootnode$[ebp]
  00008	8b d9		 mov	 ebx, ecx
  0000a	80 7e 0d 00	 cmp	 BYTE PTR [esi+13], 0
  0000e	75 25		 jne	 SHORT $LN34@Erase_tree
  00010	57		 push	 edi
  00011	8b 7d 08	 mov	 edi, DWORD PTR __Al$[ebp]
$LL2@Erase_tree:

; 769  :             _Erase_tree(_Al, _Rootnode->_Right);

  00014	ff 76 08	 push	 DWORD PTR [esi+8]
  00017	8b cb		 mov	 ecx, ebx
  00019	57		 push	 edi
  0001a	e8 00 00 00 00	 call	 ??$_Erase_tree@V?$allocator@U?$_Tree_node@U?$pair@$$CBEPAU__TAXDETAIL@@@std@@PAX@std@@@std@@@?$_Tree_val@U?$_Tree_simple_types@U?$pair@$$CBEPAU__TAXDETAIL@@@std@@@std@@@std@@QAEXAAV?$allocator@U?$_Tree_node@U?$pair@$$CBEPAU__TAXDETAIL@@@std@@PAX@std@@@1@PAU?$_Tree_node@U?$pair@$$CBEPAU__TAXDETAIL@@@std@@PAX@1@@Z ; std::_Tree_val<std::_Tree_simple_types<std::pair<unsigned char const ,__TAXDETAIL *> > >::_Erase_tree<std::allocator<std::_Tree_node<std::pair<unsigned char const ,__TAXDETAIL *>,void *> > >
; File C:\Program Files\Microsoft Visual Studio\2022\Professional\VC\Tools\MSVC\14.44.35207\include\utility

; 773  :     _Ty _Old_val = static_cast<_Ty&&>(_Val);

  0001f	8b c6		 mov	 eax, esi

; 774  :     _Val         = static_cast<_Other&&>(_New_val);

  00021	8b 36		 mov	 esi, DWORD PTR [esi]
; File C:\Program Files\Microsoft Visual Studio\2022\Professional\VC\Tools\MSVC\14.44.35207\include\xmemory

; 289  :         ::operator delete(_Ptr, _Bytes);

  00023	6a 18		 push	 24			; 00000018H
  00025	50		 push	 eax
  00026	e8 00 00 00 00	 call	 ??3@YAXPAXI@Z		; operator delete
  0002b	83 c4 08	 add	 esp, 8
; File C:\Program Files\Microsoft Visual Studio\2022\Professional\VC\Tools\MSVC\14.44.35207\include\xtree

; 768  :         while (!_Rootnode->_Isnil) { // free subtrees, then node

  0002e	80 7e 0d 00	 cmp	 BYTE PTR [esi+13], 0
  00032	74 e0		 je	 SHORT $LL2@Erase_tree
  00034	5f		 pop	 edi
$LN34@Erase_tree:
  00035	5e		 pop	 esi

; 770  :             _Alnode::value_type::_Freenode(_Al, _STD exchange(_Rootnode, _Rootnode->_Left));
; 771  :         }
; 772  :     }

  00036	5b		 pop	 ebx
  00037	5d		 pop	 ebp
  00038	c2 08 00	 ret	 8
??$_Erase_tree@V?$allocator@U?$_Tree_node@U?$pair@$$CBEPAU__TAXDETAIL@@@std@@PAX@std@@@std@@@?$_Tree_val@U?$_Tree_simple_types@U?$pair@$$CBEPAU__TAXDETAIL@@@std@@@std@@@std@@QAEXAAV?$allocator@U?$_Tree_node@U?$pair@$$CBEPAU__TAXDETAIL@@@std@@PAX@std@@@1@PAU?$_Tree_node@U?$pair@$$CBEPAU__TAXDETAIL@@@std@@PAX@1@@Z ENDP ; std::_Tree_val<std::_Tree_simple_types<std::pair<unsigned char const ,__TAXDETAIL *> > >::_Erase_tree<std::allocator<std::_Tree_node<std::pair<unsigned char const ,__TAXDETAIL *>,void *> > >
_TEXT	ENDS
; Function compile flags: /Ogtp
; File C:\Program Files\Microsoft Visual Studio\2022\Professional\VC\Tools\MSVC\14.44.35207\include\xtree
; File C:\Program Files\Microsoft Visual Studio\2022\Professional\VC\Tools\MSVC\14.44.35207\include\type_traits
; File C:\Program Files\Microsoft Visual Studio\2022\Professional\VC\Tools\MSVC\14.44.35207\include\xtree
; File C:\Program Files\Microsoft Visual Studio\2022\Professional\VC\Tools\MSVC\14.44.35207\include\type_traits
; File C:\Program Files\Microsoft Visual Studio\2022\Professional\VC\Tools\MSVC\14.44.35207\include\xtree
;	COMDAT ??$_Find_lower_bound@E@?$_Tree@V?$_Tmap_traits@EPAU__TAXDETAIL@@U?$less@E@std@@V?$allocator@U?$pair@$$CBEPAU__TAXDETAIL@@@std@@@3@$0A@@std@@@std@@IBE?AU?$_Tree_find_result@PAU?$_Tree_node@U?$pair@$$CBEPAU__TAXDETAIL@@@std@@PAX@std@@@1@ABE@Z
_TEXT	SEGMENT
___$ReturnUdt$ = 8					; size = 4
__Keyval$ = 12						; size = 4
??$_Find_lower_bound@E@?$_Tree@V?$_Tmap_traits@EPAU__TAXDETAIL@@U?$less@E@std@@V?$allocator@U?$pair@$$CBEPAU__TAXDETAIL@@@std@@@3@$0A@@std@@@std@@IBE?AU?$_Tree_find_result@PAU?$_Tree_node@U?$pair@$$CBEPAU__TAXDETAIL@@@std@@PAX@std@@@1@ABE@Z PROC ; std::_Tree<std::_Tmap_traits<unsigned char,__TAXDETAIL *,std::less<unsigned char>,std::allocator<std::pair<unsigned char const ,__TAXDETAIL *> >,0> >::_Find_lower_bound<unsigned char>, COMDAT
; _this$ = ecx

; 1628 :     _Tree_find_result<_Nodeptr> _Find_lower_bound(const _Keyty& _Keyval) const {

  00000	55		 push	 ebp
  00001	8b ec		 mov	 ebp, esp

; 1629 :         const auto _Scary = _Get_scary();
; 1630 :         _Tree_find_result<_Nodeptr> _Result{{_Scary->_Myhead->_Parent, _Tree_child::_Right}, _Scary->_Myhead};

  00003	8b 09		 mov	 ecx, DWORD PTR [ecx]
  00005	8b 55 08	 mov	 edx, DWORD PTR ___$ReturnUdt$[ebp]
  00008	8b 41 04	 mov	 eax, DWORD PTR [ecx+4]
  0000b	89 02		 mov	 DWORD PTR [edx], eax
  0000d	c7 42 04 00 00
	00 00		 mov	 DWORD PTR [edx+4], 0
  00014	89 4a 08	 mov	 DWORD PTR [edx+8], ecx

; 1631 :         _Nodeptr _Trynode = _Result._Location._Parent;
; 1632 :         while (!_Trynode->_Isnil) {

  00017	80 78 0d 00	 cmp	 BYTE PTR [eax+13], 0
  0001b	75 28		 jne	 SHORT $LN13@Find_lower
; File C:\Program Files\Microsoft Visual Studio\2022\Professional\VC\Tools\MSVC\14.44.35207\include\type_traits

; 2380 :         return _Left < _Right;

  0001d	8b 4d 0c	 mov	 ecx, DWORD PTR __Keyval$[ebp]
  00020	53		 push	 ebx
  00021	8a 19		 mov	 bl, BYTE PTR [ecx]
$LL2@Find_lower:
; File C:\Program Files\Microsoft Visual Studio\2022\Professional\VC\Tools\MSVC\14.44.35207\include\xtree

; 1633 :             _Result._Location._Parent = _Trynode;

  00023	89 02		 mov	 DWORD PTR [edx], eax
; File C:\Program Files\Microsoft Visual Studio\2022\Professional\VC\Tools\MSVC\14.44.35207\include\type_traits

; 2380 :         return _Left < _Right;

  00025	38 58 10	 cmp	 BYTE PTR [eax+16], bl
; File C:\Program Files\Microsoft Visual Studio\2022\Professional\VC\Tools\MSVC\14.44.35207\include\xtree

; 1634 :             if (_DEBUG_LT_PRED(_Getcomp(), _Traits::_Kfn(_Trynode->_Myval), _Keyval)) {

  00028	73 07		 jae	 SHORT $LN4@Find_lower

; 1635 :                 _Result._Location._Child = _Tree_child::_Right;
; 1636 :                 _Trynode                 = _Trynode->_Right;

  0002a	8b 40 08	 mov	 eax, DWORD PTR [eax+8]
  0002d	33 c9		 xor	 ecx, ecx

; 1637 :             } else {

  0002f	eb 0a		 jmp	 SHORT $LN5@Find_lower
$LN4@Find_lower:

; 1638 :                 _Result._Location._Child = _Tree_child::_Left;
; 1639 :                 _Result._Bound           = _Trynode;

  00031	89 42 08	 mov	 DWORD PTR [edx+8], eax

; 1640 :                 _Trynode                 = _Trynode->_Left;

  00034	b9 01 00 00 00	 mov	 ecx, 1
  00039	8b 00		 mov	 eax, DWORD PTR [eax]
$LN5@Find_lower:

; 1631 :         _Nodeptr _Trynode = _Result._Location._Parent;
; 1632 :         while (!_Trynode->_Isnil) {

  0003b	89 4a 04	 mov	 DWORD PTR [edx+4], ecx
  0003e	80 78 0d 00	 cmp	 BYTE PTR [eax+13], 0
  00042	74 df		 je	 SHORT $LL2@Find_lower
  00044	5b		 pop	 ebx
$LN13@Find_lower:

; 1641 :             }
; 1642 :         }
; 1643 : 
; 1644 :         return _Result;
; 1645 :     }

  00045	8b c2		 mov	 eax, edx
  00047	5d		 pop	 ebp
  00048	c2 08 00	 ret	 8
??$_Find_lower_bound@E@?$_Tree@V?$_Tmap_traits@EPAU__TAXDETAIL@@U?$less@E@std@@V?$allocator@U?$pair@$$CBEPAU__TAXDETAIL@@@std@@@3@$0A@@std@@@std@@IBE?AU?$_Tree_find_result@PAU?$_Tree_node@U?$pair@$$CBEPAU__TAXDETAIL@@@std@@PAX@std@@@1@ABE@Z ENDP ; std::_Tree<std::_Tmap_traits<unsigned char,__TAXDETAIL *,std::less<unsigned char>,std::allocator<std::pair<unsigned char const ,__TAXDETAIL *> >,0> >::_Find_lower_bound<unsigned char>
_TEXT	ENDS
; Function compile flags: /Ogtp
; File C:\Program Files\Microsoft Visual Studio\2022\Professional\VC\Tools\MSVC\14.44.35207\include\xtree
; File C:\Program Files\Microsoft Visual Studio\2022\Professional\VC\Tools\MSVC\14.44.35207\include\type_traits
; File C:\Program Files\Microsoft Visual Studio\2022\Professional\VC\Tools\MSVC\14.44.35207\include\xtree
; File C:\Program Files\Microsoft Visual Studio\2022\Professional\VC\Tools\MSVC\14.44.35207\include\type_traits
; File C:\Program Files\Microsoft Visual Studio\2022\Professional\VC\Tools\MSVC\14.44.35207\include\xtree
;	COMDAT ??$_Find_lower_bound@E@?$_Tree@V?$_Tmap_traits@EPAU__TAXINFO@@U?$less@E@std@@V?$allocator@U?$pair@$$CBEPAU__TAXINFO@@@std@@@3@$0A@@std@@@std@@IBE?AU?$_Tree_find_result@PAU?$_Tree_node@U?$pair@$$CBEPAU__TAXINFO@@@std@@PAX@std@@@1@ABE@Z
_TEXT	SEGMENT
___$ReturnUdt$ = 8					; size = 4
__Keyval$ = 12						; size = 4
??$_Find_lower_bound@E@?$_Tree@V?$_Tmap_traits@EPAU__TAXINFO@@U?$less@E@std@@V?$allocator@U?$pair@$$CBEPAU__TAXINFO@@@std@@@3@$0A@@std@@@std@@IBE?AU?$_Tree_find_result@PAU?$_Tree_node@U?$pair@$$CBEPAU__TAXINFO@@@std@@PAX@std@@@1@ABE@Z PROC ; std::_Tree<std::_Tmap_traits<unsigned char,__TAXINFO *,std::less<unsigned char>,std::allocator<std::pair<unsigned char const ,__TAXINFO *> >,0> >::_Find_lower_bound<unsigned char>, COMDAT
; _this$ = ecx

; 1628 :     _Tree_find_result<_Nodeptr> _Find_lower_bound(const _Keyty& _Keyval) const {

  00000	55		 push	 ebp
  00001	8b ec		 mov	 ebp, esp

; 1629 :         const auto _Scary = _Get_scary();
; 1630 :         _Tree_find_result<_Nodeptr> _Result{{_Scary->_Myhead->_Parent, _Tree_child::_Right}, _Scary->_Myhead};

  00003	8b 09		 mov	 ecx, DWORD PTR [ecx]
  00005	8b 55 08	 mov	 edx, DWORD PTR ___$ReturnUdt$[ebp]
  00008	8b 41 04	 mov	 eax, DWORD PTR [ecx+4]
  0000b	89 02		 mov	 DWORD PTR [edx], eax
  0000d	c7 42 04 00 00
	00 00		 mov	 DWORD PTR [edx+4], 0
  00014	89 4a 08	 mov	 DWORD PTR [edx+8], ecx

; 1631 :         _Nodeptr _Trynode = _Result._Location._Parent;
; 1632 :         while (!_Trynode->_Isnil) {

  00017	80 78 0d 00	 cmp	 BYTE PTR [eax+13], 0
  0001b	75 28		 jne	 SHORT $LN13@Find_lower
; File C:\Program Files\Microsoft Visual Studio\2022\Professional\VC\Tools\MSVC\14.44.35207\include\type_traits

; 2380 :         return _Left < _Right;

  0001d	8b 4d 0c	 mov	 ecx, DWORD PTR __Keyval$[ebp]
  00020	53		 push	 ebx
  00021	8a 19		 mov	 bl, BYTE PTR [ecx]
$LL2@Find_lower:
; File C:\Program Files\Microsoft Visual Studio\2022\Professional\VC\Tools\MSVC\14.44.35207\include\xtree

; 1633 :             _Result._Location._Parent = _Trynode;

  00023	89 02		 mov	 DWORD PTR [edx], eax
; File C:\Program Files\Microsoft Visual Studio\2022\Professional\VC\Tools\MSVC\14.44.35207\include\type_traits

; 2380 :         return _Left < _Right;

  00025	38 58 10	 cmp	 BYTE PTR [eax+16], bl
; File C:\Program Files\Microsoft Visual Studio\2022\Professional\VC\Tools\MSVC\14.44.35207\include\xtree

; 1634 :             if (_DEBUG_LT_PRED(_Getcomp(), _Traits::_Kfn(_Trynode->_Myval), _Keyval)) {

  00028	73 07		 jae	 SHORT $LN4@Find_lower

; 1635 :                 _Result._Location._Child = _Tree_child::_Right;
; 1636 :                 _Trynode                 = _Trynode->_Right;

  0002a	8b 40 08	 mov	 eax, DWORD PTR [eax+8]
  0002d	33 c9		 xor	 ecx, ecx

; 1637 :             } else {

  0002f	eb 0a		 jmp	 SHORT $LN5@Find_lower
$LN4@Find_lower:

; 1638 :                 _Result._Location._Child = _Tree_child::_Left;
; 1639 :                 _Result._Bound           = _Trynode;

  00031	89 42 08	 mov	 DWORD PTR [edx+8], eax

; 1640 :                 _Trynode                 = _Trynode->_Left;

  00034	b9 01 00 00 00	 mov	 ecx, 1
  00039	8b 00		 mov	 eax, DWORD PTR [eax]
$LN5@Find_lower:

; 1631 :         _Nodeptr _Trynode = _Result._Location._Parent;
; 1632 :         while (!_Trynode->_Isnil) {

  0003b	89 4a 04	 mov	 DWORD PTR [edx+4], ecx
  0003e	80 78 0d 00	 cmp	 BYTE PTR [eax+13], 0
  00042	74 df		 je	 SHORT $LL2@Find_lower
  00044	5b		 pop	 ebx
$LN13@Find_lower:

; 1641 :             }
; 1642 :         }
; 1643 : 
; 1644 :         return _Result;
; 1645 :     }

  00045	8b c2		 mov	 eax, edx
  00047	5d		 pop	 ebp
  00048	c2 08 00	 ret	 8
??$_Find_lower_bound@E@?$_Tree@V?$_Tmap_traits@EPAU__TAXINFO@@U?$less@E@std@@V?$allocator@U?$pair@$$CBEPAU__TAXINFO@@@std@@@3@$0A@@std@@@std@@IBE?AU?$_Tree_find_result@PAU?$_Tree_node@U?$pair@$$CBEPAU__TAXINFO@@@std@@PAX@std@@@1@ABE@Z ENDP ; std::_Tree<std::_Tmap_traits<unsigned char,__TAXINFO *,std::less<unsigned char>,std::allocator<std::pair<unsigned char const ,__TAXINFO *> >,0> >::_Find_lower_bound<unsigned char>
_TEXT	ENDS
; Function compile flags: /Ogtp
; File C:\Program Files\Microsoft Visual Studio\2022\Professional\VC\Tools\MSVC\14.44.35207\include\xtree
; File C:\Program Files\Microsoft Visual Studio\2022\Professional\VC\Tools\MSVC\14.44.35207\include\utility
; File C:\Program Files\Microsoft Visual Studio\2022\Professional\VC\Tools\MSVC\14.44.35207\include\xmemory
; File C:\Program Files\Microsoft Visual Studio\2022\Professional\VC\Tools\MSVC\14.44.35207\include\xtree
;	COMDAT ??$_Erase_tree@V?$allocator@U?$_Tree_node@U?$pair@$$CBEPAU__TAXINFO@@@std@@PAX@std@@@std@@@?$_Tree_val@U?$_Tree_simple_types@U?$pair@$$CBEPAU__TAXINFO@@@std@@@std@@@std@@QAEXAAV?$allocator@U?$_Tree_node@U?$pair@$$CBEPAU__TAXINFO@@@std@@PAX@std@@@1@PAU?$_Tree_node@U?$pair@$$CBEPAU__TAXINFO@@@std@@PAX@1@@Z
_TEXT	SEGMENT
__Al$ = 8						; size = 4
__Rootnode$ = 12					; size = 4
??$_Erase_tree@V?$allocator@U?$_Tree_node@U?$pair@$$CBEPAU__TAXINFO@@@std@@PAX@std@@@std@@@?$_Tree_val@U?$_Tree_simple_types@U?$pair@$$CBEPAU__TAXINFO@@@std@@@std@@@std@@QAEXAAV?$allocator@U?$_Tree_node@U?$pair@$$CBEPAU__TAXINFO@@@std@@PAX@std@@@1@PAU?$_Tree_node@U?$pair@$$CBEPAU__TAXINFO@@@std@@PAX@1@@Z PROC ; std::_Tree_val<std::_Tree_simple_types<std::pair<unsigned char const ,__TAXINFO *> > >::_Erase_tree<std::allocator<std::_Tree_node<std::pair<unsigned char const ,__TAXINFO *>,void *> > >, COMDAT
; _this$ = ecx

; 767  :     void _Erase_tree(_Alnode& _Al, _Nodeptr _Rootnode) noexcept {

  00000	55		 push	 ebp
  00001	8b ec		 mov	 ebp, esp
  00003	53		 push	 ebx
  00004	56		 push	 esi

; 768  :         while (!_Rootnode->_Isnil) { // free subtrees, then node

  00005	8b 75 0c	 mov	 esi, DWORD PTR __Rootnode$[ebp]
  00008	8b d9		 mov	 ebx, ecx
  0000a	80 7e 0d 00	 cmp	 BYTE PTR [esi+13], 0
  0000e	75 25		 jne	 SHORT $LN34@Erase_tree
  00010	57		 push	 edi
  00011	8b 7d 08	 mov	 edi, DWORD PTR __Al$[ebp]
$LL2@Erase_tree:

; 769  :             _Erase_tree(_Al, _Rootnode->_Right);

  00014	ff 76 08	 push	 DWORD PTR [esi+8]
  00017	8b cb		 mov	 ecx, ebx
  00019	57		 push	 edi
  0001a	e8 00 00 00 00	 call	 ??$_Erase_tree@V?$allocator@U?$_Tree_node@U?$pair@$$CBEPAU__TAXINFO@@@std@@PAX@std@@@std@@@?$_Tree_val@U?$_Tree_simple_types@U?$pair@$$CBEPAU__TAXINFO@@@std@@@std@@@std@@QAEXAAV?$allocator@U?$_Tree_node@U?$pair@$$CBEPAU__TAXINFO@@@std@@PAX@std@@@1@PAU?$_Tree_node@U?$pair@$$CBEPAU__TAXINFO@@@std@@PAX@1@@Z ; std::_Tree_val<std::_Tree_simple_types<std::pair<unsigned char const ,__TAXINFO *> > >::_Erase_tree<std::allocator<std::_Tree_node<std::pair<unsigned char const ,__TAXINFO *>,void *> > >
; File C:\Program Files\Microsoft Visual Studio\2022\Professional\VC\Tools\MSVC\14.44.35207\include\utility

; 773  :     _Ty _Old_val = static_cast<_Ty&&>(_Val);

  0001f	8b c6		 mov	 eax, esi

; 774  :     _Val         = static_cast<_Other&&>(_New_val);

  00021	8b 36		 mov	 esi, DWORD PTR [esi]
; File C:\Program Files\Microsoft Visual Studio\2022\Professional\VC\Tools\MSVC\14.44.35207\include\xmemory

; 289  :         ::operator delete(_Ptr, _Bytes);

  00023	6a 18		 push	 24			; 00000018H
  00025	50		 push	 eax
  00026	e8 00 00 00 00	 call	 ??3@YAXPAXI@Z		; operator delete
  0002b	83 c4 08	 add	 esp, 8
; File C:\Program Files\Microsoft Visual Studio\2022\Professional\VC\Tools\MSVC\14.44.35207\include\xtree

; 768  :         while (!_Rootnode->_Isnil) { // free subtrees, then node

  0002e	80 7e 0d 00	 cmp	 BYTE PTR [esi+13], 0
  00032	74 e0		 je	 SHORT $LL2@Erase_tree
  00034	5f		 pop	 edi
$LN34@Erase_tree:
  00035	5e		 pop	 esi

; 770  :             _Alnode::value_type::_Freenode(_Al, _STD exchange(_Rootnode, _Rootnode->_Left));
; 771  :         }
; 772  :     }

  00036	5b		 pop	 ebx
  00037	5d		 pop	 ebp
  00038	c2 08 00	 ret	 8
??$_Erase_tree@V?$allocator@U?$_Tree_node@U?$pair@$$CBEPAU__TAXINFO@@@std@@PAX@std@@@std@@@?$_Tree_val@U?$_Tree_simple_types@U?$pair@$$CBEPAU__TAXINFO@@@std@@@std@@@std@@QAEXAAV?$allocator@U?$_Tree_node@U?$pair@$$CBEPAU__TAXINFO@@@std@@PAX@std@@@1@PAU?$_Tree_node@U?$pair@$$CBEPAU__TAXINFO@@@std@@PAX@1@@Z ENDP ; std::_Tree_val<std::_Tree_simple_types<std::pair<unsigned char const ,__TAXINFO *> > >::_Erase_tree<std::allocator<std::_Tree_node<std::pair<unsigned char const ,__TAXINFO *>,void *> > >
_TEXT	ENDS
; Function compile flags: /Ogtp
; File C:\IAGOS\server\v18\Source\Source\_Network\Misc\Include\Ar.h
;	COMDAT ??$?5E@CAr@@QAEAAV0@AAE@Z
_TEXT	SEGMENT
_t$ = 8							; size = 4
??$?5E@CAr@@QAEAAV0@AAE@Z PROC				; CAr::operator>><unsigned char>, COMDAT
; _this$ = ecx

; 302  : {

  00000	55		 push	 ebp
  00001	8b ec		 mov	 ebp, esp
  00003	8b d1		 mov	 edx, ecx

; 303  : 	if (m_lpBufCur + sizeof(T) <= m_lpBufMax)

  00005	8b 4a 08	 mov	 ecx, DWORD PTR [edx+8]
  00008	8d 41 01	 lea	 eax, DWORD PTR [ecx+1]
  0000b	3b 42 0c	 cmp	 eax, DWORD PTR [edx+12]
  0000e	8b 45 08	 mov	 eax, DWORD PTR _t$[ebp]
  00011	77 0d		 ja	 SHORT $LN2@operator

; 304  : 	{
; 305  : 		t = *(UNALIGNED T*)m_lpBufCur;

  00013	8a 09		 mov	 cl, BYTE PTR [ecx]
  00015	88 08		 mov	 BYTE PTR [eax], cl

; 312  : 	}
; 313  : 	return *this;
; 314  : }

  00017	8b c2		 mov	 eax, edx
  00019	ff 42 08	 inc	 DWORD PTR [edx+8]
  0001c	5d		 pop	 ebp
  0001d	c2 04 00	 ret	 4
$LN2@operator:

; 306  : 		m_lpBufCur += sizeof(T);
; 307  : 	}
; 308  : 	else
; 309  : 	{
; 310  : 		t = T();

  00020	c6 00 00	 mov	 BYTE PTR [eax], 0

; 311  : 		m_lpBufCur = m_lpBufMax;

  00023	8b 42 0c	 mov	 eax, DWORD PTR [edx+12]
  00026	89 42 08	 mov	 DWORD PTR [edx+8], eax

; 312  : 	}
; 313  : 	return *this;
; 314  : }

  00029	8b c2		 mov	 eax, edx
  0002b	5d		 pop	 ebp
  0002c	c2 04 00	 ret	 4
??$?5E@CAr@@QAEAAV0@AAE@Z ENDP				; CAr::operator>><unsigned char>
_TEXT	ENDS
; Function compile flags: /Ogtp
; File C:\IAGOS\server\v18\Source\Source\_Network\Misc\Include\Ar.h
;	COMDAT ??$?6E@CAr@@QAEAAV0@ABE@Z
_TEXT	SEGMENT
_t$ = 8							; size = 4
??$?6E@CAr@@QAEAAV0@ABE@Z PROC				; CAr::operator<<<unsigned char>, COMDAT
; _this$ = ecx

; 255  : {

  00000	55		 push	 ebp
  00001	8b ec		 mov	 ebp, esp
  00003	56		 push	 esi

; 256  : 	CheckBuf(sizeof(T));

  00004	6a 01		 push	 1
  00006	8b f1		 mov	 esi, ecx
  00008	e8 00 00 00 00	 call	 ?CheckBuf@CAr@@QAEXI@Z	; CAr::CheckBuf

; 257  : 	*(UNALIGNED T*)m_lpBufCur = t;

  0000d	8b 45 08	 mov	 eax, DWORD PTR _t$[ebp]
  00010	8b 56 08	 mov	 edx, DWORD PTR [esi+8]
  00013	8a 00		 mov	 al, BYTE PTR [eax]
  00015	88 02		 mov	 BYTE PTR [edx], al

; 258  : 	m_lpBufCur += sizeof(T);
; 259  : 	return *this;

  00017	8b c6		 mov	 eax, esi
  00019	ff 46 08	 inc	 DWORD PTR [esi+8]
  0001c	5e		 pop	 esi

; 260  : }

  0001d	5d		 pop	 ebp
  0001e	c2 04 00	 ret	 4
??$?6E@CAr@@QAEAAV0@ABE@Z ENDP				; CAr::operator<<<unsigned char>
_TEXT	ENDS
; Function compile flags: /Ogtp
; File C:\IAGOS\server\v18\Source\Source\_Network\Misc\Include\Ar.h
;	COMDAT ??$?6I@CAr@@QAEAAV0@ABI@Z
_TEXT	SEGMENT
_t$ = 8							; size = 4
??$?6I@CAr@@QAEAAV0@ABI@Z PROC				; CAr::operator<<<unsigned int>, COMDAT
; _this$ = ecx

; 255  : {

  00000	55		 push	 ebp
  00001	8b ec		 mov	 ebp, esp
  00003	56		 push	 esi

; 256  : 	CheckBuf(sizeof(T));

  00004	6a 04		 push	 4
  00006	8b f1		 mov	 esi, ecx
  00008	e8 00 00 00 00	 call	 ?CheckBuf@CAr@@QAEXI@Z	; CAr::CheckBuf

; 257  : 	*(UNALIGNED T*)m_lpBufCur = t;

  0000d	8b 56 08	 mov	 edx, DWORD PTR [esi+8]
  00010	8b 45 08	 mov	 eax, DWORD PTR _t$[ebp]
  00013	8b 00		 mov	 eax, DWORD PTR [eax]
  00015	89 02		 mov	 DWORD PTR [edx], eax

; 258  : 	m_lpBufCur += sizeof(T);
; 259  : 	return *this;

  00017	8b c6		 mov	 eax, esi
  00019	83 46 08 04	 add	 DWORD PTR [esi+8], 4
  0001d	5e		 pop	 esi

; 260  : }

  0001e	5d		 pop	 ebp
  0001f	c2 04 00	 ret	 4
??$?6I@CAr@@QAEAAV0@ABI@Z ENDP				; CAr::operator<<<unsigned int>
_TEXT	ENDS
; Function compile flags: /Ogtp
;	COMDAT ??__FsTax@?1??GetInstance@CTax@@SAPAV1@XZ@YAXXZ
text$yd	SEGMENT
??__FsTax@?1??GetInstance@CTax@@SAPAV1@XZ@YAXXZ PROC	; `CTax::GetInstance'::`2'::`dynamic atexit destructor for 'sTax'', COMDAT
  00000	b9 00 00 00 00	 mov	 ecx, OFFSET ?sTax@?1??GetInstance@CTax@@SAPAV2@XZ@4V2@A
  00005	e9 00 00 00 00	 jmp	 ??1CTax@@QAE@XZ		; CTax::~CTax
??__FsTax@?1??GetInstance@CTax@@SAPAV1@XZ@YAXXZ ENDP	; `CTax::GetInstance'::`2'::`dynamic atexit destructor for 'sTax''
text$yd	ENDS
; Function compile flags: /Ogtp
; File C:\Program Files\Microsoft Visual Studio\2022\Professional\VC\Tools\MSVC\14.44.35207\include\xtree
;	COMDAT ??E?$_Tree_iterator@V?$_Tree_val@U?$_Tree_simple_types@U?$pair@$$CBEPAU__TAXINFO@@@std@@@std@@@std@@@std@@QAE?AV01@H@Z
_TEXT	SEGMENT
___$ReturnUdt$ = 8					; size = 4
___formal$ = 12						; size = 4
??E?$_Tree_iterator@V?$_Tree_val@U?$_Tree_simple_types@U?$pair@$$CBEPAU__TAXINFO@@@std@@@std@@@std@@@std@@QAE?AV01@H@Z PROC ; std::_Tree_iterator<std::_Tree_val<std::_Tree_simple_types<std::pair<unsigned char const ,__TAXINFO *> > > >::operator++, COMDAT
; _this$ = ecx

; 286  :     _Tree_iterator operator++(int) noexcept {

  00000	55		 push	 ebp
  00001	8b ec		 mov	 ebp, esp
  00003	56		 push	 esi
  00004	8b f1		 mov	 esi, ecx
  00006	57		 push	 edi

; 287  :         _Tree_iterator _Tmp = *this;

  00007	8b 7d 08	 mov	 edi, DWORD PTR ___$ReturnUdt$[ebp]
  0000a	8b 06		 mov	 eax, DWORD PTR [esi]
  0000c	89 07		 mov	 DWORD PTR [edi], eax

; 50   :         if (_Ptr->_Right->_Isnil) { // climb looking for right subtree

  0000e	8b 50 08	 mov	 edx, DWORD PTR [eax+8]
  00011	80 7a 0d 00	 cmp	 BYTE PTR [edx+13], 0
  00015	74 25		 je	 SHORT $LN10@operator

; 51   :             _Nodeptr _Pnode;
; 52   :             while (!(_Pnode = _Ptr->_Parent)->_Isnil && _Ptr == _Pnode->_Right) {

  00017	8b 50 04	 mov	 edx, DWORD PTR [eax+4]
  0001a	80 7a 0d 00	 cmp	 BYTE PTR [edx+13], 0
  0001e	75 30		 jne	 SHORT $LN16@operator
$LL8@operator:
  00020	3b 42 08	 cmp	 eax, DWORD PTR [edx+8]
  00023	75 2b		 jne	 SHORT $LN16@operator

; 53   :                 _Ptr = _Pnode; // ==> parent while right subtree

  00025	89 16		 mov	 DWORD PTR [esi], edx
  00027	8b c2		 mov	 eax, edx
  00029	8b 52 04	 mov	 edx, DWORD PTR [edx+4]
  0002c	80 7a 0d 00	 cmp	 BYTE PTR [edx+13], 0
  00030	74 ee		 je	 SHORT $LL8@operator

; 288  :         _Mybase::operator++();
; 289  :         return _Tmp;
; 290  :     }

  00032	8b c7		 mov	 eax, edi
  00034	89 16		 mov	 DWORD PTR [esi], edx
  00036	5f		 pop	 edi
  00037	5e		 pop	 esi
  00038	5d		 pop	 ebp
  00039	c2 08 00	 ret	 8
$LN10@operator:

; 476  :         while (!_Pnode->_Left->_Isnil) {

  0003c	8b 0a		 mov	 ecx, DWORD PTR [edx]
  0003e	80 79 0d 00	 cmp	 BYTE PTR [ecx+13], 0
  00042	75 0c		 jne	 SHORT $LN16@operator
$LL15@operator:
  00044	8b 01		 mov	 eax, DWORD PTR [ecx]

; 477  :             _Pnode = _Pnode->_Left;

  00046	8b d1		 mov	 edx, ecx
  00048	8b c8		 mov	 ecx, eax
  0004a	80 78 0d 00	 cmp	 BYTE PTR [eax+13], 0
  0004e	74 f4		 je	 SHORT $LL15@operator
$LN16@operator:

; 288  :         _Mybase::operator++();
; 289  :         return _Tmp;
; 290  :     }

  00050	8b c7		 mov	 eax, edi
  00052	89 16		 mov	 DWORD PTR [esi], edx
  00054	5f		 pop	 edi
  00055	5e		 pop	 esi
  00056	5d		 pop	 ebp
  00057	c2 08 00	 ret	 8
??E?$_Tree_iterator@V?$_Tree_val@U?$_Tree_simple_types@U?$pair@$$CBEPAU__TAXINFO@@@std@@@std@@@std@@@std@@QAE?AV01@H@Z ENDP ; std::_Tree_iterator<std::_Tree_val<std::_Tree_simple_types<std::pair<unsigned char const ,__TAXINFO *> > > >::operator++
_TEXT	ENDS
; Function compile flags: /Ogtp
; File C:\Program Files\Microsoft Visual Studio\2022\Professional\VC\Tools\MSVC\14.44.35207\include\map
; File C:\Program Files\Microsoft Visual Studio\2022\Professional\VC\Tools\MSVC\14.44.35207\include\xtree
; File C:\Program Files\Microsoft Visual Studio\2022\Professional\VC\Tools\MSVC\14.44.35207\include\xmemory
; File C:\Program Files\Microsoft Visual Studio\2022\Professional\VC\Tools\MSVC\14.44.35207\include\xtree
; File C:\Program Files\Microsoft Visual Studio\2022\Professional\VC\Tools\MSVC\14.44.35207\include\xmemory
; File C:\Program Files\Microsoft Visual Studio\2022\Professional\VC\Tools\MSVC\14.44.35207\include\utility
; File C:\Program Files\Microsoft Visual Studio\2022\Professional\VC\Tools\MSVC\14.44.35207\include\xmemory
; File C:\Program Files\Microsoft Visual Studio\2022\Professional\VC\Tools\MSVC\14.44.35207\include\xtree
; File C:\Program Files\Microsoft Visual Studio\2022\Professional\VC\Tools\MSVC\14.44.35207\include\xmemory
; File C:\Program Files\Microsoft Visual Studio\2022\Professional\VC\Tools\MSVC\14.44.35207\include\utility
; File C:\Program Files\Microsoft Visual Studio\2022\Professional\VC\Tools\MSVC\14.44.35207\include\xtree
; File C:\Program Files\Microsoft Visual Studio\2022\Professional\VC\Tools\MSVC\14.44.35207\include\utility
; File C:\Program Files\Microsoft Visual Studio\2022\Professional\VC\Tools\MSVC\14.44.35207\include\xtree
; File C:\Program Files\Microsoft Visual Studio\2022\Professional\VC\Tools\MSVC\14.44.35207\include\type_traits
; File C:\Program Files\Microsoft Visual Studio\2022\Professional\VC\Tools\MSVC\14.44.35207\include\xtree
; File C:\Program Files\Microsoft Visual Studio\2022\Professional\VC\Tools\MSVC\14.44.35207\include\xmemory
; File C:\Program Files\Microsoft Visual Studio\2022\Professional\VC\Tools\MSVC\14.44.35207\include\utility
; File C:\Program Files\Microsoft Visual Studio\2022\Professional\VC\Tools\MSVC\14.44.35207\include\xmemory
; File C:\Program Files\Microsoft Visual Studio\2022\Professional\VC\Tools\MSVC\14.44.35207\include\xtree
; File C:\Program Files\Microsoft Visual Studio\2022\Professional\VC\Tools\MSVC\14.44.35207\include\utility
; File C:\Program Files\Microsoft Visual Studio\2022\Professional\VC\Tools\MSVC\14.44.35207\include\map
; File C:\Program Files\Microsoft Visual Studio\2022\Professional\VC\Tools\MSVC\14.44.35207\include\xtree
; File C:\Program Files\Microsoft Visual Studio\2022\Professional\VC\Tools\MSVC\14.44.35207\include\map
;	COMDAT ??$insert@U?$pair@HPAU__TAXINFO@@@std@@$0A@@?$map@EPAU__TAXINFO@@U?$less@E@std@@V?$allocator@U?$pair@$$CBEPAU__TAXINFO@@@std@@@3@@std@@QAE?AU?$pair@V?$_Tree_iterator@V?$_Tree_val@U?$_Tree_simple_types@U?$pair@$$CBEPAU__TAXINFO@@@std@@@std@@@std@@@std@@_N@1@$$QAU?$pair@HPAU__TAXINFO@@@1@@Z
_TEXT	SEGMENT
$T3 = -44						; size = 12
__Loc$4 = -32						; size = 12
__Newnode$5 = -20					; size = 8
__$EHRec$ = -12						; size = 12
___$ReturnUdt$ = 8					; size = 4
__Val$ = 12						; size = 4
tv694 = 15						; size = 1
??$insert@U?$pair@HPAU__TAXINFO@@@std@@$0A@@?$map@EPAU__TAXINFO@@U?$less@E@std@@V?$allocator@U?$pair@$$CBEPAU__TAXINFO@@@std@@@3@@std@@QAE?AU?$pair@V?$_Tree_iterator@V?$_Tree_val@U?$_Tree_simple_types@U?$pair@$$CBEPAU__TAXINFO@@@std@@@std@@@std@@@std@@_N@1@$$QAU?$pair@HPAU__TAXINFO@@@1@@Z PROC ; std::map<unsigned char,__TAXINFO *,std::less<unsigned char>,std::allocator<std::pair<unsigned char const ,__TAXINFO *> > >::insert<std::pair<int,__TAXINFO *>,0>, COMDAT
; _this$ = ecx

; 185  :     pair<iterator, bool> insert(_Valty&& _Val) {

  00000	55		 push	 ebp
  00001	8b ec		 mov	 ebp, esp
  00003	6a ff		 push	 -1
  00005	68 00 00 00 00	 push	 __ehhandler$??$insert@U?$pair@HPAU__TAXINFO@@@std@@$0A@@?$map@EPAU__TAXINFO@@U?$less@E@std@@V?$allocator@U?$pair@$$CBEPAU__TAXINFO@@@std@@@3@@std@@QAE?AU?$pair@V?$_Tree_iterator@V?$_Tree_val@U?$_Tree_simple_types@U?$pair@$$CBEPAU__TAXINFO@@@std@@@std@@@std@@@std@@_N@1@$$QAU?$pair@HPAU__TAXINFO@@@1@@Z
  0000a	64 a1 00 00 00
	00		 mov	 eax, DWORD PTR fs:0
  00010	50		 push	 eax
  00011	83 ec 20	 sub	 esp, 32			; 00000020H
  00014	53		 push	 ebx
  00015	56		 push	 esi
  00016	57		 push	 edi
  00017	a1 00 00 00 00	 mov	 eax, DWORD PTR ___security_cookie
  0001c	33 c5		 xor	 eax, ebp
  0001e	50		 push	 eax
  0001f	8d 45 f4	 lea	 eax, DWORD PTR __$EHRec$[ebp]
  00022	64 a3 00 00 00
	00		 mov	 DWORD PTR fs:0, eax
  00028	8b d9		 mov	 ebx, ecx
; File C:\Program Files\Microsoft Visual Studio\2022\Professional\VC\Tools\MSVC\14.44.35207\include\xtree

; 1026 :             _Tree_temp_node<_Alnode> _Newnode(_Getal(), _Scary->_Myhead, _STD forward<_Valtys>(_Vals)...);

  0002a	8b 33		 mov	 esi, DWORD PTR [ebx]
; File C:\Program Files\Microsoft Visual Studio\2022\Professional\VC\Tools\MSVC\14.44.35207\include\xmemory

; 1160 :     _CONSTEXPR20 explicit _Alloc_construct_ptr(_Alloc& _Al_) : _Al(_Al_), _Ptr(nullptr) {}

  0002c	89 5d ec	 mov	 DWORD PTR __Newnode$5[ebp], ebx

; 136  :         return ::operator new(_Bytes);

  0002f	6a 18		 push	 24			; 00000018H
; File C:\Program Files\Microsoft Visual Studio\2022\Professional\VC\Tools\MSVC\14.44.35207\include\xtree

; 808  :     explicit _Tree_temp_node_alloc(_Alnode& _Al_) : _Alloc_construct_ptr<_Alnode>(_Al_) {

  00031	c7 45 fc 00 00
	00 00		 mov	 DWORD PTR __$EHRec$[ebp+8], 0
; File C:\Program Files\Microsoft Visual Studio\2022\Professional\VC\Tools\MSVC\14.44.35207\include\xmemory

; 1167 :         _Ptr = nullptr; // if allocate throws, prevents double-free

  00038	c7 45 f0 00 00
	00 00		 mov	 DWORD PTR __Newnode$5[ebp+4], 0

; 136  :         return ::operator new(_Bytes);

  0003f	e8 00 00 00 00	 call	 ??2@YAPAXI@Z		; operator new
; File C:\Program Files\Microsoft Visual Studio\2022\Professional\VC\Tools\MSVC\14.44.35207\include\utility

; 303  :         : first(_STD forward<_Other1>(_Right.first)), second(_STD forward<_Other2>(_Right.second)) {}

  00044	8b 4d 0c	 mov	 ecx, DWORD PTR __Val$[ebp]
; File C:\Program Files\Microsoft Visual Studio\2022\Professional\VC\Tools\MSVC\14.44.35207\include\xmemory

; 256  :         return _Traits::_Allocate(_Bytes);

  00047	8b f8		 mov	 edi, eax
; File C:\Program Files\Microsoft Visual Studio\2022\Professional\VC\Tools\MSVC\14.44.35207\include\xtree

; 830  :         _Alnode_traits::construct(this->_Al, _STD addressof(this->_Ptr->_Myval), _STD forward<_Valtys>(_Vals)...);

  00049	8d 57 10	 lea	 edx, DWORD PTR [edi+16]
; File C:\Program Files\Microsoft Visual Studio\2022\Professional\VC\Tools\MSVC\14.44.35207\include\xmemory

; 1168 :         _Ptr = _Al.allocate(1);

  0004c	89 7d f0	 mov	 DWORD PTR __Newnode$5[ebp+4], edi

; 136  :         return ::operator new(_Bytes);

  0004f	83 c4 04	 add	 esp, 4
; File C:\Program Files\Microsoft Visual Studio\2022\Professional\VC\Tools\MSVC\14.44.35207\include\utility

; 303  :         : first(_STD forward<_Other1>(_Right.first)), second(_STD forward<_Other2>(_Right.second)) {}

  00052	8a 01		 mov	 al, BYTE PTR [ecx]
  00054	88 02		 mov	 BYTE PTR [edx], al
  00056	8b 49 04	 mov	 ecx, DWORD PTR [ecx+4]
  00059	89 4a 04	 mov	 DWORD PTR [edx+4], ecx
; File C:\Program Files\Microsoft Visual Studio\2022\Professional\VC\Tools\MSVC\14.44.35207\include\xtree

; 831  :         _Construct_in_place(this->_Ptr->_Left, _Myhead);

  0005c	89 37		 mov	 DWORD PTR [edi], esi

; 832  :         _Construct_in_place(this->_Ptr->_Parent, _Myhead);

  0005e	89 77 04	 mov	 DWORD PTR [edi+4], esi

; 833  :         _Construct_in_place(this->_Ptr->_Right, _Myhead);

  00061	89 77 08	 mov	 DWORD PTR [edi+8], esi
; File C:\Program Files\Microsoft Visual Studio\2022\Professional\VC\Tools\MSVC\14.44.35207\include\utility

; 303  :         : first(_STD forward<_Other1>(_Right.first)), second(_STD forward<_Other2>(_Right.second)) {}

  00064	88 45 0f	 mov	 BYTE PTR tv694[ebp], al
; File C:\Program Files\Microsoft Visual Studio\2022\Professional\VC\Tools\MSVC\14.44.35207\include\xtree

; 834  :         this->_Ptr->_Color = _Red;

  00067	66 c7 47 0c 00
	00		 mov	 WORD PTR [edi+12], 0

; 1031 :                 _Loc = _Find_lower_bound(_Keyval);

  0006d	52		 push	 edx
  0006e	8d 45 d4	 lea	 eax, DWORD PTR $T3[ebp]
  00071	c7 45 fc 01 00
	00 00		 mov	 DWORD PTR __$EHRec$[ebp+8], 1
  00078	50		 push	 eax
  00079	8b cb		 mov	 ecx, ebx
  0007b	e8 00 00 00 00	 call	 ??$_Find_lower_bound@E@?$_Tree@V?$_Tmap_traits@EPAU__TAXINFO@@U?$less@E@std@@V?$allocator@U?$pair@$$CBEPAU__TAXINFO@@@std@@@3@$0A@@std@@@std@@IBE?AU?$_Tree_find_result@PAU?$_Tree_node@U?$pair@$$CBEPAU__TAXINFO@@@std@@PAX@std@@@1@ABE@Z ; std::_Tree<std::_Tmap_traits<unsigned char,__TAXINFO *,std::less<unsigned char>,std::allocator<std::pair<unsigned char const ,__TAXINFO *> >,0> >::_Find_lower_bound<unsigned char>
  00080	8b 70 08	 mov	 esi, DWORD PTR [eax+8]
  00083	f3 0f 7e 00	 movq	 xmm0, QWORD PTR [eax]
  00087	66 0f d6 45 e0	 movq	 QWORD PTR __Loc$4[ebp], xmm0

; 1624 :         return !_Bound->_Isnil && !_DEBUG_LT_PRED(_Getcomp(), _Keyval, _Traits::_Kfn(_Bound->_Myval));

  0008c	80 7e 0d 00	 cmp	 BYTE PTR [esi+13], 0
  00090	75 17		 jne	 SHORT $LN6@insert
; File C:\Program Files\Microsoft Visual Studio\2022\Professional\VC\Tools\MSVC\14.44.35207\include\type_traits

; 2380 :         return _Left < _Right;

  00092	8a 45 0f	 mov	 al, BYTE PTR tv694[ebp]
  00095	3a 46 10	 cmp	 al, BYTE PTR [esi+16]
; File C:\Program Files\Microsoft Visual Studio\2022\Professional\VC\Tools\MSVC\14.44.35207\include\xtree

; 1624 :         return !_Bound->_Isnil && !_DEBUG_LT_PRED(_Getcomp(), _Keyval, _Traits::_Kfn(_Bound->_Myval));

  00098	72 0f		 jb	 SHORT $LN6@insert
; File C:\Program Files\Microsoft Visual Studio\2022\Professional\VC\Tools\MSVC\14.44.35207\include\xmemory

; 289  :         ::operator delete(_Ptr, _Bytes);

  0009a	6a 18		 push	 24			; 00000018H
  0009c	57		 push	 edi
; File C:\Program Files\Microsoft Visual Studio\2022\Professional\VC\Tools\MSVC\14.44.35207\include\utility

; 274  :         : first(_STD forward<_Other1>(_Val1)), second(_STD forward<_Other2>(_Val2)) {

  0009d	32 db		 xor	 bl, bl
; File C:\Program Files\Microsoft Visual Studio\2022\Professional\VC\Tools\MSVC\14.44.35207\include\xmemory

; 289  :         ::operator delete(_Ptr, _Bytes);

  0009f	e8 00 00 00 00	 call	 ??3@YAXPAXI@Z		; operator delete
  000a4	83 c4 08	 add	 esp, 8
; File C:\Program Files\Microsoft Visual Studio\2022\Professional\VC\Tools\MSVC\14.44.35207\include\xtree

; 1033 :                     return {_Loc._Bound, false};

  000a7	eb 1b		 jmp	 SHORT $LN122@insert
$LN6@insert:

; 1648 :         if (max_size() == _Get_scary()->_Mysize) {

  000a9	81 7b 04 aa aa
	aa 0a		 cmp	 DWORD PTR [ebx+4], 178956970 ; 0aaaaaaaH
  000b0	74 2e		 je	 SHORT $LN142@insert

; 1042 :         return {_Scary->_Insert_node(_Loc._Location, _Inserted), true};

  000b2	57		 push	 edi
  000b3	ff 75 e4	 push	 DWORD PTR __Loc$4[ebp+4]
  000b6	8b cb		 mov	 ecx, ebx
  000b8	ff 75 e0	 push	 DWORD PTR __Loc$4[ebp]
  000bb	e8 00 00 00 00	 call	 ?_Insert_node@?$_Tree_val@U?$_Tree_simple_types@U?$pair@$$CBEPAU__TAXINFO@@@std@@@std@@@std@@QAEPAU?$_Tree_node@U?$pair@$$CBEPAU__TAXINFO@@@std@@PAX@2@U?$_Tree_id@PAU?$_Tree_node@U?$pair@$$CBEPAU__TAXINFO@@@std@@PAX@std@@@2@QAU32@@Z ; std::_Tree_val<std::_Tree_simple_types<std::pair<unsigned char const ,__TAXINFO *> > >::_Insert_node
; File C:\Program Files\Microsoft Visual Studio\2022\Professional\VC\Tools\MSVC\14.44.35207\include\utility

; 274  :         : first(_STD forward<_Other1>(_Val1)), second(_STD forward<_Other2>(_Val2)) {

  000c0	8b f0		 mov	 esi, eax
  000c2	b3 01		 mov	 bl, 1
$LN122@insert:
  000c4	8b 45 08	 mov	 eax, DWORD PTR ___$ReturnUdt$[ebp]
  000c7	89 30		 mov	 DWORD PTR [eax], esi
  000c9	88 58 04	 mov	 BYTE PTR [eax+4], bl
; File C:\Program Files\Microsoft Visual Studio\2022\Professional\VC\Tools\MSVC\14.44.35207\include\map

; 187  :     }

  000cc	8b 4d f4	 mov	 ecx, DWORD PTR __$EHRec$[ebp]
  000cf	64 89 0d 00 00
	00 00		 mov	 DWORD PTR fs:0, ecx
  000d6	59		 pop	 ecx
  000d7	5f		 pop	 edi
  000d8	5e		 pop	 esi
  000d9	5b		 pop	 ebx
  000da	8b e5		 mov	 esp, ebp
  000dc	5d		 pop	 ebp
  000dd	c2 08 00	 ret	 8
$LN142@insert:
; File C:\Program Files\Microsoft Visual Studio\2022\Professional\VC\Tools\MSVC\14.44.35207\include\xtree

; 1649 :             _Throw_tree_length_error();

  000e0	e8 00 00 00 00	 call	 ?_Throw_tree_length_error@std@@YAXXZ ; std::_Throw_tree_length_error
$LN140@insert:
  000e5	cc		 int	 3
_TEXT	ENDS
;	COMDAT text$x
text$x	SEGMENT
__unwindfunclet$??$insert@U?$pair@HPAU__TAXINFO@@@std@@$0A@@?$map@EPAU__TAXINFO@@U?$less@E@std@@V?$allocator@U?$pair@$$CBEPAU__TAXINFO@@@std@@@3@@std@@QAE?AU?$pair@V?$_Tree_iterator@V?$_Tree_val@U?$_Tree_simple_types@U?$pair@$$CBEPAU__TAXINFO@@@std@@@std@@@std@@@std@@_N@1@$$QAU?$pair@HPAU__TAXINFO@@@1@@Z$2:
  00000	8d 4d ec	 lea	 ecx, DWORD PTR __Newnode$5[ebp]
  00003	e9 00 00 00 00	 jmp	 ??1?$_Alloc_construct_ptr@V?$allocator@U?$_Tree_node@U?$pair@$$CBEPAU__TAXINFO@@@std@@PAX@std@@@std@@@std@@QAE@XZ ; std::_Alloc_construct_ptr<std::allocator<std::_Tree_node<std::pair<unsigned char const ,__TAXINFO *>,void *> > >::~_Alloc_construct_ptr<std::allocator<std::_Tree_node<std::pair<unsigned char const ,__TAXINFO *>,void *> > >
__unwindfunclet$??$insert@U?$pair@HPAU__TAXINFO@@@std@@$0A@@?$map@EPAU__TAXINFO@@U?$less@E@std@@V?$allocator@U?$pair@$$CBEPAU__TAXINFO@@@std@@@3@@std@@QAE?AU?$pair@V?$_Tree_iterator@V?$_Tree_val@U?$_Tree_simple_types@U?$pair@$$CBEPAU__TAXINFO@@@std@@@std@@@std@@@std@@_N@1@$$QAU?$pair@HPAU__TAXINFO@@@1@@Z$0:
  00008	8d 4d ec	 lea	 ecx, DWORD PTR __Newnode$5[ebp]
  0000b	e9 00 00 00 00	 jmp	 ??1?$_Tree_temp_node@V?$allocator@U?$_Tree_node@U?$pair@$$CBEPAU__TAXINFO@@@std@@PAX@std@@@std@@@std@@QAE@XZ ; std::_Tree_temp_node<std::allocator<std::_Tree_node<std::pair<unsigned char const ,__TAXINFO *>,void *> > >::~_Tree_temp_node<std::allocator<std::_Tree_node<std::pair<unsigned char const ,__TAXINFO *>,void *> > >
  00010	cc		 int	 3
  00011	cc		 int	 3
  00012	cc		 int	 3
  00013	cc		 int	 3
  00014	cc		 int	 3
__ehhandler$??$insert@U?$pair@HPAU__TAXINFO@@@std@@$0A@@?$map@EPAU__TAXINFO@@U?$less@E@std@@V?$allocator@U?$pair@$$CBEPAU__TAXINFO@@@std@@@3@@std@@QAE?AU?$pair@V?$_Tree_iterator@V?$_Tree_val@U?$_Tree_simple_types@U?$pair@$$CBEPAU__TAXINFO@@@std@@@std@@@std@@@std@@_N@1@$$QAU?$pair@HPAU__TAXINFO@@@1@@Z:
  00015	90		 npad	 1
  00016	90		 npad	 1
  00017	8b 54 24 08	 mov	 edx, DWORD PTR [esp+8]
  0001b	8d 42 0c	 lea	 eax, DWORD PTR [edx+12]
  0001e	8b 4a d0	 mov	 ecx, DWORD PTR [edx-48]
  00021	33 c8		 xor	 ecx, eax
  00023	e8 00 00 00 00	 call	 @__security_check_cookie@4
  00028	b8 00 00 00 00	 mov	 eax, OFFSET __ehfuncinfo$??$insert@U?$pair@HPAU__TAXINFO@@@std@@$0A@@?$map@EPAU__TAXINFO@@U?$less@E@std@@V?$allocator@U?$pair@$$CBEPAU__TAXINFO@@@std@@@3@@std@@QAE?AU?$pair@V?$_Tree_iterator@V?$_Tree_val@U?$_Tree_simple_types@U?$pair@$$CBEPAU__TAXINFO@@@std@@@std@@@std@@@std@@_N@1@$$QAU?$pair@HPAU__TAXINFO@@@1@@Z
  0002d	e9 00 00 00 00	 jmp	 ___CxxFrameHandler3
text$x	ENDS
??$insert@U?$pair@HPAU__TAXINFO@@@std@@$0A@@?$map@EPAU__TAXINFO@@U?$less@E@std@@V?$allocator@U?$pair@$$CBEPAU__TAXINFO@@@std@@@3@@std@@QAE?AU?$pair@V?$_Tree_iterator@V?$_Tree_val@U?$_Tree_simple_types@U?$pair@$$CBEPAU__TAXINFO@@@std@@@std@@@std@@@std@@_N@1@$$QAU?$pair@HPAU__TAXINFO@@@1@@Z ENDP ; std::map<unsigned char,__TAXINFO *,std::less<unsigned char>,std::allocator<std::pair<unsigned char const ,__TAXINFO *> > >::insert<std::pair<int,__TAXINFO *>,0>
; Function compile flags: /Ogtp
; File C:\IAGOS\server\v18\Source\Source\_Network\Misc\Include\Ar.h
;	COMDAT ??$?5K@CAr@@QAEAAV0@AAK@Z
_TEXT	SEGMENT
_t$ = 8							; size = 4
??$?5K@CAr@@QAEAAV0@AAK@Z PROC				; CAr::operator>><unsigned long>, COMDAT
; _this$ = ecx

; 302  : {

  00000	55		 push	 ebp
  00001	8b ec		 mov	 ebp, esp
  00003	8b d1		 mov	 edx, ecx

; 303  : 	if (m_lpBufCur + sizeof(T) <= m_lpBufMax)

  00005	8b 4a 08	 mov	 ecx, DWORD PTR [edx+8]
  00008	8d 41 04	 lea	 eax, DWORD PTR [ecx+4]
  0000b	3b 42 0c	 cmp	 eax, DWORD PTR [edx+12]
  0000e	8b 45 08	 mov	 eax, DWORD PTR _t$[ebp]
  00011	77 0e		 ja	 SHORT $LN2@operator

; 304  : 	{
; 305  : 		t = *(UNALIGNED T*)m_lpBufCur;

  00013	8b 09		 mov	 ecx, DWORD PTR [ecx]
  00015	89 08		 mov	 DWORD PTR [eax], ecx

; 312  : 	}
; 313  : 	return *this;
; 314  : }

  00017	8b c2		 mov	 eax, edx
  00019	83 42 08 04	 add	 DWORD PTR [edx+8], 4
  0001d	5d		 pop	 ebp
  0001e	c2 04 00	 ret	 4
$LN2@operator:

; 306  : 		m_lpBufCur += sizeof(T);
; 307  : 	}
; 308  : 	else
; 309  : 	{
; 310  : 		t = T();

  00021	c7 00 00 00 00
	00		 mov	 DWORD PTR [eax], 0

; 311  : 		m_lpBufCur = m_lpBufMax;

  00027	8b 42 0c	 mov	 eax, DWORD PTR [edx+12]
  0002a	89 42 08	 mov	 DWORD PTR [edx+8], eax

; 312  : 	}
; 313  : 	return *this;
; 314  : }

  0002d	8b c2		 mov	 eax, edx
  0002f	5d		 pop	 ebp
  00030	c2 04 00	 ret	 4
??$?5K@CAr@@QAEAAV0@AAK@Z ENDP				; CAr::operator>><unsigned long>
_TEXT	ENDS
; Function compile flags: /Ogtp
; File C:\IAGOS\server\v18\Source\Source\_Network\Misc\Include\Ar.h
;	COMDAT ??$?6K@CAr@@QAEAAV0@ABK@Z
_TEXT	SEGMENT
_t$ = 8							; size = 4
??$?6K@CAr@@QAEAAV0@ABK@Z PROC				; CAr::operator<<<unsigned long>, COMDAT
; _this$ = ecx

; 255  : {

  00000	55		 push	 ebp
  00001	8b ec		 mov	 ebp, esp
  00003	56		 push	 esi

; 256  : 	CheckBuf(sizeof(T));

  00004	6a 04		 push	 4
  00006	8b f1		 mov	 esi, ecx
  00008	e8 00 00 00 00	 call	 ?CheckBuf@CAr@@QAEXI@Z	; CAr::CheckBuf

; 257  : 	*(UNALIGNED T*)m_lpBufCur = t;

  0000d	8b 56 08	 mov	 edx, DWORD PTR [esi+8]
  00010	8b 45 08	 mov	 eax, DWORD PTR _t$[ebp]
  00013	8b 00		 mov	 eax, DWORD PTR [eax]
  00015	89 02		 mov	 DWORD PTR [edx], eax

; 258  : 	m_lpBufCur += sizeof(T);
; 259  : 	return *this;

  00017	8b c6		 mov	 eax, esi
  00019	83 46 08 04	 add	 DWORD PTR [esi+8], 4
  0001d	5e		 pop	 esi

; 260  : }

  0001e	5d		 pop	 ebp
  0001f	c2 04 00	 ret	 4
??$?6K@CAr@@QAEAAV0@ABK@Z ENDP				; CAr::operator<<<unsigned long>
_TEXT	ENDS
; Function compile flags: /Ogtp
; File C:\IAGOS\server\v18\Source\Source\_Network\Misc\Include\Ar.h
;	COMDAT ??$?5H@CAr@@QAEAAV0@AAH@Z
_TEXT	SEGMENT
_t$ = 8							; size = 4
??$?5H@CAr@@QAEAAV0@AAH@Z PROC				; CAr::operator>><int>, COMDAT
; _this$ = ecx

; 302  : {

  00000	55		 push	 ebp
  00001	8b ec		 mov	 ebp, esp
  00003	8b d1		 mov	 edx, ecx

; 303  : 	if (m_lpBufCur + sizeof(T) <= m_lpBufMax)

  00005	8b 4a 08	 mov	 ecx, DWORD PTR [edx+8]
  00008	8d 41 04	 lea	 eax, DWORD PTR [ecx+4]
  0000b	3b 42 0c	 cmp	 eax, DWORD PTR [edx+12]
  0000e	8b 45 08	 mov	 eax, DWORD PTR _t$[ebp]
  00011	77 0e		 ja	 SHORT $LN2@operator

; 304  : 	{
; 305  : 		t = *(UNALIGNED T*)m_lpBufCur;

  00013	8b 09		 mov	 ecx, DWORD PTR [ecx]
  00015	89 08		 mov	 DWORD PTR [eax], ecx

; 312  : 	}
; 313  : 	return *this;
; 314  : }

  00017	8b c2		 mov	 eax, edx
  00019	83 42 08 04	 add	 DWORD PTR [edx+8], 4
  0001d	5d		 pop	 ebp
  0001e	c2 04 00	 ret	 4
$LN2@operator:

; 306  : 		m_lpBufCur += sizeof(T);
; 307  : 	}
; 308  : 	else
; 309  : 	{
; 310  : 		t = T();

  00021	c7 00 00 00 00
	00		 mov	 DWORD PTR [eax], 0

; 311  : 		m_lpBufCur = m_lpBufMax;

  00027	8b 42 0c	 mov	 eax, DWORD PTR [edx+12]
  0002a	89 42 08	 mov	 DWORD PTR [edx+8], eax

; 312  : 	}
; 313  : 	return *this;
; 314  : }

  0002d	8b c2		 mov	 eax, edx
  0002f	5d		 pop	 ebp
  00030	c2 04 00	 ret	 4
??$?5H@CAr@@QAEAAV0@AAH@Z ENDP				; CAr::operator>><int>
_TEXT	ENDS
; Function compile flags: /Ogtp
; File C:\IAGOS\server\v18\Source\Source\_Network\Misc\Include\Ar.h
;	COMDAT ??$?6H@CAr@@QAEAAV0@ABH@Z
_TEXT	SEGMENT
_t$ = 8							; size = 4
??$?6H@CAr@@QAEAAV0@ABH@Z PROC				; CAr::operator<<<int>, COMDAT
; _this$ = ecx

; 255  : {

  00000	55		 push	 ebp
  00001	8b ec		 mov	 ebp, esp
  00003	56		 push	 esi

; 256  : 	CheckBuf(sizeof(T));

  00004	6a 04		 push	 4
  00006	8b f1		 mov	 esi, ecx
  00008	e8 00 00 00 00	 call	 ?CheckBuf@CAr@@QAEXI@Z	; CAr::CheckBuf

; 257  : 	*(UNALIGNED T*)m_lpBufCur = t;

  0000d	8b 56 08	 mov	 edx, DWORD PTR [esi+8]
  00010	8b 45 08	 mov	 eax, DWORD PTR _t$[ebp]
  00013	8b 00		 mov	 eax, DWORD PTR [eax]
  00015	89 02		 mov	 DWORD PTR [edx], eax

; 258  : 	m_lpBufCur += sizeof(T);
; 259  : 	return *this;

  00017	8b c6		 mov	 eax, esi
  00019	83 46 08 04	 add	 DWORD PTR [esi+8], 4
  0001d	5e		 pop	 esi

; 260  : }

  0001e	5d		 pop	 ebp
  0001f	c2 04 00	 ret	 4
??$?6H@CAr@@QAEAAV0@ABH@Z ENDP				; CAr::operator<<<int>
_TEXT	ENDS
; Function compile flags: /Ogtp
; File C:\IAGOS\server\v18\Source\Source\_Common\Tax.cpp
;	COMDAT ?LoadTaxInfo@CTax@@QAEXK@Z
_TEXT	SEGMENT
_dpId$ = 8						; size = 4
?LoadTaxInfo@CTax@@QAEXK@Z PROC				; CTax::LoadTaxInfo, COMDAT
; _this$ = ecx

; 314  : {

  00000	55		 push	 ebp
  00001	8b ec		 mov	 ebp, esp

; 315  : 	m_taxDBController.PostRequest( QUERY_TAX_LOAD, 0, 0, dpId );

  00003	ff 75 08	 push	 DWORD PTR _dpId$[ebp]
  00006	83 c1 2c	 add	 ecx, 44			; 0000002cH
  00009	6a 00		 push	 0
  0000b	6a 00		 push	 0
  0000d	6a 00		 push	 0
  0000f	e8 00 00 00 00	 call	 ?PostRequest@CDbController@@QAEHHPAEHK@Z ; CDbController::PostRequest

; 316  : }

  00014	5d		 pop	 ebp
  00015	c2 04 00	 ret	 4
?LoadTaxInfo@CTax@@QAEXK@Z ENDP				; CTax::LoadTaxInfo
_TEXT	ENDS
; Function compile flags: /Ogtp
; File C:\IAGOS\server\v18\Source\Source\_Common\Tax.cpp
;	COMDAT ?GetEarningRate@CTax@@QAEMEE@Z
_TEXT	SEGMENT
_nCont$ = 8						; size = 1
tv147 = 8						; size = 4
_nTaxKind$ = 12						; size = 1
?GetEarningRate@CTax@@QAEMEE@Z PROC			; CTax::GetEarningRate, COMDAT
; _this$ = ecx

; 291  : {

  00000	55		 push	 ebp
  00001	8b ec		 mov	 ebp, esp

; 292  : 	int nEarningRate = 0;
; 293  : 	switch( nTaxKind )

  00003	0f b6 45 0c	 movzx	 eax, BYTE PTR _nTaxKind$[ebp]
  00007	83 e8 02	 sub	 eax, 2
  0000a	74 10		 je	 SHORT $LN4@GetEarning

; 300  : 		break;
; 301  : 
; 302  : 	default :
; 303  : 		if( nCont == CONT_ALL )		// ±şÁÖŔÎ °ćżě

  0000c	80 7d 08 ff	 cmp	 BYTE PTR _nCont$[ebp], 255 ; 000000ffH
  00010	75 05		 jne	 SHORT $LN8@GetEarning

; 304  : 			nEarningRate = m_nTaxLordRate;

  00012	8b 41 14	 mov	 eax, DWORD PTR [ecx+20]
  00015	eb 13		 jmp	 SHORT $LN6@GetEarning
$LN8@GetEarning:

; 305  : 		else
; 306  : 			nEarningRate = m_nTaxSecretRoomRate;

  00017	8b 41 10	 mov	 eax, DWORD PTR [ecx+16]
  0001a	eb 0e		 jmp	 SHORT $LN6@GetEarning
$LN4@GetEarning:

; 294  : 	{
; 295  : 	case TAX_ADMISSION :	// ŔÔŔĺ·á
; 296  : 		if( nCont == CONT_ALL )		// ±şÁÖŔÎ °ćżě

  0001c	80 7d 08 ff	 cmp	 BYTE PTR _nCont$[ebp], 255 ; 000000ffH
  00020	75 05		 jne	 SHORT $LN5@GetEarning

; 297  : 			nEarningRate = m_nAdmissionLordRate;

  00022	8b 41 1c	 mov	 eax, DWORD PTR [ecx+28]
  00025	eb 03		 jmp	 SHORT $LN6@GetEarning
$LN5@GetEarning:

; 298  : 		else
; 299  : 			nEarningRate = m_nAdmissionSecretRoomRate;

  00027	8b 41 18	 mov	 eax, DWORD PTR [ecx+24]
$LN6@GetEarning:
  0002a	66 0f 6e c8	 movd	 xmm1, eax

; 307  : 		break;
; 308  : 	}
; 309  : 
; 310  : 	return static_cast<float>(nEarningRate) * 0.1f * 0.1f;

  0002e	0f 5b c9	 cvtdq2ps xmm1, xmm1
  00031	f3 0f 59 0d 00
	00 00 00	 mulss	 xmm1, DWORD PTR __real@3dcccccd
  00039	f3 0f 59 0d 00
	00 00 00	 mulss	 xmm1, DWORD PTR __real@3dcccccd
  00041	f3 0f 11 4d 08	 movss	 DWORD PTR tv147[ebp], xmm1
  00046	d9 45 08	 fld	 DWORD PTR tv147[ebp]

; 311  : }

  00049	5d		 pop	 ebp
  0004a	c2 08 00	 ret	 8
?GetEarningRate@CTax@@QAEMEE@Z ENDP			; CTax::GetEarningRate
_TEXT	ENDS
; Function compile flags: /Ogtp
; File C:\IAGOS\server\v18\Source\Source\_Common\Tax.cpp
; File C:\Program Files\Microsoft Visual Studio\2022\Professional\VC\Tools\MSVC\14.44.35207\include\xtree
; File C:\IAGOS\server\v18\Source\Source\_Common\Tax.cpp
; File C:\Program Files\Microsoft Visual Studio\2022\Professional\VC\Tools\MSVC\14.44.35207\include\xtree
; File C:\IAGOS\server\v18\Source\Source\_Common\Tax.cpp
; File C:\Program Files\Microsoft Visual Studio\2022\Professional\VC\Tools\MSVC\14.44.35207\include\xtree
; File C:\IAGOS\server\v18\Source\Source\_Common\Tax.cpp
; File C:\Program Files\Microsoft Visual Studio\2022\Professional\VC\Tools\MSVC\14.44.35207\include\xtree
; File C:\Program Files\Microsoft Visual Studio\2022\Professional\VC\Tools\MSVC\14.44.35207\include\type_traits
; File C:\Program Files\Microsoft Visual Studio\2022\Professional\VC\Tools\MSVC\14.44.35207\include\xtree
; File C:\Program Files\Microsoft Visual Studio\2022\Professional\VC\Tools\MSVC\14.44.35207\include\type_traits
; File C:\Program Files\Microsoft Visual Studio\2022\Professional\VC\Tools\MSVC\14.44.35207\include\xtree
; File C:\IAGOS\server\v18\Source\Source\_Common\Tax.cpp
; File C:\Program Files\Microsoft Visual Studio\2022\Professional\VC\Tools\MSVC\14.44.35207\include\xtree
; File C:\Program Files\Microsoft Visual Studio\2022\Professional\VC\Tools\MSVC\14.44.35207\include\type_traits
; File C:\Program Files\Microsoft Visual Studio\2022\Professional\VC\Tools\MSVC\14.44.35207\include\xtree
; File C:\Program Files\Microsoft Visual Studio\2022\Professional\VC\Tools\MSVC\14.44.35207\include\type_traits
; File C:\Program Files\Microsoft Visual Studio\2022\Professional\VC\Tools\MSVC\14.44.35207\include\xtree
; File C:\IAGOS\server\v18\Source\Source\_Common\Tax.cpp
; File C:\Program Files\Microsoft Visual Studio\2022\Professional\VC\Tools\MSVC\14.44.35207\include\xtree
; File C:\IAGOS\server\v18\Source\Source\_Common\Tax.cpp
; File C:\Program Files\Microsoft Visual Studio\2022\Professional\VC\Tools\MSVC\14.44.35207\include\xtree
; File C:\Program Files\Microsoft Visual Studio\2022\Professional\VC\Tools\MSVC\14.44.35207\include\type_traits
; File C:\Program Files\Microsoft Visual Studio\2022\Professional\VC\Tools\MSVC\14.44.35207\include\xtree
; File C:\IAGOS\server\v18\Source\Source\_Common\Tax.cpp
; File C:\Program Files\Microsoft Visual Studio\2022\Professional\VC\Tools\MSVC\14.44.35207\include\xtree
; File C:\Program Files\Microsoft Visual Studio\2022\Professional\VC\Tools\MSVC\14.44.35207\include\type_traits
; File C:\Program Files\Microsoft Visual Studio\2022\Professional\VC\Tools\MSVC\14.44.35207\include\xtree
; File C:\IAGOS\server\v18\Source\Source\_Common\Tax.cpp
; File C:\Program Files\Microsoft Visual Studio\2022\Professional\VC\Tools\MSVC\14.44.35207\include\xtree
; File C:\IAGOS\server\v18\Source\Source\_Common\Tax.cpp
; File C:\Program Files\Microsoft Visual Studio\2022\Professional\VC\Tools\MSVC\14.44.35207\include\xtree
; File C:\IAGOS\server\v18\Source\Source\_Common\Tax.cpp
; File C:\Program Files\Microsoft Visual Studio\2022\Professional\VC\Tools\MSVC\14.44.35207\include\xtree
; File C:\IAGOS\server\v18\Source\Source\_Common\Tax.cpp
;	COMDAT ?SetChangeNextTax@CTax@@QAEXXZ
_TEXT	SEGMENT
__Loc$1 = -88						; size = 12
__Loc$2 = -76						; size = 12
__Loc$3 = -64						; size = 12
__Loc$4 = -52						; size = 12
__Loc$5 = -40						; size = 12
__Loc$6 = -28						; size = 12
$T7 = -16						; size = 4
$T8 = -16						; size = 4
$T9 = -12						; size = 4
_this$1$ = -8						; size = 4
$T10 = -2						; size = 1
$T11 = -2						; size = 1
$T12 = -2						; size = 1
$T13 = -2						; size = 1
$T14 = -1						; size = 1
$T15 = -1						; size = 1
?SetChangeNextTax@CTax@@QAEXXZ PROC			; CTax::SetChangeNextTax, COMDAT
; _this$ = ecx

; 232  : {

  00000	55		 push	 ebp
  00001	8b ec		 mov	 ebp, esp
  00003	83 ec 58	 sub	 esp, 88			; 00000058H
  00006	56		 push	 esi
  00007	57		 push	 edi
  00008	8b f9		 mov	 edi, ecx
  0000a	89 7d f8	 mov	 DWORD PTR _this$1$[ebp], edi
; File C:\Program Files\Microsoft Visual Studio\2022\Professional\VC\Tools\MSVC\14.44.35207\include\xtree

; 1142 :         return iterator(_Scary->_Myhead->_Left, _Scary);

  0000d	8b 47 08	 mov	 eax, DWORD PTR [edi+8]

; 37   :     _Tree_unchecked_const_iterator(_Nodeptr _Pnode, const _Mytree* _Plist) noexcept : _Ptr(_Pnode) {

  00010	8b 30		 mov	 esi, DWORD PTR [eax]

; 237  :         return !(*this == _Right);

  00012	3b f0		 cmp	 esi, eax
; File C:\IAGOS\server\v18\Source\Source\_Common\Tax.cpp

; 234  : 	for( TAXINFOMAP::iterator it=m_mapTaxInfo.begin(); it!=m_mapTaxInfo.end(); it++ )

  00014	0f 84 0d 02 00
	00		 je	 $LN3@SetChangeN
  0001a	53		 push	 ebx
  0001b	0f 1f 44 00 00	 npad	 5
$LL4@SetChangeN:

; 235  : 	{
; 236  : 		__TAXINFO* taxInfo = it->second;

  00020	8b 5e 14	 mov	 ebx, DWORD PTR [esi+20]

; 237  : 		taxInfo->dwId = taxInfo->dwNextId;
; 238  : 		taxInfo->dwNextId = NULL_ID; // ´ŮŔ˝ ÁÖ ĂĘ±âČ­
; 239  : 		
; 240  : 		if( taxInfo->bSetTaxRate )

  00023	83 7b 04 00	 cmp	 DWORD PTR [ebx+4], 0
  00027	8b 43 10	 mov	 eax, DWORD PTR [ebx+16]
  0002a	89 03		 mov	 DWORD PTR [ebx], eax
  0002c	c7 43 10 ff ff
	ff ff		 mov	 DWORD PTR [ebx+16], -1
  00033	0f 84 d2 00 00
	00		 je	 $LN8@SetChangeN

; 241  : 		{
; 242  : 			if( it->first != CONT_ALL )		// ±şÁÖ´Â ĽĽŔ˛°ú °ü°čľř´Ů.

  00039	80 7e 10 ff	 cmp	 BYTE PTR [esi+16], 255	; 000000ffH
  0003d	0f 84 35 01 00
	00		 je	 $LN11@SetChangeN
; File C:\Program Files\Microsoft Visual Studio\2022\Professional\VC\Tools\MSVC\14.44.35207\include\xtree

; 1384 :         const _Tree_find_result<_Nodeptr> _Loc = _Find_lower_bound(_Keyval);

  00043	8d 45 ff	 lea	 eax, DWORD PTR $T14[ebp]
; File C:\IAGOS\server\v18\Source\Source\_Common\Tax.cpp

; 244  : 				taxInfo->mapTaxDetail.find( TAX_SALES )->second->nTaxRate = taxInfo->mapTaxDetail.find( TAX_SALES )->second->nNextTaxRate;

  00046	c6 45 ff 00	 mov	 BYTE PTR $T14[ebp], 0
; File C:\Program Files\Microsoft Visual Studio\2022\Professional\VC\Tools\MSVC\14.44.35207\include\xtree

; 1384 :         const _Tree_find_result<_Nodeptr> _Loc = _Find_lower_bound(_Keyval);

  0004a	50		 push	 eax
  0004b	8d 45 e4	 lea	 eax, DWORD PTR __Loc$6[ebp]
; File C:\IAGOS\server\v18\Source\Source\_Common\Tax.cpp

; 244  : 				taxInfo->mapTaxDetail.find( TAX_SALES )->second->nTaxRate = taxInfo->mapTaxDetail.find( TAX_SALES )->second->nNextTaxRate;

  0004e	c6 45 fe 00	 mov	 BYTE PTR $T10[ebp], 0
; File C:\Program Files\Microsoft Visual Studio\2022\Professional\VC\Tools\MSVC\14.44.35207\include\xtree

; 1384 :         const _Tree_find_result<_Nodeptr> _Loc = _Find_lower_bound(_Keyval);

  00052	50		 push	 eax
  00053	8d 4b 08	 lea	 ecx, DWORD PTR [ebx+8]
  00056	e8 00 00 00 00	 call	 ??$_Find_lower_bound@E@?$_Tree@V?$_Tmap_traits@EPAU__TAXDETAIL@@U?$less@E@std@@V?$allocator@U?$pair@$$CBEPAU__TAXDETAIL@@@std@@@3@$0A@@std@@@std@@IBE?AU?$_Tree_find_result@PAU?$_Tree_node@U?$pair@$$CBEPAU__TAXDETAIL@@@std@@PAX@std@@@1@ABE@Z ; std::_Tree<std::_Tmap_traits<unsigned char,__TAXDETAIL *,std::less<unsigned char>,std::allocator<std::pair<unsigned char const ,__TAXDETAIL *> >,0> >::_Find_lower_bound<unsigned char>

; 1624 :         return !_Bound->_Isnil && !_DEBUG_LT_PRED(_Getcomp(), _Keyval, _Traits::_Kfn(_Bound->_Myval));

  0005b	8b 45 ec	 mov	 eax, DWORD PTR __Loc$6[ebp+8]
  0005e	89 45 f0	 mov	 DWORD PTR $T7[ebp], eax
  00061	80 78 0d 00	 cmp	 BYTE PTR [eax+13], 0
  00065	75 0b		 jne	 SHORT $LN136@SetChangeN
; File C:\Program Files\Microsoft Visual Studio\2022\Professional\VC\Tools\MSVC\14.44.35207\include\type_traits

; 2380 :         return _Left < _Right;

  00067	80 78 10 00	 cmp	 BYTE PTR [eax+16], 0
; File C:\Program Files\Microsoft Visual Studio\2022\Professional\VC\Tools\MSVC\14.44.35207\include\xtree

; 1624 :         return !_Bound->_Isnil && !_DEBUG_LT_PRED(_Getcomp(), _Keyval, _Traits::_Kfn(_Bound->_Myval));

  0006b	77 05		 ja	 SHORT $LN136@SetChangeN

; 1386 :             return _Loc._Bound;

  0006d	8b 43 08	 mov	 eax, DWORD PTR [ebx+8]
  00070	eb 06		 jmp	 SHORT $LN378@SetChangeN
$LN136@SetChangeN:

; 1387 :         }
; 1388 : 
; 1389 :         return _Get_scary()->_Myhead;

  00072	8b 43 08	 mov	 eax, DWORD PTR [ebx+8]
  00075	89 45 f0	 mov	 DWORD PTR $T7[ebp], eax
$LN378@SetChangeN:

; 1384 :         const _Tree_find_result<_Nodeptr> _Loc = _Find_lower_bound(_Keyval);

  00078	89 45 f4	 mov	 DWORD PTR $T9[ebp], eax
  0007b	8d 4b 08	 lea	 ecx, DWORD PTR [ebx+8]
  0007e	8d 45 fe	 lea	 eax, DWORD PTR $T10[ebp]
  00081	50		 push	 eax
  00082	8d 45 d8	 lea	 eax, DWORD PTR __Loc$5[ebp]
  00085	50		 push	 eax
  00086	e8 00 00 00 00	 call	 ??$_Find_lower_bound@E@?$_Tree@V?$_Tmap_traits@EPAU__TAXDETAIL@@U?$less@E@std@@V?$allocator@U?$pair@$$CBEPAU__TAXDETAIL@@@std@@@3@$0A@@std@@@std@@IBE?AU?$_Tree_find_result@PAU?$_Tree_node@U?$pair@$$CBEPAU__TAXDETAIL@@@std@@PAX@std@@@1@ABE@Z ; std::_Tree<std::_Tmap_traits<unsigned char,__TAXDETAIL *,std::less<unsigned char>,std::allocator<std::pair<unsigned char const ,__TAXDETAIL *> >,0> >::_Find_lower_bound<unsigned char>

; 1624 :         return !_Bound->_Isnil && !_DEBUG_LT_PRED(_Getcomp(), _Keyval, _Traits::_Kfn(_Bound->_Myval));

  0008b	8b 4d e0	 mov	 ecx, DWORD PTR __Loc$5[ebp+8]
  0008e	80 79 0d 00	 cmp	 BYTE PTR [ecx+13], 0
  00092	75 06		 jne	 SHORT $LN166@SetChangeN
; File C:\Program Files\Microsoft Visual Studio\2022\Professional\VC\Tools\MSVC\14.44.35207\include\type_traits

; 2380 :         return _Left < _Right;

  00094	80 79 10 00	 cmp	 BYTE PTR [ecx+16], 0
; File C:\Program Files\Microsoft Visual Studio\2022\Professional\VC\Tools\MSVC\14.44.35207\include\xtree

; 1624 :         return !_Bound->_Isnil && !_DEBUG_LT_PRED(_Getcomp(), _Keyval, _Traits::_Kfn(_Bound->_Myval));

  00098	76 03		 jbe	 SHORT $LN165@SetChangeN
$LN166@SetChangeN:

; 1389 :         return _Get_scary()->_Myhead;

  0009a	8b 4d f4	 mov	 ecx, DWORD PTR $T9[ebp]
$LN165@SetChangeN:
; File C:\IAGOS\server\v18\Source\Source\_Common\Tax.cpp

; 244  : 				taxInfo->mapTaxDetail.find( TAX_SALES )->second->nTaxRate = taxInfo->mapTaxDetail.find( TAX_SALES )->second->nNextTaxRate;

  0009d	8b 45 f0	 mov	 eax, DWORD PTR $T7[ebp]
  000a0	8b 49 14	 mov	 ecx, DWORD PTR [ecx+20]

; 245  : 				taxInfo->mapTaxDetail.find( TAX_PURCHASE )->second->nTaxRate = taxInfo->mapTaxDetail.find( TAX_PURCHASE )->second->nNextTaxRate;

  000a3	c6 45 fe 01	 mov	 BYTE PTR $T11[ebp], 1
  000a7	c6 45 ff 01	 mov	 BYTE PTR $T15[ebp], 1
  000ab	8b 40 14	 mov	 eax, DWORD PTR [eax+20]
  000ae	8b 40 10	 mov	 eax, DWORD PTR [eax+16]
  000b1	89 01		 mov	 DWORD PTR [ecx], eax
; File C:\Program Files\Microsoft Visual Studio\2022\Professional\VC\Tools\MSVC\14.44.35207\include\xtree

; 1384 :         const _Tree_find_result<_Nodeptr> _Loc = _Find_lower_bound(_Keyval);

  000b3	8d 45 fe	 lea	 eax, DWORD PTR $T11[ebp]
  000b6	50		 push	 eax
  000b7	8d 45 cc	 lea	 eax, DWORD PTR __Loc$4[ebp]
  000ba	50		 push	 eax
  000bb	8d 4b 08	 lea	 ecx, DWORD PTR [ebx+8]
  000be	e8 00 00 00 00	 call	 ??$_Find_lower_bound@E@?$_Tree@V?$_Tmap_traits@EPAU__TAXDETAIL@@U?$less@E@std@@V?$allocator@U?$pair@$$CBEPAU__TAXDETAIL@@@std@@@3@$0A@@std@@@std@@IBE?AU?$_Tree_find_result@PAU?$_Tree_node@U?$pair@$$CBEPAU__TAXDETAIL@@@std@@PAX@std@@@1@ABE@Z ; std::_Tree<std::_Tmap_traits<unsigned char,__TAXDETAIL *,std::less<unsigned char>,std::allocator<std::pair<unsigned char const ,__TAXDETAIL *> >,0> >::_Find_lower_bound<unsigned char>

; 1624 :         return !_Bound->_Isnil && !_DEBUG_LT_PRED(_Getcomp(), _Keyval, _Traits::_Kfn(_Bound->_Myval));

  000c3	8b 45 d4	 mov	 eax, DWORD PTR __Loc$4[ebp+8]
  000c6	89 45 f0	 mov	 DWORD PTR $T8[ebp], eax
  000c9	80 78 0d 00	 cmp	 BYTE PTR [eax+13], 0
  000cd	75 06		 jne	 SHORT $LN196@SetChangeN
; File C:\Program Files\Microsoft Visual Studio\2022\Professional\VC\Tools\MSVC\14.44.35207\include\type_traits

; 2380 :         return _Left < _Right;

  000cf	80 78 10 01	 cmp	 BYTE PTR [eax+16], 1
; File C:\Program Files\Microsoft Visual Studio\2022\Professional\VC\Tools\MSVC\14.44.35207\include\xtree

; 1624 :         return !_Bound->_Isnil && !_DEBUG_LT_PRED(_Getcomp(), _Keyval, _Traits::_Kfn(_Bound->_Myval));

  000d3	76 06		 jbe	 SHORT $LN195@SetChangeN
$LN196@SetChangeN:

; 1389 :         return _Get_scary()->_Myhead;

  000d5	8b 43 08	 mov	 eax, DWORD PTR [ebx+8]
  000d8	89 45 f0	 mov	 DWORD PTR $T8[ebp], eax
$LN195@SetChangeN:

; 1384 :         const _Tree_find_result<_Nodeptr> _Loc = _Find_lower_bound(_Keyval);

  000db	8d 45 ff	 lea	 eax, DWORD PTR $T15[ebp]
  000de	50		 push	 eax
  000df	8d 45 c0	 lea	 eax, DWORD PTR __Loc$3[ebp]
  000e2	50		 push	 eax
  000e3	8d 4b 08	 lea	 ecx, DWORD PTR [ebx+8]
  000e6	e8 00 00 00 00	 call	 ??$_Find_lower_bound@E@?$_Tree@V?$_Tmap_traits@EPAU__TAXDETAIL@@U?$less@E@std@@V?$allocator@U?$pair@$$CBEPAU__TAXDETAIL@@@std@@@3@$0A@@std@@@std@@IBE?AU?$_Tree_find_result@PAU?$_Tree_node@U?$pair@$$CBEPAU__TAXDETAIL@@@std@@PAX@std@@@1@ABE@Z ; std::_Tree<std::_Tmap_traits<unsigned char,__TAXDETAIL *,std::less<unsigned char>,std::allocator<std::pair<unsigned char const ,__TAXDETAIL *> >,0> >::_Find_lower_bound<unsigned char>

; 1624 :         return !_Bound->_Isnil && !_DEBUG_LT_PRED(_Getcomp(), _Keyval, _Traits::_Kfn(_Bound->_Myval));

  000eb	8b 4d c8	 mov	 ecx, DWORD PTR __Loc$3[ebp+8]
  000ee	80 79 0d 00	 cmp	 BYTE PTR [ecx+13], 0
  000f2	75 06		 jne	 SHORT $LN230@SetChangeN
; File C:\Program Files\Microsoft Visual Studio\2022\Professional\VC\Tools\MSVC\14.44.35207\include\type_traits

; 2380 :         return _Left < _Right;

  000f4	80 79 10 01	 cmp	 BYTE PTR [ecx+16], 1
; File C:\Program Files\Microsoft Visual Studio\2022\Professional\VC\Tools\MSVC\14.44.35207\include\xtree

; 1624 :         return !_Bound->_Isnil && !_DEBUG_LT_PRED(_Getcomp(), _Keyval, _Traits::_Kfn(_Bound->_Myval));

  000f8	76 03		 jbe	 SHORT $LN225@SetChangeN
$LN230@SetChangeN:
  000fa	8b 4b 08	 mov	 ecx, DWORD PTR [ebx+8]
$LN225@SetChangeN:
; File C:\IAGOS\server\v18\Source\Source\_Common\Tax.cpp

; 245  : 				taxInfo->mapTaxDetail.find( TAX_PURCHASE )->second->nTaxRate = taxInfo->mapTaxDetail.find( TAX_PURCHASE )->second->nNextTaxRate;

  000fd	8b 45 f0	 mov	 eax, DWORD PTR $T8[ebp]
  00100	8b 7d f8	 mov	 edi, DWORD PTR _this$1$[ebp]
  00103	8b 40 14	 mov	 eax, DWORD PTR [eax+20]
  00106	8b 40 10	 mov	 eax, DWORD PTR [eax+16]
  00109	eb 68		 jmp	 SHORT $LN379@SetChangeN
$LN8@SetChangeN:

; 246  : 			}
; 247  : 		}
; 248  : 		else	// ĽĽŔ˛ şŻ°ćŔ» ÇĎÁö ľĘľŇŔ» °ćżě ±âş» ĽĽŔ˛·Î ĽłÁ¤
; 249  : 		{
; 250  : 			taxInfo->bSetTaxRate = TRUE;	// ´őŔĚ»ó ĽĽŔ˛ ĽłÁ¤ Ă˘ŔĚ ľČ¶ßµµ·Ď ĽłÁ¤ÇŃ °ÍŔ¸·Î ¸¸µç´Ů.

  0010b	c7 43 04 01 00
	00 00		 mov	 DWORD PTR [ebx+4], 1

; 251  : 			if( it->first != CONT_ALL )		// ±şÁÖ´Â ĽĽŔ˛°ú °ü°čľř´Ů.

  00112	80 7e 10 ff	 cmp	 BYTE PTR [esi+16], 255	; 000000ffH
  00116	74 60		 je	 SHORT $LN11@SetChangeN
; File C:\Program Files\Microsoft Visual Studio\2022\Professional\VC\Tools\MSVC\14.44.35207\include\xtree

; 1384 :         const _Tree_find_result<_Nodeptr> _Loc = _Find_lower_bound(_Keyval);

  00118	8d 45 fe	 lea	 eax, DWORD PTR $T12[ebp]
; File C:\IAGOS\server\v18\Source\Source\_Common\Tax.cpp

; 253  : 				taxInfo->mapTaxDetail.find( TAX_SALES )->second->nTaxRate = m_nMinTaxRate;

  0011b	c6 45 fe 00	 mov	 BYTE PTR $T12[ebp], 0
; File C:\Program Files\Microsoft Visual Studio\2022\Professional\VC\Tools\MSVC\14.44.35207\include\xtree

; 1384 :         const _Tree_find_result<_Nodeptr> _Loc = _Find_lower_bound(_Keyval);

  0011f	50		 push	 eax
  00120	8d 45 b4	 lea	 eax, DWORD PTR __Loc$2[ebp]
  00123	50		 push	 eax
  00124	8d 4b 08	 lea	 ecx, DWORD PTR [ebx+8]
  00127	e8 00 00 00 00	 call	 ??$_Find_lower_bound@E@?$_Tree@V?$_Tmap_traits@EPAU__TAXDETAIL@@U?$less@E@std@@V?$allocator@U?$pair@$$CBEPAU__TAXDETAIL@@@std@@@3@$0A@@std@@@std@@IBE?AU?$_Tree_find_result@PAU?$_Tree_node@U?$pair@$$CBEPAU__TAXDETAIL@@@std@@PAX@std@@@1@ABE@Z ; std::_Tree<std::_Tmap_traits<unsigned char,__TAXDETAIL *,std::less<unsigned char>,std::allocator<std::pair<unsigned char const ,__TAXDETAIL *> >,0> >::_Find_lower_bound<unsigned char>

; 1624 :         return !_Bound->_Isnil && !_DEBUG_LT_PRED(_Getcomp(), _Keyval, _Traits::_Kfn(_Bound->_Myval));

  0012c	8b 4d bc	 mov	 ecx, DWORD PTR __Loc$2[ebp+8]
  0012f	80 79 0d 00	 cmp	 BYTE PTR [ecx+13], 0
  00133	75 06		 jne	 SHORT $LN256@SetChangeN
; File C:\Program Files\Microsoft Visual Studio\2022\Professional\VC\Tools\MSVC\14.44.35207\include\type_traits

; 2380 :         return _Left < _Right;

  00135	80 79 10 00	 cmp	 BYTE PTR [ecx+16], 0
; File C:\Program Files\Microsoft Visual Studio\2022\Professional\VC\Tools\MSVC\14.44.35207\include\xtree

; 1624 :         return !_Bound->_Isnil && !_DEBUG_LT_PRED(_Getcomp(), _Keyval, _Traits::_Kfn(_Bound->_Myval));

  00139	76 03		 jbe	 SHORT $LN255@SetChangeN
$LN256@SetChangeN:

; 1389 :         return _Get_scary()->_Myhead;

  0013b	8b 4b 08	 mov	 ecx, DWORD PTR [ebx+8]
$LN255@SetChangeN:
; File C:\IAGOS\server\v18\Source\Source\_Common\Tax.cpp

; 253  : 				taxInfo->mapTaxDetail.find( TAX_SALES )->second->nTaxRate = m_nMinTaxRate;

  0013e	8b 49 14	 mov	 ecx, DWORD PTR [ecx+20]
  00141	8b 45 f8	 mov	 eax, DWORD PTR _this$1$[ebp]

; 254  : 				taxInfo->mapTaxDetail.find( TAX_PURCHASE )->second->nTaxRate = m_nMinTaxRate;

  00144	c6 45 fe 01	 mov	 BYTE PTR $T13[ebp], 1
  00148	8b 00		 mov	 eax, DWORD PTR [eax]
  0014a	89 01		 mov	 DWORD PTR [ecx], eax
; File C:\Program Files\Microsoft Visual Studio\2022\Professional\VC\Tools\MSVC\14.44.35207\include\xtree

; 1384 :         const _Tree_find_result<_Nodeptr> _Loc = _Find_lower_bound(_Keyval);

  0014c	8d 45 fe	 lea	 eax, DWORD PTR $T13[ebp]
  0014f	50		 push	 eax
  00150	8d 45 a8	 lea	 eax, DWORD PTR __Loc$1[ebp]
  00153	50		 push	 eax
  00154	8d 4b 08	 lea	 ecx, DWORD PTR [ebx+8]
  00157	e8 00 00 00 00	 call	 ??$_Find_lower_bound@E@?$_Tree@V?$_Tmap_traits@EPAU__TAXDETAIL@@U?$less@E@std@@V?$allocator@U?$pair@$$CBEPAU__TAXDETAIL@@@std@@@3@$0A@@std@@@std@@IBE?AU?$_Tree_find_result@PAU?$_Tree_node@U?$pair@$$CBEPAU__TAXDETAIL@@@std@@PAX@std@@@1@ABE@Z ; std::_Tree<std::_Tmap_traits<unsigned char,__TAXDETAIL *,std::less<unsigned char>,std::allocator<std::pair<unsigned char const ,__TAXDETAIL *> >,0> >::_Find_lower_bound<unsigned char>

; 1624 :         return !_Bound->_Isnil && !_DEBUG_LT_PRED(_Getcomp(), _Keyval, _Traits::_Kfn(_Bound->_Myval));

  0015c	8b 4d b0	 mov	 ecx, DWORD PTR __Loc$1[ebp+8]
  0015f	80 79 0d 00	 cmp	 BYTE PTR [ecx+13], 0
  00163	75 06		 jne	 SHORT $LN286@SetChangeN
; File C:\Program Files\Microsoft Visual Studio\2022\Professional\VC\Tools\MSVC\14.44.35207\include\type_traits

; 2380 :         return _Left < _Right;

  00165	80 79 10 01	 cmp	 BYTE PTR [ecx+16], 1
; File C:\Program Files\Microsoft Visual Studio\2022\Professional\VC\Tools\MSVC\14.44.35207\include\xtree

; 1624 :         return !_Bound->_Isnil && !_DEBUG_LT_PRED(_Getcomp(), _Keyval, _Traits::_Kfn(_Bound->_Myval));

  00169	76 03		 jbe	 SHORT $LN285@SetChangeN
$LN286@SetChangeN:

; 1389 :         return _Get_scary()->_Myhead;

  0016b	8b 4b 08	 mov	 ecx, DWORD PTR [ebx+8]
$LN285@SetChangeN:
; File C:\IAGOS\server\v18\Source\Source\_Common\Tax.cpp

; 254  : 				taxInfo->mapTaxDetail.find( TAX_PURCHASE )->second->nTaxRate = m_nMinTaxRate;

  0016e	8b 7d f8	 mov	 edi, DWORD PTR _this$1$[ebp]
  00171	8b 07		 mov	 eax, DWORD PTR [edi]
$LN379@SetChangeN:
; File C:\Program Files\Microsoft Visual Studio\2022\Professional\VC\Tools\MSVC\14.44.35207\include\xtree

; 1142 :         return iterator(_Scary->_Myhead->_Left, _Scary);

  00173	8b 49 14	 mov	 ecx, DWORD PTR [ecx+20]
  00176	89 01		 mov	 DWORD PTR [ecx], eax
$LN11@SetChangeN:
  00178	8b 4b 08	 mov	 ecx, DWORD PTR [ebx+8]

; 37   :     _Tree_unchecked_const_iterator(_Nodeptr _Pnode, const _Mytree* _Plist) noexcept : _Ptr(_Pnode) {

  0017b	8b 01		 mov	 eax, DWORD PTR [ecx]

; 237  :         return !(*this == _Right);

  0017d	3b c1		 cmp	 eax, ecx
; File C:\IAGOS\server\v18\Source\Source\_Common\Tax.cpp

; 259  : 		for( TAXDETAILMAP::iterator it2=taxInfo->mapTaxDetail.begin(); it2!=taxInfo->mapTaxDetail.end(); it2++ )

  0017f	74 60		 je	 SHORT $LN2@SetChangeN
$LL7@SetChangeN:

; 260  : 		{
; 261  : 			__TAXDETAIL* taxDetail = it2->second;

  00181	8b 48 14	 mov	 ecx, DWORD PTR [eax+20]

; 262  : 			taxDetail->nNextTaxRate = 0;

  00184	c7 41 10 00 00
	00 00		 mov	 DWORD PTR [ecx+16], 0

; 263  : 			taxDetail->nTaxCount = 0;

  0018b	c7 41 04 00 00
	00 00		 mov	 DWORD PTR [ecx+4], 0

; 264  : 			taxDetail->nTaxPerin = 0;

  00192	c7 41 0c 00 00
	00 00		 mov	 DWORD PTR [ecx+12], 0

; 265  : 			taxDetail->nTaxGold = 0;

  00199	c7 41 08 00 00
	00 00		 mov	 DWORD PTR [ecx+8], 0
; File C:\Program Files\Microsoft Visual Studio\2022\Professional\VC\Tools\MSVC\14.44.35207\include\xtree

; 50   :         if (_Ptr->_Right->_Isnil) { // climb looking for right subtree

  001a0	8b 48 08	 mov	 ecx, DWORD PTR [eax+8]
  001a3	80 79 0d 00	 cmp	 BYTE PTR [ecx+13], 0
  001a7	74 1d		 je	 SHORT $LN76@SetChangeN

; 51   :             _Nodeptr _Pnode;
; 52   :             while (!(_Pnode = _Ptr->_Parent)->_Isnil && _Ptr == _Pnode->_Right) {

  001a9	8b 48 04	 mov	 ecx, DWORD PTR [eax+4]
  001ac	80 79 0d 00	 cmp	 BYTE PTR [ecx+13], 0
  001b0	75 10		 jne	 SHORT $LN356@SetChangeN
$LL74@SetChangeN:
  001b2	3b 41 08	 cmp	 eax, DWORD PTR [ecx+8]
  001b5	75 0b		 jne	 SHORT $LN356@SetChangeN

; 53   :                 _Ptr = _Pnode; // ==> parent while right subtree

  001b7	8b c1		 mov	 eax, ecx
  001b9	8b 49 04	 mov	 ecx, DWORD PTR [ecx+4]
  001bc	80 79 0d 00	 cmp	 BYTE PTR [ecx+13], 0
  001c0	74 f0		 je	 SHORT $LL74@SetChangeN
$LN356@SetChangeN:

; 54   :             }
; 55   : 
; 56   :             _Ptr = _Pnode; // ==> parent (head if end())

  001c2	8b c1		 mov	 eax, ecx

; 57   :         } else {

  001c4	eb 16		 jmp	 SHORT $LN82@SetChangeN
$LN76@SetChangeN:

; 58   :             _Ptr = _Mytree::_Min(_Ptr->_Right); // ==> smallest of right subtree

  001c6	8b c1		 mov	 eax, ecx

; 476  :         while (!_Pnode->_Left->_Isnil) {

  001c8	8b 10		 mov	 edx, DWORD PTR [eax]
  001ca	80 7a 0d 00	 cmp	 BYTE PTR [edx+13], 0
  001ce	75 0c		 jne	 SHORT $LN82@SetChangeN
$LL81@SetChangeN:
  001d0	8b 0a		 mov	 ecx, DWORD PTR [edx]

; 477  :             _Pnode = _Pnode->_Left;

  001d2	8b c2		 mov	 eax, edx
  001d4	8b d1		 mov	 edx, ecx
  001d6	80 79 0d 00	 cmp	 BYTE PTR [ecx+13], 0
  001da	74 f4		 je	 SHORT $LL81@SetChangeN
$LN82@SetChangeN:

; 237  :         return !(*this == _Right);

  001dc	3b 43 08	 cmp	 eax, DWORD PTR [ebx+8]
; File C:\IAGOS\server\v18\Source\Source\_Common\Tax.cpp

; 259  : 		for( TAXDETAILMAP::iterator it2=taxInfo->mapTaxDetail.begin(); it2!=taxInfo->mapTaxDetail.end(); it2++ )

  001df	75 a0		 jne	 SHORT $LL7@SetChangeN
$LN2@SetChangeN:
; File C:\Program Files\Microsoft Visual Studio\2022\Professional\VC\Tools\MSVC\14.44.35207\include\xtree

; 50   :         if (_Ptr->_Right->_Isnil) { // climb looking for right subtree

  001e1	8b 46 08	 mov	 eax, DWORD PTR [esi+8]
  001e4	80 78 0d 00	 cmp	 BYTE PTR [eax+13], 0
  001e8	74 1d		 je	 SHORT $LN58@SetChangeN

; 51   :             _Nodeptr _Pnode;
; 52   :             while (!(_Pnode = _Ptr->_Parent)->_Isnil && _Ptr == _Pnode->_Right) {

  001ea	8b 46 04	 mov	 eax, DWORD PTR [esi+4]
  001ed	80 78 0d 00	 cmp	 BYTE PTR [eax+13], 0
  001f1	75 10		 jne	 SHORT $LN357@SetChangeN
$LL56@SetChangeN:
  001f3	3b 70 08	 cmp	 esi, DWORD PTR [eax+8]
  001f6	75 0b		 jne	 SHORT $LN357@SetChangeN

; 53   :                 _Ptr = _Pnode; // ==> parent while right subtree

  001f8	8b f0		 mov	 esi, eax
  001fa	8b 40 04	 mov	 eax, DWORD PTR [eax+4]
  001fd	80 78 0d 00	 cmp	 BYTE PTR [eax+13], 0
  00201	74 f0		 je	 SHORT $LL56@SetChangeN
$LN357@SetChangeN:

; 54   :             }
; 55   : 
; 56   :             _Ptr = _Pnode; // ==> parent (head if end())

  00203	8b f0		 mov	 esi, eax

; 57   :         } else {

  00205	eb 16		 jmp	 SHORT $LN64@SetChangeN
$LN58@SetChangeN:

; 58   :             _Ptr = _Mytree::_Min(_Ptr->_Right); // ==> smallest of right subtree

  00207	8b f0		 mov	 esi, eax

; 476  :         while (!_Pnode->_Left->_Isnil) {

  00209	8b 0e		 mov	 ecx, DWORD PTR [esi]
  0020b	80 79 0d 00	 cmp	 BYTE PTR [ecx+13], 0
  0020f	75 0c		 jne	 SHORT $LN64@SetChangeN
$LL63@SetChangeN:
  00211	8b 01		 mov	 eax, DWORD PTR [ecx]

; 477  :             _Pnode = _Pnode->_Left;

  00213	8b f1		 mov	 esi, ecx
  00215	8b c8		 mov	 ecx, eax
  00217	80 78 0d 00	 cmp	 BYTE PTR [eax+13], 0
  0021b	74 f4		 je	 SHORT $LL63@SetChangeN
$LN64@SetChangeN:

; 237  :         return !(*this == _Right);

  0021d	3b 77 08	 cmp	 esi, DWORD PTR [edi+8]
; File C:\IAGOS\server\v18\Source\Source\_Common\Tax.cpp

; 234  : 	for( TAXINFOMAP::iterator it=m_mapTaxInfo.begin(); it!=m_mapTaxInfo.end(); it++ )

  00220	0f 85 fa fd ff
	ff		 jne	 $LL4@SetChangeN
  00226	5b		 pop	 ebx
$LN3@SetChangeN:
  00227	5f		 pop	 edi

; 266  : 		}
; 267  : 	}
; 268  : }

  00228	5e		 pop	 esi
  00229	8b e5		 mov	 esp, ebp
  0022b	5d		 pop	 ebp
  0022c	c3		 ret	 0
?SetChangeNextTax@CTax@@QAEXXZ ENDP			; CTax::SetChangeNextTax
_TEXT	ENDS
; Function compile flags: /Ogtp
; File C:\IAGOS\server\v18\Source\Source\_Common\Tax.cpp
; File C:\Program Files\Microsoft Visual Studio\2022\Professional\VC\Tools\MSVC\14.44.35207\include\xstring
; File C:\IAGOS\server\v18\Source\Source\_Common\LuaBase.h
; File C:\IAGOS\server\v18\Source\Source\_Common\Tax.cpp
; File C:\IAGOS\server\v18\Source\Source\_Common\LuaBase.h
; File C:\IAGOS\server\v18\Source\Source\_Common\Tax.cpp
; File C:\IAGOS\server\v18\Source\Source\_Common\LuaBase.h
; File C:\IAGOS\server\v18\Source\Source\_Common\Tax.cpp
;	COMDAT ?CheckChangeTime@CTax@@QAEXHH@Z
_TEXT	SEGMENT
_bPay$ = 8						; size = 4
_bGameMaster$ = 12					; size = 4
?CheckChangeTime@CTax@@QAEXHH@Z PROC			; CTax::CheckChangeTime, COMDAT
; _this$ = ecx

; 200  : {

  00000	55		 push	 ebp
  00001	8b ec		 mov	 ebp, esp
  00003	56		 push	 esi
  00004	8b f1		 mov	 esi, ecx

; 201  : 	// ĽĽŔ˛ şŻ°ć ˝Ă°ŁŔ» °Ë»çÇŘĽ­ ĽĽŔ˛Ŕ» şŻ°ćÇŃ´Ů.
; 202  : 	// bPay°ˇ FALSEŔÎ°ćżě Áö±ŢµÇÁö ľĘŔş °ćżěŔĚąÇ·Î şŻ°ćŔüżˇ Áö±ŢÇŃ´Ů.
; 203  : 	// bGameMasterŔÇ ±âş»°ŞŔş FALSEŔĚłŞ GMŔĚ °­Á¦·Î ´ŮŔ˝ ĽĽŔ˛Ŕ» ŔűżëÇŇ °ćżě ˝Ă°Łżˇ °ü°čľřŔĚ şŻ°ćÇŃ´Ů.
; 204  : 	
; 205  : 	// ±şÁÖ°ˇ Ľ±ĂâµÇ´Â ÁÖ(2ÁÖŔĎżˇ ÇŃąř)ŔÎ°ćżě...
; 206  : 	IElection* pElection	= CTLord::Instance()->GetElection();

  00006	e8 00 00 00 00	 call	 ?Instance@CTLord@@SAPAV1@XZ ; CTLord::Instance

; 207  : 	if( pElection->GetState() == IElection::ELECTION_STATE::eVote ) // ĹőÇĄÁßŔÎ »óĹÂ

  0000b	8b 40 08	 mov	 eax, DWORD PTR [eax+8]
  0000e	83 78 10 02	 cmp	 DWORD PTR [eax+16], 2
  00012	0f 84 b1 00 00
	00		 je	 $LN1@CheckChang

; 208  : 		return;	// ľĆÁ÷ ±şÁÖ°ˇ Ľ±ĂâŔĚ µÇÁö ľĘľŇŔ¸ąÇ·Î ´ŮŔ˝ TimeOut¶§ ´Ů˝Ă °Ë»çÇŃ´Ů.
; 209  : 	
; 210  : 	if( m_Lua.GetLuaFunction( "CheckChangeTime" ) )

  00018	53		 push	 ebx
  00019	68 00 00 00 00	 push	 OFFSET ??_C@_0BA@LNDBAGIB@CheckChangeTime@
  0001e	8d 4e 24	 lea	 ecx, DWORD PTR [esi+36]
  00021	e8 00 00 00 00	 call	 ?GetLuaFunction@CLuaBase@@QAEHPAD@Z ; CLuaBase::GetLuaFunction
  00026	85 c0		 test	 eax, eax
  00028	0f 84 90 00 00
	00		 je	 $LN4@CheckChang
; File C:\Program Files\Microsoft Visual Studio\2022\Professional\VC\Tools\MSVC\14.44.35207\include\xstring

; 453  :         return _Myres > _Small_string_capacity;

  0002e	83 7e 5c 0f	 cmp	 DWORD PTR [esi+92], 15	; 0000000fH

; 444  :         const value_type* _Result = _Bx._Buf;

  00032	8d 46 48	 lea	 eax, DWORD PTR [esi+72]
  00035	57		 push	 edi

; 445  :         if (_Large_mode_engaged()) {

  00036	76 03		 jbe	 SHORT $LN14@CheckChang

; 446  :             _Result = _Unfancy(_Bx._Ptr);

  00038	8b 46 48	 mov	 eax, DWORD PTR [esi+72]
$LN14@CheckChang:
; File C:\IAGOS\server\v18\Source\Source\_Common\LuaBase.h

; 37   : 	void		PushString( const char* szValue )			{  lua_pushstring( m_pLuaState, szValue );  }

  0003b	50		 push	 eax
  0003c	ff 76 28	 push	 DWORD PTR [esi+40]
  0003f	e8 00 00 00 00	 call	 _lua_pushstring
  00044	83 c4 08	 add	 esp, 8
; File C:\IAGOS\server\v18\Source\Source\_Common\Tax.cpp

; 213  : 		m_Lua.CallLuaFunction( 1, 2 );

  00047	8d 4e 24	 lea	 ecx, DWORD PTR [esi+36]
  0004a	6a 02		 push	 2
  0004c	6a 01		 push	 1
  0004e	e8 00 00 00 00	 call	 ?CallLuaFunction@CLuaBase@@QAEXHH@Z ; CLuaBase::CallLuaFunction
; File C:\IAGOS\server\v18\Source\Source\_Common\LuaBase.h

; 45   : 	BOOL		ToBool( int nStackPos )						{  return static_cast<BOOL>( lua_toboolean( m_pLuaState, nStackPos ) );  }

  00053	6a fe		 push	 -2			; fffffffeH
  00055	ff 76 28	 push	 DWORD PTR [esi+40]
  00058	e8 00 00 00 00	 call	 _lua_toboolean
  0005d	83 c4 08	 add	 esp, 8
; File C:\IAGOS\server\v18\Source\Source\_Common\Tax.cpp

; 214  : 		if( m_Lua.ToBool( -2 ) || bGameMaster )		// ĽĽŔ˛ŔĚ şŻ°ćµÉ ˝Ă°ŁŔĚ¸é...

  00060	85 c0		 test	 eax, eax
  00062	75 05		 jne	 SHORT $LN5@CheckChang
  00064	39 45 0c	 cmp	 DWORD PTR _bGameMaster$[ebp], eax
  00067	74 54		 je	 SHORT $LN34@CheckChang
$LN5@CheckChang:

; 215  : 		{
; 216  : 			// Ľ·´Ů µîŔÇ ŔĚŔŻ·Î Áö±ŢŔĚ ŔĚ·çľîÁöÁö ľĘŔş°ćżě ¸ŐŔú Áö±ŢÇŃ´Ů.
; 217  : 			if( !bPay )

  00069	83 7d 08 00	 cmp	 DWORD PTR _bPay$[ebp], 0
  0006d	75 10		 jne	 SHORT $LN28@CheckChang

; 218  : 				m_taxDBController.PostRequest( QUERY_TAX_PAY, 0, 0, 0 );

  0006f	6a 00		 push	 0
  00071	6a 00		 push	 0
  00073	6a 00		 push	 0
  00075	6a 01		 push	 1
  00077	8d 4e 2c	 lea	 ecx, DWORD PTR [esi+44]
  0007a	e8 00 00 00 00	 call	 ?PostRequest@CDbController@@QAEHHPAEHK@Z ; CDbController::PostRequest
$LN28@CheckChang:

; 219  : 
; 220  : 			// ÇöŔç ¶Ç´Â »ő·Î Ľ±ĂâµČ ±şÁÖ¸¦ ĽłÁ¤ÇŃ´Ů.
; 221  : 			m_taxDBController.PostRequest( QUERY_TAX_SETNEXT_LORD, 0, 0, CTLord::Instance()->Get() );			

  0007f	e8 00 00 00 00	 call	 ?Instance@CTLord@@SAPAV1@XZ ; CTLord::Instance
  00084	8d 4e 2c	 lea	 ecx, DWORD PTR [esi+44]
  00087	ff 70 04	 push	 DWORD PTR [eax+4]
  0008a	6a 00		 push	 0
  0008c	6a 00		 push	 0
  0008e	6a 04		 push	 4
  00090	e8 00 00 00 00	 call	 ?PostRequest@CDbController@@QAEHHPAEHK@Z ; CDbController::PostRequest
; File C:\IAGOS\server\v18\Source\Source\_Common\LuaBase.h

; 44   : 	const char*	ToString( int nStackPos )					{  return lua_tostring( m_pLuaState, nStackPos );  }

  00095	6a 00		 push	 0
  00097	6a ff		 push	 -1
  00099	ff 76 28	 push	 DWORD PTR [esi+40]
  0009c	e8 00 00 00 00	 call	 _lua_tolstring
  000a1	83 c4 0c	 add	 esp, 12			; 0000000cH
; File C:\IAGOS\server\v18\Source\Source\_Common\Tax.cpp

; 224  : 			m_strChangedDate = m_Lua.ToString( -1 );

  000a4	8d 4e 48	 lea	 ecx, DWORD PTR [esi+72]
  000a7	50		 push	 eax
  000a8	e8 00 00 00 00	 call	 ??4?$basic_string@DU?$char_traits@D@std@@V?$allocator@D@2@@std@@QAEAAV01@QBD@Z ; std::basic_string<char,std::char_traits<char>,std::allocator<char> >::operator=

; 225  : 			m_taxDBController.PostRequest( QUERY_TAX_CHANGENEXT, 0, 0, 0 );

  000ad	6a 00		 push	 0
  000af	6a 00		 push	 0
  000b1	6a 00		 push	 0
  000b3	6a 02		 push	 2
  000b5	8d 4e 2c	 lea	 ecx, DWORD PTR [esi+44]
  000b8	e8 00 00 00 00	 call	 ?PostRequest@CDbController@@QAEHHPAEHK@Z ; CDbController::PostRequest
$LN34@CheckChang:
  000bd	5f		 pop	 edi
$LN4@CheckChang:

; 226  : 		}
; 227  : 	}
; 228  : 	m_Lua.Pop(0);

  000be	6a 00		 push	 0
  000c0	8d 4e 24	 lea	 ecx, DWORD PTR [esi+36]
  000c3	e8 00 00 00 00	 call	 ?Pop@CLuaBase@@QAEXH@Z	; CLuaBase::Pop
  000c8	5b		 pop	 ebx
$LN1@CheckChang:
  000c9	5e		 pop	 esi

; 229  : }

  000ca	5d		 pop	 ebp
  000cb	c2 08 00	 ret	 8
?CheckChangeTime@CTax@@QAEXHH@Z ENDP			; CTax::CheckChangeTime
_TEXT	ENDS
; Function compile flags: /Ogtp
; File C:\IAGOS\server\v18\Source\Source\_Common\Tax.cpp
; File C:\IAGOS\server\v18\Source\Source\_Common\LuaBase.h
; File C:\IAGOS\server\v18\Source\Source\_Common\Tax.cpp
;	COMDAT ?CheckPayTime@CTax@@QAEHXZ
_TEXT	SEGMENT
?CheckPayTime@CTax@@QAEHXZ PROC				; CTax::CheckPayTime, COMDAT
; _this$ = ecx

; 271  : {

  00000	53		 push	 ebx
  00001	56		 push	 esi
  00002	57		 push	 edi
  00003	8b f9		 mov	 edi, ecx

; 272  : 	// Áö±Ţ˝Ă°Ł °Ë»ç -	Áö±Ţ ˝Ă°ŁŔş "˝Ă:şĐ"ŔĚ ąÝµĺ˝Ă ŔĎÄˇÇŘľß ÇŃ´Ů.(Ľ·´Ů µîŔÇ ŔĚŔŻ·Î ĂćşĐČ÷ ˝ÇĆĐÇŇ Ľö ŔÖ´Ů)
; 273  : 	//					¸¸ľŕ ˝Ă°ŁŔĚ ÁöłŞĽ­ Áö±ŢŔĚ ľČµČ°ćżě ´ŮŔ˝łŻ ´Ů˝Ă °Ë»çÇŘĽ­ °°ŔĚ Áö±ŢÇŃ´Ů.
; 274  : 	//					´ŮŔ˝ ĽĽŔ˛·Î şŻ°ćÇŇ ˝Ă°ŁŔĚ¸é bPay¸¦ ÂüÁ¶ÇĎż© FALSEŔÎ °ćżě şŻ°ćŔüżˇ Áö±ŢÇŃ´Ů.
; 275  : 	BOOL bPay = FALSE;

  00005	33 db		 xor	 ebx, ebx

; 276  : 	if( m_Lua.GetLuaFunction( "CheckPayTime" ) )

  00007	68 00 00 00 00	 push	 OFFSET ??_C@_0N@JMAFDKBD@CheckPayTime@
  0000c	8d 4f 24	 lea	 ecx, DWORD PTR [edi+36]
  0000f	e8 00 00 00 00	 call	 ?GetLuaFunction@CLuaBase@@QAEHPAD@Z ; CLuaBase::GetLuaFunction
  00014	85 c0		 test	 eax, eax
  00016	74 30		 je	 SHORT $LN3@CheckPayTi

; 277  : 	{
; 278  : 		m_Lua.CallLuaFunction( 0, 1 );

  00018	6a 01		 push	 1
  0001a	53		 push	 ebx
  0001b	8d 4f 24	 lea	 ecx, DWORD PTR [edi+36]
  0001e	e8 00 00 00 00	 call	 ?CallLuaFunction@CLuaBase@@QAEXHH@Z ; CLuaBase::CallLuaFunction
; File C:\IAGOS\server\v18\Source\Source\_Common\LuaBase.h

; 45   : 	BOOL		ToBool( int nStackPos )						{  return static_cast<BOOL>( lua_toboolean( m_pLuaState, nStackPos ) );  }

  00023	6a ff		 push	 -1
  00025	ff 77 28	 push	 DWORD PTR [edi+40]
  00028	e8 00 00 00 00	 call	 _lua_toboolean
  0002d	83 c4 08	 add	 esp, 8
; File C:\IAGOS\server\v18\Source\Source\_Common\Tax.cpp

; 279  : 		if( m_Lua.ToBool( -1 ) )

  00030	85 c0		 test	 eax, eax
  00032	74 14		 je	 SHORT $LN3@CheckPayTi

; 280  : 		{
; 281  : 			bPay = TRUE;
; 282  : 			m_taxDBController.PostRequest( QUERY_TAX_PAY, 0, 0, 0 );

  00034	6a 00		 push	 0
  00036	6a 00		 push	 0
  00038	6a 00		 push	 0
  0003a	bb 01 00 00 00	 mov	 ebx, 1
  0003f	8d 4f 2c	 lea	 ecx, DWORD PTR [edi+44]
  00042	53		 push	 ebx
  00043	e8 00 00 00 00	 call	 ?PostRequest@CDbController@@QAEHHPAEHK@Z ; CDbController::PostRequest
$LN3@CheckPayTi:

; 283  : 		}
; 284  : 	}
; 285  : 	m_Lua.Pop(0);

  00048	6a 00		 push	 0
  0004a	8d 4f 24	 lea	 ecx, DWORD PTR [edi+36]
  0004d	e8 00 00 00 00	 call	 ?Pop@CLuaBase@@QAEXH@Z	; CLuaBase::Pop

; 286  : 
; 287  : 	return bPay;

  00052	5f		 pop	 edi
  00053	5e		 pop	 esi
  00054	8b c3		 mov	 eax, ebx
  00056	5b		 pop	 ebx

; 288  : }

  00057	c3		 ret	 0
?CheckPayTime@CTax@@QAEHXZ ENDP				; CTax::CheckPayTime
_TEXT	ENDS
; Function compile flags: /Ogtp
; File C:\IAGOS\server\v18\Source\Source\_Common\Tax.cpp
; File C:\IAGOS\server\v18\Source\Source\_Common\LuaBase.h
; File C:\IAGOS\server\v18\Source\Source\_Common\Tax.cpp
; File C:\IAGOS\server\v18\Source\Source\_Common\LuaBase.h
; File C:\IAGOS\server\v18\Source\Source\_Common\Tax.cpp
; File C:\Program Files\Microsoft Visual Studio\2022\Professional\VC\Tools\MSVC\14.44.35207\include\vector
; File C:\IAGOS\server\v18\Source\Source\_Common\Tax.cpp
; File C:\Program Files\Microsoft Visual Studio\2022\Professional\VC\Tools\MSVC\14.44.35207\include\vector
; File C:\IAGOS\server\v18\Source\Source\_Common\Tax.cpp
; File C:\IAGOS\server\v18\Source\Source\_Common\LuaBase.h
; File C:\IAGOS\server\v18\Source\Source\_Common\Tax.cpp
;	COMDAT ?LoadScript@CTax@@QAEXXZ
_TEXT	SEGMENT
$T1 = -4						; size = 4
?LoadScript@CTax@@QAEXXZ PROC				; CTax::LoadScript, COMDAT
; _this$ = ecx

; 166  : {

  00000	55		 push	 ebp
  00001	8b ec		 mov	 ebp, esp
  00003	51		 push	 ecx
  00004	53		 push	 ebx
  00005	57		 push	 edi
  00006	8b f9		 mov	 edi, ecx

; 167  : 	if( m_Lua.RunScript( "Tax.lua" ) != 0 )

  00008	68 00 00 00 00	 push	 OFFSET ??_C@_07KANMDMNE@Tax?4lua@
  0000d	8d 4f 24	 lea	 ecx, DWORD PTR [edi+36]
  00010	e8 00 00 00 00	 call	 ?RunScript@CLuaBase@@QAEHPBD@Z ; CLuaBase::RunScript
  00015	85 c0		 test	 eax, eax
  00017	74 0d		 je	 SHORT $LN4@LoadScript

; 168  : 	{
; 169  : 		Error( "Tax.lua Run Failed !!!" );

  00019	68 00 00 00 00	 push	 OFFSET ??_C@_0BH@GCMNILJK@Tax?4lua?5Run?5Failed?5?$CB?$CB?$CB@
  0001e	e8 00 00 00 00	 call	 ?Error@@YAPBDPBDZZ	; Error
  00023	83 c4 04	 add	 esp, 4
$LN4@LoadScript:

; 170  : 		ASSERT(0);
; 171  : 	}
; 172  : 
; 173  : 	m_nMinTaxRate =					static_cast<int>( m_Lua.GetGlobalNumber( "MinTaxRate" ) );

  00026	68 00 00 00 00	 push	 OFFSET ??_C@_0L@KBBAAJBF@MinTaxRate@
  0002b	8d 4f 24	 lea	 ecx, DWORD PTR [edi+36]
  0002e	e8 00 00 00 00	 call	 ?GetGlobalNumber@CLuaBase@@QAENPAD@Z ; CLuaBase::GetGlobalNumber
  00033	e8 00 00 00 00	 call	 __ftol2_sse

; 174  : 	m_nMaxTaxRate =					static_cast<int>( m_Lua.GetGlobalNumber( "MaxTaxRate" ) );

  00038	68 00 00 00 00	 push	 OFFSET ??_C@_0L@GNBNHCBK@MaxTaxRate@
  0003d	8d 4f 24	 lea	 ecx, DWORD PTR [edi+36]
  00040	89 07		 mov	 DWORD PTR [edi], eax
  00042	e8 00 00 00 00	 call	 ?GetGlobalNumber@CLuaBase@@QAENPAD@Z ; CLuaBase::GetGlobalNumber
  00047	e8 00 00 00 00	 call	 __ftol2_sse

; 175  : 	m_nTaxSecretRoomRate =			static_cast<int>( m_Lua.GetGlobalNumber( "TaxSecretRoomRate" ) );

  0004c	68 00 00 00 00	 push	 OFFSET ??_C@_0BC@HLGHAKHH@TaxSecretRoomRate@
  00051	8d 4f 24	 lea	 ecx, DWORD PTR [edi+36]
  00054	89 47 04	 mov	 DWORD PTR [edi+4], eax
  00057	e8 00 00 00 00	 call	 ?GetGlobalNumber@CLuaBase@@QAENPAD@Z ; CLuaBase::GetGlobalNumber
  0005c	e8 00 00 00 00	 call	 __ftol2_sse

; 176  : 	m_nTaxLordRate =				static_cast<int>( m_Lua.GetGlobalNumber( "TaxLordRate" ) );

  00061	68 00 00 00 00	 push	 OFFSET ??_C@_0M@JMFHEJJO@TaxLordRate@
  00066	8d 4f 24	 lea	 ecx, DWORD PTR [edi+36]
  00069	89 47 10	 mov	 DWORD PTR [edi+16], eax
  0006c	e8 00 00 00 00	 call	 ?GetGlobalNumber@CLuaBase@@QAENPAD@Z ; CLuaBase::GetGlobalNumber
  00071	e8 00 00 00 00	 call	 __ftol2_sse

; 177  : 	m_nAdmissionSecretRoomRate =	static_cast<int>( m_Lua.GetGlobalNumber( "AdmissionSecretRoomRate" ) );

  00076	68 00 00 00 00	 push	 OFFSET ??_C@_0BI@LJACBDPE@AdmissionSecretRoomRate@
  0007b	8d 4f 24	 lea	 ecx, DWORD PTR [edi+36]
  0007e	89 47 14	 mov	 DWORD PTR [edi+20], eax
  00081	e8 00 00 00 00	 call	 ?GetGlobalNumber@CLuaBase@@QAENPAD@Z ; CLuaBase::GetGlobalNumber
  00086	e8 00 00 00 00	 call	 __ftol2_sse

; 178  : 	m_nAdmissionLordRate =			static_cast<int>( m_Lua.GetGlobalNumber( "AdmissionLordRate" ) );

  0008b	68 00 00 00 00	 push	 OFFSET ??_C@_0BC@LCJMAADJ@AdmissionLordRate@
  00090	8d 4f 24	 lea	 ecx, DWORD PTR [edi+36]
  00093	89 47 18	 mov	 DWORD PTR [edi+24], eax
  00096	e8 00 00 00 00	 call	 ?GetGlobalNumber@CLuaBase@@QAENPAD@Z ; CLuaBase::GetGlobalNumber
  0009b	e8 00 00 00 00	 call	 __ftol2_sse

; 179  : 	m_nDBSaveCount =				static_cast<int>( m_Lua.GetGlobalNumber( "DBSaveCount" ) );

  000a0	68 00 00 00 00	 push	 OFFSET ??_C@_0M@FELENEOA@DBSaveCount@
  000a5	8d 4f 24	 lea	 ecx, DWORD PTR [edi+36]
  000a8	89 47 1c	 mov	 DWORD PTR [edi+28], eax
  000ab	e8 00 00 00 00	 call	 ?GetGlobalNumber@CLuaBase@@QAENPAD@Z ; CLuaBase::GetGlobalNumber
  000b0	e8 00 00 00 00	 call	 __ftol2_sse
  000b5	89 47 20	 mov	 DWORD PTR [edi+32], eax

; 180  : 	if( m_nDBSaveCount < 1 )

  000b8	83 f8 01	 cmp	 eax, 1
  000bb	7d 07		 jge	 SHORT $LN5@LoadScript

; 181  : 		m_nDBSaveCount = 1;

  000bd	c7 47 20 01 00
	00 00		 mov	 DWORD PTR [edi+32], 1
$LN5@LoadScript:
; File C:\IAGOS\server\v18\Source\Source\_Common\LuaBase.h

; 47   : 	void		GetGloabal( char* szName )					{  lua_getglobal( m_pLuaState, szName );  }

  000c4	68 00 00 00 00	 push	 OFFSET ??_C@_0BE@DCFJJNKF@tOccupationShopItem@
  000c9	ff 77 28	 push	 DWORD PTR [edi+40]
  000cc	e8 00 00 00 00	 call	 _lua_getglobal

; 40   : 	void		PushNil()									{  lua_pushnil( m_pLuaState );  }

  000d1	ff 77 28	 push	 DWORD PTR [edi+40]
  000d4	e8 00 00 00 00	 call	 _lua_pushnil

; 46   : 	int			TableLoop( int nStackPos )					{  return lua_next( m_pLuaState, nStackPos );  }	

  000d9	6a fe		 push	 -2			; fffffffeH
  000db	ff 77 28	 push	 DWORD PTR [edi+40]
  000de	e8 00 00 00 00	 call	 _lua_next
  000e3	83 c4 14	 add	 esp, 20			; 00000014H
; File C:\IAGOS\server\v18\Source\Source\_Common\Tax.cpp

; 189  : 	while( m_Lua.TableLoop( -2 ) )

  000e6	85 c0		 test	 eax, eax
  000e8	74 57		 je	 SHORT $LN3@LoadScript
  000ea	56		 push	 esi
  000eb	0f 1f 44 00 00	 npad	 5
$LL2@LoadScript:
; File C:\IAGOS\server\v18\Source\Source\_Common\LuaBase.h

; 44   : 	const char*	ToString( int nStackPos )					{  return lua_tostring( m_pLuaState, nStackPos );  }

  000f0	6a 00		 push	 0
  000f2	6a ff		 push	 -1
  000f4	ff 77 28	 push	 DWORD PTR [edi+40]
  000f7	e8 00 00 00 00	 call	 _lua_tolstring
; File C:\IAGOS\server\v18\Source\Source\_Common\Tax.cpp

; 191  : 		m_vecdwOccupationShopItem.push_back( CScript::GetDefineNum( m_Lua.ToString( -1 ) ) );

  000fc	50		 push	 eax
  000fd	e8 00 00 00 00	 call	 ?GetDefineNum@CScript@@SAHPBD@Z ; CScript::GetDefineNum
; File C:\Program Files\Microsoft Visual Studio\2022\Professional\VC\Tools\MSVC\14.44.35207\include\vector

; 844  :         if (_Mylast != _My_data._Myend) {

  00102	8b 4f 64	 mov	 ecx, DWORD PTR [edi+100]
; File C:\IAGOS\server\v18\Source\Source\_Common\Tax.cpp

; 191  : 		m_vecdwOccupationShopItem.push_back( CScript::GetDefineNum( m_Lua.ToString( -1 ) ) );

  00105	83 c4 10	 add	 esp, 16			; 00000010H
  00108	89 45 fc	 mov	 DWORD PTR $T1[ebp], eax
; File C:\Program Files\Microsoft Visual Studio\2022\Professional\VC\Tools\MSVC\14.44.35207\include\vector

; 844  :         if (_Mylast != _My_data._Myend) {

  0010b	3b 4f 68	 cmp	 ecx, DWORD PTR [edi+104]
  0010e	74 08		 je	 SHORT $LN18@LoadScript

; 860  :             _STD _Construct_in_place(*_Mylast, _STD forward<_Valty>(_Val)...);

  00110	89 01		 mov	 DWORD PTR [ecx], eax

; 861  :         } else {
; 862  :             _ASAN_VECTOR_EXTEND_GUARD(static_cast<size_type>(_Mylast - _My_data._Myfirst) + 1);
; 863  :             _Alty_traits::construct(_Getal(), _Unfancy(_Mylast), _STD forward<_Valty>(_Val)...);
; 864  :             _ASAN_VECTOR_RELEASE_GUARD;
; 865  :         }
; 866  : 
; 867  :         _Orphan_range(_Mylast, _Mylast);
; 868  :         _Ty& _Result = *_Mylast;
; 869  :         ++_Mylast;

  00112	83 47 64 04	 add	 DWORD PTR [edi+100], 4

; 845  :             return _Emplace_back_with_unused_capacity(_STD forward<_Valty>(_Val)...);

  00116	eb 0d		 jmp	 SHORT $LN17@LoadScript
$LN18@LoadScript:

; 846  :         }
; 847  : 
; 848  :         return *_Emplace_reallocate(_Mylast, _STD forward<_Valty>(_Val)...);

  00118	8d 45 fc	 lea	 eax, DWORD PTR $T1[ebp]
  0011b	50		 push	 eax
  0011c	51		 push	 ecx
  0011d	8d 4f 60	 lea	 ecx, DWORD PTR [edi+96]
  00120	e8 00 00 00 00	 call	 ??$_Emplace_reallocate@K@?$vector@KV?$allocator@K@std@@@std@@AAEPAKQAK$$QAK@Z ; std::vector<unsigned long,std::allocator<unsigned long> >::_Emplace_reallocate<unsigned long>
$LN17@LoadScript:
; File C:\IAGOS\server\v18\Source\Source\_Common\Tax.cpp

; 192  : 		m_Lua.Pop( 1 );

  00125	6a 01		 push	 1
  00127	8d 4f 24	 lea	 ecx, DWORD PTR [edi+36]
  0012a	e8 00 00 00 00	 call	 ?Pop@CLuaBase@@QAEXH@Z	; CLuaBase::Pop
; File C:\IAGOS\server\v18\Source\Source\_Common\LuaBase.h

; 46   : 	int			TableLoop( int nStackPos )					{  return lua_next( m_pLuaState, nStackPos );  }	

  0012f	6a fe		 push	 -2			; fffffffeH
  00131	ff 77 28	 push	 DWORD PTR [edi+40]
  00134	e8 00 00 00 00	 call	 _lua_next
  00139	83 c4 08	 add	 esp, 8
; File C:\IAGOS\server\v18\Source\Source\_Common\Tax.cpp

; 189  : 	while( m_Lua.TableLoop( -2 ) )

  0013c	85 c0		 test	 eax, eax
  0013e	75 b0		 jne	 SHORT $LL2@LoadScript
  00140	5e		 pop	 esi
$LN3@LoadScript:

; 193  : 	}
; 194  : #endif // __OCCUPATION_SHOPITEM
; 195  : 
; 196  : 	LoadTaxInfo( DPID_ALLPLAYERS );

  00141	6a 00		 push	 0
  00143	8b cf		 mov	 ecx, edi
  00145	e8 00 00 00 00	 call	 ?LoadTaxInfo@CTax@@QAEXK@Z ; CTax::LoadTaxInfo
  0014a	5f		 pop	 edi
  0014b	5b		 pop	 ebx

; 197  : }

  0014c	8b e5		 mov	 esp, ebp
  0014e	5d		 pop	 ebp
  0014f	c3		 ret	 0
?LoadScript@CTax@@QAEXXZ ENDP				; CTax::LoadScript
_TEXT	ENDS
; Function compile flags: /Ogtp
; File C:\IAGOS\server\v18\Source\Source\_Common\Tax.cpp
; File C:\Program Files\Microsoft Visual Studio\2022\Professional\VC\Tools\MSVC\14.44.35207\include\xtree
; File C:\IAGOS\server\v18\Source\Source\_Common\Tax.cpp
; File C:\Program Files\Microsoft Visual Studio\2022\Professional\VC\Tools\MSVC\14.44.35207\include\xtree
; File C:\IAGOS\server\v18\Source\Source\_Common\Tax.cpp
; File C:\Program Files\Microsoft Visual Studio\2022\Professional\VC\Tools\MSVC\14.44.35207\include\xtree
; File C:\Program Files\Microsoft Visual Studio\2022\Professional\VC\Tools\MSVC\14.44.35207\include\type_traits
; File C:\Program Files\Microsoft Visual Studio\2022\Professional\VC\Tools\MSVC\14.44.35207\include\xtree
; File C:\IAGOS\server\v18\Source\Source\_Common\Tax.cpp
; File C:\Program Files\Microsoft Visual Studio\2022\Professional\VC\Tools\MSVC\14.44.35207\include\xtree
; File C:\Program Files\Microsoft Visual Studio\2022\Professional\VC\Tools\MSVC\14.44.35207\include\type_traits
; File C:\Program Files\Microsoft Visual Studio\2022\Professional\VC\Tools\MSVC\14.44.35207\include\xtree
; File C:\IAGOS\server\v18\Source\Source\_Common\Tax.cpp
; File C:\Program Files\Microsoft Visual Studio\2022\Professional\VC\Tools\MSVC\14.44.35207\include\xtree
; File C:\IAGOS\server\v18\Source\Source\_Common\Tax.cpp
;	COMDAT ?AddTax@CTax@@QAEHEHE@Z
_TEXT	SEGMENT
__Loc$1 = -40						; size = 12
__Loc$2 = -28						; size = 12
tv763 = -16						; size = 4
tv783 = -12						; size = 4
tv785 = -12						; size = 4
_bUpdateToDB$1$ = -8					; size = 4
_this$1$ = -4						; size = 4
_nCont$ = 8						; size = 1
_nTax$ = 12						; size = 4
_nTaxKind$ = 16						; size = 1
?AddTax@CTax@@QAEHEHE@Z PROC				; CTax::AddTax, COMDAT
; _this$ = ecx

; 444  : {

  00000	55		 push	 ebp
  00001	8b ec		 mov	 ebp, esp
  00003	83 ec 28	 sub	 esp, 40			; 00000028H
  00006	8b d1		 mov	 edx, ecx
  00008	53		 push	 ebx
  00009	56		 push	 esi

; 445  : 	BOOL bUpdateToDB = FALSE;

  0000a	33 db		 xor	 ebx, ebx
  0000c	89 55 fc	 mov	 DWORD PTR _this$1$[ebp], edx
; File C:\Program Files\Microsoft Visual Studio\2022\Professional\VC\Tools\MSVC\14.44.35207\include\xtree

; 1142 :         return iterator(_Scary->_Myhead->_Left, _Scary);

  0000f	8b 42 08	 mov	 eax, DWORD PTR [edx+8]
; File C:\IAGOS\server\v18\Source\Source\_Common\Tax.cpp

; 445  : 	BOOL bUpdateToDB = FALSE;

  00012	89 5d f8	 mov	 DWORD PTR _bUpdateToDB$1$[ebp], ebx
; File C:\Program Files\Microsoft Visual Studio\2022\Professional\VC\Tools\MSVC\14.44.35207\include\xtree

; 37   :     _Tree_unchecked_const_iterator(_Nodeptr _Pnode, const _Mytree* _Plist) noexcept : _Ptr(_Pnode) {

  00015	8b 30		 mov	 esi, DWORD PTR [eax]

; 237  :         return !(*this == _Right);

  00017	3b f0		 cmp	 esi, eax
; File C:\IAGOS\server\v18\Source\Source\_Common\Tax.cpp

; 451  : 	for( TAXINFOMAP::iterator it=m_mapTaxInfo.begin(); it!=m_mapTaxInfo.end(); it++ )

  00019	0f 84 4b 01 00
	00		 je	 $LN170@AddTax
  0001f	57		 push	 edi
$LL4@AddTax:

; 452  : 	{
; 453  : #if __VER >= 15 // __USING_CONTINENT_DATA
; 454  : 		if( it->first == CONT_ALL || it->first == nCont )

  00020	8a 46 10	 mov	 al, BYTE PTR [esi+16]
  00023	3c ff		 cmp	 al, 255			; 000000ffH
  00025	74 09		 je	 SHORT $LN6@AddTax
  00027	3a 45 08	 cmp	 al, BYTE PTR _nCont$[ebp]
  0002a	0f 85 f4 00 00
	00		 jne	 $LN2@AddTax
$LN6@AddTax:

; 455  : #else // __USING_CONTINENT_DATA
; 456  : 		if( it->first & nCont )
; 457  : #endif // __USING_CONTINENT_DATA
; 458  : 		{
; 459  : 			__TAXINFO* taxInfo = GetTaxInfo( it->first );

  00030	50		 push	 eax
  00031	8b ca		 mov	 ecx, edx
  00033	e8 00 00 00 00	 call	 ?GetTaxInfo@CTax@@QAEPAU__TAXINFO@@E@Z ; CTax::GetTaxInfo

; 460  : 			if( !taxInfo || taxInfo->dwId == NULL_ID )

  00038	85 c0		 test	 eax, eax
  0003a	0f 84 e1 00 00
	00		 je	 $LN177@AddTax
  00040	83 38 ff	 cmp	 DWORD PTR [eax], -1
  00043	0f 84 d8 00 00
	00		 je	 $LN177@AddTax
; File C:\Program Files\Microsoft Visual Studio\2022\Professional\VC\Tools\MSVC\14.44.35207\include\xtree

; 37   :     _Tree_unchecked_const_iterator(_Nodeptr _Pnode, const _Mytree* _Plist) noexcept : _Ptr(_Pnode) {

  00049	8b 58 08	 mov	 ebx, DWORD PTR [eax+8]

; 1152 :         return iterator(_Scary->_Myhead, _Scary);

  0004c	8d 78 08	 lea	 edi, DWORD PTR [eax+8]

; 1384 :         const _Tree_find_result<_Nodeptr> _Loc = _Find_lower_bound(_Keyval);

  0004f	8d 45 10	 lea	 eax, DWORD PTR _nTaxKind$[ebp]
  00052	8b cf		 mov	 ecx, edi
  00054	50		 push	 eax
  00055	8d 45 e4	 lea	 eax, DWORD PTR __Loc$2[ebp]
  00058	50		 push	 eax
  00059	e8 00 00 00 00	 call	 ??$_Find_lower_bound@E@?$_Tree@V?$_Tmap_traits@EPAU__TAXDETAIL@@U?$less@E@std@@V?$allocator@U?$pair@$$CBEPAU__TAXDETAIL@@@std@@@3@$0A@@std@@@std@@IBE?AU?$_Tree_find_result@PAU?$_Tree_node@U?$pair@$$CBEPAU__TAXDETAIL@@@std@@PAX@std@@@1@ABE@Z ; std::_Tree<std::_Tmap_traits<unsigned char,__TAXDETAIL *,std::less<unsigned char>,std::allocator<std::pair<unsigned char const ,__TAXDETAIL *> >,0> >::_Find_lower_bound<unsigned char>

; 1624 :         return !_Bound->_Isnil && !_DEBUG_LT_PRED(_Getcomp(), _Keyval, _Traits::_Kfn(_Bound->_Myval));

  0005e	8b 45 ec	 mov	 eax, DWORD PTR __Loc$2[ebp+8]
  00061	80 78 0d 00	 cmp	 BYTE PTR [eax+13], 0
  00065	0f 85 b3 00 00
	00		 jne	 $LN175@AddTax
; File C:\Program Files\Microsoft Visual Studio\2022\Professional\VC\Tools\MSVC\14.44.35207\include\type_traits

; 2380 :         return _Left < _Right;

  0006b	8b 4d 10	 mov	 ecx, DWORD PTR _nTaxKind$[ebp]
  0006e	3a 48 10	 cmp	 cl, BYTE PTR [eax+16]
; File C:\Program Files\Microsoft Visual Studio\2022\Professional\VC\Tools\MSVC\14.44.35207\include\xtree

; 1624 :         return !_Bound->_Isnil && !_DEBUG_LT_PRED(_Getcomp(), _Keyval, _Traits::_Kfn(_Bound->_Myval));

  00071	0f 82 a7 00 00
	00		 jb	 $LN175@AddTax

; 232  :         return this->_Ptr == _Right._Ptr;

  00077	3b c3		 cmp	 eax, ebx
; File C:\IAGOS\server\v18\Source\Source\_Common\Tax.cpp

; 462  : 			if( taxInfo->mapTaxDetail.find( nTaxKind ) == taxInfo->mapTaxDetail.end() )

  00079	0f 84 9f 00 00
	00		 je	 $LN175@AddTax
; File C:\Program Files\Microsoft Visual Studio\2022\Professional\VC\Tools\MSVC\14.44.35207\include\xtree

; 1384 :         const _Tree_find_result<_Nodeptr> _Loc = _Find_lower_bound(_Keyval);

  0007f	8d 45 10	 lea	 eax, DWORD PTR _nTaxKind$[ebp]
  00082	8b cf		 mov	 ecx, edi
  00084	50		 push	 eax
  00085	8d 45 d8	 lea	 eax, DWORD PTR __Loc$1[ebp]
  00088	50		 push	 eax
  00089	e8 00 00 00 00	 call	 ??$_Find_lower_bound@E@?$_Tree@V?$_Tmap_traits@EPAU__TAXDETAIL@@U?$less@E@std@@V?$allocator@U?$pair@$$CBEPAU__TAXDETAIL@@@std@@@3@$0A@@std@@@std@@IBE?AU?$_Tree_find_result@PAU?$_Tree_node@U?$pair@$$CBEPAU__TAXDETAIL@@@std@@PAX@std@@@1@ABE@Z ; std::_Tree<std::_Tmap_traits<unsigned char,__TAXDETAIL *,std::less<unsigned char>,std::allocator<std::pair<unsigned char const ,__TAXDETAIL *> >,0> >::_Find_lower_bound<unsigned char>

; 1624 :         return !_Bound->_Isnil && !_DEBUG_LT_PRED(_Getcomp(), _Keyval, _Traits::_Kfn(_Bound->_Myval));

  0008e	8b 45 e0	 mov	 eax, DWORD PTR __Loc$1[ebp+8]
  00091	8b 4d 10	 mov	 ecx, DWORD PTR _nTaxKind$[ebp]
  00094	80 78 0d 00	 cmp	 BYTE PTR [eax+13], 0
  00098	75 05		 jne	 SHORT $LN128@AddTax
; File C:\Program Files\Microsoft Visual Studio\2022\Professional\VC\Tools\MSVC\14.44.35207\include\type_traits

; 2380 :         return _Left < _Right;

  0009a	3a 48 10	 cmp	 cl, BYTE PTR [eax+16]
; File C:\Program Files\Microsoft Visual Studio\2022\Professional\VC\Tools\MSVC\14.44.35207\include\xtree

; 1624 :         return !_Bound->_Isnil && !_DEBUG_LT_PRED(_Getcomp(), _Keyval, _Traits::_Kfn(_Bound->_Myval));

  0009d	73 02		 jae	 SHORT $LN127@AddTax
$LN128@AddTax:

; 1389 :         return _Get_scary()->_Myhead;

  0009f	8b c3		 mov	 eax, ebx
$LN127@AddTax:
; File C:\IAGOS\server\v18\Source\Source\_Common\Tax.cpp

; 465  : 			__TAXDETAIL* taxDetail = taxInfo->mapTaxDetail.find( nTaxKind )->second;

  000a1	8b 78 14	 mov	 edi, DWORD PTR [eax+20]

; 466  : 			if( taxDetail )

  000a4	85 ff		 test	 edi, edi
  000a6	74 76		 je	 SHORT $LN175@AddTax

; 467  : 			{
; 468  : 				taxDetail->nTaxCount++;

  000a8	8b 47 04	 mov	 eax, DWORD PTR [edi+4]

; 469  : 				taxDetail->nTaxGold += static_cast<int>( static_cast<float>(nTax) * GetEarningRate( nCont, nTaxKind ) );

  000ab	8b 5d fc	 mov	 ebx, DWORD PTR _this$1$[ebp]
  000ae	40		 inc	 eax
  000af	51		 push	 ecx
  000b0	ff 75 08	 push	 DWORD PTR _nCont$[ebp]
  000b3	8b cb		 mov	 ecx, ebx
  000b5	89 45 f0	 mov	 DWORD PTR tv763[ebp], eax
  000b8	89 47 04	 mov	 DWORD PTR [edi+4], eax
  000bb	e8 00 00 00 00	 call	 ?GetEarningRate@CTax@@QAEMEE@Z ; CTax::GetEarningRate
  000c0	66 0f 6e 45 0c	 movd	 xmm0, DWORD PTR _nTax$[ebp]
  000c5	0f 5b c0	 cvtdq2ps xmm0, xmm0
  000c8	f3 0f 11 45 f4	 movss	 DWORD PTR tv785[ebp], xmm0
  000cd	d8 4d f4	 fmul	 DWORD PTR tv785[ebp]
  000d0	d9 5d f4	 fstp	 DWORD PTR tv783[ebp]
  000d3	f3 0f 2c 4d f4	 cvttss2si ecx, DWORD PTR tv783[ebp]
  000d8	03 4f 08	 add	 ecx, DWORD PTR [edi+8]
  000db	89 4f 08	 mov	 DWORD PTR [edi+8], ecx

; 470  : 				int nTaxTemp = taxDetail->nTaxGold;
; 471  : 				if( nTaxTemp >= 100000000 )

  000de	81 f9 00 e1 f5
	05		 cmp	 ecx, 100000000		; 05f5e100H
  000e4	7c 1f		 jl	 SHORT $LN11@AddTax

; 472  : 				{
; 473  : 					taxDetail->nTaxPerin += nTaxTemp/PERIN_VALUE;

  000e6	b8 89 3b e6 55	 mov	 eax, 1441151881		; 55e63b89H
  000eb	f7 e9		 imul	 ecx
  000ed	c1 fa 19	 sar	 edx, 25			; 00000019H
  000f0	8b c2		 mov	 eax, edx
  000f2	c1 e8 1f	 shr	 eax, 31			; 0000001fH
  000f5	03 c2		 add	 eax, edx
  000f7	01 47 0c	 add	 DWORD PTR [edi+12], eax

; 474  : 					taxDetail->nTaxGold = nTaxTemp%PERIN_VALUE;

  000fa	69 c0 00 e1 f5
	05		 imul	 eax, eax, 100000000
  00100	2b c8		 sub	 ecx, eax
  00102	89 4f 08	 mov	 DWORD PTR [edi+8], ecx
$LN11@AddTax:

; 475  : 				}
; 476  : 				// m_nDBSaveCount°ÇŔĚ Ă¤żöÁöÁö ľĘŔ¸¸é DBżˇ ŔúŔĺÇĎÁö ľĘ´Â´Ů.
; 477  : 				if( (taxDetail->nTaxCount % m_nDBSaveCount) == 0 )

  00105	8b 45 f0	 mov	 eax, DWORD PTR tv763[ebp]
  00108	99		 cdq
  00109	f7 7b 20	 idiv	 DWORD PTR [ebx+32]
  0010c	8b 5d f8	 mov	 ebx, DWORD PTR _bUpdateToDB$1$[ebp]
  0010f	b8 01 00 00 00	 mov	 eax, 1
  00114	85 d2		 test	 edx, edx
  00116	0f 44 d8	 cmove	 ebx, eax
  00119	89 5d f8	 mov	 DWORD PTR _bUpdateToDB$1$[ebp], ebx
; File C:\Program Files\Microsoft Visual Studio\2022\Professional\VC\Tools\MSVC\14.44.35207\include\xtree

; 1624 :         return !_Bound->_Isnil && !_DEBUG_LT_PRED(_Getcomp(), _Keyval, _Traits::_Kfn(_Bound->_Myval));

  0011c	eb 03		 jmp	 SHORT $LN177@AddTax
$LN175@AddTax:

; 50   :         if (_Ptr->_Right->_Isnil) { // climb looking for right subtree

  0011e	8b 5d f8	 mov	 ebx, DWORD PTR _bUpdateToDB$1$[ebp]
$LN177@AddTax:
  00121	8b 55 fc	 mov	 edx, DWORD PTR _this$1$[ebp]
$LN2@AddTax:
  00124	8b 46 08	 mov	 eax, DWORD PTR [esi+8]
  00127	80 78 0d 00	 cmp	 BYTE PTR [eax+13], 0
  0012b	74 1d		 je	 SHORT $LN35@AddTax

; 51   :             _Nodeptr _Pnode;
; 52   :             while (!(_Pnode = _Ptr->_Parent)->_Isnil && _Ptr == _Pnode->_Right) {

  0012d	8b 46 04	 mov	 eax, DWORD PTR [esi+4]
  00130	80 78 0d 00	 cmp	 BYTE PTR [eax+13], 0
  00134	75 10		 jne	 SHORT $LN171@AddTax
$LL33@AddTax:
  00136	3b 70 08	 cmp	 esi, DWORD PTR [eax+8]
  00139	75 0b		 jne	 SHORT $LN171@AddTax

; 53   :                 _Ptr = _Pnode; // ==> parent while right subtree

  0013b	8b f0		 mov	 esi, eax
  0013d	8b 40 04	 mov	 eax, DWORD PTR [eax+4]
  00140	80 78 0d 00	 cmp	 BYTE PTR [eax+13], 0
  00144	74 f0		 je	 SHORT $LL33@AddTax
$LN171@AddTax:

; 54   :             }
; 55   : 
; 56   :             _Ptr = _Pnode; // ==> parent (head if end())

  00146	8b f0		 mov	 esi, eax

; 57   :         } else {

  00148	eb 16		 jmp	 SHORT $LN41@AddTax
$LN35@AddTax:

; 58   :             _Ptr = _Mytree::_Min(_Ptr->_Right); // ==> smallest of right subtree

  0014a	8b f0		 mov	 esi, eax

; 476  :         while (!_Pnode->_Left->_Isnil) {

  0014c	8b 0e		 mov	 ecx, DWORD PTR [esi]
  0014e	80 79 0d 00	 cmp	 BYTE PTR [ecx+13], 0
  00152	75 0c		 jne	 SHORT $LN41@AddTax
$LL40@AddTax:
  00154	8b 01		 mov	 eax, DWORD PTR [ecx]

; 477  :             _Pnode = _Pnode->_Left;

  00156	8b f1		 mov	 esi, ecx
  00158	8b c8		 mov	 ecx, eax
  0015a	80 78 0d 00	 cmp	 BYTE PTR [eax+13], 0
  0015e	74 f4		 je	 SHORT $LL40@AddTax
$LN41@AddTax:

; 237  :         return !(*this == _Right);

  00160	3b 72 08	 cmp	 esi, DWORD PTR [edx+8]
; File C:\IAGOS\server\v18\Source\Source\_Common\Tax.cpp

; 451  : 	for( TAXINFOMAP::iterator it=m_mapTaxInfo.begin(); it!=m_mapTaxInfo.end(); it++ )

  00163	0f 85 b7 fe ff
	ff		 jne	 $LL4@AddTax
  00169	5f		 pop	 edi
$LN170@AddTax:
  0016a	5e		 pop	 esi

; 478  : 					bUpdateToDB = TRUE;
; 479  : 			}
; 480  : 		}
; 481  : 	}
; 482  : #endif // __DBSERVER
; 483  : 	return bUpdateToDB;
; 484  : }

  0016b	8b c3		 mov	 eax, ebx
  0016d	5b		 pop	 ebx
  0016e	8b e5		 mov	 esp, ebp
  00170	5d		 pop	 ebp
  00171	c2 0c 00	 ret	 12			; 0000000cH
?AddTax@CTax@@QAEHEHE@Z ENDP				; CTax::AddTax
_TEXT	ENDS
; Function compile flags: /Ogtp
; File C:\IAGOS\server\v18\Source\Source\_Common\Tax.cpp
;	COMDAT ?SetApplyTaxRateNow@CTax@@QAEXXZ
_TEXT	SEGMENT
?SetApplyTaxRateNow@CTax@@QAEXXZ PROC			; CTax::SetApplyTaxRateNow, COMDAT
; _this$ = ecx

; 382  : #ifdef __WORLDSERVER
; 383  : 	g_dpDBClient.SendApplyTaxRateNow();
; 384  : #endif // __WORLDSERVER
; 385  : #ifdef __DBSERVER
; 386  : 	//m_taxDBController.PostRequest( QUERY_TAX_CHANGENEXT, 0, 0, 0 );
; 387  : 	CheckChangeTime( FALSE, TRUE );	// FALSE - Áö±ŢŔĚ ľČµÇľú°í, TRUE - GM¸í·ÉŔ¸·Î °­Á¦ ĽĽŔ˛ şŻ°ćÇŃ´Ů.

  00000	6a 01		 push	 1
  00002	6a 00		 push	 0
  00004	e8 00 00 00 00	 call	 ?CheckChangeTime@CTax@@QAEXHH@Z ; CTax::CheckChangeTime

; 388  : #endif // __DBSERVER
; 389  : }

  00009	c3		 ret	 0
?SetApplyTaxRateNow@CTax@@QAEXXZ ENDP			; CTax::SetApplyTaxRateNow
_TEXT	ENDS
; Function compile flags: /Ogtp
; File C:\IAGOS\server\v18\Source\Source\_Common\Tax.cpp
; File C:\Program Files\Microsoft Visual Studio\2022\Professional\VC\Tools\MSVC\14.44.35207\include\xtree
; File C:\IAGOS\server\v18\Source\Source\_Common\Tax.cpp
; File C:\Program Files\Microsoft Visual Studio\2022\Professional\VC\Tools\MSVC\14.44.35207\include\xtree
; File C:\Program Files\Microsoft Visual Studio\2022\Professional\VC\Tools\MSVC\14.44.35207\include\type_traits
; File C:\Program Files\Microsoft Visual Studio\2022\Professional\VC\Tools\MSVC\14.44.35207\include\xtree
; File C:\IAGOS\server\v18\Source\Source\_Common\Tax.cpp
; File C:\Program Files\Microsoft Visual Studio\2022\Professional\VC\Tools\MSVC\14.44.35207\include\xtree
; File C:\Program Files\Microsoft Visual Studio\2022\Professional\VC\Tools\MSVC\14.44.35207\include\type_traits
; File C:\Program Files\Microsoft Visual Studio\2022\Professional\VC\Tools\MSVC\14.44.35207\include\xtree
; File C:\IAGOS\server\v18\Source\Source\_Common\Tax.cpp
;	COMDAT ?SetNextTaxRate@CTax@@QAEXEHH@Z
_TEXT	SEGMENT
__Loc$1 = -12						; size = 12
__Loc$2 = -12						; size = 12
_nCont$ = 8						; size = 1
$T3 = 11						; size = 1
$T4 = 11						; size = 1
_nSalesTaxRate$ = 12					; size = 4
_nPurchaseTaxRate$ = 16					; size = 4
?SetNextTaxRate@CTax@@QAEXEHH@Z PROC			; CTax::SetNextTaxRate, COMDAT
; _this$ = ecx

; 361  : {

  00000	55		 push	 ebp
  00001	8b ec		 mov	 ebp, esp
  00003	83 ec 0c	 sub	 esp, 12			; 0000000cH

; 362  : #ifdef __WORLDSERVER
; 363  : 	if( nSalesTaxRate < m_nMinTaxRate || nSalesTaxRate > m_nMaxTaxRate
; 364  : 		|| nPurchaseTaxRate < m_nMinTaxRate || nPurchaseTaxRate > m_nMaxTaxRate )
; 365  : 		return;	// ĂÖĽŇ, ĂÖ´ë ąüŔ§ ąţľîłŞ¸é ±×łÉ ¸®ĹĎ...
; 366  : 
; 367  : 	g_dpDBClient.SendTaxRate( nCont, nSalesTaxRate, nPurchaseTaxRate );
; 368  : #endif // __WORLDSERVER
; 369  : #ifdef __DBSERVER
; 370  : 	__TAXINFO* taxInfo = GetTaxInfo( nCont );

  00006	ff 75 08	 push	 DWORD PTR _nCont$[ebp]
  00009	e8 00 00 00 00	 call	 ?GetTaxInfo@CTax@@QAEPAU__TAXINFO@@E@Z ; CTax::GetTaxInfo

; 371  : 	if( !taxInfo )

  0000e	85 c0		 test	 eax, eax
  00010	74 66		 je	 SHORT $LN1@SetNextTax

; 375  : 	taxInfo->mapTaxDetail.find( TAX_SALES )->second->nNextTaxRate = nSalesTaxRate;

  00012	56		 push	 esi
  00013	8d 70 08	 lea	 esi, DWORD PTR [eax+8]
  00016	c7 40 04 01 00
	00 00		 mov	 DWORD PTR [eax+4], 1
; File C:\Program Files\Microsoft Visual Studio\2022\Professional\VC\Tools\MSVC\14.44.35207\include\xtree

; 1384 :         const _Tree_find_result<_Nodeptr> _Loc = _Find_lower_bound(_Keyval);

  0001d	8d 45 0b	 lea	 eax, DWORD PTR $T3[ebp]
; File C:\IAGOS\server\v18\Source\Source\_Common\Tax.cpp

; 375  : 	taxInfo->mapTaxDetail.find( TAX_SALES )->second->nNextTaxRate = nSalesTaxRate;

  00020	c6 45 0b 00	 mov	 BYTE PTR $T3[ebp], 0
; File C:\Program Files\Microsoft Visual Studio\2022\Professional\VC\Tools\MSVC\14.44.35207\include\xtree

; 1384 :         const _Tree_find_result<_Nodeptr> _Loc = _Find_lower_bound(_Keyval);

  00024	50		 push	 eax
  00025	8d 45 f4	 lea	 eax, DWORD PTR __Loc$1[ebp]
  00028	8b ce		 mov	 ecx, esi
  0002a	50		 push	 eax
  0002b	e8 00 00 00 00	 call	 ??$_Find_lower_bound@E@?$_Tree@V?$_Tmap_traits@EPAU__TAXDETAIL@@U?$less@E@std@@V?$allocator@U?$pair@$$CBEPAU__TAXDETAIL@@@std@@@3@$0A@@std@@@std@@IBE?AU?$_Tree_find_result@PAU?$_Tree_node@U?$pair@$$CBEPAU__TAXDETAIL@@@std@@PAX@std@@@1@ABE@Z ; std::_Tree<std::_Tmap_traits<unsigned char,__TAXDETAIL *,std::less<unsigned char>,std::allocator<std::pair<unsigned char const ,__TAXDETAIL *> >,0> >::_Find_lower_bound<unsigned char>

; 1624 :         return !_Bound->_Isnil && !_DEBUG_LT_PRED(_Getcomp(), _Keyval, _Traits::_Kfn(_Bound->_Myval));

  00030	8b 4d fc	 mov	 ecx, DWORD PTR __Loc$1[ebp+8]
  00033	80 79 0d 00	 cmp	 BYTE PTR [ecx+13], 0
  00037	75 06		 jne	 SHORT $LN7@SetNextTax
; File C:\Program Files\Microsoft Visual Studio\2022\Professional\VC\Tools\MSVC\14.44.35207\include\type_traits

; 2380 :         return _Left < _Right;

  00039	80 79 10 00	 cmp	 BYTE PTR [ecx+16], 0
; File C:\Program Files\Microsoft Visual Studio\2022\Professional\VC\Tools\MSVC\14.44.35207\include\xtree

; 1624 :         return !_Bound->_Isnil && !_DEBUG_LT_PRED(_Getcomp(), _Keyval, _Traits::_Kfn(_Bound->_Myval));

  0003d	76 02		 jbe	 SHORT $LN6@SetNextTax
$LN7@SetNextTax:

; 1389 :         return _Get_scary()->_Myhead;

  0003f	8b 0e		 mov	 ecx, DWORD PTR [esi]
$LN6@SetNextTax:
; File C:\IAGOS\server\v18\Source\Source\_Common\Tax.cpp

; 375  : 	taxInfo->mapTaxDetail.find( TAX_SALES )->second->nNextTaxRate = nSalesTaxRate;

  00041	8b 49 14	 mov	 ecx, DWORD PTR [ecx+20]
  00044	8b 45 0c	 mov	 eax, DWORD PTR _nSalesTaxRate$[ebp]

; 376  : 	taxInfo->mapTaxDetail.find( TAX_PURCHASE )->second->nNextTaxRate = nPurchaseTaxRate;

  00047	c6 45 0b 01	 mov	 BYTE PTR $T4[ebp], 1
  0004b	89 41 10	 mov	 DWORD PTR [ecx+16], eax
; File C:\Program Files\Microsoft Visual Studio\2022\Professional\VC\Tools\MSVC\14.44.35207\include\xtree

; 1384 :         const _Tree_find_result<_Nodeptr> _Loc = _Find_lower_bound(_Keyval);

  0004e	8d 45 0b	 lea	 eax, DWORD PTR $T4[ebp]
  00051	50		 push	 eax
  00052	8d 45 f4	 lea	 eax, DWORD PTR __Loc$2[ebp]
  00055	8b ce		 mov	 ecx, esi
  00057	50		 push	 eax
  00058	e8 00 00 00 00	 call	 ??$_Find_lower_bound@E@?$_Tree@V?$_Tmap_traits@EPAU__TAXDETAIL@@U?$less@E@std@@V?$allocator@U?$pair@$$CBEPAU__TAXDETAIL@@@std@@@3@$0A@@std@@@std@@IBE?AU?$_Tree_find_result@PAU?$_Tree_node@U?$pair@$$CBEPAU__TAXDETAIL@@@std@@PAX@std@@@1@ABE@Z ; std::_Tree<std::_Tmap_traits<unsigned char,__TAXDETAIL *,std::less<unsigned char>,std::allocator<std::pair<unsigned char const ,__TAXDETAIL *> >,0> >::_Find_lower_bound<unsigned char>

; 1624 :         return !_Bound->_Isnil && !_DEBUG_LT_PRED(_Getcomp(), _Keyval, _Traits::_Kfn(_Bound->_Myval));

  0005d	8b 4d fc	 mov	 ecx, DWORD PTR __Loc$2[ebp+8]
  00060	80 79 0d 00	 cmp	 BYTE PTR [ecx+13], 0
  00064	75 06		 jne	 SHORT $LN37@SetNextTax
; File C:\Program Files\Microsoft Visual Studio\2022\Professional\VC\Tools\MSVC\14.44.35207\include\type_traits

; 2380 :         return _Left < _Right;

  00066	80 79 10 01	 cmp	 BYTE PTR [ecx+16], 1
; File C:\Program Files\Microsoft Visual Studio\2022\Professional\VC\Tools\MSVC\14.44.35207\include\xtree

; 1624 :         return !_Bound->_Isnil && !_DEBUG_LT_PRED(_Getcomp(), _Keyval, _Traits::_Kfn(_Bound->_Myval));

  0006a	76 02		 jbe	 SHORT $LN36@SetNextTax
$LN37@SetNextTax:

; 1389 :         return _Get_scary()->_Myhead;

  0006c	8b 0e		 mov	 ecx, DWORD PTR [esi]
$LN36@SetNextTax:
; File C:\IAGOS\server\v18\Source\Source\_Common\Tax.cpp

; 376  : 	taxInfo->mapTaxDetail.find( TAX_PURCHASE )->second->nNextTaxRate = nPurchaseTaxRate;

  0006e	8b 49 14	 mov	 ecx, DWORD PTR [ecx+20]
  00071	8b 45 10	 mov	 eax, DWORD PTR _nPurchaseTaxRate$[ebp]
  00074	5e		 pop	 esi
  00075	89 41 10	 mov	 DWORD PTR [ecx+16], eax
$LN1@SetNextTax:

; 377  : #endif // __DBSERVER
; 378  : }

  00078	8b e5		 mov	 esp, ebp
  0007a	5d		 pop	 ebp
  0007b	c2 0c 00	 ret	 12			; 0000000cH
?SetNextTaxRate@CTax@@QAEXEHH@Z ENDP			; CTax::SetNextTaxRate
_TEXT	ENDS
; Function compile flags: /Ogtp
; File C:\IAGOS\server\v18\Source\Source\_Common\Tax.cpp
; File C:\Program Files\Microsoft Visual Studio\2022\Professional\VC\Tools\MSVC\14.44.35207\include\xtree
; File C:\IAGOS\server\v18\Source\Source\_Common\Tax.cpp
; File C:\Program Files\Microsoft Visual Studio\2022\Professional\VC\Tools\MSVC\14.44.35207\include\xtree
; File C:\IAGOS\server\v18\Source\Source\_Common\Tax.cpp
;	COMDAT ?SetNextLord@CTax@@QAEXK@Z
_TEXT	SEGMENT
_dwIdPlayer$ = 8					; size = 4
?SetNextLord@CTax@@QAEXK@Z PROC				; CTax::SetNextLord, COMDAT
; _this$ = ecx

; 342  : {

  00000	55		 push	 ebp
  00001	8b ec		 mov	 ebp, esp
  00003	56		 push	 esi

; 343  : #ifdef __WORLDSERVER
; 344  : 	g_dpDBClient.SendLord( dwIdPlayer );
; 345  : #endif // __WORLDSERVER
; 346  : 
; 347  : #ifdef __DBSERVER
; 348  : 	__TAXINFO* taxInfo = GetTaxInfo( CONT_ALL );

  00004	68 ff 00 00 00	 push	 255			; 000000ffH
  00009	e8 00 00 00 00	 call	 ?GetTaxInfo@CTax@@QAEPAU__TAXINFO@@E@Z ; CTax::GetTaxInfo
  0000e	8b f0		 mov	 esi, eax

; 349  : 	if( !taxInfo )

  00010	85 f6		 test	 esi, esi
  00012	74 6d		 je	 SHORT $LN3@SetNextLor

; 350  : 		return;
; 351  : 	
; 352  : 	taxInfo->bSetTaxRate = TRUE;
; 353  : 	// ´ŮŔ˝ IDµî·Ď ą× ĽĽŔ˛ ĂĘ±âČ­
; 354  : 	taxInfo->dwNextId = dwIdPlayer;

  00014	8b 4d 08	 mov	 ecx, DWORD PTR _dwIdPlayer$[ebp]
  00017	c7 46 04 01 00
	00 00		 mov	 DWORD PTR [esi+4], 1
  0001e	89 4e 10	 mov	 DWORD PTR [esi+16], ecx
; File C:\Program Files\Microsoft Visual Studio\2022\Professional\VC\Tools\MSVC\14.44.35207\include\xtree

; 1142 :         return iterator(_Scary->_Myhead->_Left, _Scary);

  00021	8b 4e 08	 mov	 ecx, DWORD PTR [esi+8]

; 37   :     _Tree_unchecked_const_iterator(_Nodeptr _Pnode, const _Mytree* _Plist) noexcept : _Ptr(_Pnode) {

  00024	8b 01		 mov	 eax, DWORD PTR [ecx]

; 237  :         return !(*this == _Right);

  00026	3b c1		 cmp	 eax, ecx
; File C:\IAGOS\server\v18\Source\Source\_Common\Tax.cpp

; 355  : 	for( TAXDETAILMAP::iterator it=taxInfo->mapTaxDetail.begin(); it!=taxInfo->mapTaxDetail.end(); it++ )

  00028	74 57		 je	 SHORT $LN3@SetNextLor
  0002a	66 0f 1f 44 00
	00		 npad	 6
$LL4@SetNextLor:

; 356  : 		it->second->nNextTaxRate = 0; // ±şÁÖ´Â ĽĽŔ˛ŔĚ ą«ŔÇąĚ ÇĎÁö¸¸ ĂĘ±âČ­...

  00030	8b 48 14	 mov	 ecx, DWORD PTR [eax+20]
  00033	c7 41 10 00 00
	00 00		 mov	 DWORD PTR [ecx+16], 0
; File C:\Program Files\Microsoft Visual Studio\2022\Professional\VC\Tools\MSVC\14.44.35207\include\xtree

; 50   :         if (_Ptr->_Right->_Isnil) { // climb looking for right subtree

  0003a	8b 48 08	 mov	 ecx, DWORD PTR [eax+8]
  0003d	80 79 0d 00	 cmp	 BYTE PTR [ecx+13], 0
  00041	74 21		 je	 SHORT $LN28@SetNextLor

; 51   :             _Nodeptr _Pnode;
; 52   :             while (!(_Pnode = _Ptr->_Parent)->_Isnil && _Ptr == _Pnode->_Right) {

  00043	8b 48 04	 mov	 ecx, DWORD PTR [eax+4]
  00046	80 79 0d 00	 cmp	 BYTE PTR [ecx+13], 0
  0004a	75 14		 jne	 SHORT $LN76@SetNextLor
  0004c	0f 1f 40 00	 npad	 4
$LL26@SetNextLor:
  00050	3b 41 08	 cmp	 eax, DWORD PTR [ecx+8]
  00053	75 0b		 jne	 SHORT $LN76@SetNextLor

; 53   :                 _Ptr = _Pnode; // ==> parent while right subtree

  00055	8b c1		 mov	 eax, ecx
  00057	8b 49 04	 mov	 ecx, DWORD PTR [ecx+4]
  0005a	80 79 0d 00	 cmp	 BYTE PTR [ecx+13], 0
  0005e	74 f0		 je	 SHORT $LL26@SetNextLor
$LN76@SetNextLor:

; 54   :             }
; 55   : 
; 56   :             _Ptr = _Pnode; // ==> parent (head if end())

  00060	8b c1		 mov	 eax, ecx

; 57   :         } else {

  00062	eb 18		 jmp	 SHORT $LN34@SetNextLor
$LN28@SetNextLor:

; 58   :             _Ptr = _Mytree::_Min(_Ptr->_Right); // ==> smallest of right subtree

  00064	8b c1		 mov	 eax, ecx

; 476  :         while (!_Pnode->_Left->_Isnil) {

  00066	8b 10		 mov	 edx, DWORD PTR [eax]
  00068	80 7a 0d 00	 cmp	 BYTE PTR [edx+13], 0
  0006c	75 0e		 jne	 SHORT $LN34@SetNextLor
  0006e	66 90		 npad	 2
$LL33@SetNextLor:
  00070	8b 0a		 mov	 ecx, DWORD PTR [edx]

; 477  :             _Pnode = _Pnode->_Left;

  00072	8b c2		 mov	 eax, edx
  00074	8b d1		 mov	 edx, ecx
  00076	80 79 0d 00	 cmp	 BYTE PTR [ecx+13], 0
  0007a	74 f4		 je	 SHORT $LL33@SetNextLor
$LN34@SetNextLor:

; 237  :         return !(*this == _Right);

  0007c	3b 46 08	 cmp	 eax, DWORD PTR [esi+8]
; File C:\IAGOS\server\v18\Source\Source\_Common\Tax.cpp

; 355  : 	for( TAXDETAILMAP::iterator it=taxInfo->mapTaxDetail.begin(); it!=taxInfo->mapTaxDetail.end(); it++ )

  0007f	75 af		 jne	 SHORT $LL4@SetNextLor
$LN3@SetNextLor:
  00081	5e		 pop	 esi

; 357  : #endif // __DBSERVER
; 358  : }

  00082	5d		 pop	 ebp
  00083	c2 04 00	 ret	 4
?SetNextLord@CTax@@QAEXK@Z ENDP				; CTax::SetNextLord
_TEXT	ENDS
; Function compile flags: /Ogtp
; File C:\IAGOS\server\v18\Source\Source\_Common\Tax.cpp
; File C:\Program Files\Microsoft Visual Studio\2022\Professional\VC\Tools\MSVC\14.44.35207\include\xtree
; File C:\IAGOS\server\v18\Source\Source\_Common\Tax.cpp
; File C:\Program Files\Microsoft Visual Studio\2022\Professional\VC\Tools\MSVC\14.44.35207\include\xtree
; File C:\IAGOS\server\v18\Source\Source\_Common\Tax.cpp
;	COMDAT ?SetNextSecretRoomGuild@CTax@@QAEXEK@Z
_TEXT	SEGMENT
_nCont$ = 8						; size = 1
_dwGuildId$ = 12					; size = 4
?SetNextSecretRoomGuild@CTax@@QAEXEK@Z PROC		; CTax::SetNextSecretRoomGuild, COMDAT
; _this$ = ecx

; 320  : {

  00000	55		 push	 ebp
  00001	8b ec		 mov	 ebp, esp
  00003	56		 push	 esi

; 321  : #ifdef __WORLDSERVER
; 322  : 	g_dpDBClient.SendSecretRoomWinGuild( nCont, dwGuildId );
; 323  : #endif // __WORLDSERVER
; 324  : 
; 325  : #ifdef __DBSERVER
; 326  : 	__TAXINFO* taxInfo = GetTaxInfo( nCont );

  00004	ff 75 08	 push	 DWORD PTR _nCont$[ebp]
  00007	e8 00 00 00 00	 call	 ?GetTaxInfo@CTax@@QAEPAU__TAXINFO@@E@Z ; CTax::GetTaxInfo
  0000c	8b f0		 mov	 esi, eax

; 327  : 	if( !taxInfo )

  0000e	85 f6		 test	 esi, esi
  00010	74 6f		 je	 SHORT $LN3@SetNextSec

; 328  : 		return;
; 329  : 
; 330  : 	if( dwGuildId == NULL_ID )	// Áˇ·É±ćµĺ°ˇ ľř´Â °ćżě ĽĽŔ˛Ŕ» ĽłÁ¤ÇŃ °ÍŔ¸·Î ÇŃ´Ů.
; 331  : 		taxInfo->bSetTaxRate = TRUE;
; 332  : 	else
; 333  : 		taxInfo->bSetTaxRate = FALSE;
; 334  : 	// ´ŮŔ˝ IDµî·Ď ą× ĽĽŔ˛ ĂĘ±âČ­
; 335  : 	taxInfo->dwNextId = dwGuildId;

  00012	8b 55 0c	 mov	 edx, DWORD PTR _dwGuildId$[ebp]
  00015	33 c9		 xor	 ecx, ecx
  00017	83 fa ff	 cmp	 edx, -1
  0001a	0f 94 c1	 sete	 cl
  0001d	89 4e 04	 mov	 DWORD PTR [esi+4], ecx
  00020	89 56 10	 mov	 DWORD PTR [esi+16], edx
; File C:\Program Files\Microsoft Visual Studio\2022\Professional\VC\Tools\MSVC\14.44.35207\include\xtree

; 1142 :         return iterator(_Scary->_Myhead->_Left, _Scary);

  00023	8b 4e 08	 mov	 ecx, DWORD PTR [esi+8]

; 37   :     _Tree_unchecked_const_iterator(_Nodeptr _Pnode, const _Mytree* _Plist) noexcept : _Ptr(_Pnode) {

  00026	8b 01		 mov	 eax, DWORD PTR [ecx]

; 237  :         return !(*this == _Right);

  00028	3b c1		 cmp	 eax, ecx
; File C:\IAGOS\server\v18\Source\Source\_Common\Tax.cpp

; 336  : 	for( TAXDETAILMAP::iterator it=taxInfo->mapTaxDetail.begin(); it!=taxInfo->mapTaxDetail.end(); it++ )

  0002a	74 55		 je	 SHORT $LN3@SetNextSec
  0002c	0f 1f 40 00	 npad	 4
$LL4@SetNextSec:

; 337  : 		it->second->nNextTaxRate = 0;

  00030	8b 48 14	 mov	 ecx, DWORD PTR [eax+20]
  00033	c7 41 10 00 00
	00 00		 mov	 DWORD PTR [ecx+16], 0
; File C:\Program Files\Microsoft Visual Studio\2022\Professional\VC\Tools\MSVC\14.44.35207\include\xtree

; 50   :         if (_Ptr->_Right->_Isnil) { // climb looking for right subtree

  0003a	8b 48 08	 mov	 ecx, DWORD PTR [eax+8]
  0003d	80 79 0d 00	 cmp	 BYTE PTR [ecx+13], 0
  00041	74 21		 je	 SHORT $LN30@SetNextSec

; 51   :             _Nodeptr _Pnode;
; 52   :             while (!(_Pnode = _Ptr->_Parent)->_Isnil && _Ptr == _Pnode->_Right) {

  00043	8b 48 04	 mov	 ecx, DWORD PTR [eax+4]
  00046	80 79 0d 00	 cmp	 BYTE PTR [ecx+13], 0
  0004a	75 14		 jne	 SHORT $LN78@SetNextSec
  0004c	0f 1f 40 00	 npad	 4
$LL28@SetNextSec:
  00050	3b 41 08	 cmp	 eax, DWORD PTR [ecx+8]
  00053	75 0b		 jne	 SHORT $LN78@SetNextSec

; 53   :                 _Ptr = _Pnode; // ==> parent while right subtree

  00055	8b c1		 mov	 eax, ecx
  00057	8b 49 04	 mov	 ecx, DWORD PTR [ecx+4]
  0005a	80 79 0d 00	 cmp	 BYTE PTR [ecx+13], 0
  0005e	74 f0		 je	 SHORT $LL28@SetNextSec
$LN78@SetNextSec:

; 54   :             }
; 55   : 
; 56   :             _Ptr = _Pnode; // ==> parent (head if end())

  00060	8b c1		 mov	 eax, ecx

; 57   :         } else {

  00062	eb 18		 jmp	 SHORT $LN36@SetNextSec
$LN30@SetNextSec:

; 58   :             _Ptr = _Mytree::_Min(_Ptr->_Right); // ==> smallest of right subtree

  00064	8b c1		 mov	 eax, ecx

; 476  :         while (!_Pnode->_Left->_Isnil) {

  00066	8b 10		 mov	 edx, DWORD PTR [eax]
  00068	80 7a 0d 00	 cmp	 BYTE PTR [edx+13], 0
  0006c	75 0e		 jne	 SHORT $LN36@SetNextSec
  0006e	66 90		 npad	 2
$LL35@SetNextSec:
  00070	8b 0a		 mov	 ecx, DWORD PTR [edx]

; 477  :             _Pnode = _Pnode->_Left;

  00072	8b c2		 mov	 eax, edx
  00074	8b d1		 mov	 edx, ecx
  00076	80 79 0d 00	 cmp	 BYTE PTR [ecx+13], 0
  0007a	74 f4		 je	 SHORT $LL35@SetNextSec
$LN36@SetNextSec:

; 237  :         return !(*this == _Right);

  0007c	3b 46 08	 cmp	 eax, DWORD PTR [esi+8]
; File C:\IAGOS\server\v18\Source\Source\_Common\Tax.cpp

; 336  : 	for( TAXDETAILMAP::iterator it=taxInfo->mapTaxDetail.begin(); it!=taxInfo->mapTaxDetail.end(); it++ )

  0007f	75 af		 jne	 SHORT $LL4@SetNextSec
$LN3@SetNextSec:
  00081	5e		 pop	 esi

; 338  : #endif // __DBSERVER
; 339  : }

  00082	5d		 pop	 ebp
  00083	c2 08 00	 ret	 8
?SetNextSecretRoomGuild@CTax@@QAEXEK@Z ENDP		; CTax::SetNextSecretRoomGuild
_TEXT	ENDS
; Function compile flags: /Ogtp
; File C:\IAGOS\server\v18\Source\Source\_Common\Tax.cpp
; File C:\Program Files\Microsoft Visual Studio\2022\Professional\VC\Tools\MSVC\14.44.35207\include\xtree
; File C:\Program Files\Microsoft Visual Studio\2022\Professional\VC\Tools\MSVC\14.44.35207\include\type_traits
; File C:\Program Files\Microsoft Visual Studio\2022\Professional\VC\Tools\MSVC\14.44.35207\include\xtree
; File C:\IAGOS\server\v18\Source\Source\_Common\Tax.cpp
; File C:\Program Files\Microsoft Visual Studio\2022\Professional\VC\Tools\MSVC\14.44.35207\include\xtree
; File C:\Program Files\Microsoft Visual Studio\2022\Professional\VC\Tools\MSVC\14.44.35207\include\type_traits
; File C:\Program Files\Microsoft Visual Studio\2022\Professional\VC\Tools\MSVC\14.44.35207\include\xtree
; File C:\IAGOS\server\v18\Source\Source\_Common\Tax.cpp
;	COMDAT ?GetTaxInfo@CTax@@QAEPAU__TAXINFO@@E@Z
_TEXT	SEGMENT
__Loc$1 = -12						; size = 12
__Loc$2 = -12						; size = 12
_nContinent$ = 8					; size = 1
?GetTaxInfo@CTax@@QAEPAU__TAXINFO@@E@Z PROC		; CTax::GetTaxInfo, COMDAT
; _this$ = ecx

; 84   : {

  00000	55		 push	 ebp
  00001	8b ec		 mov	 ebp, esp
  00003	83 ec 0c	 sub	 esp, 12			; 0000000cH
  00006	53		 push	 ebx
  00007	57		 push	 edi
; File C:\Program Files\Microsoft Visual Studio\2022\Professional\VC\Tools\MSVC\14.44.35207\include\xtree

; 1384 :         const _Tree_find_result<_Nodeptr> _Loc = _Find_lower_bound(_Keyval);

  00008	8d 45 08	 lea	 eax, DWORD PTR _nContinent$[ebp]
  0000b	50		 push	 eax

; 1152 :         return iterator(_Scary->_Myhead, _Scary);

  0000c	8d 79 08	 lea	 edi, DWORD PTR [ecx+8]

; 1384 :         const _Tree_find_result<_Nodeptr> _Loc = _Find_lower_bound(_Keyval);

  0000f	8d 45 f4	 lea	 eax, DWORD PTR __Loc$1[ebp]
  00012	8b cf		 mov	 ecx, edi
  00014	50		 push	 eax
  00015	e8 00 00 00 00	 call	 ??$_Find_lower_bound@E@?$_Tree@V?$_Tmap_traits@EPAU__TAXINFO@@U?$less@E@std@@V?$allocator@U?$pair@$$CBEPAU__TAXINFO@@@std@@@3@$0A@@std@@@std@@IBE?AU?$_Tree_find_result@PAU?$_Tree_node@U?$pair@$$CBEPAU__TAXINFO@@@std@@PAX@std@@@1@ABE@Z ; std::_Tree<std::_Tmap_traits<unsigned char,__TAXINFO *,std::less<unsigned char>,std::allocator<std::pair<unsigned char const ,__TAXINFO *> >,0> >::_Find_lower_bound<unsigned char>

; 1624 :         return !_Bound->_Isnil && !_DEBUG_LT_PRED(_Getcomp(), _Keyval, _Traits::_Kfn(_Bound->_Myval));

  0001a	8b 45 fc	 mov	 eax, DWORD PTR __Loc$1[ebp+8]
  0001d	8a 5d 08	 mov	 bl, BYTE PTR _nContinent$[ebp]
  00020	80 78 0d 00	 cmp	 BYTE PTR [eax+13], 0
  00024	75 33		 jne	 SHORT $LN2@GetTaxInfo
; File C:\Program Files\Microsoft Visual Studio\2022\Professional\VC\Tools\MSVC\14.44.35207\include\type_traits

; 2380 :         return _Left < _Right;

  00026	3a 58 10	 cmp	 bl, BYTE PTR [eax+16]
; File C:\Program Files\Microsoft Visual Studio\2022\Professional\VC\Tools\MSVC\14.44.35207\include\xtree

; 1624 :         return !_Bound->_Isnil && !_DEBUG_LT_PRED(_Getcomp(), _Keyval, _Traits::_Kfn(_Bound->_Myval));

  00029	72 2e		 jb	 SHORT $LN2@GetTaxInfo

; 232  :         return this->_Ptr == _Right._Ptr;

  0002b	3b 07		 cmp	 eax, DWORD PTR [edi]
; File C:\IAGOS\server\v18\Source\Source\_Common\Tax.cpp

; 85   : 	if( m_mapTaxInfo.find( nContinent ) != m_mapTaxInfo.end() )

  0002d	74 2a		 je	 SHORT $LN2@GetTaxInfo
; File C:\Program Files\Microsoft Visual Studio\2022\Professional\VC\Tools\MSVC\14.44.35207\include\xtree

; 1384 :         const _Tree_find_result<_Nodeptr> _Loc = _Find_lower_bound(_Keyval);

  0002f	8d 45 08	 lea	 eax, DWORD PTR _nContinent$[ebp]
  00032	8b cf		 mov	 ecx, edi
  00034	50		 push	 eax
  00035	8d 45 f4	 lea	 eax, DWORD PTR __Loc$2[ebp]
  00038	50		 push	 eax
  00039	e8 00 00 00 00	 call	 ??$_Find_lower_bound@E@?$_Tree@V?$_Tmap_traits@EPAU__TAXINFO@@U?$less@E@std@@V?$allocator@U?$pair@$$CBEPAU__TAXINFO@@@std@@@3@$0A@@std@@@std@@IBE?AU?$_Tree_find_result@PAU?$_Tree_node@U?$pair@$$CBEPAU__TAXINFO@@@std@@PAX@std@@@1@ABE@Z ; std::_Tree<std::_Tmap_traits<unsigned char,__TAXINFO *,std::less<unsigned char>,std::allocator<std::pair<unsigned char const ,__TAXINFO *> >,0> >::_Find_lower_bound<unsigned char>

; 1624 :         return !_Bound->_Isnil && !_DEBUG_LT_PRED(_Getcomp(), _Keyval, _Traits::_Kfn(_Bound->_Myval));

  0003e	8b 45 fc	 mov	 eax, DWORD PTR __Loc$2[ebp+8]
  00041	80 78 0d 00	 cmp	 BYTE PTR [eax+13], 0
  00045	75 05		 jne	 SHORT $LN47@GetTaxInfo
; File C:\Program Files\Microsoft Visual Studio\2022\Professional\VC\Tools\MSVC\14.44.35207\include\type_traits

; 2380 :         return _Left < _Right;

  00047	3a 58 10	 cmp	 bl, BYTE PTR [eax+16]
; File C:\Program Files\Microsoft Visual Studio\2022\Professional\VC\Tools\MSVC\14.44.35207\include\xtree

; 1624 :         return !_Bound->_Isnil && !_DEBUG_LT_PRED(_Getcomp(), _Keyval, _Traits::_Kfn(_Bound->_Myval));

  0004a	73 02		 jae	 SHORT $LN46@GetTaxInfo
$LN47@GetTaxInfo:

; 1389 :         return _Get_scary()->_Myhead;

  0004c	8b 07		 mov	 eax, DWORD PTR [edi]
$LN46@GetTaxInfo:
; File C:\IAGOS\server\v18\Source\Source\_Common\Tax.cpp

; 86   : 		return m_mapTaxInfo.find( nContinent )->second;

  0004e	8b 40 14	 mov	 eax, DWORD PTR [eax+20]
  00051	5f		 pop	 edi

; 93   : }

  00052	5b		 pop	 ebx
  00053	8b e5		 mov	 esp, ebp
  00055	5d		 pop	 ebp
  00056	c2 04 00	 ret	 4
$LN2@GetTaxInfo:

; 87   : #ifndef __CLIENT
; 88   : 	else
; 89   : 		Error( "CTax::GetTaxInfo() - Ŕß¸řµČ ´ë·úÁ¤ş¸ %x", nContinent );

  00059	0f b6 c3	 movzx	 eax, bl
  0005c	50		 push	 eax
  0005d	68 00 00 00 00	 push	 OFFSET ??_C@_0CI@EGGDFMCC@CTax?3?3GetTaxInfo?$CI?$CJ?5?9?5?$MA?$NP?$LI?x?$LF?H?5?$LE?k?$LH@
  00062	e8 00 00 00 00	 call	 ?Error@@YAPBDPBDZZ	; Error
  00067	83 c4 08	 add	 esp, 8

; 90   : #endif // __CLIENT
; 91   : 
; 92   : 	return NULL;

  0006a	33 c0		 xor	 eax, eax
  0006c	5f		 pop	 edi

; 93   : }

  0006d	5b		 pop	 ebx
  0006e	8b e5		 mov	 esp, ebp
  00070	5d		 pop	 ebp
  00071	c2 04 00	 ret	 4
?GetTaxInfo@CTax@@QAEPAU__TAXINFO@@E@Z ENDP		; CTax::GetTaxInfo
_TEXT	ENDS
; Function compile flags: /Ogtp
;	COMDAT ??1?$map@EPAU__TAXINFO@@U?$less@E@std@@V?$allocator@U?$pair@$$CBEPAU__TAXINFO@@@std@@@3@@std@@QAE@XZ
_TEXT	SEGMENT
??1?$map@EPAU__TAXINFO@@U?$less@E@std@@V?$allocator@U?$pair@$$CBEPAU__TAXINFO@@@std@@@3@@std@@QAE@XZ PROC ; std::map<unsigned char,__TAXINFO *,std::less<unsigned char>,std::allocator<std::pair<unsigned char const ,__TAXINFO *> > >::~map<unsigned char,__TAXINFO *,std::less<unsigned char>,std::allocator<std::pair<unsigned char const ,__TAXINFO *> > >, COMDAT
; _this$ = ecx
  00000	e9 00 00 00 00	 jmp	 ??1?$_Tree@V?$_Tmap_traits@EPAU__TAXINFO@@U?$less@E@std@@V?$allocator@U?$pair@$$CBEPAU__TAXINFO@@@std@@@3@$0A@@std@@@std@@QAE@XZ ; std::_Tree<std::_Tmap_traits<unsigned char,__TAXINFO *,std::less<unsigned char>,std::allocator<std::pair<unsigned char const ,__TAXINFO *> >,0> >::~_Tree<std::_Tmap_traits<unsigned char,__TAXINFO *,std::less<unsigned char>,std::allocator<std::pair<unsigned char const ,__TAXINFO *> >,0> >
??1?$map@EPAU__TAXINFO@@U?$less@E@std@@V?$allocator@U?$pair@$$CBEPAU__TAXINFO@@@std@@@3@@std@@QAE@XZ ENDP ; std::map<unsigned char,__TAXINFO *,std::less<unsigned char>,std::allocator<std::pair<unsigned char const ,__TAXINFO *> > >::~map<unsigned char,__TAXINFO *,std::less<unsigned char>,std::allocator<std::pair<unsigned char const ,__TAXINFO *> > >
_TEXT	ENDS
; Function compile flags: /Ogtp
; File C:\Program Files\Microsoft Visual Studio\2022\Professional\VC\Tools\MSVC\14.44.35207\include\xtree
;	COMDAT ?_Insert_node@?$_Tree_val@U?$_Tree_simple_types@U?$pair@$$CBEPAU__TAXINFO@@@std@@@std@@@std@@QAEPAU?$_Tree_node@U?$pair@$$CBEPAU__TAXINFO@@@std@@PAX@2@U?$_Tree_id@PAU?$_Tree_node@U?$pair@$$CBEPAU__TAXINFO@@@std@@PAX@std@@@2@QAU32@@Z
_TEXT	SEGMENT
__Head$1$ = -4						; size = 4
__Loc$ = 8						; size = 8
__Newnode$ = 16						; size = 4
?_Insert_node@?$_Tree_val@U?$_Tree_simple_types@U?$pair@$$CBEPAU__TAXINFO@@@std@@@std@@@std@@QAEPAU?$_Tree_node@U?$pair@$$CBEPAU__TAXINFO@@@std@@PAX@2@U?$_Tree_id@PAU?$_Tree_node@U?$pair@$$CBEPAU__TAXINFO@@@std@@PAX@std@@@2@QAU32@@Z PROC ; std::_Tree_val<std::_Tree_simple_types<std::pair<unsigned char const ,__TAXINFO *> > >::_Insert_node, COMDAT
; _this$ = ecx

; 669  :     _Nodeptr _Insert_node(const _Tree_id<_Nodeptr> _Loc, const _Nodeptr _Newnode) noexcept {

  00000	55		 push	 ebp
  00001	8b ec		 mov	 ebp, esp
  00003	51		 push	 ecx

; 670  :         ++_Mysize;
; 671  :         const auto _Head  = _Myhead;
; 672  :         _Newnode->_Parent = _Loc._Parent;

  00004	8b 55 08	 mov	 edx, DWORD PTR __Loc$[ebp]
  00007	53		 push	 ebx
  00008	8b d9		 mov	 ebx, ecx
  0000a	57		 push	 edi
  0000b	8b 7d 10	 mov	 edi, DWORD PTR __Newnode$[ebp]
  0000e	8b 03		 mov	 eax, DWORD PTR [ebx]
  00010	ff 43 04	 inc	 DWORD PTR [ebx+4]
  00013	89 45 fc	 mov	 DWORD PTR __Head$1$[ebp], eax
  00016	89 57 04	 mov	 DWORD PTR [edi+4], edx

; 673  :         if (_Loc._Parent == _Head) { // first node in tree, just set head values

  00019	3b d0		 cmp	 edx, eax
  0001b	75 16		 jne	 SHORT $LN5@Insert_nod

; 674  :             _Head->_Left     = _Newnode;

  0001d	89 38		 mov	 DWORD PTR [eax], edi

; 675  :             _Head->_Parent   = _Newnode;

  0001f	89 78 04	 mov	 DWORD PTR [eax+4], edi

; 676  :             _Head->_Right    = _Newnode;

  00022	89 78 08	 mov	 DWORD PTR [eax+8], edi

; 735  :         return _Newnode;
; 736  :     }

  00025	8b c7		 mov	 eax, edi
  00027	c6 47 0c 01	 mov	 BYTE PTR [edi+12], 1
  0002b	5f		 pop	 edi
  0002c	5b		 pop	 ebx
  0002d	8b e5		 mov	 esp, ebp
  0002f	5d		 pop	 ebp
  00030	c2 0c 00	 ret	 12			; 0000000cH
$LN5@Insert_nod:

; 677  :             _Newnode->_Color = _Black; // the root is black
; 678  :             return _Newnode;
; 679  :         }
; 680  : 
; 681  :         _STL_INTERNAL_CHECK(_Loc._Child != _Tree_child::_Unused);
; 682  :         if (_Loc._Child == _Tree_child::_Right) { // add to right of _Loc._Parent

  00033	83 7d 0c 00	 cmp	 DWORD PTR __Loc$[ebp+4], 0
  00037	75 0d		 jne	 SHORT $LN6@Insert_nod

; 683  :             _STL_INTERNAL_CHECK(_Loc._Parent->_Right->_Isnil);
; 684  :             _Loc._Parent->_Right = _Newnode;

  00039	89 7a 08	 mov	 DWORD PTR [edx+8], edi

; 685  :             if (_Loc._Parent == _Head->_Right) { // remember rightmost node

  0003c	3b 50 08	 cmp	 edx, DWORD PTR [eax+8]
  0003f	75 0d		 jne	 SHORT $LN9@Insert_nod

; 686  :                 _Head->_Right = _Newnode;

  00041	89 78 08	 mov	 DWORD PTR [eax+8], edi

; 687  :             }
; 688  :         } else { // add to left of _Loc._Parent

  00044	eb 08		 jmp	 SHORT $LN9@Insert_nod
$LN6@Insert_nod:

; 689  :             _STL_INTERNAL_CHECK(_Loc._Parent->_Left->_Isnil);
; 690  :             _Loc._Parent->_Left = _Newnode;

  00046	89 3a		 mov	 DWORD PTR [edx], edi

; 691  :             if (_Loc._Parent == _Head->_Left) { // remember leftmost node

  00048	3b 10		 cmp	 edx, DWORD PTR [eax]
  0004a	75 02		 jne	 SHORT $LN9@Insert_nod

; 692  :                 _Head->_Left = _Newnode;

  0004c	89 38		 mov	 DWORD PTR [eax], edi
$LN9@Insert_nod:

; 693  :             }
; 694  :         }
; 695  : 
; 696  :         for (_Nodeptr _Pnode = _Newnode; _Pnode->_Parent->_Color == _Red;) {

  0004e	8b 4f 04	 mov	 ecx, DWORD PTR [edi+4]
  00051	8b c7		 mov	 eax, edi
  00053	80 79 0c 00	 cmp	 BYTE PTR [ecx+12], 0
  00057	0f 85 7d 01 00
	00		 jne	 $LN3@Insert_nod
  0005d	56		 push	 esi
  0005e	66 90		 npad	 2
$LL4@Insert_nod:

; 697  :             if (_Pnode->_Parent == _Pnode->_Parent->_Parent->_Left) { // fixup red-red in left subtree

  00060	8b 50 04	 mov	 edx, DWORD PTR [eax+4]
  00063	8b 72 04	 mov	 esi, DWORD PTR [edx+4]
  00066	8b 0e		 mov	 ecx, DWORD PTR [esi]
  00068	3b d1		 cmp	 edx, ecx
  0006a	0f 85 aa 00 00
	00		 jne	 $LN10@Insert_nod

; 698  :                 const auto _Parent_sibling = _Pnode->_Parent->_Parent->_Right;

  00070	8b 4e 08	 mov	 ecx, DWORD PTR [esi+8]

; 699  :                 if (_Parent_sibling->_Color == _Red) { // parent's sibling has two red children, blacken both

  00073	80 79 0c 00	 cmp	 BYTE PTR [ecx+12], 0
  00077	0f 84 a3 00 00
	00		 je	 $LN82@Insert_nod

; 700  :                     _Pnode->_Parent->_Color          = _Black;
; 701  :                     _Parent_sibling->_Color          = _Black;
; 702  :                     _Pnode->_Parent->_Parent->_Color = _Red;
; 703  :                     _Pnode                           = _Pnode->_Parent->_Parent;
; 704  :                 } else { // parent's sibling has red and black children
; 705  :                     if (_Pnode == _Pnode->_Parent->_Right) { // rotate right child to left

  0007d	8b 72 08	 mov	 esi, DWORD PTR [edx+8]
  00080	3b c6		 cmp	 eax, esi
  00082	75 37		 jne	 SHORT $LN57@Insert_nod

; 485  :         _Wherenode->_Right = _Pnode->_Left;

  00084	8b 0e		 mov	 ecx, DWORD PTR [esi]

; 706  :                         _Pnode = _Pnode->_Parent;

  00086	8b c2		 mov	 eax, edx

; 485  :         _Wherenode->_Right = _Pnode->_Left;

  00088	89 4a 08	 mov	 DWORD PTR [edx+8], ecx

; 486  : 
; 487  :         if (!_Pnode->_Left->_Isnil) {

  0008b	8b 0e		 mov	 ecx, DWORD PTR [esi]
  0008d	80 79 0d 00	 cmp	 BYTE PTR [ecx+13], 0
  00091	75 03		 jne	 SHORT $LN21@Insert_nod

; 488  :             _Pnode->_Left->_Parent = _Wherenode;

  00093	89 41 04	 mov	 DWORD PTR [ecx+4], eax
$LN21@Insert_nod:

; 489  :         }
; 490  : 
; 491  :         _Pnode->_Parent = _Wherenode->_Parent;

  00096	8b 4a 04	 mov	 ecx, DWORD PTR [edx+4]
  00099	89 4e 04	 mov	 DWORD PTR [esi+4], ecx

; 492  : 
; 493  :         if (_Wherenode == _Myhead->_Parent) {

  0009c	8b 0b		 mov	 ecx, DWORD PTR [ebx]
  0009e	3b 41 04	 cmp	 eax, DWORD PTR [ecx+4]
  000a1	75 05		 jne	 SHORT $LN22@Insert_nod

; 494  :             _Myhead->_Parent = _Pnode;

  000a3	89 71 04	 mov	 DWORD PTR [ecx+4], esi
  000a6	eb 0e		 jmp	 SHORT $LN25@Insert_nod
$LN22@Insert_nod:

; 495  :         } else if (_Wherenode == _Wherenode->_Parent->_Left) {

  000a8	8b 4a 04	 mov	 ecx, DWORD PTR [edx+4]
  000ab	3b 01		 cmp	 eax, DWORD PTR [ecx]
  000ad	75 04		 jne	 SHORT $LN24@Insert_nod

; 496  :             _Wherenode->_Parent->_Left = _Pnode;

  000af	89 31		 mov	 DWORD PTR [ecx], esi

; 497  :         } else {

  000b1	eb 03		 jmp	 SHORT $LN25@Insert_nod
$LN24@Insert_nod:

; 498  :             _Wherenode->_Parent->_Right = _Pnode;

  000b3	89 71 08	 mov	 DWORD PTR [ecx+8], esi
$LN25@Insert_nod:

; 499  :         }
; 500  : 
; 501  :         _Pnode->_Left       = _Wherenode;

  000b6	89 06		 mov	 DWORD PTR [esi], eax

; 502  :         _Wherenode->_Parent = _Pnode;

  000b8	89 70 04	 mov	 DWORD PTR [eax+4], esi
$LN57@Insert_nod:

; 707  :                         _Lrotate(_Pnode);
; 708  :                     }
; 709  : 
; 710  :                     _Pnode->_Parent->_Color          = _Black; // propagate red up

  000bb	8b 48 04	 mov	 ecx, DWORD PTR [eax+4]
  000be	c6 41 0c 01	 mov	 BYTE PTR [ecx+12], 1

; 711  :                     _Pnode->_Parent->_Parent->_Color = _Red;

  000c2	8b 48 04	 mov	 ecx, DWORD PTR [eax+4]
  000c5	8b 49 04	 mov	 ecx, DWORD PTR [ecx+4]
  000c8	c6 41 0c 00	 mov	 BYTE PTR [ecx+12], 0

; 712  :                     _Rrotate(_Pnode->_Parent->_Parent);

  000cc	8b 48 04	 mov	 ecx, DWORD PTR [eax+4]
  000cf	8b 51 04	 mov	 edx, DWORD PTR [ecx+4]

; 506  :         _Nodeptr _Pnode   = _Wherenode->_Left;

  000d2	8b 32		 mov	 esi, DWORD PTR [edx]

; 507  :         _Wherenode->_Left = _Pnode->_Right;

  000d4	8b 4e 08	 mov	 ecx, DWORD PTR [esi+8]
  000d7	89 0a		 mov	 DWORD PTR [edx], ecx

; 508  : 
; 509  :         if (!_Pnode->_Right->_Isnil) {

  000d9	8b 4e 08	 mov	 ecx, DWORD PTR [esi+8]
  000dc	80 79 0d 00	 cmp	 BYTE PTR [ecx+13], 0
  000e0	75 03		 jne	 SHORT $LN29@Insert_nod

; 510  :             _Pnode->_Right->_Parent = _Wherenode;

  000e2	89 51 04	 mov	 DWORD PTR [ecx+4], edx
$LN29@Insert_nod:

; 511  :         }
; 512  : 
; 513  :         _Pnode->_Parent = _Wherenode->_Parent;

  000e5	8b 4a 04	 mov	 ecx, DWORD PTR [edx+4]
  000e8	89 4e 04	 mov	 DWORD PTR [esi+4], ecx

; 514  : 
; 515  :         if (_Wherenode == _Myhead->_Parent) {

  000eb	8b 0b		 mov	 ecx, DWORD PTR [ebx]
  000ed	3b 51 04	 cmp	 edx, DWORD PTR [ecx+4]
  000f0	75 0b		 jne	 SHORT $LN30@Insert_nod

; 516  :             _Myhead->_Parent = _Pnode;

  000f2	89 71 04	 mov	 DWORD PTR [ecx+4], esi

; 521  :         }
; 522  : 
; 523  :         _Pnode->_Right      = _Wherenode;

  000f5	89 56 08	 mov	 DWORD PTR [esi+8], edx

; 713  :                 }
; 714  :             } else { // fixup red-red in right subtree

  000f8	e9 cc 00 00 00	 jmp	 $LN81@Insert_nod
$LN30@Insert_nod:

; 517  :         } else if (_Wherenode == _Wherenode->_Parent->_Right) {

  000fd	8b 4a 04	 mov	 ecx, DWORD PTR [edx+4]
  00100	3b 51 08	 cmp	 edx, DWORD PTR [ecx+8]
  00103	75 0b		 jne	 SHORT $LN32@Insert_nod

; 518  :             _Wherenode->_Parent->_Right = _Pnode;

  00105	89 71 08	 mov	 DWORD PTR [ecx+8], esi

; 521  :         }
; 522  : 
; 523  :         _Pnode->_Right      = _Wherenode;

  00108	89 56 08	 mov	 DWORD PTR [esi+8], edx

; 713  :                 }
; 714  :             } else { // fixup red-red in right subtree

  0010b	e9 b9 00 00 00	 jmp	 $LN81@Insert_nod
$LN32@Insert_nod:

; 520  :             _Wherenode->_Parent->_Left = _Pnode;

  00110	89 31		 mov	 DWORD PTR [ecx], esi

; 521  :         }
; 522  : 
; 523  :         _Pnode->_Right      = _Wherenode;

  00112	89 56 08	 mov	 DWORD PTR [esi+8], edx

; 713  :                 }
; 714  :             } else { // fixup red-red in right subtree

  00115	e9 af 00 00 00	 jmp	 $LN81@Insert_nod
$LN10@Insert_nod:

; 715  :                 const auto _Parent_sibling = _Pnode->_Parent->_Parent->_Left;
; 716  :                 if (_Parent_sibling->_Color == _Red) { // parent's sibling has two red children, blacken both

  0011a	80 79 0c 00	 cmp	 BYTE PTR [ecx+12], 0
  0011e	75 1d		 jne	 SHORT $LN15@Insert_nod
$LN82@Insert_nod:

; 693  :             }
; 694  :         }
; 695  : 
; 696  :         for (_Nodeptr _Pnode = _Newnode; _Pnode->_Parent->_Color == _Red;) {

  00120	c6 42 0c 01	 mov	 BYTE PTR [edx+12], 1
  00124	c6 41 0c 01	 mov	 BYTE PTR [ecx+12], 1
  00128	8b 48 04	 mov	 ecx, DWORD PTR [eax+4]
  0012b	8b 49 04	 mov	 ecx, DWORD PTR [ecx+4]
  0012e	c6 41 0c 00	 mov	 BYTE PTR [ecx+12], 0
  00132	8b 48 04	 mov	 ecx, DWORD PTR [eax+4]
  00135	8b 41 04	 mov	 eax, DWORD PTR [ecx+4]
  00138	e9 8f 00 00 00	 jmp	 $LN2@Insert_nod
$LN15@Insert_nod:

; 717  :                     _Pnode->_Parent->_Color          = _Black;
; 718  :                     _Parent_sibling->_Color          = _Black;
; 719  :                     _Pnode->_Parent->_Parent->_Color = _Red;
; 720  :                     _Pnode                           = _Pnode->_Parent->_Parent;
; 721  :                 } else { // parent's sibling has red and black children
; 722  :                     if (_Pnode == _Pnode->_Parent->_Left) { // rotate left child to right

  0013d	8b 32		 mov	 esi, DWORD PTR [edx]
  0013f	3b c6		 cmp	 eax, esi
  00141	75 3a		 jne	 SHORT $LN42@Insert_nod

; 507  :         _Wherenode->_Left = _Pnode->_Right;

  00143	8b 4e 08	 mov	 ecx, DWORD PTR [esi+8]

; 723  :                         _Pnode = _Pnode->_Parent;

  00146	8b c2		 mov	 eax, edx

; 507  :         _Wherenode->_Left = _Pnode->_Right;

  00148	89 08		 mov	 DWORD PTR [eax], ecx

; 508  : 
; 509  :         if (!_Pnode->_Right->_Isnil) {

  0014a	8b 4e 08	 mov	 ecx, DWORD PTR [esi+8]
  0014d	80 79 0d 00	 cmp	 BYTE PTR [ecx+13], 0
  00151	75 03		 jne	 SHORT $LN37@Insert_nod

; 510  :             _Pnode->_Right->_Parent = _Wherenode;

  00153	89 41 04	 mov	 DWORD PTR [ecx+4], eax
$LN37@Insert_nod:

; 511  :         }
; 512  : 
; 513  :         _Pnode->_Parent = _Wherenode->_Parent;

  00156	8b 4a 04	 mov	 ecx, DWORD PTR [edx+4]
  00159	89 4e 04	 mov	 DWORD PTR [esi+4], ecx

; 514  : 
; 515  :         if (_Wherenode == _Myhead->_Parent) {

  0015c	8b 0b		 mov	 ecx, DWORD PTR [ebx]
  0015e	3b 41 04	 cmp	 eax, DWORD PTR [ecx+4]
  00161	75 05		 jne	 SHORT $LN38@Insert_nod

; 516  :             _Myhead->_Parent = _Pnode;

  00163	89 71 04	 mov	 DWORD PTR [ecx+4], esi
  00166	eb 0f		 jmp	 SHORT $LN41@Insert_nod
$LN38@Insert_nod:

; 517  :         } else if (_Wherenode == _Wherenode->_Parent->_Right) {

  00168	8b 4a 04	 mov	 ecx, DWORD PTR [edx+4]
  0016b	3b 41 08	 cmp	 eax, DWORD PTR [ecx+8]
  0016e	75 05		 jne	 SHORT $LN40@Insert_nod

; 518  :             _Wherenode->_Parent->_Right = _Pnode;

  00170	89 71 08	 mov	 DWORD PTR [ecx+8], esi

; 519  :         } else {

  00173	eb 02		 jmp	 SHORT $LN41@Insert_nod
$LN40@Insert_nod:

; 520  :             _Wherenode->_Parent->_Left = _Pnode;

  00175	89 31		 mov	 DWORD PTR [ecx], esi
$LN41@Insert_nod:

; 521  :         }
; 522  : 
; 523  :         _Pnode->_Right      = _Wherenode;

  00177	89 46 08	 mov	 DWORD PTR [esi+8], eax

; 524  :         _Wherenode->_Parent = _Pnode;

  0017a	89 70 04	 mov	 DWORD PTR [eax+4], esi
$LN42@Insert_nod:

; 724  :                         _Rrotate(_Pnode);
; 725  :                     }
; 726  : 
; 727  :                     _Pnode->_Parent->_Color          = _Black; // propagate red up

  0017d	8b 48 04	 mov	 ecx, DWORD PTR [eax+4]
  00180	c6 41 0c 01	 mov	 BYTE PTR [ecx+12], 1

; 728  :                     _Pnode->_Parent->_Parent->_Color = _Red;

  00184	8b 48 04	 mov	 ecx, DWORD PTR [eax+4]
  00187	8b 49 04	 mov	 ecx, DWORD PTR [ecx+4]
  0018a	c6 41 0c 00	 mov	 BYTE PTR [ecx+12], 0

; 729  :                     _Lrotate(_Pnode->_Parent->_Parent);

  0018e	8b 48 04	 mov	 ecx, DWORD PTR [eax+4]
  00191	8b 51 04	 mov	 edx, DWORD PTR [ecx+4]

; 484  :         _Nodeptr _Pnode    = _Wherenode->_Right;

  00194	8b 72 08	 mov	 esi, DWORD PTR [edx+8]

; 485  :         _Wherenode->_Right = _Pnode->_Left;

  00197	8b 0e		 mov	 ecx, DWORD PTR [esi]
  00199	89 4a 08	 mov	 DWORD PTR [edx+8], ecx

; 486  : 
; 487  :         if (!_Pnode->_Left->_Isnil) {

  0019c	8b 0e		 mov	 ecx, DWORD PTR [esi]
  0019e	80 79 0d 00	 cmp	 BYTE PTR [ecx+13], 0
  001a2	75 03		 jne	 SHORT $LN45@Insert_nod

; 488  :             _Pnode->_Left->_Parent = _Wherenode;

  001a4	89 51 04	 mov	 DWORD PTR [ecx+4], edx
$LN45@Insert_nod:

; 489  :         }
; 490  : 
; 491  :         _Pnode->_Parent = _Wherenode->_Parent;

  001a7	8b 4a 04	 mov	 ecx, DWORD PTR [edx+4]
  001aa	89 4e 04	 mov	 DWORD PTR [esi+4], ecx

; 492  : 
; 493  :         if (_Wherenode == _Myhead->_Parent) {

  001ad	8b 0b		 mov	 ecx, DWORD PTR [ebx]
  001af	3b 51 04	 cmp	 edx, DWORD PTR [ecx+4]
  001b2	75 05		 jne	 SHORT $LN46@Insert_nod

; 494  :             _Myhead->_Parent = _Pnode;

  001b4	89 71 04	 mov	 DWORD PTR [ecx+4], esi
  001b7	eb 0e		 jmp	 SHORT $LN49@Insert_nod
$LN46@Insert_nod:

; 495  :         } else if (_Wherenode == _Wherenode->_Parent->_Left) {

  001b9	8b 4a 04	 mov	 ecx, DWORD PTR [edx+4]
  001bc	3b 11		 cmp	 edx, DWORD PTR [ecx]
  001be	75 04		 jne	 SHORT $LN48@Insert_nod

; 496  :             _Wherenode->_Parent->_Left = _Pnode;

  001c0	89 31		 mov	 DWORD PTR [ecx], esi

; 497  :         } else {

  001c2	eb 03		 jmp	 SHORT $LN49@Insert_nod
$LN48@Insert_nod:

; 498  :             _Wherenode->_Parent->_Right = _Pnode;

  001c4	89 71 08	 mov	 DWORD PTR [ecx+8], esi
$LN49@Insert_nod:

; 499  :         }
; 500  : 
; 501  :         _Pnode->_Left       = _Wherenode;

  001c7	89 16		 mov	 DWORD PTR [esi], edx
$LN81@Insert_nod:

; 693  :             }
; 694  :         }
; 695  : 
; 696  :         for (_Nodeptr _Pnode = _Newnode; _Pnode->_Parent->_Color == _Red;) {

  001c9	89 72 04	 mov	 DWORD PTR [edx+4], esi
$LN2@Insert_nod:
  001cc	8b 48 04	 mov	 ecx, DWORD PTR [eax+4]
  001cf	80 79 0c 00	 cmp	 BYTE PTR [ecx+12], 0
  001d3	0f 84 87 fe ff
	ff		 je	 $LL4@Insert_nod
  001d9	5e		 pop	 esi
$LN3@Insert_nod:

; 730  :                 }
; 731  :             }
; 732  :         }
; 733  : 
; 734  :         _Head->_Parent->_Color = _Black; // root is always black

  001da	8b 45 fc	 mov	 eax, DWORD PTR __Head$1$[ebp]
  001dd	8b 40 04	 mov	 eax, DWORD PTR [eax+4]
  001e0	c6 40 0c 01	 mov	 BYTE PTR [eax+12], 1

; 735  :         return _Newnode;
; 736  :     }

  001e4	8b c7		 mov	 eax, edi
  001e6	5f		 pop	 edi
  001e7	5b		 pop	 ebx
  001e8	8b e5		 mov	 esp, ebp
  001ea	5d		 pop	 ebp
  001eb	c2 0c 00	 ret	 12			; 0000000cH
?_Insert_node@?$_Tree_val@U?$_Tree_simple_types@U?$pair@$$CBEPAU__TAXINFO@@@std@@@std@@@std@@QAEPAU?$_Tree_node@U?$pair@$$CBEPAU__TAXINFO@@@std@@PAX@2@U?$_Tree_id@PAU?$_Tree_node@U?$pair@$$CBEPAU__TAXINFO@@@std@@PAX@std@@@2@QAU32@@Z ENDP ; std::_Tree_val<std::_Tree_simple_types<std::pair<unsigned char const ,__TAXINFO *> > >::_Insert_node
_TEXT	ENDS
; Function compile flags: /Ogtp
; File C:\Program Files\Microsoft Visual Studio\2022\Professional\VC\Tools\MSVC\14.44.35207\include\xtree
; File C:\Program Files\Microsoft Visual Studio\2022\Professional\VC\Tools\MSVC\14.44.35207\include\utility
; File C:\Program Files\Microsoft Visual Studio\2022\Professional\VC\Tools\MSVC\14.44.35207\include\xmemory
; File C:\Program Files\Microsoft Visual Studio\2022\Professional\VC\Tools\MSVC\14.44.35207\include\xtree
; File C:\Program Files\Microsoft Visual Studio\2022\Professional\VC\Tools\MSVC\14.44.35207\include\xmemory
; File C:\Program Files\Microsoft Visual Studio\2022\Professional\VC\Tools\MSVC\14.44.35207\include\xtree
;	COMDAT ??1?$_Tree@V?$_Tmap_traits@EPAU__TAXINFO@@U?$less@E@std@@V?$allocator@U?$pair@$$CBEPAU__TAXINFO@@@std@@@3@$0A@@std@@@std@@QAE@XZ
_TEXT	SEGMENT
??1?$_Tree@V?$_Tmap_traits@EPAU__TAXINFO@@U?$less@E@std@@V?$allocator@U?$pair@$$CBEPAU__TAXINFO@@@std@@@3@$0A@@std@@@std@@QAE@XZ PROC ; std::_Tree<std::_Tmap_traits<unsigned char,__TAXINFO *,std::less<unsigned char>,std::allocator<std::pair<unsigned char const ,__TAXINFO *> >,0> >::~_Tree<std::_Tmap_traits<unsigned char,__TAXINFO *,std::less<unsigned char>,std::allocator<std::pair<unsigned char const ,__TAXINFO *> >,0> >, COMDAT
; _this$ = ecx

; 1095 :     ~_Tree() noexcept {

  00000	56		 push	 esi
  00001	57		 push	 edi
  00002	8b f9		 mov	 edi, ecx

; 777  :         _Erase_tree(_Al, _Myhead->_Parent);

  00004	8b 37		 mov	 esi, DWORD PTR [edi]
  00006	8b 76 04	 mov	 esi, DWORD PTR [esi+4]

; 768  :         while (!_Rootnode->_Isnil) { // free subtrees, then node

  00009	80 7e 0d 00	 cmp	 BYTE PTR [esi+13], 0
  0000d	75 21		 jne	 SHORT $LN61@Tree
  0000f	90		 npad	 1
$LL8@Tree:

; 769  :             _Erase_tree(_Al, _Rootnode->_Right);

  00010	ff 76 08	 push	 DWORD PTR [esi+8]
  00013	8b cf		 mov	 ecx, edi
  00015	57		 push	 edi
  00016	e8 00 00 00 00	 call	 ??$_Erase_tree@V?$allocator@U?$_Tree_node@U?$pair@$$CBEPAU__TAXINFO@@@std@@PAX@std@@@std@@@?$_Tree_val@U?$_Tree_simple_types@U?$pair@$$CBEPAU__TAXINFO@@@std@@@std@@@std@@QAEXAAV?$allocator@U?$_Tree_node@U?$pair@$$CBEPAU__TAXINFO@@@std@@PAX@std@@@1@PAU?$_Tree_node@U?$pair@$$CBEPAU__TAXINFO@@@std@@PAX@1@@Z ; std::_Tree_val<std::_Tree_simple_types<std::pair<unsigned char const ,__TAXINFO *> > >::_Erase_tree<std::allocator<std::_Tree_node<std::pair<unsigned char const ,__TAXINFO *>,void *> > >
; File C:\Program Files\Microsoft Visual Studio\2022\Professional\VC\Tools\MSVC\14.44.35207\include\utility

; 773  :     _Ty _Old_val = static_cast<_Ty&&>(_Val);

  0001b	8b c6		 mov	 eax, esi

; 774  :     _Val         = static_cast<_Other&&>(_New_val);

  0001d	8b 36		 mov	 esi, DWORD PTR [esi]
; File C:\Program Files\Microsoft Visual Studio\2022\Professional\VC\Tools\MSVC\14.44.35207\include\xmemory

; 289  :         ::operator delete(_Ptr, _Bytes);

  0001f	6a 18		 push	 24			; 00000018H
  00021	50		 push	 eax
  00022	e8 00 00 00 00	 call	 ??3@YAXPAXI@Z		; operator delete
  00027	83 c4 08	 add	 esp, 8
; File C:\Program Files\Microsoft Visual Studio\2022\Professional\VC\Tools\MSVC\14.44.35207\include\xtree

; 768  :         while (!_Rootnode->_Isnil) { // free subtrees, then node

  0002a	80 7e 0d 00	 cmp	 BYTE PTR [esi+13], 0
  0002e	74 e0		 je	 SHORT $LL8@Tree
$LN61@Tree:
; File C:\Program Files\Microsoft Visual Studio\2022\Professional\VC\Tools\MSVC\14.44.35207\include\xmemory

; 289  :         ::operator delete(_Ptr, _Bytes);

  00030	6a 18		 push	 24			; 00000018H
  00032	ff 37		 push	 DWORD PTR [edi]
  00034	e8 00 00 00 00	 call	 ??3@YAXPAXI@Z		; operator delete
  00039	83 c4 08	 add	 esp, 8
  0003c	5f		 pop	 edi
  0003d	5e		 pop	 esi
; File C:\Program Files\Microsoft Visual Studio\2022\Professional\VC\Tools\MSVC\14.44.35207\include\xtree

; 1102 :     }

  0003e	c3		 ret	 0
??1?$_Tree@V?$_Tmap_traits@EPAU__TAXINFO@@U?$less@E@std@@V?$allocator@U?$pair@$$CBEPAU__TAXINFO@@@std@@@3@$0A@@std@@@std@@QAE@XZ ENDP ; std::_Tree<std::_Tmap_traits<unsigned char,__TAXINFO *,std::less<unsigned char>,std::allocator<std::pair<unsigned char const ,__TAXINFO *> >,0> >::~_Tree<std::_Tmap_traits<unsigned char,__TAXINFO *,std::less<unsigned char>,std::allocator<std::pair<unsigned char const ,__TAXINFO *> >,0> >
_TEXT	ENDS
; Function compile flags: /Ogtp
; File C:\IAGOS\server\v18\Source\Source\_Common\Tax.cpp
; File C:\IAGOS\server\v18\Source\Source\_Network\Misc\Include\Ar.h
; File C:\IAGOS\server\v18\Source\Source\_Common\Tax.cpp
; File C:\IAGOS\server\v18\Source\Source\_Network\Misc\Include\Ar.h
; File C:\IAGOS\server\v18\Source\Source\_Common\Tax.cpp
; File C:\Program Files\Microsoft Visual Studio\2022\Professional\VC\Tools\MSVC\14.44.35207\include\xtree
; File C:\IAGOS\server\v18\Source\Source\_Common\Tax.cpp
; File C:\Program Files\Microsoft Visual Studio\2022\Professional\VC\Tools\MSVC\14.44.35207\include\xtree
; File C:\IAGOS\server\v18\Source\Source\_Common\Tax.cpp
; File C:\Program Files\Microsoft Visual Studio\2022\Professional\VC\Tools\MSVC\14.44.35207\include\xtree
; File C:\IAGOS\server\v18\Source\Source\_Common\Tax.cpp
; File C:\Program Files\Microsoft Visual Studio\2022\Professional\VC\Tools\MSVC\14.44.35207\include\xtree
; File C:\IAGOS\server\v18\Source\Source\_Common\Tax.cpp
; File C:\Program Files\Microsoft Visual Studio\2022\Professional\VC\Tools\MSVC\14.44.35207\include\xtree
; File C:\IAGOS\server\v18\Source\Source\_Common\Tax.cpp
; File C:\Program Files\Microsoft Visual Studio\2022\Professional\VC\Tools\MSVC\14.44.35207\include\xtree
; File C:\IAGOS\server\v18\Source\Source\_Common\Tax.cpp
; File C:\Program Files\Microsoft Visual Studio\2022\Professional\VC\Tools\MSVC\14.44.35207\include\xtree
; File C:\Program Files\Microsoft Visual Studio\2022\Professional\VC\Tools\MSVC\14.44.35207\include\type_traits
; File C:\Program Files\Microsoft Visual Studio\2022\Professional\VC\Tools\MSVC\14.44.35207\include\xtree
; File C:\IAGOS\server\v18\Source\Source\_Common\Tax.cpp
;	COMDAT ?Serialize@CTax@@QAEXAAVCAr@@@Z
_TEXT	SEGMENT
__Loc$1 = -28						; size = 12
_nCont$2 = -16						; size = 1
_taxInfo$1$ = -16					; size = 4
$T3 = -12						; size = 4
_nSize2$4 = -12						; size = 4
_this$1$ = -8						; size = 4
$T5 = -4						; size = 4
_it$1$ = -4						; size = 4
_nSize$1$ = -4						; size = 4
_ar$ = 8						; size = 4
_nSize$6 = 8						; size = 4
_nTaxKind$7 = 11					; size = 1
?Serialize@CTax@@QAEXAAVCAr@@@Z PROC			; CTax::Serialize, COMDAT
; _this$ = ecx

; 392  : {

  00000	55		 push	 ebp
  00001	8b ec		 mov	 ebp, esp
  00003	83 ec 1c	 sub	 esp, 28			; 0000001cH
  00006	53		 push	 ebx
; File C:\IAGOS\server\v18\Source\Source\_Network\Misc\Include\Ar.h

; 146  : 	return (m_nMode & CAr::load) == 0;

  00007	8b 5d 08	 mov	 ebx, DWORD PTR _ar$[ebp]
; File C:\IAGOS\server\v18\Source\Source\_Common\Tax.cpp

; 392  : {

  0000a	56		 push	 esi
  0000b	8b f1		 mov	 esi, ecx

; 393  : 	if( ar.IsStoring() )

  0000d	8b cb		 mov	 ecx, ebx
  0000f	57		 push	 edi
; File C:\IAGOS\server\v18\Source\Source\_Network\Misc\Include\Ar.h

; 146  : 	return (m_nMode & CAr::load) == 0;

  00010	f6 03 01	 test	 BYTE PTR [ebx], 1
; File C:\IAGOS\server\v18\Source\Source\_Common\Tax.cpp

; 392  : {

  00013	89 75 f8	 mov	 DWORD PTR _this$1$[ebp], esi

; 393  : 	if( ar.IsStoring() )

  00016	0f 85 2e 01 00
	00		 jne	 $LN14@Serialize

; 394  : 	{
; 395  : 		ar << m_mapTaxInfo.size();

  0001c	8b 46 0c	 mov	 eax, DWORD PTR [esi+12]
  0001f	89 45 fc	 mov	 DWORD PTR $T5[ebp], eax
  00022	8d 45 fc	 lea	 eax, DWORD PTR $T5[ebp]
  00025	50		 push	 eax
  00026	e8 00 00 00 00	 call	 ??$?6I@CAr@@QAEAAV0@ABI@Z ; CAr::operator<<<unsigned int>
; File C:\Program Files\Microsoft Visual Studio\2022\Professional\VC\Tools\MSVC\14.44.35207\include\xtree

; 1142 :         return iterator(_Scary->_Myhead->_Left, _Scary);

  0002b	8b 46 08	 mov	 eax, DWORD PTR [esi+8]

; 37   :     _Tree_unchecked_const_iterator(_Nodeptr _Pnode, const _Mytree* _Plist) noexcept : _Ptr(_Pnode) {

  0002e	8b 38		 mov	 edi, DWORD PTR [eax]
  00030	89 7d fc	 mov	 DWORD PTR _it$1$[ebp], edi

; 237  :         return !(*this == _Right);

  00033	3b f8		 cmp	 edi, eax
; File C:\IAGOS\server\v18\Source\Source\_Common\Tax.cpp

; 396  : 		for( TAXINFOMAP::iterator it=m_mapTaxInfo.begin(); it!=m_mapTaxInfo.end(); it++ )

  00035	0f 84 9d 01 00
	00		 je	 $LN9@Serialize
  0003b	0f 1f 44 00 00	 npad	 5
$LL4@Serialize:

; 397  : 		{
; 398  : 			__TAXINFO* taxInfo = it->second;

  00040	8b 77 14	 mov	 esi, DWORD PTR [edi+20]
; File C:\Program Files\Microsoft Visual Studio\2022\Professional\VC\Tools\MSVC\14.44.35207\include\xtree

; 185  :         return this->_Ptr->_Myval;

  00043	8d 47 10	 lea	 eax, DWORD PTR [edi+16]
; File C:\IAGOS\server\v18\Source\Source\_Common\Tax.cpp

; 399  : 			ar << it->first;

  00046	50		 push	 eax
  00047	8b cb		 mov	 ecx, ebx
  00049	89 75 f0	 mov	 DWORD PTR _taxInfo$1$[ebp], esi
  0004c	e8 00 00 00 00	 call	 ??$?6E@CAr@@QAEAAV0@ABE@Z ; CAr::operator<<<unsigned char>

; 400  : 
; 401  : 			ar << taxInfo->dwId;

  00051	56		 push	 esi
  00052	8b cb		 mov	 ecx, ebx
  00054	e8 00 00 00 00	 call	 ??$?6K@CAr@@QAEAAV0@ABK@Z ; CAr::operator<<<unsigned long>

; 402  : #ifdef __DBSERVER
; 403  : 			ar << taxInfo->bSetTaxRate;

  00059	8d 46 04	 lea	 eax, DWORD PTR [esi+4]
  0005c	8b cb		 mov	 ecx, ebx
  0005e	50		 push	 eax
  0005f	e8 00 00 00 00	 call	 ??$?6H@CAr@@QAEAAV0@ABH@Z ; CAr::operator<<<int>

; 404  : 			ar << taxInfo->dwNextId;

  00064	8d 46 10	 lea	 eax, DWORD PTR [esi+16]
  00067	8b cb		 mov	 ecx, ebx
  00069	50		 push	 eax
  0006a	e8 00 00 00 00	 call	 ??$?6K@CAr@@QAEAAV0@ABK@Z ; CAr::operator<<<unsigned long>

; 405  : #endif // __DBSERVER
; 406  : 			ar << taxInfo->mapTaxDetail.size();

  0006f	8b 46 0c	 mov	 eax, DWORD PTR [esi+12]
  00072	8b cb		 mov	 ecx, ebx
  00074	89 45 f4	 mov	 DWORD PTR $T3[ebp], eax
  00077	8d 45 f4	 lea	 eax, DWORD PTR $T3[ebp]
  0007a	50		 push	 eax
  0007b	e8 00 00 00 00	 call	 ??$?6I@CAr@@QAEAAV0@ABI@Z ; CAr::operator<<<unsigned int>
; File C:\Program Files\Microsoft Visual Studio\2022\Professional\VC\Tools\MSVC\14.44.35207\include\xtree

; 1142 :         return iterator(_Scary->_Myhead->_Left, _Scary);

  00080	8b 46 08	 mov	 eax, DWORD PTR [esi+8]

; 37   :     _Tree_unchecked_const_iterator(_Nodeptr _Pnode, const _Mytree* _Plist) noexcept : _Ptr(_Pnode) {

  00083	8b 30		 mov	 esi, DWORD PTR [eax]

; 237  :         return !(*this == _Right);

  00085	3b f0		 cmp	 esi, eax
; File C:\IAGOS\server\v18\Source\Source\_Common\Tax.cpp

; 407  : 			for( TAXDETAILMAP::iterator it2=taxInfo->mapTaxDetail.begin(); it2!=taxInfo->mapTaxDetail.end(); it2++ )

  00087	74 67		 je	 SHORT $LN2@Serialize
  00089	8b 7d 08	 mov	 edi, DWORD PTR _ar$[ebp]
  0008c	0f 1f 40 00	 npad	 4
$LL7@Serialize:

; 408  : 			{
; 409  : 				__TAXDETAIL* taxDetail = it2->second;

  00090	8b 5e 14	 mov	 ebx, DWORD PTR [esi+20]
; File C:\Program Files\Microsoft Visual Studio\2022\Professional\VC\Tools\MSVC\14.44.35207\include\xtree

; 185  :         return this->_Ptr->_Myval;

  00093	8d 46 10	 lea	 eax, DWORD PTR [esi+16]
; File C:\IAGOS\server\v18\Source\Source\_Common\Tax.cpp

; 410  : 				ar << it2->first;

  00096	50		 push	 eax
  00097	8b cf		 mov	 ecx, edi
  00099	e8 00 00 00 00	 call	 ??$?6E@CAr@@QAEAAV0@ABE@Z ; CAr::operator<<<unsigned char>

; 411  : 
; 412  : 				ar << taxDetail->nTaxRate;

  0009e	53		 push	 ebx
  0009f	8b cf		 mov	 ecx, edi
  000a1	e8 00 00 00 00	 call	 ??$?6H@CAr@@QAEAAV0@ABH@Z ; CAr::operator<<<int>
; File C:\Program Files\Microsoft Visual Studio\2022\Professional\VC\Tools\MSVC\14.44.35207\include\xtree

; 50   :         if (_Ptr->_Right->_Isnil) { // climb looking for right subtree

  000a6	8b 46 08	 mov	 eax, DWORD PTR [esi+8]
  000a9	80 78 0d 00	 cmp	 BYTE PTR [eax+13], 0
  000ad	74 1d		 je	 SHORT $LN80@Serialize

; 51   :             _Nodeptr _Pnode;
; 52   :             while (!(_Pnode = _Ptr->_Parent)->_Isnil && _Ptr == _Pnode->_Right) {

  000af	8b 46 04	 mov	 eax, DWORD PTR [esi+4]
  000b2	80 78 0d 00	 cmp	 BYTE PTR [eax+13], 0
  000b6	75 10		 jne	 SHORT $LN214@Serialize
$LL78@Serialize:
  000b8	3b 70 08	 cmp	 esi, DWORD PTR [eax+8]
  000bb	75 0b		 jne	 SHORT $LN214@Serialize

; 53   :                 _Ptr = _Pnode; // ==> parent while right subtree

  000bd	8b f0		 mov	 esi, eax
  000bf	8b 40 04	 mov	 eax, DWORD PTR [eax+4]
  000c2	80 78 0d 00	 cmp	 BYTE PTR [eax+13], 0
  000c6	74 f0		 je	 SHORT $LL78@Serialize
$LN214@Serialize:

; 54   :             }
; 55   : 
; 56   :             _Ptr = _Pnode; // ==> parent (head if end())

  000c8	8b f0		 mov	 esi, eax

; 57   :         } else {

  000ca	eb 16		 jmp	 SHORT $LN86@Serialize
$LN80@Serialize:

; 58   :             _Ptr = _Mytree::_Min(_Ptr->_Right); // ==> smallest of right subtree

  000cc	8b f0		 mov	 esi, eax

; 476  :         while (!_Pnode->_Left->_Isnil) {

  000ce	8b 0e		 mov	 ecx, DWORD PTR [esi]
  000d0	80 79 0d 00	 cmp	 BYTE PTR [ecx+13], 0
  000d4	75 0c		 jne	 SHORT $LN86@Serialize
$LL85@Serialize:
  000d6	8b 01		 mov	 eax, DWORD PTR [ecx]

; 477  :             _Pnode = _Pnode->_Left;

  000d8	8b f1		 mov	 esi, ecx
  000da	8b c8		 mov	 ecx, eax
  000dc	80 78 0d 00	 cmp	 BYTE PTR [eax+13], 0
  000e0	74 f4		 je	 SHORT $LL85@Serialize
$LN86@Serialize:

; 237  :         return !(*this == _Right);

  000e2	8b 45 f0	 mov	 eax, DWORD PTR _taxInfo$1$[ebp]
  000e5	3b 70 08	 cmp	 esi, DWORD PTR [eax+8]
; File C:\IAGOS\server\v18\Source\Source\_Common\Tax.cpp

; 407  : 			for( TAXDETAILMAP::iterator it2=taxInfo->mapTaxDetail.begin(); it2!=taxInfo->mapTaxDetail.end(); it2++ )

  000e8	75 a6		 jne	 SHORT $LL7@Serialize
  000ea	8b 7d fc	 mov	 edi, DWORD PTR _it$1$[ebp]
  000ed	8b 5d 08	 mov	 ebx, DWORD PTR _ar$[ebp]
$LN2@Serialize:
; File C:\Program Files\Microsoft Visual Studio\2022\Professional\VC\Tools\MSVC\14.44.35207\include\xtree

; 50   :         if (_Ptr->_Right->_Isnil) { // climb looking for right subtree

  000f0	8b 47 08	 mov	 eax, DWORD PTR [edi+8]
  000f3	80 78 0d 00	 cmp	 BYTE PTR [eax+13], 0
  000f7	74 20		 je	 SHORT $LN62@Serialize

; 51   :             _Nodeptr _Pnode;
; 52   :             while (!(_Pnode = _Ptr->_Parent)->_Isnil && _Ptr == _Pnode->_Right) {

  000f9	8b 47 04	 mov	 eax, DWORD PTR [edi+4]
  000fc	80 78 0d 00	 cmp	 BYTE PTR [eax+13], 0
  00100	75 10		 jne	 SHORT $LN215@Serialize
$LL60@Serialize:
  00102	3b 78 08	 cmp	 edi, DWORD PTR [eax+8]
  00105	75 0b		 jne	 SHORT $LN215@Serialize

; 53   :                 _Ptr = _Pnode; // ==> parent while right subtree

  00107	8b f8		 mov	 edi, eax
  00109	8b 40 04	 mov	 eax, DWORD PTR [eax+4]
  0010c	80 78 0d 00	 cmp	 BYTE PTR [eax+13], 0
  00110	74 f0		 je	 SHORT $LL60@Serialize
$LN215@Serialize:

; 54   :             }
; 55   : 
; 56   :             _Ptr = _Pnode; // ==> parent (head if end())

  00112	8b f8		 mov	 edi, eax
  00114	89 7d fc	 mov	 DWORD PTR _it$1$[ebp], edi

; 57   :         } else {

  00117	eb 1c		 jmp	 SHORT $LN68@Serialize
$LN62@Serialize:

; 58   :             _Ptr = _Mytree::_Min(_Ptr->_Right); // ==> smallest of right subtree

  00119	8b f8		 mov	 edi, eax
  0011b	89 7d fc	 mov	 DWORD PTR _it$1$[ebp], edi

; 476  :         while (!_Pnode->_Left->_Isnil) {

  0011e	8b 0f		 mov	 ecx, DWORD PTR [edi]
  00120	80 79 0d 00	 cmp	 BYTE PTR [ecx+13], 0
  00124	75 0f		 jne	 SHORT $LN68@Serialize
$LL67@Serialize:
  00126	8b 01		 mov	 eax, DWORD PTR [ecx]

; 477  :             _Pnode = _Pnode->_Left;

  00128	8b f9		 mov	 edi, ecx
  0012a	89 7d fc	 mov	 DWORD PTR _it$1$[ebp], edi
  0012d	8b c8		 mov	 ecx, eax
  0012f	80 78 0d 00	 cmp	 BYTE PTR [eax+13], 0
  00133	74 f1		 je	 SHORT $LL67@Serialize
$LN68@Serialize:

; 237  :         return !(*this == _Right);

  00135	8b 45 f8	 mov	 eax, DWORD PTR _this$1$[ebp]
  00138	3b 78 08	 cmp	 edi, DWORD PTR [eax+8]
; File C:\IAGOS\server\v18\Source\Source\_Common\Tax.cpp

; 396  : 		for( TAXINFOMAP::iterator it=m_mapTaxInfo.begin(); it!=m_mapTaxInfo.end(); it++ )

  0013b	0f 85 ff fe ff
	ff		 jne	 $LL4@Serialize

; 438  : 			}
; 439  : 		}
; 440  : 	}
; 441  : }

  00141	5f		 pop	 edi
  00142	5e		 pop	 esi
  00143	5b		 pop	 ebx
  00144	8b e5		 mov	 esp, ebp
  00146	5d		 pop	 ebp
  00147	c2 04 00	 ret	 4
$LN14@Serialize:

; 413  : 			}
; 414  : 		}
; 415  : 	}
; 416  : 	else
; 417  : 	{
; 418  : 		int nSize, nSize2;
; 419  : 		BYTE nCont, nTaxKind;
; 420  : 				
; 421  : 		ar >> nSize;

  0014a	8d 45 08	 lea	 eax, DWORD PTR _nSize$6[ebp]
  0014d	50		 push	 eax
  0014e	e8 00 00 00 00	 call	 ??$?5H@CAr@@QAEAAV0@AAH@Z ; CAr::operator>><int>

; 422  : 		for( int i=0; i<nSize; i++ )

  00153	8b 45 08	 mov	 eax, DWORD PTR _nSize$6[ebp]
  00156	89 45 fc	 mov	 DWORD PTR _nSize$1$[ebp], eax
  00159	85 c0		 test	 eax, eax
  0015b	7e 7b		 jle	 SHORT $LN9@Serialize
  0015d	0f 1f 00	 npad	 3
$LL10@Serialize:

; 423  : 		{
; 424  : 			ar >> nCont;

  00160	8d 45 f0	 lea	 eax, DWORD PTR _nCont$2[ebp]
  00163	8b cb		 mov	 ecx, ebx
  00165	50		 push	 eax
  00166	e8 00 00 00 00	 call	 ??$?5E@CAr@@QAEAAV0@AAE@Z ; CAr::operator>><unsigned char>

; 425  : 			__TAXINFO* taxInfo = GetTaxInfo( nCont );

  0016b	ff 75 f0	 push	 DWORD PTR _nCont$2[ebp]
  0016e	8b ce		 mov	 ecx, esi
  00170	e8 00 00 00 00	 call	 ?GetTaxInfo@CTax@@QAEPAU__TAXINFO@@E@Z ; CTax::GetTaxInfo
  00175	8b f8		 mov	 edi, eax

; 426  : 			ar >> taxInfo->dwId;

  00177	8b cb		 mov	 ecx, ebx
  00179	57		 push	 edi
  0017a	e8 00 00 00 00	 call	 ??$?5K@CAr@@QAEAAV0@AAK@Z ; CAr::operator>><unsigned long>

; 427  : #ifdef __WORLDSERVER
; 428  : 			ar >> taxInfo->bSetTaxRate;
; 429  : 			ar >> taxInfo->dwNextId;
; 430  : #endif // __WORLDSERVER
; 431  : 			ar >> nSize2;

  0017f	8d 45 f4	 lea	 eax, DWORD PTR _nSize2$4[ebp]
  00182	8b cb		 mov	 ecx, ebx
  00184	50		 push	 eax
  00185	e8 00 00 00 00	 call	 ??$?5H@CAr@@QAEAAV0@AAH@Z ; CAr::operator>><int>

; 432  : 			for( int j=0; j<nSize2; j++ )

  0018a	8b 75 f4	 mov	 esi, DWORD PTR _nSize2$4[ebp]
  0018d	85 f6		 test	 esi, esi
  0018f	7e 3e		 jle	 SHORT $LN8@Serialize
$LL13@Serialize:

; 433  : 			{
; 434  : 				ar >> nTaxKind;

  00191	8d 45 0b	 lea	 eax, DWORD PTR _nTaxKind$7[ebp]
  00194	8b cb		 mov	 ecx, ebx
  00196	50		 push	 eax
  00197	e8 00 00 00 00	 call	 ??$?5E@CAr@@QAEAAV0@AAE@Z ; CAr::operator>><unsigned char>
; File C:\Program Files\Microsoft Visual Studio\2022\Professional\VC\Tools\MSVC\14.44.35207\include\xtree

; 1384 :         const _Tree_find_result<_Nodeptr> _Loc = _Find_lower_bound(_Keyval);

  0019c	8d 45 0b	 lea	 eax, DWORD PTR _nTaxKind$7[ebp]
  0019f	50		 push	 eax
  001a0	8d 45 e4	 lea	 eax, DWORD PTR __Loc$1[ebp]
  001a3	50		 push	 eax
  001a4	8d 4f 08	 lea	 ecx, DWORD PTR [edi+8]
  001a7	e8 00 00 00 00	 call	 ??$_Find_lower_bound@E@?$_Tree@V?$_Tmap_traits@EPAU__TAXDETAIL@@U?$less@E@std@@V?$allocator@U?$pair@$$CBEPAU__TAXDETAIL@@@std@@@3@$0A@@std@@@std@@IBE?AU?$_Tree_find_result@PAU?$_Tree_node@U?$pair@$$CBEPAU__TAXDETAIL@@@std@@PAX@std@@@1@ABE@Z ; std::_Tree<std::_Tmap_traits<unsigned char,__TAXDETAIL *,std::less<unsigned char>,std::allocator<std::pair<unsigned char const ,__TAXDETAIL *> >,0> >::_Find_lower_bound<unsigned char>

; 1624 :         return !_Bound->_Isnil && !_DEBUG_LT_PRED(_Getcomp(), _Keyval, _Traits::_Kfn(_Bound->_Myval));

  001ac	8b 4d ec	 mov	 ecx, DWORD PTR __Loc$1[ebp+8]
  001af	80 79 0d 00	 cmp	 BYTE PTR [ecx+13], 0
  001b3	75 08		 jne	 SHORT $LN110@Serialize
; File C:\Program Files\Microsoft Visual Studio\2022\Professional\VC\Tools\MSVC\14.44.35207\include\type_traits

; 2380 :         return _Left < _Right;

  001b5	8a 45 0b	 mov	 al, BYTE PTR _nTaxKind$7[ebp]
  001b8	3a 41 10	 cmp	 al, BYTE PTR [ecx+16]
; File C:\Program Files\Microsoft Visual Studio\2022\Professional\VC\Tools\MSVC\14.44.35207\include\xtree

; 1624 :         return !_Bound->_Isnil && !_DEBUG_LT_PRED(_Getcomp(), _Keyval, _Traits::_Kfn(_Bound->_Myval));

  001bb	73 03		 jae	 SHORT $LN109@Serialize
$LN110@Serialize:

; 1389 :         return _Get_scary()->_Myhead;

  001bd	8b 4f 08	 mov	 ecx, DWORD PTR [edi+8]
$LN109@Serialize:
; File C:\IAGOS\server\v18\Source\Source\_Common\Tax.cpp

; 437  : 				ar >> taxDetail->nTaxRate;

  001c0	ff 71 14	 push	 DWORD PTR [ecx+20]
  001c3	8b cb		 mov	 ecx, ebx
  001c5	e8 00 00 00 00	 call	 ??$?5H@CAr@@QAEAAV0@AAH@Z ; CAr::operator>><int>
  001ca	83 ee 01	 sub	 esi, 1
  001cd	75 c2		 jne	 SHORT $LL13@Serialize
$LN8@Serialize:

; 422  : 		for( int i=0; i<nSize; i++ )

  001cf	83 6d fc 01	 sub	 DWORD PTR _nSize$1$[ebp], 1
  001d3	8b 75 f8	 mov	 esi, DWORD PTR _this$1$[ebp]
  001d6	75 88		 jne	 SHORT $LL10@Serialize
$LN9@Serialize:
  001d8	5f		 pop	 edi

; 438  : 			}
; 439  : 		}
; 440  : 	}
; 441  : }

  001d9	5e		 pop	 esi
  001da	5b		 pop	 ebx
  001db	8b e5		 mov	 esp, ebp
  001dd	5d		 pop	 ebp
  001de	c2 04 00	 ret	 4
?Serialize@CTax@@QAEXAAVCAr@@@Z ENDP			; CTax::Serialize
_TEXT	ENDS
; Function compile flags: /Ogtp
; File C:\IAGOS\server\v18\Source\Source\_Common\Tax.cpp
;	COMDAT ?GetInstance@CTax@@SAPAV1@XZ
_TEXT	SEGMENT
__$EHRec$ = -12						; size = 12
?GetInstance@CTax@@SAPAV1@XZ PROC			; CTax::GetInstance, COMDAT

; 78   : {

  00000	55		 push	 ebp
  00001	8b ec		 mov	 ebp, esp
  00003	6a ff		 push	 -1
  00005	68 00 00 00 00	 push	 __ehhandler$?GetInstance@CTax@@SAPAV1@XZ
  0000a	64 a1 00 00 00
	00		 mov	 eax, DWORD PTR fs:0
  00010	50		 push	 eax
  00011	a1 00 00 00 00	 mov	 eax, DWORD PTR ___security_cookie
  00016	33 c5		 xor	 eax, ebp
  00018	50		 push	 eax
  00019	8d 45 f4	 lea	 eax, DWORD PTR __$EHRec$[ebp]
  0001c	64 a3 00 00 00
	00		 mov	 DWORD PTR fs:0, eax

; 79   : 	static CTax sTax;

  00022	64 a1 00 00 00
	00		 mov	 eax, DWORD PTR fs:__tls_array
  00028	8b 0d 00 00 00
	00		 mov	 ecx, DWORD PTR __tls_index
  0002e	8b 0c 88	 mov	 ecx, DWORD PTR [eax+ecx*4]
  00031	a1 00 00 00 00	 mov	 eax, DWORD PTR ?$TSS0@?1??GetInstance@CTax@@SAPAV2@XZ@4HA
  00036	3b 81 00 00 00
	00		 cmp	 eax, DWORD PTR __Init_thread_epoch[ecx]
  0003c	7f 14		 jg	 SHORT $LN9@GetInstanc
$LN5@GetInstanc:

; 80   : 	return &sTax;
; 81   : }

  0003e	b8 00 00 00 00	 mov	 eax, OFFSET ?sTax@?1??GetInstance@CTax@@SAPAV2@XZ@4V2@A
  00043	8b 4d f4	 mov	 ecx, DWORD PTR __$EHRec$[ebp]
  00046	64 89 0d 00 00
	00 00		 mov	 DWORD PTR fs:0, ecx
  0004d	59		 pop	 ecx
  0004e	8b e5		 mov	 esp, ebp
  00050	5d		 pop	 ebp
  00051	c3		 ret	 0
$LN9@GetInstanc:

; 79   : 	static CTax sTax;

  00052	68 00 00 00 00	 push	 OFFSET ?$TSS0@?1??GetInstance@CTax@@SAPAV2@XZ@4HA
  00057	e8 00 00 00 00	 call	 __Init_thread_header
  0005c	83 c4 04	 add	 esp, 4
  0005f	83 3d 00 00 00
	00 ff		 cmp	 DWORD PTR ?$TSS0@?1??GetInstance@CTax@@SAPAV2@XZ@4HA, -1
  00066	75 d6		 jne	 SHORT $LN5@GetInstanc
  00068	b9 00 00 00 00	 mov	 ecx, OFFSET ?sTax@?1??GetInstance@CTax@@SAPAV2@XZ@4V2@A
  0006d	c7 45 fc 00 00
	00 00		 mov	 DWORD PTR __$EHRec$[ebp+8], 0
  00074	e8 00 00 00 00	 call	 ??0CTax@@QAE@XZ		; CTax::CTax
  00079	68 00 00 00 00	 push	 OFFSET ??__FsTax@?1??GetInstance@CTax@@SAPAV1@XZ@YAXXZ ; `CTax::GetInstance'::`2'::`dynamic atexit destructor for 'sTax''
  0007e	e8 00 00 00 00	 call	 _atexit
  00083	68 00 00 00 00	 push	 OFFSET ?$TSS0@?1??GetInstance@CTax@@SAPAV2@XZ@4HA
  00088	e8 00 00 00 00	 call	 __Init_thread_footer
  0008d	83 c4 08	 add	 esp, 8
  00090	eb ac		 jmp	 SHORT $LN5@GetInstanc
_TEXT	ENDS
;	COMDAT text$x
text$x	SEGMENT
__unwindfunclet$?GetInstance@CTax@@SAPAV1@XZ$0:
  00000	68 00 00 00 00	 push	 OFFSET ?$TSS0@?1??GetInstance@CTax@@SAPAV2@XZ@4HA
  00005	e8 00 00 00 00	 call	 __Init_thread_abort
  0000a	59		 pop	 ecx
  0000b	c3		 ret	 0
  0000c	cc		 int	 3
  0000d	cc		 int	 3
  0000e	cc		 int	 3
  0000f	cc		 int	 3
  00010	cc		 int	 3
__ehhandler$?GetInstance@CTax@@SAPAV1@XZ:
  00011	90		 npad	 1
  00012	90		 npad	 1
  00013	8b 54 24 08	 mov	 edx, DWORD PTR [esp+8]
  00017	8d 42 0c	 lea	 eax, DWORD PTR [edx+12]
  0001a	8b 4a fc	 mov	 ecx, DWORD PTR [edx-4]
  0001d	33 c8		 xor	 ecx, eax
  0001f	e8 00 00 00 00	 call	 @__security_check_cookie@4
  00024	b8 00 00 00 00	 mov	 eax, OFFSET __ehfuncinfo$?GetInstance@CTax@@SAPAV1@XZ
  00029	e9 00 00 00 00	 jmp	 ___CxxFrameHandler3
text$x	ENDS
?GetInstance@CTax@@SAPAV1@XZ ENDP			; CTax::GetInstance
; Function compile flags: /Ogtp
; File C:\IAGOS\server\v18\Source\Source\_Common\Tax.cpp
; File C:\Program Files\Microsoft Visual Studio\2022\Professional\VC\Tools\MSVC\14.44.35207\include\xtree
; File C:\IAGOS\server\v18\Source\Source\_Common\Tax.cpp
; File C:\Program Files\Microsoft Visual Studio\2022\Professional\VC\Tools\MSVC\14.44.35207\include\xtree
; File C:\IAGOS\server\v18\Source\Source\_Common\Tax.cpp
; File C:\Program Files\Microsoft Visual Studio\2022\Professional\VC\Tools\MSVC\14.44.35207\include\xtree
; File C:\IAGOS\server\v18\Source\Source\_Common\Tax.cpp
; File C:\Program Files\Microsoft Visual Studio\2022\Professional\VC\Tools\MSVC\14.44.35207\include\xtree
