; Listing generated by Microsoft (R) Optimizing Compiler Version 19.44.35225.0 

	TITLE	C:\IAGOS\server\v18\Source\Output\DatabaseServer\Release\timer.obj
	.686P
	.XMM
	include listing.inc
	.model	flat

INCLUDELIB LIBCMT
INCLUDELIB OLDNAMES

PUBLIC	?m_lTime@@3KA					; m_lTime
PUBLIC	?m_dwOldTime@@3KA				; m_dwOldTime
_BSS	SEGMENT
?m_lTime@@3KA DD 01H DUP (?)				; m_lTime
?m_dwOldTime@@3KA DD 01H DUP (?)			; m_dwOldTime
_BSS	ENDS
PUBLIC	?__empty_global_delete@@YAXPAX@Z		; __empty_global_delete
PUBLIC	?__empty_global_delete@@YAXPAXI@Z		; __empty_global_delete
PUBLIC	??0CTimer@@QAE@XZ				; CTimer::CTimer
PUBLIC	??0CTimer@@QAE@M@Z				; CTimer::CTimer
PUBLIC	??0CTimer@@QAE@MH@Z				; CTimer::CTimer
PUBLIC	??1CTimer@@UAE@XZ				; CTimer::~CTimer
PUBLIC	?Set@CTimer@@QAEXMH@Z				; CTimer::Set
PUBLIC	?Reset@CTimer@@UAEXXZ				; CTimer::Reset
PUBLIC	?Over@CTimer@@UAEHXZ				; CTimer::Over
PUBLIC	?GetInterval@CTimer@@QAEMXZ			; CTimer::GetInterval
PUBLIC	?GetLeftTime@CTimer@@QAENXZ			; CTimer::GetLeftTime
PUBLIC	?GetTime@CTimer@@QAENXZ				; CTimer::GetTime
PUBLIC	??RCTimer@@QAEXXZ				; CTimer::operator()
PUBLIC	??RCTimer@@QAEXN@Z				; CTimer::operator()
PUBLIC	??_GCTimer@@UAEPAXI@Z				; CTimer::`scalar deleting destructor'
PUBLIC	??1CSkipTimer@@UAE@XZ				; CSkipTimer::~CSkipTimer
PUBLIC	?Set@CSkipTimer@@QAEXM@Z			; CSkipTimer::Set
PUBLIC	?Over@CSkipTimer@@UAEHXZ			; CSkipTimer::Over
PUBLIC	?IsNeedSkip@CSkipTimer@@QAEHXZ			; CSkipTimer::IsNeedSkip
PUBLIC	?IsMaxSkip@CSkipTimer@@QAEHXZ			; CSkipTimer::IsMaxSkip
PUBLIC	?Skip@CSkipTimer@@QAEXXZ			; CSkipTimer::Skip
PUBLIC	??_GCSkipTimer@@UAEPAXI@Z			; CSkipTimer::`scalar deleting destructor'
PUBLIC	??0CGameTimer@@QAE@XZ				; CGameTimer::CGameTimer
PUBLIC	??0CGameTimer@@QAE@N@Z				; CGameTimer::CGameTimer
PUBLIC	??1CGameTimer@@QAE@XZ				; CGameTimer::~CGameTimer
PUBLIC	?SetCurrentTime@CGameTimer@@QAEXHH@Z		; CGameTimer::SetCurrentTime
PUBLIC	?SetCurrentTime@CGameTimer@@QAEXN@Z		; CGameTimer::SetCurrentTime
PUBLIC	?GetTickCount@CGameTimer@@QAENXZ		; CGameTimer::GetTickCount
PUBLIC	?SetTime@CGameTimer@@QAEXHHHH@Z			; CGameTimer::SetTime
PUBLIC	?GetSunPercent@CGameTimer@@QAEHXZ		; CGameTimer::GetSunPercent
PUBLIC	?GetMoonPercent@CGameTimer@@QAEHXZ		; CGameTimer::GetMoonPercent
PUBLIC	?Compute@CGameTimer@@QAEXXZ			; CGameTimer::Compute
PUBLIC	??0CDate@@QAE@XZ				; CDate::CDate
PUBLIC	??0CDate@@QAE@HHHHHHH@Z				; CDate::CDate
PUBLIC	??1CDate@@QAE@XZ				; CDate::~CDate
PUBLIC	?IsNight@CDate@@QAEHXZ				; CDate::IsNight
PUBLIC	?GetDay@CDate@@QAEHXZ				; CDate::GetDay
PUBLIC	?ComputeShade@CDate@@QAEHH@Z			; CDate::ComputeShade
PUBLIC	?GetTimeColor@CDate@@QAEXPAUtagTIMECOLOR@@@Z	; CDate::GetTimeColor
PUBLIC	?Process@CDate@@QAEXXZ				; CDate::Process
PUBLIC	?GetFrameSkip@@YAHXZ				; GetFrameSkip
PUBLIC	?SetFrameSkip@@YAXH@Z				; SetFrameSkip
PUBLIC	?InitFST@@YAXXZ					; InitFST
PUBLIC	?IsDrawTiming@@YAHXZ				; IsDrawTiming
PUBLIC	?SetFST@@YAXXZ					; SetFST
PUBLIC	??_7CTimer@@6B@					; CTimer::`vftable'
PUBLIC	??_7CSkipTimer@@6B@				; CSkipTimer::`vftable'
PUBLIC	??_R4CTimer@@6B@				; CTimer::`RTTI Complete Object Locator'
PUBLIC	??_R0?AVCTimer@@@8				; CTimer `RTTI Type Descriptor'
PUBLIC	??_R3CTimer@@8					; CTimer::`RTTI Class Hierarchy Descriptor'
PUBLIC	??_R2CTimer@@8					; CTimer::`RTTI Base Class Array'
PUBLIC	??_R1A@?0A@EA@CTimer@@8				; CTimer::`RTTI Base Class Descriptor at (0,-1,0,64)'
PUBLIC	??_R4CSkipTimer@@6B@				; CSkipTimer::`RTTI Complete Object Locator'
PUBLIC	??_R0?AVCSkipTimer@@@8				; CSkipTimer `RTTI Type Descriptor'
PUBLIC	??_R3CSkipTimer@@8				; CSkipTimer::`RTTI Class Hierarchy Descriptor'
PUBLIC	??_R2CSkipTimer@@8				; CSkipTimer::`RTTI Base Class Array'
PUBLIC	??_R1A@?0A@EA@CSkipTimer@@8			; CSkipTimer::`RTTI Base Class Descriptor at (0,-1,0,64)'
PUBLIC	__real@00000000
PUBLIC	__real@4018000000000000
PUBLIC	__real@41bfffffff000000
PUBLIC	__real@41ebffffffa00000
PUBLIC	__xmm@41f00000000000000000000000000000
EXTRN	??3@YAXPAXI@Z:PROC				; operator delete
EXTRN	__imp__timeGetTime@0:PROC
EXTRN	??_ECTimer@@UAEPAXI@Z:PROC			; CTimer::`vector deleting destructor'
EXTRN	??_ECSkipTimer@@UAEPAXI@Z:PROC			; CSkipTimer::`vector deleting destructor'
EXTRN	__dtol3:PROC
EXTRN	??_7type_info@@6B@:QWORD			; type_info::`vftable'
EXTRN	__fltused:DWORD
;	COMDAT __xmm@41f00000000000000000000000000000
CONST	SEGMENT
__xmm@41f00000000000000000000000000000 DB 00H, 00H, 00H, 00H, 00H, 00H, 00H
	DB	00H, 00H, 00H, 00H, 00H, 00H, 00H, 0f0H, 'A'
CONST	ENDS
;	COMDAT __real@41ebffffffa00000
CONST	SEGMENT
__real@41ebffffffa00000 DQ 041ebffffffa00000r	; 3.7581e+09
CONST	ENDS
;	COMDAT __real@41bfffffff000000
CONST	SEGMENT
__real@41bfffffff000000 DQ 041bfffffff000000r	; 5.36871e+08
CONST	ENDS
;	COMDAT __real@4018000000000000
CONST	SEGMENT
__real@4018000000000000 DQ 04018000000000000r	; 6
CONST	ENDS
;	COMDAT __real@00000000
CONST	SEGMENT
__real@00000000 DD 000000000r			; 0
CONST	ENDS
_DATA	SEGMENT
?s_bFrameSkip@@3HA DD 01H				; s_bFrameSkip
_DATA	ENDS
;	COMDAT ??_R1A@?0A@EA@CSkipTimer@@8
rdata$r	SEGMENT
??_R1A@?0A@EA@CSkipTimer@@8 DD FLAT:??_R0?AVCSkipTimer@@@8 ; CSkipTimer::`RTTI Base Class Descriptor at (0,-1,0,64)'
	DD	01H
	DD	00H
	DD	0ffffffffH
	DD	00H
	DD	040H
	DD	FLAT:??_R3CSkipTimer@@8
rdata$r	ENDS
;	COMDAT ??_R2CSkipTimer@@8
rdata$r	SEGMENT
??_R2CSkipTimer@@8 DD FLAT:??_R1A@?0A@EA@CSkipTimer@@8	; CSkipTimer::`RTTI Base Class Array'
	DD	FLAT:??_R1A@?0A@EA@CTimer@@8
rdata$r	ENDS
;	COMDAT ??_R3CSkipTimer@@8
rdata$r	SEGMENT
??_R3CSkipTimer@@8 DD 00H				; CSkipTimer::`RTTI Class Hierarchy Descriptor'
	DD	00H
	DD	02H
	DD	FLAT:??_R2CSkipTimer@@8
rdata$r	ENDS
;	COMDAT ??_R0?AVCSkipTimer@@@8
data$rs	SEGMENT
??_R0?AVCSkipTimer@@@8 DD FLAT:??_7type_info@@6B@	; CSkipTimer `RTTI Type Descriptor'
	DD	00H
	DB	'.?AVCSkipTimer@@', 00H
data$rs	ENDS
;	COMDAT ??_R4CSkipTimer@@6B@
rdata$r	SEGMENT
??_R4CSkipTimer@@6B@ DD 00H				; CSkipTimer::`RTTI Complete Object Locator'
	DD	00H
	DD	00H
	DD	FLAT:??_R0?AVCSkipTimer@@@8
	DD	FLAT:??_R3CSkipTimer@@8
rdata$r	ENDS
;	COMDAT ??_R1A@?0A@EA@CTimer@@8
rdata$r	SEGMENT
??_R1A@?0A@EA@CTimer@@8 DD FLAT:??_R0?AVCTimer@@@8	; CTimer::`RTTI Base Class Descriptor at (0,-1,0,64)'
	DD	00H
	DD	00H
	DD	0ffffffffH
	DD	00H
	DD	040H
	DD	FLAT:??_R3CTimer@@8
rdata$r	ENDS
;	COMDAT ??_R2CTimer@@8
rdata$r	SEGMENT
??_R2CTimer@@8 DD FLAT:??_R1A@?0A@EA@CTimer@@8		; CTimer::`RTTI Base Class Array'
rdata$r	ENDS
;	COMDAT ??_R3CTimer@@8
rdata$r	SEGMENT
??_R3CTimer@@8 DD 00H					; CTimer::`RTTI Class Hierarchy Descriptor'
	DD	00H
	DD	01H
	DD	FLAT:??_R2CTimer@@8
rdata$r	ENDS
;	COMDAT ??_R0?AVCTimer@@@8
data$rs	SEGMENT
??_R0?AVCTimer@@@8 DD FLAT:??_7type_info@@6B@		; CTimer `RTTI Type Descriptor'
	DD	00H
	DB	'.?AVCTimer@@', 00H
data$rs	ENDS
;	COMDAT ??_R4CTimer@@6B@
rdata$r	SEGMENT
??_R4CTimer@@6B@ DD 00H					; CTimer::`RTTI Complete Object Locator'
	DD	00H
	DD	00H
	DD	FLAT:??_R0?AVCTimer@@@8
	DD	FLAT:??_R3CTimer@@8
rdata$r	ENDS
;	COMDAT ??_7CSkipTimer@@6B@
CONST	SEGMENT
??_7CSkipTimer@@6B@ DD FLAT:??_R4CSkipTimer@@6B@	; CSkipTimer::`vftable'
	DD	FLAT:??_ECSkipTimer@@UAEPAXI@Z
	DD	FLAT:?Reset@CTimer@@UAEXXZ
	DD	FLAT:?Over@CSkipTimer@@UAEHXZ
CONST	ENDS
;	COMDAT ??_7CTimer@@6B@
CONST	SEGMENT
??_7CTimer@@6B@ DD FLAT:??_R4CTimer@@6B@		; CTimer::`vftable'
	DD	FLAT:??_ECTimer@@UAEPAXI@Z
	DD	FLAT:?Reset@CTimer@@UAEXXZ
	DD	FLAT:?Over@CTimer@@UAEHXZ
CONST	ENDS
; Function compile flags: /Ogtp
; File C:\IAGOS\server\v18\Source\Source\_Common\timer.cpp
;	COMDAT ?UpdateTime@@YAXXZ
_TEXT	SEGMENT
?UpdateTime@@YAXXZ PROC					; UpdateTime, COMDAT

; 491  : 	DWORD	dwTime = timeGetTime();

  00000	ff 15 00 00 00
	00		 call	 DWORD PTR __imp__timeGetTime@0

; 492  : 
; 493  : 	m_lTime += (dwTime - m_dwOldTime);	// °ć°úµČ ˝Ă°ŁŔ» ´őÇÔ

  00006	8b 15 00 00 00
	00		 mov	 edx, DWORD PTR ?m_lTime@@3KA ; m_lTime
  0000c	8b c8		 mov	 ecx, eax
  0000e	2b 0d 00 00 00
	00		 sub	 ecx, DWORD PTR ?m_dwOldTime@@3KA ; m_dwOldTime
  00014	03 d1		 add	 edx, ecx

; 494  : 	if( m_lTime > 1000 )	m_lTime = 1000;

  00016	a3 00 00 00 00	 mov	 DWORD PTR ?m_dwOldTime@@3KA, eax ; m_dwOldTime
  0001b	89 15 00 00 00
	00		 mov	 DWORD PTR ?m_lTime@@3KA, edx ; m_lTime
  00021	81 fa e8 03 00
	00		 cmp	 edx, 1000		; 000003e8H
  00027	76 0a		 jbe	 SHORT $LN2@UpdateTime
  00029	c7 05 00 00 00
	00 e8 03 00 00	 mov	 DWORD PTR ?m_lTime@@3KA, 1000 ; m_lTime, 000003e8H
$LN2@UpdateTime:

; 495  : 
; 496  : #ifdef __BS_EFFECT_LUA
; 497  : 	g_timeMTE += ( dwTime - m_dwOldTime );
; 498  : 	if( g_timeMTE > 20000 )	//20ĂĘ¸¶´Ů °»˝Ĺ
; 499  : 		g_timeMTE = 0;
; 500  : #endif //__BS_EFFECT_LUA
; 501  : 	m_dwOldTime = dwTime;
; 502  : }

  00033	c3		 ret	 0
?UpdateTime@@YAXXZ ENDP					; UpdateTime
_TEXT	ENDS
; Function compile flags: /Ogtp
; File C:\IAGOS\server\v18\Source\Source\_Common\timer.cpp
;	COMDAT ?SetFST@@YAXXZ
_TEXT	SEGMENT
?SetFST@@YAXXZ PROC					; SetFST, COMDAT

; 518  : 	if( s_bFrameSkip == FALSE )		return;

  00000	83 3d 00 00 00
	00 00		 cmp	 DWORD PTR ?s_bFrameSkip@@3HA, 0
  00007	74 26		 je	 SHORT $LN1@SetFST

; 519  : 	UpdateTime();

  00009	e8 00 00 00 00	 call	 ?UpdateTime@@YAXXZ	; UpdateTime

; 520  : 	while (m_lTime < (1000 / FRAME_PER_SEC))

  0000e	a1 00 00 00 00	 mov	 eax, DWORD PTR ?m_lTime@@3KA ; m_lTime
  00013	83 f8 10	 cmp	 eax, 16			; 00000010H
  00016	73 0f		 jae	 SHORT $LN3@SetFST
$LL2@SetFST:

; 521  : 		UpdateTime();

  00018	e8 00 00 00 00	 call	 ?UpdateTime@@YAXXZ	; UpdateTime
  0001d	a1 00 00 00 00	 mov	 eax, DWORD PTR ?m_lTime@@3KA ; m_lTime
  00022	83 f8 10	 cmp	 eax, 16			; 00000010H
  00025	72 f1		 jb	 SHORT $LL2@SetFST
$LN3@SetFST:

; 522  : 
; 523  : 	m_lTime -= (1000 / FRAME_PER_SEC);

  00027	83 e8 10	 sub	 eax, 16			; 00000010H
  0002a	a3 00 00 00 00	 mov	 DWORD PTR ?m_lTime@@3KA, eax ; m_lTime
$LN1@SetFST:

; 524  : }

  0002f	c3		 ret	 0
?SetFST@@YAXXZ ENDP					; SetFST
_TEXT	ENDS
; Function compile flags: /Ogtp
; File C:\IAGOS\server\v18\Source\Source\_Common\timer.cpp
;	COMDAT ?IsDrawTiming@@YAHXZ
_TEXT	SEGMENT
?IsDrawTiming@@YAHXZ PROC				; IsDrawTiming, COMDAT

; 506  : 	if( s_bFrameSkip == FALSE )		return TRUE;		// ÇÁ·ąŔÓ ˝şĹµŔĚ ˛¨Á®ŔÖŔ¸¸é ą«Á¶°Ç µĺ·Îżě.

  00000	83 3d 00 00 00
	00 00		 cmp	 DWORD PTR ?s_bFrameSkip@@3HA, 0
  00007	74 1b		 je	 SHORT $LN5@IsDrawTimi

; 507  : 	UpdateTime();

  00009	e8 00 00 00 00	 call	 ?UpdateTime@@YAXXZ	; UpdateTime

; 508  : 	if( m_lTime >= 1000 )	

  0000e	a1 00 00 00 00	 mov	 eax, DWORD PTR ?m_lTime@@3KA ; m_lTime
  00013	3d e8 03 00 00	 cmp	 eax, 1000		; 000003e8H
  00018	72 10		 jb	 SHORT $LN3@IsDrawTimi

; 509  : 	{
; 510  : 		m_lTime = 0;

  0001a	c7 05 00 00 00
	00 00 00 00 00	 mov	 DWORD PTR ?m_lTime@@3KA, 0 ; m_lTime
$LN5@IsDrawTimi:

; 514  : }

  00024	b8 01 00 00 00	 mov	 eax, 1
  00029	c3		 ret	 0
$LN3@IsDrawTimi:

; 511  : 		return TRUE;
; 512  : 	}
; 513  : 	return (m_lTime < (1000 / FRAME_PER_SEC)) ? TRUE : FALSE;

  0002a	83 f8 10	 cmp	 eax, 16			; 00000010H
  0002d	1b c0		 sbb	 eax, eax
  0002f	f7 d8		 neg	 eax

; 514  : }

  00031	c3		 ret	 0
?IsDrawTiming@@YAHXZ ENDP				; IsDrawTiming
_TEXT	ENDS
; Function compile flags: /Ogtp
; File C:\IAGOS\server\v18\Source\Source\_Common\timer.cpp
;	COMDAT ?InitFST@@YAXXZ
_TEXT	SEGMENT
?InitFST@@YAXXZ PROC					; InitFST, COMDAT

; 471  : 	m_lTime = 0;

  00000	c7 05 00 00 00
	00 00 00 00 00	 mov	 DWORD PTR ?m_lTime@@3KA, 0 ; m_lTime

; 472  : 	m_dwOldTime = timeGetTime();

  0000a	ff 15 00 00 00
	00		 call	 DWORD PTR __imp__timeGetTime@0
  00010	a3 00 00 00 00	 mov	 DWORD PTR ?m_dwOldTime@@3KA, eax ; m_dwOldTime

; 473  : 	s_bFrameSkip = TRUE;

  00015	c7 05 00 00 00
	00 01 00 00 00	 mov	 DWORD PTR ?s_bFrameSkip@@3HA, 1

; 474  : }

  0001f	c3		 ret	 0
?InitFST@@YAXXZ ENDP					; InitFST
_TEXT	ENDS
; Function compile flags: /Ogtp
; File C:\IAGOS\server\v18\Source\Source\_Common\timer.cpp
;	COMDAT ?SetFrameSkip@@YAXH@Z
_TEXT	SEGMENT
_bFlag$ = 8						; size = 4
?SetFrameSkip@@YAXH@Z PROC				; SetFrameSkip, COMDAT

; 478  : {

  00000	55		 push	 ebp
  00001	8b ec		 mov	 ebp, esp

; 479  : 	s_bFrameSkip = bFlag;

  00003	8b 45 08	 mov	 eax, DWORD PTR _bFlag$[ebp]
  00006	a3 00 00 00 00	 mov	 DWORD PTR ?s_bFrameSkip@@3HA, eax

; 480  : 	if( bFlag == TRUE )		InitFST();

  0000b	83 f8 01	 cmp	 eax, 1
  0000e	75 06		 jne	 SHORT $LN2@SetFrameSk

; 481  : }

  00010	5d		 pop	 ebp

; 480  : 	if( bFlag == TRUE )		InitFST();

  00011	e9 00 00 00 00	 jmp	 ?InitFST@@YAXXZ		; InitFST
$LN2@SetFrameSk:

; 481  : }

  00016	5d		 pop	 ebp
  00017	c3		 ret	 0
?SetFrameSkip@@YAXH@Z ENDP				; SetFrameSkip
_TEXT	ENDS
; Function compile flags: /Ogtp
; File C:\IAGOS\server\v18\Source\Source\_Common\timer.cpp
;	COMDAT ?GetFrameSkip@@YAHXZ
_TEXT	SEGMENT
?GetFrameSkip@@YAHXZ PROC				; GetFrameSkip, COMDAT

; 486  : 	return s_bFrameSkip;

  00000	a1 00 00 00 00	 mov	 eax, DWORD PTR ?s_bFrameSkip@@3HA

; 487  : }

  00005	c3		 ret	 0
?GetFrameSkip@@YAHXZ ENDP				; GetFrameSkip
_TEXT	ENDS
; Function compile flags: /Ogtp
; File C:\IAGOS\server\v18\Source\Source\_Common\timer.cpp
;	COMDAT ?Process@CDate@@QAEXXZ
_TEXT	SEGMENT
?Process@CDate@@QAEXXZ PROC				; CDate::Process, COMDAT
; _this$ = ecx

; 383  : {

  00000	56		 push	 esi
  00001	8b f1		 mov	 esi, ecx

; 384  : 	while(m_delay.Over())

  00003	8b 06		 mov	 eax, DWORD PTR [esi]
  00005	ff 50 08	 call	 DWORD PTR [eax+8]
  00008	85 c0		 test	 eax, eax
  0000a	74 62		 je	 SHORT $LN3@Process
  0000c	0f 1f 40 00	 npad	 4
$LL2@Process:

; 385  : 	{
; 386  : 		//m_delay.Set(m_nDelay);//m_nDelay);
; 387  : 		m_nSecond++;

  00010	ff 46 40	 inc	 DWORD PTR [esi+64]

; 388  : 		if(m_nSecond >= 60)

  00013	83 7e 40 3c	 cmp	 DWORD PTR [esi+64], 60	; 0000003cH
  00017	7c 0a		 jl	 SHORT $LN17@Process

; 389  : 		{
; 390  : 			m_nSecond = 1;
; 391  : 			m_nMinute++;

  00019	ff 46 3c	 inc	 DWORD PTR [esi+60]
  0001c	c7 46 40 01 00
	00 00		 mov	 DWORD PTR [esi+64], 1
$LN17@Process:

; 392  : 		}
; 393  : 		if(m_nMinute >= 60)

  00023	83 7e 3c 3c	 cmp	 DWORD PTR [esi+60], 60	; 0000003cH
  00027	7c 0a		 jl	 SHORT $LN18@Process

; 394  : 		{
; 395  : 			m_nMinute = 1;
; 396  : 			m_nHour++;

  00029	ff 46 38	 inc	 DWORD PTR [esi+56]
  0002c	c7 46 3c 01 00
	00 00		 mov	 DWORD PTR [esi+60], 1
$LN18@Process:

; 397  : 		}
; 398  : 		if(m_nHour > 24)

  00033	83 7e 38 18	 cmp	 DWORD PTR [esi+56], 24	; 00000018H
  00037	7e 0a		 jle	 SHORT $LN19@Process

; 399  : 		{
; 400  : 			m_nHour = 1;
; 401  : 			m_nDay++;

  00039	ff 46 34	 inc	 DWORD PTR [esi+52]
  0003c	c7 46 38 01 00
	00 00		 mov	 DWORD PTR [esi+56], 1
$LN19@Process:

; 402  : 		}
; 403  : 		if(m_nDay > 30)

  00043	83 7e 34 1e	 cmp	 DWORD PTR [esi+52], 30	; 0000001eH
  00047	7e 0a		 jle	 SHORT $LN20@Process

; 404  : 		{
; 405  : 			m_nDay = 1;
; 406  : 			m_nMonth++;

  00049	ff 46 30	 inc	 DWORD PTR [esi+48]
  0004c	c7 46 34 01 00
	00 00		 mov	 DWORD PTR [esi+52], 1
$LN20@Process:

; 407  : 		}
; 408  : 		if(m_nMonth > 12)

  00053	83 7e 30 0c	 cmp	 DWORD PTR [esi+48], 12	; 0000000cH
  00057	7e 0a		 jle	 SHORT $LN8@Process

; 409  : 		{ 
; 410  : 			m_nMonth = 1;
; 411  : 			m_nYear++;

  00059	ff 46 2c	 inc	 DWORD PTR [esi+44]
  0005c	c7 46 30 01 00
	00 00		 mov	 DWORD PTR [esi+48], 1
$LN8@Process:

; 384  : 	while(m_delay.Over())

  00063	8b 06		 mov	 eax, DWORD PTR [esi]
  00065	8b ce		 mov	 ecx, esi
  00067	ff 50 08	 call	 DWORD PTR [eax+8]
  0006a	85 c0		 test	 eax, eax
  0006c	75 a2		 jne	 SHORT $LL2@Process
$LN3@Process:
  0006e	5e		 pop	 esi

; 412  : 		}
; 413  : 	}
; 414  : }

  0006f	c3		 ret	 0
?Process@CDate@@QAEXXZ ENDP				; CDate::Process
_TEXT	ENDS
; Function compile flags: /Ogtp
; File C:\IAGOS\server\v18\Source\Source\_Common\timer.cpp
;	COMDAT ?GetTimeColor@CDate@@QAEXPAUtagTIMECOLOR@@@Z
_TEXT	SEGMENT
_pTimeColor$ = 8					; size = 4
?GetTimeColor@CDate@@QAEXPAUtagTIMECOLOR@@@Z PROC	; CDate::GetTimeColor, COMDAT
; _this$ = ecx

; 347  : {

  00000	55		 push	 ebp
  00001	8b ec		 mov	 ebp, esp

; 348  : 	int nTime;
; 349  : 	// ąăŔĚ µÇ°í ŔÖŔ˝ 
; 350  : 	if(m_nHour >= 18)

  00003	8b 51 38	 mov	 edx, DWORD PTR [ecx+56]
  00006	83 fa 12	 cmp	 edx, 18			; 00000012H
  00009	7c 48		 jl	 SHORT $LN2@GetTimeCol

; 351  : 	{
; 352  : 		nTime = (m_nHour - 18) * 60 + m_nMinute; // şĐ´ÜŔ§¸¦ ±¸ÇÔ (¸Ć˝ĂĽ¶ 360 + 59 = 419)
; 353  : 		// 419 : 0x0f = nTime = x
; 354  : 		pTimeColor->m_nDarkAlpha = nTime * 0x0f / 359;

  0000b	8d 42 ee	 lea	 eax, DWORD PTR [edx-18]
  0000e	8b d0		 mov	 edx, eax
  00010	c1 e2 04	 shl	 edx, 4
  00013	2b d0		 sub	 edx, eax
  00015	8b 41 3c	 mov	 eax, DWORD PTR [ecx+60]
  00018	8d 04 90	 lea	 eax, DWORD PTR [eax+edx*4]
  0001b	8b c8		 mov	 ecx, eax
  0001d	c1 e1 04	 shl	 ecx, 4
  00020	2b c8		 sub	 ecx, eax
  00022	b8 35 31 8d b6	 mov	 eax, -1232260811	; b68d3135H
  00027	f7 e9		 imul	 ecx
  00029	03 d1		 add	 edx, ecx
  0002b	8b 4d 08	 mov	 ecx, DWORD PTR _pTimeColor$[ebp]
  0002e	c1 fa 08	 sar	 edx, 8
  00031	8b c2		 mov	 eax, edx
  00033	c1 e8 1f	 shr	 eax, 31			; 0000001fH
  00036	03 c2		 add	 eax, edx
  00038	89 01		 mov	 DWORD PTR [ecx], eax

; 355  : 		if(pTimeColor->m_nDarkAlpha > 0x0f) 

  0003a	83 f8 0f	 cmp	 eax, 15			; 0000000fH
  0003d	7e 06		 jle	 SHORT $LN4@GetTimeCol

; 356  : 			pTimeColor->m_nDarkAlpha = 0x0f;

  0003f	c7 01 0f 00 00
	00		 mov	 DWORD PTR [ecx], 15	; 0000000fH
$LN4@GetTimeCol:

; 357  : 		pTimeColor->m_nR = -3;

  00045	66 c7 41 04 fd
	fd		 mov	 WORD PTR [ecx+4], 65021	; 0000fdfdH

; 358  : 		pTimeColor->m_nG = -3;
; 359  : 		pTimeColor->m_nB = 0;

  0004b	c6 41 06 00	 mov	 BYTE PTR [ecx+6], 0

; 380  : 	}
; 381  : }

  0004f	5d		 pop	 ebp
  00050	c2 04 00	 ret	 4
$LN2@GetTimeCol:

; 360  : 	}
; 361  : 	else
; 362  : 	// ľĆÄ§ŔĚ µÇ°í ŔÖŔ˝ 
; 363  : 	if(m_nHour <= 5)

  00053	83 fa 05	 cmp	 edx, 5
  00056	7f 4c		 jg	 SHORT $LN5@GetTimeCol

; 364  : 	{
; 365  : 		nTime = (8 - m_nHour) * 60 - m_nMinute; // 420 - 1 = 419) (ąăŔĚ łˇłŞ´Â ˝Ă°˘°ú ŔĎÄˇ)
; 366  : 		// 419 : 0x0f = nTime = x
; 367  : 		pTimeColor->m_nDarkAlpha = nTime * 0x0f / 359;

  00058	b8 08 00 00 00	 mov	 eax, 8
  0005d	2b c2		 sub	 eax, edx
  0005f	8b d0		 mov	 edx, eax
  00061	c1 e2 04	 shl	 edx, 4
  00064	2b d0		 sub	 edx, eax
  00066	b8 35 31 8d b6	 mov	 eax, -1232260811	; b68d3135H
  0006b	c1 e2 02	 shl	 edx, 2
  0006e	2b 51 3c	 sub	 edx, DWORD PTR [ecx+60]
  00071	8b ca		 mov	 ecx, edx
  00073	c1 e1 04	 shl	 ecx, 4
  00076	2b ca		 sub	 ecx, edx
  00078	f7 e9		 imul	 ecx
  0007a	03 d1		 add	 edx, ecx
  0007c	8b 4d 08	 mov	 ecx, DWORD PTR _pTimeColor$[ebp]
  0007f	c1 fa 08	 sar	 edx, 8
  00082	8b c2		 mov	 eax, edx
  00084	c1 e8 1f	 shr	 eax, 31			; 0000001fH
  00087	03 c2		 add	 eax, edx
  00089	89 01		 mov	 DWORD PTR [ecx], eax

; 368  : 		if(pTimeColor->m_nDarkAlpha > 0x0f) 

  0008b	83 f8 0f	 cmp	 eax, 15			; 0000000fH
  0008e	7e 06		 jle	 SHORT $LN7@GetTimeCol

; 369  : 			pTimeColor->m_nDarkAlpha = 0x0f;

  00090	c7 01 0f 00 00
	00		 mov	 DWORD PTR [ecx], 15	; 0000000fH
$LN7@GetTimeCol:

; 370  : 		pTimeColor->m_nR = 0;

  00096	66 c7 41 04 00
	00		 mov	 WORD PTR [ecx+4], 0

; 371  : 		pTimeColor->m_nG = 0;
; 372  : 		pTimeColor->m_nB = 0;

  0009c	c6 41 06 00	 mov	 BYTE PTR [ecx+6], 0

; 380  : 	}
; 381  : }

  000a0	5d		 pop	 ebp
  000a1	c2 04 00	 ret	 4
$LN5@GetTimeCol:

; 373  : 	}
; 374  : 	else
; 375  : 	{
; 376  : 		pTimeColor->m_nDarkAlpha = 0;

  000a4	8b 45 08	 mov	 eax, DWORD PTR _pTimeColor$[ebp]
  000a7	c7 00 00 00 00
	00		 mov	 DWORD PTR [eax], 0

; 377  : 		pTimeColor->m_nR = 0;

  000ad	66 c7 40 04 00
	00		 mov	 WORD PTR [eax+4], 0

; 378  : 		pTimeColor->m_nG = 0;
; 379  : 		pTimeColor->m_nB = 0;

  000b3	c6 40 06 00	 mov	 BYTE PTR [eax+6], 0

; 380  : 	}
; 381  : }

  000b7	5d		 pop	 ebp
  000b8	c2 04 00	 ret	 4
?GetTimeColor@CDate@@QAEXPAUtagTIMECOLOR@@@Z ENDP	; CDate::GetTimeColor
_TEXT	ENDS
; Function compile flags: /Ogtp
; File C:\IAGOS\server\v18\Source\Source\_Common\timer.cpp
;	COMDAT ?ComputeShade@CDate@@QAEHH@Z
_TEXT	SEGMENT
_nMax$ = 8						; size = 4
?ComputeShade@CDate@@QAEHH@Z PROC			; CDate::ComputeShade, COMDAT
; _this$ = ecx

; 329  : {

  00000	55		 push	 ebp
  00001	8b ec		 mov	 ebp, esp
  00003	56		 push	 esi
  00004	57		 push	 edi
  00005	8b f9		 mov	 edi, ecx

; 330  : //	int nVal;
; 331  : 	int nResult = 0;

  00007	33 d2		 xor	 edx, edx

; 332  : 	if(m_nHour >= 21 || m_nHour <= 4)

  00009	8b 77 38	 mov	 esi, DWORD PTR [edi+56]
  0000c	8d 46 fb	 lea	 eax, DWORD PTR [esi-5]
  0000f	83 f8 0f	 cmp	 eax, 15			; 0000000fH
  00012	77 48		 ja	 SHORT $LN3@ComputeSha

; 334  : 	if(m_nHour >= 19) // 19, 20

  00014	83 fe 13	 cmp	 esi, 19			; 00000013H
  00017	7c 12		 jl	 SHORT $LN9@ComputeSha

; 335  : 	{
; 336  : 		nResult = (((m_nHour - 19) * 60) + m_nMinute) / 16;

  00019	8d 46 ed	 lea	 eax, DWORD PTR [esi-19]
  0001c	8b c8		 mov	 ecx, eax
  0001e	c1 e1 04	 shl	 ecx, 4
  00021	2b c8		 sub	 ecx, eax
  00023	8b 47 3c	 mov	 eax, DWORD PTR [edi+60]
  00026	8d 04 88	 lea	 eax, DWORD PTR [eax+ecx*4]
  00029	eb 19		 jmp	 SHORT $LN13@ComputeSha
$LN9@ComputeSha:

; 337  : 	}
; 338  : 	if(m_nHour <= 6) // 5, 6

  0002b	83 fe 06	 cmp	 esi, 6
  0002e	7f 1d		 jg	 SHORT $LN5@ComputeSha

; 339  : 	{
; 340  : 		nResult = (((6 - m_nHour) * 60) + (60-m_nMinute)) / 16;

  00030	b9 07 00 00 00	 mov	 ecx, 7
  00035	2b ce		 sub	 ecx, esi
  00037	8b c1		 mov	 eax, ecx
  00039	c1 e0 04	 shl	 eax, 4
  0003c	2b c1		 sub	 eax, ecx
  0003e	c1 e0 02	 shl	 eax, 2
  00041	2b 47 3c	 sub	 eax, DWORD PTR [edi+60]
$LN13@ComputeSha:

; 341  : 	}
; 342  : 	if(nResult == nMax) 
; 343  : 		nResult--;
; 344  : 	return nResult;

  00044	99		 cdq
  00045	83 e2 0f	 and	 edx, 15			; 0000000fH
  00048	03 d0		 add	 edx, eax
  0004a	c1 fa 04	 sar	 edx, 4
$LN5@ComputeSha:
  0004d	3b 55 08	 cmp	 edx, DWORD PTR _nMax$[ebp]
  00050	8d 42 ff	 lea	 eax, DWORD PTR [edx-1]
  00053	5f		 pop	 edi
  00054	0f 45 c2	 cmovne	 eax, edx

; 345  : }

  00057	5e		 pop	 esi
  00058	5d		 pop	 ebp
  00059	c2 04 00	 ret	 4
$LN3@ComputeSha:

; 333  : 		return nMax-1;

  0005c	8b 45 08	 mov	 eax, DWORD PTR _nMax$[ebp]
  0005f	5f		 pop	 edi
  00060	48		 dec	 eax

; 345  : }

  00061	5e		 pop	 esi
  00062	5d		 pop	 ebp
  00063	c2 04 00	 ret	 4
?ComputeShade@CDate@@QAEHH@Z ENDP			; CDate::ComputeShade
_TEXT	ENDS
; Function compile flags: /Ogtp
; File C:\IAGOS\server\v18\Source\Source\_Common\timer.cpp
;	COMDAT ?GetDay@CDate@@QAEHXZ
_TEXT	SEGMENT
?GetDay@CDate@@QAEHXZ PROC				; CDate::GetDay, COMDAT
; _this$ = ecx

; 324  : 	int		nDay = (m_nYear * 365) + (m_nMonth * 30) + m_nDay;

  00000	8b 51 30	 mov	 edx, DWORD PTR [ecx+48]
  00003	56		 push	 esi
  00004	69 71 2c 6d 01
	00 00		 imul	 esi, DWORD PTR [ecx+44], 365
  0000b	c1 e2 04	 shl	 edx, 4
  0000e	2b 51 30	 sub	 edx, DWORD PTR [ecx+48]
  00011	8d 04 56	 lea	 eax, DWORD PTR [esi+edx*2]
  00014	03 41 34	 add	 eax, DWORD PTR [ecx+52]

; 325  : 
; 326  : 	return	nDay;

  00017	5e		 pop	 esi

; 327  : }

  00018	c3		 ret	 0
?GetDay@CDate@@QAEHXZ ENDP				; CDate::GetDay
_TEXT	ENDS
; Function compile flags: /Ogtp
; File C:\IAGOS\server\v18\Source\Source\_Common\timer.cpp
;	COMDAT ?IsNight@CDate@@QAEHXZ
_TEXT	SEGMENT
?IsNight@CDate@@QAEHXZ PROC				; CDate::IsNight, COMDAT
; _this$ = ecx

; 316  : 	if(m_nHour < 6 || m_nHour >= 19)

  00000	8b 41 38	 mov	 eax, DWORD PTR [ecx+56]
  00003	b9 0c 00 00 00	 mov	 ecx, 12			; 0000000cH
  00008	83 e8 06	 sub	 eax, 6
  0000b	3b c8		 cmp	 ecx, eax
  0000d	1b c0		 sbb	 eax, eax
  0000f	f7 d8		 neg	 eax

; 317  : 		return TRUE;
; 318  : 	return FALSE;
; 319  : }

  00011	c3		 ret	 0
?IsNight@CDate@@QAEHXZ ENDP				; CDate::IsNight
_TEXT	ENDS
; Function compile flags: /Ogtp
; File C:\IAGOS\server\v18\Source\Source\_Common\timer.cpp
;	COMDAT ??1CDate@@QAE@XZ
_TEXT	SEGMENT
??1CDate@@QAE@XZ PROC					; CDate::~CDate, COMDAT
; _this$ = ecx

; 313  : }

  00000	c7 01 00 00 00
	00		 mov	 DWORD PTR [ecx], OFFSET ??_7CTimer@@6B@
  00006	c3		 ret	 0
??1CDate@@QAE@XZ ENDP					; CDate::~CDate
_TEXT	ENDS
; Function compile flags: /Ogtp
; File C:\IAGOS\server\v18\Source\Source\_Common\timer.cpp
; File C:\IAGOS\server\v18\Source\Source\_Common\timer.h
; File C:\IAGOS\server\v18\Source\Source\_Common\timer.cpp
; File C:\IAGOS\server\v18\Source\Source\_Common\timer.h
; File C:\IAGOS\server\v18\Source\Source\_Common\timer.cpp
;	COMDAT ??0CDate@@QAE@HHHHHHH@Z
_TEXT	SEGMENT
_this$ = -4						; size = 4
_nYear$ = 8						; size = 4
_nMonth$ = 12						; size = 4
_nDay$ = 16						; size = 4
_nHour$ = 20						; size = 4
_nMinute$ = 24						; size = 4
_nSecond$ = 28						; size = 4
_nDelay$ = 32						; size = 4
??0CDate@@QAE@HHHHHHH@Z PROC				; CDate::CDate, COMDAT
; _this$ = ecx

; 301  : {

  00000	55		 push	 ebp
  00001	8b ec		 mov	 ebp, esp
  00003	51		 push	 ecx
  00004	56		 push	 esi
  00005	8b f1		 mov	 esi, ecx
  00007	89 75 fc	 mov	 DWORD PTR _this$[ebp], esi
; File C:\IAGOS\server\v18\Source\Source\_Common\timer.h

; 47   : 	CSkipTimer() : CTimer()		{}

  0000a	e8 00 00 00 00	 call	 ??0CTimer@@QAE@XZ	; CTimer::CTimer
; File C:\IAGOS\server\v18\Source\Source\_Common\timer.cpp

; 302  : 	m_nYear   = nYear  ;

  0000f	8b 45 08	 mov	 eax, DWORD PTR _nYear$[ebp]
; File C:\IAGOS\server\v18\Source\Source\_Common\timer.h

; 47   : 	CSkipTimer() : CTimer()		{}

  00012	c7 06 00 00 00
	00		 mov	 DWORD PTR [esi], OFFSET ??_7CSkipTimer@@6B@
; File C:\IAGOS\server\v18\Source\Source\_Common\timer.cpp

; 302  : 	m_nYear   = nYear  ;

  00018	89 46 2c	 mov	 DWORD PTR [esi+44], eax

; 303  : 	m_nMonth  = nMonth ;

  0001b	8b 45 0c	 mov	 eax, DWORD PTR _nMonth$[ebp]
  0001e	89 46 30	 mov	 DWORD PTR [esi+48], eax

; 304  : 	m_nDay    = nDay   ;

  00021	8b 45 10	 mov	 eax, DWORD PTR _nDay$[ebp]
  00024	89 46 34	 mov	 DWORD PTR [esi+52], eax

; 305  : 	m_nHour   = nHour  ;

  00027	8b 45 14	 mov	 eax, DWORD PTR _nHour$[ebp]
  0002a	89 46 38	 mov	 DWORD PTR [esi+56], eax

; 306  : 	m_nMinute = nMinute;

  0002d	8b 45 18	 mov	 eax, DWORD PTR _nMinute$[ebp]
  00030	89 46 3c	 mov	 DWORD PTR [esi+60], eax

; 307  : 	m_nSecond = nSecond;

  00033	8b 45 1c	 mov	 eax, DWORD PTR _nSecond$[ebp]
  00036	89 46 40	 mov	 DWORD PTR [esi+64], eax

; 308  : 	m_nDelay  = nDelay ;

  00039	8b 45 20	 mov	 eax, DWORD PTR _nDelay$[ebp]

; 309  : 	m_delay.Set((float)m_nDelay);

  0003c	51		 push	 ecx
  0003d	8b ce		 mov	 ecx, esi
  0003f	89 46 28	 mov	 DWORD PTR [esi+40], eax
  00042	66 0f 6e c0	 movd	 xmm0, eax
  00046	0f 5b c0	 cvtdq2ps xmm0, xmm0
  00049	f3 0f 11 04 24	 movss	 DWORD PTR [esp], xmm0
  0004e	e8 00 00 00 00	 call	 ?Set@CSkipTimer@@QAEXM@Z ; CSkipTimer::Set

; 310  : }

  00053	8b c6		 mov	 eax, esi
  00055	5e		 pop	 esi
  00056	8b e5		 mov	 esp, ebp
  00058	5d		 pop	 ebp
  00059	c2 1c 00	 ret	 28			; 0000001cH
??0CDate@@QAE@HHHHHHH@Z ENDP				; CDate::CDate
_TEXT	ENDS
; Function compile flags: /Ogtp
; File C:\IAGOS\server\v18\Source\Source\_Common\timer.cpp
; File C:\IAGOS\server\v18\Source\Source\_Common\timer.h
; File C:\IAGOS\server\v18\Source\Source\_Common\timer.cpp
;	COMDAT ??0CDate@@QAE@XZ
_TEXT	SEGMENT
_this$ = -4						; size = 4
??0CDate@@QAE@XZ PROC					; CDate::CDate, COMDAT
; _this$ = ecx

; 291  : {

  00000	55		 push	 ebp
  00001	8b ec		 mov	 ebp, esp
  00003	51		 push	 ecx
  00004	56		 push	 esi
  00005	8b f1		 mov	 esi, ecx
  00007	89 75 fc	 mov	 DWORD PTR _this$[ebp], esi
; File C:\IAGOS\server\v18\Source\Source\_Common\timer.h

; 47   : 	CSkipTimer() : CTimer()		{}

  0000a	e8 00 00 00 00	 call	 ??0CTimer@@QAE@XZ	; CTimer::CTimer
  0000f	c7 06 00 00 00
	00		 mov	 DWORD PTR [esi], OFFSET ??_7CSkipTimer@@6B@
; File C:\IAGOS\server\v18\Source\Source\_Common\timer.cpp

; 299  : }

  00015	8b c6		 mov	 eax, esi
  00017	c7 46 2c 01 00
	00 00		 mov	 DWORD PTR [esi+44], 1
  0001e	c7 46 30 01 00
	00 00		 mov	 DWORD PTR [esi+48], 1
  00025	c7 46 34 01 00
	00 00		 mov	 DWORD PTR [esi+52], 1
  0002c	c7 46 38 01 00
	00 00		 mov	 DWORD PTR [esi+56], 1
  00033	c7 46 3c 01 00
	00 00		 mov	 DWORD PTR [esi+60], 1
  0003a	c7 46 40 01 00
	00 00		 mov	 DWORD PTR [esi+64], 1
  00041	c7 46 28 01 00
	00 00		 mov	 DWORD PTR [esi+40], 1
  00048	5e		 pop	 esi
  00049	8b e5		 mov	 esp, ebp
  0004b	5d		 pop	 ebp
  0004c	c3		 ret	 0
??0CDate@@QAE@XZ ENDP					; CDate::CDate
_TEXT	ENDS
; Function compile flags: /Ogtp
; File C:\IAGOS\server\v18\Source\Source\_Common\timer.cpp
;	COMDAT ?Compute@CGameTimer@@QAEXXZ
_TEXT	SEGMENT
tv165 = -8						; size = 8
?Compute@CGameTimer@@QAEXXZ PROC			; CGameTimer::Compute, COMDAT
; _this$ = ecx

; 183  : {

  00000	55		 push	 ebp
  00001	8b ec		 mov	 ebp, esp
  00003	83 ec 08	 sub	 esp, 8
  00006	53		 push	 ebx
  00007	8b d9		 mov	 ebx, ecx

; 184  : 	if( m_bFixed )

  00009	83 7b 10 00	 cmp	 DWORD PTR [ebx+16], 0
  0000d	0f 85 a5 00 00
	00		 jne	 $LN1@Compute

; 185  : 		return;
; 186  : 	long lCurTime = (long)( GetCurrentTime() );

  00013	56		 push	 esi
  00014	57		 push	 edi
  00015	e8 00 00 00 00	 call	 ?GetTickCount@CGameTimer@@QAENXZ ; CGameTimer::GetTickCount
  0001a	dd 5d f8	 fstp	 QWORD PTR tv165[ebp]
  0001d	f2 0f 2c 4d f8	 cvttsd2si ecx, QWORD PTR tv165[ebp]

; 187  : 	int nSec, nMin, nHour, nDay;
; 188  : 	lCurTime /= TIMESPEED;

  00022	b8 67 66 66 66	 mov	 eax, 1717986919		; 66666667H
  00027	f7 e9		 imul	 ecx

; 189  : 
; 190  : 	nSec    = lCurTime / 60;

  00029	b8 89 88 88 88	 mov	 eax, -2004318071	; 88888889H
  0002e	c1 fa 02	 sar	 edx, 2
  00031	8b ca		 mov	 ecx, edx
  00033	c1 e9 1f	 shr	 ecx, 31			; 0000001fH
  00036	03 ca		 add	 ecx, edx
  00038	f7 e9		 imul	 ecx
  0003a	03 d1		 add	 edx, ecx
  0003c	c1 fa 05	 sar	 edx, 5
  0003f	8b fa		 mov	 edi, edx
  00041	c1 ef 1f	 shr	 edi, 31			; 0000001fH
  00044	03 fa		 add	 edi, edx

; 191  : 	m_nSec  = lCurTime % 60;

  00046	8b c7		 mov	 eax, edi
  00048	c1 e0 04	 shl	 eax, 4
  0004b	2b c7		 sub	 eax, edi
  0004d	c1 e0 02	 shl	 eax, 2
  00050	2b c8		 sub	 ecx, eax

; 192  : 	nMin    = nSec  / 60; // 60ĂĘ·Î łŞ´«´Ů.

  00052	b8 89 88 88 88	 mov	 eax, -2004318071	; 88888889H
  00057	f7 ef		 imul	 edi
  00059	89 4b 14	 mov	 DWORD PTR [ebx+20], ecx
  0005c	03 d7		 add	 edx, edi
  0005e	c1 fa 05	 sar	 edx, 5
  00061	8b f2		 mov	 esi, edx
  00063	c1 ee 1f	 shr	 esi, 31			; 0000001fH
  00066	03 f2		 add	 esi, edx

; 193  : 	m_nMin  = nSec  % 60; // 60ĂĘ·Î łŞ´«´Ů.

  00068	8b c6		 mov	 eax, esi
  0006a	c1 e0 04	 shl	 eax, 4
  0006d	2b c6		 sub	 eax, esi
  0006f	c1 e0 02	 shl	 eax, 2
  00072	2b f8		 sub	 edi, eax

; 194  : 	nHour   = nMin  / 24; // 24˝Ă°ŁŔ¸·Î łŞ´«´Ů.

  00074	b8 ab aa aa 2a	 mov	 eax, 715827883		; 2aaaaaabH
  00079	f7 ee		 imul	 esi
  0007b	89 7b 18	 mov	 DWORD PTR [ebx+24], edi

; 195  : 	m_nHour = nMin  % 24; // 24˝Ă°ŁŔ¸·Î łŞ´«´Ů.
; 196  : 	nDay    = nHour / 30; // 30ŔĎ·Î łŞ´«´Ů.
; 197  : 	m_nDay  = nHour % 30; // 30ŔĎ·ÎłŞ´«´Ů.

  0007e	b8 89 88 88 88	 mov	 eax, -2004318071	; 88888889H
  00083	c1 fa 02	 sar	 edx, 2
  00086	8b fa		 mov	 edi, edx
  00088	c1 ef 1f	 shr	 edi, 31			; 0000001fH
  0008b	03 fa		 add	 edi, edx
  0008d	f7 ef		 imul	 edi
  0008f	8d 0c 7f	 lea	 ecx, DWORD PTR [edi+edi*2]
  00092	c1 e1 03	 shl	 ecx, 3
  00095	03 d7		 add	 edx, edi
  00097	2b f1		 sub	 esi, ecx
  00099	c1 fa 04	 sar	 edx, 4
  0009c	8b ca		 mov	 ecx, edx

; 198  : 	
; 199  : 	m_nHour++; // 1 based

  0009e	46		 inc	 esi
  0009f	c1 e9 1f	 shr	 ecx, 31			; 0000001fH
  000a2	03 ca		 add	 ecx, edx
  000a4	89 73 1c	 mov	 DWORD PTR [ebx+28], esi
  000a7	8b c1		 mov	 eax, ecx
  000a9	c1 e0 04	 shl	 eax, 4
  000ac	2b c1		 sub	 eax, ecx
  000ae	03 c0		 add	 eax, eax
  000b0	2b f8		 sub	 edi, eax

; 200  : 	m_nDay++; // 1 based

  000b2	47		 inc	 edi
  000b3	89 7b 20	 mov	 DWORD PTR [ebx+32], edi
  000b6	5f		 pop	 edi
  000b7	5e		 pop	 esi
$LN1@Compute:
  000b8	5b		 pop	 ebx

; 201  : 	//m_nHour = 19;
; 202  : 	
; 203  : #ifdef __XUZHU
; 204  : //#ifdef _DEBUG
; 205  : //	m_nHour = 7;		// ľđÁ¦łŞ ł·ŔĚ µÇµµ·Ď
; 206  : //#endif
; 207  : #endif	
; 208  : }

  000b9	8b e5		 mov	 esp, ebp
  000bb	5d		 pop	 ebp
  000bc	c3		 ret	 0
?Compute@CGameTimer@@QAEXXZ ENDP			; CGameTimer::Compute
_TEXT	ENDS
; Function compile flags: /Ogtp
; File C:\IAGOS\server\v18\Source\Source\_Common\timer.cpp
;	COMDAT ?GetMoonPercent@CGameTimer@@QAEHXZ
_TEXT	SEGMENT
?GetMoonPercent@CGameTimer@@QAEHXZ PROC			; CGameTimer::GetMoonPercent, COMDAT
; _this$ = ecx

; 114  : 	int nResult = 100 - GetSunPercent();

  00000	e8 00 00 00 00	 call	 ?GetSunPercent@CGameTimer@@QAEHXZ ; CGameTimer::GetSunPercent
  00005	b9 64 00 00 00	 mov	 ecx, 100		; 00000064H
  0000a	2b c8		 sub	 ecx, eax

; 115  : 	/*
; 116  : 	int nMin, nHour, nResult = 100;
; 117  : 	if( m_nHour >= HOUR_MOONSET && m_nHour < HOUR_MOONRISE - SETRISE_VARIABLE ) // / 18 < 20
; 118  : 	{
; 119  : 		nHour = m_nHour - HOUR_MOONSET;
; 120  : 		nMin = nHour * 60 + m_nMin; // 60 * 2 : nMin = 100 : x
; 121  : 		nResult = 100 - ( nMin * 100 / ( 60 * SETRISE_VARIABLE ) );
; 122  : 	}
; 123  : 	else
; 124  : 	if( m_nHour >= HOUR_MOONRISE  )
; 125  : 	{
; 126  : 		nHour = m_nHour - HOUR_MOONRISE; 
; 127  : 		nMin = nHour * 60 + m_nMin; // 60 * 2 : nMin = 100 : x
; 128  : 		nResult = ( nMin * 100 / ( 60 * SETRISE_VARIABLE ) );
; 129  : 	}
; 130  : 	if( nResult < 0 ) nResult = 0;
; 131  : 	if( nResult > 100 ) nResult = 100;
; 132  : 	*/
; 133  : //	if( nResult > 0 && nResult < 100 )
; 134  : //	;//	TRACE( "Moon %d \n", nResult );
; 135  : 	return nResult;

  0000c	8b c1		 mov	 eax, ecx

; 136  : }

  0000e	c3		 ret	 0
?GetMoonPercent@CGameTimer@@QAEHXZ ENDP			; CGameTimer::GetMoonPercent
_TEXT	ENDS
; Function compile flags: /Ogtp
; File C:\IAGOS\server\v18\Source\Source\_Common\timer.cpp
;	COMDAT ?GetSunPercent@CGameTimer@@QAEHXZ
_TEXT	SEGMENT
?GetSunPercent@CGameTimer@@QAEHXZ PROC			; CGameTimer::GetSunPercent, COMDAT
; _this$ = ecx

; 88   : {

  00000	56		 push	 esi
  00001	57		 push	 edi
  00002	8b f9		 mov	 edi, ecx

; 89   : 	int nMin, nHour, nResult = 0;

  00004	33 f6		 xor	 esi, esi

; 90   : 	if( m_nHour >= HOUR_SUNRISE && m_nHour < HOUR_SUNSET )

  00006	8b 57 1c	 mov	 edx, DWORD PTR [edi+28]
  00009	8d 42 fa	 lea	 eax, DWORD PTR [edx-6]
  0000c	83 f8 0b	 cmp	 eax, 11			; 0000000bH
  0000f	77 26		 ja	 SHORT $LN2@GetSunPerc

; 91   : 	{
; 92   : 		nHour = m_nHour - HOUR_SUNRISE;
; 93   : 		nMin = nHour * 60 + m_nMin;	// 60 * 2 : nMin = 100 : x
; 94   : 		nResult = nMin * 100 / ( 60 * SETRISE_VARIABLE );

  00011	8d 42 fa	 lea	 eax, DWORD PTR [edx-6]
  00014	8b c8		 mov	 ecx, eax
  00016	c1 e1 04	 shl	 ecx, 4
  00019	2b c8		 sub	 ecx, eax
  0001b	8b 47 18	 mov	 eax, DWORD PTR [edi+24]
  0001e	8d 04 88	 lea	 eax, DWORD PTR [eax+ecx*4]
  00021	6b c8 64	 imul	 ecx, eax, 100
  00024	b8 89 88 88 88	 mov	 eax, -2004318071	; 88888889H
  00029	f7 e9		 imul	 ecx
  0002b	03 d1		 add	 edx, ecx
  0002d	c1 fa 06	 sar	 edx, 6
  00030	8b f2		 mov	 esi, edx
  00032	c1 ee 1f	 shr	 esi, 31			; 0000001fH

; 95   : 	}

  00035	eb 30		 jmp	 SHORT $LN10@GetSunPerc
$LN2@GetSunPerc:

; 96   : 	else
; 97   : 	if( m_nHour >= HOUR_SUNSET )

  00037	83 fa 12	 cmp	 edx, 18			; 00000012H
  0003a	7c 2d		 jl	 SHORT $LN4@GetSunPerc

; 98   : 	{
; 99   : 		nHour = m_nHour - HOUR_SUNSET; 
; 100  : 		nMin =  nHour * 60 + m_nMin;	// 60 * 2 : nMin = 100 : x
; 101  : 		nResult = 100 - ( nMin * 100 / ( 60 * SETRISE_VARIABLE ) );

  0003c	b8 12 00 00 00	 mov	 eax, 18			; 00000012H
  00041	2b c2		 sub	 eax, edx
  00043	8b c8		 mov	 ecx, eax
  00045	c1 e1 04	 shl	 ecx, 4
  00048	2b c8		 sub	 ecx, eax
  0004a	b8 89 88 88 88	 mov	 eax, -2004318071	; 88888889H
  0004f	c1 e1 02	 shl	 ecx, 2
  00052	2b 4f 18	 sub	 ecx, DWORD PTR [edi+24]
  00055	6b c9 64	 imul	 ecx, ecx, 100
  00058	f7 e9		 imul	 ecx
  0005a	03 d1		 add	 edx, ecx
  0005c	c1 fa 06	 sar	 edx, 6
  0005f	8b f2		 mov	 esi, edx
  00061	c1 ee 1f	 shr	 esi, 31			; 0000001fH
  00064	83 c6 64	 add	 esi, 100		; 00000064H
$LN10@GetSunPerc:

; 102  : 	}
; 103  : 	if( nResult < 0 ) nResult = 0;
; 104  : 	if( nResult > 100 ) nResult = 100;

  00067	03 f2		 add	 esi, edx
$LN4@GetSunPerc:
  00069	33 c0		 xor	 eax, eax
  0006b	b9 64 00 00 00	 mov	 ecx, 100		; 00000064H
  00070	85 f6		 test	 esi, esi

; 105  : //	if( nResult > 0 && nResult < 100 )
; 106  : //	;//TRACE( "sun %d \n", nResult );
; 107  : 	return nResult;

  00072	5f		 pop	 edi
  00073	0f 49 c6	 cmovns	 eax, esi
  00076	3b c1		 cmp	 eax, ecx
  00078	5e		 pop	 esi
  00079	0f 4f c1	 cmovg	 eax, ecx

; 108  : }

  0007c	c3		 ret	 0
?GetSunPercent@CGameTimer@@QAEHXZ ENDP			; CGameTimer::GetSunPercent
_TEXT	ENDS
; Function compile flags: /Ogtp
; File C:\IAGOS\server\v18\Source\Source\_Common\timer.cpp
;	COMDAT ?SetTime@CGameTimer@@QAEXHHHH@Z
_TEXT	SEGMENT
_nDay$ = 8						; size = 4
_nHour$ = 12						; size = 4
_nMin$ = 16						; size = 4
_nSec$ = 20						; size = 4
?SetTime@CGameTimer@@QAEXHHHH@Z PROC			; CGameTimer::SetTime, COMDAT
; _this$ = ecx

; 210  : {

  00000	55		 push	 ebp
  00001	8b ec		 mov	 ebp, esp

; 211  : 	m_nDay = nDay;

  00003	8b 45 08	 mov	 eax, DWORD PTR _nDay$[ebp]
  00006	89 41 20	 mov	 DWORD PTR [ecx+32], eax

; 212  : 	m_nHour = nHour;

  00009	8b 45 0c	 mov	 eax, DWORD PTR _nHour$[ebp]
  0000c	89 41 1c	 mov	 DWORD PTR [ecx+28], eax

; 213  : 	m_nMin = nMin;

  0000f	8b 45 10	 mov	 eax, DWORD PTR _nMin$[ebp]
  00012	89 41 18	 mov	 DWORD PTR [ecx+24], eax

; 214  : 	m_nSec = nSec;

  00015	8b 45 14	 mov	 eax, DWORD PTR _nSec$[ebp]
  00018	89 41 14	 mov	 DWORD PTR [ecx+20], eax

; 215  : }

  0001b	5d		 pop	 ebp
  0001c	c2 10 00	 ret	 16			; 00000010H
?SetTime@CGameTimer@@QAEXHHHH@Z ENDP			; CGameTimer::SetTime
_TEXT	ENDS
; Function compile flags: /Ogtp
; File C:\IAGOS\server\v18\Source\Source\_Common\timer.cpp
;	COMDAT ?GetTickCount@CGameTimer@@QAENXZ
_TEXT	SEGMENT
tv129 = -8						; size = 8
?GetTickCount@CGameTimer@@QAENXZ PROC			; CGameTimer::GetTickCount, COMDAT
; _this$ = ecx

; 173  : { 

  00000	55		 push	 ebp
  00001	8b ec		 mov	 ebp, esp
  00003	83 ec 08	 sub	 esp, 8
  00006	56		 push	 esi
  00007	8b f1		 mov	 esi, ecx

; 174  : 	double dTime = (double)timeGetTime();

  00009	ff 15 00 00 00
	00		 call	 DWORD PTR __imp__timeGetTime@0
  0000f	66 0f 6e c0	 movd	 xmm0, eax
  00013	f3 0f e6 c0	 cvtdq2pd xmm0, xmm0
  00017	c1 e8 1f	 shr	 eax, 31			; 0000001fH
  0001a	f2 0f 58 04 c5
	00 00 00 00	 addsd	 xmm0, QWORD PTR __xmm@41f00000000000000000000000000000[eax*8]

; 175  : 	return dTime - m_dBeginTime + m_dCurrentTime;

  00023	f2 0f 5c 46 08	 subsd	 xmm0, QWORD PTR [esi+8]
  00028	f2 0f 58 06	 addsd	 xmm0, QWORD PTR [esi]
  0002c	5e		 pop	 esi
  0002d	f2 0f 11 45 f8	 movsd	 QWORD PTR tv129[ebp], xmm0
  00032	dd 45 f8	 fld	 QWORD PTR tv129[ebp]

; 176  : }

  00035	8b e5		 mov	 esp, ebp
  00037	5d		 pop	 ebp
  00038	c3		 ret	 0
?GetTickCount@CGameTimer@@QAENXZ ENDP			; CGameTimer::GetTickCount
_TEXT	ENDS
; Function compile flags: /Ogtp
; File C:\IAGOS\server\v18\Source\Source\_Common\timer.cpp
;	COMDAT ?SetCurrentTime@CGameTimer@@QAEXN@Z
_TEXT	SEGMENT
_dCurrentime$ = 8					; size = 8
?SetCurrentTime@CGameTimer@@QAEXN@Z PROC		; CGameTimer::SetCurrentTime, COMDAT
; _this$ = ecx

; 168  : { 

  00000	55		 push	 ebp
  00001	8b ec		 mov	 ebp, esp

; 169  : 	m_dCurrentTime = dCurrentime; 

  00003	f2 0f 10 45 08	 movsd	 xmm0, QWORD PTR _dCurrentime$[ebp]
  00008	56		 push	 esi
  00009	8b f1		 mov	 esi, ecx
  0000b	f2 0f 11 06	 movsd	 QWORD PTR [esi], xmm0

; 170  :     m_dBeginTime = (double)timeGetTime();

  0000f	ff 15 00 00 00
	00		 call	 DWORD PTR __imp__timeGetTime@0
  00015	66 0f 6e c0	 movd	 xmm0, eax
  00019	f3 0f e6 c0	 cvtdq2pd xmm0, xmm0
  0001d	c1 e8 1f	 shr	 eax, 31			; 0000001fH
  00020	f2 0f 58 04 c5
	00 00 00 00	 addsd	 xmm0, QWORD PTR __xmm@41f00000000000000000000000000000[eax*8]
  00029	f2 0f 11 46 08	 movsd	 QWORD PTR [esi+8], xmm0
  0002e	5e		 pop	 esi

; 171  : }

  0002f	5d		 pop	 ebp
  00030	c2 08 00	 ret	 8
?SetCurrentTime@CGameTimer@@QAEXN@Z ENDP		; CGameTimer::SetCurrentTime
_TEXT	ENDS
; Function compile flags: /Ogtp
; File C:\IAGOS\server\v18\Source\Source\_Common\timer.cpp
;	COMDAT ?SetCurrentTime@CGameTimer@@QAEXHH@Z
_TEXT	SEGMENT
_nDay$ = 8						; size = 4
_nHour$ = 12						; size = 4
?SetCurrentTime@CGameTimer@@QAEXHH@Z PROC		; CGameTimer::SetCurrentTime, COMDAT
; _this$ = ecx

; 178  : {

  00000	55		 push	 ebp
  00001	8b ec		 mov	 ebp, esp

; 179  : 	int nSec = ( ( nDay * 24 ) + nHour ) * 60 * 60;

  00003	8b 45 08	 mov	 eax, DWORD PTR _nDay$[ebp]

; 180  : 	SetCurrentTime( nSec * TIMESPEED );

  00006	83 ec 08	 sub	 esp, 8
  00009	8d 14 40	 lea	 edx, DWORD PTR [eax+eax*2]
  0000c	8b 45 0c	 mov	 eax, DWORD PTR _nHour$[ebp]
  0000f	8d 04 d0	 lea	 eax, DWORD PTR [eax+edx*8]
  00012	69 c0 a0 8c 00
	00		 imul	 eax, eax, 36000
  00018	66 0f 6e c0	 movd	 xmm0, eax
  0001c	f3 0f e6 c0	 cvtdq2pd xmm0, xmm0
  00020	f2 0f 11 04 24	 movsd	 QWORD PTR [esp], xmm0
  00025	e8 00 00 00 00	 call	 ?SetCurrentTime@CGameTimer@@QAEXN@Z ; CGameTimer::SetCurrentTime

; 181  : }

  0002a	5d		 pop	 ebp
  0002b	c2 08 00	 ret	 8
?SetCurrentTime@CGameTimer@@QAEXHH@Z ENDP		; CGameTimer::SetCurrentTime
_TEXT	ENDS
; Function compile flags: /Ogtp
; File C:\IAGOS\server\v18\Source\Source\_Common\timer.cpp
;	COMDAT ??1CGameTimer@@QAE@XZ
_TEXT	SEGMENT
??1CGameTimer@@QAE@XZ PROC				; CGameTimer::~CGameTimer, COMDAT
; _this$ = ecx

; 166  : }

  00000	c2 00 00	 ret	 0
??1CGameTimer@@QAE@XZ ENDP				; CGameTimer::~CGameTimer
_TEXT	ENDS
; Function compile flags: /Ogtp
; File C:\IAGOS\server\v18\Source\Source\_Common\timer.cpp
;	COMDAT ??0CGameTimer@@QAE@N@Z
_TEXT	SEGMENT
_dCurrentime$ = 8					; size = 8
??0CGameTimer@@QAE@N@Z PROC				; CGameTimer::CGameTimer, COMDAT
; _this$ = ecx

; 154  : {

  00000	55		 push	 ebp
  00001	8b ec		 mov	 ebp, esp
  00003	56		 push	 esi
  00004	8b f1		 mov	 esi, ecx
  00006	0f 57 c0	 xorps	 xmm0, xmm0

; 155  : 	m_nSec = 0;
; 156  : 	m_nMin = 0;
; 157  : 	m_nHour = 0;
; 158  : 	m_nDay = 0;
; 159  : 	m_dBeginTime = 0;
; 160  : 	m_dCurrentTime = 0;
; 161  : 	SetCurrentTime( dCurrentime );

  00009	83 ec 08	 sub	 esp, 8
  0000c	0f 11 06	 movups	 XMMWORD PTR [esi], xmm0
  0000f	c7 46 14 00 00
	00 00		 mov	 DWORD PTR [esi+20], 0
  00016	f2 0f 10 45 08	 movsd	 xmm0, QWORD PTR _dCurrentime$[ebp]
  0001b	c7 46 18 00 00
	00 00		 mov	 DWORD PTR [esi+24], 0
  00022	c7 46 1c 00 00
	00 00		 mov	 DWORD PTR [esi+28], 0
  00029	c7 46 20 00 00
	00 00		 mov	 DWORD PTR [esi+32], 0
  00030	f2 0f 11 04 24	 movsd	 QWORD PTR [esp], xmm0
  00035	e8 00 00 00 00	 call	 ?SetCurrentTime@CGameTimer@@QAEXN@Z ; CGameTimer::SetCurrentTime

; 162  : 	m_bFixed = FALSE;

  0003a	c7 46 10 00 00
	00 00		 mov	 DWORD PTR [esi+16], 0

; 163  : }

  00041	8b c6		 mov	 eax, esi
  00043	5e		 pop	 esi
  00044	5d		 pop	 ebp
  00045	c2 08 00	 ret	 8
??0CGameTimer@@QAE@N@Z ENDP				; CGameTimer::CGameTimer
_TEXT	ENDS
; Function compile flags: /Ogtp
; File C:\IAGOS\server\v18\Source\Source\_Common\timer.cpp
;	COMDAT ??0CGameTimer@@QAE@XZ
_TEXT	SEGMENT
??0CGameTimer@@QAE@XZ PROC				; CGameTimer::CGameTimer, COMDAT
; _this$ = ecx

; 143  : {

  00000	56		 push	 esi
  00001	8b f1		 mov	 esi, ecx
  00003	0f 57 c0	 xorps	 xmm0, xmm0

; 144  : 	m_nSec = 0;
; 145  : 	m_nMin = 0;
; 146  : 	m_nHour = 0;
; 147  : 	m_nDay = 0;
; 148  : 	m_dBeginTime = 0;
; 149  : 	m_dCurrentTime = 0;
; 150  : 	SetCurrentTime( 3, 15 );

  00006	6a 0f		 push	 15			; 0000000fH
  00008	6a 03		 push	 3
  0000a	c7 46 14 00 00
	00 00		 mov	 DWORD PTR [esi+20], 0
  00011	c7 46 18 00 00
	00 00		 mov	 DWORD PTR [esi+24], 0
  00018	c7 46 1c 00 00
	00 00		 mov	 DWORD PTR [esi+28], 0
  0001f	c7 46 20 00 00
	00 00		 mov	 DWORD PTR [esi+32], 0
  00026	0f 11 06	 movups	 XMMWORD PTR [esi], xmm0
  00029	e8 00 00 00 00	 call	 ?SetCurrentTime@CGameTimer@@QAEXHH@Z ; CGameTimer::SetCurrentTime

; 151  : 	m_bFixed = FALSE;

  0002e	c7 46 10 00 00
	00 00		 mov	 DWORD PTR [esi+16], 0

; 152  : }

  00035	8b c6		 mov	 eax, esi
  00037	5e		 pop	 esi
  00038	c3		 ret	 0
??0CGameTimer@@QAE@XZ ENDP				; CGameTimer::CGameTimer
_TEXT	ENDS
; Function compile flags: /Ogtp
;	COMDAT ??_GCSkipTimer@@UAEPAXI@Z
_TEXT	SEGMENT
___flags$ = 8						; size = 4
??_GCSkipTimer@@UAEPAXI@Z PROC				; CSkipTimer::`scalar deleting destructor', COMDAT
; _this$ = ecx
  00000	55		 push	 ebp
  00001	8b ec		 mov	 ebp, esp
  00003	f6 45 08 01	 test	 BYTE PTR ___flags$[ebp], 1
  00007	56		 push	 esi
  00008	8b f1		 mov	 esi, ecx
  0000a	c7 06 00 00 00
	00		 mov	 DWORD PTR [esi], OFFSET ??_7CTimer@@6B@
  00010	74 0b		 je	 SHORT $LN5@scalar
  00012	6a 28		 push	 40			; 00000028H
  00014	56		 push	 esi
  00015	e8 00 00 00 00	 call	 ??3@YAXPAXI@Z		; operator delete
  0001a	83 c4 08	 add	 esp, 8
$LN5@scalar:
  0001d	8b c6		 mov	 eax, esi
  0001f	5e		 pop	 esi
  00020	5d		 pop	 ebp
  00021	c2 04 00	 ret	 4
??_GCSkipTimer@@UAEPAXI@Z ENDP				; CSkipTimer::`scalar deleting destructor'
_TEXT	ENDS
; Function compile flags: /Ogtp
; File C:\IAGOS\server\v18\Source\Source\_Common\timer.cpp
;	COMDAT ?Skip@CSkipTimer@@QAEXXZ
_TEXT	SEGMENT
?Skip@CSkipTimer@@QAEXXZ PROC				; CSkipTimer::Skip, COMDAT
; _this$ = ecx

; 253  : {

  00000	f3 0f 10 41 18	 movss	 xmm0, DWORD PTR [ecx+24]

; 254  : 	m_curTime	+= m_fInterval;

  00005	0f 5a c0	 cvtps2pd xmm0, xmm0
  00008	f2 0f 58 41 08	 addsd	 xmm0, QWORD PTR [ecx+8]
  0000d	f2 0f 11 41 08	 movsd	 QWORD PTR [ecx+8], xmm0

; 255  : }

  00012	c3		 ret	 0
?Skip@CSkipTimer@@QAEXXZ ENDP				; CSkipTimer::Skip
_TEXT	ENDS
; Function compile flags: /Ogtp
; File C:\IAGOS\server\v18\Source\Source\_Common\timer.cpp
;	COMDAT ?IsMaxSkip@CSkipTimer@@QAEHXZ
_TEXT	SEGMENT
_time$ = -8						; size = 8
?IsMaxSkip@CSkipTimer@@QAEHXZ PROC			; CSkipTimer::IsMaxSkip, COMDAT
; _this$ = ecx

; 258  : {

  00000	55		 push	 ebp
  00001	8b ec		 mov	 ebp, esp
  00003	83 ec 08	 sub	 esp, 8
  00006	56		 push	 esi
  00007	8b f1		 mov	 esi, ecx

; 259  : 	double time = GetTime();

  00009	e8 00 00 00 00	 call	 ?GetTime@CTimer@@QAENXZ	; CTimer::GetTime

; 260  : 
; 261  : 	time	= ( time - m_curTime ) / m_fInterval;
; 262  : 	
; 263  : 	if( m_bMaxSkip == 0 )

  0000e	8b 4e 20	 mov	 ecx, DWORD PTR [esi+32]
  00011	dd 5d f8	 fstp	 QWORD PTR _time$[ebp]
  00014	85 c9		 test	 ecx, ecx
  00016	75 31		 jne	 SHORT $LN2@IsMaxSkip

; 270  : 	}
; 271  : 
; 272  : 	if( m_bMaxSkip == 0 )

  00018	f3 0f 10 46 18	 movss	 xmm0, DWORD PTR [esi+24]
  0001d	33 c0		 xor	 eax, eax
  0001f	f2 0f 10 4d f8	 movsd	 xmm1, QWORD PTR _time$[ebp]
  00024	f2 0f 5c 4e 08	 subsd	 xmm1, QWORD PTR [esi+8]
  00029	0f 5a c0	 cvtps2pd xmm0, xmm0
  0002c	f2 0f 5e c8	 divsd	 xmm1, xmm0
  00030	f2 0f 5e 0d 00
	00 00 00	 divsd	 xmm1, QWORD PTR __real@4018000000000000
  00038	f2 0f 2c c9	 cvttsd2si ecx, xmm1
  0003c	85 c9		 test	 ecx, ecx
  0003e	89 4e 20	 mov	 DWORD PTR [esi+32], ecx

; 273  : 		return TRUE;

  00041	5e		 pop	 esi
  00042	0f 94 c0	 sete	 al

; 274  : 
; 275  : 	return FALSE;
; 276  : }

  00045	8b e5		 mov	 esp, ebp
  00047	5d		 pop	 ebp
  00048	c3		 ret	 0
$LN2@IsMaxSkip:

; 264  : 	{
; 265  : 		m_bMaxSkip = (int)( time / SKIPPING_PARAM );
; 266  : 	}
; 267  : 	else
; 268  : 	{
; 269  : 		m_bMaxSkip --;

  00049	49		 dec	 ecx

; 270  : 	}
; 271  : 
; 272  : 	if( m_bMaxSkip == 0 )

  0004a	33 c0		 xor	 eax, eax
  0004c	85 c9		 test	 ecx, ecx
  0004e	89 4e 20	 mov	 DWORD PTR [esi+32], ecx

; 273  : 		return TRUE;

  00051	5e		 pop	 esi
  00052	0f 94 c0	 sete	 al

; 274  : 
; 275  : 	return FALSE;
; 276  : }

  00055	8b e5		 mov	 esp, ebp
  00057	5d		 pop	 ebp
  00058	c3		 ret	 0
?IsMaxSkip@CSkipTimer@@QAEHXZ ENDP			; CSkipTimer::IsMaxSkip
_TEXT	ENDS
; Function compile flags: /Ogtp
; File C:\IAGOS\server\v18\Source\Source\_Common\timer.cpp
;	COMDAT ?IsNeedSkip@CSkipTimer@@QAEHXZ
_TEXT	SEGMENT
tv69 = -8						; size = 8
?IsNeedSkip@CSkipTimer@@QAEHXZ PROC			; CSkipTimer::IsNeedSkip, COMDAT
; _this$ = ecx

; 246  : {

  00000	55		 push	 ebp
  00001	8b ec		 mov	 ebp, esp
  00003	83 ec 08	 sub	 esp, 8
  00006	56		 push	 esi
  00007	8b f1		 mov	 esi, ecx

; 247  : 	if (GetTime() > m_curTime+m_fInterval)

  00009	e8 00 00 00 00	 call	 ?GetTime@CTimer@@QAENXZ	; CTimer::GetTime
  0000e	f3 0f 10 4e 18	 movss	 xmm1, DWORD PTR [esi+24]
  00013	33 c0		 xor	 eax, eax
  00015	0f 5a c9	 cvtps2pd xmm1, xmm1
  00018	dd 5d f8	 fstp	 QWORD PTR tv69[ebp]
  0001b	f2 0f 58 4e 08	 addsd	 xmm1, QWORD PTR [esi+8]
  00020	f2 0f 10 45 f8	 movsd	 xmm0, QWORD PTR tv69[ebp]

; 248  : 		return TRUE;

  00025	5e		 pop	 esi
  00026	66 0f 2f c1	 comisd	 xmm0, xmm1
  0002a	0f 97 c0	 seta	 al

; 249  : 	return FALSE;
; 250  : }

  0002d	8b e5		 mov	 esp, ebp
  0002f	5d		 pop	 ebp
  00030	c3		 ret	 0
?IsNeedSkip@CSkipTimer@@QAEHXZ ENDP			; CSkipTimer::IsNeedSkip
_TEXT	ENDS
; Function compile flags: /Ogtp
; File C:\IAGOS\server\v18\Source\Source\_Common\timer.cpp
;	COMDAT ?Over@CSkipTimer@@UAEHXZ
_TEXT	SEGMENT
tv213 = -8						; size = 8
?Over@CSkipTimer@@UAEHXZ PROC				; CSkipTimer::Over, COMDAT
; _this$ = ecx

; 224  : {

  00000	55		 push	 ebp
  00001	8b ec		 mov	 ebp, esp
  00003	83 ec 08	 sub	 esp, 8
  00006	56		 push	 esi
  00007	8b f1		 mov	 esi, ecx

; 225  : 	if( m_fInterval == 0.0f )

  00009	f3 0f 10 46 18	 movss	 xmm0, DWORD PTR [esi+24]
  0000e	0f 2e 05 00 00
	00 00		 ucomiss xmm0, DWORD PTR __real@00000000
  00015	9f		 lahf
  00016	f6 c4 44	 test	 ah, 68			; 00000044H
  00019	7b 5c		 jnp	 SHORT $LN4@Over

; 226  : 		return FALSE;
; 227  : 
; 228  : 	DWORD dwCurr = (DWORD)GetTime();

  0001b	e8 00 00 00 00	 call	 ?GetTime@CTimer@@QAENXZ	; CTimer::GetTime
  00020	dd 5d f8	 fstp	 QWORD PTR tv213[ebp]
  00023	f2 0f 10 45 f8	 movsd	 xmm0, QWORD PTR tv213[ebp]
  00028	e8 00 00 00 00	 call	 __dtol3
  0002d	f3 0f 10 4e 18	 movss	 xmm1, DWORD PTR [esi+24]
  00032	8b c8		 mov	 ecx, eax

; 229  : 
; 230  : 	if( dwCurr > ( m_curTime + m_fInterval ) )	

  00034	0f 5a c9	 cvtps2pd xmm1, xmm1
  00037	c1 e8 1f	 shr	 eax, 31			; 0000001fH
  0003a	66 0f 6e c1	 movd	 xmm0, ecx
  0003e	f2 0f 58 4e 08	 addsd	 xmm1, QWORD PTR [esi+8]
  00043	f3 0f e6 c0	 cvtdq2pd xmm0, xmm0
  00047	f2 0f 58 04 c5
	00 00 00 00	 addsd	 xmm0, QWORD PTR __xmm@41f00000000000000000000000000000[eax*8]
  00050	66 0f 2f c1	 comisd	 xmm0, xmm1
  00054	76 0f		 jbe	 SHORT $LN3@Over
$LN11@Over:

; 243  : }

  00056	f2 0f 11 4e 08	 movsd	 QWORD PTR [esi+8], xmm1
  0005b	b8 01 00 00 00	 mov	 eax, 1
  00060	5e		 pop	 esi
  00061	8b e5		 mov	 esp, ebp
  00063	5d		 pop	 ebp
  00064	c3		 ret	 0
$LN3@Over:

; 231  : 	{
; 232  : 		m_curTime	+= m_fInterval;
; 233  : 		return TRUE;
; 234  : 	}
; 235  : 
; 236  : 	if( dwCurr < 536870911 && ( m_curTime + m_fInterval ) > 3758096381 )

  00065	81 f9 ff ff ff
	1f		 cmp	 ecx, 536870911		; 1fffffffH
  0006b	73 0a		 jae	 SHORT $LN4@Over
  0006d	66 0f 2f 0d 00
	00 00 00	 comisd	 xmm1, QWORD PTR __real@41ebffffffa00000
  00075	77 df		 ja	 SHORT $LN11@Over
$LN4@Over:

; 237  : 	{
; 238  : 		m_curTime += m_fInterval;
; 239  : 		return TRUE;
; 240  : 	}
; 241  : 
; 242  : 	return FALSE;

  00077	33 c0		 xor	 eax, eax
  00079	5e		 pop	 esi

; 243  : }

  0007a	8b e5		 mov	 esp, ebp
  0007c	5d		 pop	 ebp
  0007d	c3		 ret	 0
?Over@CSkipTimer@@UAEHXZ ENDP				; CSkipTimer::Over
_TEXT	ENDS
; Function compile flags: /Ogtp
; File C:\IAGOS\server\v18\Source\Source\_Common\timer.cpp
;	COMDAT ?Set@CSkipTimer@@QAEXM@Z
_TEXT	SEGMENT
_fInterval$ = 8						; size = 4
?Set@CSkipTimer@@QAEXM@Z PROC				; CSkipTimer::Set, COMDAT
; _this$ = ecx

; 218  : {

  00000	55		 push	 ebp
  00001	8b ec		 mov	 ebp, esp
  00003	56		 push	 esi
  00004	8b f1		 mov	 esi, ecx

; 219  : 	m_curTime	= GetTime();

  00006	e8 00 00 00 00	 call	 ?GetTime@CTimer@@QAENXZ	; CTimer::GetTime

; 220  : 	m_fInterval		= fInterval;

  0000b	f3 0f 10 45 08	 movss	 xmm0, DWORD PTR _fInterval$[ebp]
  00010	dd 5e 08	 fstp	 QWORD PTR [esi+8]
  00013	f3 0f 11 46 18	 movss	 DWORD PTR [esi+24], xmm0

; 221  : 	m_bMaxSkip	= 0;

  00018	c7 46 20 00 00
	00 00		 mov	 DWORD PTR [esi+32], 0
  0001f	5e		 pop	 esi

; 222  : }

  00020	5d		 pop	 ebp
  00021	c2 04 00	 ret	 4
?Set@CSkipTimer@@QAEXM@Z ENDP				; CSkipTimer::Set
_TEXT	ENDS
; Function compile flags: /Ogtp
; File C:\IAGOS\server\v18\Source\Source\_Common\timer.h
;	COMDAT ??1CSkipTimer@@UAE@XZ
_TEXT	SEGMENT
??1CSkipTimer@@UAE@XZ PROC				; CSkipTimer::~CSkipTimer, COMDAT
; _this$ = ecx

; 49   : 	virtual	~CSkipTimer()	{}

  00000	c7 01 00 00 00
	00		 mov	 DWORD PTR [ecx], OFFSET ??_7CTimer@@6B@
  00006	c3		 ret	 0
??1CSkipTimer@@UAE@XZ ENDP				; CSkipTimer::~CSkipTimer
_TEXT	ENDS
; Function compile flags: /Ogtp
;	COMDAT ??_GCTimer@@UAEPAXI@Z
_TEXT	SEGMENT
___flags$ = 8						; size = 4
??_GCTimer@@UAEPAXI@Z PROC				; CTimer::`scalar deleting destructor', COMDAT
; _this$ = ecx
  00000	55		 push	 ebp
  00001	8b ec		 mov	 ebp, esp
  00003	f6 45 08 01	 test	 BYTE PTR ___flags$[ebp], 1
  00007	56		 push	 esi
  00008	8b f1		 mov	 esi, ecx
  0000a	c7 06 00 00 00
	00		 mov	 DWORD PTR [esi], OFFSET ??_7CTimer@@6B@
  00010	74 0b		 je	 SHORT $LN5@scalar
  00012	6a 20		 push	 32			; 00000020H
  00014	56		 push	 esi
  00015	e8 00 00 00 00	 call	 ??3@YAXPAXI@Z		; operator delete
  0001a	83 c4 08	 add	 esp, 8
$LN5@scalar:
  0001d	8b c6		 mov	 eax, esi
  0001f	5e		 pop	 esi
  00020	5d		 pop	 ebp
  00021	c2 04 00	 ret	 4
??_GCTimer@@UAEPAXI@Z ENDP				; CTimer::`scalar deleting destructor'
_TEXT	ENDS
; Function compile flags: /Ogtp
; File C:\IAGOS\server\v18\Source\Source\_Common\timer.cpp
;	COMDAT ??RCTimer@@QAEXN@Z
_TEXT	SEGMENT
_fInterval$ = 8						; size = 8
??RCTimer@@QAEXN@Z PROC					; CTimer::operator(), COMDAT
; _this$ = ecx

; 75   : {

  00000	55		 push	 ebp
  00001	8b ec		 mov	 ebp, esp
  00003	f2 0f 10 45 08	 movsd	 xmm0, QWORD PTR _fInterval$[ebp]
  00008	56		 push	 esi

; 76   : 	Set( (float)fInterval );	while( !Over() );

  00009	66 0f 5a c0	 cvtpd2ps xmm0, xmm0
  0000d	6a 00		 push	 0
  0000f	51		 push	 ecx
  00010	8b f1		 mov	 esi, ecx
  00012	f3 0f 11 04 24	 movss	 DWORD PTR [esp], xmm0
  00017	e8 00 00 00 00	 call	 ?Set@CTimer@@QAEXMH@Z	; CTimer::Set
  0001c	0f 1f 40 00	 npad	 4
$LL2@operator:
  00020	8b 06		 mov	 eax, DWORD PTR [esi]
  00022	8b ce		 mov	 ecx, esi
  00024	ff 50 08	 call	 DWORD PTR [eax+8]
  00027	85 c0		 test	 eax, eax
  00029	74 f5		 je	 SHORT $LL2@operator
  0002b	5e		 pop	 esi

; 77   : }

  0002c	5d		 pop	 ebp
  0002d	c2 08 00	 ret	 8
??RCTimer@@QAEXN@Z ENDP					; CTimer::operator()
_TEXT	ENDS
; Function compile flags: /Ogtp
; File C:\IAGOS\server\v18\Source\Source\_Common\timer.cpp
;	COMDAT ??RCTimer@@QAEXXZ
_TEXT	SEGMENT
??RCTimer@@QAEXXZ PROC					; CTimer::operator(), COMDAT
; _this$ = ecx

; 70   : {

  00000	56		 push	 esi
  00001	8b f1		 mov	 esi, ecx
$LL2@operator:

; 71   : 	while( !Over() );

  00003	8b 06		 mov	 eax, DWORD PTR [esi]
  00005	8b ce		 mov	 ecx, esi
  00007	ff 50 08	 call	 DWORD PTR [eax+8]
  0000a	85 c0		 test	 eax, eax
  0000c	74 f5		 je	 SHORT $LL2@operator
  0000e	5e		 pop	 esi

; 72   : }

  0000f	c3		 ret	 0
??RCTimer@@QAEXXZ ENDP					; CTimer::operator()
_TEXT	ENDS
; Function compile flags: /Ogtp
; File C:\IAGOS\server\v18\Source\Source\_Common\timer.cpp
;	COMDAT ?GetTime@CTimer@@QAENXZ
_TEXT	SEGMENT
tv72 = -8						; size = 8
?GetTime@CTimer@@QAENXZ PROC				; CTimer::GetTime, COMDAT
; _this$ = ecx

; 24   : {

  00000	55		 push	 ebp
  00001	8b ec		 mov	 ebp, esp
  00003	83 ec 08	 sub	 esp, 8

; 25   : 	//LARGE_INTEGER largeTime = { 0, 0 };
; 26   : 	//QueryPerformanceCounter(&largeTime);
; 27   : #ifdef __GLOBAL_COUNT_0705
; 28   : 	return (double)g_tmCurrent; //((double) largeTime.LowPart + (double) largeTime.HighPart * (double) 0xffffffffffffffff);
; 29   : #else // __GLOBAL_COUNT_0705 
; 30   : 	return (double)timeGetTime(); //((double) largeTime.LowPart + (double) largeTime.HighPart * (double) 0xffffffffffffffff);

  00006	ff 15 00 00 00
	00		 call	 DWORD PTR __imp__timeGetTime@0
  0000c	66 0f 6e c0	 movd	 xmm0, eax
  00010	f3 0f e6 c0	 cvtdq2pd xmm0, xmm0
  00014	c1 e8 1f	 shr	 eax, 31			; 0000001fH
  00017	f2 0f 58 04 c5
	00 00 00 00	 addsd	 xmm0, QWORD PTR __xmm@41f00000000000000000000000000000[eax*8]
  00020	f2 0f 11 45 f8	 movsd	 QWORD PTR tv72[ebp], xmm0
  00025	dd 45 f8	 fld	 QWORD PTR tv72[ebp]

; 31   : #endif // __GLOBAL_COUNT_0705
; 32   : }

  00028	8b e5		 mov	 esp, ebp
  0002a	5d		 pop	 ebp
  0002b	c3		 ret	 0
?GetTime@CTimer@@QAENXZ ENDP				; CTimer::GetTime
_TEXT	ENDS
; Function compile flags: /Ogtp
; File C:\IAGOS\server\v18\Source\Source\_Common\timer.cpp
;	COMDAT ?GetLeftTime@CTimer@@QAENXZ
_TEXT	SEGMENT
tv66 = -8						; size = 8
?GetLeftTime@CTimer@@QAENXZ PROC			; CTimer::GetLeftTime, COMDAT
; _this$ = ecx

; 60   : {

  00000	55		 push	 ebp
  00001	8b ec		 mov	 ebp, esp
  00003	83 ec 08	 sub	 esp, 8

; 61   : 	return ( GetTime() - m_curTime );

  00006	f2 0f 10 41 08	 movsd	 xmm0, QWORD PTR [ecx+8]
  0000b	f2 0f 11 45 f8	 movsd	 QWORD PTR tv66[ebp], xmm0
  00010	e8 00 00 00 00	 call	 ?GetTime@CTimer@@QAENXZ	; CTimer::GetTime
  00015	dc 65 f8	 fsub	 QWORD PTR tv66[ebp]

; 62   : }

  00018	8b e5		 mov	 esp, ebp
  0001a	5d		 pop	 ebp
  0001b	c3		 ret	 0
?GetLeftTime@CTimer@@QAENXZ ENDP			; CTimer::GetLeftTime
_TEXT	ENDS
; Function compile flags: /Ogtp
; File C:\IAGOS\server\v18\Source\Source\_Common\timer.cpp
;	COMDAT ?GetInterval@CTimer@@QAEMXZ
_TEXT	SEGMENT
?GetInterval@CTimer@@QAEMXZ PROC			; CTimer::GetInterval, COMDAT
; _this$ = ecx

; 66   : 	return m_fInterval;

  00000	d9 41 18	 fld	 DWORD PTR [ecx+24]

; 67   : }

  00003	c3		 ret	 0
?GetInterval@CTimer@@QAEMXZ ENDP			; CTimer::GetInterval
_TEXT	ENDS
; Function compile flags: /Ogtp
; File C:\IAGOS\server\v18\Source\Source\_Common\timer.cpp
;	COMDAT ?Over@CTimer@@UAEHXZ
_TEXT	SEGMENT
_dwCurr$ = -8						; size = 8
?Over@CTimer@@UAEHXZ PROC				; CTimer::Over, COMDAT
; _this$ = ecx

; 47   : {

  00000	55		 push	 ebp
  00001	8b ec		 mov	 ebp, esp
  00003	83 ec 08	 sub	 esp, 8
  00006	56		 push	 esi
  00007	8b f1		 mov	 esi, ecx

; 48   : 	double dwCurr	= GetTime();

  00009	e8 00 00 00 00	 call	 ?GetTime@CTimer@@QAENXZ	; CTimer::GetTime

; 49   : 
; 50   : 	if( dwCurr >= m_endTime )

  0000e	f2 0f 10 46 10	 movsd	 xmm0, QWORD PTR [esi+16]
  00013	dd 5d f8	 fstp	 QWORD PTR _dwCurr$[ebp]
  00016	f2 0f 10 4d f8	 movsd	 xmm1, QWORD PTR _dwCurr$[ebp]
  0001b	66 0f 2f c8	 comisd	 xmm1, xmm0
  0001f	5e		 pop	 esi
  00020	73 1f		 jae	 SHORT $LN5@Over

; 51   : 		return TRUE;
; 52   : 
; 53   : 	if( m_endTime > 3758096381 && dwCurr < 536870911 )

  00022	33 c0		 xor	 eax, eax
  00024	66 0f 2f 05 00
	00 00 00	 comisd	 xmm0, QWORD PTR __real@41ebffffffa00000
  0002c	76 18		 jbe	 SHORT $LN1@Over
  0002e	f2 0f 10 05 00
	00 00 00	 movsd	 xmm0, QWORD PTR __real@41bfffffff000000
  00036	66 0f 2f c1	 comisd	 xmm0, xmm1
  0003a	0f 97 c0	 seta	 al

; 55   : 
; 56   : 	return FALSE;
; 57   : }

  0003d	8b e5		 mov	 esp, ebp
  0003f	5d		 pop	 ebp
  00040	c3		 ret	 0
$LN5@Over:

; 54   : 		return TRUE;

  00041	b8 01 00 00 00	 mov	 eax, 1
$LN1@Over:

; 55   : 
; 56   : 	return FALSE;
; 57   : }

  00046	8b e5		 mov	 esp, ebp
  00048	5d		 pop	 ebp
  00049	c3		 ret	 0
?Over@CTimer@@UAEHXZ ENDP				; CTimer::Over
_TEXT	ENDS
; Function compile flags: /Ogtp
; File C:\IAGOS\server\v18\Source\Source\_Common\timer.cpp
;	COMDAT ?Reset@CTimer@@UAEXXZ
_TEXT	SEGMENT
?Reset@CTimer@@UAEXXZ PROC				; CTimer::Reset, COMDAT
; _this$ = ecx

; 43   : 	Set( m_fInterval );

  00000	f3 0f 10 41 18	 movss	 xmm0, DWORD PTR [ecx+24]
  00005	6a 00		 push	 0
  00007	51		 push	 ecx
  00008	f3 0f 11 04 24	 movss	 DWORD PTR [esp], xmm0
  0000d	e8 00 00 00 00	 call	 ?Set@CTimer@@QAEXMH@Z	; CTimer::Set

; 44   : }

  00012	c3		 ret	 0
?Reset@CTimer@@UAEXXZ ENDP				; CTimer::Reset
_TEXT	ENDS
; Function compile flags: /Ogtp
; File C:\IAGOS\server\v18\Source\Source\_Common\timer.cpp
;	COMDAT ?Set@CTimer@@QAEXMH@Z
_TEXT	SEGMENT
tv76 = -8						; size = 8
_fInterval$ = 8						; size = 4
_bFirstTimeOut$ = 12					; size = 4
?Set@CTimer@@QAEXMH@Z PROC				; CTimer::Set, COMDAT
; _this$ = ecx

; 35   : {

  00000	55		 push	 ebp
  00001	8b ec		 mov	 ebp, esp
  00003	83 ec 08	 sub	 esp, 8

; 36   : 	m_fInterval		= fInterval;

  00006	f3 0f 10 45 08	 movss	 xmm0, DWORD PTR _fInterval$[ebp]
  0000b	56		 push	 esi
  0000c	8b f1		 mov	 esi, ecx
  0000e	f3 0f 11 46 18	 movss	 DWORD PTR [esi+24], xmm0

; 37   : 	m_curTime	= GetTime();

  00013	e8 00 00 00 00	 call	 ?GetTime@CTimer@@QAENXZ	; CTimer::GetTime

; 38   : 	m_endTime	= bFirstTimeOut ? m_curTime : m_curTime + fInterval;

  00018	83 7d 0c 00	 cmp	 DWORD PTR _bFirstTimeOut$[ebp], 0
  0001c	dd 5d f8	 fstp	 QWORD PTR tv76[ebp]
  0001f	f2 0f 10 4d f8	 movsd	 xmm1, QWORD PTR tv76[ebp]
  00024	f2 0f 11 4e 08	 movsd	 QWORD PTR [esi+8], xmm1
  00029	74 0c		 je	 SHORT $LN3@Set
  0002b	f2 0f 11 4e 10	 movsd	 QWORD PTR [esi+16], xmm1
  00030	5e		 pop	 esi

; 39   : }

  00031	8b e5		 mov	 esp, ebp
  00033	5d		 pop	 ebp
  00034	c2 08 00	 ret	 8
$LN3@Set:
  00037	f3 0f 10 45 08	 movss	 xmm0, DWORD PTR _fInterval$[ebp]

; 38   : 	m_endTime	= bFirstTimeOut ? m_curTime : m_curTime + fInterval;

  0003c	0f 5a c0	 cvtps2pd xmm0, xmm0
  0003f	f2 0f 58 c1	 addsd	 xmm0, xmm1
  00043	f2 0f 11 46 10	 movsd	 QWORD PTR [esi+16], xmm0
  00048	5e		 pop	 esi

; 39   : }

  00049	8b e5		 mov	 esp, ebp
  0004b	5d		 pop	 ebp
  0004c	c2 08 00	 ret	 8
?Set@CTimer@@QAEXMH@Z ENDP				; CTimer::Set
_TEXT	ENDS
; Function compile flags: /Ogtp
; File C:\IAGOS\server\v18\Source\Source\_Common\timer.h
;	COMDAT ??1CTimer@@UAE@XZ
_TEXT	SEGMENT
??1CTimer@@UAE@XZ PROC					; CTimer::~CTimer, COMDAT
; _this$ = ecx

; 19   : 	virtual ~CTimer()	{}

  00000	c7 01 00 00 00
	00		 mov	 DWORD PTR [ecx], OFFSET ??_7CTimer@@6B@
  00006	c3		 ret	 0
??1CTimer@@UAE@XZ ENDP					; CTimer::~CTimer
_TEXT	ENDS
; Function compile flags: /Ogtp
; File C:\IAGOS\server\v18\Source\Source\_Common\timer.cpp
;	COMDAT ??0CTimer@@QAE@MH@Z
_TEXT	SEGMENT
_fInterval$ = 8						; size = 4
_bFirstTimeOut$ = 12					; size = 4
??0CTimer@@QAE@MH@Z PROC				; CTimer::CTimer, COMDAT
; _this$ = ecx

; 19   : {

  00000	55		 push	 ebp
  00001	8b ec		 mov	 ebp, esp

; 20   : 	Set( fInterval, bFirstTimeOut );

  00003	f3 0f 10 45 08	 movss	 xmm0, DWORD PTR _fInterval$[ebp]
  00008	56		 push	 esi
  00009	ff 75 0c	 push	 DWORD PTR _bFirstTimeOut$[ebp]
  0000c	8b f1		 mov	 esi, ecx
  0000e	51		 push	 ecx
  0000f	f3 0f 11 04 24	 movss	 DWORD PTR [esp], xmm0
  00014	c7 06 00 00 00
	00		 mov	 DWORD PTR [esi], OFFSET ??_7CTimer@@6B@
  0001a	e8 00 00 00 00	 call	 ?Set@CTimer@@QAEXMH@Z	; CTimer::Set

; 21   : }

  0001f	8b c6		 mov	 eax, esi
  00021	5e		 pop	 esi
  00022	5d		 pop	 ebp
  00023	c2 08 00	 ret	 8
??0CTimer@@QAE@MH@Z ENDP				; CTimer::CTimer
_TEXT	ENDS
; Function compile flags: /Ogtp
; File C:\IAGOS\server\v18\Source\Source\_Common\timer.cpp
;	COMDAT ??0CTimer@@QAE@M@Z
_TEXT	SEGMENT
_fInterval$ = 8						; size = 4
??0CTimer@@QAE@M@Z PROC					; CTimer::CTimer, COMDAT
; _this$ = ecx

; 14   : {

  00000	55		 push	 ebp
  00001	8b ec		 mov	 ebp, esp

; 15   : 	Set( fInterval );

  00003	f3 0f 10 45 08	 movss	 xmm0, DWORD PTR _fInterval$[ebp]
  00008	56		 push	 esi
  00009	8b f1		 mov	 esi, ecx
  0000b	6a 00		 push	 0
  0000d	51		 push	 ecx
  0000e	f3 0f 11 04 24	 movss	 DWORD PTR [esp], xmm0
  00013	c7 06 00 00 00
	00		 mov	 DWORD PTR [esi], OFFSET ??_7CTimer@@6B@
  00019	e8 00 00 00 00	 call	 ?Set@CTimer@@QAEXMH@Z	; CTimer::Set

; 16   : }

  0001e	8b c6		 mov	 eax, esi
  00020	5e		 pop	 esi
  00021	5d		 pop	 ebp
  00022	c2 04 00	 ret	 4
??0CTimer@@QAE@M@Z ENDP					; CTimer::CTimer
_TEXT	ENDS
; Function compile flags: /Ogtp
; File C:\IAGOS\server\v18\Source\Source\_Common\timer.cpp
;	COMDAT ??0CTimer@@QAE@XZ
_TEXT	SEGMENT
??0CTimer@@QAE@XZ PROC					; CTimer::CTimer, COMDAT
; _this$ = ecx

; 9    : {

  00000	56		 push	 esi
  00001	8b f1		 mov	 esi, ecx

; 10   : 	Set( 0.0f );

  00003	6a 00		 push	 0
  00005	51		 push	 ecx
  00006	c7 04 24 00 00
	00 00		 mov	 DWORD PTR [esp], 0
  0000d	c7 06 00 00 00
	00		 mov	 DWORD PTR [esi], OFFSET ??_7CTimer@@6B@
  00013	e8 00 00 00 00	 call	 ?Set@CTimer@@QAEXMH@Z	; CTimer::Set

; 11   : }

  00018	8b c6		 mov	 eax, esi
  0001a	5e		 pop	 esi
  0001b	c3		 ret	 0
??0CTimer@@QAE@XZ ENDP					; CTimer::CTimer
_TEXT	ENDS
; Function compile flags: /Ogtp
; File C:\IAGOS\server\v18\Source\Source\_Common\timer.cpp
;	COMDAT ?__empty_global_delete@@YAXPAXI@Z
_TEXT	SEGMENT
___formal$ = 8						; size = 4
___formal$ = 12						; size = 4
?__empty_global_delete@@YAXPAXI@Z PROC			; __empty_global_delete, COMDAT

  00000	c2 00 00	 ret	 0
?__empty_global_delete@@YAXPAXI@Z ENDP			; __empty_global_delete
_TEXT	ENDS
; Function compile flags: /Ogtp
; File C:\IAGOS\server\v18\Source\Source\_Common\timer.cpp
;	COMDAT ?__empty_global_delete@@YAXPAX@Z
_TEXT	SEGMENT
___formal$ = 8						; size = 4
?__empty_global_delete@@YAXPAX@Z PROC			; __empty_global_delete, COMDAT

  00000	c2 00 00	 ret	 0
?__empty_global_delete@@YAXPAX@Z ENDP			; __empty_global_delete
_TEXT	ENDS
END
