; Listing generated by Microsoft (R) Optimizing Compiler Version 19.44.35225.0 

	TITLE	C:\IAGOS\server\v18\Source\Output\DatabaseServer\Release\tlord.obj
	.686P
	.XMM
	include listing.inc
	.model	flat

INCLUDELIB LIBCMT
INCLUDELIB OLDNAMES

PUBLIC	?__empty_global_delete@@YAXPAX@Z		; __empty_global_delete
PUBLIC	?__empty_global_delete@@YAXPAXI@Z		; __empty_global_delete
PUBLIC	___local_stdio_printf_options
PUBLIC	_sprintf
PUBLIC	?AtlThrowImpl@ATL@@YGXJ@Z			; ATL::AtlThrowImpl
PUBLIC	??1?$CSimpleStringT@D$0A@@ATL@@QAE@XZ		; ATL::CSimpleStringT<char,0>::~CSimpleStringT<char,0>
PUBLIC	?SetString@?$CSimpleStringT@D$0A@@ATL@@QAEXPBDH@Z ; ATL::CSimpleStringT<char,0>::SetString
PUBLIC	?ThrowMemoryException@?$CSimpleStringT@D$0A@@ATL@@KAXXZ ; ATL::CSimpleStringT<char,0>::ThrowMemoryException
PUBLIC	?Fork@?$CSimpleStringT@D$0A@@ATL@@AAEXH@Z	; ATL::CSimpleStringT<char,0>::Fork
PUBLIC	?PrepareWrite2@?$CSimpleStringT@D$0A@@ATL@@AAEXH@Z ; ATL::CSimpleStringT<char,0>::PrepareWrite2
PUBLIC	?Reallocate@?$CSimpleStringT@D$0A@@ATL@@AAEXH@Z	; ATL::CSimpleStringT<char,0>::Reallocate
PUBLIC	??1?$CStringT@DV?$StrTraitMFC@DV?$ChTraitsCRT@D@ATL@@@@@ATL@@QAE@XZ ; ATL::CStringT<char,StrTraitMFC<char,ATL::ChTraitsCRT<char> > >::~CStringT<char,StrTraitMFC<char,ATL::ChTraitsCRT<char> > >
PUBLIC	?LoadStringA@?$CStringT@DV?$StrTraitMFC@DV?$ChTraitsCRT@D@ATL@@@@@ATL@@QAEHI@Z ; ATL::CStringT<char,StrTraitMFC<char,ATL::ChTraitsCRT<char> > >::LoadStringA
PUBLIC	??0exception@std@@QAE@ABV01@@Z			; std::exception::exception
PUBLIC	??1exception@std@@UAE@XZ			; std::exception::~exception
PUBLIC	?what@exception@std@@UBEPBDXZ			; std::exception::what
PUBLIC	??_Gexception@std@@UAEPAXI@Z			; std::exception::`scalar deleting destructor'
PUBLIC	??0bad_alloc@std@@QAE@ABV01@@Z			; std::bad_alloc::bad_alloc
PUBLIC	??_Gbad_alloc@std@@UAEPAXI@Z			; std::bad_alloc::`scalar deleting destructor'
PUBLIC	??0bad_array_new_length@std@@QAE@XZ		; std::bad_array_new_length::bad_array_new_length
PUBLIC	??1bad_array_new_length@std@@UAE@XZ		; std::bad_array_new_length::~bad_array_new_length
PUBLIC	??0bad_array_new_length@std@@QAE@ABV01@@Z	; std::bad_array_new_length::bad_array_new_length
PUBLIC	??_Gbad_array_new_length@std@@UAEPAXI@Z		; std::bad_array_new_length::`scalar deleting destructor'
PUBLIC	?_Throw_bad_array_new_length@std@@YAXXZ		; std::_Throw_bad_array_new_length
PUBLIC	??1CMclAutoLock@@QAE@XZ				; CMclAutoLock::~CMclAutoLock
PUBLIC	??$_Allocate_manually_vector_aligned@U_Default_allocate_traits@std@@@std@@YAPAXI@Z ; std::_Allocate_manually_vector_aligned<std::_Default_allocate_traits>
PUBLIC	?DoSetPlegeComplete@IElection@@MAEXXZ		; IElection::DoSetPlegeComplete
PUBLIC	?DoIncVoteComplete@IElection@@MAEXXZ		; IElection::DoIncVoteComplete
PUBLIC	?DoEndVoteComplete@IElection@@MAEXXZ		; IElection::DoEndVoteComplete
PUBLIC	?_Xlength@?$vector@MV?$allocator@M@std@@@std@@CAXXZ ; std::vector<float,std::allocator<float> >::_Xlength
PUBLIC	?_Xlength@?$vector@HV?$allocator@H@std@@@std@@CAXXZ ; std::vector<int,std::allocator<int> >::_Xlength
PUBLIC	??$?5H@CAr@@QAEAAV0@AAH@Z			; CAr::operator>><int>
PUBLIC	??0CTLord@@QAE@XZ				; CTLord::CTLord
PUBLIC	??1CTLord@@UAE@XZ				; CTLord::~CTLord
PUBLIC	?Instance@CTLord@@SAPAV1@XZ			; CTLord::Instance
PUBLIC	?CreateColleagues@CTLord@@UAEXXZ		; CTLord::CreateColleagues
PUBLIC	?DestroyColleagues@CTLord@@UAEXXZ		; CTLord::DestroyColleagues
PUBLIC	?RestoreAll@CTLord@@QAEHXZ			; CTLord::RestoreAll
PUBLIC	?Restore@CTLord@@QAEHPAVCQuery@@@Z		; CTLord::Restore
PUBLIC	?Handler@CTLord@@QAEXPAUtagDB_OVERLAPPED_PLUS@@K@Z ; CTLord::Handler
PUBLIC	?OnTimer@CTLord@@QAEXXZ				; CTLord::OnTimer
PUBLIC	?PostRequest@CTLord@@QAEHHPAEHK@Z		; CTLord::PostRequest
PUBLIC	?GetController@CTLord@@UAEPAVCLController@@XZ	; CTLord::GetController
PUBLIC	??_GCTLord@@UAEPAXI@Z				; CTLord::`scalar deleting destructor'
PUBLIC	??0CTElection@@QAE@PAVCLord@@@Z			; CTElection::CTElection
PUBLIC	??1CTElection@@UAE@XZ				; CTElection::~CTElection
PUBLIC	?Initialize@CTElection@@QAEHPBD@Z		; CTElection::Initialize
PUBLIC	?GetRetRate@CTElection@@QAEMK@Z			; CTElection::GetRetRate
PUBLIC	?OnTimer@CTElection@@QAEXXZ			; CTElection::OnTimer
PUBLIC	?Restore@CTElection@@QAEHPAVCQuery@@@Z		; CTElection::Restore
PUBLIC	?ttos@CTElection@@SA?AV?$CStringT@DV?$StrTraitMFC@DV?$ChTraitsCRT@D@ATL@@@@@ATL@@J@Z ; CTElection::ttos
PUBLIC	?stot@CTElection@@SAJPBD@Z			; CTElection::stot
PUBLIC	?DoTestBeginCandidacy@CTElection@@MAEHXZ	; CTElection::DoTestBeginCandidacy
PUBLIC	?DoReturnDeposit@CTElection@@MAEXXZ		; CTElection::DoReturnDeposit
PUBLIC	?DoTestBeginVote@CTElection@@MAEHAAH@Z		; CTElection::DoTestBeginVote
PUBLIC	?DoTestEndVote@CTElection@@MAEHK@Z		; CTElection::DoTestEndVote
PUBLIC	?DoTestAddDeposit@CTElection@@MAEHK_JJ@Z	; CTElection::DoTestAddDeposit
PUBLIC	?DoAddDepositComplete@CTElection@@MAEXK_JJ@Z	; CTElection::DoAddDepositComplete
PUBLIC	?DoTestSetPledge@CTElection@@MAEHKPBD@Z		; CTElection::DoTestSetPledge
PUBLIC	?DoTestIncVote@CTElection@@MAEHKK@Z		; CTElection::DoTestIncVote
PUBLIC	?ReadIni@CTElection@@AAEHPBD@Z			; CTElection::ReadIni
PUBLIC	?PostItem@CTElection@@AAEXKAAU_PostItemStruct@@@Z ; CTElection::PostItem
PUBLIC	?PostDepositToAllCandidate@CTElection@@AAEXXZ	; CTElection::PostDepositToAllCandidate
PUBLIC	?PostLordItems@CTElection@@AAEXK@Z		; CTElection::PostLordItems
PUBLIC	??_GCTElection@@UAEPAXI@Z			; CTElection::`scalar deleting destructor'
PUBLIC	??0CTLordSkill@@QAE@PAVCLord@@@Z		; CTLordSkill::CTLordSkill
PUBLIC	??1CTLordSkill@@UAE@XZ				; CTLordSkill::~CTLordSkill
PUBLIC	?CreateSkillComponent@CTLordSkill@@UAEPAVCLordSkillComponentExecutable@@H@Z ; CTLordSkill::CreateSkillComponent
PUBLIC	?Restore@CTLordSkill@@QAEHPAVCQuery@@@Z		; CTLordSkill::Restore
PUBLIC	?OnTimer@CTLordSkill@@QAEXXZ			; CTLordSkill::OnTimer
PUBLIC	??_GCTLordSkill@@UAEPAXI@Z			; CTLordSkill::`scalar deleting destructor'
PUBLIC	??0CLEvent@@QAE@PAVCLord@@@Z			; CLEvent::CLEvent
PUBLIC	??1CLEvent@@UAE@XZ				; CLEvent::~CLEvent
PUBLIC	?Restore@CLEvent@@QAEHPAVCQuery@@@Z		; CLEvent::Restore
PUBLIC	?OnTimer@CLEvent@@QAEXXZ			; CLEvent::OnTimer
PUBLIC	?DoTestAddComponent@CLEvent@@MAEHPAVCLEComponent@@@Z ; CLEvent::DoTestAddComponent
PUBLIC	?DoTestInitialize@CLEvent@@MAEHXZ		; CLEvent::DoTestInitialize
PUBLIC	?DecrementAllComponentTick@CLEvent@@IAEHXZ	; CLEvent::DecrementAllComponentTick
PUBLIC	??_GCLEvent@@UAEPAXI@Z				; CLEvent::`scalar deleting destructor'
PUBLIC	??RPostDeposit@@QBEXABV?$shared_ptr@VCCandidate@@@std@@@Z ; PostDeposit::operator()
PUBLIC	??0CLController@@QAE@PAVCTLord@@@Z		; CLController::CLController
PUBLIC	??1CLController@@UAE@XZ				; CLController::~CLController
PUBLIC	?Restore@CLController@@QAEHXZ			; CLController::Restore
PUBLIC	?BeginCandidacy@CLController@@QAEHXZ		; CLController::BeginCandidacy
PUBLIC	?BeginVote@CLController@@QAEHXZ			; CLController::BeginVote
PUBLIC	?EndVote@CLController@@QAEHK@Z			; CLController::EndVote
PUBLIC	?AddDeposit@CLController@@QAEHK_JJ@Z		; CLController::AddDeposit
PUBLIC	?SetPledge@CLController@@QAEHKPBD@Z		; CLController::SetPledge
PUBLIC	?IncVote@CLController@@QAEHKK@Z			; CLController::IncVote
PUBLIC	?AddLEComponent@CLController@@QAEHPAVCLEComponent@@@Z ; CLController::AddLEComponent
PUBLIC	?InitializeLEvent@CLController@@QAEHXZ		; CLController::InitializeLEvent
PUBLIC	?UpdateLordSkillTick@CLController@@QAEHPAVCLordSkillComponent@@H@Z ; CLController::UpdateLordSkillTick
PUBLIC	?UpdateLordEventTick@CLController@@QAEHPAVCLEComponent@@@Z ; CLController::UpdateLordEventTick
PUBLIC	?Handler@CLController@@UAEXPAUtagDB_OVERLAPPED_PLUS@@K@Z ; CLController::Handler
PUBLIC	?OnTimer@CLController@@UAEXXZ			; CLController::OnTimer
PUBLIC	??_GCLController@@UAEPAXI@Z			; CLController::`scalar deleting destructor'
PUBLIC	??$?5K@CAr@@QAEAAV0@AAK@Z			; CAr::operator>><unsigned long>
PUBLIC	??$?5_J@CAr@@QAEAAV0@AA_J@Z			; CAr::operator>><__int64>
PUBLIC	??$_Emplace_reallocate@ABH@?$vector@HV?$allocator@H@std@@@std@@AAEPAHQAHABH@Z ; std::vector<int,std::allocator<int> >::_Emplace_reallocate<int const &>
PUBLIC	??$_Emplace_reallocate@ABM@?$vector@MV?$allocator@M@std@@@std@@AAEPAMQAMABM@Z ; std::vector<float,std::allocator<float> >::_Emplace_reallocate<float const &>
PUBLIC	??$_Copy_memmove@PAHPAH@std@@YAPAHPAH00@Z	; std::_Copy_memmove<int *,int *>
PUBLIC	??$_Copy_memmove@PAMPAM@std@@YAPAMPAM00@Z	; std::_Copy_memmove<float *,float *>
PUBLIC	??$_Copy_memmove_tail@PAH@std@@YAPAHQBDQAHII@Z	; std::_Copy_memmove_tail<int *>
PUBLIC	??$_Copy_memmove_tail@PAM@std@@YAPAMQBDQAMII@Z	; std::_Copy_memmove_tail<float *>
PUBLIC	?_OptionsStorage@?1??__local_stdio_printf_options@@9@4_KA ; `__local_stdio_printf_options'::`2'::_OptionsStorage
PUBLIC	??_C@_00CNPNBAHC@@				; `string'
PUBLIC	??_7exception@std@@6B@				; std::exception::`vftable'
PUBLIC	??_C@_0BC@EOODALEL@Unknown?5exception@		; `string'
PUBLIC	??_7bad_alloc@std@@6B@				; std::bad_alloc::`vftable'
PUBLIC	??_7bad_array_new_length@std@@6B@		; std::bad_array_new_length::`vftable'
PUBLIC	??_C@_0BF@KINCDENJ@bad?5array?5new?5length@	; `string'
PUBLIC	??_R0?AVexception@std@@@8			; std::exception `RTTI Type Descriptor'
PUBLIC	__CT??_R0?AVexception@std@@@8??0exception@std@@QAE@ABV01@@Z12
PUBLIC	__TI3?AVbad_array_new_length@std@@
PUBLIC	__CTA3?AVbad_array_new_length@std@@
PUBLIC	??_R0?AVbad_array_new_length@std@@@8		; std::bad_array_new_length `RTTI Type Descriptor'
PUBLIC	__CT??_R0?AVbad_array_new_length@std@@@8??0bad_array_new_length@std@@QAE@ABV01@@Z12
PUBLIC	??_R0?AVbad_alloc@std@@@8			; std::bad_alloc `RTTI Type Descriptor'
PUBLIC	__CT??_R0?AVbad_alloc@std@@@8??0bad_alloc@std@@QAE@ABV01@@Z12
PUBLIC	??_C@_0BA@FOIKENOD@vector?5too?5long@		; `string'
PUBLIC	??_R4exception@std@@6B@				; std::exception::`RTTI Complete Object Locator'
PUBLIC	??_R3exception@std@@8				; std::exception::`RTTI Class Hierarchy Descriptor'
PUBLIC	??_R2exception@std@@8				; std::exception::`RTTI Base Class Array'
PUBLIC	??_R1A@?0A@EA@exception@std@@8			; std::exception::`RTTI Base Class Descriptor at (0,-1,0,64)'
PUBLIC	??_R4bad_array_new_length@std@@6B@		; std::bad_array_new_length::`RTTI Complete Object Locator'
PUBLIC	??_R3bad_array_new_length@std@@8		; std::bad_array_new_length::`RTTI Class Hierarchy Descriptor'
PUBLIC	??_R2bad_array_new_length@std@@8		; std::bad_array_new_length::`RTTI Base Class Array'
PUBLIC	??_R1A@?0A@EA@bad_array_new_length@std@@8	; std::bad_array_new_length::`RTTI Base Class Descriptor at (0,-1,0,64)'
PUBLIC	??_R1A@?0A@EA@bad_alloc@std@@8			; std::bad_alloc::`RTTI Base Class Descriptor at (0,-1,0,64)'
PUBLIC	??_R3bad_alloc@std@@8				; std::bad_alloc::`RTTI Class Hierarchy Descriptor'
PUBLIC	??_R2bad_alloc@std@@8				; std::bad_alloc::`RTTI Base Class Array'
PUBLIC	??_R4bad_alloc@std@@6B@				; std::bad_alloc::`RTTI Complete Object Locator'
PUBLIC	??_7CTLord@@6B@					; CTLord::`vftable'
PUBLIC	??_7CTElection@@6B@				; CTElection::`vftable'
PUBLIC	??_7CTLordSkill@@6B@				; CTLordSkill::`vftable'
PUBLIC	??_7CLEvent@@6B@				; CLEvent::`vftable'
PUBLIC	??_7CLController@@6B@				; CLController::`vftable'
PUBLIC	??_C@_0N@MMPBPIHN@election?4inc@		; `string'
PUBLIC	??_C@_0O@NKJDDJPP@lordevent?4inc@		; `string'
PUBLIC	??_C@_0O@DNECDNPA@lordskill?4txt@		; `string'
PUBLIC	??_C@_0BI@GMEIIJGO@CTLord?4CreateColleagues@	; `string'
PUBLIC	??_C@_0BC@MCPIBNBK@uspRestoreLord?5?$CFd@	; `string'
PUBLIC	??_C@_06EHHKCEHL@idLord@			; `string'
PUBLIC	??_C@_0DL@DADIAAPI@CTElection?3?3Initialize?$CI?$CJ?3?5LoadS@ ; `string'
PUBLIC	??_C@_08EMBNBNLN@property@			; `string'
PUBLIC	??_C@_0L@NLLMANDB@nDayOfWeek@			; `string'
PUBLIC	??_C@_05DIDGHFGE@nHour@				; `string'
PUBLIC	??_C@_0L@CKDBDEOG@tCandidacy@			; `string'
PUBLIC	??_C@_05EBOKJDNL@tVote@				; `string'
PUBLIC	??_C@_05NBICHHD@nDays@				; `string'
PUBLIC	??_C@_04HCCHHEEF@rate@				; `string'
PUBLIC	??_C@_0BD@FJBKFPAD@fRequirementFactor@		; `string'
PUBLIC	??_C@_04NHONDGDE@item@				; `string'
PUBLIC	??_C@_0N@BNMNAMM@?$CFY?$CFm?$CFd?$CFH?$CFM?$CFS@ ; `string'
PUBLIC	??_C@_0BE@HLJDCBPH@CTElection?4stot?3?5?$CFs@	; `string'
PUBLIC	??_C@_0BG@KGCKLKHB@uspRestoreElection?5?$CFd@	; `string'
PUBLIC	??_C@_0L@NBMLJLBM@idElection@			; `string'
PUBLIC	??_C@_06PFLNLAJN@eState@			; `string'
PUBLIC	??_C@_0N@NOMIPDCI@nRequirement@			; `string'
PUBLIC	??_C@_07PJNBBDOG@szBegin@			; `string'
PUBLIC	??_C@_0BM@CHJPNMJK@uspRestoreCandidates?5?$CFd?0?5?$CFd@ ; `string'
PUBLIC	??_C@_0CG@GCHADNNB@couldn?8t?5execute?5uspRestoreCand@ ; `string'
PUBLIC	??_C@_08EPHCN@idPlayer@				; `string'
PUBLIC	??_C@_08PIPANNIJ@iDeposit@			; `string'
PUBLIC	??_C@_08BCPGFKB@szPledge@			; `string'
PUBLIC	??_C@_05ODKHLCCG@nVote@				; `string'
PUBLIC	??_C@_07BIPEELOH@tCreate@			; `string'
PUBLIC	??_C@_0CB@FCFJFKNF@uspElectionInitialize?5?$CFd?0?5?$CFd?0?5?$CF@ ; `string'
PUBLIC	??_C@_0CH@LCMLFLCE@couldn?8t?5execute?5uspElectionIni@ ; `string'
PUBLIC	??_C@_0CA@EFGOLAFI@CTElection?4DoTestBeginCandidacy@ ; `string'
PUBLIC	??_C@_0BP@DDPAGKOB@uspElectionLeaveOut?5?$CFd?0?5?$CFd?0?5?$CFd@ ; `string'
PUBLIC	??_C@_0CF@DMMBMGJN@couldn?8t?5execute?5uspElectionLea@ ; `string'
PUBLIC	??_C@_0BL@GDEBELLG@CTElection?4DoReturnDeposit@	; `string'
PUBLIC	??_C@_0BL@LMGPGHGD@CTElection?4DoTestBeginVote@	; `string'
PUBLIC	??_C@_0BJ@NBOADCDH@CTElection?4DoTestEndVote@	; `string'
PUBLIC	??_C@_0CN@IFFHNJAO@CTElection?4DoTestAddDeposit?3?5?$CF0@ ; `string'
PUBLIC	??_C@_0CF@EBIGHEOA@CTElection?4DoTestSetPledge?3?5?$CF07@ ; `string'
PUBLIC	??_C@_0CF@GEOBODGJ@CTElection?4DoTestIncVote?3?5?$CF07d?0@ ; `string'
PUBLIC	??_C@_0BE@PNIJDBCM@uspRestoreLEvent?5?$CFd@	; `string'
PUBLIC	??_C@_05DLOGCGOB@nTick@				; `string'
PUBLIC	??_C@_08NHMMOOHF@fEFactor@			; `string'
PUBLIC	??_C@_08IAGDPLDK@fIFactor@			; `string'
PUBLIC	??_C@_0CB@IFBIPCGL@uspElectionBeginCandidacy?5?$CFd?0?5?$CF@ ; `string'
PUBLIC	??_C@_0BM@CADCBIMM@uspElectionBeginVote?5?$CFd?0?5?$CFd@ ; `string'
PUBLIC	??_C@_0CC@KFNJJIIE@uspElectionEndVote?5?$CFd?0?5?$CFd?0?5?$CFd?0?5@ ; `string'
PUBLIC	??_C@_0CM@MKKLKFBM@uspElectionAddDeposit?5?$CFd?0?5?$CFd?0?5?$CF@ ; `string'
PUBLIC	??_C@_0CN@DFOIGMEI@?$HLcall?5uspElectionSetPledge?$CI?5?$CFd?0@ ; `string'
PUBLIC	??_C@_0CC@MJFIHIPP@uspElectionIncVote?5?$CFd?0?5?$CFd?0?5?$CFd?0?5@ ; `string'
PUBLIC	??_C@_07MGNKFCA@bResult@			; `string'
PUBLIC	??_C@_0CL@KGJPMKPI@uspAddLEComponent?5?$CFd?0?5?$CFd?0?5?$CFd?0?5?$CF@ ; `string'
PUBLIC	??_C@_0BH@NILKABO@uspInitializeLEvent?5?$CFd@	; `string'
PUBLIC	??_C@_0BM@PHMEBJEL@uspLordSkillTick?5?$CFd?0?5?$CFd?0?5?$CFd@ ; `string'
PUBLIC	??_C@_0BM@INGAOOO@uspLordEventTick?5?$CFd?0?5?$CFd?0?5?$CFd@ ; `string'
PUBLIC	??_C@_0BH@OCAHAJDB@uspRestoreLordSkill?5?$CFd@	; `string'
PUBLIC	??_C@_06BDEJIFFK@nSkill@			; `string'
PUBLIC	??_R4CLController@@6B@				; CLController::`RTTI Complete Object Locator'
PUBLIC	??_R0?AVCLController@@@8			; CLController `RTTI Type Descriptor'
PUBLIC	??_R3CLController@@8				; CLController::`RTTI Class Hierarchy Descriptor'
PUBLIC	??_R2CLController@@8				; CLController::`RTTI Base Class Array'
PUBLIC	??_R1A@?0A@EA@CLController@@8			; CLController::`RTTI Base Class Descriptor at (0,-1,0,64)'
PUBLIC	??_R1A@?0A@EA@CDbController@@8			; CDbController::`RTTI Base Class Descriptor at (0,-1,0,64)'
PUBLIC	??_R0?AVCDbController@@@8			; CDbController `RTTI Type Descriptor'
PUBLIC	??_R3CDbController@@8				; CDbController::`RTTI Class Hierarchy Descriptor'
PUBLIC	??_R2CDbController@@8				; CDbController::`RTTI Base Class Array'
PUBLIC	??_R4CTLord@@6B@				; CTLord::`RTTI Complete Object Locator'
PUBLIC	??_R0?AVCTLord@@@8				; CTLord `RTTI Type Descriptor'
PUBLIC	??_R3CTLord@@8					; CTLord::`RTTI Class Hierarchy Descriptor'
PUBLIC	??_R2CTLord@@8					; CTLord::`RTTI Base Class Array'
PUBLIC	??_R1A@?0A@EA@CTLord@@8				; CTLord::`RTTI Base Class Descriptor at (0,-1,0,64)'
PUBLIC	??_R1A@?0A@EA@CLord@@8				; CLord::`RTTI Base Class Descriptor at (0,-1,0,64)'
PUBLIC	??_R0?AVCLord@@@8				; CLord `RTTI Type Descriptor'
PUBLIC	??_R3CLord@@8					; CLord::`RTTI Class Hierarchy Descriptor'
PUBLIC	??_R2CLord@@8					; CLord::`RTTI Base Class Array'
PUBLIC	??_R4CTElection@@6B@				; CTElection::`RTTI Complete Object Locator'
PUBLIC	??_R0?AVCTElection@@@8				; CTElection `RTTI Type Descriptor'
PUBLIC	??_R3CTElection@@8				; CTElection::`RTTI Class Hierarchy Descriptor'
PUBLIC	??_R2CTElection@@8				; CTElection::`RTTI Base Class Array'
PUBLIC	??_R1A@?0A@EA@CTElection@@8			; CTElection::`RTTI Base Class Descriptor at (0,-1,0,64)'
PUBLIC	??_R1A@?0A@EA@IElection@@8			; IElection::`RTTI Base Class Descriptor at (0,-1,0,64)'
PUBLIC	??_R0?AVIElection@@@8				; IElection `RTTI Type Descriptor'
PUBLIC	??_R3IElection@@8				; IElection::`RTTI Class Hierarchy Descriptor'
PUBLIC	??_R2IElection@@8				; IElection::`RTTI Base Class Array'
PUBLIC	??_R4CTLordSkill@@6B@				; CTLordSkill::`RTTI Complete Object Locator'
PUBLIC	??_R0?AVCTLordSkill@@@8				; CTLordSkill `RTTI Type Descriptor'
PUBLIC	??_R3CTLordSkill@@8				; CTLordSkill::`RTTI Class Hierarchy Descriptor'
PUBLIC	??_R2CTLordSkill@@8				; CTLordSkill::`RTTI Base Class Array'
PUBLIC	??_R1A@?0A@EA@CTLordSkill@@8			; CTLordSkill::`RTTI Base Class Descriptor at (0,-1,0,64)'
PUBLIC	??_R1A@?0A@EA@CLordSkill@@8			; CLordSkill::`RTTI Base Class Descriptor at (0,-1,0,64)'
PUBLIC	??_R0?AVCLordSkill@@@8				; CLordSkill `RTTI Type Descriptor'
PUBLIC	??_R3CLordSkill@@8				; CLordSkill::`RTTI Class Hierarchy Descriptor'
PUBLIC	??_R2CLordSkill@@8				; CLordSkill::`RTTI Base Class Array'
PUBLIC	??_R4CLEvent@@6B@				; CLEvent::`RTTI Complete Object Locator'
PUBLIC	??_R0?AVCLEvent@@@8				; CLEvent `RTTI Type Descriptor'
PUBLIC	??_R3CLEvent@@8					; CLEvent::`RTTI Class Hierarchy Descriptor'
PUBLIC	??_R2CLEvent@@8					; CLEvent::`RTTI Base Class Array'
PUBLIC	??_R1A@?0A@EA@CLEvent@@8			; CLEvent::`RTTI Base Class Descriptor at (0,-1,0,64)'
PUBLIC	??_R1A@?0A@EA@ILordEvent@@8			; ILordEvent::`RTTI Base Class Descriptor at (0,-1,0,64)'
PUBLIC	??_R0?AVILordEvent@@@8				; ILordEvent `RTTI Type Descriptor'
PUBLIC	??_R3ILordEvent@@8				; ILordEvent::`RTTI Class Hierarchy Descriptor'
PUBLIC	??_R2ILordEvent@@8				; ILordEvent::`RTTI Base Class Array'
PUBLIC	__real@00000000
PUBLIC	__real@42c80000
EXTRN	??2@YAPAXI@Z:PROC				; operator new
EXTRN	??3@YAXPAXI@Z:PROC				; operator delete
EXTRN	_atexit:PROC
EXTRN	__Init_thread_header:PROC
EXTRN	__Init_thread_abort:PROC
EXTRN	__Init_thread_footer:PROC
EXTRN	__invalid_parameter_noinfo:PROC
EXTRN	__invoke_watson:PROC
EXTRN	__errno:PROC
EXTRN	_strncpy:PROC
EXTRN	__imp__EnterCriticalSection@4:PROC
EXTRN	__imp__LeaveCriticalSection@4:PROC
EXTRN	__imp__LoadResource@8:PROC
EXTRN	__imp__LockResource@4:PROC
EXTRN	__imp__SizeofResource@8:PROC
EXTRN	__imp__FindResourceW@12:PROC
EXTRN	__imp__lstrcpyA@8:PROC
EXTRN	__imp__WideCharToMultiByte@32:PROC
EXTRN	__mbscmp:PROC
EXTRN	___stdio_common_vsprintf:PROC
EXTRN	_exit:PROC
EXTRN	_atoi:PROC
EXTRN	__localtime64_s:PROC
EXTRN	__mktime64:PROC
EXTRN	_strftime:PROC
EXTRN	__time32:PROC
EXTRN	?AfxThrowMemoryException@@YGXXZ:PROC		; AfxThrowMemoryException
EXTRN	?AfxThrowOleException@@YGXJ@Z:PROC		; AfxThrowOleException
EXTRN	?AfxFindStringResourceHandle@@YGPAUHINSTANCE__@@I@Z:PROC ; AfxFindStringResourceHandle
EXTRN	?AfxGetStringManager@@YGPAUIAtlStringMgr@ATL@@XZ:PROC ; AfxGetStringManager
EXTRN	?_Xlength_error@std@@YAXPBD@Z:PROC		; std::_Xlength_error
EXTRN	___std_exception_copy:PROC
EXTRN	___std_exception_destroy:PROC
EXTRN	??_Eexception@std@@UAEPAXI@Z:PROC		; std::exception::`vector deleting destructor'
EXTRN	??_Ebad_alloc@std@@UAEPAXI@Z:PROC		; std::bad_alloc::`vector deleting destructor'
EXTRN	??_Ebad_array_new_length@std@@UAEPAXI@Z:PROC	; std::bad_array_new_length::`vector deleting destructor'
EXTRN	?Error@@YAPBDPBDZZ:PROC				; Error
EXTRN	?GetNumber@CScanner@@QAEHH@Z:PROC		; CScanner::GetNumber
EXTRN	?GetFloat@CScanner@@QAEMH@Z:PROC		; CScanner::GetFloat
EXTRN	??0CScript@@QAE@H@Z:PROC			; CScript::CScript
EXTRN	??1CScript@@UAE@XZ:PROC				; CScript::~CScript
EXTRN	?Load@CScript@@QAEHPBDHH@Z:PROC			; CScript::Load
EXTRN	?GetToken@CScript@@UAEHH@Z:PROC			; CScript::GetToken
EXTRN	??1CQuery@@QAE@XZ:PROC				; CQuery::~CQuery
EXTRN	?Exec@CQuery@@QAEHPBD@Z:PROC			; CQuery::Exec
EXTRN	?Execute@CQuery@@QAAHPBDZZ:PROC			; CQuery::Execute
EXTRN	?Fetch@CQuery@@QAEHXZ:PROC			; CQuery::Fetch
EXTRN	?GetInt@CQuery@@QAEHPAD@Z:PROC			; CQuery::GetInt
EXTRN	?GetInt64@CQuery@@QAE_JPAD@Z:PROC		; CQuery::GetInt64
EXTRN	?GetFloat@CQuery@@QAEMPAD@Z:PROC		; CQuery::GetFloat
EXTRN	?GetStr@CQuery@@QAEXPAD0@Z:PROC			; CQuery::GetStr
EXTRN	?BindParameter@CQuery@@QAEHGFFFKFPAXJPAJ@Z:PROC	; CQuery::BindParameter
EXTRN	??0CAr@@QAE@PAXI@Z:PROC				; CAr::CAr
EXTRN	??1CAr@@QAE@XZ:PROC				; CAr::~CAr
EXTRN	?ReadString@CAr@@QAEPADPADH@Z:PROC		; CAr::ReadString
EXTRN	??0CItemElem@@QAE@XZ:PROC			; CItemElem::CItemElem
EXTRN	??0CLordSkill@@QAE@PAVCLord@@@Z:PROC		; CLordSkill::CLordSkill
EXTRN	??1CLordSkill@@UAE@XZ:PROC			; CLordSkill::~CLordSkill
EXTRN	?GetSkill@CLordSkill@@QAEPAVCLordSkillComponentExecutable@@H@Z:PROC ; CLordSkill::GetSkill
EXTRN	?Initialize@CLordSkill@@QAEHPBD@Z:PROC		; CLordSkill::Initialize
EXTRN	??0IElection@@IAE@PAVCLord@@@Z:PROC		; IElection::IElection
EXTRN	??1IElection@@UAE@XZ:PROC			; IElection::~IElection
EXTRN	?AddCandidate@IElection@@QAEPAVCCandidate@@K_JPBDHJ@Z:PROC ; IElection::AddCandidate
EXTRN	?GetOrder@IElection@@QAEHK@Z:PROC		; IElection::GetOrder
EXTRN	?GetPropertyState@IElection@@QAE?AW4ELECTION_STATE@1@XZ:PROC ; IElection::GetPropertyState
EXTRN	?PrepareNext@IElection@@QAEXXZ:PROC		; IElection::PrepareNext
EXTRN	?BeginCandidacy@IElection@@QAEXXZ:PROC		; IElection::BeginCandidacy
EXTRN	?BeginVote@IElection@@QAEXH@Z:PROC		; IElection::BeginVote
EXTRN	?EndVote@IElection@@QAEXK@Z:PROC		; IElection::EndVote
EXTRN	?AddDeposit@IElection@@QAEXK_JJ@Z:PROC		; IElection::AddDeposit
EXTRN	?SetPledge@IElection@@QAEXKPBD@Z:PROC		; IElection::SetPledge
EXTRN	?IncVote@IElection@@QAEXKK@Z:PROC		; IElection::IncVote
EXTRN	?GetNextBegin@IElection@@QAEJXZ:PROC		; IElection::GetNextBegin
EXTRN	?SortDeposit@IElection@@IAEXXZ:PROC		; IElection::SortDeposit
EXTRN	?SortVote@IElection@@IAEXXZ:PROC		; IElection::SortVote
EXTRN	??0CLEComponent@@QAE@HKMM@Z:PROC		; CLEComponent::CLEComponent
EXTRN	?Decrement@CLEComponent@@QAEHXZ:PROC		; CLEComponent::Decrement
EXTRN	??0ILordEvent@@IAE@PAVCLord@@@Z:PROC		; ILordEvent::ILordEvent
EXTRN	??1ILordEvent@@UAE@XZ:PROC			; ILordEvent::~ILordEvent
EXTRN	?AddComponent@ILordEvent@@QAEXPAVCLEComponent@@H@Z:PROC ; ILordEvent::AddComponent
EXTRN	?AddComponent@ILordEvent@@QAEXKHH@Z:PROC	; ILordEvent::AddComponent
EXTRN	?Initialize@ILordEvent@@QAEXXZ:PROC		; ILordEvent::Initialize
EXTRN	?Initialize@ILordEvent@@QAEHPBD@Z:PROC		; ILordEvent::Initialize
EXTRN	?EraseExpiredComponents@ILordEvent@@QAEXXZ:PROC	; ILordEvent::EraseExpiredComponents
EXTRN	??1CLord@@QAE@XZ:PROC				; CLord::~CLord
EXTRN	??0CLord@@IAE@XZ:PROC				; CLord::CLord
EXTRN	?OutputDebugStringA@election@@YAXPBDZZ:PROC	; election::OutputDebugStringA
EXTRN	??0CDbController@@QAE@XZ:PROC			; CDbController::CDbController
EXTRN	??1CDbController@@UAE@XZ:PROC			; CDbController::~CDbController
EXTRN	?CreateDbHandler@CDbController@@QAEHK@Z:PROC	; CDbController::CreateDbHandler
EXTRN	?CloseDbHandler@CDbController@@QAEXXZ:PROC	; CDbController::CloseDbHandler
EXTRN	?PostRequest@CDbController@@QAEHHPAEHK@Z:PROC	; CDbController::PostRequest
EXTRN	?CreateQuery@CDbController@@QAEPAVCQuery@@XZ:PROC ; CDbController::CreateQuery
EXTRN	?Post@post@@YAXKPAVCMail@@PAVCQuery@@@Z:PROC	; post::Post
EXTRN	??0CMail@@QAE@XZ:PROC				; CMail::CMail
EXTRN	??_ECTLord@@UAEPAXI@Z:PROC			; CTLord::`vector deleting destructor'
EXTRN	??_ECTElection@@UAEPAXI@Z:PROC			; CTElection::`vector deleting destructor'
EXTRN	??_ECTLordSkill@@UAEPAXI@Z:PROC			; CTLordSkill::`vector deleting destructor'
EXTRN	??_ECLEvent@@UAEPAXI@Z:PROC			; CLEvent::`vector deleting destructor'
EXTRN	??_ECLController@@UAEPAXI@Z:PROC		; CLController::`vector deleting destructor'
EXTRN	??0CLordSkillComponentODBC@@QAE@XZ:PROC		; CLordSkillComponentODBC::CLordSkillComponentODBC
EXTRN	?GetInstance@CPlayerDataCenter@@SAPAV1@XZ:PROC	; CPlayerDataCenter::GetInstance
EXTRN	?GetPlayerData@CPlayerDataCenter@@QAEPAU_PlayerData@@K@Z:PROC ; CPlayerDataCenter::GetPlayerData
EXTRN	?GetInstance@CDPTrans@@SAPAV1@XZ:PROC		; CDPTrans::GetInstance
EXTRN	?SendElectionAddDeposit@CDPTrans@@QAEXK_JJH@Z:PROC ; CDPTrans::SendElectionAddDeposit
EXTRN	?SendElectionSetPledge@CDPTrans@@QAEXKPBDH@Z:PROC ; CDPTrans::SendElectionSetPledge
EXTRN	?SendElectionIncVote@CDPTrans@@QAEXKKH@Z:PROC	; CDPTrans::SendElectionIncVote
EXTRN	?SendElectionBeginCandidacy@CDPTrans@@QAEXXZ:PROC ; CDPTrans::SendElectionBeginCandidacy
EXTRN	?SendElectionBeginVote@CDPTrans@@QAEXH@Z:PROC	; CDPTrans::SendElectionBeginVote
EXTRN	?SendElectionEndVote@CDPTrans@@QAEXK@Z:PROC	; CDPTrans::SendElectionEndVote
EXTRN	?SendLord@CDPTrans@@QAEXK@Z:PROC		; CDPTrans::SendLord
EXTRN	?SendLEventCreate@CDPTrans@@QAEXPAVCLEComponent@@H@Z:PROC ; CDPTrans::SendLEventCreate
EXTRN	?SendLEventInitialize@CDPTrans@@QAEXXZ:PROC	; CDPTrans::SendLEventInitialize
EXTRN	?SendLordSkillTick@CDPTrans@@QAEXPAVCLordSkill@@@Z:PROC ; CDPTrans::SendLordSkillTick
EXTRN	?SendLEventTick@CDPTrans@@QAEXPAVILordEvent@@@Z:PROC ; CDPTrans::SendLEventTick
EXTRN	@__security_check_cookie@4:PROC
EXTRN	__CxxThrowException@8:PROC
EXTRN	___CxxFrameHandler3:PROC
EXTRN	__alldiv:PROC
EXTRN	__chkstk:PROC
EXTRN	__ftol3:PROC
EXTRN	__ltof3:PROC
EXTRN	_memcpy:PROC
EXTRN	_memmove:PROC
EXTRN	_memset:PROC
EXTRN	__Init_thread_epoch:DWORD
EXTRN	??_7type_info@@6B@:QWORD			; type_info::`vftable'
EXTRN	?g_next@@3KA:DWORD				; g_next
EXTRN	?prj@@3VCProject@@A:BYTE			; prj
EXTRN	?g_appInfo@@3UAppInfo@@A:QWORD			; g_appInfo
EXTRN	___security_cookie:DWORD
EXTRN	__fltused:DWORD
EXTRN	__tls_array:DWORD
EXTRN	__tls_index:DWORD
;	COMDAT ?_OptionsStorage@?1??__local_stdio_printf_options@@9@4_KA
_BSS	SEGMENT
?_OptionsStorage@?1??__local_stdio_printf_options@@9@4_KA DQ 01H DUP (?) ; `__local_stdio_printf_options'::`2'::_OptionsStorage
_BSS	ENDS
;	COMDAT ?sLord@?1??Instance@CTLord@@SAPAV2@XZ@4V2@A
_BSS	SEGMENT
?sLord@?1??Instance@CTLord@@SAPAV2@XZ@4V2@A DB 018H DUP (?) ; `CTLord::Instance'::`2'::sLord
_BSS	ENDS
;	COMDAT ?$TSS0@?1??Instance@CTLord@@SAPAV2@XZ@4HA
_BSS	SEGMENT
?$TSS0@?1??Instance@CTLord@@SAPAV2@XZ@4HA DD 01H DUP (?) ; `CTLord::Instance'::`2'::$TSS0
_BSS	ENDS
;	COMDAT __real@42c80000
CONST	SEGMENT
__real@42c80000 DD 042c80000r			; 100
CONST	ENDS
;	COMDAT __real@00000000
CONST	SEGMENT
__real@00000000 DD 000000000r			; 0
CONST	ENDS
;	COMDAT ??_R2ILordEvent@@8
rdata$r	SEGMENT
??_R2ILordEvent@@8 DD FLAT:??_R1A@?0A@EA@ILordEvent@@8	; ILordEvent::`RTTI Base Class Array'
rdata$r	ENDS
;	COMDAT ??_R3ILordEvent@@8
rdata$r	SEGMENT
??_R3ILordEvent@@8 DD 00H				; ILordEvent::`RTTI Class Hierarchy Descriptor'
	DD	00H
	DD	01H
	DD	FLAT:??_R2ILordEvent@@8
rdata$r	ENDS
;	COMDAT ??_R0?AVILordEvent@@@8
data$rs	SEGMENT
??_R0?AVILordEvent@@@8 DD FLAT:??_7type_info@@6B@	; ILordEvent `RTTI Type Descriptor'
	DD	00H
	DB	'.?AVILordEvent@@', 00H
data$rs	ENDS
;	COMDAT ??_R1A@?0A@EA@ILordEvent@@8
rdata$r	SEGMENT
??_R1A@?0A@EA@ILordEvent@@8 DD FLAT:??_R0?AVILordEvent@@@8 ; ILordEvent::`RTTI Base Class Descriptor at (0,-1,0,64)'
	DD	00H
	DD	00H
	DD	0ffffffffH
	DD	00H
	DD	040H
	DD	FLAT:??_R3ILordEvent@@8
rdata$r	ENDS
;	COMDAT ??_R1A@?0A@EA@CLEvent@@8
rdata$r	SEGMENT
??_R1A@?0A@EA@CLEvent@@8 DD FLAT:??_R0?AVCLEvent@@@8	; CLEvent::`RTTI Base Class Descriptor at (0,-1,0,64)'
	DD	01H
	DD	00H
	DD	0ffffffffH
	DD	00H
	DD	040H
	DD	FLAT:??_R3CLEvent@@8
rdata$r	ENDS
;	COMDAT ??_R2CLEvent@@8
rdata$r	SEGMENT
??_R2CLEvent@@8 DD FLAT:??_R1A@?0A@EA@CLEvent@@8	; CLEvent::`RTTI Base Class Array'
	DD	FLAT:??_R1A@?0A@EA@ILordEvent@@8
rdata$r	ENDS
;	COMDAT ??_R3CLEvent@@8
rdata$r	SEGMENT
??_R3CLEvent@@8 DD 00H					; CLEvent::`RTTI Class Hierarchy Descriptor'
	DD	00H
	DD	02H
	DD	FLAT:??_R2CLEvent@@8
rdata$r	ENDS
;	COMDAT ??_R0?AVCLEvent@@@8
data$rs	SEGMENT
??_R0?AVCLEvent@@@8 DD FLAT:??_7type_info@@6B@		; CLEvent `RTTI Type Descriptor'
	DD	00H
	DB	'.?AVCLEvent@@', 00H
data$rs	ENDS
;	COMDAT ??_R4CLEvent@@6B@
rdata$r	SEGMENT
??_R4CLEvent@@6B@ DD 00H				; CLEvent::`RTTI Complete Object Locator'
	DD	00H
	DD	00H
	DD	FLAT:??_R0?AVCLEvent@@@8
	DD	FLAT:??_R3CLEvent@@8
rdata$r	ENDS
;	COMDAT ??_R2CLordSkill@@8
rdata$r	SEGMENT
??_R2CLordSkill@@8 DD FLAT:??_R1A@?0A@EA@CLordSkill@@8	; CLordSkill::`RTTI Base Class Array'
rdata$r	ENDS
;	COMDAT ??_R3CLordSkill@@8
rdata$r	SEGMENT
??_R3CLordSkill@@8 DD 00H				; CLordSkill::`RTTI Class Hierarchy Descriptor'
	DD	00H
	DD	01H
	DD	FLAT:??_R2CLordSkill@@8
rdata$r	ENDS
;	COMDAT ??_R0?AVCLordSkill@@@8
data$rs	SEGMENT
??_R0?AVCLordSkill@@@8 DD FLAT:??_7type_info@@6B@	; CLordSkill `RTTI Type Descriptor'
	DD	00H
	DB	'.?AVCLordSkill@@', 00H
data$rs	ENDS
;	COMDAT ??_R1A@?0A@EA@CLordSkill@@8
rdata$r	SEGMENT
??_R1A@?0A@EA@CLordSkill@@8 DD FLAT:??_R0?AVCLordSkill@@@8 ; CLordSkill::`RTTI Base Class Descriptor at (0,-1,0,64)'
	DD	00H
	DD	00H
	DD	0ffffffffH
	DD	00H
	DD	040H
	DD	FLAT:??_R3CLordSkill@@8
rdata$r	ENDS
;	COMDAT ??_R1A@?0A@EA@CTLordSkill@@8
rdata$r	SEGMENT
??_R1A@?0A@EA@CTLordSkill@@8 DD FLAT:??_R0?AVCTLordSkill@@@8 ; CTLordSkill::`RTTI Base Class Descriptor at (0,-1,0,64)'
	DD	01H
	DD	00H
	DD	0ffffffffH
	DD	00H
	DD	040H
	DD	FLAT:??_R3CTLordSkill@@8
rdata$r	ENDS
;	COMDAT ??_R2CTLordSkill@@8
rdata$r	SEGMENT
??_R2CTLordSkill@@8 DD FLAT:??_R1A@?0A@EA@CTLordSkill@@8 ; CTLordSkill::`RTTI Base Class Array'
	DD	FLAT:??_R1A@?0A@EA@CLordSkill@@8
rdata$r	ENDS
;	COMDAT ??_R3CTLordSkill@@8
rdata$r	SEGMENT
??_R3CTLordSkill@@8 DD 00H				; CTLordSkill::`RTTI Class Hierarchy Descriptor'
	DD	00H
	DD	02H
	DD	FLAT:??_R2CTLordSkill@@8
rdata$r	ENDS
;	COMDAT ??_R0?AVCTLordSkill@@@8
data$rs	SEGMENT
??_R0?AVCTLordSkill@@@8 DD FLAT:??_7type_info@@6B@	; CTLordSkill `RTTI Type Descriptor'
	DD	00H
	DB	'.?AVCTLordSkill@@', 00H
data$rs	ENDS
;	COMDAT ??_R4CTLordSkill@@6B@
rdata$r	SEGMENT
??_R4CTLordSkill@@6B@ DD 00H				; CTLordSkill::`RTTI Complete Object Locator'
	DD	00H
	DD	00H
	DD	FLAT:??_R0?AVCTLordSkill@@@8
	DD	FLAT:??_R3CTLordSkill@@8
rdata$r	ENDS
;	COMDAT ??_R2IElection@@8
rdata$r	SEGMENT
??_R2IElection@@8 DD FLAT:??_R1A@?0A@EA@IElection@@8	; IElection::`RTTI Base Class Array'
rdata$r	ENDS
;	COMDAT ??_R3IElection@@8
rdata$r	SEGMENT
??_R3IElection@@8 DD 00H				; IElection::`RTTI Class Hierarchy Descriptor'
	DD	00H
	DD	01H
	DD	FLAT:??_R2IElection@@8
rdata$r	ENDS
;	COMDAT ??_R0?AVIElection@@@8
data$rs	SEGMENT
??_R0?AVIElection@@@8 DD FLAT:??_7type_info@@6B@	; IElection `RTTI Type Descriptor'
	DD	00H
	DB	'.?AVIElection@@', 00H
data$rs	ENDS
;	COMDAT ??_R1A@?0A@EA@IElection@@8
rdata$r	SEGMENT
??_R1A@?0A@EA@IElection@@8 DD FLAT:??_R0?AVIElection@@@8 ; IElection::`RTTI Base Class Descriptor at (0,-1,0,64)'
	DD	00H
	DD	00H
	DD	0ffffffffH
	DD	00H
	DD	040H
	DD	FLAT:??_R3IElection@@8
rdata$r	ENDS
;	COMDAT ??_R1A@?0A@EA@CTElection@@8
rdata$r	SEGMENT
??_R1A@?0A@EA@CTElection@@8 DD FLAT:??_R0?AVCTElection@@@8 ; CTElection::`RTTI Base Class Descriptor at (0,-1,0,64)'
	DD	01H
	DD	00H
	DD	0ffffffffH
	DD	00H
	DD	040H
	DD	FLAT:??_R3CTElection@@8
rdata$r	ENDS
;	COMDAT ??_R2CTElection@@8
rdata$r	SEGMENT
??_R2CTElection@@8 DD FLAT:??_R1A@?0A@EA@CTElection@@8	; CTElection::`RTTI Base Class Array'
	DD	FLAT:??_R1A@?0A@EA@IElection@@8
rdata$r	ENDS
;	COMDAT ??_R3CTElection@@8
rdata$r	SEGMENT
??_R3CTElection@@8 DD 00H				; CTElection::`RTTI Class Hierarchy Descriptor'
	DD	00H
	DD	02H
	DD	FLAT:??_R2CTElection@@8
rdata$r	ENDS
;	COMDAT ??_R0?AVCTElection@@@8
data$rs	SEGMENT
??_R0?AVCTElection@@@8 DD FLAT:??_7type_info@@6B@	; CTElection `RTTI Type Descriptor'
	DD	00H
	DB	'.?AVCTElection@@', 00H
data$rs	ENDS
;	COMDAT ??_R4CTElection@@6B@
rdata$r	SEGMENT
??_R4CTElection@@6B@ DD 00H				; CTElection::`RTTI Complete Object Locator'
	DD	00H
	DD	00H
	DD	FLAT:??_R0?AVCTElection@@@8
	DD	FLAT:??_R3CTElection@@8
rdata$r	ENDS
;	COMDAT ??_R2CLord@@8
rdata$r	SEGMENT
??_R2CLord@@8 DD FLAT:??_R1A@?0A@EA@CLord@@8		; CLord::`RTTI Base Class Array'
rdata$r	ENDS
;	COMDAT ??_R3CLord@@8
rdata$r	SEGMENT
??_R3CLord@@8 DD 00H					; CLord::`RTTI Class Hierarchy Descriptor'
	DD	00H
	DD	01H
	DD	FLAT:??_R2CLord@@8
rdata$r	ENDS
;	COMDAT ??_R0?AVCLord@@@8
data$rs	SEGMENT
??_R0?AVCLord@@@8 DD FLAT:??_7type_info@@6B@		; CLord `RTTI Type Descriptor'
	DD	00H
	DB	'.?AVCLord@@', 00H
data$rs	ENDS
;	COMDAT ??_R1A@?0A@EA@CLord@@8
rdata$r	SEGMENT
??_R1A@?0A@EA@CLord@@8 DD FLAT:??_R0?AVCLord@@@8	; CLord::`RTTI Base Class Descriptor at (0,-1,0,64)'
	DD	00H
	DD	00H
	DD	0ffffffffH
	DD	00H
	DD	040H
	DD	FLAT:??_R3CLord@@8
rdata$r	ENDS
;	COMDAT ??_R1A@?0A@EA@CTLord@@8
rdata$r	SEGMENT
??_R1A@?0A@EA@CTLord@@8 DD FLAT:??_R0?AVCTLord@@@8	; CTLord::`RTTI Base Class Descriptor at (0,-1,0,64)'
	DD	01H
	DD	00H
	DD	0ffffffffH
	DD	00H
	DD	040H
	DD	FLAT:??_R3CTLord@@8
rdata$r	ENDS
;	COMDAT ??_R2CTLord@@8
rdata$r	SEGMENT
??_R2CTLord@@8 DD FLAT:??_R1A@?0A@EA@CTLord@@8		; CTLord::`RTTI Base Class Array'
	DD	FLAT:??_R1A@?0A@EA@CLord@@8
rdata$r	ENDS
;	COMDAT ??_R3CTLord@@8
rdata$r	SEGMENT
??_R3CTLord@@8 DD 00H					; CTLord::`RTTI Class Hierarchy Descriptor'
	DD	00H
	DD	02H
	DD	FLAT:??_R2CTLord@@8
rdata$r	ENDS
;	COMDAT ??_R0?AVCTLord@@@8
data$rs	SEGMENT
??_R0?AVCTLord@@@8 DD FLAT:??_7type_info@@6B@		; CTLord `RTTI Type Descriptor'
	DD	00H
	DB	'.?AVCTLord@@', 00H
data$rs	ENDS
;	COMDAT ??_R4CTLord@@6B@
rdata$r	SEGMENT
??_R4CTLord@@6B@ DD 00H					; CTLord::`RTTI Complete Object Locator'
	DD	00H
	DD	00H
	DD	FLAT:??_R0?AVCTLord@@@8
	DD	FLAT:??_R3CTLord@@8
rdata$r	ENDS
;	COMDAT ??_R2CDbController@@8
rdata$r	SEGMENT
??_R2CDbController@@8 DD FLAT:??_R1A@?0A@EA@CDbController@@8 ; CDbController::`RTTI Base Class Array'
rdata$r	ENDS
;	COMDAT ??_R3CDbController@@8
rdata$r	SEGMENT
??_R3CDbController@@8 DD 00H				; CDbController::`RTTI Class Hierarchy Descriptor'
	DD	00H
	DD	01H
	DD	FLAT:??_R2CDbController@@8
rdata$r	ENDS
;	COMDAT ??_R0?AVCDbController@@@8
data$rs	SEGMENT
??_R0?AVCDbController@@@8 DD FLAT:??_7type_info@@6B@	; CDbController `RTTI Type Descriptor'
	DD	00H
	DB	'.?AVCDbController@@', 00H
data$rs	ENDS
;	COMDAT ??_R1A@?0A@EA@CDbController@@8
rdata$r	SEGMENT
??_R1A@?0A@EA@CDbController@@8 DD FLAT:??_R0?AVCDbController@@@8 ; CDbController::`RTTI Base Class Descriptor at (0,-1,0,64)'
	DD	00H
	DD	00H
	DD	0ffffffffH
	DD	00H
	DD	040H
	DD	FLAT:??_R3CDbController@@8
rdata$r	ENDS
;	COMDAT ??_R1A@?0A@EA@CLController@@8
rdata$r	SEGMENT
??_R1A@?0A@EA@CLController@@8 DD FLAT:??_R0?AVCLController@@@8 ; CLController::`RTTI Base Class Descriptor at (0,-1,0,64)'
	DD	01H
	DD	00H
	DD	0ffffffffH
	DD	00H
	DD	040H
	DD	FLAT:??_R3CLController@@8
rdata$r	ENDS
;	COMDAT ??_R2CLController@@8
rdata$r	SEGMENT
??_R2CLController@@8 DD FLAT:??_R1A@?0A@EA@CLController@@8 ; CLController::`RTTI Base Class Array'
	DD	FLAT:??_R1A@?0A@EA@CDbController@@8
rdata$r	ENDS
;	COMDAT ??_R3CLController@@8
rdata$r	SEGMENT
??_R3CLController@@8 DD 00H				; CLController::`RTTI Class Hierarchy Descriptor'
	DD	00H
	DD	02H
	DD	FLAT:??_R2CLController@@8
rdata$r	ENDS
;	COMDAT ??_R0?AVCLController@@@8
data$rs	SEGMENT
??_R0?AVCLController@@@8 DD FLAT:??_7type_info@@6B@	; CLController `RTTI Type Descriptor'
	DD	00H
	DB	'.?AVCLController@@', 00H
data$rs	ENDS
;	COMDAT ??_R4CLController@@6B@
rdata$r	SEGMENT
??_R4CLController@@6B@ DD 00H				; CLController::`RTTI Complete Object Locator'
	DD	00H
	DD	00H
	DD	FLAT:??_R0?AVCLController@@@8
	DD	FLAT:??_R3CLController@@8
rdata$r	ENDS
;	COMDAT ??_C@_06BDEJIFFK@nSkill@
CONST	SEGMENT
??_C@_06BDEJIFFK@nSkill@ DB 'nSkill', 00H		; `string'
CONST	ENDS
;	COMDAT ??_C@_0BH@OCAHAJDB@uspRestoreLordSkill?5?$CFd@
CONST	SEGMENT
??_C@_0BH@OCAHAJDB@uspRestoreLordSkill?5?$CFd@ DB 'uspRestoreLordSkill %d'
	DB	00H						; `string'
CONST	ENDS
;	COMDAT ??_C@_0BM@INGAOOO@uspLordEventTick?5?$CFd?0?5?$CFd?0?5?$CFd@
CONST	SEGMENT
??_C@_0BM@INGAOOO@uspLordEventTick?5?$CFd?0?5?$CFd?0?5?$CFd@ DB 'uspLordE'
	DB	'ventTick %d, %d, %d', 00H			; `string'
CONST	ENDS
;	COMDAT ??_C@_0BM@PHMEBJEL@uspLordSkillTick?5?$CFd?0?5?$CFd?0?5?$CFd@
CONST	SEGMENT
??_C@_0BM@PHMEBJEL@uspLordSkillTick?5?$CFd?0?5?$CFd?0?5?$CFd@ DB 'uspLord'
	DB	'SkillTick %d, %d, %d', 00H			; `string'
CONST	ENDS
;	COMDAT ??_C@_0BH@NILKABO@uspInitializeLEvent?5?$CFd@
CONST	SEGMENT
??_C@_0BH@NILKABO@uspInitializeLEvent?5?$CFd@ DB 'uspInitializeLEvent %d', 00H ; `string'
CONST	ENDS
;	COMDAT ??_C@_0CL@KGJPMKPI@uspAddLEComponent?5?$CFd?0?5?$CFd?0?5?$CFd?0?5?$CF@
CONST	SEGMENT
??_C@_0CL@KGJPMKPI@uspAddLEComponent?5?$CFd?0?5?$CFd?0?5?$CFd?0?5?$CF@ DB 'u'
	DB	'spAddLEComponent %d, %d, %d, %3.2f, %3.2f', 00H ; `string'
CONST	ENDS
;	COMDAT ??_C@_07MGNKFCA@bResult@
CONST	SEGMENT
??_C@_07MGNKFCA@bResult@ DB 'bResult', 00H		; `string'
CONST	ENDS
;	COMDAT ??_C@_0CC@MJFIHIPP@uspElectionIncVote?5?$CFd?0?5?$CFd?0?5?$CFd?0?5@
CONST	SEGMENT
??_C@_0CC@MJFIHIPP@uspElectionIncVote?5?$CFd?0?5?$CFd?0?5?$CFd?0?5@ DB 'u'
	DB	'spElectionIncVote %d, %d, %d, %d', 00H	; `string'
CONST	ENDS
;	COMDAT ??_C@_0CN@DFOIGMEI@?$HLcall?5uspElectionSetPledge?$CI?5?$CFd?0@
CONST	SEGMENT
??_C@_0CN@DFOIGMEI@?$HLcall?5uspElectionSetPledge?$CI?5?$CFd?0@ DB '{call'
	DB	' uspElectionSetPledge( %d, %d, %d, ? )}', 00H ; `string'
CONST	ENDS
;	COMDAT ??_C@_0CM@MKKLKFBM@uspElectionAddDeposit?5?$CFd?0?5?$CFd?0?5?$CF@
CONST	SEGMENT
??_C@_0CM@MKKLKFBM@uspElectionAddDeposit?5?$CFd?0?5?$CFd?0?5?$CF@ DB 'usp'
	DB	'ElectionAddDeposit %d, %d, %d, %I64d, %d', 00H ; `string'
CONST	ENDS
;	COMDAT ??_C@_0CC@KFNJJIIE@uspElectionEndVote?5?$CFd?0?5?$CFd?0?5?$CFd?0?5@
CONST	SEGMENT
??_C@_0CC@KFNJJIIE@uspElectionEndVote?5?$CFd?0?5?$CFd?0?5?$CFd?0?5@ DB 'u'
	DB	'spElectionEndVote %d, %d, %d, %s', 00H	; `string'
CONST	ENDS
;	COMDAT ??_C@_0BM@CADCBIMM@uspElectionBeginVote?5?$CFd?0?5?$CFd@
CONST	SEGMENT
??_C@_0BM@CADCBIMM@uspElectionBeginVote?5?$CFd?0?5?$CFd@ DB 'uspElectionB'
	DB	'eginVote %d, %d', 00H			; `string'
CONST	ENDS
;	COMDAT ??_C@_0CB@IFBIPCGL@uspElectionBeginCandidacy?5?$CFd?0?5?$CF@
CONST	SEGMENT
??_C@_0CB@IFBIPCGL@uspElectionBeginCandidacy?5?$CFd?0?5?$CF@ DB 'uspElect'
	DB	'ionBeginCandidacy %d, %d', 00H		; `string'
CONST	ENDS
;	COMDAT ??_C@_08IAGDPLDK@fIFactor@
CONST	SEGMENT
??_C@_08IAGDPLDK@fIFactor@ DB 'fIFactor', 00H		; `string'
CONST	ENDS
;	COMDAT ??_C@_08NHMMOOHF@fEFactor@
CONST	SEGMENT
??_C@_08NHMMOOHF@fEFactor@ DB 'fEFactor', 00H		; `string'
CONST	ENDS
;	COMDAT ??_C@_05DLOGCGOB@nTick@
CONST	SEGMENT
??_C@_05DLOGCGOB@nTick@ DB 'nTick', 00H			; `string'
CONST	ENDS
;	COMDAT ??_C@_0BE@PNIJDBCM@uspRestoreLEvent?5?$CFd@
CONST	SEGMENT
??_C@_0BE@PNIJDBCM@uspRestoreLEvent?5?$CFd@ DB 'uspRestoreLEvent %d', 00H ; `string'
CONST	ENDS
;	COMDAT ??_C@_0CF@GEOBODGJ@CTElection?4DoTestIncVote?3?5?$CF07d?0@
CONST	SEGMENT
??_C@_0CF@GEOBODGJ@CTElection?4DoTestIncVote?3?5?$CF07d?0@ DB 'CTElection'
	DB	'.DoTestIncVote: %07d, %07d', 00H		; `string'
CONST	ENDS
;	COMDAT ??_C@_0CF@EBIGHEOA@CTElection?4DoTestSetPledge?3?5?$CF07@
CONST	SEGMENT
??_C@_0CF@EBIGHEOA@CTElection?4DoTestSetPledge?3?5?$CF07@ DB 'CTElection.'
	DB	'DoTestSetPledge: %07d, %s', 00H		; `string'
CONST	ENDS
;	COMDAT ??_C@_0CN@IFFHNJAO@CTElection?4DoTestAddDeposit?3?5?$CF0@
CONST	SEGMENT
??_C@_0CN@IFFHNJAO@CTElection?4DoTestAddDeposit?3?5?$CF0@ DB 'CTElection.'
	DB	'DoTestAddDeposit: %07d, %I64d, %d', 00H	; `string'
CONST	ENDS
;	COMDAT ??_C@_0BJ@NBOADCDH@CTElection?4DoTestEndVote@
CONST	SEGMENT
??_C@_0BJ@NBOADCDH@CTElection?4DoTestEndVote@ DB 'CTElection.DoTestEndVot'
	DB	'e', 00H					; `string'
CONST	ENDS
;	COMDAT ??_C@_0BL@LMGPGHGD@CTElection?4DoTestBeginVote@
CONST	SEGMENT
??_C@_0BL@LMGPGHGD@CTElection?4DoTestBeginVote@ DB 'CTElection.DoTestBegi'
	DB	'nVote', 00H					; `string'
CONST	ENDS
;	COMDAT ??_C@_0BL@GDEBELLG@CTElection?4DoReturnDeposit@
CONST	SEGMENT
??_C@_0BL@GDEBELLG@CTElection?4DoReturnDeposit@ DB 'CTElection.DoReturnDe'
	DB	'posit', 00H					; `string'
CONST	ENDS
;	COMDAT ??_C@_0CF@DMMBMGJN@couldn?8t?5execute?5uspElectionLea@
CONST	SEGMENT
??_C@_0CF@DMMBMGJN@couldn?8t?5execute?5uspElectionLea@ DB 'couldn''t exec'
	DB	'ute uspElectionLeaveOut', 00H		; `string'
CONST	ENDS
;	COMDAT ??_C@_0BP@DDPAGKOB@uspElectionLeaveOut?5?$CFd?0?5?$CFd?0?5?$CFd@
CONST	SEGMENT
??_C@_0BP@DDPAGKOB@uspElectionLeaveOut?5?$CFd?0?5?$CFd?0?5?$CFd@ DB 'uspE'
	DB	'lectionLeaveOut %d, %d, %d', 00H		; `string'
CONST	ENDS
;	COMDAT ??_C@_0CA@EFGOLAFI@CTElection?4DoTestBeginCandidacy@
CONST	SEGMENT
??_C@_0CA@EFGOLAFI@CTElection?4DoTestBeginCandidacy@ DB 'CTElection.DoTes'
	DB	'tBeginCandidacy', 00H			; `string'
CONST	ENDS
;	COMDAT ??_C@_0CH@LCMLFLCE@couldn?8t?5execute?5uspElectionIni@
CONST	SEGMENT
??_C@_0CH@LCMLFLCE@couldn?8t?5execute?5uspElectionIni@ DB 'couldn''t exec'
	DB	'ute uspElectionInitialize', 00H		; `string'
CONST	ENDS
;	COMDAT ??_C@_0CB@FCFJFKNF@uspElectionInitialize?5?$CFd?0?5?$CFd?0?5?$CF@
CONST	SEGMENT
??_C@_0CB@FCFJFKNF@uspElectionInitialize?5?$CFd?0?5?$CFd?0?5?$CF@ DB 'usp'
	DB	'ElectionInitialize %d, %d, %s', 00H		; `string'
CONST	ENDS
;	COMDAT ??_C@_07BIPEELOH@tCreate@
CONST	SEGMENT
??_C@_07BIPEELOH@tCreate@ DB 'tCreate', 00H		; `string'
CONST	ENDS
;	COMDAT ??_C@_05ODKHLCCG@nVote@
CONST	SEGMENT
??_C@_05ODKHLCCG@nVote@ DB 'nVote', 00H			; `string'
CONST	ENDS
;	COMDAT ??_C@_08BCPGFKB@szPledge@
CONST	SEGMENT
??_C@_08BCPGFKB@szPledge@ DB 'szPledge', 00H		; `string'
CONST	ENDS
;	COMDAT ??_C@_08PIPANNIJ@iDeposit@
CONST	SEGMENT
??_C@_08PIPANNIJ@iDeposit@ DB 'iDeposit', 00H		; `string'
CONST	ENDS
;	COMDAT ??_C@_08EPHCN@idPlayer@
CONST	SEGMENT
??_C@_08EPHCN@idPlayer@ DB 'idPlayer', 00H		; `string'
CONST	ENDS
;	COMDAT ??_C@_0CG@GCHADNNB@couldn?8t?5execute?5uspRestoreCand@
CONST	SEGMENT
??_C@_0CG@GCHADNNB@couldn?8t?5execute?5uspRestoreCand@ DB 'couldn''t exec'
	DB	'ute uspRestoreCandidates', 00H		; `string'
CONST	ENDS
;	COMDAT ??_C@_0BM@CHJPNMJK@uspRestoreCandidates?5?$CFd?0?5?$CFd@
CONST	SEGMENT
??_C@_0BM@CHJPNMJK@uspRestoreCandidates?5?$CFd?0?5?$CFd@ DB 'uspRestoreCa'
	DB	'ndidates %d, %d', 00H			; `string'
CONST	ENDS
;	COMDAT ??_C@_07PJNBBDOG@szBegin@
CONST	SEGMENT
??_C@_07PJNBBDOG@szBegin@ DB 'szBegin', 00H		; `string'
CONST	ENDS
;	COMDAT ??_C@_0N@NOMIPDCI@nRequirement@
CONST	SEGMENT
??_C@_0N@NOMIPDCI@nRequirement@ DB 'nRequirement', 00H	; `string'
CONST	ENDS
;	COMDAT ??_C@_06PFLNLAJN@eState@
CONST	SEGMENT
??_C@_06PFLNLAJN@eState@ DB 'eState', 00H		; `string'
CONST	ENDS
;	COMDAT ??_C@_0L@NBMLJLBM@idElection@
CONST	SEGMENT
??_C@_0L@NBMLJLBM@idElection@ DB 'idElection', 00H	; `string'
CONST	ENDS
;	COMDAT ??_C@_0BG@KGCKLKHB@uspRestoreElection?5?$CFd@
CONST	SEGMENT
??_C@_0BG@KGCKLKHB@uspRestoreElection?5?$CFd@ DB 'uspRestoreElection %d', 00H ; `string'
CONST	ENDS
;	COMDAT ??_C@_0BE@HLJDCBPH@CTElection?4stot?3?5?$CFs@
CONST	SEGMENT
??_C@_0BE@HLJDCBPH@CTElection?4stot?3?5?$CFs@ DB 'CTElection.stot: %s', 00H ; `string'
CONST	ENDS
;	COMDAT ??_C@_0N@BNMNAMM@?$CFY?$CFm?$CFd?$CFH?$CFM?$CFS@
CONST	SEGMENT
??_C@_0N@BNMNAMM@?$CFY?$CFm?$CFd?$CFH?$CFM?$CFS@ DB '%Y%m%d%H%M%S', 00H ; `string'
CONST	ENDS
;	COMDAT ??_C@_04NHONDGDE@item@
CONST	SEGMENT
??_C@_04NHONDGDE@item@ DB 'item', 00H			; `string'
CONST	ENDS
;	COMDAT ??_C@_0BD@FJBKFPAD@fRequirementFactor@
CONST	SEGMENT
??_C@_0BD@FJBKFPAD@fRequirementFactor@ DB 'fRequirementFactor', 00H ; `string'
CONST	ENDS
;	COMDAT ??_C@_04HCCHHEEF@rate@
CONST	SEGMENT
??_C@_04HCCHHEEF@rate@ DB 'rate', 00H			; `string'
CONST	ENDS
;	COMDAT ??_C@_05NBICHHD@nDays@
CONST	SEGMENT
??_C@_05NBICHHD@nDays@ DB 'nDays', 00H			; `string'
CONST	ENDS
;	COMDAT ??_C@_05EBOKJDNL@tVote@
CONST	SEGMENT
??_C@_05EBOKJDNL@tVote@ DB 'tVote', 00H			; `string'
CONST	ENDS
;	COMDAT ??_C@_0L@CKDBDEOG@tCandidacy@
CONST	SEGMENT
??_C@_0L@CKDBDEOG@tCandidacy@ DB 'tCandidacy', 00H	; `string'
CONST	ENDS
;	COMDAT ??_C@_05DIDGHFGE@nHour@
CONST	SEGMENT
??_C@_05DIDGHFGE@nHour@ DB 'nHour', 00H			; `string'
CONST	ENDS
;	COMDAT ??_C@_0L@NLLMANDB@nDayOfWeek@
CONST	SEGMENT
??_C@_0L@NLLMANDB@nDayOfWeek@ DB 'nDayOfWeek', 00H	; `string'
CONST	ENDS
;	COMDAT ??_C@_08EMBNBNLN@property@
CONST	SEGMENT
??_C@_08EMBNBNLN@property@ DB 'property', 00H		; `string'
CONST	ENDS
;	COMDAT ??_C@_0DL@DADIAAPI@CTElection?3?3Initialize?$CI?$CJ?3?5LoadS@
CONST	SEGMENT
??_C@_0DL@DADIAAPI@CTElection?3?3Initialize?$CI?$CJ?3?5LoadS@ DB 'CTElect'
	DB	'ion::Initialize(): LoadScript(): file not found: %s', 00H ; `string'
CONST	ENDS
;	COMDAT ??_C@_06EHHKCEHL@idLord@
CONST	SEGMENT
??_C@_06EHHKCEHL@idLord@ DB 'idLord', 00H		; `string'
CONST	ENDS
;	COMDAT ??_C@_0BC@MCPIBNBK@uspRestoreLord?5?$CFd@
CONST	SEGMENT
??_C@_0BC@MCPIBNBK@uspRestoreLord?5?$CFd@ DB 'uspRestoreLord %d', 00H ; `string'
CONST	ENDS
;	COMDAT ??_C@_0BI@GMEIIJGO@CTLord?4CreateColleagues@
CONST	SEGMENT
??_C@_0BI@GMEIIJGO@CTLord?4CreateColleagues@ DB 'CTLord.CreateColleagues', 00H ; `string'
CONST	ENDS
;	COMDAT ??_C@_0O@DNECDNPA@lordskill?4txt@
CONST	SEGMENT
??_C@_0O@DNECDNPA@lordskill?4txt@ DB 'lordskill.txt', 00H ; `string'
CONST	ENDS
;	COMDAT ??_C@_0O@NKJDDJPP@lordevent?4inc@
CONST	SEGMENT
??_C@_0O@NKJDDJPP@lordevent?4inc@ DB 'lordevent.inc', 00H ; `string'
CONST	ENDS
;	COMDAT ??_C@_0N@MMPBPIHN@election?4inc@
CONST	SEGMENT
??_C@_0N@MMPBPIHN@election?4inc@ DB 'election.inc', 00H	; `string'
CONST	ENDS
;	COMDAT ??_7CLController@@6B@
CONST	SEGMENT
??_7CLController@@6B@ DD FLAT:??_R4CLController@@6B@	; CLController::`vftable'
	DD	FLAT:??_ECLController@@UAEPAXI@Z
	DD	FLAT:?Handler@CLController@@UAEXPAUtagDB_OVERLAPPED_PLUS@@K@Z
	DD	FLAT:?OnTimer@CLController@@UAEXXZ
CONST	ENDS
;	COMDAT ??_7CLEvent@@6B@
CONST	SEGMENT
??_7CLEvent@@6B@ DD FLAT:??_R4CLEvent@@6B@		; CLEvent::`vftable'
	DD	FLAT:??_ECLEvent@@UAEPAXI@Z
	DD	FLAT:?DoTestAddComponent@CLEvent@@MAEHPAVCLEComponent@@@Z
	DD	FLAT:?DoTestInitialize@CLEvent@@MAEHXZ
CONST	ENDS
;	COMDAT ??_7CTLordSkill@@6B@
CONST	SEGMENT
??_7CTLordSkill@@6B@ DD FLAT:??_R4CTLordSkill@@6B@	; CTLordSkill::`vftable'
	DD	FLAT:??_ECTLordSkill@@UAEPAXI@Z
	DD	FLAT:?CreateSkillComponent@CTLordSkill@@UAEPAVCLordSkillComponentExecutable@@H@Z
CONST	ENDS
;	COMDAT ??_7CTElection@@6B@
CONST	SEGMENT
??_7CTElection@@6B@ DD FLAT:??_R4CTElection@@6B@	; CTElection::`vftable'
	DD	FLAT:??_ECTElection@@UAEPAXI@Z
	DD	FLAT:?DoTestBeginCandidacy@CTElection@@MAEHXZ
	DD	FLAT:?DoReturnDeposit@CTElection@@MAEXXZ
	DD	FLAT:?DoTestBeginVote@CTElection@@MAEHAAH@Z
	DD	FLAT:?DoTestEndVote@CTElection@@MAEHK@Z
	DD	FLAT:?DoTestAddDeposit@CTElection@@MAEHK_JJ@Z
	DD	FLAT:?DoAddDepositComplete@CTElection@@MAEXK_JJ@Z
	DD	FLAT:?DoTestSetPledge@CTElection@@MAEHKPBD@Z
	DD	FLAT:?DoSetPlegeComplete@IElection@@MAEXXZ
	DD	FLAT:?DoTestIncVote@CTElection@@MAEHKK@Z
	DD	FLAT:?DoIncVoteComplete@IElection@@MAEXXZ
	DD	FLAT:?DoEndVoteComplete@IElection@@MAEXXZ
CONST	ENDS
;	COMDAT ??_7CTLord@@6B@
CONST	SEGMENT
??_7CTLord@@6B@ DD FLAT:??_R4CTLord@@6B@		; CTLord::`vftable'
	DD	FLAT:?CreateColleagues@CTLord@@UAEXXZ
	DD	FLAT:?DestroyColleagues@CTLord@@UAEXXZ
	DD	FLAT:?GetController@CTLord@@UAEPAVCLController@@XZ
	DD	FLAT:??_ECTLord@@UAEPAXI@Z
CONST	ENDS
;	COMDAT ??_R4bad_alloc@std@@6B@
rdata$r	SEGMENT
??_R4bad_alloc@std@@6B@ DD 00H				; std::bad_alloc::`RTTI Complete Object Locator'
	DD	00H
	DD	00H
	DD	FLAT:??_R0?AVbad_alloc@std@@@8
	DD	FLAT:??_R3bad_alloc@std@@8
rdata$r	ENDS
;	COMDAT ??_R2bad_alloc@std@@8
rdata$r	SEGMENT
??_R2bad_alloc@std@@8 DD FLAT:??_R1A@?0A@EA@bad_alloc@std@@8 ; std::bad_alloc::`RTTI Base Class Array'
	DD	FLAT:??_R1A@?0A@EA@exception@std@@8
rdata$r	ENDS
;	COMDAT ??_R3bad_alloc@std@@8
rdata$r	SEGMENT
??_R3bad_alloc@std@@8 DD 00H				; std::bad_alloc::`RTTI Class Hierarchy Descriptor'
	DD	00H
	DD	02H
	DD	FLAT:??_R2bad_alloc@std@@8
rdata$r	ENDS
;	COMDAT ??_R1A@?0A@EA@bad_alloc@std@@8
rdata$r	SEGMENT
??_R1A@?0A@EA@bad_alloc@std@@8 DD FLAT:??_R0?AVbad_alloc@std@@@8 ; std::bad_alloc::`RTTI Base Class Descriptor at (0,-1,0,64)'
	DD	01H
	DD	00H
	DD	0ffffffffH
	DD	00H
	DD	040H
	DD	FLAT:??_R3bad_alloc@std@@8
rdata$r	ENDS
;	COMDAT ??_R1A@?0A@EA@bad_array_new_length@std@@8
rdata$r	SEGMENT
??_R1A@?0A@EA@bad_array_new_length@std@@8 DD FLAT:??_R0?AVbad_array_new_length@std@@@8 ; std::bad_array_new_length::`RTTI Base Class Descriptor at (0,-1,0,64)'
	DD	02H
	DD	00H
	DD	0ffffffffH
	DD	00H
	DD	040H
	DD	FLAT:??_R3bad_array_new_length@std@@8
rdata$r	ENDS
;	COMDAT ??_R2bad_array_new_length@std@@8
rdata$r	SEGMENT
??_R2bad_array_new_length@std@@8 DD FLAT:??_R1A@?0A@EA@bad_array_new_length@std@@8 ; std::bad_array_new_length::`RTTI Base Class Array'
	DD	FLAT:??_R1A@?0A@EA@bad_alloc@std@@8
	DD	FLAT:??_R1A@?0A@EA@exception@std@@8
rdata$r	ENDS
;	COMDAT ??_R3bad_array_new_length@std@@8
rdata$r	SEGMENT
??_R3bad_array_new_length@std@@8 DD 00H			; std::bad_array_new_length::`RTTI Class Hierarchy Descriptor'
	DD	00H
	DD	03H
	DD	FLAT:??_R2bad_array_new_length@std@@8
rdata$r	ENDS
;	COMDAT ??_R4bad_array_new_length@std@@6B@
rdata$r	SEGMENT
??_R4bad_array_new_length@std@@6B@ DD 00H		; std::bad_array_new_length::`RTTI Complete Object Locator'
	DD	00H
	DD	00H
	DD	FLAT:??_R0?AVbad_array_new_length@std@@@8
	DD	FLAT:??_R3bad_array_new_length@std@@8
rdata$r	ENDS
;	COMDAT ??_R1A@?0A@EA@exception@std@@8
rdata$r	SEGMENT
??_R1A@?0A@EA@exception@std@@8 DD FLAT:??_R0?AVexception@std@@@8 ; std::exception::`RTTI Base Class Descriptor at (0,-1,0,64)'
	DD	00H
	DD	00H
	DD	0ffffffffH
	DD	00H
	DD	040H
	DD	FLAT:??_R3exception@std@@8
rdata$r	ENDS
;	COMDAT ??_R2exception@std@@8
rdata$r	SEGMENT
??_R2exception@std@@8 DD FLAT:??_R1A@?0A@EA@exception@std@@8 ; std::exception::`RTTI Base Class Array'
rdata$r	ENDS
;	COMDAT ??_R3exception@std@@8
rdata$r	SEGMENT
??_R3exception@std@@8 DD 00H				; std::exception::`RTTI Class Hierarchy Descriptor'
	DD	00H
	DD	01H
	DD	FLAT:??_R2exception@std@@8
rdata$r	ENDS
;	COMDAT ??_R4exception@std@@6B@
rdata$r	SEGMENT
??_R4exception@std@@6B@ DD 00H				; std::exception::`RTTI Complete Object Locator'
	DD	00H
	DD	00H
	DD	FLAT:??_R0?AVexception@std@@@8
	DD	FLAT:??_R3exception@std@@8
rdata$r	ENDS
;	COMDAT ??_C@_0BA@FOIKENOD@vector?5too?5long@
CONST	SEGMENT
??_C@_0BA@FOIKENOD@vector?5too?5long@ DB 'vector too long', 00H ; `string'
CONST	ENDS
;	COMDAT __CT??_R0?AVbad_alloc@std@@@8??0bad_alloc@std@@QAE@ABV01@@Z12
xdata$x	SEGMENT
__CT??_R0?AVbad_alloc@std@@@8??0bad_alloc@std@@QAE@ABV01@@Z12 DD 010H
	DD	FLAT:??_R0?AVbad_alloc@std@@@8
	DD	00H
	DD	0ffffffffH
	ORG $+4
	DD	0cH
	DD	FLAT:??0bad_alloc@std@@QAE@ABV01@@Z
xdata$x	ENDS
;	COMDAT ??_R0?AVbad_alloc@std@@@8
data$r	SEGMENT
??_R0?AVbad_alloc@std@@@8 DD FLAT:??_7type_info@@6B@	; std::bad_alloc `RTTI Type Descriptor'
	DD	00H
	DB	'.?AVbad_alloc@std@@', 00H
data$r	ENDS
;	COMDAT __CT??_R0?AVbad_array_new_length@std@@@8??0bad_array_new_length@std@@QAE@ABV01@@Z12
xdata$x	SEGMENT
__CT??_R0?AVbad_array_new_length@std@@@8??0bad_array_new_length@std@@QAE@ABV01@@Z12 DD 00H
	DD	FLAT:??_R0?AVbad_array_new_length@std@@@8
	DD	00H
	DD	0ffffffffH
	ORG $+4
	DD	0cH
	DD	FLAT:??0bad_array_new_length@std@@QAE@ABV01@@Z
xdata$x	ENDS
;	COMDAT ??_R0?AVbad_array_new_length@std@@@8
data$r	SEGMENT
??_R0?AVbad_array_new_length@std@@@8 DD FLAT:??_7type_info@@6B@ ; std::bad_array_new_length `RTTI Type Descriptor'
	DD	00H
	DB	'.?AVbad_array_new_length@std@@', 00H
data$r	ENDS
;	COMDAT __CTA3?AVbad_array_new_length@std@@
xdata$x	SEGMENT
__CTA3?AVbad_array_new_length@std@@ DD 03H
	DD	FLAT:__CT??_R0?AVbad_array_new_length@std@@@8??0bad_array_new_length@std@@QAE@ABV01@@Z12
	DD	FLAT:__CT??_R0?AVbad_alloc@std@@@8??0bad_alloc@std@@QAE@ABV01@@Z12
	DD	FLAT:__CT??_R0?AVexception@std@@@8??0exception@std@@QAE@ABV01@@Z12
xdata$x	ENDS
;	COMDAT __TI3?AVbad_array_new_length@std@@
xdata$x	SEGMENT
__TI3?AVbad_array_new_length@std@@ DD 00H
	DD	FLAT:??1bad_array_new_length@std@@UAE@XZ
	DD	00H
	DD	FLAT:__CTA3?AVbad_array_new_length@std@@
xdata$x	ENDS
;	COMDAT __CT??_R0?AVexception@std@@@8??0exception@std@@QAE@ABV01@@Z12
xdata$x	SEGMENT
__CT??_R0?AVexception@std@@@8??0exception@std@@QAE@ABV01@@Z12 DD 00H
	DD	FLAT:??_R0?AVexception@std@@@8
	DD	00H
	DD	0ffffffffH
	ORG $+4
	DD	0cH
	DD	FLAT:??0exception@std@@QAE@ABV01@@Z
xdata$x	ENDS
;	COMDAT ??_R0?AVexception@std@@@8
data$r	SEGMENT
??_R0?AVexception@std@@@8 DD FLAT:??_7type_info@@6B@	; std::exception `RTTI Type Descriptor'
	DD	00H
	DB	'.?AVexception@std@@', 00H
data$r	ENDS
;	COMDAT ??_C@_0BF@KINCDENJ@bad?5array?5new?5length@
CONST	SEGMENT
??_C@_0BF@KINCDENJ@bad?5array?5new?5length@ DB 'bad array new length', 00H ; `string'
CONST	ENDS
;	COMDAT ??_7bad_array_new_length@std@@6B@
CONST	SEGMENT
??_7bad_array_new_length@std@@6B@ DD FLAT:??_R4bad_array_new_length@std@@6B@ ; std::bad_array_new_length::`vftable'
	DD	FLAT:??_Ebad_array_new_length@std@@UAEPAXI@Z
	DD	FLAT:?what@exception@std@@UBEPBDXZ
CONST	ENDS
;	COMDAT ??_7bad_alloc@std@@6B@
CONST	SEGMENT
??_7bad_alloc@std@@6B@ DD FLAT:??_R4bad_alloc@std@@6B@	; std::bad_alloc::`vftable'
	DD	FLAT:??_Ebad_alloc@std@@UAEPAXI@Z
	DD	FLAT:?what@exception@std@@UBEPBDXZ
CONST	ENDS
;	COMDAT ??_C@_0BC@EOODALEL@Unknown?5exception@
CONST	SEGMENT
??_C@_0BC@EOODALEL@Unknown?5exception@ DB 'Unknown exception', 00H ; `string'
CONST	ENDS
;	COMDAT ??_7exception@std@@6B@
CONST	SEGMENT
??_7exception@std@@6B@ DD FLAT:??_R4exception@std@@6B@	; std::exception::`vftable'
	DD	FLAT:??_Eexception@std@@UAEPAXI@Z
	DD	FLAT:?what@exception@std@@UBEPBDXZ
CONST	ENDS
;	COMDAT ??_C@_00CNPNBAHC@@
CONST	SEGMENT
??_C@_00CNPNBAHC@@ DB 00H				; `string'
CONST	ENDS
;	COMDAT xdata$x
xdata$x	SEGMENT
__unwindtable$?EndVote@CLController@@QAEHK@Z DD 0ffffffffH
	DD	FLAT:__unwindfunclet$?EndVote@CLController@@QAEHK@Z$0
__ehfuncinfo$?EndVote@CLController@@QAEHK@Z DD 019930522H
	DD	01H
	DD	FLAT:__unwindtable$?EndVote@CLController@@QAEHK@Z
	DD	2 DUP(00H)
	DD	2 DUP(00H)
	DD	00H
	DD	01H
xdata$x	ENDS
;	COMDAT xdata$x
xdata$x	SEGMENT
__unwindtable$??RPostDeposit@@QBEXABV?$shared_ptr@VCCandidate@@@std@@@Z DD 0ffffffffH
	DD	FLAT:__unwindfunclet$??RPostDeposit@@QBEXABV?$shared_ptr@VCCandidate@@@std@@@Z$0
	DD	0ffffffffH
	DD	FLAT:__unwindfunclet$??RPostDeposit@@QBEXABV?$shared_ptr@VCCandidate@@@std@@@Z$1
__ehfuncinfo$??RPostDeposit@@QBEXABV?$shared_ptr@VCCandidate@@@std@@@Z DD 019930522H
	DD	02H
	DD	FLAT:__unwindtable$??RPostDeposit@@QBEXABV?$shared_ptr@VCCandidate@@@std@@@Z
	DD	2 DUP(00H)
	DD	2 DUP(00H)
	DD	00H
	DD	01H
xdata$x	ENDS
;	COMDAT xdata$x
xdata$x	SEGMENT
__unwindtable$?Restore@CLEvent@@QAEHPAVCQuery@@@Z DD 0ffffffffH
	DD	FLAT:__unwindfunclet$?Restore@CLEvent@@QAEHPAVCQuery@@@Z$0
__ehfuncinfo$?Restore@CLEvent@@QAEHPAVCQuery@@@Z DD 019930522H
	DD	01H
	DD	FLAT:__unwindtable$?Restore@CLEvent@@QAEHPAVCQuery@@@Z
	DD	2 DUP(00H)
	DD	2 DUP(00H)
	DD	00H
	DD	01H
xdata$x	ENDS
;	COMDAT xdata$x
xdata$x	SEGMENT
__unwindtable$?CreateSkillComponent@CTLordSkill@@UAEPAVCLordSkillComponentExecutable@@H@Z DD 0ffffffffH
	DD	FLAT:__unwindfunclet$?CreateSkillComponent@CTLordSkill@@UAEPAVCLordSkillComponentExecutable@@H@Z$0
__ehfuncinfo$?CreateSkillComponent@CTLordSkill@@UAEPAVCLordSkillComponentExecutable@@H@Z DD 019930522H
	DD	01H
	DD	FLAT:__unwindtable$?CreateSkillComponent@CTLordSkill@@UAEPAVCLordSkillComponentExecutable@@H@Z
	DD	2 DUP(00H)
	DD	2 DUP(00H)
	DD	00H
	DD	01H
xdata$x	ENDS
;	COMDAT xdata$x
xdata$x	SEGMENT
__unwindtable$?PostLordItems@CTElection@@AAEXK@Z DD 0ffffffffH
	DD	FLAT:__unwindfunclet$?PostLordItems@CTElection@@AAEXK@Z$0
__ehfuncinfo$?PostLordItems@CTElection@@AAEXK@Z DD 019930522H
	DD	01H
	DD	FLAT:__unwindtable$?PostLordItems@CTElection@@AAEXK@Z
	DD	2 DUP(00H)
	DD	2 DUP(00H)
	DD	00H
	DD	01H
xdata$x	ENDS
;	COMDAT xdata$x
xdata$x	SEGMENT
__unwindtable$?PostItem@CTElection@@AAEXKAAU_PostItemStruct@@@Z DD 0ffffffffH
	DD	FLAT:__unwindfunclet$?PostItem@CTElection@@AAEXKAAU_PostItemStruct@@@Z$0
	DD	0ffffffffH
	DD	FLAT:__unwindfunclet$?PostItem@CTElection@@AAEXKAAU_PostItemStruct@@@Z$1
__ehfuncinfo$?PostItem@CTElection@@AAEXKAAU_PostItemStruct@@@Z DD 019930522H
	DD	02H
	DD	FLAT:__unwindtable$?PostItem@CTElection@@AAEXKAAU_PostItemStruct@@@Z
	DD	2 DUP(00H)
	DD	2 DUP(00H)
	DD	00H
	DD	01H
xdata$x	ENDS
;	COMDAT xdata$x
xdata$x	SEGMENT
__unwindtable$?ReadIni@CTElection@@AAEHPBD@Z DD 0ffffffffH
	DD	FLAT:__unwindfunclet$?ReadIni@CTElection@@AAEHPBD@Z$0
__ehfuncinfo$?ReadIni@CTElection@@AAEHPBD@Z DD 019930522H
	DD	01H
	DD	FLAT:__unwindtable$?ReadIni@CTElection@@AAEHPBD@Z
	DD	2 DUP(00H)
	DD	2 DUP(00H)
	DD	00H
	DD	01H
xdata$x	ENDS
;	COMDAT xdata$x
xdata$x	SEGMENT
__unwindtable$?ttos@CTElection@@SA?AV?$CStringT@DV?$StrTraitMFC@DV?$ChTraitsCRT@D@ATL@@@@@ATL@@J@Z DD 0ffffffffH
	DD	00H
	DD	0ffffffffH
	DD	FLAT:__unwindfunclet$?ttos@CTElection@@SA?AV?$CStringT@DV?$StrTraitMFC@DV?$ChTraitsCRT@D@ATL@@@@@ATL@@J@Z$3
__ehfuncinfo$?ttos@CTElection@@SA?AV?$CStringT@DV?$StrTraitMFC@DV?$ChTraitsCRT@D@ATL@@@@@ATL@@J@Z DD 019930522H
	DD	02H
	DD	FLAT:__unwindtable$?ttos@CTElection@@SA?AV?$CStringT@DV?$StrTraitMFC@DV?$ChTraitsCRT@D@ATL@@@@@ATL@@J@Z
	DD	2 DUP(00H)
	DD	2 DUP(00H)
	DD	00H
	DD	01H
xdata$x	ENDS
;	COMDAT xdata$x
xdata$x	SEGMENT
__unwindtable$?Restore@CTElection@@QAEHPAVCQuery@@@Z DD 0ffffffffH
	DD	FLAT:__unwindfunclet$?Restore@CTElection@@QAEHPAVCQuery@@@Z$0
__ehfuncinfo$?Restore@CTElection@@QAEHPAVCQuery@@@Z DD 019930522H
	DD	01H
	DD	FLAT:__unwindtable$?Restore@CTElection@@QAEHPAVCQuery@@@Z
	DD	2 DUP(00H)
	DD	2 DUP(00H)
	DD	00H
	DD	01H
xdata$x	ENDS
;	COMDAT xdata$x
xdata$x	SEGMENT
__ehfuncinfo$?Handler@CTLord@@QAEXPAUtagDB_OVERLAPPED_PLUS@@K@Z DD 019930522H
	DD	05H
	DD	FLAT:__unwindtable$?Handler@CTLord@@QAEXPAUtagDB_OVERLAPPED_PLUS@@K@Z
	DD	2 DUP(00H)
	DD	2 DUP(00H)
	DD	00H
	DD	01H
__unwindtable$?Handler@CTLord@@QAEXPAUtagDB_OVERLAPPED_PLUS@@K@Z DD 0ffffffffH
	DD	FLAT:__unwindfunclet$?Handler@CTLord@@QAEXPAUtagDB_OVERLAPPED_PLUS@@K@Z$0
	DD	0ffffffffH
	DD	FLAT:__unwindfunclet$?Handler@CTLord@@QAEXPAUtagDB_OVERLAPPED_PLUS@@K@Z$1
	DD	0ffffffffH
	DD	FLAT:__unwindfunclet$?Handler@CTLord@@QAEXPAUtagDB_OVERLAPPED_PLUS@@K@Z$2
	DD	0ffffffffH
	DD	FLAT:__unwindfunclet$?Handler@CTLord@@QAEXPAUtagDB_OVERLAPPED_PLUS@@K@Z$3
	DD	0ffffffffH
	DD	FLAT:__unwindfunclet$?Handler@CTLord@@QAEXPAUtagDB_OVERLAPPED_PLUS@@K@Z$4
xdata$x	ENDS
;	COMDAT xdata$x
xdata$x	SEGMENT
__unwindtable$?CreateColleagues@CTLord@@UAEXXZ DD 0ffffffffH
	DD	FLAT:__unwindfunclet$?CreateColleagues@CTLord@@UAEXXZ$0
	DD	0ffffffffH
	DD	FLAT:__unwindfunclet$?CreateColleagues@CTLord@@UAEXXZ$1
	DD	0ffffffffH
	DD	FLAT:__unwindfunclet$?CreateColleagues@CTLord@@UAEXXZ$2
	DD	0ffffffffH
	DD	FLAT:__unwindfunclet$?CreateColleagues@CTLord@@UAEXXZ$3
__ehfuncinfo$?CreateColleagues@CTLord@@UAEXXZ DD 019930522H
	DD	04H
	DD	FLAT:__unwindtable$?CreateColleagues@CTLord@@UAEXXZ
	DD	2 DUP(00H)
	DD	2 DUP(00H)
	DD	00H
	DD	01H
xdata$x	ENDS
;	COMDAT xdata$x
xdata$x	SEGMENT
__unwindtable$?Instance@CTLord@@SAPAV1@XZ DD 0ffffffffH
	DD	FLAT:__unwindfunclet$?Instance@CTLord@@SAPAV1@XZ$0
__ehfuncinfo$?Instance@CTLord@@SAPAV1@XZ DD 019930522H
	DD	01H
	DD	FLAT:__unwindtable$?Instance@CTLord@@SAPAV1@XZ
	DD	2 DUP(00H)
	DD	2 DUP(00H)
	DD	00H
	DD	01H
xdata$x	ENDS
;	COMDAT xdata$x
xdata$x	SEGMENT
__unwindtable$?Format@CTime@ATL@@QBE?AV?$CStringT@DV?$StrTraitMFC@DV?$ChTraitsCRT@D@ATL@@@@@2@PBD@Z DD 0ffffffffH
	DD	FLAT:__unwindfunclet$?Format@CTime@ATL@@QBE?AV?$CStringT@DV?$StrTraitMFC@DV?$ChTraitsCRT@D@ATL@@@@@2@PBD@Z$1
	DD	0ffffffffH
	DD	FLAT:__unwindfunclet$?Format@CTime@ATL@@QBE?AV?$CStringT@DV?$StrTraitMFC@DV?$ChTraitsCRT@D@ATL@@@@@2@PBD@Z$2
__ehfuncinfo$?Format@CTime@ATL@@QBE?AV?$CStringT@DV?$StrTraitMFC@DV?$ChTraitsCRT@D@ATL@@@@@2@PBD@Z DD 019930522H
	DD	02H
	DD	FLAT:__unwindtable$?Format@CTime@ATL@@QBE?AV?$CStringT@DV?$StrTraitMFC@DV?$ChTraitsCRT@D@ATL@@@@@2@PBD@Z
	DD	2 DUP(00H)
	DD	2 DUP(00H)
	DD	00H
	DD	01H
xdata$x	ENDS
;	COMDAT xdata$x
xdata$x	SEGMENT
__unwindtable$??0?$CStringT@DV?$StrTraitMFC@DV?$ChTraitsCRT@D@ATL@@@@@ATL@@QAE@PBD@Z DD 0ffffffffH
	DD	FLAT:__unwindfunclet$??0?$CStringT@DV?$StrTraitMFC@DV?$ChTraitsCRT@D@ATL@@@@@ATL@@QAE@PBD@Z$0
__ehfuncinfo$??0?$CStringT@DV?$StrTraitMFC@DV?$ChTraitsCRT@D@ATL@@@@@ATL@@QAE@PBD@Z DD 019930522H
	DD	01H
	DD	FLAT:__unwindtable$??0?$CStringT@DV?$StrTraitMFC@DV?$ChTraitsCRT@D@ATL@@@@@ATL@@QAE@PBD@Z
	DD	2 DUP(00H)
	DD	2 DUP(00H)
	DD	00H
	DD	01H
xdata$x	ENDS
; Function compile flags: /Ogtp
; File C:\Program Files\Microsoft Visual Studio\2022\Professional\VC\Tools\MSVC\14.44.35207\include\xutility
;	COMDAT ??$_Copy_memmove_tail@PAM@std@@YAPAMQBDQAMII@Z
_TEXT	SEGMENT
__First_ch$ = 8						; size = 4
__Dest$ = 12						; size = 4
__Byte_count$ = 16					; size = 4
__Object_count$ = 20					; size = 4
??$_Copy_memmove_tail@PAM@std@@YAPAMQBDQAMII@Z PROC	; std::_Copy_memmove_tail<float *>, COMDAT

; 4747 :     const char* const _First_ch, const _OutCtgIt _Dest, const size_t _Byte_count, const size_t _Object_count) {

  00000	55		 push	 ebp
  00001	8b ec		 mov	 ebp, esp
  00003	56		 push	 esi

; 4748 :     _STL_INTERNAL_CHECK(_Byte_count == _Object_count * sizeof(*_Dest));
; 4749 :     const auto _Dest_ptr = _STD _To_address(_Dest);
; 4750 :     const auto _Dest_ch  = const_cast<char*>(reinterpret_cast<const volatile char*>(_Dest_ptr));
; 4751 :     _CSTD memmove(_Dest_ch, _First_ch, _Byte_count);

  00004	8b 75 0c	 mov	 esi, DWORD PTR __Dest$[ebp]
  00007	57		 push	 edi
  00008	8b 7d 10	 mov	 edi, DWORD PTR __Byte_count$[ebp]
  0000b	57		 push	 edi
  0000c	ff 75 08	 push	 DWORD PTR __First_ch$[ebp]
  0000f	56		 push	 esi
  00010	e8 00 00 00 00	 call	 _memmove
  00015	83 c4 0c	 add	 esp, 12			; 0000000cH

; 4752 :     if constexpr (is_pointer_v<_OutCtgIt>) {
; 4753 :         (void) _Object_count;
; 4754 :         // CodeQL [SM02986] This cast is correct: we're bypassing pointer arithmetic for performance.
; 4755 :         return reinterpret_cast<_OutCtgIt>(_Dest_ch + _Byte_count);

  00018	8d 04 3e	 lea	 eax, DWORD PTR [esi+edi]
  0001b	5f		 pop	 edi
  0001c	5e		 pop	 esi

; 4756 :     } else {
; 4757 :         return _Dest + static_cast<_Iter_diff_t<_OutCtgIt>>(_Object_count);
; 4758 :     }
; 4759 : }

  0001d	5d		 pop	 ebp
  0001e	c3		 ret	 0
??$_Copy_memmove_tail@PAM@std@@YAPAMQBDQAMII@Z ENDP	; std::_Copy_memmove_tail<float *>
_TEXT	ENDS
; Function compile flags: /Ogtp
; File C:\Program Files\Microsoft Visual Studio\2022\Professional\VC\Tools\MSVC\14.44.35207\include\xutility
;	COMDAT ??$_Copy_memmove_tail@PAH@std@@YAPAHQBDQAHII@Z
_TEXT	SEGMENT
__First_ch$ = 8						; size = 4
__Dest$ = 12						; size = 4
__Byte_count$ = 16					; size = 4
__Object_count$ = 20					; size = 4
??$_Copy_memmove_tail@PAH@std@@YAPAHQBDQAHII@Z PROC	; std::_Copy_memmove_tail<int *>, COMDAT

; 4747 :     const char* const _First_ch, const _OutCtgIt _Dest, const size_t _Byte_count, const size_t _Object_count) {

  00000	55		 push	 ebp
  00001	8b ec		 mov	 ebp, esp
  00003	56		 push	 esi

; 4748 :     _STL_INTERNAL_CHECK(_Byte_count == _Object_count * sizeof(*_Dest));
; 4749 :     const auto _Dest_ptr = _STD _To_address(_Dest);
; 4750 :     const auto _Dest_ch  = const_cast<char*>(reinterpret_cast<const volatile char*>(_Dest_ptr));
; 4751 :     _CSTD memmove(_Dest_ch, _First_ch, _Byte_count);

  00004	8b 75 0c	 mov	 esi, DWORD PTR __Dest$[ebp]
  00007	57		 push	 edi
  00008	8b 7d 10	 mov	 edi, DWORD PTR __Byte_count$[ebp]
  0000b	57		 push	 edi
  0000c	ff 75 08	 push	 DWORD PTR __First_ch$[ebp]
  0000f	56		 push	 esi
  00010	e8 00 00 00 00	 call	 _memmove
  00015	83 c4 0c	 add	 esp, 12			; 0000000cH

; 4752 :     if constexpr (is_pointer_v<_OutCtgIt>) {
; 4753 :         (void) _Object_count;
; 4754 :         // CodeQL [SM02986] This cast is correct: we're bypassing pointer arithmetic for performance.
; 4755 :         return reinterpret_cast<_OutCtgIt>(_Dest_ch + _Byte_count);

  00018	8d 04 3e	 lea	 eax, DWORD PTR [esi+edi]
  0001b	5f		 pop	 edi
  0001c	5e		 pop	 esi

; 4756 :     } else {
; 4757 :         return _Dest + static_cast<_Iter_diff_t<_OutCtgIt>>(_Object_count);
; 4758 :     }
; 4759 : }

  0001d	5d		 pop	 ebp
  0001e	c3		 ret	 0
??$_Copy_memmove_tail@PAH@std@@YAPAHQBDQAHII@Z ENDP	; std::_Copy_memmove_tail<int *>
_TEXT	ENDS
; Function compile flags: /Ogtp
; File C:\Program Files\Microsoft Visual Studio\2022\Professional\VC\Tools\MSVC\14.44.35207\include\xutility
;	COMDAT ??$_Copy_memmove@PAMPAM@std@@YAPAMPAM00@Z
_TEXT	SEGMENT
__First$ = 8						; size = 4
__Last$ = 12						; size = 4
__Dest$ = 16						; size = 4
??$_Copy_memmove@PAMPAM@std@@YAPAMPAM00@Z PROC		; std::_Copy_memmove<float *,float *>, COMDAT

; 4762 : _OutCtgIt _Copy_memmove(_CtgIt _First, _CtgIt _Last, _OutCtgIt _Dest) {

  00000	55		 push	 ebp
  00001	8b ec		 mov	 ebp, esp

; 4763 :     _STL_INTERNAL_CHECK(_First <= _Last);
; 4764 :     const auto _First_ptr    = _STD _To_address(_First);
; 4765 :     const auto _Last_ptr     = _STD _To_address(_Last);
; 4766 :     const auto _Object_count = static_cast<size_t>(_Last_ptr - _First_ptr);

  00003	8b 55 08	 mov	 edx, DWORD PTR __First$[ebp]
  00006	8b 4d 0c	 mov	 ecx, DWORD PTR __Last$[ebp]
  00009	2b ca		 sub	 ecx, edx
  0000b	8b c1		 mov	 eax, ecx
  0000d	c1 f8 02	 sar	 eax, 2

; 4767 :     const auto _First_ch     = const_cast<const char*>(reinterpret_cast<const volatile char*>(_First_ptr));
; 4768 :     const auto _Last_ch      = const_cast<const char*>(reinterpret_cast<const volatile char*>(_Last_ptr));
; 4769 :     const auto _Byte_count   = static_cast<size_t>(_Last_ch - _First_ch);
; 4770 :     return _STD _Copy_memmove_tail(_First_ch, _STD move(_Dest), _Byte_count, _Object_count);

  00010	50		 push	 eax
  00011	51		 push	 ecx
  00012	ff 75 10	 push	 DWORD PTR __Dest$[ebp]
  00015	52		 push	 edx
  00016	e8 00 00 00 00	 call	 ??$_Copy_memmove_tail@PAM@std@@YAPAMQBDQAMII@Z ; std::_Copy_memmove_tail<float *>
  0001b	83 c4 10	 add	 esp, 16			; 00000010H

; 4771 : }

  0001e	5d		 pop	 ebp
  0001f	c3		 ret	 0
??$_Copy_memmove@PAMPAM@std@@YAPAMPAM00@Z ENDP		; std::_Copy_memmove<float *,float *>
_TEXT	ENDS
; Function compile flags: /Ogtp
; File C:\Program Files\Microsoft Visual Studio\2022\Professional\VC\Tools\MSVC\14.44.35207\include\xutility
;	COMDAT ??$_Copy_memmove@PAHPAH@std@@YAPAHPAH00@Z
_TEXT	SEGMENT
__First$ = 8						; size = 4
__Last$ = 12						; size = 4
__Dest$ = 16						; size = 4
??$_Copy_memmove@PAHPAH@std@@YAPAHPAH00@Z PROC		; std::_Copy_memmove<int *,int *>, COMDAT

; 4762 : _OutCtgIt _Copy_memmove(_CtgIt _First, _CtgIt _Last, _OutCtgIt _Dest) {

  00000	55		 push	 ebp
  00001	8b ec		 mov	 ebp, esp

; 4763 :     _STL_INTERNAL_CHECK(_First <= _Last);
; 4764 :     const auto _First_ptr    = _STD _To_address(_First);
; 4765 :     const auto _Last_ptr     = _STD _To_address(_Last);
; 4766 :     const auto _Object_count = static_cast<size_t>(_Last_ptr - _First_ptr);

  00003	8b 55 08	 mov	 edx, DWORD PTR __First$[ebp]
  00006	8b 4d 0c	 mov	 ecx, DWORD PTR __Last$[ebp]
  00009	2b ca		 sub	 ecx, edx
  0000b	8b c1		 mov	 eax, ecx
  0000d	c1 f8 02	 sar	 eax, 2

; 4767 :     const auto _First_ch     = const_cast<const char*>(reinterpret_cast<const volatile char*>(_First_ptr));
; 4768 :     const auto _Last_ch      = const_cast<const char*>(reinterpret_cast<const volatile char*>(_Last_ptr));
; 4769 :     const auto _Byte_count   = static_cast<size_t>(_Last_ch - _First_ch);
; 4770 :     return _STD _Copy_memmove_tail(_First_ch, _STD move(_Dest), _Byte_count, _Object_count);

  00010	50		 push	 eax
  00011	51		 push	 ecx
  00012	ff 75 10	 push	 DWORD PTR __Dest$[ebp]
  00015	52		 push	 edx
  00016	e8 00 00 00 00	 call	 ??$_Copy_memmove_tail@PAH@std@@YAPAHQBDQAHII@Z ; std::_Copy_memmove_tail<int *>
  0001b	83 c4 10	 add	 esp, 16			; 00000010H

; 4771 : }

  0001e	5d		 pop	 ebp
  0001f	c3		 ret	 0
??$_Copy_memmove@PAHPAH@std@@YAPAHPAH00@Z ENDP		; std::_Copy_memmove<int *,int *>
_TEXT	ENDS
; Function compile flags: /Ogtp
; File C:\Program Files\Microsoft Visual Studio\2022\Professional\VC\Tools\MSVC\14.44.35207\include\vector
; File C:\Program Files\Microsoft Visual Studio\2022\Professional\VC\Tools\MSVC\14.44.35207\include\xmemory
; File C:\Program Files\Microsoft Visual Studio\2022\Professional\VC\Tools\MSVC\14.44.35207\include\vector
; File C:\Program Files\Microsoft Visual Studio\2022\Professional\VC\Tools\MSVC\14.44.35207\include\xmemory
; File C:\Program Files\Microsoft Visual Studio\2022\Professional\VC\Tools\MSVC\14.44.35207\include\vector
; File C:\Program Files\Microsoft Visual Studio\2022\Professional\VC\Tools\MSVC\14.44.35207\include\xmemory
; File C:\Program Files\Microsoft Visual Studio\2022\Professional\VC\Tools\MSVC\14.44.35207\include\vector
; File C:\Program Files\Microsoft Visual Studio\2022\Professional\VC\Tools\MSVC\14.44.35207\include\xmemory
; File C:\Program Files\Microsoft Visual Studio\2022\Professional\VC\Tools\MSVC\14.44.35207\include\vector
; File C:\Program Files\Microsoft Visual Studio\2022\Professional\VC\Tools\MSVC\14.44.35207\include\xmemory
; File C:\Program Files\Microsoft Visual Studio\2022\Professional\VC\Tools\MSVC\14.44.35207\include\vector
; File C:\Program Files\Microsoft Visual Studio\2022\Professional\VC\Tools\MSVC\14.44.35207\include\xmemory
; File C:\Program Files\Microsoft Visual Studio\2022\Professional\VC\Tools\MSVC\14.44.35207\include\vector
; File C:\Program Files\Microsoft Visual Studio\2022\Professional\VC\Tools\MSVC\14.44.35207\include\xmemory
; File C:\Program Files\Microsoft Visual Studio\2022\Professional\VC\Tools\MSVC\14.44.35207\include\vector
; File C:\Program Files\Microsoft Visual Studio\2022\Professional\VC\Tools\MSVC\14.44.35207\include\xmemory
; File C:\Program Files\Microsoft Visual Studio\2022\Professional\VC\Tools\MSVC\14.44.35207\include\vector
; File C:\Program Files\Microsoft Visual Studio\2022\Professional\VC\Tools\MSVC\14.44.35207\include\xmemory
; File C:\Program Files\Microsoft Visual Studio\2022\Professional\VC\Tools\MSVC\14.44.35207\include\vector
; File C:\Program Files\Microsoft Visual Studio\2022\Professional\VC\Tools\MSVC\14.44.35207\include\xmemory
; File C:\Program Files\Microsoft Visual Studio\2022\Professional\VC\Tools\MSVC\14.44.35207\include\vector
;	COMDAT ??$_Emplace_reallocate@ABM@?$vector@MV?$allocator@M@std@@@std@@AAEPAMQAMABM@Z
_TEXT	SEGMENT
__Newsize$1$ = -12					; size = 4
tv716 = -8						; size = 4
tv714 = -4						; size = 4
__Whereptr$ = 8						; size = 4
_<_Val_0>$ = 12						; size = 4
??$_Emplace_reallocate@ABM@?$vector@MV?$allocator@M@std@@@std@@AAEPAMQAMABM@Z PROC ; std::vector<float,std::allocator<float> >::_Emplace_reallocate<float const &>, COMDAT
; _this$ = ecx

; 875  :     _CONSTEXPR20 pointer _Emplace_reallocate(const pointer _Whereptr, _Valty&&... _Val) {

  00000	55		 push	 ebp
  00001	8b ec		 mov	 ebp, esp
  00003	83 ec 0c	 sub	 esp, 12			; 0000000cH
  00006	53		 push	 ebx

; 876  :         // reallocate and insert by perfectly forwarding _Val at _Whereptr
; 877  :         _Alty& _Al        = _Getal();
; 878  :         auto& _My_data    = _Mypair._Myval2;
; 879  :         pointer& _Myfirst = _My_data._Myfirst;
; 880  :         pointer& _Mylast  = _My_data._Mylast;
; 881  : 
; 882  :         _STL_INTERNAL_CHECK(_Mylast == _My_data._Myend); // check that we have no unused capacity
; 883  : 
; 884  :         const auto _Whereoff = static_cast<size_type>(_Whereptr - _Myfirst);

  00007	8b 5d 08	 mov	 ebx, DWORD PTR __Whereptr$[ebp]
  0000a	56		 push	 esi
  0000b	8b f1		 mov	 esi, ecx
  0000d	57		 push	 edi
  0000e	8b 0e		 mov	 ecx, DWORD PTR [esi]
  00010	2b d9		 sub	 ebx, ecx

; 885  :         const auto _Oldsize  = static_cast<size_type>(_Mylast - _Myfirst);

  00012	8b 46 04	 mov	 eax, DWORD PTR [esi+4]
  00015	2b c1		 sub	 eax, ecx
  00017	c1 fb 02	 sar	 ebx, 2
  0001a	c1 f8 02	 sar	 eax, 2

; 886  : 
; 887  :         if (_Oldsize == max_size()) {

  0001d	3d ff ff ff 3f	 cmp	 eax, 1073741823		; 3fffffffH
  00022	0f 84 13 01 00
	00		 je	 $LN119@Emplace_re

; 1924 :         return static_cast<size_type>(_My_data._Myend - _My_data._Myfirst);

  00028	8b 56 08	 mov	 edx, DWORD PTR [esi+8]

; 889  :         }
; 890  : 
; 891  :         const size_type _Newsize = _Oldsize + 1;

  0002b	8d 78 01	 lea	 edi, DWORD PTR [eax+1]

; 1924 :         return static_cast<size_type>(_My_data._Myend - _My_data._Myfirst);

  0002e	2b d1		 sub	 edx, ecx

; 889  :         }
; 890  : 
; 891  :         const size_type _Newsize = _Oldsize + 1;

  00030	89 7d f4	 mov	 DWORD PTR __Newsize$1$[ebp], edi

; 1924 :         return static_cast<size_type>(_My_data._Myend - _My_data._Myfirst);

  00033	c1 fa 02	 sar	 edx, 2

; 2011 :         if (_Oldcapacity > _Max - _Oldcapacity / 2) {

  00036	b8 ff ff ff 3f	 mov	 eax, 1073741823		; 3fffffffH
  0003b	8b ca		 mov	 ecx, edx
  0003d	d1 e9		 shr	 ecx, 1
  0003f	2b c1		 sub	 eax, ecx
  00041	3b d0		 cmp	 edx, eax
  00043	76 14		 jbe	 SHORT $LN8@Emplace_re

; 2012 :             return _Max; // geometric growth would overflow

  00045	b8 fc ff ff ff	 mov	 eax, -4			; fffffffcH
  0004a	c7 45 f8 fc ff
	ff ff		 mov	 DWORD PTR tv716[ebp], -4 ; fffffffcH
; File C:\Program Files\Microsoft Visual Studio\2022\Professional\VC\Tools\MSVC\14.44.35207\include\xmemory

; 253  :             return _Allocate_manually_vector_aligned<_Traits>(_Bytes);

  00051	50		 push	 eax
  00052	e8 00 00 00 00	 call	 ??$_Allocate_manually_vector_aligned@U_Default_allocate_traits@std@@@std@@YAPAXI@Z ; std::_Allocate_manually_vector_aligned<std::_Default_allocate_traits>
  00057	eb 3d		 jmp	 SHORT $LN117@Emplace_re
$LN8@Emplace_re:
; File C:\Program Files\Microsoft Visual Studio\2022\Professional\VC\Tools\MSVC\14.44.35207\include\vector

; 2015 :         const size_type _Geometric = _Oldcapacity + _Oldcapacity / 2;

  00059	8d 04 11	 lea	 eax, DWORD PTR [ecx+edx]
; File C:\Program Files\Microsoft Visual Studio\2022\Professional\VC\Tools\MSVC\14.44.35207\include\xmemory

; 117  :         if (_Count > _Max_possible) {

  0005c	8b cf		 mov	 ecx, edi
  0005e	3b c7		 cmp	 eax, edi
  00060	0f 43 c8	 cmovae	 ecx, eax
  00063	81 f9 ff ff ff
	3f		 cmp	 ecx, 1073741823		; 3fffffffH
  00069	0f 87 d1 00 00
	00		 ja	 $LN120@Emplace_re

; 119  :         }
; 120  :     }
; 121  : 
; 122  :     return _Count * _Ty_size;

  0006f	8d 04 8d 00 00
	00 00		 lea	 eax, DWORD PTR [ecx*4]
  00076	89 45 f8	 mov	 DWORD PTR tv716[ebp], eax

; 227  :     if (_Bytes == 0) {

  00079	85 c0		 test	 eax, eax
  0007b	75 04		 jne	 SHORT $LN23@Emplace_re

; 228  :         return nullptr;

  0007d	33 ff		 xor	 edi, edi
  0007f	eb 1a		 jmp	 SHORT $LN22@Emplace_re
$LN23@Emplace_re:

; 229  :     }
; 230  : 
; 231  : #if _HAS_CXX20 // TRANSITION, GH-1532
; 232  :     if (_STD is_constant_evaluated()) {
; 233  :         return _Traits::_Allocate(_Bytes);
; 234  :     }
; 235  : #endif // _HAS_CXX20
; 236  : 
; 237  : #ifdef __cpp_aligned_new
; 238  :     if constexpr (_Align > __STDCPP_DEFAULT_NEW_ALIGNMENT__) {
; 239  :         size_t _Passed_align = _Align;
; 240  : #if defined(_M_IX86) || defined(_M_X64)
; 241  :         if (_Bytes >= _Big_allocation_threshold) {
; 242  :             // boost the alignment of big allocations to help autovectorization
; 243  :             _Passed_align = (_STD max)(_Align, _Big_allocation_alignment);
; 244  :         }
; 245  : #endif // defined(_M_IX86) || defined(_M_X64)
; 246  :         return _Traits::_Allocate_aligned(_Bytes, _Passed_align);
; 247  :     } else
; 248  : #endif // defined(__cpp_aligned_new)
; 249  :     {
; 250  : #if defined(_M_IX86) || defined(_M_X64)
; 251  :         if (_Bytes >= _Big_allocation_threshold) {

  00081	3d 00 10 00 00	 cmp	 eax, 4096		; 00001000H
  00086	72 08		 jb	 SHORT $LN24@Emplace_re

; 253  :             return _Allocate_manually_vector_aligned<_Traits>(_Bytes);

  00088	50		 push	 eax
  00089	e8 00 00 00 00	 call	 ??$_Allocate_manually_vector_aligned@U_Default_allocate_traits@std@@@std@@YAPAXI@Z ; std::_Allocate_manually_vector_aligned<std::_Default_allocate_traits>
  0008e	eb 06		 jmp	 SHORT $LN117@Emplace_re
$LN24@Emplace_re:

; 136  :         return ::operator new(_Bytes);

  00090	50		 push	 eax
  00091	e8 00 00 00 00	 call	 ??2@YAPAXI@Z		; operator new
$LN117@Emplace_re:
; File C:\Program Files\Microsoft Visual Studio\2022\Professional\VC\Tools\MSVC\14.44.35207\include\vector

; 900  :         _Alty_traits::construct(_Al, _STD _Unfancy(_Newvec + _Whereoff), _STD forward<_Valty>(_Val)...);

  00096	8b f8		 mov	 edi, eax
  00098	83 c4 04	 add	 esp, 4
$LN22@Emplace_re:
; File C:\Program Files\Microsoft Visual Studio\2022\Professional\VC\Tools\MSVC\14.44.35207\include\xmemory

; 732  :         ::new (const_cast<void*>(static_cast<const volatile void*>(_Ptr))) _Objty(_STD forward<_Types>(_Args)...);

  0009b	8b 45 0c	 mov	 eax, DWORD PTR _<_Val_0>$[ebp]
; File C:\Program Files\Microsoft Visual Studio\2022\Professional\VC\Tools\MSVC\14.44.35207\include\vector

; 900  :         _Alty_traits::construct(_Al, _STD _Unfancy(_Newvec + _Whereoff), _STD forward<_Valty>(_Val)...);

  0009e	8d 0c 9f	 lea	 ecx, DWORD PTR [edi+ebx*4]

; 903  :         if (_Whereptr == _Mylast) { // at back, provide strong guarantee

  000a1	8b 5d 08	 mov	 ebx, DWORD PTR __Whereptr$[ebp]
  000a4	89 4d fc	 mov	 DWORD PTR tv714[ebp], ecx
; File C:\Program Files\Microsoft Visual Studio\2022\Professional\VC\Tools\MSVC\14.44.35207\include\xmemory

; 732  :         ::new (const_cast<void*>(static_cast<const volatile void*>(_Ptr))) _Objty(_STD forward<_Types>(_Args)...);

  000a7	8b 00		 mov	 eax, DWORD PTR [eax]
  000a9	89 01		 mov	 DWORD PTR [ecx], eax
; File C:\Program Files\Microsoft Visual Studio\2022\Professional\VC\Tools\MSVC\14.44.35207\include\vector

; 903  :         if (_Whereptr == _Mylast) { // at back, provide strong guarantee

  000ab	8b 46 04	 mov	 eax, DWORD PTR [esi+4]
  000ae	8b 0e		 mov	 ecx, DWORD PTR [esi]
  000b0	3b d8		 cmp	 ebx, eax
  000b2	75 07		 jne	 SHORT $LN3@Emplace_re

; 909  :         } else { // provide basic guarantee

  000b4	8b 5d fc	 mov	 ebx, DWORD PTR tv714[ebp]
; File C:\Program Files\Microsoft Visual Studio\2022\Professional\VC\Tools\MSVC\14.44.35207\include\xmemory

; 1992 :             _STD _Copy_memmove(_UFirst, _ULast, _STD _Unfancy(_Dest));

  000b7	8b d7		 mov	 edx, edi
; File C:\Program Files\Microsoft Visual Studio\2022\Professional\VC\Tools\MSVC\14.44.35207\include\vector

; 909  :         } else { // provide basic guarantee

  000b9	eb 16		 jmp	 SHORT $LN58@Emplace_re
$LN3@Emplace_re:
; File C:\Program Files\Microsoft Visual Studio\2022\Professional\VC\Tools\MSVC\14.44.35207\include\xmemory

; 1992 :             _STD _Copy_memmove(_UFirst, _ULast, _STD _Unfancy(_Dest));

  000bb	57		 push	 edi
  000bc	53		 push	 ebx
  000bd	51		 push	 ecx
  000be	e8 00 00 00 00	 call	 ??$_Copy_memmove@PAMPAM@std@@YAPAMPAM00@Z ; std::_Copy_memmove<float *,float *>
  000c3	8b 46 04	 mov	 eax, DWORD PTR [esi+4]
  000c6	8b cb		 mov	 ecx, ebx
; File C:\Program Files\Microsoft Visual Studio\2022\Professional\VC\Tools\MSVC\14.44.35207\include\vector

; 912  :             _STD _Uninitialized_move(_Whereptr, _Mylast, _Newvec + _Whereoff + 1, _Al);

  000c8	8b 5d fc	 mov	 ebx, DWORD PTR tv714[ebp]
; File C:\Program Files\Microsoft Visual Studio\2022\Professional\VC\Tools\MSVC\14.44.35207\include\xmemory

; 1992 :             _STD _Copy_memmove(_UFirst, _ULast, _STD _Unfancy(_Dest));

  000cb	83 c4 0c	 add	 esp, 12			; 0000000cH
; File C:\Program Files\Microsoft Visual Studio\2022\Professional\VC\Tools\MSVC\14.44.35207\include\vector

; 912  :             _STD _Uninitialized_move(_Whereptr, _Mylast, _Newvec + _Whereoff + 1, _Al);

  000ce	8d 53 04	 lea	 edx, DWORD PTR [ebx+4]
$LN58@Emplace_re:

; 913  :         }
; 914  : 
; 915  :         _Guard._New_begin = nullptr;

  000d1	52		 push	 edx
  000d2	50		 push	 eax
  000d3	51		 push	 ecx
  000d4	e8 00 00 00 00	 call	 ??$_Copy_memmove@PAMPAM@std@@YAPAMPAM00@Z ; std::_Copy_memmove<float *,float *>

; 2069 :         if (_Myfirst) { // destroy and deallocate old array

  000d9	8b 06		 mov	 eax, DWORD PTR [esi]

; 913  :         }
; 914  : 
; 915  :         _Guard._New_begin = nullptr;

  000db	83 c4 0c	 add	 esp, 12			; 0000000cH

; 2069 :         if (_Myfirst) { // destroy and deallocate old array

  000de	85 c0		 test	 eax, eax
  000e0	74 2c		 je	 SHORT $LN80@Emplace_re

; 2070 :             _STD _Destroy_range(_Myfirst, _Mylast, _Al);
; 2071 :             _ASAN_VECTOR_REMOVE;
; 2072 :             _Al.deallocate(_Myfirst, static_cast<size_type>(_Myend - _Myfirst));

  000e2	8b 4e 08	 mov	 ecx, DWORD PTR [esi+8]
  000e5	2b c8		 sub	 ecx, eax
; File C:\Program Files\Microsoft Visual Studio\2022\Professional\VC\Tools\MSVC\14.44.35207\include\xmemory

; 985  :         _STD _Deallocate<_New_alignof<_Ty>>(_Ptr, sizeof(_Ty) * _Count);

  000e7	83 e1 fc	 and	 ecx, -4			; fffffffcH

; 284  :         if (_Bytes >= _Big_allocation_threshold) {

  000ea	81 f9 00 10 00
	00		 cmp	 ecx, 4096		; 00001000H
  000f0	72 12		 jb	 SHORT $LN85@Emplace_re

; 205  :     const uintptr_t _Ptr_container   = _Ptr_user[-1];

  000f2	8b 50 fc	 mov	 edx, DWORD PTR [eax-4]
  000f5	83 c1 23	 add	 ecx, 35			; 00000023H

; 206  : 
; 207  :     // If the following asserts, it likely means that we are performing
; 208  :     // an aligned delete on memory coming from an unaligned allocation.
; 209  :     _STL_ASSERT(_Ptr_user[-2] == _Big_allocation_sentinel, "invalid argument");
; 210  : 
; 211  :     // Extra paranoia on aligned allocation/deallocation; ensure _Ptr_container is
; 212  :     // in range [_Min_back_shift, _Non_user_size]
; 213  : #ifdef _DEBUG
; 214  :     constexpr uintptr_t _Min_back_shift = 2 * sizeof(void*);
; 215  : #else // ^^^ defined(_DEBUG) / !defined(_DEBUG) vvv
; 216  :     constexpr uintptr_t _Min_back_shift = sizeof(void*);
; 217  : #endif // ^^^ !defined(_DEBUG) ^^^
; 218  :     const uintptr_t _Back_shift = reinterpret_cast<uintptr_t>(_Ptr) - _Ptr_container;

  000f8	2b c2		 sub	 eax, edx

; 219  :     _STL_VERIFY(_Back_shift >= _Min_back_shift && _Back_shift <= _Non_user_size, "invalid argument");

  000fa	83 c0 fc	 add	 eax, -4			; fffffffcH
  000fd	83 f8 1f	 cmp	 eax, 31			; 0000001fH
  00100	77 2a		 ja	 SHORT $LN84@Emplace_re

; 220  :     _Ptr = reinterpret_cast<void*>(_Ptr_container);

  00102	8b c2		 mov	 eax, edx
$LN85@Emplace_re:

; 289  :         ::operator delete(_Ptr, _Bytes);

  00104	51		 push	 ecx
  00105	50		 push	 eax
  00106	e8 00 00 00 00	 call	 ??3@YAXPAXI@Z		; operator delete
  0010b	83 c4 08	 add	 esp, 8
$LN80@Emplace_re:
; File C:\Program Files\Microsoft Visual Studio\2022\Professional\VC\Tools\MSVC\14.44.35207\include\vector

; 2076 :         _Mylast  = _Newvec + _Newsize;

  0010e	8b 45 f4	 mov	 eax, DWORD PTR __Newsize$1$[ebp]
  00111	89 3e		 mov	 DWORD PTR [esi], edi
  00113	8d 0c 87	 lea	 ecx, DWORD PTR [edi+eax*4]

; 916  :         _Change_array(_Newvec, _Newsize, _Newcapacity);
; 917  :         return _Newvec + _Whereoff;

  00116	8b c3		 mov	 eax, ebx

; 2076 :         _Mylast  = _Newvec + _Newsize;

  00118	89 4e 04	 mov	 DWORD PTR [esi+4], ecx

; 2077 :         _Myend   = _Newvec + _Newcapacity;

  0011b	8b 4d f8	 mov	 ecx, DWORD PTR tv716[ebp]
  0011e	03 cf		 add	 ecx, edi

; 918  :     }

  00120	5f		 pop	 edi

; 2077 :         _Myend   = _Newvec + _Newcapacity;

  00121	89 4e 08	 mov	 DWORD PTR [esi+8], ecx

; 918  :     }

  00124	5e		 pop	 esi
  00125	5b		 pop	 ebx
  00126	8b e5		 mov	 esp, ebp
  00128	5d		 pop	 ebp
  00129	c2 08 00	 ret	 8
$LN84@Emplace_re:
; File C:\Program Files\Microsoft Visual Studio\2022\Professional\VC\Tools\MSVC\14.44.35207\include\xmemory

; 219  :     _STL_VERIFY(_Back_shift >= _Min_back_shift && _Back_shift <= _Non_user_size, "invalid argument");

  0012c	6a 00		 push	 0
  0012e	6a 00		 push	 0
  00130	6a 00		 push	 0
  00132	6a 00		 push	 0
  00134	6a 00		 push	 0
  00136	e8 00 00 00 00	 call	 __invoke_watson
$LN119@Emplace_re:
; File C:\Program Files\Microsoft Visual Studio\2022\Professional\VC\Tools\MSVC\14.44.35207\include\vector

; 888  :             _Xlength();

  0013b	e8 00 00 00 00	 call	 ?_Xlength@?$vector@MV?$allocator@M@std@@@std@@CAXXZ ; std::vector<float,std::allocator<float> >::_Xlength
$LN120@Emplace_re:
; File C:\Program Files\Microsoft Visual Studio\2022\Professional\VC\Tools\MSVC\14.44.35207\include\xmemory

; 118  :             _Throw_bad_array_new_length(); // multiply overflow

  00140	e8 00 00 00 00	 call	 ?_Throw_bad_array_new_length@std@@YAXXZ ; std::_Throw_bad_array_new_length
$LN116@Emplace_re:
  00145	cc		 int	 3
??$_Emplace_reallocate@ABM@?$vector@MV?$allocator@M@std@@@std@@AAEPAMQAMABM@Z ENDP ; std::vector<float,std::allocator<float> >::_Emplace_reallocate<float const &>
_TEXT	ENDS
; Function compile flags: /Ogtp
; File C:\Program Files\Microsoft Visual Studio\2022\Professional\VC\Tools\MSVC\14.44.35207\include\vector
; File C:\Program Files\Microsoft Visual Studio\2022\Professional\VC\Tools\MSVC\14.44.35207\include\xmemory
; File C:\Program Files\Microsoft Visual Studio\2022\Professional\VC\Tools\MSVC\14.44.35207\include\vector
; File C:\Program Files\Microsoft Visual Studio\2022\Professional\VC\Tools\MSVC\14.44.35207\include\xmemory
; File C:\Program Files\Microsoft Visual Studio\2022\Professional\VC\Tools\MSVC\14.44.35207\include\vector
; File C:\Program Files\Microsoft Visual Studio\2022\Professional\VC\Tools\MSVC\14.44.35207\include\xmemory
; File C:\Program Files\Microsoft Visual Studio\2022\Professional\VC\Tools\MSVC\14.44.35207\include\vector
; File C:\Program Files\Microsoft Visual Studio\2022\Professional\VC\Tools\MSVC\14.44.35207\include\xmemory
; File C:\Program Files\Microsoft Visual Studio\2022\Professional\VC\Tools\MSVC\14.44.35207\include\vector
; File C:\Program Files\Microsoft Visual Studio\2022\Professional\VC\Tools\MSVC\14.44.35207\include\xmemory
; File C:\Program Files\Microsoft Visual Studio\2022\Professional\VC\Tools\MSVC\14.44.35207\include\vector
; File C:\Program Files\Microsoft Visual Studio\2022\Professional\VC\Tools\MSVC\14.44.35207\include\xmemory
; File C:\Program Files\Microsoft Visual Studio\2022\Professional\VC\Tools\MSVC\14.44.35207\include\vector
; File C:\Program Files\Microsoft Visual Studio\2022\Professional\VC\Tools\MSVC\14.44.35207\include\xmemory
; File C:\Program Files\Microsoft Visual Studio\2022\Professional\VC\Tools\MSVC\14.44.35207\include\vector
; File C:\Program Files\Microsoft Visual Studio\2022\Professional\VC\Tools\MSVC\14.44.35207\include\xmemory
; File C:\Program Files\Microsoft Visual Studio\2022\Professional\VC\Tools\MSVC\14.44.35207\include\vector
;	COMDAT ??$_Emplace_reallocate@ABH@?$vector@HV?$allocator@H@std@@@std@@AAEPAHQAHABH@Z
_TEXT	SEGMENT
__Newsize$1$ = -12					; size = 4
tv652 = -8						; size = 4
tv650 = -4						; size = 4
__Whereptr$ = 8						; size = 4
_<_Val_0>$ = 12						; size = 4
??$_Emplace_reallocate@ABH@?$vector@HV?$allocator@H@std@@@std@@AAEPAHQAHABH@Z PROC ; std::vector<int,std::allocator<int> >::_Emplace_reallocate<int const &>, COMDAT
; _this$ = ecx

; 875  :     _CONSTEXPR20 pointer _Emplace_reallocate(const pointer _Whereptr, _Valty&&... _Val) {

  00000	55		 push	 ebp
  00001	8b ec		 mov	 ebp, esp
  00003	83 ec 0c	 sub	 esp, 12			; 0000000cH
  00006	53		 push	 ebx

; 876  :         // reallocate and insert by perfectly forwarding _Val at _Whereptr
; 877  :         _Alty& _Al        = _Getal();
; 878  :         auto& _My_data    = _Mypair._Myval2;
; 879  :         pointer& _Myfirst = _My_data._Myfirst;
; 880  :         pointer& _Mylast  = _My_data._Mylast;
; 881  : 
; 882  :         _STL_INTERNAL_CHECK(_Mylast == _My_data._Myend); // check that we have no unused capacity
; 883  : 
; 884  :         const auto _Whereoff = static_cast<size_type>(_Whereptr - _Myfirst);

  00007	8b 5d 08	 mov	 ebx, DWORD PTR __Whereptr$[ebp]
  0000a	56		 push	 esi
  0000b	8b f1		 mov	 esi, ecx
  0000d	57		 push	 edi
  0000e	8b 0e		 mov	 ecx, DWORD PTR [esi]
  00010	2b d9		 sub	 ebx, ecx

; 885  :         const auto _Oldsize  = static_cast<size_type>(_Mylast - _Myfirst);

  00012	8b 46 04	 mov	 eax, DWORD PTR [esi+4]
  00015	2b c1		 sub	 eax, ecx
  00017	c1 fb 02	 sar	 ebx, 2
  0001a	c1 f8 02	 sar	 eax, 2

; 886  : 
; 887  :         if (_Oldsize == max_size()) {

  0001d	3d ff ff ff 3f	 cmp	 eax, 1073741823		; 3fffffffH
  00022	0f 84 13 01 00
	00		 je	 $LN111@Emplace_re

; 1924 :         return static_cast<size_type>(_My_data._Myend - _My_data._Myfirst);

  00028	8b 56 08	 mov	 edx, DWORD PTR [esi+8]

; 889  :         }
; 890  : 
; 891  :         const size_type _Newsize = _Oldsize + 1;

  0002b	8d 78 01	 lea	 edi, DWORD PTR [eax+1]

; 1924 :         return static_cast<size_type>(_My_data._Myend - _My_data._Myfirst);

  0002e	2b d1		 sub	 edx, ecx

; 889  :         }
; 890  : 
; 891  :         const size_type _Newsize = _Oldsize + 1;

  00030	89 7d f4	 mov	 DWORD PTR __Newsize$1$[ebp], edi

; 1924 :         return static_cast<size_type>(_My_data._Myend - _My_data._Myfirst);

  00033	c1 fa 02	 sar	 edx, 2

; 2011 :         if (_Oldcapacity > _Max - _Oldcapacity / 2) {

  00036	b8 ff ff ff 3f	 mov	 eax, 1073741823		; 3fffffffH
  0003b	8b ca		 mov	 ecx, edx
  0003d	d1 e9		 shr	 ecx, 1
  0003f	2b c1		 sub	 eax, ecx
  00041	3b d0		 cmp	 edx, eax
  00043	76 14		 jbe	 SHORT $LN8@Emplace_re

; 2012 :             return _Max; // geometric growth would overflow

  00045	b8 fc ff ff ff	 mov	 eax, -4			; fffffffcH
  0004a	c7 45 f8 fc ff
	ff ff		 mov	 DWORD PTR tv652[ebp], -4 ; fffffffcH
; File C:\Program Files\Microsoft Visual Studio\2022\Professional\VC\Tools\MSVC\14.44.35207\include\xmemory

; 253  :             return _Allocate_manually_vector_aligned<_Traits>(_Bytes);

  00051	50		 push	 eax
  00052	e8 00 00 00 00	 call	 ??$_Allocate_manually_vector_aligned@U_Default_allocate_traits@std@@@std@@YAPAXI@Z ; std::_Allocate_manually_vector_aligned<std::_Default_allocate_traits>
  00057	eb 3d		 jmp	 SHORT $LN109@Emplace_re
$LN8@Emplace_re:
; File C:\Program Files\Microsoft Visual Studio\2022\Professional\VC\Tools\MSVC\14.44.35207\include\vector

; 2015 :         const size_type _Geometric = _Oldcapacity + _Oldcapacity / 2;

  00059	8d 04 11	 lea	 eax, DWORD PTR [ecx+edx]
; File C:\Program Files\Microsoft Visual Studio\2022\Professional\VC\Tools\MSVC\14.44.35207\include\xmemory

; 117  :         if (_Count > _Max_possible) {

  0005c	8b cf		 mov	 ecx, edi
  0005e	3b c7		 cmp	 eax, edi
  00060	0f 43 c8	 cmovae	 ecx, eax
  00063	81 f9 ff ff ff
	3f		 cmp	 ecx, 1073741823		; 3fffffffH
  00069	0f 87 d1 00 00
	00		 ja	 $LN112@Emplace_re

; 119  :         }
; 120  :     }
; 121  : 
; 122  :     return _Count * _Ty_size;

  0006f	8d 04 8d 00 00
	00 00		 lea	 eax, DWORD PTR [ecx*4]
  00076	89 45 f8	 mov	 DWORD PTR tv652[ebp], eax

; 227  :     if (_Bytes == 0) {

  00079	85 c0		 test	 eax, eax
  0007b	75 04		 jne	 SHORT $LN23@Emplace_re

; 228  :         return nullptr;

  0007d	33 ff		 xor	 edi, edi
  0007f	eb 1a		 jmp	 SHORT $LN22@Emplace_re
$LN23@Emplace_re:

; 229  :     }
; 230  : 
; 231  : #if _HAS_CXX20 // TRANSITION, GH-1532
; 232  :     if (_STD is_constant_evaluated()) {
; 233  :         return _Traits::_Allocate(_Bytes);
; 234  :     }
; 235  : #endif // _HAS_CXX20
; 236  : 
; 237  : #ifdef __cpp_aligned_new
; 238  :     if constexpr (_Align > __STDCPP_DEFAULT_NEW_ALIGNMENT__) {
; 239  :         size_t _Passed_align = _Align;
; 240  : #if defined(_M_IX86) || defined(_M_X64)
; 241  :         if (_Bytes >= _Big_allocation_threshold) {
; 242  :             // boost the alignment of big allocations to help autovectorization
; 243  :             _Passed_align = (_STD max)(_Align, _Big_allocation_alignment);
; 244  :         }
; 245  : #endif // defined(_M_IX86) || defined(_M_X64)
; 246  :         return _Traits::_Allocate_aligned(_Bytes, _Passed_align);
; 247  :     } else
; 248  : #endif // defined(__cpp_aligned_new)
; 249  :     {
; 250  : #if defined(_M_IX86) || defined(_M_X64)
; 251  :         if (_Bytes >= _Big_allocation_threshold) {

  00081	3d 00 10 00 00	 cmp	 eax, 4096		; 00001000H
  00086	72 08		 jb	 SHORT $LN24@Emplace_re

; 253  :             return _Allocate_manually_vector_aligned<_Traits>(_Bytes);

  00088	50		 push	 eax
  00089	e8 00 00 00 00	 call	 ??$_Allocate_manually_vector_aligned@U_Default_allocate_traits@std@@@std@@YAPAXI@Z ; std::_Allocate_manually_vector_aligned<std::_Default_allocate_traits>
  0008e	eb 06		 jmp	 SHORT $LN109@Emplace_re
$LN24@Emplace_re:

; 136  :         return ::operator new(_Bytes);

  00090	50		 push	 eax
  00091	e8 00 00 00 00	 call	 ??2@YAPAXI@Z		; operator new
$LN109@Emplace_re:
; File C:\Program Files\Microsoft Visual Studio\2022\Professional\VC\Tools\MSVC\14.44.35207\include\vector

; 900  :         _Alty_traits::construct(_Al, _STD _Unfancy(_Newvec + _Whereoff), _STD forward<_Valty>(_Val)...);

  00096	8b f8		 mov	 edi, eax
  00098	83 c4 04	 add	 esp, 4
$LN22@Emplace_re:
  0009b	8b 45 0c	 mov	 eax, DWORD PTR _<_Val_0>$[ebp]
  0009e	8d 0c 9f	 lea	 ecx, DWORD PTR [edi+ebx*4]

; 901  :         _Constructed_first = _Newvec + _Whereoff;
; 902  : 
; 903  :         if (_Whereptr == _Mylast) { // at back, provide strong guarantee

  000a1	8b 5d 08	 mov	 ebx, DWORD PTR __Whereptr$[ebp]
  000a4	89 4d fc	 mov	 DWORD PTR tv650[ebp], ecx
  000a7	8b 00		 mov	 eax, DWORD PTR [eax]
  000a9	89 01		 mov	 DWORD PTR [ecx], eax
  000ab	8b 46 04	 mov	 eax, DWORD PTR [esi+4]
  000ae	8b 0e		 mov	 ecx, DWORD PTR [esi]
  000b0	3b d8		 cmp	 ebx, eax
  000b2	75 07		 jne	 SHORT $LN3@Emplace_re

; 909  :         } else { // provide basic guarantee

  000b4	8b 5d fc	 mov	 ebx, DWORD PTR tv650[ebp]
; File C:\Program Files\Microsoft Visual Studio\2022\Professional\VC\Tools\MSVC\14.44.35207\include\xmemory

; 1992 :             _STD _Copy_memmove(_UFirst, _ULast, _STD _Unfancy(_Dest));

  000b7	8b d7		 mov	 edx, edi
; File C:\Program Files\Microsoft Visual Studio\2022\Professional\VC\Tools\MSVC\14.44.35207\include\vector

; 909  :         } else { // provide basic guarantee

  000b9	eb 16		 jmp	 SHORT $LN52@Emplace_re
$LN3@Emplace_re:
; File C:\Program Files\Microsoft Visual Studio\2022\Professional\VC\Tools\MSVC\14.44.35207\include\xmemory

; 1992 :             _STD _Copy_memmove(_UFirst, _ULast, _STD _Unfancy(_Dest));

  000bb	57		 push	 edi
  000bc	53		 push	 ebx
  000bd	51		 push	 ecx
  000be	e8 00 00 00 00	 call	 ??$_Copy_memmove@PAHPAH@std@@YAPAHPAH00@Z ; std::_Copy_memmove<int *,int *>
  000c3	8b 46 04	 mov	 eax, DWORD PTR [esi+4]
  000c6	8b cb		 mov	 ecx, ebx
; File C:\Program Files\Microsoft Visual Studio\2022\Professional\VC\Tools\MSVC\14.44.35207\include\vector

; 912  :             _STD _Uninitialized_move(_Whereptr, _Mylast, _Newvec + _Whereoff + 1, _Al);

  000c8	8b 5d fc	 mov	 ebx, DWORD PTR tv650[ebp]
; File C:\Program Files\Microsoft Visual Studio\2022\Professional\VC\Tools\MSVC\14.44.35207\include\xmemory

; 1992 :             _STD _Copy_memmove(_UFirst, _ULast, _STD _Unfancy(_Dest));

  000cb	83 c4 0c	 add	 esp, 12			; 0000000cH
; File C:\Program Files\Microsoft Visual Studio\2022\Professional\VC\Tools\MSVC\14.44.35207\include\vector

; 912  :             _STD _Uninitialized_move(_Whereptr, _Mylast, _Newvec + _Whereoff + 1, _Al);

  000ce	8d 53 04	 lea	 edx, DWORD PTR [ebx+4]
$LN52@Emplace_re:

; 913  :         }
; 914  : 
; 915  :         _Guard._New_begin = nullptr;

  000d1	52		 push	 edx
  000d2	50		 push	 eax
  000d3	51		 push	 ecx
  000d4	e8 00 00 00 00	 call	 ??$_Copy_memmove@PAHPAH@std@@YAPAHPAH00@Z ; std::_Copy_memmove<int *,int *>

; 2069 :         if (_Myfirst) { // destroy and deallocate old array

  000d9	8b 06		 mov	 eax, DWORD PTR [esi]

; 913  :         }
; 914  : 
; 915  :         _Guard._New_begin = nullptr;

  000db	83 c4 0c	 add	 esp, 12			; 0000000cH

; 2069 :         if (_Myfirst) { // destroy and deallocate old array

  000de	85 c0		 test	 eax, eax
  000e0	74 2c		 je	 SHORT $LN72@Emplace_re

; 2070 :             _STD _Destroy_range(_Myfirst, _Mylast, _Al);
; 2071 :             _ASAN_VECTOR_REMOVE;
; 2072 :             _Al.deallocate(_Myfirst, static_cast<size_type>(_Myend - _Myfirst));

  000e2	8b 4e 08	 mov	 ecx, DWORD PTR [esi+8]
  000e5	2b c8		 sub	 ecx, eax
; File C:\Program Files\Microsoft Visual Studio\2022\Professional\VC\Tools\MSVC\14.44.35207\include\xmemory

; 985  :         _STD _Deallocate<_New_alignof<_Ty>>(_Ptr, sizeof(_Ty) * _Count);

  000e7	83 e1 fc	 and	 ecx, -4			; fffffffcH

; 284  :         if (_Bytes >= _Big_allocation_threshold) {

  000ea	81 f9 00 10 00
	00		 cmp	 ecx, 4096		; 00001000H
  000f0	72 12		 jb	 SHORT $LN77@Emplace_re

; 205  :     const uintptr_t _Ptr_container   = _Ptr_user[-1];

  000f2	8b 50 fc	 mov	 edx, DWORD PTR [eax-4]
  000f5	83 c1 23	 add	 ecx, 35			; 00000023H

; 206  : 
; 207  :     // If the following asserts, it likely means that we are performing
; 208  :     // an aligned delete on memory coming from an unaligned allocation.
; 209  :     _STL_ASSERT(_Ptr_user[-2] == _Big_allocation_sentinel, "invalid argument");
; 210  : 
; 211  :     // Extra paranoia on aligned allocation/deallocation; ensure _Ptr_container is
; 212  :     // in range [_Min_back_shift, _Non_user_size]
; 213  : #ifdef _DEBUG
; 214  :     constexpr uintptr_t _Min_back_shift = 2 * sizeof(void*);
; 215  : #else // ^^^ defined(_DEBUG) / !defined(_DEBUG) vvv
; 216  :     constexpr uintptr_t _Min_back_shift = sizeof(void*);
; 217  : #endif // ^^^ !defined(_DEBUG) ^^^
; 218  :     const uintptr_t _Back_shift = reinterpret_cast<uintptr_t>(_Ptr) - _Ptr_container;

  000f8	2b c2		 sub	 eax, edx

; 219  :     _STL_VERIFY(_Back_shift >= _Min_back_shift && _Back_shift <= _Non_user_size, "invalid argument");

  000fa	83 c0 fc	 add	 eax, -4			; fffffffcH
  000fd	83 f8 1f	 cmp	 eax, 31			; 0000001fH
  00100	77 2a		 ja	 SHORT $LN76@Emplace_re

; 220  :     _Ptr = reinterpret_cast<void*>(_Ptr_container);

  00102	8b c2		 mov	 eax, edx
$LN77@Emplace_re:

; 289  :         ::operator delete(_Ptr, _Bytes);

  00104	51		 push	 ecx
  00105	50		 push	 eax
  00106	e8 00 00 00 00	 call	 ??3@YAXPAXI@Z		; operator delete
  0010b	83 c4 08	 add	 esp, 8
$LN72@Emplace_re:
; File C:\Program Files\Microsoft Visual Studio\2022\Professional\VC\Tools\MSVC\14.44.35207\include\vector

; 2076 :         _Mylast  = _Newvec + _Newsize;

  0010e	8b 45 f4	 mov	 eax, DWORD PTR __Newsize$1$[ebp]
  00111	89 3e		 mov	 DWORD PTR [esi], edi
  00113	8d 0c 87	 lea	 ecx, DWORD PTR [edi+eax*4]

; 916  :         _Change_array(_Newvec, _Newsize, _Newcapacity);
; 917  :         return _Newvec + _Whereoff;

  00116	8b c3		 mov	 eax, ebx

; 2076 :         _Mylast  = _Newvec + _Newsize;

  00118	89 4e 04	 mov	 DWORD PTR [esi+4], ecx

; 2077 :         _Myend   = _Newvec + _Newcapacity;

  0011b	8b 4d f8	 mov	 ecx, DWORD PTR tv652[ebp]
  0011e	03 cf		 add	 ecx, edi

; 918  :     }

  00120	5f		 pop	 edi

; 2077 :         _Myend   = _Newvec + _Newcapacity;

  00121	89 4e 08	 mov	 DWORD PTR [esi+8], ecx

; 918  :     }

  00124	5e		 pop	 esi
  00125	5b		 pop	 ebx
  00126	8b e5		 mov	 esp, ebp
  00128	5d		 pop	 ebp
  00129	c2 08 00	 ret	 8
$LN76@Emplace_re:
; File C:\Program Files\Microsoft Visual Studio\2022\Professional\VC\Tools\MSVC\14.44.35207\include\xmemory

; 219  :     _STL_VERIFY(_Back_shift >= _Min_back_shift && _Back_shift <= _Non_user_size, "invalid argument");

  0012c	6a 00		 push	 0
  0012e	6a 00		 push	 0
  00130	6a 00		 push	 0
  00132	6a 00		 push	 0
  00134	6a 00		 push	 0
  00136	e8 00 00 00 00	 call	 __invoke_watson
$LN111@Emplace_re:
; File C:\Program Files\Microsoft Visual Studio\2022\Professional\VC\Tools\MSVC\14.44.35207\include\vector

; 888  :             _Xlength();

  0013b	e8 00 00 00 00	 call	 ?_Xlength@?$vector@HV?$allocator@H@std@@@std@@CAXXZ ; std::vector<int,std::allocator<int> >::_Xlength
$LN112@Emplace_re:
; File C:\Program Files\Microsoft Visual Studio\2022\Professional\VC\Tools\MSVC\14.44.35207\include\xmemory

; 118  :             _Throw_bad_array_new_length(); // multiply overflow

  00140	e8 00 00 00 00	 call	 ?_Throw_bad_array_new_length@std@@YAXXZ ; std::_Throw_bad_array_new_length
$LN108@Emplace_re:
  00145	cc		 int	 3
??$_Emplace_reallocate@ABH@?$vector@HV?$allocator@H@std@@@std@@AAEPAHQAHABH@Z ENDP ; std::vector<int,std::allocator<int> >::_Emplace_reallocate<int const &>
_TEXT	ENDS
; Function compile flags: /Ogtp
; File C:\IAGOS\server\v18\Source\Source\_Network\Misc\Include\Ar.h
;	COMDAT ??$?5_J@CAr@@QAEAAV0@AA_J@Z
_TEXT	SEGMENT
_t$ = 8							; size = 4
??$?5_J@CAr@@QAEAAV0@AA_J@Z PROC			; CAr::operator>><__int64>, COMDAT
; _this$ = ecx

; 302  : {

  00000	55		 push	 ebp
  00001	8b ec		 mov	 ebp, esp
  00003	56		 push	 esi
  00004	8b f1		 mov	 esi, ecx

; 303  : 	if (m_lpBufCur + sizeof(T) <= m_lpBufMax)

  00006	8b 56 08	 mov	 edx, DWORD PTR [esi+8]
  00009	8d 42 08	 lea	 eax, DWORD PTR [edx+8]
  0000c	3b 46 0c	 cmp	 eax, DWORD PTR [esi+12]
  0000f	8b 45 08	 mov	 eax, DWORD PTR _t$[ebp]
  00012	77 15		 ja	 SHORT $LN2@operator

; 304  : 	{
; 305  : 		t = *(UNALIGNED T*)m_lpBufCur;

  00014	8b 0a		 mov	 ecx, DWORD PTR [edx]
  00016	8b 52 04	 mov	 edx, DWORD PTR [edx+4]
  00019	89 08		 mov	 DWORD PTR [eax], ecx
  0001b	89 50 04	 mov	 DWORD PTR [eax+4], edx

; 312  : 	}
; 313  : 	return *this;
; 314  : }

  0001e	8b c6		 mov	 eax, esi
  00020	83 46 08 08	 add	 DWORD PTR [esi+8], 8
  00024	5e		 pop	 esi
  00025	5d		 pop	 ebp
  00026	c2 04 00	 ret	 4
$LN2@operator:

; 306  : 		m_lpBufCur += sizeof(T);
; 307  : 	}
; 308  : 	else
; 309  : 	{
; 310  : 		t = T();

  00029	c7 00 00 00 00
	00		 mov	 DWORD PTR [eax], 0
  0002f	c7 40 04 00 00
	00 00		 mov	 DWORD PTR [eax+4], 0

; 311  : 		m_lpBufCur = m_lpBufMax;

  00036	8b 46 0c	 mov	 eax, DWORD PTR [esi+12]
  00039	89 46 08	 mov	 DWORD PTR [esi+8], eax

; 312  : 	}
; 313  : 	return *this;
; 314  : }

  0003c	8b c6		 mov	 eax, esi
  0003e	5e		 pop	 esi
  0003f	5d		 pop	 ebp
  00040	c2 04 00	 ret	 4
??$?5_J@CAr@@QAEAAV0@AA_J@Z ENDP			; CAr::operator>><__int64>
_TEXT	ENDS
; Function compile flags: /Ogtp
;	COMDAT ??__FsLord@?1??Instance@CTLord@@SAPAV1@XZ@YAXXZ
text$yd	SEGMENT
??__FsLord@?1??Instance@CTLord@@SAPAV1@XZ@YAXXZ PROC	; `CTLord::Instance'::`2'::`dynamic atexit destructor for 'sLord'', COMDAT
  00000	b9 00 00 00 00	 mov	 ecx, OFFSET ?sLord@?1??Instance@CTLord@@SAPAV2@XZ@4V2@A
  00005	e9 00 00 00 00	 jmp	 ??1CTLord@@UAE@XZ	; CTLord::~CTLord
??__FsLord@?1??Instance@CTLord@@SAPAV1@XZ@YAXXZ ENDP	; `CTLord::Instance'::`2'::`dynamic atexit destructor for 'sLord''
text$yd	ENDS
; Function compile flags: /Ogtp
; File C:\IAGOS\server\v18\Source\Source\_Network\Misc\Include\Ar.h
;	COMDAT ??$?5K@CAr@@QAEAAV0@AAK@Z
_TEXT	SEGMENT
_t$ = 8							; size = 4
??$?5K@CAr@@QAEAAV0@AAK@Z PROC				; CAr::operator>><unsigned long>, COMDAT
; _this$ = ecx

; 302  : {

  00000	55		 push	 ebp
  00001	8b ec		 mov	 ebp, esp
  00003	8b d1		 mov	 edx, ecx

; 303  : 	if (m_lpBufCur + sizeof(T) <= m_lpBufMax)

  00005	8b 4a 08	 mov	 ecx, DWORD PTR [edx+8]
  00008	8d 41 04	 lea	 eax, DWORD PTR [ecx+4]
  0000b	3b 42 0c	 cmp	 eax, DWORD PTR [edx+12]
  0000e	8b 45 08	 mov	 eax, DWORD PTR _t$[ebp]
  00011	77 0e		 ja	 SHORT $LN2@operator

; 304  : 	{
; 305  : 		t = *(UNALIGNED T*)m_lpBufCur;

  00013	8b 09		 mov	 ecx, DWORD PTR [ecx]
  00015	89 08		 mov	 DWORD PTR [eax], ecx

; 312  : 	}
; 313  : 	return *this;
; 314  : }

  00017	8b c2		 mov	 eax, edx
  00019	83 42 08 04	 add	 DWORD PTR [edx+8], 4
  0001d	5d		 pop	 ebp
  0001e	c2 04 00	 ret	 4
$LN2@operator:

; 306  : 		m_lpBufCur += sizeof(T);
; 307  : 	}
; 308  : 	else
; 309  : 	{
; 310  : 		t = T();

  00021	c7 00 00 00 00
	00		 mov	 DWORD PTR [eax], 0

; 311  : 		m_lpBufCur = m_lpBufMax;

  00027	8b 42 0c	 mov	 eax, DWORD PTR [edx+12]
  0002a	89 42 08	 mov	 DWORD PTR [edx+8], eax

; 312  : 	}
; 313  : 	return *this;
; 314  : }

  0002d	8b c2		 mov	 eax, edx
  0002f	5d		 pop	 ebp
  00030	c2 04 00	 ret	 4
??$?5K@CAr@@QAEAAV0@AAK@Z ENDP				; CAr::operator>><unsigned long>
_TEXT	ENDS
; Function compile flags: /Ogtp
;	COMDAT ??_GCLController@@UAEPAXI@Z
_TEXT	SEGMENT
___flags$ = 8						; size = 4
??_GCLController@@UAEPAXI@Z PROC			; CLController::`scalar deleting destructor', COMDAT
; _this$ = ecx
  00000	55		 push	 ebp
  00001	8b ec		 mov	 ebp, esp
  00003	56		 push	 esi
  00004	8b f1		 mov	 esi, ecx
  00006	e8 00 00 00 00	 call	 ??1CLController@@UAE@XZ	; CLController::~CLController
  0000b	f6 45 08 01	 test	 BYTE PTR ___flags$[ebp], 1
  0000f	74 0b		 je	 SHORT $LN5@scalar
  00011	6a 18		 push	 24			; 00000018H
  00013	56		 push	 esi
  00014	e8 00 00 00 00	 call	 ??3@YAXPAXI@Z		; operator delete
  00019	83 c4 08	 add	 esp, 8
$LN5@scalar:
  0001c	8b c6		 mov	 eax, esi
  0001e	5e		 pop	 esi
  0001f	5d		 pop	 ebp
  00020	c2 04 00	 ret	 4
??_GCLController@@UAEPAXI@Z ENDP			; CLController::`scalar deleting destructor'
_TEXT	ENDS
; Function compile flags: /Ogtp
; File C:\IAGOS\server\v18\Source\Source\DatabaseServer\tlord.cpp
;	COMDAT ?OnTimer@CLController@@UAEXXZ
_TEXT	SEGMENT
?OnTimer@CLController@@UAEXXZ PROC			; CLController::OnTimer, COMDAT
; _this$ = ecx

; 642  : 	m_pLord->OnTimer();

  00000	8b 49 14	 mov	 ecx, DWORD PTR [ecx+20]
  00003	e9 00 00 00 00	 jmp	 ?OnTimer@CTLord@@QAEXXZ	; CTLord::OnTimer
?OnTimer@CLController@@UAEXXZ ENDP			; CLController::OnTimer
_TEXT	ENDS
; Function compile flags: /Ogtp
; File C:\IAGOS\server\v18\Source\Source\DatabaseServer\tlord.cpp
;	COMDAT ?Handler@CLController@@UAEXPAUtagDB_OVERLAPPED_PLUS@@K@Z
_TEXT	SEGMENT
_pov$ = 8						; size = 4
_dwCompletionKey$ = 12					; size = 4
?Handler@CLController@@UAEXPAUtagDB_OVERLAPPED_PLUS@@K@Z PROC ; CLController::Handler, COMDAT
; _this$ = ecx

; 636  : {	// ¸đµç żäĂ»Ŕ» m_pLordżˇ Ŕ§ŔÓÇŃ´Ů

  00000	55		 push	 ebp
  00001	8b ec		 mov	 ebp, esp

; 637  : 	m_pLord->Handler( pov, dwCompletionKey );

  00003	8b 49 14	 mov	 ecx, DWORD PTR [ecx+20]

; 638  : }

  00006	5d		 pop	 ebp

; 637  : 	m_pLord->Handler( pov, dwCompletionKey );

  00007	e9 00 00 00 00	 jmp	 ?Handler@CTLord@@QAEXPAUtagDB_OVERLAPPED_PLUS@@K@Z ; CTLord::Handler
?Handler@CLController@@UAEXPAUtagDB_OVERLAPPED_PLUS@@K@Z ENDP ; CLController::Handler
_TEXT	ENDS
; Function compile flags: /Ogtp
; File C:\IAGOS\server\v18\Source\Source\DatabaseServer\tlord.cpp
;	COMDAT ?UpdateLordEventTick@CLController@@QAEHPAVCLEComponent@@@Z
_TEXT	SEGMENT
_pComponent$ = 8					; size = 4
?UpdateLordEventTick@CLController@@QAEHPAVCLEComponent@@@Z PROC ; CLController::UpdateLordEventTick, COMDAT
; _this$ = ecx

; 741  : {	// ±şÁÖ ŔĚşĄĆ® ł˛Ŕş ˝Ă°Ł ŔúŔĺ

  00000	55		 push	 ebp
  00001	8b ec		 mov	 ebp, esp

; 742  : 	return GetQueryObject()->Execute( "uspLordEventTick %d, %d, %d", g_appInfo.dwSys, pComponent->GetIdPlayer(), pComponent->GetTick() );

  00003	8b 45 08	 mov	 eax, DWORD PTR _pComponent$[ebp]
  00006	ff 70 04	 push	 DWORD PTR [eax+4]
  00009	ff 70 08	 push	 DWORD PTR [eax+8]
  0000c	ff 35 00 00 00
	00		 push	 DWORD PTR ?g_appInfo@@3UAppInfo@@A
  00012	68 00 00 00 00	 push	 OFFSET ??_C@_0BM@INGAOOO@uspLordEventTick?5?$CFd?0?5?$CFd?0?5?$CFd@
  00017	ff 71 0c	 push	 DWORD PTR [ecx+12]
  0001a	e8 00 00 00 00	 call	 ?Execute@CQuery@@QAAHPBDZZ ; CQuery::Execute
  0001f	83 c4 14	 add	 esp, 20			; 00000014H

; 743  : }

  00022	5d		 pop	 ebp
  00023	c2 04 00	 ret	 4
?UpdateLordEventTick@CLController@@QAEHPAVCLEComponent@@@Z ENDP ; CLController::UpdateLordEventTick
_TEXT	ENDS
; Function compile flags: /Ogtp
; File C:\IAGOS\server\v18\Source\Source\DatabaseServer\tlord.cpp
;	COMDAT ?UpdateLordSkillTick@CLController@@QAEHPAVCLordSkillComponent@@H@Z
_TEXT	SEGMENT
_pSkill$ = 8						; size = 4
_nTick$ = 12						; size = 4
?UpdateLordSkillTick@CLController@@QAEHPAVCLordSkillComponent@@H@Z PROC ; CLController::UpdateLordSkillTick, COMDAT
; _this$ = ecx

; 736  : {	// ±şÁÖ ˝şĹł Ŕç»çżë ´ë±â ˝Ă°Ł ŔúŔĺ

  00000	55		 push	 ebp
  00001	8b ec		 mov	 ebp, esp

; 737  : 	return GetQueryObject()->Execute( "uspLordSkillTick %d, %d, %d", g_appInfo.dwSys, pSkill->GetId(), nTick );

  00003	ff 75 0c	 push	 DWORD PTR _nTick$[ebp]
  00006	8b 45 08	 mov	 eax, DWORD PTR _pSkill$[ebp]
  00009	ff 70 04	 push	 DWORD PTR [eax+4]
  0000c	ff 35 00 00 00
	00		 push	 DWORD PTR ?g_appInfo@@3UAppInfo@@A
  00012	68 00 00 00 00	 push	 OFFSET ??_C@_0BM@PHMEBJEL@uspLordSkillTick?5?$CFd?0?5?$CFd?0?5?$CFd@
  00017	ff 71 0c	 push	 DWORD PTR [ecx+12]
  0001a	e8 00 00 00 00	 call	 ?Execute@CQuery@@QAAHPBDZZ ; CQuery::Execute
  0001f	83 c4 14	 add	 esp, 20			; 00000014H

; 738  : }

  00022	5d		 pop	 ebp
  00023	c2 08 00	 ret	 8
?UpdateLordSkillTick@CLController@@QAEHPAVCLordSkillComponent@@H@Z ENDP ; CLController::UpdateLordSkillTick
_TEXT	ENDS
; Function compile flags: /Ogtp
; File C:\IAGOS\server\v18\Source\Source\DatabaseServer\tlord.cpp
;	COMDAT ?InitializeLEvent@CLController@@QAEHXZ
_TEXT	SEGMENT
?InitializeLEvent@CLController@@QAEHXZ PROC		; CLController::InitializeLEvent, COMDAT
; _this$ = ecx

; 732  : 	return GetQueryObject()->Execute( "uspInitializeLEvent %d", g_appInfo.dwSys );

  00000	ff 35 00 00 00
	00		 push	 DWORD PTR ?g_appInfo@@3UAppInfo@@A
  00006	68 00 00 00 00	 push	 OFFSET ??_C@_0BH@NILKABO@uspInitializeLEvent?5?$CFd@
  0000b	ff 71 0c	 push	 DWORD PTR [ecx+12]
  0000e	e8 00 00 00 00	 call	 ?Execute@CQuery@@QAAHPBDZZ ; CQuery::Execute
  00013	83 c4 0c	 add	 esp, 12			; 0000000cH

; 733  : }

  00016	c3		 ret	 0
?InitializeLEvent@CLController@@QAEHXZ ENDP		; CLController::InitializeLEvent
_TEXT	ENDS
; Function compile flags: /Ogtp
; File C:\IAGOS\server\v18\Source\Source\DatabaseServer\tlord.cpp
;	COMDAT ?AddLEComponent@CLController@@QAEHPAVCLEComponent@@@Z
_TEXT	SEGMENT
_pComponent$ = 8					; size = 4
?AddLEComponent@CLController@@QAEHPAVCLEComponent@@@Z PROC ; CLController::AddLEComponent, COMDAT
; _this$ = ecx

; 723  : {	// ±şÁÖ ŔĚşĄĆ® »ýĽş ŔúŔĺ

  00000	55		 push	 ebp
  00001	8b ec		 mov	 ebp, esp

; 724  : 	if( GetQueryObject()->Execute( "uspAddLEComponent %d, %d, %d, %3.2f, %3.2f", g_appInfo.dwSys, pComponent->GetIdPlayer(), pComponent->GetTick(), pComponent->GetEFactor(), pComponent->GetIFactor() ) 
; 725  : 		&& GetQueryObject()->Fetch() )

  00003	8b 45 08	 mov	 eax, DWORD PTR _pComponent$[ebp]
  00006	56		 push	 esi
  00007	83 ec 10	 sub	 esp, 16			; 00000010H
  0000a	8b f1		 mov	 esi, ecx
  0000c	f3 0f 10 40 10	 movss	 xmm0, DWORD PTR [eax+16]
  00011	0f 5a c0	 cvtps2pd xmm0, xmm0
  00014	f2 0f 11 44 24
	08		 movsd	 QWORD PTR [esp+8], xmm0
  0001a	f3 0f 10 40 0c	 movss	 xmm0, DWORD PTR [eax+12]
  0001f	0f 5a c0	 cvtps2pd xmm0, xmm0
  00022	f2 0f 11 04 24	 movsd	 QWORD PTR [esp], xmm0
  00027	ff 70 04	 push	 DWORD PTR [eax+4]
  0002a	ff 70 08	 push	 DWORD PTR [eax+8]
  0002d	ff 35 00 00 00
	00		 push	 DWORD PTR ?g_appInfo@@3UAppInfo@@A
  00033	68 00 00 00 00	 push	 OFFSET ??_C@_0CL@KGJPMKPI@uspAddLEComponent?5?$CFd?0?5?$CFd?0?5?$CFd?0?5?$CF@
  00038	ff 76 0c	 push	 DWORD PTR [esi+12]
  0003b	e8 00 00 00 00	 call	 ?Execute@CQuery@@QAAHPBDZZ ; CQuery::Execute
  00040	83 c4 24	 add	 esp, 36			; 00000024H
  00043	85 c0		 test	 eax, eax
  00045	74 1e		 je	 SHORT $LN2@AddLECompo
  00047	8b 4e 0c	 mov	 ecx, DWORD PTR [esi+12]
  0004a	e8 00 00 00 00	 call	 ?Fetch@CQuery@@QAEHXZ	; CQuery::Fetch
  0004f	85 c0		 test	 eax, eax
  00051	74 12		 je	 SHORT $LN2@AddLECompo

; 726  : 		return static_cast<BOOL>( GetQueryObject()->GetInt( "bResult" ) );

  00053	8b 4e 0c	 mov	 ecx, DWORD PTR [esi+12]
  00056	68 00 00 00 00	 push	 OFFSET ??_C@_07MGNKFCA@bResult@
  0005b	e8 00 00 00 00	 call	 ?GetInt@CQuery@@QAEHPAD@Z ; CQuery::GetInt
  00060	5e		 pop	 esi

; 728  : }

  00061	5d		 pop	 ebp
  00062	c2 04 00	 ret	 4
$LN2@AddLECompo:

; 727  : 	return FALSE;

  00065	33 c0		 xor	 eax, eax
  00067	5e		 pop	 esi

; 728  : }

  00068	5d		 pop	 ebp
  00069	c2 04 00	 ret	 4
?AddLEComponent@CLController@@QAEHPAVCLEComponent@@@Z ENDP ; CLController::AddLEComponent
_TEXT	ENDS
; Function compile flags: /Ogtp
; File C:\IAGOS\server\v18\Source\Source\DatabaseServer\tlord.cpp
;	COMDAT ?IncVote@CLController@@QAEHKK@Z
_TEXT	SEGMENT
_szQuery$ = -260					; size = 255
__$ArrayPad$ = -4					; size = 4
_idPlayer$ = 8						; size = 4
_idElector$ = 12					; size = 4
?IncVote@CLController@@QAEHKK@Z PROC			; CLController::IncVote, COMDAT
; _this$ = ecx

; 710  : {	// ĹőÇĄ ŔúŔĺ

  00000	55		 push	 ebp
  00001	8b ec		 mov	 ebp, esp
  00003	81 ec 04 01 00
	00		 sub	 esp, 260		; 00000104H
  00009	a1 00 00 00 00	 mov	 eax, DWORD PTR ___security_cookie
  0000e	33 c5		 xor	 eax, ebp
  00010	89 45 fc	 mov	 DWORD PTR __$ArrayPad$[ebp], eax
  00013	56		 push	 esi

; 711  : 	// ŔĚąĚ ĹőÇĄÇŃ »çżëŔÚ¸é FALSE ąÝČŻ
; 712  : 	char szQuery[255]	= { 0,};

  00014	68 ff 00 00 00	 push	 255			; 000000ffH
  00019	8d 85 fc fe ff
	ff		 lea	 eax, DWORD PTR _szQuery$[ebp]
  0001f	8b f1		 mov	 esi, ecx
  00021	6a 00		 push	 0
  00023	50		 push	 eax
  00024	e8 00 00 00 00	 call	 _memset

; 713  : 	IElection* pElection	= m_pLord->GetElection();
; 714  : 	sprintf( szQuery, "uspElectionIncVote %d, %d, %d, %d", g_appInfo.dwSys, pElection->GetId(), idPlayer, idElector );

  00029	8b 46 14	 mov	 eax, DWORD PTR [esi+20]
  0002c	ff 75 0c	 push	 DWORD PTR _idElector$[ebp]
  0002f	ff 75 08	 push	 DWORD PTR _idPlayer$[ebp]
  00032	8b 40 08	 mov	 eax, DWORD PTR [eax+8]
  00035	ff 70 08	 push	 DWORD PTR [eax+8]
  00038	8d 85 fc fe ff
	ff		 lea	 eax, DWORD PTR _szQuery$[ebp]
  0003e	ff 35 00 00 00
	00		 push	 DWORD PTR ?g_appInfo@@3UAppInfo@@A
  00044	68 00 00 00 00	 push	 OFFSET ??_C@_0CC@MJFIHIPP@uspElectionIncVote?5?$CFd?0?5?$CFd?0?5?$CFd?0?5@
  00049	50		 push	 eax
  0004a	e8 00 00 00 00	 call	 _sprintf

; 715  : 	if( !GetQueryObject()->Exec( szQuery ) )

  0004f	8b 4e 0c	 mov	 ecx, DWORD PTR [esi+12]
  00052	8d 85 fc fe ff
	ff		 lea	 eax, DWORD PTR _szQuery$[ebp]
  00058	83 c4 24	 add	 esp, 36			; 00000024H
  0005b	50		 push	 eax
  0005c	e8 00 00 00 00	 call	 ?Exec@CQuery@@QAEHPBD@Z	; CQuery::Exec
  00061	85 c0		 test	 eax, eax
  00063	74 2a		 je	 SHORT $LN5@IncVote

; 716  : 		return FALSE;
; 717  : 	if( !GetQueryObject()->Fetch() )

  00065	8b 4e 0c	 mov	 ecx, DWORD PTR [esi+12]
  00068	e8 00 00 00 00	 call	 ?Fetch@CQuery@@QAEHXZ	; CQuery::Fetch
  0006d	85 c0		 test	 eax, eax
  0006f	74 1e		 je	 SHORT $LN5@IncVote

; 718  : 		return FALSE;
; 719  : 	return static_cast<BOOL>( GetQueryObject()->GetInt( "bResult" ) );

  00071	8b 4e 0c	 mov	 ecx, DWORD PTR [esi+12]
  00074	68 00 00 00 00	 push	 OFFSET ??_C@_07MGNKFCA@bResult@
  00079	e8 00 00 00 00	 call	 ?GetInt@CQuery@@QAEHPAD@Z ; CQuery::GetInt
  0007e	5e		 pop	 esi

; 720  : }

  0007f	8b 4d fc	 mov	 ecx, DWORD PTR __$ArrayPad$[ebp]
  00082	33 cd		 xor	 ecx, ebp
  00084	e8 00 00 00 00	 call	 @__security_check_cookie@4
  00089	8b e5		 mov	 esp, ebp
  0008b	5d		 pop	 ebp
  0008c	c2 08 00	 ret	 8
$LN5@IncVote:
  0008f	8b 4d fc	 mov	 ecx, DWORD PTR __$ArrayPad$[ebp]
  00092	33 c0		 xor	 eax, eax
  00094	33 cd		 xor	 ecx, ebp
  00096	5e		 pop	 esi
  00097	e8 00 00 00 00	 call	 @__security_check_cookie@4
  0009c	8b e5		 mov	 esp, ebp
  0009e	5d		 pop	 ebp
  0009f	c2 08 00	 ret	 8
?IncVote@CLController@@QAEHKK@Z ENDP			; CLController::IncVote
_TEXT	ENDS
; Function compile flags: /Ogtp
; File C:\IAGOS\server\v18\Source\Source\DatabaseServer\tlord.cpp
;	COMDAT ?SetPledge@CLController@@QAEHKPBD@Z
_TEXT	SEGMENT
_cbLen$ = -264						; size = 4
_szQuery$ = -260					; size = 255
__$ArrayPad$ = -4					; size = 4
_idPlayer$ = 8						; size = 4
_szPledge$ = 12						; size = 4
?SetPledge@CLController@@QAEHKPBD@Z PROC		; CLController::SetPledge, COMDAT
; _this$ = ecx

; 699  : {	// °řľŕ ĽłÁ¤ ŔúŔĺ

  00000	55		 push	 ebp
  00001	8b ec		 mov	 ebp, esp
  00003	81 ec 08 01 00
	00		 sub	 esp, 264		; 00000108H
  00009	a1 00 00 00 00	 mov	 eax, DWORD PTR ___security_cookie
  0000e	33 c5		 xor	 eax, ebp
  00010	89 45 fc	 mov	 DWORD PTR __$ArrayPad$[ebp], eax
  00013	56		 push	 esi
  00014	8b 75 0c	 mov	 esi, DWORD PTR _szPledge$[ebp]

; 700  : 	char szQuery[255]	= { 0,};

  00017	8d 85 fc fe ff
	ff		 lea	 eax, DWORD PTR _szQuery$[ebp]
  0001d	57		 push	 edi
  0001e	68 ff 00 00 00	 push	 255			; 000000ffH
  00023	6a 00		 push	 0
  00025	50		 push	 eax
  00026	8b f9		 mov	 edi, ecx
  00028	e8 00 00 00 00	 call	 _memset

; 701  : 	IElection* pElection	= m_pLord->GetElection();
; 702  : 	sprintf( szQuery, "{call uspElectionSetPledge( %d, %d, %d, ? )}", g_appInfo.dwSys, pElection->GetId(), idPlayer );

  0002d	8b 47 14	 mov	 eax, DWORD PTR [edi+20]
  00030	ff 75 08	 push	 DWORD PTR _idPlayer$[ebp]
  00033	8b 40 08	 mov	 eax, DWORD PTR [eax+8]
  00036	ff 70 08	 push	 DWORD PTR [eax+8]
  00039	8d 85 fc fe ff
	ff		 lea	 eax, DWORD PTR _szQuery$[ebp]
  0003f	ff 35 00 00 00
	00		 push	 DWORD PTR ?g_appInfo@@3UAppInfo@@A
  00045	68 00 00 00 00	 push	 OFFSET ??_C@_0CN@DFOIGMEI@?$HLcall?5uspElectionSetPledge?$CI?5?$CFd?0@
  0004a	50		 push	 eax
  0004b	e8 00 00 00 00	 call	 _sprintf

; 703  : 	SQLINTEGER cbLen	= SQL_NTS;
; 704  : 	if( !GetQueryObject()->BindParameter( 1, SQL_PARAM_INPUT, SQL_C_CHAR, SQL_VARCHAR, CCandidate::nMaxPledgeLen, 0, const_cast<char*>( szPledge ), 0, &cbLen ) )

  00050	8b 4f 0c	 mov	 ecx, DWORD PTR [edi+12]
  00053	8d 85 f8 fe ff
	ff		 lea	 eax, DWORD PTR _cbLen$[ebp]
  00059	83 c4 20	 add	 esp, 32			; 00000020H
  0005c	c7 85 f8 fe ff
	ff fd ff ff ff	 mov	 DWORD PTR _cbLen$[ebp], -3 ; fffffffdH
  00066	50		 push	 eax
  00067	6a 00		 push	 0
  00069	56		 push	 esi
  0006a	6a 00		 push	 0
  0006c	68 ff 00 00 00	 push	 255			; 000000ffH
  00071	6a 0c		 push	 12			; 0000000cH
  00073	6a 01		 push	 1
  00075	6a 01		 push	 1
  00077	6a 01		 push	 1
  00079	e8 00 00 00 00	 call	 ?BindParameter@CQuery@@QAEHGFFFKFPAXJPAJ@Z ; CQuery::BindParameter
  0007e	85 c0		 test	 eax, eax
  00080	75 12		 jne	 SHORT $LN2@SetPledge

; 707  : }

  00082	5f		 pop	 edi
  00083	5e		 pop	 esi
  00084	8b 4d fc	 mov	 ecx, DWORD PTR __$ArrayPad$[ebp]
  00087	33 cd		 xor	 ecx, ebp
  00089	e8 00 00 00 00	 call	 @__security_check_cookie@4
  0008e	8b e5		 mov	 esp, ebp
  00090	5d		 pop	 ebp
  00091	c2 08 00	 ret	 8
$LN2@SetPledge:

; 705  : 		return FALSE;
; 706  : 	return GetQueryObject()->Exec( szQuery );

  00094	8b 4f 0c	 mov	 ecx, DWORD PTR [edi+12]
  00097	8d 85 fc fe ff
	ff		 lea	 eax, DWORD PTR _szQuery$[ebp]
  0009d	50		 push	 eax
  0009e	e8 00 00 00 00	 call	 ?Exec@CQuery@@QAEHPBD@Z	; CQuery::Exec

; 707  : }

  000a3	8b 4d fc	 mov	 ecx, DWORD PTR __$ArrayPad$[ebp]
  000a6	5f		 pop	 edi
  000a7	33 cd		 xor	 ecx, ebp
  000a9	5e		 pop	 esi
  000aa	e8 00 00 00 00	 call	 @__security_check_cookie@4
  000af	8b e5		 mov	 esp, ebp
  000b1	5d		 pop	 ebp
  000b2	c2 08 00	 ret	 8
?SetPledge@CLController@@QAEHKPBD@Z ENDP		; CLController::SetPledge
_TEXT	ENDS
; Function compile flags: /Ogtp
; File C:\IAGOS\server\v18\Source\Source\DatabaseServer\tlord.cpp
;	COMDAT ?AddDeposit@CLController@@QAEHK_JJ@Z
_TEXT	SEGMENT
_szQuery$ = -260					; size = 255
__$ArrayPad$ = -4					; size = 4
_idPlayer$ = 8						; size = 4
_iDeposit$ = 12						; size = 8
_tCreate$ = 20						; size = 4
?AddDeposit@CLController@@QAEHK_JJ@Z PROC		; CLController::AddDeposit, COMDAT
; _this$ = ecx

; 691  : {	// ±şÁÖ ŔÔÂű ŔúŔĺ

  00000	55		 push	 ebp
  00001	8b ec		 mov	 ebp, esp
  00003	81 ec 04 01 00
	00		 sub	 esp, 260		; 00000104H
  00009	a1 00 00 00 00	 mov	 eax, DWORD PTR ___security_cookie
  0000e	33 c5		 xor	 eax, ebp
  00010	89 45 fc	 mov	 DWORD PTR __$ArrayPad$[ebp], eax
  00013	56		 push	 esi

; 692  : 	char szQuery[255]	= { 0,};

  00014	68 ff 00 00 00	 push	 255			; 000000ffH
  00019	8d 85 fc fe ff
	ff		 lea	 eax, DWORD PTR _szQuery$[ebp]
  0001f	8b f1		 mov	 esi, ecx
  00021	6a 00		 push	 0
  00023	50		 push	 eax
  00024	e8 00 00 00 00	 call	 _memset

; 693  : 	IElection* pElection	= m_pLord->GetElection();
; 694  : 	sprintf( szQuery, "uspElectionAddDeposit %d, %d, %d, %I64d, %d", g_appInfo.dwSys, pElection->GetId(), idPlayer, iDeposit, tCreate );

  00029	ff 75 14	 push	 DWORD PTR _tCreate$[ebp]
  0002c	8b 46 14	 mov	 eax, DWORD PTR [esi+20]
  0002f	ff 75 10	 push	 DWORD PTR _iDeposit$[ebp+4]
  00032	ff 75 0c	 push	 DWORD PTR _iDeposit$[ebp]
  00035	8b 40 08	 mov	 eax, DWORD PTR [eax+8]
  00038	ff 75 08	 push	 DWORD PTR _idPlayer$[ebp]
  0003b	ff 70 08	 push	 DWORD PTR [eax+8]
  0003e	8d 85 fc fe ff
	ff		 lea	 eax, DWORD PTR _szQuery$[ebp]
  00044	ff 35 00 00 00
	00		 push	 DWORD PTR ?g_appInfo@@3UAppInfo@@A
  0004a	68 00 00 00 00	 push	 OFFSET ??_C@_0CM@MKKLKFBM@uspElectionAddDeposit?5?$CFd?0?5?$CFd?0?5?$CF@
  0004f	50		 push	 eax
  00050	e8 00 00 00 00	 call	 _sprintf

; 695  : 	return GetQueryObject()->Exec( szQuery );

  00055	8b 4e 0c	 mov	 ecx, DWORD PTR [esi+12]
  00058	8d 85 fc fe ff
	ff		 lea	 eax, DWORD PTR _szQuery$[ebp]
  0005e	83 c4 2c	 add	 esp, 44			; 0000002cH
  00061	50		 push	 eax
  00062	e8 00 00 00 00	 call	 ?Exec@CQuery@@QAEHPBD@Z	; CQuery::Exec

; 696  : }

  00067	8b 4d fc	 mov	 ecx, DWORD PTR __$ArrayPad$[ebp]
  0006a	33 cd		 xor	 ecx, ebp
  0006c	5e		 pop	 esi
  0006d	e8 00 00 00 00	 call	 @__security_check_cookie@4
  00072	8b e5		 mov	 esp, ebp
  00074	5d		 pop	 ebp
  00075	c2 10 00	 ret	 16			; 00000010H
?AddDeposit@CLController@@QAEHK_JJ@Z ENDP		; CLController::AddDeposit
_TEXT	ENDS
; Function compile flags: /Ogtp
; File C:\IAGOS\server\v18\Source\Source\DatabaseServer\tlord.cpp
; File C:\Program Files\Microsoft Visual Studio\2022\Professional\VC\Tools\MSVC\14.44.35207\atlmfc\include\atlsimpstr.h
; File C:\IAGOS\server\v18\Source\Source\DatabaseServer\tlord.cpp
; File C:\Program Files\Microsoft Visual Studio\2022\Professional\VC\Tools\MSVC\14.44.35207\atlmfc\include\atlsimpstr.h
; File C:\IAGOS\server\v18\Source\Source\DatabaseServer\tlord.cpp
;	COMDAT ?EndVote@CLController@@QAEHK@Z
_TEXT	SEGMENT
$T2 = -16						; size = 4
__$EHRec$ = -12						; size = 12
_idPlayer$ = 8						; size = 4
?EndVote@CLController@@QAEHK@Z PROC			; CLController::EndVote, COMDAT
; _this$ = ecx

; 684  : {	// ĹőÇĄ Áľ·á »óĹÂ ŔúŔĺ

  00000	55		 push	 ebp
  00001	8b ec		 mov	 ebp, esp
  00003	6a ff		 push	 -1
  00005	68 00 00 00 00	 push	 __ehhandler$?EndVote@CLController@@QAEHK@Z
  0000a	64 a1 00 00 00
	00		 mov	 eax, DWORD PTR fs:0
  00010	50		 push	 eax
  00011	51		 push	 ecx
  00012	56		 push	 esi
  00013	57		 push	 edi
  00014	a1 00 00 00 00	 mov	 eax, DWORD PTR ___security_cookie
  00019	33 c5		 xor	 eax, ebp
  0001b	50		 push	 eax
  0001c	8d 45 f4	 lea	 eax, DWORD PTR __$EHRec$[ebp]
  0001f	64 a3 00 00 00
	00		 mov	 DWORD PTR fs:0, eax
  00025	8b f9		 mov	 edi, ecx

; 685  : 	IElection* pElection	= m_pLord->GetElection();

  00027	8b 47 14	 mov	 eax, DWORD PTR [edi+20]
  0002a	8b 70 08	 mov	 esi, DWORD PTR [eax+8]

; 686  : 	return GetQueryObject()->Execute( "uspElectionEndVote %d, %d, %d, %s", g_appInfo.dwSys, pElection->GetId(), idPlayer,

  0002d	8b ce		 mov	 ecx, esi
  0002f	e8 00 00 00 00	 call	 ?GetNextBegin@IElection@@QAEJXZ ; IElection::GetNextBegin
  00034	50		 push	 eax
  00035	8d 45 f0	 lea	 eax, DWORD PTR $T2[ebp]
  00038	50		 push	 eax
  00039	e8 00 00 00 00	 call	 ?ttos@CTElection@@SA?AV?$CStringT@DV?$StrTraitMFC@DV?$ChTraitsCRT@D@ATL@@@@@ATL@@J@Z ; CTElection::ttos
  0003e	ff 30		 push	 DWORD PTR [eax]
  00040	c7 45 fc 00 00
	00 00		 mov	 DWORD PTR __$EHRec$[ebp+8], 0
  00047	ff 75 08	 push	 DWORD PTR _idPlayer$[ebp]
  0004a	ff 76 08	 push	 DWORD PTR [esi+8]
  0004d	ff 35 00 00 00
	00		 push	 DWORD PTR ?g_appInfo@@3UAppInfo@@A
  00053	68 00 00 00 00	 push	 OFFSET ??_C@_0CC@KFNJJIIE@uspElectionEndVote?5?$CFd?0?5?$CFd?0?5?$CFd?0?5@
  00058	ff 77 0c	 push	 DWORD PTR [edi+12]
  0005b	e8 00 00 00 00	 call	 ?Execute@CQuery@@QAAHPBDZZ ; CQuery::Execute
; File C:\Program Files\Microsoft Visual Studio\2022\Professional\VC\Tools\MSVC\14.44.35207\atlmfc\include\atlsimpstr.h

; 804  : 		return( reinterpret_cast< CStringData* >( m_pszData )-1 );

  00060	8b 55 f0	 mov	 edx, DWORD PTR $T2[ebp]
; File C:\IAGOS\server\v18\Source\Source\DatabaseServer\tlord.cpp

; 686  : 	return GetQueryObject()->Execute( "uspElectionEndVote %d, %d, %d, %s", g_appInfo.dwSys, pElection->GetId(), idPlayer,

  00063	83 c4 20	 add	 esp, 32			; 00000020H
  00066	8b f0		 mov	 esi, eax
  00068	c7 45 fc ff ff
	ff ff		 mov	 DWORD PTR __$EHRec$[ebp+8], -1
; File C:\Program Files\Microsoft Visual Studio\2022\Professional\VC\Tools\MSVC\14.44.35207\atlmfc\include\atlsimpstr.h

; 804  : 		return( reinterpret_cast< CStringData* >( m_pszData )-1 );

  0006f	83 c2 f0	 add	 edx, -16		; fffffff0H

; 92   : 		if( _InterlockedDecrement( &nRefs ) <= 0 )

  00072	83 c9 ff	 or	 ecx, -1
  00075	f0 0f c1 4a 0c	 lock	  xadd	 DWORD PTR [edx+12], ecx
  0007a	49		 dec	 ecx
  0007b	85 c9		 test	 ecx, ecx
  0007d	7f 0a		 jg	 SHORT $LN11@EndVote

; 93   : 		{
; 94   : 			pStringMgr->Free( this );

  0007f	8b 0a		 mov	 ecx, DWORD PTR [edx]
  00081	52		 push	 edx
  00082	8b 01		 mov	 eax, DWORD PTR [ecx]
  00084	ff 50 04	 call	 DWORD PTR [eax+4]
; File C:\IAGOS\server\v18\Source\Source\DatabaseServer\tlord.cpp

; 686  : 	return GetQueryObject()->Execute( "uspElectionEndVote %d, %d, %d, %s", g_appInfo.dwSys, pElection->GetId(), idPlayer,

  00087	8b c6		 mov	 eax, esi
$LN11@EndVote:

; 687  : 		(LPCSTR)CTElection::ttos( pElection->GetNextBegin() ) );
; 688  : }

  00089	8b 4d f4	 mov	 ecx, DWORD PTR __$EHRec$[ebp]
  0008c	64 89 0d 00 00
	00 00		 mov	 DWORD PTR fs:0, ecx
  00093	59		 pop	 ecx
  00094	5f		 pop	 edi
  00095	5e		 pop	 esi
  00096	8b e5		 mov	 esp, ebp
  00098	5d		 pop	 ebp
  00099	c2 04 00	 ret	 4
_TEXT	ENDS
;	COMDAT text$x
text$x	SEGMENT
__unwindfunclet$?EndVote@CLController@@QAEHK@Z$0:
  00000	8d 4d f0	 lea	 ecx, DWORD PTR $T2[ebp]
  00003	e9 00 00 00 00	 jmp	 ??1?$CStringT@DV?$StrTraitMFC@DV?$ChTraitsCRT@D@ATL@@@@@ATL@@QAE@XZ ; ATL::CStringT<char,StrTraitMFC<char,ATL::ChTraitsCRT<char> > >::~CStringT<char,StrTraitMFC<char,ATL::ChTraitsCRT<char> > >
  00008	cc		 int	 3
  00009	cc		 int	 3
  0000a	cc		 int	 3
  0000b	cc		 int	 3
  0000c	cc		 int	 3
__ehhandler$?EndVote@CLController@@QAEHK@Z:
  0000d	90		 npad	 1
  0000e	90		 npad	 1
  0000f	8b 54 24 08	 mov	 edx, DWORD PTR [esp+8]
  00013	8d 42 0c	 lea	 eax, DWORD PTR [edx+12]
  00016	8b 4a f0	 mov	 ecx, DWORD PTR [edx-16]
  00019	33 c8		 xor	 ecx, eax
  0001b	e8 00 00 00 00	 call	 @__security_check_cookie@4
  00020	b8 00 00 00 00	 mov	 eax, OFFSET __ehfuncinfo$?EndVote@CLController@@QAEHK@Z
  00025	e9 00 00 00 00	 jmp	 ___CxxFrameHandler3
text$x	ENDS
?EndVote@CLController@@QAEHK@Z ENDP			; CLController::EndVote
; Function compile flags: /Ogtp
; File C:\IAGOS\server\v18\Source\Source\DatabaseServer\tlord.cpp
;	COMDAT ?BeginVote@CLController@@QAEHXZ
_TEXT	SEGMENT
_szQuery$ = -260					; size = 255
__$ArrayPad$ = -4					; size = 4
?BeginVote@CLController@@QAEHXZ PROC			; CLController::BeginVote, COMDAT
; _this$ = ecx

; 673  : {	// ĹőÇĄ ˝ĂŔŰ »óĹÂ ŔúŔĺ

  00000	55		 push	 ebp
  00001	8b ec		 mov	 ebp, esp
  00003	81 ec 04 01 00
	00		 sub	 esp, 260		; 00000104H
  00009	a1 00 00 00 00	 mov	 eax, DWORD PTR ___security_cookie
  0000e	33 c5		 xor	 eax, ebp
  00010	89 45 fc	 mov	 DWORD PTR __$ArrayPad$[ebp], eax
  00013	56		 push	 esi

; 674  : 	int nRequirement	= -1;
; 675  : 	char szQuery[255]	= { 0,};

  00014	68 ff 00 00 00	 push	 255			; 000000ffH
  00019	8d 85 fc fe ff
	ff		 lea	 eax, DWORD PTR _szQuery$[ebp]
  0001f	8b f1		 mov	 esi, ecx
  00021	6a 00		 push	 0
  00023	50		 push	 eax
  00024	e8 00 00 00 00	 call	 _memset

; 676  : 	IElection* pElection	= m_pLord->GetElection();
; 677  : 	sprintf( szQuery, "uspElectionBeginVote %d, %d", g_appInfo.dwSys, pElection->GetId() );

  00029	8b 46 14	 mov	 eax, DWORD PTR [esi+20]
  0002c	8b 40 08	 mov	 eax, DWORD PTR [eax+8]
  0002f	ff 70 08	 push	 DWORD PTR [eax+8]
  00032	8d 85 fc fe ff
	ff		 lea	 eax, DWORD PTR _szQuery$[ebp]
  00038	ff 35 00 00 00
	00		 push	 DWORD PTR ?g_appInfo@@3UAppInfo@@A
  0003e	68 00 00 00 00	 push	 OFFSET ??_C@_0BM@CADCBIMM@uspElectionBeginVote?5?$CFd?0?5?$CFd@
  00043	50		 push	 eax
  00044	e8 00 00 00 00	 call	 _sprintf

; 678  : 	if( GetQueryObject()->Exec( szQuery ) && GetQueryObject()->Fetch() )

  00049	8b 4e 0c	 mov	 ecx, DWORD PTR [esi+12]
  0004c	8d 85 fc fe ff
	ff		 lea	 eax, DWORD PTR _szQuery$[ebp]
  00052	83 c4 1c	 add	 esp, 28			; 0000001cH
  00055	50		 push	 eax
  00056	e8 00 00 00 00	 call	 ?Exec@CQuery@@QAEHPBD@Z	; CQuery::Exec
  0005b	85 c0		 test	 eax, eax
  0005d	74 28		 je	 SHORT $LN4@BeginVote
  0005f	8b 4e 0c	 mov	 ecx, DWORD PTR [esi+12]
  00062	e8 00 00 00 00	 call	 ?Fetch@CQuery@@QAEHXZ	; CQuery::Fetch
  00067	85 c0		 test	 eax, eax
  00069	74 1c		 je	 SHORT $LN4@BeginVote

; 679  : 		nRequirement	= GetQueryObject()->GetInt( "nRequirement" );

  0006b	8b 4e 0c	 mov	 ecx, DWORD PTR [esi+12]
  0006e	68 00 00 00 00	 push	 OFFSET ??_C@_0N@NOMIPDCI@nRequirement@
  00073	e8 00 00 00 00	 call	 ?GetInt@CQuery@@QAEHPAD@Z ; CQuery::GetInt
  00078	5e		 pop	 esi

; 680  : 	return nRequirement;
; 681  : }

  00079	8b 4d fc	 mov	 ecx, DWORD PTR __$ArrayPad$[ebp]
  0007c	33 cd		 xor	 ecx, ebp
  0007e	e8 00 00 00 00	 call	 @__security_check_cookie@4
  00083	8b e5		 mov	 esp, ebp
  00085	5d		 pop	 ebp
  00086	c3		 ret	 0
$LN4@BeginVote:
  00087	8b 4d fc	 mov	 ecx, DWORD PTR __$ArrayPad$[ebp]
  0008a	83 c8 ff	 or	 eax, -1
  0008d	33 cd		 xor	 ecx, ebp
  0008f	5e		 pop	 esi
  00090	e8 00 00 00 00	 call	 @__security_check_cookie@4
  00095	8b e5		 mov	 esp, ebp
  00097	5d		 pop	 ebp
  00098	c3		 ret	 0
?BeginVote@CLController@@QAEHXZ ENDP			; CLController::BeginVote
_TEXT	ENDS
; Function compile flags: /Ogtp
; File C:\IAGOS\server\v18\Source\Source\DatabaseServer\tlord.cpp
;	COMDAT ?BeginCandidacy@CLController@@QAEHXZ
_TEXT	SEGMENT
_szQuery$ = -260					; size = 255
__$ArrayPad$ = -4					; size = 4
?BeginCandidacy@CLController@@QAEHXZ PROC		; CLController::BeginCandidacy, COMDAT
; _this$ = ecx

; 665  : {	// ŔÔČÄş¸ ˝ĂŔŰ »óĹÂ ŔúŔĺ

  00000	55		 push	 ebp
  00001	8b ec		 mov	 ebp, esp
  00003	81 ec 04 01 00
	00		 sub	 esp, 260		; 00000104H
  00009	a1 00 00 00 00	 mov	 eax, DWORD PTR ___security_cookie
  0000e	33 c5		 xor	 eax, ebp
  00010	89 45 fc	 mov	 DWORD PTR __$ArrayPad$[ebp], eax
  00013	56		 push	 esi

; 666  : 	char szQuery[255]	= { 0,};

  00014	68 ff 00 00 00	 push	 255			; 000000ffH
  00019	8d 85 fc fe ff
	ff		 lea	 eax, DWORD PTR _szQuery$[ebp]
  0001f	8b f1		 mov	 esi, ecx
  00021	6a 00		 push	 0
  00023	50		 push	 eax
  00024	e8 00 00 00 00	 call	 _memset

; 667  : 	IElection* pElection	= m_pLord->GetElection();
; 668  : 	sprintf( szQuery, "uspElectionBeginCandidacy %d, %d", g_appInfo.dwSys, pElection->GetId() );

  00029	8b 46 14	 mov	 eax, DWORD PTR [esi+20]
  0002c	8b 40 08	 mov	 eax, DWORD PTR [eax+8]
  0002f	ff 70 08	 push	 DWORD PTR [eax+8]
  00032	8d 85 fc fe ff
	ff		 lea	 eax, DWORD PTR _szQuery$[ebp]
  00038	ff 35 00 00 00
	00		 push	 DWORD PTR ?g_appInfo@@3UAppInfo@@A
  0003e	68 00 00 00 00	 push	 OFFSET ??_C@_0CB@IFBIPCGL@uspElectionBeginCandidacy?5?$CFd?0?5?$CF@
  00043	50		 push	 eax
  00044	e8 00 00 00 00	 call	 _sprintf

; 669  : 	return GetQueryObject()->Exec( szQuery );

  00049	8b 4e 0c	 mov	 ecx, DWORD PTR [esi+12]
  0004c	8d 85 fc fe ff
	ff		 lea	 eax, DWORD PTR _szQuery$[ebp]
  00052	83 c4 1c	 add	 esp, 28			; 0000001cH
  00055	50		 push	 eax
  00056	e8 00 00 00 00	 call	 ?Exec@CQuery@@QAEHPBD@Z	; CQuery::Exec

; 670  : }

  0005b	8b 4d fc	 mov	 ecx, DWORD PTR __$ArrayPad$[ebp]
  0005e	33 cd		 xor	 ecx, ebp
  00060	5e		 pop	 esi
  00061	e8 00 00 00 00	 call	 @__security_check_cookie@4
  00066	8b e5		 mov	 esp, ebp
  00068	5d		 pop	 ebp
  00069	c3		 ret	 0
?BeginCandidacy@CLController@@QAEHXZ ENDP		; CLController::BeginCandidacy
_TEXT	ENDS
; Function compile flags: /Ogtp
; File C:\IAGOS\server\v18\Source\Source\DatabaseServer\tlord.cpp
;	COMDAT ?Restore@CLController@@QAEHXZ
_TEXT	SEGMENT
_pElection$1$ = -4					; size = 4
?Restore@CLController@@QAEHXZ PROC			; CLController::Restore, COMDAT
; _this$ = ecx

; 646  : {	// ¸đµç ±şÁÖ ˝Ă˝şĹŰ Çů·Â °´ĂĽµéŔÇ şążř

  00000	55		 push	 ebp
  00001	8b ec		 mov	 ebp, esp
  00003	51		 push	 ecx
  00004	56		 push	 esi
  00005	57		 push	 edi
  00006	8b f9		 mov	 edi, ecx

; 647  : 	CQuery* pQuery	= CreateQuery();

  00008	e8 00 00 00 00	 call	 ?CreateQuery@CDbController@@QAEPAVCQuery@@XZ ; CDbController::CreateQuery
  0000d	8b f0		 mov	 esi, eax

; 648  : 	if( !pQuery )

  0000f	85 f6		 test	 esi, esi
  00011	75 06		 jne	 SHORT $LN2@Restore

; 662  : }

  00013	5f		 pop	 edi
  00014	5e		 pop	 esi
  00015	8b e5		 mov	 esp, ebp
  00017	5d		 pop	 ebp
  00018	c3		 ret	 0
$LN2@Restore:

; 649  : 		return FALSE;
; 650  : 	CTElection* pElection	= static_cast<CTElection*>( m_pLord->GetElection() );

  00019	8b 4f 14	 mov	 ecx, DWORD PTR [edi+20]
  0001c	53		 push	 ebx

; 651  : 	CLEvent* pEvent		= static_cast<CLEvent*>( m_pLord->GetEvent() );
; 652  : 	CTLordSkill* pSkills	= static_cast<CTLordSkill*>( m_pLord->GetSkills() );
; 653  : 	
; 654  : 	if( m_pLord->Restore( pQuery ) && pElection->Restore( pQuery )
; 655  : 		&& pEvent->Restore( pQuery ) && pSkills->Restore( pQuery ) )

  0001d	56		 push	 esi
  0001e	8b 41 08	 mov	 eax, DWORD PTR [ecx+8]
  00021	8b 59 0c	 mov	 ebx, DWORD PTR [ecx+12]
  00024	8b 79 10	 mov	 edi, DWORD PTR [ecx+16]
  00027	89 45 fc	 mov	 DWORD PTR _pElection$1$[ebp], eax
  0002a	e8 00 00 00 00	 call	 ?Restore@CTLord@@QAEHPAVCQuery@@@Z ; CTLord::Restore
  0002f	85 c0		 test	 eax, eax
  00031	74 46		 je	 SHORT $LN3@Restore
  00033	8b 4d fc	 mov	 ecx, DWORD PTR _pElection$1$[ebp]
  00036	56		 push	 esi
  00037	e8 00 00 00 00	 call	 ?Restore@CTElection@@QAEHPAVCQuery@@@Z ; CTElection::Restore
  0003c	85 c0		 test	 eax, eax
  0003e	74 39		 je	 SHORT $LN3@Restore
  00040	56		 push	 esi
  00041	8b cb		 mov	 ecx, ebx
  00043	e8 00 00 00 00	 call	 ?Restore@CLEvent@@QAEHPAVCQuery@@@Z ; CLEvent::Restore
  00048	85 c0		 test	 eax, eax
  0004a	74 2d		 je	 SHORT $LN3@Restore
  0004c	56		 push	 esi
  0004d	8b cf		 mov	 ecx, edi
  0004f	e8 00 00 00 00	 call	 ?Restore@CTLordSkill@@QAEHPAVCQuery@@@Z ; CTLordSkill::Restore
  00054	85 c0		 test	 eax, eax
  00056	74 21		 je	 SHORT $LN3@Restore

; 656  : 	{
; 657  : 		SAFE_DELETE( pQuery );
; 658  : 		return TRUE;

  00058	8b ce		 mov	 ecx, esi
  0005a	e8 00 00 00 00	 call	 ??1CQuery@@QAE@XZ	; CQuery::~CQuery
  0005f	68 10 3d 00 00	 push	 15632			; 00003d10H
  00064	56		 push	 esi
  00065	e8 00 00 00 00	 call	 ??3@YAXPAXI@Z		; operator delete
  0006a	83 c4 08	 add	 esp, 8
  0006d	b8 01 00 00 00	 mov	 eax, 1
  00072	5b		 pop	 ebx
  00073	5f		 pop	 edi

; 662  : }

  00074	5e		 pop	 esi
  00075	8b e5		 mov	 esp, ebp
  00077	5d		 pop	 ebp
  00078	c3		 ret	 0
$LN3@Restore:
  00079	8b ce		 mov	 ecx, esi
  0007b	e8 00 00 00 00	 call	 ??1CQuery@@QAE@XZ	; CQuery::~CQuery
  00080	68 10 3d 00 00	 push	 15632			; 00003d10H
  00085	56		 push	 esi
  00086	e8 00 00 00 00	 call	 ??3@YAXPAXI@Z		; operator delete
  0008b	83 c4 08	 add	 esp, 8

; 659  : 	}
; 660  : 	SAFE_DELETE( pQuery );	
; 661  : 	return FALSE;

  0008e	33 c0		 xor	 eax, eax
  00090	5b		 pop	 ebx
  00091	5f		 pop	 edi

; 662  : }

  00092	5e		 pop	 esi
  00093	8b e5		 mov	 esp, ebp
  00095	5d		 pop	 ebp
  00096	c3		 ret	 0
?Restore@CLController@@QAEHXZ ENDP			; CLController::Restore
_TEXT	ENDS
; Function compile flags: /Ogtp
; File C:\IAGOS\server\v18\Source\Source\DatabaseServer\tlord.cpp
;	COMDAT ??1CLController@@UAE@XZ
_TEXT	SEGMENT
??1CLController@@UAE@XZ PROC				; CLController::~CLController, COMDAT
; _this$ = ecx

; 632  : {

  00000	c7 01 00 00 00
	00		 mov	 DWORD PTR [ecx], OFFSET ??_7CLController@@6B@

; 633  : }

  00006	e9 00 00 00 00	 jmp	 ??1CDbController@@UAE@XZ ; CDbController::~CDbController
??1CLController@@UAE@XZ ENDP				; CLController::~CLController
_TEXT	ENDS
; Function compile flags: /Ogtp
; File C:\IAGOS\server\v18\Source\Source\DatabaseServer\tlord.cpp
;	COMDAT ??0CLController@@QAE@PAVCTLord@@@Z
_TEXT	SEGMENT
_this$ = -4						; size = 4
_pLord$ = 8						; size = 4
??0CLController@@QAE@PAVCTLord@@@Z PROC			; CLController::CLController, COMDAT
; _this$ = ecx

; 628  : {

  00000	55		 push	 ebp
  00001	8b ec		 mov	 ebp, esp
  00003	51		 push	 ecx
  00004	56		 push	 esi
  00005	8b f1		 mov	 esi, ecx
  00007	89 75 fc	 mov	 DWORD PTR _this$[ebp], esi
  0000a	e8 00 00 00 00	 call	 ??0CDbController@@QAE@XZ ; CDbController::CDbController

; 626  : m_pLord( pLord ), 

  0000f	8b 45 08	 mov	 eax, DWORD PTR _pLord$[ebp]
  00012	89 46 14	 mov	 DWORD PTR [esi+20], eax

; 629  : }

  00015	8b c6		 mov	 eax, esi
  00017	c7 06 00 00 00
	00		 mov	 DWORD PTR [esi], OFFSET ??_7CLController@@6B@
  0001d	5e		 pop	 esi
  0001e	8b e5		 mov	 esp, ebp
  00020	5d		 pop	 ebp
  00021	c2 04 00	 ret	 4
??0CLController@@QAE@PAVCTLord@@@Z ENDP			; CLController::CLController
_TEXT	ENDS
; Function compile flags: /Ogtp
; File C:\IAGOS\server\v18\Source\Source\DatabaseServer\tlord.cpp
; File C:\Program Files (x86)\Windows Kits\10\Include\10.0.26100.0\ucrt\time.h
; File C:\IAGOS\server\v18\Source\Source\DatabaseServer\tlord.cpp
; File C:\Program Files (x86)\Windows Kits\10\Include\10.0.26100.0\ucrt\time.h
; File C:\IAGOS\server\v18\Source\Source\DatabaseServer\tlord.cpp
; File C:\Program Files (x86)\Windows Kits\10\Include\10.0.26100.0\ucrt\time.h
; File C:\IAGOS\server\v18\Source\Source\DatabaseServer\tlord.cpp
; File C:\IAGOS\server\v18\Source\Source\_Common\Data.h
; File C:\IAGOS\server\v18\Source\Source\DatabaseServer\Project.h
; File C:\IAGOS\server\v18\Source\Source\DatabaseServer\tlord.cpp
; File C:\IAGOS\server\v18\Source\Source\_Common\Data.h
; File C:\Program Files\Microsoft Visual Studio\2022\Professional\VC\Tools\MSVC\14.44.35207\include\memory
; File C:\IAGOS\server\v18\Source\Source\_Common\Data.h
; File C:\IAGOS\server\v18\Source\Source\DatabaseServer\Project.h
; File C:\IAGOS\server\v18\Source\Source\DatabaseServer\tlord.cpp
; File C:\IAGOS\server\v18\Source\Source\_Common\Data.h
; File C:\IAGOS\server\v18\Source\Source\DatabaseServer\Project.h
; File C:\IAGOS\server\v18\Source\Source\DatabaseServer\tlord.cpp
; File C:\IAGOS\server\v18\Source\Source\_Common\Data.h
; File C:\Program Files\Microsoft Visual Studio\2022\Professional\VC\Tools\MSVC\14.44.35207\include\memory
; File C:\IAGOS\server\v18\Source\Source\_Common\Data.h
; File C:\IAGOS\server\v18\Source\Source\DatabaseServer\Project.h
; File C:\IAGOS\server\v18\Source\Source\DatabaseServer\tlord.cpp
; File C:\IAGOS\server\v18\Source\Source\_Common\xutil.h
; File C:\IAGOS\server\v18\Source\Source\DatabaseServer\tlord.cpp
;	COMDAT ??RPostDeposit@@QBEXABV?$shared_ptr@VCCandidate@@@std@@@Z
_TEXT	SEGMENT
$T2 = -32						; size = 4
_nOrder$1$ = -32					; size = 4
_this$1$ = -28						; size = 4
_pElection$1$ = -24					; size = 4
_iDeposit$2$ = -20					; size = 4
_idReceiver$1$ = -16					; size = 4
__$EHRec$ = -12						; size = 12
_lhs$ = 8						; size = 4
_fRate$ = 8						; size = 4
$T3 = 8							; size = 4
_fRate$1$ = 8						; size = 4
??RPostDeposit@@QBEXABV?$shared_ptr@VCCandidate@@@std@@@Z PROC ; PostDeposit::operator(), COMDAT
; _this$ = ecx

; 353  : {	// ŔÔÂű±Ý żěĆí ąÝČŻ ÇÔĽöŔÚ

  00000	55		 push	 ebp
  00001	8b ec		 mov	 ebp, esp
  00003	6a ff		 push	 -1
  00005	68 00 00 00 00	 push	 __ehhandler$??RPostDeposit@@QBEXABV?$shared_ptr@VCCandidate@@@std@@@Z
  0000a	64 a1 00 00 00
	00		 mov	 eax, DWORD PTR fs:0
  00010	50		 push	 eax
  00011	83 ec 14	 sub	 esp, 20			; 00000014H
  00014	53		 push	 ebx
  00015	56		 push	 esi
  00016	57		 push	 edi
  00017	a1 00 00 00 00	 mov	 eax, DWORD PTR ___security_cookie
  0001c	33 c5		 xor	 eax, ebp
  0001e	50		 push	 eax
  0001f	8d 45 f4	 lea	 eax, DWORD PTR __$EHRec$[ebp]
  00022	64 a3 00 00 00
	00		 mov	 DWORD PTR fs:0, eax
  00028	89 4d e4	 mov	 DWORD PTR _this$1$[ebp], ecx

; 354  : 	u_long idReceiver	= lhs->GetIdPlayer();

  0002b	8b 7d 08	 mov	 edi, DWORD PTR _lhs$[ebp]
  0002e	8b 07		 mov	 eax, DWORD PTR [edi]
  00030	8b 18		 mov	 ebx, DWORD PTR [eax]
  00032	89 5d f0	 mov	 DWORD PTR _idReceiver$1$[ebp], ebx

; 355  : 	CTElection* pElection	= static_cast<CTElection*>( CTLord::Instance()->GetElection() );

  00035	e8 00 00 00 00	 call	 ?Instance@CTLord@@SAPAV1@XZ ; CTLord::Instance

; 356  : 
; 357  : 	// ČÄş¸ŔÚ ĽřŔ§żˇ µű¸Ą ąÝČŻ±Ý ±¸ÇĎ±â
; 358  : 	float fRate		= pElection->GetRetRate( idReceiver );

  0003a	53		 push	 ebx
  0003b	8b 40 08	 mov	 eax, DWORD PTR [eax+8]
  0003e	8b c8		 mov	 ecx, eax
  00040	89 45 e8	 mov	 DWORD PTR _pElection$1$[ebp], eax
  00043	e8 00 00 00 00	 call	 ?GetRetRate@CTElection@@QAEMK@Z ; CTElection::GetRetRate
  00048	d9 5d 08	 fstp	 DWORD PTR _fRate$[ebp]

; 359  : 	if( fRate == 0.0F )

  0004b	f3 0f 10 45 08	 movss	 xmm0, DWORD PTR _fRate$[ebp]
  00050	0f 2e 05 00 00
	00 00		 ucomiss xmm0, DWORD PTR __real@00000000
  00057	9f		 lahf
  00058	f6 c4 44	 test	 ah, 68			; 00000044H
  0005b	0f 8b 50 02 00
	00		 jnp	 $LN1@operator

; 360  : 		return;
; 361  : 	// 2008/10/31 - Á¤ąĐµµ żŔ·ů°ˇ ąß»ýÇĎż© ĽöÁ¤ - Ë¬
; 362  : //	__int64 iDeposit	= lhs->GetDeposit() * fRate;
; 363  : 	__int64 iDeposit	= (__int64)( lhs->GetDeposit() / 100 * ( fRate * 100 ) );

  00061	8b 07		 mov	 eax, DWORD PTR [edi]
  00063	f3 0f 59 05 00
	00 00 00	 mulss	 xmm0, DWORD PTR __real@42c80000
  0006b	6a 00		 push	 0
  0006d	6a 64		 push	 100			; 00000064H
  0006f	ff 70 0c	 push	 DWORD PTR [eax+12]
  00072	f3 0f 11 45 08	 movss	 DWORD PTR _fRate$1$[ebp], xmm0
  00077	ff 70 08	 push	 DWORD PTR [eax+8]
  0007a	e8 00 00 00 00	 call	 __alldiv
  0007f	8b c8		 mov	 ecx, eax
  00081	e8 00 00 00 00	 call	 __ltof3
  00086	f3 0f 59 45 08	 mulss	 xmm0, DWORD PTR _fRate$1$[ebp]
  0008b	e8 00 00 00 00	 call	 __ftol3

; 366  : 	CMail* pMail	= new CMail;

  00090	68 40 01 00 00	 push	 320			; 00000140H
  00095	8b d8		 mov	 ebx, eax
  00097	89 55 ec	 mov	 DWORD PTR _iDeposit$2$[ebp], edx
  0009a	e8 00 00 00 00	 call	 ??2@YAPAXI@Z		; operator new
  0009f	83 c4 04	 add	 esp, 4
  000a2	89 45 e0	 mov	 DWORD PTR $T2[ebp], eax
  000a5	c7 45 fc 00 00
	00 00		 mov	 DWORD PTR __$EHRec$[ebp+8], 0
  000ac	85 c0		 test	 eax, eax
  000ae	74 0b		 je	 SHORT $LN8@operator
  000b0	8b c8		 mov	 ecx, eax
  000b2	e8 00 00 00 00	 call	 ??0CMail@@QAE@XZ	; CMail::CMail
  000b7	8b f0		 mov	 esi, eax
  000b9	eb 02		 jmp	 SHORT $LN9@operator
$LN8@operator:
  000bb	33 f6		 xor	 esi, esi
$LN9@operator:
; File C:\Program Files (x86)\Windows Kits\10\Include\10.0.26100.0\ucrt\time.h

; 428  :             return _time32(_Time);

  000bd	6a 00		 push	 0
; File C:\IAGOS\server\v18\Source\Source\DatabaseServer\tlord.cpp

; 366  : 	CMail* pMail	= new CMail;

  000bf	c7 45 fc ff ff
	ff ff		 mov	 DWORD PTR __$EHRec$[ebp+8], -1
; File C:\Program Files (x86)\Windows Kits\10\Include\10.0.26100.0\ucrt\time.h

; 428  :             return _time32(_Time);

  000c6	e8 00 00 00 00	 call	 __time32
; File C:\IAGOS\server\v18\Source\Source\DatabaseServer\tlord.cpp

; 370  : 	int nOrder	= pElection->GetOrder( idReceiver );

  000cb	8b 4d e8	 mov	 ecx, DWORD PTR _pElection$1$[ebp]
; File C:\Program Files (x86)\Windows Kits\10\Include\10.0.26100.0\ucrt\time.h

; 428  :             return _time32(_Time);

  000ce	83 c4 04	 add	 esp, 4
; File C:\IAGOS\server\v18\Source\Source\DatabaseServer\tlord.cpp

; 367  : 	pMail->m_tmCreate	= ::time_null();

  000d1	89 46 14	 mov	 DWORD PTR [esi+20], eax

; 368  : 	pMail->m_idSender	= 0;	//

  000d4	c7 46 08 00 00
	00 00		 mov	 DWORD PTR [esi+8], 0

; 370  : 	int nOrder	= pElection->GetOrder( idReceiver );

  000db	ff 75 f0	 push	 DWORD PTR _idReceiver$1$[ebp]
  000de	e8 00 00 00 00	 call	 ?GetOrder@IElection@@QAEHK@Z ; IElection::GetOrder
  000e3	89 45 e0	 mov	 DWORD PTR _nOrder$1$[ebp], eax

; 371  : 
; 372  : 	if( nOrder < IElection::nMaxCandidates )

  000e6	83 f8 0a	 cmp	 eax, 10			; 0000000aH
  000e9	0f 8d 8a 00 00
	00		 jge	 $LN3@operator
; File C:\IAGOS\server\v18\Source\Source\_Common\Data.h

; 270  : 	if( dwIndex >= (DWORD)m_nMaxIndex )

  000ef	81 3d 78 00 00
	00 9c 0e 00 00	 cmp	 DWORD PTR ?prj@@3VCProject@@A+120, 3740 ; 00000e9cH
  000f9	76 15		 jbe	 SHORT $LN64@operator

; 271  : 		return NULL;
; 272  : 	return (T*) m_apOffset[ dwIndex ];

  000fb	8b 0d 68 00 00
	00		 mov	 ecx, DWORD PTR ?prj@@3VCProject@@A+104
  00101	8b 81 70 3a 00
	00		 mov	 eax, DWORD PTR [ecx+14960]
; File C:\IAGOS\server\v18\Source\Source\DatabaseServer\Project.h

; 184  : 		if( m_colorText.GetAt( dwIndex ) == NULL )

  00107	85 c0		 test	 eax, eax
  00109	74 05		 je	 SHORT $LN64@operator

; 186  : 		return m_colorText.GetAt( dwIndex )->lpszData; 

  0010b	8b 40 04	 mov	 eax, DWORD PTR [eax+4]
  0010e	eb 05		 jmp	 SHORT $LN20@operator
$LN64@operator:

; 185  : 			return "";

  00110	b8 00 00 00 00	 mov	 eax, OFFSET ??_C@_00CNPNBAHC@@
$LN20@operator:
; File C:\IAGOS\server\v18\Source\Source\DatabaseServer\tlord.cpp

; 374  : 		lstrcpy( pMail->m_szTitle, prj.GetText( TID_GAME_ELECTION_RETURN_DEPOSIT_MAIL_TITLE_02 ) );	// title

  00115	50		 push	 eax
  00116	8d 46 19	 lea	 eax, DWORD PTR [esi+25]
  00119	50		 push	 eax
  0011a	ff 15 00 00 00
	00		 call	 DWORD PTR __imp__lstrcpyA@8
; File C:\IAGOS\server\v18\Source\Source\_Common\Data.h

; 270  : 	if( dwIndex >= (DWORD)m_nMaxIndex )

  00120	81 3d 78 00 00
	00 9d 0e 00 00	 cmp	 DWORD PTR ?prj@@3VCProject@@A+120, 3741 ; 00000e9dH
; File C:\Program Files\Microsoft Visual Studio\2022\Professional\VC\Tools\MSVC\14.44.35207\include\memory

; 1773 :         return get();

  0012a	8b 17		 mov	 edx, DWORD PTR [edi]
; File C:\IAGOS\server\v18\Source\Source\_Common\Data.h

; 270  : 	if( dwIndex >= (DWORD)m_nMaxIndex )

  0012c	76 14		 jbe	 SHORT $LN65@operator

; 271  : 		return NULL;
; 272  : 	return (T*) m_apOffset[ dwIndex ];

  0012e	a1 68 00 00 00	 mov	 eax, DWORD PTR ?prj@@3VCProject@@A+104
  00133	8b 80 74 3a 00
	00		 mov	 eax, DWORD PTR [eax+14964]
; File C:\IAGOS\server\v18\Source\Source\DatabaseServer\Project.h

; 184  : 		if( m_colorText.GetAt( dwIndex ) == NULL )

  00139	85 c0		 test	 eax, eax
  0013b	74 05		 je	 SHORT $LN65@operator

; 186  : 		return m_colorText.GetAt( dwIndex )->lpszData; 

  0013d	8b 48 04	 mov	 ecx, DWORD PTR [eax+4]
  00140	eb 05		 jmp	 SHORT $LN32@operator
$LN65@operator:

; 185  : 			return "";

  00142	b9 00 00 00 00	 mov	 ecx, OFFSET ??_C@_00CNPNBAHC@@
$LN32@operator:
  00147	f3 0f 10 45 08	 movss	 xmm0, DWORD PTR _fRate$1$[ebp]
; File C:\IAGOS\server\v18\Source\Source\DatabaseServer\tlord.cpp

; 375  : 		sprintf( pMail->m_szText, prj.GetText( TID_GAME_ELECTION_RETURN_DEPOSIT_MAIL_TEXT_02 ),

  0014c	8b 7d ec	 mov	 edi, DWORD PTR _iDeposit$2$[ebp]
  0014f	8b 45 e0	 mov	 eax, DWORD PTR _nOrder$1$[ebp]
  00152	57		 push	 edi
  00153	53		 push	 ebx
  00154	83 ec 08	 sub	 esp, 8
  00157	40		 inc	 eax
  00158	0f 5a c0	 cvtps2pd xmm0, xmm0
  0015b	f2 0f 11 04 24	 movsd	 QWORD PTR [esp], xmm0
  00160	50		 push	 eax
  00161	ff 72 0c	 push	 DWORD PTR [edx+12]
  00164	8d 46 39	 lea	 eax, DWORD PTR [esi+57]
  00167	ff 72 08	 push	 DWORD PTR [edx+8]
  0016a	51		 push	 ecx
  0016b	50		 push	 eax
  0016c	e8 00 00 00 00	 call	 _sprintf
  00171	83 c4 24	 add	 esp, 36			; 00000024H

; 376  : 			static_cast<__int64>( lhs->GetDeposit() ),
; 377  : 			nOrder + 1,
; 378  : 			static_cast<float>( fRate * 100.0F ),
; 379  : 			static_cast<__int64>( iDeposit ) );
; 380  : 	}

  00174	e9 ae 00 00 00	 jmp	 $LN5@operator
$LN3@operator:
; File C:\IAGOS\server\v18\Source\Source\_Common\Data.h

; 270  : 	if( dwIndex >= (DWORD)m_nMaxIndex )

  00179	81 3d 78 00 00
	00 98 0e 00 00	 cmp	 DWORD PTR ?prj@@3VCProject@@A+120, 3736 ; 00000e98H
  00183	76 14		 jbe	 SHORT $LN66@operator

; 271  : 		return NULL;
; 272  : 	return (T*) m_apOffset[ dwIndex ];

  00185	a1 68 00 00 00	 mov	 eax, DWORD PTR ?prj@@3VCProject@@A+104
  0018a	8b 80 60 3a 00
	00		 mov	 eax, DWORD PTR [eax+14944]
; File C:\IAGOS\server\v18\Source\Source\DatabaseServer\Project.h

; 184  : 		if( m_colorText.GetAt( dwIndex ) == NULL )

  00190	85 c0		 test	 eax, eax
  00192	74 05		 je	 SHORT $LN66@operator

; 186  : 		return m_colorText.GetAt( dwIndex )->lpszData; 

  00194	8b 40 04	 mov	 eax, DWORD PTR [eax+4]
  00197	eb 05		 jmp	 SHORT $LN41@operator
$LN66@operator:

; 185  : 			return "";

  00199	b8 00 00 00 00	 mov	 eax, OFFSET ??_C@_00CNPNBAHC@@
$LN41@operator:
; File C:\IAGOS\server\v18\Source\Source\DatabaseServer\tlord.cpp

; 383  : 		lstrcpy( pMail->m_szTitle, prj.GetText( TID_GAME_ELECTION_RETURN_DEPOSIT_MAIL_TITLE_01 ) );	// title

  0019e	50		 push	 eax
  0019f	8d 46 19	 lea	 eax, DWORD PTR [esi+25]
  001a2	50		 push	 eax
  001a3	ff 15 00 00 00
	00		 call	 DWORD PTR __imp__lstrcpyA@8
; File C:\IAGOS\server\v18\Source\Source\_Common\Data.h

; 270  : 	if( dwIndex >= (DWORD)m_nMaxIndex )

  001a9	81 3d 78 00 00
	00 99 0e 00 00	 cmp	 DWORD PTR ?prj@@3VCProject@@A+120, 3737 ; 00000e99H
; File C:\Program Files\Microsoft Visual Studio\2022\Professional\VC\Tools\MSVC\14.44.35207\include\memory

; 1773 :         return get();

  001b3	8b 0f		 mov	 ecx, DWORD PTR [edi]
; File C:\IAGOS\server\v18\Source\Source\_Common\Data.h

; 270  : 	if( dwIndex >= (DWORD)m_nMaxIndex )

  001b5	76 14		 jbe	 SHORT $LN67@operator

; 271  : 		return NULL;
; 272  : 	return (T*) m_apOffset[ dwIndex ];

  001b7	a1 68 00 00 00	 mov	 eax, DWORD PTR ?prj@@3VCProject@@A+104
  001bc	8b 80 64 3a 00
	00		 mov	 eax, DWORD PTR [eax+14948]
; File C:\IAGOS\server\v18\Source\Source\DatabaseServer\Project.h

; 184  : 		if( m_colorText.GetAt( dwIndex ) == NULL )

  001c2	85 c0		 test	 eax, eax
  001c4	74 05		 je	 SHORT $LN67@operator

; 186  : 		return m_colorText.GetAt( dwIndex )->lpszData; 

  001c6	8b 40 04	 mov	 eax, DWORD PTR [eax+4]
  001c9	eb 05		 jmp	 SHORT $LN53@operator
$LN67@operator:

; 185  : 			return "";

  001cb	b8 00 00 00 00	 mov	 eax, OFFSET ??_C@_00CNPNBAHC@@
$LN53@operator:
  001d0	f3 0f 10 45 08	 movss	 xmm0, DWORD PTR _fRate$1$[ebp]
; File C:\IAGOS\server\v18\Source\Source\DatabaseServer\tlord.cpp

; 384  : 		sprintf( pMail->m_szText, prj.GetText( TID_GAME_ELECTION_RETURN_DEPOSIT_MAIL_TEXT_01 ),

  001d5	8b 7d ec	 mov	 edi, DWORD PTR _iDeposit$2$[ebp]
  001d8	57		 push	 edi
  001d9	53		 push	 ebx
  001da	0f 5a c0	 cvtps2pd xmm0, xmm0
  001dd	83 ec 08	 sub	 esp, 8
  001e0	f2 0f 11 04 24	 movsd	 QWORD PTR [esp], xmm0
  001e5	ff 71 0c	 push	 DWORD PTR [ecx+12]
  001e8	ff 71 08	 push	 DWORD PTR [ecx+8]
  001eb	50		 push	 eax
  001ec	8d 46 39	 lea	 eax, DWORD PTR [esi+57]
  001ef	50		 push	 eax
  001f0	e8 00 00 00 00	 call	 _sprintf

; 385  : 			static_cast<__int64>( lhs->GetDeposit() ),
; 386  : 			static_cast<float>( fRate * 100.0F ),
; 387  : 			static_cast<__int64>( iDeposit ) );
; 388  : 
; 389  : 		if( !m_pQuery->Execute( "uspElectionLeaveOut %d, %d, %d", g_appInfo.dwSys, pElection->GetId(), idReceiver ) )

  001f5	ff 75 f0	 push	 DWORD PTR _idReceiver$1$[ebp]
  001f8	8b 45 e8	 mov	 eax, DWORD PTR _pElection$1$[ebp]
  001fb	ff 70 08	 push	 DWORD PTR [eax+8]
  001fe	8b 45 e4	 mov	 eax, DWORD PTR _this$1$[ebp]
  00201	ff 35 00 00 00
	00		 push	 DWORD PTR ?g_appInfo@@3UAppInfo@@A
  00207	68 00 00 00 00	 push	 OFFSET ??_C@_0BP@DDPAGKOB@uspElectionLeaveOut?5?$CFd?0?5?$CFd?0?5?$CFd@
  0020c	ff 30		 push	 DWORD PTR [eax]
  0020e	e8 00 00 00 00	 call	 ?Execute@CQuery@@QAAHPBDZZ ; CQuery::Execute
  00213	83 c4 34	 add	 esp, 52			; 00000034H
  00216	85 c0		 test	 eax, eax
  00218	75 0d		 jne	 SHORT $LN5@operator

; 390  : 			Error( "couldn't execute uspElectionLeaveOut" );

  0021a	68 00 00 00 00	 push	 OFFSET ??_C@_0CF@DMMBMGJN@couldn?8t?5execute?5uspElectionLea@
  0021f	e8 00 00 00 00	 call	 ?Error@@YAPBDPBDZZ	; Error
  00224	83 c4 04	 add	 esp, 4
$LN5@operator:

; 391  : 	}
; 392  : 	
; 393  : 	// ąÝČŻ±ÝŔ» Ćä¸°°ú ĆäłÄ·Î şĐ¸®ÇĎż© Ă·şÎ
; 394  : 	int nPerin	= static_cast<int>( iDeposit / static_cast<__int64>(PERIN_VALUE ) );

  00227	6a 00		 push	 0
  00229	68 00 e1 f5 05	 push	 100000000		; 05f5e100H
  0022e	57		 push	 edi
  0022f	53		 push	 ebx
  00230	e8 00 00 00 00	 call	 __alldiv
  00235	8b f8		 mov	 edi, eax

; 395  : 	int nPenya	= static_cast<int>( iDeposit - static_cast<__int64>( PERIN_VALUE ) * static_cast<__int64>( nPerin ) );

  00237	69 cf 00 e1 f5
	05		 imul	 ecx, edi, 100000000
  0023d	2b d9		 sub	 ebx, ecx

; 396  : 
; 397  : 	pMail->m_nGold	= nPenya;

  0023f	89 5e 10	 mov	 DWORD PTR [esi+16], ebx

; 398  : 	if( nPerin > 0 )

  00242	85 ff		 test	 edi, edi
  00244	7e 5a		 jle	 SHORT $LN6@operator

; 399  : 	{
; 400  : 		pMail->m_pItemElem	= new CItemElem;

  00246	68 98 00 00 00	 push	 152			; 00000098H
  0024b	e8 00 00 00 00	 call	 ??2@YAPAXI@Z		; operator new
  00250	83 c4 04	 add	 esp, 4
  00253	89 45 08	 mov	 DWORD PTR $T3[ebp], eax
  00256	c7 45 fc 01 00
	00 00		 mov	 DWORD PTR __$EHRec$[ebp+8], 1
  0025d	85 c0		 test	 eax, eax
  0025f	74 09		 je	 SHORT $LN10@operator
  00261	8b c8		 mov	 ecx, eax
  00263	e8 00 00 00 00	 call	 ??0CItemElem@@QAE@XZ	; CItemElem::CItemElem
  00268	eb 02		 jmp	 SHORT $LN11@operator
$LN10@operator:
  0026a	33 c0		 xor	 eax, eax
$LN11@operator:
  0026c	89 46 0c	 mov	 DWORD PTR [esi+12], eax

; 401  : 		pMail->m_pItemElem->m_dwItemId	= II_SYS_SYS_SCR_PERIN;

  0026f	c7 40 08 58 67
	00 00		 mov	 DWORD PTR [eax+8], 26456 ; 00006758H

; 402  : 		pMail->m_pItemElem->m_nItemNum	= static_cast<short>( nPerin );

  00276	8b 46 0c	 mov	 eax, DWORD PTR [esi+12]
  00279	c7 45 fc ff ff
	ff ff		 mov	 DWORD PTR __$EHRec$[ebp+8], -1
  00280	66 89 78 66	 mov	 WORD PTR [eax+102], di
; File C:\IAGOS\server\v18\Source\Source\_Common\xutil.h

; 16   : 	g_next = g_next * 1103515245 + 12345;// + nRandomSeed[ i++ ];

  00284	69 0d 00 00 00
	00 6d 4e c6 41	 imul	 ecx, DWORD PTR ?g_next@@3KA, 1103515245 ; g_next
  0028e	81 c1 39 30 00
	00		 add	 ecx, 12345		; 00003039H
  00294	89 0d 00 00 00
	00		 mov	 DWORD PTR ?g_next@@3KA, ecx ; g_next
; File C:\IAGOS\server\v18\Source\Source\DatabaseServer\tlord.cpp

; 403  : 		pMail->m_pItemElem->SetSerialNumber( xRand() );

  0029a	8b 46 0c	 mov	 eax, DWORD PTR [esi+12]
  0029d	89 48 30	 mov	 DWORD PTR [eax+48], ecx
$LN6@operator:

; 404  : 	}
; 405  : 
; 406  : 	// żěĆí ąßĽŰ
; 407  : 	post::Post( idReceiver, pMail, m_pQuery );

  002a0	8b 45 e4	 mov	 eax, DWORD PTR _this$1$[ebp]
  002a3	ff 30		 push	 DWORD PTR [eax]
  002a5	56		 push	 esi
  002a6	ff 75 f0	 push	 DWORD PTR _idReceiver$1$[ebp]
  002a9	e8 00 00 00 00	 call	 ?Post@post@@YAXKPAVCMail@@PAVCQuery@@@Z ; post::Post
  002ae	83 c4 0c	 add	 esp, 12			; 0000000cH
$LN1@operator:

; 408  : }

  002b1	8b 4d f4	 mov	 ecx, DWORD PTR __$EHRec$[ebp]
  002b4	64 89 0d 00 00
	00 00		 mov	 DWORD PTR fs:0, ecx
  002bb	59		 pop	 ecx
  002bc	5f		 pop	 edi
  002bd	5e		 pop	 esi
  002be	5b		 pop	 ebx
  002bf	8b e5		 mov	 esp, ebp
  002c1	5d		 pop	 ebp
  002c2	c2 04 00	 ret	 4
_TEXT	ENDS
;	COMDAT text$x
text$x	SEGMENT
__unwindfunclet$??RPostDeposit@@QBEXABV?$shared_ptr@VCCandidate@@@std@@@Z$0:
  00000	68 40 01 00 00	 push	 320			; 00000140H
  00005	8b 45 e0	 mov	 eax, DWORD PTR $T2[ebp]
  00008	50		 push	 eax
  00009	e8 00 00 00 00	 call	 ??3@YAXPAXI@Z		; operator delete
  0000e	83 c4 08	 add	 esp, 8
  00011	c3		 ret	 0
__unwindfunclet$??RPostDeposit@@QBEXABV?$shared_ptr@VCCandidate@@@std@@@Z$1:
  00012	68 98 00 00 00	 push	 152			; 00000098H
  00017	8b 45 08	 mov	 eax, DWORD PTR $T3[ebp]
  0001a	50		 push	 eax
  0001b	e8 00 00 00 00	 call	 ??3@YAXPAXI@Z		; operator delete
  00020	83 c4 08	 add	 esp, 8
  00023	c3		 ret	 0
  00024	cc		 int	 3
  00025	cc		 int	 3
  00026	cc		 int	 3
  00027	cc		 int	 3
  00028	cc		 int	 3
__ehhandler$??RPostDeposit@@QBEXABV?$shared_ptr@VCCandidate@@@std@@@Z:
  00029	90		 npad	 1
  0002a	90		 npad	 1
  0002b	8b 54 24 08	 mov	 edx, DWORD PTR [esp+8]
  0002f	8d 42 0c	 lea	 eax, DWORD PTR [edx+12]
  00032	8b 4a dc	 mov	 ecx, DWORD PTR [edx-36]
  00035	33 c8		 xor	 ecx, eax
  00037	e8 00 00 00 00	 call	 @__security_check_cookie@4
  0003c	b8 00 00 00 00	 mov	 eax, OFFSET __ehfuncinfo$??RPostDeposit@@QBEXABV?$shared_ptr@VCCandidate@@@std@@@Z
  00041	e9 00 00 00 00	 jmp	 ___CxxFrameHandler3
text$x	ENDS
??RPostDeposit@@QBEXABV?$shared_ptr@VCCandidate@@@std@@@Z ENDP ; PostDeposit::operator()
; Function compile flags: /Ogtp
;	COMDAT ??_GCLEvent@@UAEPAXI@Z
_TEXT	SEGMENT
___flags$ = 8						; size = 4
??_GCLEvent@@UAEPAXI@Z PROC				; CLEvent::`scalar deleting destructor', COMDAT
; _this$ = ecx
  00000	55		 push	 ebp
  00001	8b ec		 mov	 ebp, esp
  00003	56		 push	 esi
  00004	8b f1		 mov	 esi, ecx
  00006	e8 00 00 00 00	 call	 ??1CLEvent@@UAE@XZ	; CLEvent::~CLEvent
  0000b	f6 45 08 01	 test	 BYTE PTR ___flags$[ebp], 1
  0000f	74 0b		 je	 SHORT $LN5@scalar
  00011	6a 2c		 push	 44			; 0000002cH
  00013	56		 push	 esi
  00014	e8 00 00 00 00	 call	 ??3@YAXPAXI@Z		; operator delete
  00019	83 c4 08	 add	 esp, 8
$LN5@scalar:
  0001c	8b c6		 mov	 eax, esi
  0001e	5e		 pop	 esi
  0001f	5d		 pop	 ebp
  00020	c2 04 00	 ret	 4
??_GCLEvent@@UAEPAXI@Z ENDP				; CLEvent::`scalar deleting destructor'
_TEXT	ENDS
; Function compile flags: /Ogtp
; File C:\IAGOS\server\v18\Source\Source\DatabaseServer\tlord.cpp
; File C:\Program Files\Microsoft Visual Studio\2022\Professional\VC\Tools\MSVC\14.44.35207\include\vector
; File C:\IAGOS\server\v18\Source\Source\DatabaseServer\tlord.cpp
; File C:\Program Files\Microsoft Visual Studio\2022\Professional\VC\Tools\MSVC\14.44.35207\include\vector
; File C:\IAGOS\server\v18\Source\Source\DatabaseServer\tlord.cpp
;	COMDAT ?DecrementAllComponentTick@CLEvent@@IAEHXZ
_TEXT	SEGMENT
?DecrementAllComponentTick@CLEvent@@IAEHXZ PROC		; CLEvent::DecrementAllComponentTick, COMDAT
; _this$ = ecx

; 591  : {	// ¸đµç ±şÁÖ ŔĚşĄĆ®ŔÇ ł˛Ŕş ˝Ă°ŁŔ» °¨ĽŇ˝ĂĹ°°í ŔúŔĺÇŃ ČÄ

  00000	53		 push	 ebx
  00001	8b d9		 mov	 ebx, ecx
  00003	56		 push	 esi
  00004	57		 push	 edi

; 592  : 	// ł˛Ŕş ˝Ă°ŁŔĚ 0ŔÎ ŔĚşĄĆ®°ˇ ŔÖ´Ů¸é TRUE¸¦ ąÝČŻÇŃ´Ů
; 593  : 	BOOL bExpired	= FALSE;

  00005	33 ff		 xor	 edi, edi
; File C:\Program Files\Microsoft Visual Studio\2022\Professional\VC\Tools\MSVC\14.44.35207\include\vector

; 46   :     _CONSTEXPR20 _Vector_const_iterator(_Tptr _Parg, const _Container_base* _Pvector) noexcept : _Ptr(_Parg) {

  00007	8b 73 1c	 mov	 esi, DWORD PTR [ebx+28]

; 176  :         return !(*this == _Right);

  0000a	3b 73 20	 cmp	 esi, DWORD PTR [ebx+32]
; File C:\IAGOS\server\v18\Source\Source\DatabaseServer\tlord.cpp

; 594  : 	for( VLEC::iterator i = m_vComponents.begin(); i != m_vComponents.end(); ++i )

  0000d	74 2b		 je	 SHORT $LN41@DecrementA
  0000f	90		 npad	 1
$LL4@DecrementA:

; 595  : 	{
; 596  : 		if( ( *i )->Decrement() == 0 )

  00010	8b 0e		 mov	 ecx, DWORD PTR [esi]
  00012	e8 00 00 00 00	 call	 ?Decrement@CLEComponent@@QAEHXZ ; CLEComponent::Decrement

; 597  : 			bExpired	= TRUE;
; 598  : 		m_pLord->GetController()->UpdateLordEventTick( *i );

  00017	8b 4b 28	 mov	 ecx, DWORD PTR [ebx+40]
  0001a	85 c0		 test	 eax, eax
  0001c	ff 36		 push	 DWORD PTR [esi]
  0001e	b8 01 00 00 00	 mov	 eax, 1
  00023	0f 44 f8	 cmove	 edi, eax
  00026	8b 01		 mov	 eax, DWORD PTR [ecx]
  00028	ff 50 08	 call	 DWORD PTR [eax+8]
  0002b	8b c8		 mov	 ecx, eax
  0002d	e8 00 00 00 00	 call	 ?UpdateLordEventTick@CLController@@QAEHPAVCLEComponent@@@Z ; CLController::UpdateLordEventTick
; File C:\Program Files\Microsoft Visual Studio\2022\Professional\VC\Tools\MSVC\14.44.35207\include\vector

; 82   :         ++_Ptr;

  00032	83 c6 04	 add	 esi, 4

; 176  :         return !(*this == _Right);

  00035	3b 73 20	 cmp	 esi, DWORD PTR [ebx+32]
; File C:\IAGOS\server\v18\Source\Source\DatabaseServer\tlord.cpp

; 594  : 	for( VLEC::iterator i = m_vComponents.begin(); i != m_vComponents.end(); ++i )

  00038	75 d6		 jne	 SHORT $LL4@DecrementA
$LN41@DecrementA:

; 599  : 	}
; 600  : 	return bExpired;
; 601  : }

  0003a	8b c7		 mov	 eax, edi
  0003c	5f		 pop	 edi
  0003d	5e		 pop	 esi
  0003e	5b		 pop	 ebx
  0003f	c3		 ret	 0
?DecrementAllComponentTick@CLEvent@@IAEHXZ ENDP		; CLEvent::DecrementAllComponentTick
_TEXT	ENDS
; Function compile flags: /Ogtp
; File C:\IAGOS\server\v18\Source\Source\DatabaseServer\tlord.cpp
;	COMDAT ?DoTestInitialize@CLEvent@@MAEHXZ
_TEXT	SEGMENT
?DoTestInitialize@CLEvent@@MAEHXZ PROC			; CLEvent::DoTestInitialize, COMDAT
; _this$ = ecx

; 614  : 	// ILordEvent::Initialize
; 615  : 	CLController* pController	= m_pLord->GetController();

  00000	8b 49 28	 mov	 ecx, DWORD PTR [ecx+40]
  00003	8b 01		 mov	 eax, DWORD PTR [ecx]
  00005	ff 50 08	 call	 DWORD PTR [eax+8]

; 616  : 	if( !pController->InitializeLEvent() )

  00008	8b c8		 mov	 ecx, eax
  0000a	e8 00 00 00 00	 call	 ?InitializeLEvent@CLController@@QAEHXZ ; CLController::InitializeLEvent
  0000f	85 c0		 test	 eax, eax
  00011	75 01		 jne	 SHORT $LN2@DoTestInit

; 620  : }

  00013	c3		 ret	 0
$LN2@DoTestInit:

; 617  : 		return FALSE;
; 618  : 	CDPTrans::GetInstance()->SendLEventInitialize();

  00014	e8 00 00 00 00	 call	 ?GetInstance@CDPTrans@@SAPAV1@XZ ; CDPTrans::GetInstance
  00019	8b c8		 mov	 ecx, eax
  0001b	e8 00 00 00 00	 call	 ?SendLEventInitialize@CDPTrans@@QAEXXZ ; CDPTrans::SendLEventInitialize

; 619  : 	return TRUE;

  00020	b8 01 00 00 00	 mov	 eax, 1

; 620  : }

  00025	c3		 ret	 0
?DoTestInitialize@CLEvent@@MAEHXZ ENDP			; CLEvent::DoTestInitialize
_TEXT	ENDS
; Function compile flags: /Ogtp
; File C:\IAGOS\server\v18\Source\Source\DatabaseServer\tlord.cpp
;	COMDAT ?DoTestAddComponent@CLEvent@@MAEHPAVCLEComponent@@@Z
_TEXT	SEGMENT
_pComponent$ = 8					; size = 4
?DoTestAddComponent@CLEvent@@MAEHPAVCLEComponent@@@Z PROC ; CLEvent::DoTestAddComponent, COMDAT
; _this$ = ecx

; 604  : {	// Ăß°ˇµČ ±şÁÖ ŔĚşĄĆ®¸¦ ŔúŔĺÇĎ°í ŔüĽŰÇŃ´Ů

  00000	55		 push	 ebp
  00001	8b ec		 mov	 ebp, esp

; 605  : 	// ILordEvent::AddComponent
; 606  : 	CLController* pController	= m_pLord->GetController();

  00003	8b 49 28	 mov	 ecx, DWORD PTR [ecx+40]
  00006	57		 push	 edi
  00007	8b 01		 mov	 eax, DWORD PTR [ecx]
  00009	ff 50 08	 call	 DWORD PTR [eax+8]

; 607  : 	BOOL bResult	= pController->AddLEComponent( pComponent );

  0000c	ff 75 08	 push	 DWORD PTR _pComponent$[ebp]
  0000f	8b c8		 mov	 ecx, eax
  00011	e8 00 00 00 00	 call	 ?AddLEComponent@CLController@@QAEHPAVCLEComponent@@@Z ; CLController::AddLEComponent
  00016	8b f8		 mov	 edi, eax

; 608  : 	CDPTrans::GetInstance()->SendLEventCreate( pComponent, bResult );

  00018	57		 push	 edi
  00019	ff 75 08	 push	 DWORD PTR _pComponent$[ebp]
  0001c	e8 00 00 00 00	 call	 ?GetInstance@CDPTrans@@SAPAV1@XZ ; CDPTrans::GetInstance
  00021	8b c8		 mov	 ecx, eax
  00023	e8 00 00 00 00	 call	 ?SendLEventCreate@CDPTrans@@QAEXPAVCLEComponent@@H@Z ; CDPTrans::SendLEventCreate

; 609  : 	return bResult;

  00028	8b c7		 mov	 eax, edi
  0002a	5f		 pop	 edi

; 610  : }

  0002b	5d		 pop	 ebp
  0002c	c2 04 00	 ret	 4
?DoTestAddComponent@CLEvent@@MAEHPAVCLEComponent@@@Z ENDP ; CLEvent::DoTestAddComponent
_TEXT	ENDS
; Function compile flags: /Ogtp
; File C:\IAGOS\server\v18\Source\Source\DatabaseServer\tlord.cpp
;	COMDAT ?OnTimer@CLEvent@@QAEXXZ
_TEXT	SEGMENT
?OnTimer@CLEvent@@QAEXXZ PROC				; CLEvent::OnTimer, COMDAT
; _this$ = ecx

; 581  : {	// Ć˝

  00000	56		 push	 esi
  00001	57		 push	 edi
  00002	8b f9		 mov	 edi, ecx

; 582  : 	// ¸đµç ±şÁÖ ŔĚşĄĆ®ŔÇ ˝Ă°ŁŔ» °¨ĽŇ˝ĂĹ˛´Ů
; 583  : 	BOOL bExpired	= DecrementAllComponentTick();

  00004	e8 00 00 00 00	 call	 ?DecrementAllComponentTick@CLEvent@@IAEHXZ ; CLEvent::DecrementAllComponentTick

; 584  : 	CDPTrans::GetInstance()->SendLEventTick( this );

  00009	57		 push	 edi
  0000a	8b f0		 mov	 esi, eax
  0000c	e8 00 00 00 00	 call	 ?GetInstance@CDPTrans@@SAPAV1@XZ ; CDPTrans::GetInstance
  00011	8b c8		 mov	 ecx, eax
  00013	e8 00 00 00 00	 call	 ?SendLEventTick@CDPTrans@@QAEXPAVILordEvent@@@Z ; CDPTrans::SendLEventTick

; 585  : 	// ˝Ă°Ł ¸¸·áµČ ŔĚşĄĆ®°ˇ ŔÖ´Ů¸é Á¦°ĹÇŃ´Ů
; 586  : 	if( bExpired )	

  00018	85 f6		 test	 esi, esi
  0001a	74 09		 je	 SHORT $LN2@OnTimer

; 587  : 		EraseExpiredComponents();

  0001c	8b cf		 mov	 ecx, edi
  0001e	5f		 pop	 edi

; 588  : }

  0001f	5e		 pop	 esi

; 587  : 		EraseExpiredComponents();

  00020	e9 00 00 00 00	 jmp	 ?EraseExpiredComponents@ILordEvent@@QAEXXZ ; ILordEvent::EraseExpiredComponents
$LN2@OnTimer:
  00025	5f		 pop	 edi

; 588  : }

  00026	5e		 pop	 esi
  00027	c3		 ret	 0
?OnTimer@CLEvent@@QAEXXZ ENDP				; CLEvent::OnTimer
_TEXT	ENDS
; Function compile flags: /Ogtp
; File C:\IAGOS\server\v18\Source\Source\DatabaseServer\tlord.cpp
;	COMDAT ?Restore@CLEvent@@QAEHPAVCQuery@@@Z
_TEXT	SEGMENT
$T2 = -24						; size = 4
_idPlayer$1$ = -20					; size = 4
_fEFactor$3 = -16					; size = 4
__$EHRec$ = -12						; size = 12
_pQuery$ = 8						; size = 4
_fIFactor$4 = 8						; size = 4
?Restore@CLEvent@@QAEHPAVCQuery@@@Z PROC		; CLEvent::Restore, COMDAT
; _this$ = ecx

; 565  : {	// µĄŔĚĹÍşŁŔĚ˝ş·ÎşÎĹÍ şążř

  00000	55		 push	 ebp
  00001	8b ec		 mov	 ebp, esp
  00003	6a ff		 push	 -1
  00005	68 00 00 00 00	 push	 __ehhandler$?Restore@CLEvent@@QAEHPAVCQuery@@@Z
  0000a	64 a1 00 00 00
	00		 mov	 eax, DWORD PTR fs:0
  00010	50		 push	 eax
  00011	83 ec 0c	 sub	 esp, 12			; 0000000cH
  00014	53		 push	 ebx
  00015	56		 push	 esi
  00016	57		 push	 edi
  00017	a1 00 00 00 00	 mov	 eax, DWORD PTR ___security_cookie
  0001c	33 c5		 xor	 eax, ebp
  0001e	50		 push	 eax
  0001f	8d 45 f4	 lea	 eax, DWORD PTR __$EHRec$[ebp]
  00022	64 a3 00 00 00
	00		 mov	 DWORD PTR fs:0, eax
  00028	8b f9		 mov	 edi, ecx

; 566  : 	if( !pQuery->Execute( "uspRestoreLEvent %d", g_appInfo.dwSys ) )

  0002a	ff 35 00 00 00
	00		 push	 DWORD PTR ?g_appInfo@@3UAppInfo@@A
  00030	8b 75 08	 mov	 esi, DWORD PTR _pQuery$[ebp]
  00033	68 00 00 00 00	 push	 OFFSET ??_C@_0BE@PNIJDBCM@uspRestoreLEvent?5?$CFd@
  00038	56		 push	 esi
  00039	e8 00 00 00 00	 call	 ?Execute@CQuery@@QAAHPBDZZ ; CQuery::Execute
  0003e	83 c4 0c	 add	 esp, 12			; 0000000cH
  00041	85 c0		 test	 eax, eax
  00043	75 14		 jne	 SHORT $LN9@Restore

; 578  : }

  00045	8b 4d f4	 mov	 ecx, DWORD PTR __$EHRec$[ebp]
  00048	64 89 0d 00 00
	00 00		 mov	 DWORD PTR fs:0, ecx
  0004f	59		 pop	 ecx
  00050	5f		 pop	 edi
  00051	5e		 pop	 esi
  00052	5b		 pop	 ebx
  00053	8b e5		 mov	 esp, ebp
  00055	5d		 pop	 ebp
  00056	c2 04 00	 ret	 4
$LN9@Restore:

; 567  : 		return FALSE;
; 568  : 	while( pQuery->Fetch() )

  00059	8b ce		 mov	 ecx, esi
  0005b	e8 00 00 00 00	 call	 ?Fetch@CQuery@@QAEHXZ	; CQuery::Fetch
  00060	85 c0		 test	 eax, eax
  00062	0f 84 a2 00 00
	00		 je	 $LN3@Restore
  00068	0f 1f 84 00 00
	00 00 00	 npad	 8
$LL2@Restore:

; 569  : 	{
; 570  : 		int nTick	= pQuery->GetInt( "nTick" );

  00070	68 00 00 00 00	 push	 OFFSET ??_C@_05DLOGCGOB@nTick@
  00075	8b ce		 mov	 ecx, esi
  00077	e8 00 00 00 00	 call	 ?GetInt@CQuery@@QAEHPAD@Z ; CQuery::GetInt

; 571  : 		u_long idPlayer		= pQuery->GetInt( "idPlayer" );

  0007c	68 00 00 00 00	 push	 OFFSET ??_C@_08EPHCN@idPlayer@
  00081	8b ce		 mov	 ecx, esi
  00083	8b d8		 mov	 ebx, eax
  00085	e8 00 00 00 00	 call	 ?GetInt@CQuery@@QAEHPAD@Z ; CQuery::GetInt

; 572  : 		float fEFactor	= pQuery->GetFloat( "fEFactor" );

  0008a	68 00 00 00 00	 push	 OFFSET ??_C@_08NHMMOOHF@fEFactor@
  0008f	8b ce		 mov	 ecx, esi
  00091	89 45 ec	 mov	 DWORD PTR _idPlayer$1$[ebp], eax
  00094	e8 00 00 00 00	 call	 ?GetFloat@CQuery@@QAEMPAD@Z ; CQuery::GetFloat
  00099	d9 5d f0	 fstp	 DWORD PTR _fEFactor$3[ebp]

; 573  : 		float fIFactor	= pQuery->GetFloat( "fIFactor" );

  0009c	68 00 00 00 00	 push	 OFFSET ??_C@_08IAGDPLDK@fIFactor@
  000a1	8b ce		 mov	 ecx, esi
  000a3	e8 00 00 00 00	 call	 ?GetFloat@CQuery@@QAEMPAD@Z ; CQuery::GetFloat

; 574  : 		CLEComponent* pComponent	= new CLEComponent( nTick, idPlayer, fEFactor, fIFactor );

  000a8	6a 14		 push	 20			; 00000014H
  000aa	d9 5d 08	 fstp	 DWORD PTR _fIFactor$4[ebp]
  000ad	e8 00 00 00 00	 call	 ??2@YAPAXI@Z		; operator new
  000b2	83 c4 04	 add	 esp, 4
  000b5	89 45 e8	 mov	 DWORD PTR $T2[ebp], eax
  000b8	c7 45 fc 00 00
	00 00		 mov	 DWORD PTR __$EHRec$[ebp+8], 0
  000bf	85 c0		 test	 eax, eax
  000c1	74 25		 je	 SHORT $LN6@Restore
  000c3	f3 0f 10 45 08	 movss	 xmm0, DWORD PTR _fIFactor$4[ebp]
  000c8	83 ec 08	 sub	 esp, 8
  000cb	8b c8		 mov	 ecx, eax
  000cd	f3 0f 11 44 24
	04		 movss	 DWORD PTR [esp+4], xmm0
  000d3	f3 0f 10 45 f0	 movss	 xmm0, DWORD PTR _fEFactor$3[ebp]
  000d8	f3 0f 11 04 24	 movss	 DWORD PTR [esp], xmm0
  000dd	ff 75 ec	 push	 DWORD PTR _idPlayer$1$[ebp]
  000e0	53		 push	 ebx
  000e1	e8 00 00 00 00	 call	 ??0CLEComponent@@QAE@HKMM@Z ; CLEComponent::CLEComponent
  000e6	eb 02		 jmp	 SHORT $LN7@Restore
$LN6@Restore:
  000e8	33 c0		 xor	 eax, eax
$LN7@Restore:

; 575  : 		AddComponent( pComponent, FALSE );

  000ea	6a 00		 push	 0
  000ec	50		 push	 eax
  000ed	8b cf		 mov	 ecx, edi
  000ef	c7 45 fc ff ff
	ff ff		 mov	 DWORD PTR __$EHRec$[ebp+8], -1
  000f6	e8 00 00 00 00	 call	 ?AddComponent@ILordEvent@@QAEXPAVCLEComponent@@H@Z ; ILordEvent::AddComponent
  000fb	8b ce		 mov	 ecx, esi
  000fd	e8 00 00 00 00	 call	 ?Fetch@CQuery@@QAEHXZ	; CQuery::Fetch
  00102	85 c0		 test	 eax, eax
  00104	0f 85 66 ff ff
	ff		 jne	 $LL2@Restore
$LN3@Restore:

; 576  : 	}
; 577  : 	return TRUE;

  0010a	b8 01 00 00 00	 mov	 eax, 1

; 578  : }

  0010f	8b 4d f4	 mov	 ecx, DWORD PTR __$EHRec$[ebp]
  00112	64 89 0d 00 00
	00 00		 mov	 DWORD PTR fs:0, ecx
  00119	59		 pop	 ecx
  0011a	5f		 pop	 edi
  0011b	5e		 pop	 esi
  0011c	5b		 pop	 ebx
  0011d	8b e5		 mov	 esp, ebp
  0011f	5d		 pop	 ebp
  00120	c2 04 00	 ret	 4
_TEXT	ENDS
;	COMDAT text$x
text$x	SEGMENT
__unwindfunclet$?Restore@CLEvent@@QAEHPAVCQuery@@@Z$0:
  00000	6a 14		 push	 20			; 00000014H
  00002	8b 45 e8	 mov	 eax, DWORD PTR $T2[ebp]
  00005	50		 push	 eax
  00006	e8 00 00 00 00	 call	 ??3@YAXPAXI@Z		; operator delete
  0000b	83 c4 08	 add	 esp, 8
  0000e	c3		 ret	 0
  0000f	cc		 int	 3
  00010	cc		 int	 3
  00011	cc		 int	 3
  00012	cc		 int	 3
  00013	cc		 int	 3
__ehhandler$?Restore@CLEvent@@QAEHPAVCQuery@@@Z:
  00014	90		 npad	 1
  00015	90		 npad	 1
  00016	8b 54 24 08	 mov	 edx, DWORD PTR [esp+8]
  0001a	8d 42 0c	 lea	 eax, DWORD PTR [edx+12]
  0001d	8b 4a e4	 mov	 ecx, DWORD PTR [edx-28]
  00020	33 c8		 xor	 ecx, eax
  00022	e8 00 00 00 00	 call	 @__security_check_cookie@4
  00027	b8 00 00 00 00	 mov	 eax, OFFSET __ehfuncinfo$?Restore@CLEvent@@QAEHPAVCQuery@@@Z
  0002c	e9 00 00 00 00	 jmp	 ___CxxFrameHandler3
text$x	ENDS
?Restore@CLEvent@@QAEHPAVCQuery@@@Z ENDP		; CLEvent::Restore
; Function compile flags: /Ogtp
; File C:\IAGOS\server\v18\Source\Source\DatabaseServer\tlord.cpp
;	COMDAT ??1CLEvent@@UAE@XZ
_TEXT	SEGMENT
??1CLEvent@@UAE@XZ PROC					; CLEvent::~CLEvent, COMDAT
; _this$ = ecx

; 561  : {

  00000	c7 01 00 00 00
	00		 mov	 DWORD PTR [ecx], OFFSET ??_7CLEvent@@6B@

; 562  : }

  00006	e9 00 00 00 00	 jmp	 ??1ILordEvent@@UAE@XZ	; ILordEvent::~ILordEvent
??1CLEvent@@UAE@XZ ENDP					; CLEvent::~CLEvent
_TEXT	ENDS
; Function compile flags: /Ogtp
; File C:\IAGOS\server\v18\Source\Source\DatabaseServer\tlord.cpp
;	COMDAT ??0CLEvent@@QAE@PAVCLord@@@Z
_TEXT	SEGMENT
_this$ = -4						; size = 4
_pLord$ = 8						; size = 4
??0CLEvent@@QAE@PAVCLord@@@Z PROC			; CLEvent::CLEvent, COMDAT
; _this$ = ecx

; 557  : {

  00000	55		 push	 ebp
  00001	8b ec		 mov	 ebp, esp
  00003	51		 push	 ecx
  00004	56		 push	 esi
  00005	ff 75 08	 push	 DWORD PTR _pLord$[ebp]
  00008	8b f1		 mov	 esi, ecx
  0000a	89 75 fc	 mov	 DWORD PTR _this$[ebp], esi
  0000d	e8 00 00 00 00	 call	 ??0ILordEvent@@IAE@PAVCLord@@@Z ; ILordEvent::ILordEvent
  00012	c7 06 00 00 00
	00		 mov	 DWORD PTR [esi], OFFSET ??_7CLEvent@@6B@

; 558  : }

  00018	8b c6		 mov	 eax, esi
  0001a	5e		 pop	 esi
  0001b	8b e5		 mov	 esp, ebp
  0001d	5d		 pop	 ebp
  0001e	c2 04 00	 ret	 4
??0CLEvent@@QAE@PAVCLord@@@Z ENDP			; CLEvent::CLEvent
_TEXT	ENDS
; Function compile flags: /Ogtp
;	COMDAT ??_GCTLordSkill@@UAEPAXI@Z
_TEXT	SEGMENT
___flags$ = 8						; size = 4
??_GCTLordSkill@@UAEPAXI@Z PROC				; CTLordSkill::`scalar deleting destructor', COMDAT
; _this$ = ecx
  00000	55		 push	 ebp
  00001	8b ec		 mov	 ebp, esp
  00003	56		 push	 esi
  00004	8b f1		 mov	 esi, ecx
  00006	e8 00 00 00 00	 call	 ??1CTLordSkill@@UAE@XZ	; CTLordSkill::~CTLordSkill
  0000b	f6 45 08 01	 test	 BYTE PTR ___flags$[ebp], 1
  0000f	74 0b		 je	 SHORT $LN5@scalar
  00011	6a 14		 push	 20			; 00000014H
  00013	56		 push	 esi
  00014	e8 00 00 00 00	 call	 ??3@YAXPAXI@Z		; operator delete
  00019	83 c4 08	 add	 esp, 8
$LN5@scalar:
  0001c	8b c6		 mov	 eax, esi
  0001e	5e		 pop	 esi
  0001f	5d		 pop	 ebp
  00020	c2 04 00	 ret	 4
??_GCTLordSkill@@UAEPAXI@Z ENDP				; CTLordSkill::`scalar deleting destructor'
_TEXT	ENDS
; Function compile flags: /Ogtp
; File C:\IAGOS\server\v18\Source\Source\DatabaseServer\tlord.cpp
; File C:\Program Files\Microsoft Visual Studio\2022\Professional\VC\Tools\MSVC\14.44.35207\include\vector
; File C:\IAGOS\server\v18\Source\Source\DatabaseServer\tlord.cpp
; File C:\Program Files\Microsoft Visual Studio\2022\Professional\VC\Tools\MSVC\14.44.35207\include\vector
; File C:\IAGOS\server\v18\Source\Source\DatabaseServer\tlord.cpp
; File C:\Program Files\Microsoft Visual Studio\2022\Professional\VC\Tools\MSVC\14.44.35207\include\vector
; File C:\IAGOS\server\v18\Source\Source\DatabaseServer\tlord.cpp
;	COMDAT ?OnTimer@CTLordSkill@@QAEXXZ
_TEXT	SEGMENT
?OnTimer@CTLordSkill@@QAEXXZ PROC			; CTLordSkill::OnTimer, COMDAT
; _this$ = ecx

; 774  : {	// Ć˝

  00000	53		 push	 ebx
  00001	56		 push	 esi
  00002	57		 push	 edi
  00003	8b f9		 mov	 edi, ecx

; 775  : 	CLController* pController	= m_pLord->GetController();

  00005	8b 4f 04	 mov	 ecx, DWORD PTR [edi+4]
  00008	8b 01		 mov	 eax, DWORD PTR [ecx]
  0000a	ff 50 08	 call	 DWORD PTR [eax+8]
; File C:\Program Files\Microsoft Visual Studio\2022\Professional\VC\Tools\MSVC\14.44.35207\include\vector

; 46   :     _CONSTEXPR20 _Vector_const_iterator(_Tptr _Parg, const _Container_base* _Pvector) noexcept : _Ptr(_Parg) {

  0000d	8b 77 08	 mov	 esi, DWORD PTR [edi+8]
; File C:\IAGOS\server\v18\Source\Source\DatabaseServer\tlord.cpp

; 775  : 	CLController* pController	= m_pLord->GetController();

  00010	8b d8		 mov	 ebx, eax
; File C:\Program Files\Microsoft Visual Studio\2022\Professional\VC\Tools\MSVC\14.44.35207\include\vector

; 176  :         return !(*this == _Right);

  00012	3b 77 0c	 cmp	 esi, DWORD PTR [edi+12]
; File C:\IAGOS\server\v18\Source\Source\DatabaseServer\tlord.cpp

; 776  : 	for( VLSC::iterator i = m_vComponents.begin(); i != m_vComponents.end(); ++i )

  00015	74 1e		 je	 SHORT $LN3@OnTimer
$LL4@OnTimer:

; 777  : 	{
; 778  : 		CLordSkillComponentExecutable* pSkill	= *i ;

  00017	8b 06		 mov	 eax, DWORD PTR [esi]

; 779  : 		if( pSkill->GetTick() > 0 )

  00019	8b 48 0c	 mov	 ecx, DWORD PTR [eax+12]
  0001c	85 c9		 test	 ecx, ecx
  0001e	7e 0d		 jle	 SHORT $LN2@OnTimer

; 780  : 		{
; 781  : 			// Ŕç»çżë ´ë±â ˝Ă°ŁŔ» °¨ĽŇ˝ĂĹ˛´Ů
; 782  : 			pSkill->SetTick( pSkill->GetTick() - 1 );

  00020	49		 dec	 ecx

; 783  : 			// ŔúŔĺ
; 784  : 			pController->UpdateLordSkillTick( pSkill, pSkill->GetTick() );

  00021	51		 push	 ecx
  00022	89 48 0c	 mov	 DWORD PTR [eax+12], ecx
  00025	8b cb		 mov	 ecx, ebx
  00027	50		 push	 eax
  00028	e8 00 00 00 00	 call	 ?UpdateLordSkillTick@CLController@@QAEHPAVCLordSkillComponent@@H@Z ; CLController::UpdateLordSkillTick
$LN2@OnTimer:
; File C:\Program Files\Microsoft Visual Studio\2022\Professional\VC\Tools\MSVC\14.44.35207\include\vector

; 82   :         ++_Ptr;

  0002d	83 c6 04	 add	 esi, 4

; 176  :         return !(*this == _Right);

  00030	3b 77 0c	 cmp	 esi, DWORD PTR [edi+12]
; File C:\IAGOS\server\v18\Source\Source\DatabaseServer\tlord.cpp

; 776  : 	for( VLSC::iterator i = m_vComponents.begin(); i != m_vComponents.end(); ++i )

  00033	75 e2		 jne	 SHORT $LL4@OnTimer
$LN3@OnTimer:

; 785  : 		}
; 786  : 	}
; 787  : 	CDPTrans::GetInstance()->SendLordSkillTick( this );

  00035	57		 push	 edi
  00036	e8 00 00 00 00	 call	 ?GetInstance@CDPTrans@@SAPAV1@XZ ; CDPTrans::GetInstance
  0003b	8b c8		 mov	 ecx, eax
  0003d	e8 00 00 00 00	 call	 ?SendLordSkillTick@CDPTrans@@QAEXPAVCLordSkill@@@Z ; CDPTrans::SendLordSkillTick
  00042	5f		 pop	 edi
  00043	5e		 pop	 esi
  00044	5b		 pop	 ebx

; 788  : }

  00045	c3		 ret	 0
?OnTimer@CTLordSkill@@QAEXXZ ENDP			; CTLordSkill::OnTimer
_TEXT	ENDS
; Function compile flags: /Ogtp
; File C:\IAGOS\server\v18\Source\Source\DatabaseServer\tlord.cpp
; File C:\IAGOS\server\v18\Source\Source\_Common\lordskill.h
; File C:\IAGOS\server\v18\Source\Source\DatabaseServer\tlord.cpp
;	COMDAT ?Restore@CTLordSkill@@QAEHPAVCQuery@@@Z
_TEXT	SEGMENT
_pQuery$ = 8						; size = 4
?Restore@CTLordSkill@@QAEHPAVCQuery@@@Z PROC		; CTLordSkill::Restore, COMDAT
; _this$ = ecx

; 762  : {	// µĄŔĚĹÍşŁŔĚ˝ş·ÎşÎĹÍ ±şÁÖ ˝şĹł şążř

  00000	55		 push	 ebp
  00001	8b ec		 mov	 ebp, esp
  00003	53		 push	 ebx
  00004	57		 push	 edi

; 763  : 	if( !pQuery->Execute( "uspRestoreLordSkill %d", g_appInfo.dwSys ) )

  00005	ff 35 00 00 00
	00		 push	 DWORD PTR ?g_appInfo@@3UAppInfo@@A
  0000b	8b 7d 08	 mov	 edi, DWORD PTR _pQuery$[ebp]
  0000e	8b d9		 mov	 ebx, ecx
  00010	68 00 00 00 00	 push	 OFFSET ??_C@_0BH@OCAHAJDB@uspRestoreLordSkill?5?$CFd@
  00015	57		 push	 edi
  00016	e8 00 00 00 00	 call	 ?Execute@CQuery@@QAAHPBDZZ ; CQuery::Execute
  0001b	83 c4 0c	 add	 esp, 12			; 0000000cH
  0001e	85 c0		 test	 eax, eax
  00020	75 06		 jne	 SHORT $LN8@Restore

; 771  : }

  00022	5f		 pop	 edi
  00023	5b		 pop	 ebx
  00024	5d		 pop	 ebp
  00025	c2 04 00	 ret	 4
$LN8@Restore:

; 765  : 	while( pQuery->Fetch() )

  00028	8b cf		 mov	 ecx, edi
  0002a	e8 00 00 00 00	 call	 ?Fetch@CQuery@@QAEHXZ	; CQuery::Fetch
  0002f	85 c0		 test	 eax, eax
  00031	74 32		 je	 SHORT $LN3@Restore
  00033	56		 push	 esi
$LL2@Restore:

; 766  : 	{
; 767  : 			CLordSkillComponent* pComponent	= GetSkill( pQuery->GetInt( "nSkill" ) );

  00034	68 00 00 00 00	 push	 OFFSET ??_C@_06BDEJIFFK@nSkill@
  00039	8b cf		 mov	 ecx, edi
  0003b	e8 00 00 00 00	 call	 ?GetInt@CQuery@@QAEHPAD@Z ; CQuery::GetInt
  00040	50		 push	 eax
  00041	8b cb		 mov	 ecx, ebx
  00043	e8 00 00 00 00	 call	 ?GetSkill@CLordSkill@@QAEPAVCLordSkillComponentExecutable@@H@Z ; CLordSkill::GetSkill

; 768  : 			pComponent->SetTick( pQuery->GetInt( "nTick" ) );

  00048	68 00 00 00 00	 push	 OFFSET ??_C@_05DLOGCGOB@nTick@
  0004d	8b cf		 mov	 ecx, edi
  0004f	8b f0		 mov	 esi, eax
  00051	e8 00 00 00 00	 call	 ?GetInt@CQuery@@QAEHPAD@Z ; CQuery::GetInt
  00056	8b cf		 mov	 ecx, edi
; File C:\IAGOS\server\v18\Source\Source\_Common\lordskill.h

; 31   : 	void	SetTick( int nTick )	{	m_nTick		= nTick;	}

  00058	89 46 0c	 mov	 DWORD PTR [esi+12], eax
; File C:\IAGOS\server\v18\Source\Source\DatabaseServer\tlord.cpp

; 765  : 	while( pQuery->Fetch() )

  0005b	e8 00 00 00 00	 call	 ?Fetch@CQuery@@QAEHXZ	; CQuery::Fetch
  00060	85 c0		 test	 eax, eax
  00062	75 d0		 jne	 SHORT $LL2@Restore
  00064	5e		 pop	 esi
$LN3@Restore:
  00065	5f		 pop	 edi

; 769  : 	}
; 770  : 	return TRUE;

  00066	b8 01 00 00 00	 mov	 eax, 1

; 771  : }

  0006b	5b		 pop	 ebx
  0006c	5d		 pop	 ebp
  0006d	c2 04 00	 ret	 4
?Restore@CTLordSkill@@QAEHPAVCQuery@@@Z ENDP		; CTLordSkill::Restore
_TEXT	ENDS
; Function compile flags: /Ogtp
; File C:\IAGOS\server\v18\Source\Source\DatabaseServer\tlord.cpp
;	COMDAT ?CreateSkillComponent@CTLordSkill@@UAEPAVCLordSkillComponentExecutable@@H@Z
_TEXT	SEGMENT
$T2 = -16						; size = 4
__$EHRec$ = -12						; size = 12
_nType$ = 8						; size = 4
?CreateSkillComponent@CTLordSkill@@UAEPAVCLordSkillComponentExecutable@@H@Z PROC ; CTLordSkill::CreateSkillComponent, COMDAT
; _this$ = ecx

; 756  : {	// Ć®·Ł˝ş Ľ­ąöżˇĽ­ŔÇ ¸đµç ±şÁÖ ˝şĹłŔş

  00000	55		 push	 ebp
  00001	8b ec		 mov	 ebp, esp
  00003	6a ff		 push	 -1
  00005	68 00 00 00 00	 push	 __ehhandler$?CreateSkillComponent@CTLordSkill@@UAEPAVCLordSkillComponentExecutable@@H@Z
  0000a	64 a1 00 00 00
	00		 mov	 eax, DWORD PTR fs:0
  00010	50		 push	 eax
  00011	51		 push	 ecx
  00012	a1 00 00 00 00	 mov	 eax, DWORD PTR ___security_cookie
  00017	33 c5		 xor	 eax, ebp
  00019	50		 push	 eax
  0001a	8d 45 f4	 lea	 eax, DWORD PTR __$EHRec$[ebp]
  0001d	64 a3 00 00 00
	00		 mov	 DWORD PTR fs:0, eax

; 757  : 	// CLordSkillComponentODBC
; 758  : 	return new CLordSkillComponentODBC;

  00023	68 fc 00 00 00	 push	 252			; 000000fcH
  00028	e8 00 00 00 00	 call	 ??2@YAPAXI@Z		; operator new
  0002d	83 c4 04	 add	 esp, 4
  00030	89 45 f0	 mov	 DWORD PTR $T2[ebp], eax
  00033	c7 45 fc 00 00
	00 00		 mov	 DWORD PTR __$EHRec$[ebp+8], 0
  0003a	85 c0		 test	 eax, eax
  0003c	74 18		 je	 SHORT $LN3@CreateSkil
  0003e	8b c8		 mov	 ecx, eax
  00040	e8 00 00 00 00	 call	 ??0CLordSkillComponentODBC@@QAE@XZ ; CLordSkillComponentODBC::CLordSkillComponentODBC

; 759  : }

  00045	8b 4d f4	 mov	 ecx, DWORD PTR __$EHRec$[ebp]
  00048	64 89 0d 00 00
	00 00		 mov	 DWORD PTR fs:0, ecx
  0004f	59		 pop	 ecx
  00050	8b e5		 mov	 esp, ebp
  00052	5d		 pop	 ebp
  00053	c2 04 00	 ret	 4
$LN3@CreateSkil:

; 757  : 	// CLordSkillComponentODBC
; 758  : 	return new CLordSkillComponentODBC;

  00056	33 c0		 xor	 eax, eax

; 759  : }

  00058	8b 4d f4	 mov	 ecx, DWORD PTR __$EHRec$[ebp]
  0005b	64 89 0d 00 00
	00 00		 mov	 DWORD PTR fs:0, ecx
  00062	59		 pop	 ecx
  00063	8b e5		 mov	 esp, ebp
  00065	5d		 pop	 ebp
  00066	c2 04 00	 ret	 4
_TEXT	ENDS
;	COMDAT text$x
text$x	SEGMENT
__unwindfunclet$?CreateSkillComponent@CTLordSkill@@UAEPAVCLordSkillComponentExecutable@@H@Z$0:
  00000	68 fc 00 00 00	 push	 252			; 000000fcH
  00005	8b 45 f0	 mov	 eax, DWORD PTR $T2[ebp]
  00008	50		 push	 eax
  00009	e8 00 00 00 00	 call	 ??3@YAXPAXI@Z		; operator delete
  0000e	83 c4 08	 add	 esp, 8
  00011	c3		 ret	 0
  00012	cc		 int	 3
  00013	cc		 int	 3
  00014	cc		 int	 3
  00015	cc		 int	 3
  00016	cc		 int	 3
__ehhandler$?CreateSkillComponent@CTLordSkill@@UAEPAVCLordSkillComponentExecutable@@H@Z:
  00017	90		 npad	 1
  00018	90		 npad	 1
  00019	8b 54 24 08	 mov	 edx, DWORD PTR [esp+8]
  0001d	8d 42 0c	 lea	 eax, DWORD PTR [edx+12]
  00020	8b 4a f8	 mov	 ecx, DWORD PTR [edx-8]
  00023	33 c8		 xor	 ecx, eax
  00025	e8 00 00 00 00	 call	 @__security_check_cookie@4
  0002a	b8 00 00 00 00	 mov	 eax, OFFSET __ehfuncinfo$?CreateSkillComponent@CTLordSkill@@UAEPAVCLordSkillComponentExecutable@@H@Z
  0002f	e9 00 00 00 00	 jmp	 ___CxxFrameHandler3
text$x	ENDS
?CreateSkillComponent@CTLordSkill@@UAEPAVCLordSkillComponentExecutable@@H@Z ENDP ; CTLordSkill::CreateSkillComponent
; Function compile flags: /Ogtp
; File C:\IAGOS\server\v18\Source\Source\DatabaseServer\tlord.cpp
;	COMDAT ??1CTLordSkill@@UAE@XZ
_TEXT	SEGMENT
??1CTLordSkill@@UAE@XZ PROC				; CTLordSkill::~CTLordSkill, COMDAT
; _this$ = ecx

; 752  : {

  00000	c7 01 00 00 00
	00		 mov	 DWORD PTR [ecx], OFFSET ??_7CTLordSkill@@6B@

; 753  : }

  00006	e9 00 00 00 00	 jmp	 ??1CLordSkill@@UAE@XZ	; CLordSkill::~CLordSkill
??1CTLordSkill@@UAE@XZ ENDP				; CTLordSkill::~CTLordSkill
_TEXT	ENDS
; Function compile flags: /Ogtp
; File C:\IAGOS\server\v18\Source\Source\DatabaseServer\tlord.cpp
;	COMDAT ??0CTLordSkill@@QAE@PAVCLord@@@Z
_TEXT	SEGMENT
_this$ = -4						; size = 4
_pLord$ = 8						; size = 4
??0CTLordSkill@@QAE@PAVCLord@@@Z PROC			; CTLordSkill::CTLordSkill, COMDAT
; _this$ = ecx

; 748  : {

  00000	55		 push	 ebp
  00001	8b ec		 mov	 ebp, esp
  00003	51		 push	 ecx
  00004	56		 push	 esi
  00005	ff 75 08	 push	 DWORD PTR _pLord$[ebp]
  00008	8b f1		 mov	 esi, ecx
  0000a	89 75 fc	 mov	 DWORD PTR _this$[ebp], esi
  0000d	e8 00 00 00 00	 call	 ??0CLordSkill@@QAE@PAVCLord@@@Z ; CLordSkill::CLordSkill
  00012	c7 06 00 00 00
	00		 mov	 DWORD PTR [esi], OFFSET ??_7CTLordSkill@@6B@

; 749  : }

  00018	8b c6		 mov	 eax, esi
  0001a	5e		 pop	 esi
  0001b	8b e5		 mov	 esp, ebp
  0001d	5d		 pop	 ebp
  0001e	c2 04 00	 ret	 4
??0CTLordSkill@@QAE@PAVCLord@@@Z ENDP			; CTLordSkill::CTLordSkill
_TEXT	ENDS
; Function compile flags: /Ogtp
;	COMDAT ??_GCTElection@@UAEPAXI@Z
_TEXT	SEGMENT
___flags$ = 8						; size = 4
??_GCTElection@@UAEPAXI@Z PROC				; CTElection::`scalar deleting destructor', COMDAT
; _this$ = ecx
  00000	55		 push	 ebp
  00001	8b ec		 mov	 ebp, esp
  00003	56		 push	 esi
  00004	8b f1		 mov	 esi, ecx
  00006	e8 00 00 00 00	 call	 ??1CTElection@@UAE@XZ	; CTElection::~CTElection
  0000b	f6 45 08 01	 test	 BYTE PTR ___flags$[ebp], 1
  0000f	74 0b		 je	 SHORT $LN5@scalar
  00011	6a 64		 push	 100			; 00000064H
  00013	56		 push	 esi
  00014	e8 00 00 00 00	 call	 ??3@YAXPAXI@Z		; operator delete
  00019	83 c4 08	 add	 esp, 8
$LN5@scalar:
  0001c	8b c6		 mov	 eax, esi
  0001e	5e		 pop	 esi
  0001f	5d		 pop	 ebp
  00020	c2 04 00	 ret	 4
??_GCTElection@@UAEPAXI@Z ENDP				; CTElection::`scalar deleting destructor'
_TEXT	ENDS
; Function compile flags: /Ogtp
; File C:\IAGOS\server\v18\Source\Source\DatabaseServer\tlord.cpp
; File C:\IAGOS\server\v18\Source\Source\_Network\Mcl\Include\CMclAutoLock.h
; File C:\IAGOS\server\v18\Source\Source\_Network\Mcl\Include\CMclCritSec.h
; File C:\IAGOS\server\v18\Source\Source\DatabaseServer\tlord.cpp
; File C:\IAGOS\server\v18\Source\Source\_Network\Mcl\Include\CMclCritSec.h
; File C:\IAGOS\server\v18\Source\Source\DatabaseServer\tlord.cpp
; File C:\IAGOS\server\v18\Source\Source\_Network\Mcl\Include\CMclCritSec.h
; File C:\IAGOS\server\v18\Source\Source\DatabaseServer\tlord.cpp
; File C:\Program Files\Microsoft Visual Studio\2022\Professional\VC\Tools\MSVC\14.44.35207\include\vector
; File C:\IAGOS\server\v18\Source\Source\DatabaseServer\tlord.cpp
; File C:\Program Files (x86)\Windows Kits\10\Include\10.0.26100.0\ucrt\time.h
; File C:\IAGOS\server\v18\Source\Source\DatabaseServer\tlord.cpp
; File C:\Program Files (x86)\Windows Kits\10\Include\10.0.26100.0\ucrt\time.h
; File C:\IAGOS\server\v18\Source\Source\DatabaseServer\tlord.cpp
; File C:\Program Files\Microsoft Visual Studio\2022\Professional\VC\Tools\MSVC\14.44.35207\include\vector
; File C:\IAGOS\server\v18\Source\Source\DatabaseServer\tlord.cpp
;	COMDAT ?PostLordItems@CTElection@@AAEXK@Z
_TEXT	SEGMENT
_pi$2 = -20						; size = 8
_Lock$3 = -16						; size = 4
__$EHRec$ = -12						; size = 12
_idLord$ = 8						; size = 4
tv343 = 8						; size = 4
tv358 = 8						; size = 4
?PostLordItems@CTElection@@AAEXK@Z PROC			; CTElection::PostLordItems, COMDAT
; _this$ = ecx

; 493  : {	// ±şÁÖ ľĆŔĚĹŰ żěĆí Áö±Ţ

  00000	55		 push	 ebp
  00001	8b ec		 mov	 ebp, esp
  00003	6a ff		 push	 -1
  00005	68 00 00 00 00	 push	 __ehhandler$?PostLordItems@CTElection@@AAEXK@Z
  0000a	64 a1 00 00 00
	00		 mov	 eax, DWORD PTR fs:0
  00010	50		 push	 eax
  00011	83 ec 08	 sub	 esp, 8
  00014	53		 push	 ebx
  00015	56		 push	 esi
  00016	57		 push	 edi
  00017	a1 00 00 00 00	 mov	 eax, DWORD PTR ___security_cookie
  0001c	33 c5		 xor	 eax, ebp
  0001e	50		 push	 eax
  0001f	8d 45 f4	 lea	 eax, DWORD PTR __$EHRec$[ebp]
  00022	64 a3 00 00 00
	00		 mov	 DWORD PTR fs:0, eax
  00028	8b d9		 mov	 ebx, ecx

; 494  : 	if( idLord != NULL_ID )

  0002a	8b 7d 08	 mov	 edi, DWORD PTR _idLord$[ebp]
  0002d	83 ff ff	 cmp	 edi, -1
  00030	0f 84 99 00 00
	00		 je	 $LN3@PostLordIt

; 495  : 	{
; 496  : 		BYTE iIndex		= SEX_MALE;

  00036	c6 45 08 00	 mov	 BYTE PTR tv343[ebp], 0

; 497  : 		{
; 498  : 			CMclAutoLock	Lock( CPlayerDataCenter::GetInstance()->m_Access );

  0003a	e8 00 00 00 00	 call	 ?GetInstance@CPlayerDataCenter@@SAPAV1@XZ ; CPlayerDataCenter::GetInstance
  0003f	83 c0 14	 add	 eax, 20			; 00000014H
; File C:\IAGOS\server\v18\Source\Source\_Network\Mcl\Include\CMclAutoLock.h

; 21   : 		m_pcCritSec = &rCMclCritSec;

  00042	89 45 f0	 mov	 DWORD PTR _Lock$3[ebp], eax
; File C:\IAGOS\server\v18\Source\Source\_Network\Mcl\Include\CMclCritSec.h

; 33   : 		::EnterCriticalSection( &m_CritSec );

  00045	8d 70 04	 lea	 esi, DWORD PTR [eax+4]
  00048	56		 push	 esi
  00049	ff 15 00 00 00
	00		 call	 DWORD PTR __imp__EnterCriticalSection@4
; File C:\IAGOS\server\v18\Source\Source\DatabaseServer\tlord.cpp

; 499  : 			PlayerData* pData	= CPlayerDataCenter::GetInstance()->GetPlayerData( idLord );

  0004f	57		 push	 edi
  00050	c7 45 fc 00 00
	00 00		 mov	 DWORD PTR __$EHRec$[ebp+8], 0
  00057	e8 00 00 00 00	 call	 ?GetInstance@CPlayerDataCenter@@SAPAV1@XZ ; CPlayerDataCenter::GetInstance
  0005c	8b c8		 mov	 ecx, eax
  0005e	e8 00 00 00 00	 call	 ?GetPlayerData@CPlayerDataCenter@@QAEPAU_PlayerData@@K@Z ; CPlayerDataCenter::GetPlayerData

; 500  : 			if( pData )

  00063	85 c0		 test	 eax, eax
  00065	74 10		 je	 SHORT $LN7@PostLordIt

; 501  : 				iIndex	= pData->data.nSex;
; 502  : 			ASSERT( iIndex >= 0 && iIndex < 2 );
; 503  : 			if( iIndex < 0 || iIndex > 2 )

  00067	0f b6 48 08	 movzx	 ecx, BYTE PTR [eax+8]
  0006b	33 d2		 xor	 edx, edx
  0006d	80 78 08 02	 cmp	 BYTE PTR [eax+8], 2
  00071	0f 47 ca	 cmova	 ecx, edx
  00074	89 4d 08	 mov	 DWORD PTR tv343[ebp], ecx
$LN7@PostLordIt:
; File C:\IAGOS\server\v18\Source\Source\_Network\Mcl\Include\CMclCritSec.h

; 39   : 		::LeaveCriticalSection( &m_CritSec );

  00077	56		 push	 esi
; File C:\IAGOS\server\v18\Source\Source\DatabaseServer\tlord.cpp

; 505  : 		}

  00078	c7 45 fc ff ff
	ff ff		 mov	 DWORD PTR __$EHRec$[ebp+8], -1
; File C:\IAGOS\server\v18\Source\Source\_Network\Mcl\Include\CMclCritSec.h

; 39   : 		::LeaveCriticalSection( &m_CritSec );

  0007f	ff 15 00 00 00
	00		 call	 DWORD PTR __imp__LeaveCriticalSection@4
; File C:\IAGOS\server\v18\Source\Source\DatabaseServer\tlord.cpp

; 506  : 		for( vector<int>::iterator i = property.m_vItems[iIndex].begin(); i != property.m_vItems[iIndex].end(); ++i )

  00085	8b 4d 08	 mov	 ecx, DWORD PTR tv343[ebp]
  00088	0f b6 c1	 movzx	 eax, cl
  0008b	8d 34 40	 lea	 esi, DWORD PTR [eax+eax*2]
; File C:\Program Files\Microsoft Visual Studio\2022\Professional\VC\Tools\MSVC\14.44.35207\include\vector

; 46   :     _CONSTEXPR20 _Vector_const_iterator(_Tptr _Parg, const _Container_base* _Pvector) noexcept : _Ptr(_Parg) {

  0008e	8b 74 b3 44	 mov	 esi, DWORD PTR [ebx+esi*4+68]

; 1852 :         return iterator(_My_data._Mylast, _STD addressof(_My_data));

  00092	8d 04 40	 lea	 eax, DWORD PTR [eax+eax*2]
  00095	8d 40 12	 lea	 eax, DWORD PTR [eax+18]
  00098	8d 04 83	 lea	 eax, DWORD PTR [ebx+eax*4]
  0009b	89 45 08	 mov	 DWORD PTR tv358[ebp], eax

; 176  :         return !(*this == _Right);

  0009e	3b 30		 cmp	 esi, DWORD PTR [eax]
; File C:\IAGOS\server\v18\Source\Source\DatabaseServer\tlord.cpp

; 506  : 		for( vector<int>::iterator i = property.m_vItems[iIndex].begin(); i != property.m_vItems[iIndex].end(); ++i )

  000a0	74 2d		 je	 SHORT $LN3@PostLordIt
$LL4@PostLordIt:

; 509  : 			pi.nItem	= *i;

  000a2	8b 06		 mov	 eax, DWORD PTR [esi]
; File C:\Program Files (x86)\Windows Kits\10\Include\10.0.26100.0\ucrt\time.h

; 428  :             return _time32(_Time);

  000a4	6a 00		 push	 0
; File C:\IAGOS\server\v18\Source\Source\DatabaseServer\tlord.cpp

; 509  : 			pi.nItem	= *i;

  000a6	89 45 ec	 mov	 DWORD PTR _pi$2[ebp], eax
; File C:\Program Files (x86)\Windows Kits\10\Include\10.0.26100.0\ucrt\time.h

; 428  :             return _time32(_Time);

  000a9	e8 00 00 00 00	 call	 __time32
  000ae	83 c4 04	 add	 esp, 4
; File C:\IAGOS\server\v18\Source\Source\DatabaseServer\tlord.cpp

; 510  : 			pi.dwKeepTime	= time( NULL ) + 1209600;	// 14ŔĎ

  000b1	05 00 75 12 00	 add	 eax, 1209600		; 00127500H
  000b6	89 45 f0	 mov	 DWORD PTR _pi$2[ebp+4], eax

; 511  : 			PostItem( idLord, pi );

  000b9	8b cb		 mov	 ecx, ebx
  000bb	8d 45 ec	 lea	 eax, DWORD PTR _pi$2[ebp]
  000be	50		 push	 eax
  000bf	57		 push	 edi
  000c0	e8 00 00 00 00	 call	 ?PostItem@CTElection@@AAEXKAAU_PostItemStruct@@@Z ; CTElection::PostItem
; File C:\Program Files\Microsoft Visual Studio\2022\Professional\VC\Tools\MSVC\14.44.35207\include\vector

; 176  :         return !(*this == _Right);

  000c5	8b 45 08	 mov	 eax, DWORD PTR tv358[ebp]

; 82   :         ++_Ptr;

  000c8	83 c6 04	 add	 esi, 4

; 176  :         return !(*this == _Right);

  000cb	3b 30		 cmp	 esi, DWORD PTR [eax]
; File C:\IAGOS\server\v18\Source\Source\DatabaseServer\tlord.cpp

; 506  : 		for( vector<int>::iterator i = property.m_vItems[iIndex].begin(); i != property.m_vItems[iIndex].end(); ++i )

  000cd	75 d3		 jne	 SHORT $LL4@PostLordIt
$LN3@PostLordIt:

; 512  : 		}
; 513  : 	}
; 514  : }

  000cf	8b 4d f4	 mov	 ecx, DWORD PTR __$EHRec$[ebp]
  000d2	64 89 0d 00 00
	00 00		 mov	 DWORD PTR fs:0, ecx
  000d9	59		 pop	 ecx
  000da	5f		 pop	 edi
  000db	5e		 pop	 esi
  000dc	5b		 pop	 ebx
  000dd	8b e5		 mov	 esp, ebp
  000df	5d		 pop	 ebp
  000e0	c2 04 00	 ret	 4
_TEXT	ENDS
;	COMDAT text$x
text$x	SEGMENT
__unwindfunclet$?PostLordItems@CTElection@@AAEXK@Z$0:
  00000	8d 4d f0	 lea	 ecx, DWORD PTR _Lock$3[ebp]
  00003	e9 00 00 00 00	 jmp	 ??1CMclAutoLock@@QAE@XZ	; CMclAutoLock::~CMclAutoLock
  00008	cc		 int	 3
  00009	cc		 int	 3
  0000a	cc		 int	 3
  0000b	cc		 int	 3
  0000c	cc		 int	 3
__ehhandler$?PostLordItems@CTElection@@AAEXK@Z:
  0000d	90		 npad	 1
  0000e	90		 npad	 1
  0000f	8b 54 24 08	 mov	 edx, DWORD PTR [esp+8]
  00013	8d 42 0c	 lea	 eax, DWORD PTR [edx+12]
  00016	8b 4a e8	 mov	 ecx, DWORD PTR [edx-24]
  00019	33 c8		 xor	 ecx, eax
  0001b	e8 00 00 00 00	 call	 @__security_check_cookie@4
  00020	b8 00 00 00 00	 mov	 eax, OFFSET __ehfuncinfo$?PostLordItems@CTElection@@AAEXK@Z
  00025	e9 00 00 00 00	 jmp	 ___CxxFrameHandler3
text$x	ENDS
?PostLordItems@CTElection@@AAEXK@Z ENDP			; CTElection::PostLordItems
; Function compile flags: /Ogtp
; File C:\IAGOS\server\v18\Source\Source\DatabaseServer\tlord.cpp
; File C:\Program Files\Microsoft Visual Studio\2022\Professional\VC\Tools\MSVC\14.44.35207\include\vector
; File C:\IAGOS\server\v18\Source\Source\DatabaseServer\tlord.h
; File C:\IAGOS\server\v18\Source\Source\DatabaseServer\tlord.cpp
; File C:\Program Files\Microsoft Visual Studio\2022\Professional\VC\Tools\MSVC\14.44.35207\include\algorithm
; File C:\IAGOS\server\v18\Source\Source\DatabaseServer\tlord.cpp
;	COMDAT ?PostDepositToAllCandidate@CTElection@@AAEXXZ
_TEXT	SEGMENT
__Func$ = -4						; size = 4
?PostDepositToAllCandidate@CTElection@@AAEXXZ PROC	; CTElection::PostDepositToAllCandidate, COMDAT
; _this$ = ecx

; 449  : {	// ¸đµç ČÄş¸ŔÚ ŔÔÂű±Ý ąÝČŻ

  00000	55		 push	 ebp
  00001	8b ec		 mov	 ebp, esp
  00003	51		 push	 ecx
  00004	56		 push	 esi
  00005	8b f1		 mov	 esi, ecx
  00007	57		 push	 edi

; 450  : 	CLController* pController	= m_pLord->GetController();

  00008	8b 4e 04	 mov	 ecx, DWORD PTR [esi+4]
  0000b	8b 01		 mov	 eax, DWORD PTR [ecx]
  0000d	ff 50 08	 call	 DWORD PTR [eax+8]
; File C:\Program Files\Microsoft Visual Studio\2022\Professional\VC\Tools\MSVC\14.44.35207\include\vector

; 46   :     _CONSTEXPR20 _Vector_const_iterator(_Tptr _Parg, const _Container_base* _Pvector) noexcept : _Ptr(_Parg) {

  00010	8b 7e 18	 mov	 edi, DWORD PTR [esi+24]
  00013	8b 76 14	 mov	 esi, DWORD PTR [esi+20]
; File C:\IAGOS\server\v18\Source\Source\DatabaseServer\tlord.h

; 151  : 	PostDeposit( CQuery* pQuery )	{	m_pQuery	= pQuery;	}

  00016	8b 40 0c	 mov	 eax, DWORD PTR [eax+12]
; File C:\IAGOS\server\v18\Source\Source\DatabaseServer\tlord.cpp

; 451  : 	for_each( m_vCandidates.begin(), m_vCandidates.end(), PostDeposit( pController->GetQueryObject() ) );

  00019	89 45 fc	 mov	 DWORD PTR __Func$[ebp], eax
; File C:\Program Files\Microsoft Visual Studio\2022\Professional\VC\Tools\MSVC\14.44.35207\include\algorithm

; 402  :     for (; _UFirst != _ULast; ++_UFirst) {

  0001c	3b f7		 cmp	 esi, edi
  0001e	74 10		 je	 SHORT $LN25@PostDeposi
$LL26@PostDeposi:

; 403  :         _Func(*_UFirst);

  00020	56		 push	 esi
  00021	8d 4d fc	 lea	 ecx, DWORD PTR __Func$[ebp]
  00024	e8 00 00 00 00	 call	 ??RPostDeposit@@QBEXABV?$shared_ptr@VCCandidate@@@std@@@Z ; PostDeposit::operator()
  00029	83 c6 08	 add	 esi, 8
  0002c	3b f7		 cmp	 esi, edi
  0002e	75 f0		 jne	 SHORT $LL26@PostDeposi
$LN25@PostDeposi:
  00030	5f		 pop	 edi
; File C:\IAGOS\server\v18\Source\Source\DatabaseServer\tlord.cpp

; 452  : }

  00031	5e		 pop	 esi
  00032	8b e5		 mov	 esp, ebp
  00034	5d		 pop	 ebp
  00035	c3		 ret	 0
?PostDepositToAllCandidate@CTElection@@AAEXXZ ENDP	; CTElection::PostDepositToAllCandidate
_TEXT	ENDS
; Function compile flags: /Ogtp
; File C:\IAGOS\server\v18\Source\Source\DatabaseServer\tlord.cpp
; File C:\Program Files (x86)\Windows Kits\10\Include\10.0.26100.0\ucrt\time.h
; File C:\IAGOS\server\v18\Source\Source\DatabaseServer\tlord.cpp
; File C:\Program Files (x86)\Windows Kits\10\Include\10.0.26100.0\ucrt\time.h
; File C:\IAGOS\server\v18\Source\Source\DatabaseServer\tlord.cpp
; File C:\IAGOS\server\v18\Source\Source\_Common\Data.h
; File C:\IAGOS\server\v18\Source\Source\DatabaseServer\Project.h
; File C:\IAGOS\server\v18\Source\Source\DatabaseServer\tlord.cpp
; File C:\IAGOS\server\v18\Source\Source\_Common\Data.h
; File C:\IAGOS\server\v18\Source\Source\DatabaseServer\Project.h
; File C:\IAGOS\server\v18\Source\Source\DatabaseServer\tlord.cpp
; File C:\IAGOS\server\v18\Source\Source\_Common\xutil.h
; File C:\IAGOS\server\v18\Source\Source\DatabaseServer\tlord.cpp
;	COMDAT ?PostItem@CTElection@@AAEXKAAU_PostItemStruct@@@Z
_TEXT	SEGMENT
$T2 = -16						; size = 4
$T3 = -16						; size = 4
__$EHRec$ = -12						; size = 12
_idPlayer$ = 8						; size = 4
_pi$ = 12						; size = 4
?PostItem@CTElection@@AAEXKAAU_PostItemStruct@@@Z PROC	; CTElection::PostItem, COMDAT
; _this$ = ecx

; 517  : {	// żěĆíŔ» ĹëÇŃ ľĆŔĚĹŰ Áö±Ţ

  00000	55		 push	 ebp
  00001	8b ec		 mov	 ebp, esp
  00003	6a ff		 push	 -1
  00005	68 00 00 00 00	 push	 __ehhandler$?PostItem@CTElection@@AAEXKAAU_PostItemStruct@@@Z
  0000a	64 a1 00 00 00
	00		 mov	 eax, DWORD PTR fs:0
  00010	50		 push	 eax
  00011	51		 push	 ecx
  00012	56		 push	 esi
  00013	57		 push	 edi
  00014	a1 00 00 00 00	 mov	 eax, DWORD PTR ___security_cookie
  00019	33 c5		 xor	 eax, ebp
  0001b	50		 push	 eax
  0001c	8d 45 f4	 lea	 eax, DWORD PTR __$EHRec$[ebp]
  0001f	64 a3 00 00 00
	00		 mov	 DWORD PTR fs:0, eax
  00025	8b f9		 mov	 edi, ecx

; 519  : 	CMail* pMail	= new CMail;

  00027	68 40 01 00 00	 push	 320			; 00000140H
  0002c	e8 00 00 00 00	 call	 ??2@YAPAXI@Z		; operator new
  00031	83 c4 04	 add	 esp, 4
  00034	89 45 f0	 mov	 DWORD PTR $T2[ebp], eax
  00037	c7 45 fc 00 00
	00 00		 mov	 DWORD PTR __$EHRec$[ebp+8], 0
  0003e	85 c0		 test	 eax, eax
  00040	74 0b		 je	 SHORT $LN3@PostItem
  00042	8b c8		 mov	 ecx, eax
  00044	e8 00 00 00 00	 call	 ??0CMail@@QAE@XZ	; CMail::CMail
  00049	8b f0		 mov	 esi, eax
  0004b	eb 02		 jmp	 SHORT $LN4@PostItem
$LN3@PostItem:
  0004d	33 f6		 xor	 esi, esi
$LN4@PostItem:
; File C:\Program Files (x86)\Windows Kits\10\Include\10.0.26100.0\ucrt\time.h

; 428  :             return _time32(_Time);

  0004f	6a 00		 push	 0
; File C:\IAGOS\server\v18\Source\Source\DatabaseServer\tlord.cpp

; 519  : 	CMail* pMail	= new CMail;

  00051	c7 45 fc ff ff
	ff ff		 mov	 DWORD PTR __$EHRec$[ebp+8], -1
; File C:\Program Files (x86)\Windows Kits\10\Include\10.0.26100.0\ucrt\time.h

; 428  :             return _time32(_Time);

  00058	e8 00 00 00 00	 call	 __time32
  0005d	83 c4 04	 add	 esp, 4
; File C:\IAGOS\server\v18\Source\Source\DatabaseServer\tlord.cpp

; 520  : 	pMail->m_tmCreate	= ::time_null();

  00060	89 46 14	 mov	 DWORD PTR [esi+20], eax

; 521  : 	pMail->m_idSender	= 0;	//

  00063	c7 46 08 00 00
	00 00		 mov	 DWORD PTR [esi+8], 0
; File C:\IAGOS\server\v18\Source\Source\_Common\Data.h

; 270  : 	if( dwIndex >= (DWORD)m_nMaxIndex )

  0006a	81 3d 78 00 00
	00 9e 0e 00 00	 cmp	 DWORD PTR ?prj@@3VCProject@@A+120, 3742 ; 00000e9eH
  00074	76 14		 jbe	 SHORT $LN33@PostItem

; 271  : 		return NULL;
; 272  : 	return (T*) m_apOffset[ dwIndex ];

  00076	a1 68 00 00 00	 mov	 eax, DWORD PTR ?prj@@3VCProject@@A+104
  0007b	8b 80 78 3a 00
	00		 mov	 eax, DWORD PTR [eax+14968]
; File C:\IAGOS\server\v18\Source\Source\DatabaseServer\Project.h

; 184  : 		if( m_colorText.GetAt( dwIndex ) == NULL )

  00081	85 c0		 test	 eax, eax
  00083	74 05		 je	 SHORT $LN33@PostItem

; 186  : 		return m_colorText.GetAt( dwIndex )->lpszData; 

  00085	8b 40 04	 mov	 eax, DWORD PTR [eax+4]
  00088	eb 05		 jmp	 SHORT $LN13@PostItem
$LN33@PostItem:

; 185  : 			return "";

  0008a	b8 00 00 00 00	 mov	 eax, OFFSET ??_C@_00CNPNBAHC@@
$LN13@PostItem:
; File C:\IAGOS\server\v18\Source\Source\DatabaseServer\tlord.cpp

; 522  : 	sprintf( pMail->m_szTitle, prj.GetText( TID_GAME_ELECTION_SET_LORD_MAIL_TITLE ) );

  0008f	50		 push	 eax
  00090	8d 46 19	 lea	 eax, DWORD PTR [esi+25]
  00093	50		 push	 eax
  00094	e8 00 00 00 00	 call	 _sprintf
  00099	83 c4 08	 add	 esp, 8
; File C:\IAGOS\server\v18\Source\Source\_Common\Data.h

; 270  : 	if( dwIndex >= (DWORD)m_nMaxIndex )

  0009c	81 3d 78 00 00
	00 9f 0e 00 00	 cmp	 DWORD PTR ?prj@@3VCProject@@A+120, 3743 ; 00000e9fH
  000a6	76 14		 jbe	 SHORT $LN34@PostItem

; 271  : 		return NULL;
; 272  : 	return (T*) m_apOffset[ dwIndex ];

  000a8	a1 68 00 00 00	 mov	 eax, DWORD PTR ?prj@@3VCProject@@A+104
  000ad	8b 80 7c 3a 00
	00		 mov	 eax, DWORD PTR [eax+14972]
; File C:\IAGOS\server\v18\Source\Source\DatabaseServer\Project.h

; 184  : 		if( m_colorText.GetAt( dwIndex ) == NULL )

  000b3	85 c0		 test	 eax, eax
  000b5	74 05		 je	 SHORT $LN34@PostItem

; 186  : 		return m_colorText.GetAt( dwIndex )->lpszData; 

  000b7	8b 40 04	 mov	 eax, DWORD PTR [eax+4]
  000ba	eb 05		 jmp	 SHORT $LN22@PostItem
$LN34@PostItem:

; 185  : 			return "";

  000bc	b8 00 00 00 00	 mov	 eax, OFFSET ??_C@_00CNPNBAHC@@
$LN22@PostItem:
; File C:\IAGOS\server\v18\Source\Source\DatabaseServer\tlord.cpp

; 523  : 	sprintf( pMail->m_szText, prj.GetText( TID_GAME_ELECTION_SET_LORD_MAIL_TEXT ) );

  000c1	50		 push	 eax
  000c2	8d 46 39	 lea	 eax, DWORD PTR [esi+57]
  000c5	50		 push	 eax
  000c6	e8 00 00 00 00	 call	 _sprintf

; 524  : 	pMail->m_pItemElem	= new CItemElem;

  000cb	68 98 00 00 00	 push	 152			; 00000098H
  000d0	e8 00 00 00 00	 call	 ??2@YAPAXI@Z		; operator new
  000d5	83 c4 0c	 add	 esp, 12			; 0000000cH
  000d8	89 45 f0	 mov	 DWORD PTR $T3[ebp], eax
  000db	c7 45 fc 01 00
	00 00		 mov	 DWORD PTR __$EHRec$[ebp+8], 1
  000e2	85 c0		 test	 eax, eax
  000e4	74 0b		 je	 SHORT $LN5@PostItem
  000e6	8b c8		 mov	 ecx, eax
  000e8	e8 00 00 00 00	 call	 ??0CItemElem@@QAE@XZ	; CItemElem::CItemElem
  000ed	8b c8		 mov	 ecx, eax
  000ef	eb 02		 jmp	 SHORT $LN6@PostItem
$LN5@PostItem:
  000f1	33 c9		 xor	 ecx, ecx
$LN6@PostItem:

; 525  : 	pMail->m_pItemElem->m_dwItemId	= pi.nItem;

  000f3	8b 55 0c	 mov	 edx, DWORD PTR _pi$[ebp]
  000f6	89 4e 0c	 mov	 DWORD PTR [esi+12], ecx
  000f9	c7 45 fc ff ff
	ff ff		 mov	 DWORD PTR __$EHRec$[ebp+8], -1
  00100	8b 02		 mov	 eax, DWORD PTR [edx]
  00102	89 41 08	 mov	 DWORD PTR [ecx+8], eax

; 526  : 	pMail->m_pItemElem->m_nItemNum	= 1;

  00105	b9 01 00 00 00	 mov	 ecx, 1
  0010a	8b 46 0c	 mov	 eax, DWORD PTR [esi+12]
  0010d	66 89 48 66	 mov	 WORD PTR [eax+102], cx

; 527  : 	pMail->m_pItemElem->m_dwKeepTime	= pi.dwKeepTime;

  00111	8b 4e 0c	 mov	 ecx, DWORD PTR [esi+12]
  00114	8b 42 04	 mov	 eax, DWORD PTR [edx+4]
  00117	89 81 80 00 00
	00		 mov	 DWORD PTR [ecx+128], eax
; File C:\IAGOS\server\v18\Source\Source\_Common\xutil.h

; 16   : 	g_next = g_next * 1103515245 + 12345;// + nRandomSeed[ i++ ];

  0011d	69 0d 00 00 00
	00 6d 4e c6 41	 imul	 ecx, DWORD PTR ?g_next@@3KA, 1103515245 ; g_next
  00127	81 c1 39 30 00
	00		 add	 ecx, 12345		; 00003039H
  0012d	89 0d 00 00 00
	00		 mov	 DWORD PTR ?g_next@@3KA, ecx ; g_next
; File C:\IAGOS\server\v18\Source\Source\DatabaseServer\tlord.cpp

; 528  : 	pMail->m_pItemElem->SetSerialNumber( xRand() );

  00133	8b 46 0c	 mov	 eax, DWORD PTR [esi+12]
  00136	89 48 30	 mov	 DWORD PTR [eax+48], ecx

; 529  : 	CLController* pController	= m_pLord->GetController();

  00139	8b 4f 04	 mov	 ecx, DWORD PTR [edi+4]
  0013c	8b 01		 mov	 eax, DWORD PTR [ecx]
  0013e	ff 50 08	 call	 DWORD PTR [eax+8]

; 530  : 	post::Post( idPlayer, pMail, pController->GetQueryObject() );

  00141	ff 70 0c	 push	 DWORD PTR [eax+12]
  00144	56		 push	 esi
  00145	ff 75 08	 push	 DWORD PTR _idPlayer$[ebp]
  00148	e8 00 00 00 00	 call	 ?Post@post@@YAXKPAVCMail@@PAVCQuery@@@Z ; post::Post
  0014d	83 c4 0c	 add	 esp, 12			; 0000000cH

; 531  : }

  00150	8b 4d f4	 mov	 ecx, DWORD PTR __$EHRec$[ebp]
  00153	64 89 0d 00 00
	00 00		 mov	 DWORD PTR fs:0, ecx
  0015a	59		 pop	 ecx
  0015b	5f		 pop	 edi
  0015c	5e		 pop	 esi
  0015d	8b e5		 mov	 esp, ebp
  0015f	5d		 pop	 ebp
  00160	c2 08 00	 ret	 8
_TEXT	ENDS
;	COMDAT text$x
text$x	SEGMENT
__unwindfunclet$?PostItem@CTElection@@AAEXKAAU_PostItemStruct@@@Z$0:
  00000	68 40 01 00 00	 push	 320			; 00000140H
  00005	8b 45 f0	 mov	 eax, DWORD PTR $T2[ebp]
  00008	50		 push	 eax
  00009	e8 00 00 00 00	 call	 ??3@YAXPAXI@Z		; operator delete
  0000e	83 c4 08	 add	 esp, 8
  00011	c3		 ret	 0
__unwindfunclet$?PostItem@CTElection@@AAEXKAAU_PostItemStruct@@@Z$1:
  00012	68 98 00 00 00	 push	 152			; 00000098H
  00017	8b 45 f0	 mov	 eax, DWORD PTR $T3[ebp]
  0001a	50		 push	 eax
  0001b	e8 00 00 00 00	 call	 ??3@YAXPAXI@Z		; operator delete
  00020	83 c4 08	 add	 esp, 8
  00023	c3		 ret	 0
  00024	cc		 int	 3
  00025	cc		 int	 3
  00026	cc		 int	 3
  00027	cc		 int	 3
  00028	cc		 int	 3
__ehhandler$?PostItem@CTElection@@AAEXKAAU_PostItemStruct@@@Z:
  00029	90		 npad	 1
  0002a	90		 npad	 1
  0002b	8b 54 24 08	 mov	 edx, DWORD PTR [esp+8]
  0002f	8d 42 0c	 lea	 eax, DWORD PTR [edx+12]
  00032	8b 4a f0	 mov	 ecx, DWORD PTR [edx-16]
  00035	33 c8		 xor	 ecx, eax
  00037	e8 00 00 00 00	 call	 @__security_check_cookie@4
  0003c	b8 00 00 00 00	 mov	 eax, OFFSET __ehfuncinfo$?PostItem@CTElection@@AAEXKAAU_PostItemStruct@@@Z
  00041	e9 00 00 00 00	 jmp	 ___CxxFrameHandler3
text$x	ENDS
?PostItem@CTElection@@AAEXKAAU_PostItemStruct@@@Z ENDP	; CTElection::PostItem
; Function compile flags: /Ogtp
; File C:\IAGOS\server\v18\Source\Source\DatabaseServer\tlord.cpp
; File C:\Program Files\Microsoft Visual Studio\2022\Professional\VC\Tools\MSVC\14.44.35207\atlmfc\include\cstringt.h
; File C:\IAGOS\server\v18\Source\Source\DatabaseServer\tlord.cpp
; File C:\Program Files\Microsoft Visual Studio\2022\Professional\VC\Tools\MSVC\14.44.35207\atlmfc\include\cstringt.h
; File C:\IAGOS\server\v18\Source\Source\DatabaseServer\tlord.cpp
; File C:\Program Files\Microsoft Visual Studio\2022\Professional\VC\Tools\MSVC\14.44.35207\atlmfc\include\cstringt.h
; File C:\IAGOS\server\v18\Source\Source\DatabaseServer\tlord.cpp
; File C:\Program Files\Microsoft Visual Studio\2022\Professional\VC\Tools\MSVC\14.44.35207\atlmfc\include\cstringt.h
; File C:\IAGOS\server\v18\Source\Source\DatabaseServer\tlord.cpp
; File C:\Program Files\Microsoft Visual Studio\2022\Professional\VC\Tools\MSVC\14.44.35207\atlmfc\include\cstringt.h
; File C:\IAGOS\server\v18\Source\Source\DatabaseServer\tlord.cpp
; File C:\Program Files\Microsoft Visual Studio\2022\Professional\VC\Tools\MSVC\14.44.35207\atlmfc\include\cstringt.h
; File C:\IAGOS\server\v18\Source\Source\DatabaseServer\tlord.cpp
; File C:\Program Files\Microsoft Visual Studio\2022\Professional\VC\Tools\MSVC\14.44.35207\atlmfc\include\cstringt.h
; File C:\IAGOS\server\v18\Source\Source\DatabaseServer\tlord.cpp
; File C:\Program Files\Microsoft Visual Studio\2022\Professional\VC\Tools\MSVC\14.44.35207\include\vector
; File C:\Program Files\Microsoft Visual Studio\2022\Professional\VC\Tools\MSVC\14.44.35207\include\xutility
; File C:\Program Files\Microsoft Visual Studio\2022\Professional\VC\Tools\MSVC\14.44.35207\include\vector
; File C:\IAGOS\server\v18\Source\Source\DatabaseServer\tlord.cpp
; File C:\Program Files\Microsoft Visual Studio\2022\Professional\VC\Tools\MSVC\14.44.35207\atlmfc\include\cstringt.h
; File C:\IAGOS\server\v18\Source\Source\DatabaseServer\tlord.cpp
; File C:\Program Files\Microsoft Visual Studio\2022\Professional\VC\Tools\MSVC\14.44.35207\atlmfc\include\cstringt.h
; File C:\IAGOS\server\v18\Source\Source\DatabaseServer\tlord.cpp
; File C:\Program Files\Microsoft Visual Studio\2022\Professional\VC\Tools\MSVC\14.44.35207\include\vector
; File C:\IAGOS\server\v18\Source\Source\DatabaseServer\tlord.cpp
;	COMDAT ?ReadIni@CTElection@@AAEHPBD@Z
_TEXT	SEGMENT
_fRate$2 = -7804					; size = 4
_nItem$3 = -7804					; size = 4
_s$ = -7800						; size = 7784
__$ArrayPad$ = -16					; size = 4
__$EHRec$ = -12						; size = 12
_szFile$ = 8						; size = 4
?ReadIni@CTElection@@AAEHPBD@Z PROC			; CTElection::ReadIni, COMDAT
; _this$ = ecx

; 203  : {	// ˝şĹ©¸łĆ® ·Îµĺ

  00000	55		 push	 ebp
  00001	8b ec		 mov	 ebp, esp
  00003	6a ff		 push	 -1
  00005	68 00 00 00 00	 push	 __ehhandler$?ReadIni@CTElection@@AAEHPBD@Z
  0000a	64 a1 00 00 00
	00		 mov	 eax, DWORD PTR fs:0
  00010	50		 push	 eax
  00011	b8 70 1e 00 00	 mov	 eax, 7792		; 00001e70H
  00016	e8 00 00 00 00	 call	 __chkstk
  0001b	a1 00 00 00 00	 mov	 eax, DWORD PTR ___security_cookie
  00020	33 c5		 xor	 eax, ebp
  00022	89 45 f0	 mov	 DWORD PTR __$ArrayPad$[ebp], eax
  00025	56		 push	 esi
  00026	57		 push	 edi
  00027	50		 push	 eax
  00028	8d 45 f4	 lea	 eax, DWORD PTR __$EHRec$[ebp]
  0002b	64 a3 00 00 00
	00		 mov	 DWORD PTR fs:0, eax
  00031	8b f9		 mov	 edi, ecx
  00033	8b 75 08	 mov	 esi, DWORD PTR _szFile$[ebp]

; 204  : 	CScript s;

  00036	8d 8d 88 e1 ff
	ff		 lea	 ecx, DWORD PTR _s$[ebp]
  0003c	6a 00		 push	 0
  0003e	e8 00 00 00 00	 call	 ??0CScript@@QAE@H@Z	; CScript::CScript

; 205  : 	if( s.Load( szFile ) == FALSE )

  00043	6a 00		 push	 0
  00045	6a 01		 push	 1
  00047	56		 push	 esi
  00048	8d 8d 88 e1 ff
	ff		 lea	 ecx, DWORD PTR _s$[ebp]
  0004e	c7 45 fc 00 00
	00 00		 mov	 DWORD PTR __$EHRec$[ebp+8], 0
  00055	e8 00 00 00 00	 call	 ?Load@CScript@@QAEHPBDHH@Z ; CScript::Load
  0005a	85 c0		 test	 eax, eax
  0005c	75 07		 jne	 SHORT $LN10@ReadIni
  0005e	33 f6		 xor	 esi, esi
  00060	e9 d0 02 00 00	 jmp	 $LN29@ReadIni
$LN10@ReadIni:

; 206  : 		return FALSE;
; 207  : 
; 208  : 	s.GetToken();

  00065	6a 00		 push	 0
  00067	8d 8d 88 e1 ff
	ff		 lea	 ecx, DWORD PTR _s$[ebp]
  0006d	e8 00 00 00 00	 call	 ?GetToken@CScript@@UAEHH@Z ; CScript::GetToken

; 209  : 	while( s.tok != FINISHED )

  00072	83 bd cc e9 ff
	ff 15		 cmp	 DWORD PTR _s$[ebp+2116], 21 ; 00000015H
  00079	0f 84 b1 02 00
	00		 je	 $LN209@ReadIni
  0007f	90		 npad	 1
$LL2@ReadIni:
; File C:\Program Files\Microsoft Visual Studio\2022\Professional\VC\Tools\MSVC\14.44.35207\atlmfc\include\cstringt.h

; 184  : 		return _mbscmp( reinterpret_cast< const unsigned char* >( pszA ), reinterpret_cast< const unsigned char* >( pszB ) );

  00080	68 00 00 00 00	 push	 OFFSET ??_C@_08EMBNBNLN@property@
  00085	ff b5 a8 e1 ff
	ff		 push	 DWORD PTR _s$[ebp+32]
  0008b	e8 00 00 00 00	 call	 __mbscmp
  00090	83 c4 08	 add	 esp, 8

; 2490 : 		return(str1.Compare(psz2) == 0);

  00093	85 c0		 test	 eax, eax
; File C:\IAGOS\server\v18\Source\Source\DatabaseServer\tlord.cpp

; 211  : 		if( s.Token == _T( "property" ) )

  00095	0f 85 1f 01 00
	00		 jne	 $LN132@ReadIni

; 212  : 		{
; 213  : 			s.GetToken();	// {

  0009b	50		 push	 eax
  0009c	8d 8d 88 e1 ff
	ff		 lea	 ecx, DWORD PTR _s$[ebp]
  000a2	e8 00 00 00 00	 call	 ?GetToken@CScript@@UAEHH@Z ; CScript::GetToken

; 214  : 			s.GetToken();

  000a7	6a 00		 push	 0
  000a9	8d 8d 88 e1 ff
	ff		 lea	 ecx, DWORD PTR _s$[ebp]
  000af	e8 00 00 00 00	 call	 ?GetToken@CScript@@UAEHH@Z ; CScript::GetToken

; 215  : 			while( *s.token != '}' )

  000b4	8b 85 c4 e1 ff
	ff		 mov	 eax, DWORD PTR _s$[ebp+60]
  000ba	80 38 7d	 cmp	 BYTE PTR [eax], 125	; 0000007dH
  000bd	0f 84 53 02 00
	00		 je	 $LN9@ReadIni
  000c3	0f 1f 40 00 66
	0f 1f 84 00 00
	00 00 00	 npad	 13
$LL4@ReadIni:
; File C:\Program Files\Microsoft Visual Studio\2022\Professional\VC\Tools\MSVC\14.44.35207\atlmfc\include\cstringt.h

; 184  : 		return _mbscmp( reinterpret_cast< const unsigned char* >( pszA ), reinterpret_cast< const unsigned char* >( pszB ) );

  000d0	68 00 00 00 00	 push	 OFFSET ??_C@_0L@NLLMANDB@nDayOfWeek@
  000d5	ff b5 a8 e1 ff
	ff		 push	 DWORD PTR _s$[ebp+32]
  000db	e8 00 00 00 00	 call	 __mbscmp
  000e0	83 c4 08	 add	 esp, 8

; 2490 : 		return(str1.Compare(psz2) == 0);

  000e3	85 c0		 test	 eax, eax
; File C:\IAGOS\server\v18\Source\Source\DatabaseServer\tlord.cpp

; 217  : 				if( s.Token == _T( "nDayOfWeek" ) )

  000e5	75 14		 jne	 SHORT $LN68@ReadIni

; 218  : 					property.nDayOfWeek		= s.GetNumber();

  000e7	50		 push	 eax
  000e8	8d 8d 88 e1 ff
	ff		 lea	 ecx, DWORD PTR _s$[ebp]
  000ee	e8 00 00 00 00	 call	 ?GetNumber@CScanner@@QAEHH@Z ; CScanner::GetNumber
  000f3	89 47 24	 mov	 DWORD PTR [edi+36], eax
  000f6	e9 9e 00 00 00	 jmp	 $LN21@ReadIni
$LN68@ReadIni:
; File C:\Program Files\Microsoft Visual Studio\2022\Professional\VC\Tools\MSVC\14.44.35207\atlmfc\include\cstringt.h

; 184  : 		return _mbscmp( reinterpret_cast< const unsigned char* >( pszA ), reinterpret_cast< const unsigned char* >( pszB ) );

  000fb	68 00 00 00 00	 push	 OFFSET ??_C@_05DIDGHFGE@nHour@
  00100	ff b5 a8 e1 ff
	ff		 push	 DWORD PTR _s$[ebp+32]
  00106	e8 00 00 00 00	 call	 __mbscmp
  0010b	83 c4 08	 add	 esp, 8

; 2490 : 		return(str1.Compare(psz2) == 0);

  0010e	85 c0		 test	 eax, eax
; File C:\IAGOS\server\v18\Source\Source\DatabaseServer\tlord.cpp

; 219  : 				else if( s.Token == _T( "nHour" ) )

  00110	75 11		 jne	 SHORT $LN84@ReadIni

; 220  : 					property.nHour	= s.GetNumber();

  00112	50		 push	 eax
  00113	8d 8d 88 e1 ff
	ff		 lea	 ecx, DWORD PTR _s$[ebp]
  00119	e8 00 00 00 00	 call	 ?GetNumber@CScanner@@QAEHH@Z ; CScanner::GetNumber
  0011e	89 47 28	 mov	 DWORD PTR [edi+40], eax
  00121	eb 76		 jmp	 SHORT $LN21@ReadIni
$LN84@ReadIni:
; File C:\Program Files\Microsoft Visual Studio\2022\Professional\VC\Tools\MSVC\14.44.35207\atlmfc\include\cstringt.h

; 184  : 		return _mbscmp( reinterpret_cast< const unsigned char* >( pszA ), reinterpret_cast< const unsigned char* >( pszB ) );

  00123	68 00 00 00 00	 push	 OFFSET ??_C@_0L@CKDBDEOG@tCandidacy@
  00128	ff b5 a8 e1 ff
	ff		 push	 DWORD PTR _s$[ebp+32]
  0012e	e8 00 00 00 00	 call	 __mbscmp
  00133	83 c4 08	 add	 esp, 8

; 2490 : 		return(str1.Compare(psz2) == 0);

  00136	85 c0		 test	 eax, eax
; File C:\IAGOS\server\v18\Source\Source\DatabaseServer\tlord.cpp

; 221  : 				else if( s.Token == _T( "tCandidacy" ) )

  00138	75 11		 jne	 SHORT $LN100@ReadIni

; 222  : 					property.tCandidacy	= s.GetNumber();

  0013a	50		 push	 eax
  0013b	8d 8d 88 e1 ff
	ff		 lea	 ecx, DWORD PTR _s$[ebp]
  00141	e8 00 00 00 00	 call	 ?GetNumber@CScanner@@QAEHH@Z ; CScanner::GetNumber
  00146	89 47 2c	 mov	 DWORD PTR [edi+44], eax
  00149	eb 4e		 jmp	 SHORT $LN21@ReadIni
$LN100@ReadIni:
; File C:\Program Files\Microsoft Visual Studio\2022\Professional\VC\Tools\MSVC\14.44.35207\atlmfc\include\cstringt.h

; 184  : 		return _mbscmp( reinterpret_cast< const unsigned char* >( pszA ), reinterpret_cast< const unsigned char* >( pszB ) );

  0014b	68 00 00 00 00	 push	 OFFSET ??_C@_05EBOKJDNL@tVote@
  00150	ff b5 a8 e1 ff
	ff		 push	 DWORD PTR _s$[ebp+32]
  00156	e8 00 00 00 00	 call	 __mbscmp
  0015b	83 c4 08	 add	 esp, 8

; 2490 : 		return(str1.Compare(psz2) == 0);

  0015e	85 c0		 test	 eax, eax
; File C:\IAGOS\server\v18\Source\Source\DatabaseServer\tlord.cpp

; 223  : 				else if( s.Token == _T( "tVote" ) )

  00160	75 11		 jne	 SHORT $LN116@ReadIni

; 224  : 					property.tVote	= s.GetNumber();

  00162	50		 push	 eax
  00163	8d 8d 88 e1 ff
	ff		 lea	 ecx, DWORD PTR _s$[ebp]
  00169	e8 00 00 00 00	 call	 ?GetNumber@CScanner@@QAEHH@Z ; CScanner::GetNumber
  0016e	89 47 30	 mov	 DWORD PTR [edi+48], eax
  00171	eb 26		 jmp	 SHORT $LN21@ReadIni
$LN116@ReadIni:
; File C:\Program Files\Microsoft Visual Studio\2022\Professional\VC\Tools\MSVC\14.44.35207\atlmfc\include\cstringt.h

; 184  : 		return _mbscmp( reinterpret_cast< const unsigned char* >( pszA ), reinterpret_cast< const unsigned char* >( pszB ) );

  00173	68 00 00 00 00	 push	 OFFSET ??_C@_05NBICHHD@nDays@
  00178	ff b5 a8 e1 ff
	ff		 push	 DWORD PTR _s$[ebp+32]
  0017e	e8 00 00 00 00	 call	 __mbscmp
  00183	83 c4 08	 add	 esp, 8

; 2490 : 		return(str1.Compare(psz2) == 0);

  00186	85 c0		 test	 eax, eax
; File C:\IAGOS\server\v18\Source\Source\DatabaseServer\tlord.cpp

; 225  : 				else if( s.Token == _T( "nDays" ) )

  00188	75 0f		 jne	 SHORT $LN21@ReadIni

; 226  : 					property.nDays	= s.GetNumber();

  0018a	50		 push	 eax
  0018b	8d 8d 88 e1 ff
	ff		 lea	 ecx, DWORD PTR _s$[ebp]
  00191	e8 00 00 00 00	 call	 ?GetNumber@CScanner@@QAEHH@Z ; CScanner::GetNumber
  00196	89 47 34	 mov	 DWORD PTR [edi+52], eax
$LN21@ReadIni:

; 227  : 				s.GetToken();

  00199	6a 00		 push	 0
  0019b	8d 8d 88 e1 ff
	ff		 lea	 ecx, DWORD PTR _s$[ebp]
  001a1	e8 00 00 00 00	 call	 ?GetToken@CScript@@UAEHH@Z ; CScript::GetToken
  001a6	8b 85 c4 e1 ff
	ff		 mov	 eax, DWORD PTR _s$[ebp+60]
  001ac	80 38 7d	 cmp	 BYTE PTR [eax], 125	; 0000007dH
  001af	0f 85 1b ff ff
	ff		 jne	 $LL4@ReadIni

; 228  : 			}
; 229  : 		}

  001b5	e9 5c 01 00 00	 jmp	 $LN9@ReadIni
$LN132@ReadIni:
; File C:\Program Files\Microsoft Visual Studio\2022\Professional\VC\Tools\MSVC\14.44.35207\atlmfc\include\cstringt.h

; 184  : 		return _mbscmp( reinterpret_cast< const unsigned char* >( pszA ), reinterpret_cast< const unsigned char* >( pszB ) );

  001ba	68 00 00 00 00	 push	 OFFSET ??_C@_04HCCHHEEF@rate@
  001bf	ff b5 a8 e1 ff
	ff		 push	 DWORD PTR _s$[ebp+32]
  001c5	e8 00 00 00 00	 call	 __mbscmp
  001ca	83 c4 08	 add	 esp, 8

; 2490 : 		return(str1.Compare(psz2) == 0);

  001cd	85 c0		 test	 eax, eax
; File C:\IAGOS\server\v18\Source\Source\DatabaseServer\tlord.cpp

; 230  : 		else if( s.Token == _T( "rate" ) )

  001cf	75 7e		 jne	 SHORT $LN158@ReadIni

; 231  : 		{
; 232  : 			s.GetToken();	// {

  001d1	50		 push	 eax
  001d2	8d 8d 88 e1 ff
	ff		 lea	 ecx, DWORD PTR _s$[ebp]
  001d8	e8 00 00 00 00	 call	 ?GetToken@CScript@@UAEHH@Z ; CScript::GetToken

; 233  : 			float fRate	= s.GetFloat();

  001dd	6a 00		 push	 0
  001df	8d 8d 88 e1 ff
	ff		 lea	 ecx, DWORD PTR _s$[ebp]
  001e5	e8 00 00 00 00	 call	 ?GetFloat@CScanner@@QAEMH@Z ; CScanner::GetFloat

; 234  : 			while( *s.token != '}' )

  001ea	8b 85 c4 e1 ff
	ff		 mov	 eax, DWORD PTR _s$[ebp+60]
  001f0	d9 9d 84 e1 ff
	ff		 fstp	 DWORD PTR _fRate$2[ebp]
  001f6	80 38 7d	 cmp	 BYTE PTR [eax], 125	; 0000007dH
  001f9	0f 84 17 01 00
	00		 je	 $LN9@ReadIni
  001ff	90		 npad	 1
$LL6@ReadIni:
; File C:\Program Files\Microsoft Visual Studio\2022\Professional\VC\Tools\MSVC\14.44.35207\include\vector

; 844  :         if (_Mylast != _My_data._Myend) {

  00200	8b 47 3c	 mov	 eax, DWORD PTR [edi+60]
  00203	3b 47 40	 cmp	 eax, DWORD PTR [edi+64]
  00206	74 14		 je	 SHORT $LN146@ReadIni
; File C:\Program Files\Microsoft Visual Studio\2022\Professional\VC\Tools\MSVC\14.44.35207\include\xutility

; 476  :         ::new (static_cast<void*>(_STD addressof(_Obj))) _Ty(_STD forward<_Types>(_Args)...);

  00208	f3 0f 10 85 84
	e1 ff ff	 movss	 xmm0, DWORD PTR _fRate$2[ebp]
  00210	f3 0f 11 00	 movss	 DWORD PTR [eax], xmm0
; File C:\Program Files\Microsoft Visual Studio\2022\Professional\VC\Tools\MSVC\14.44.35207\include\vector

; 869  :         ++_Mylast;

  00214	83 c0 04	 add	 eax, 4
  00217	89 47 3c	 mov	 DWORD PTR [edi+60], eax

; 845  :             return _Emplace_back_with_unused_capacity(_STD forward<_Valty>(_Val)...);

  0021a	eb 10		 jmp	 SHORT $LN145@ReadIni
$LN146@ReadIni:

; 846  :         }
; 847  : 
; 848  :         return *_Emplace_reallocate(_Mylast, _STD forward<_Valty>(_Val)...);

  0021c	8d 8d 84 e1 ff
	ff		 lea	 ecx, DWORD PTR _fRate$2[ebp]
  00222	51		 push	 ecx
  00223	50		 push	 eax
  00224	8d 4f 38	 lea	 ecx, DWORD PTR [edi+56]
  00227	e8 00 00 00 00	 call	 ??$_Emplace_reallocate@ABM@?$vector@MV?$allocator@M@std@@@std@@AAEPAMQAMABM@Z ; std::vector<float,std::allocator<float> >::_Emplace_reallocate<float const &>
$LN145@ReadIni:
; File C:\IAGOS\server\v18\Source\Source\DatabaseServer\tlord.cpp

; 237  : 				fRate	= s.GetFloat();

  0022c	6a 00		 push	 0
  0022e	8d 8d 88 e1 ff
	ff		 lea	 ecx, DWORD PTR _s$[ebp]
  00234	e8 00 00 00 00	 call	 ?GetFloat@CScanner@@QAEMH@Z ; CScanner::GetFloat
  00239	8b 85 c4 e1 ff
	ff		 mov	 eax, DWORD PTR _s$[ebp+60]
  0023f	d9 9d 84 e1 ff
	ff		 fstp	 DWORD PTR _fRate$2[ebp]
  00245	80 38 7d	 cmp	 BYTE PTR [eax], 125	; 0000007dH
  00248	75 b6		 jne	 SHORT $LL6@ReadIni

; 238  : 			}
; 239  : 		}

  0024a	e9 c7 00 00 00	 jmp	 $LN9@ReadIni
$LN158@ReadIni:
; File C:\Program Files\Microsoft Visual Studio\2022\Professional\VC\Tools\MSVC\14.44.35207\atlmfc\include\cstringt.h

; 184  : 		return _mbscmp( reinterpret_cast< const unsigned char* >( pszA ), reinterpret_cast< const unsigned char* >( pszB ) );

  0024f	68 00 00 00 00	 push	 OFFSET ??_C@_0BD@FJBKFPAD@fRequirementFactor@
  00254	ff b5 a8 e1 ff
	ff		 push	 DWORD PTR _s$[ebp+32]
  0025a	e8 00 00 00 00	 call	 __mbscmp
  0025f	83 c4 08	 add	 esp, 8

; 2490 : 		return(str1.Compare(psz2) == 0);

  00262	85 c0		 test	 eax, eax
; File C:\IAGOS\server\v18\Source\Source\DatabaseServer\tlord.cpp

; 240  : 		else if( s.Token == _T( "fRequirementFactor" ) )

  00264	75 14		 jne	 SHORT $LN174@ReadIni

; 241  : 		{
; 242  : 			property.fRequirementFactor	= s.GetFloat();

  00266	50		 push	 eax
  00267	8d 8d 88 e1 ff
	ff		 lea	 ecx, DWORD PTR _s$[ebp]
  0026d	e8 00 00 00 00	 call	 ?GetFloat@CScanner@@QAEMH@Z ; CScanner::GetFloat
  00272	d9 5f 5c	 fstp	 DWORD PTR [edi+92]

; 243  : 		}

  00275	e9 9c 00 00 00	 jmp	 $LN9@ReadIni
$LN174@ReadIni:
; File C:\Program Files\Microsoft Visual Studio\2022\Professional\VC\Tools\MSVC\14.44.35207\atlmfc\include\cstringt.h

; 184  : 		return _mbscmp( reinterpret_cast< const unsigned char* >( pszA ), reinterpret_cast< const unsigned char* >( pszB ) );

  0027a	68 00 00 00 00	 push	 OFFSET ??_C@_04NHONDGDE@item@
  0027f	ff b5 a8 e1 ff
	ff		 push	 DWORD PTR _s$[ebp+32]
  00285	e8 00 00 00 00	 call	 __mbscmp
  0028a	83 c4 08	 add	 esp, 8

; 2490 : 		return(str1.Compare(psz2) == 0);

  0028d	85 c0		 test	 eax, eax
; File C:\IAGOS\server\v18\Source\Source\DatabaseServer\tlord.cpp

; 244  : 		else if( s.Token == _T( "item" ) )

  0028f	0f 85 81 00 00
	00		 jne	 $LN9@ReadIni

; 245  : 		{
; 246  : 			int iIndex	= s.GetNumber();

  00295	50		 push	 eax
  00296	8d 8d 88 e1 ff
	ff		 lea	 ecx, DWORD PTR _s$[ebp]
  0029c	e8 00 00 00 00	 call	 ?GetNumber@CScanner@@QAEHH@Z ; CScanner::GetNumber

; 247  : 			s.GetToken();	// {

  002a1	6a 00		 push	 0
  002a3	8d 8d 88 e1 ff
	ff		 lea	 ecx, DWORD PTR _s$[ebp]
  002a9	8b f0		 mov	 esi, eax
  002ab	e8 00 00 00 00	 call	 ?GetToken@CScript@@UAEHH@Z ; CScript::GetToken

; 248  : 			int nItem		= s.GetNumber();

  002b0	6a 00		 push	 0
  002b2	8d 8d 88 e1 ff
	ff		 lea	 ecx, DWORD PTR _s$[ebp]
  002b8	e8 00 00 00 00	 call	 ?GetNumber@CScanner@@QAEHH@Z ; CScanner::GetNumber
  002bd	8b c8		 mov	 ecx, eax

; 249  : 			while( *s.token != '}' )

  002bf	8b 85 c4 e1 ff
	ff		 mov	 eax, DWORD PTR _s$[ebp+60]
  002c5	89 8d 84 e1 ff
	ff		 mov	 DWORD PTR _nItem$3[ebp], ecx
  002cb	80 38 7d	 cmp	 BYTE PTR [eax], 125	; 0000007dH
  002ce	74 46		 je	 SHORT $LN9@ReadIni
  002d0	8d 04 76	 lea	 eax, DWORD PTR [esi+esi*2]
  002d3	8d 34 87	 lea	 esi, DWORD PTR [edi+eax*4]
$LL8@ReadIni:
; File C:\Program Files\Microsoft Visual Studio\2022\Professional\VC\Tools\MSVC\14.44.35207\include\vector

; 844  :         if (_Mylast != _My_data._Myend) {

  002d6	8b 46 48	 mov	 eax, DWORD PTR [esi+72]
  002d9	3b 46 4c	 cmp	 eax, DWORD PTR [esi+76]
  002dc	74 08		 je	 SHORT $LN188@ReadIni

; 860  :             _STD _Construct_in_place(*_Mylast, _STD forward<_Valty>(_Val)...);

  002de	89 08		 mov	 DWORD PTR [eax], ecx

; 869  :         ++_Mylast;

  002e0	83 46 48 04	 add	 DWORD PTR [esi+72], 4

; 845  :             return _Emplace_back_with_unused_capacity(_STD forward<_Valty>(_Val)...);

  002e4	eb 10		 jmp	 SHORT $LN187@ReadIni
$LN188@ReadIni:

; 846  :         }
; 847  : 
; 848  :         return *_Emplace_reallocate(_Mylast, _STD forward<_Valty>(_Val)...);

  002e6	8d 8d 84 e1 ff
	ff		 lea	 ecx, DWORD PTR _nItem$3[ebp]
  002ec	51		 push	 ecx
  002ed	50		 push	 eax
  002ee	8d 4e 44	 lea	 ecx, DWORD PTR [esi+68]
  002f1	e8 00 00 00 00	 call	 ??$_Emplace_reallocate@ABH@?$vector@HV?$allocator@H@std@@@std@@AAEPAHQAHABH@Z ; std::vector<int,std::allocator<int> >::_Emplace_reallocate<int const &>
$LN187@ReadIni:
; File C:\IAGOS\server\v18\Source\Source\DatabaseServer\tlord.cpp

; 252  : 				nItem	= s.GetNumber();

  002f6	6a 00		 push	 0
  002f8	8d 8d 88 e1 ff
	ff		 lea	 ecx, DWORD PTR _s$[ebp]
  002fe	e8 00 00 00 00	 call	 ?GetNumber@CScanner@@QAEHH@Z ; CScanner::GetNumber
  00303	8b c8		 mov	 ecx, eax
  00305	8b 85 c4 e1 ff
	ff		 mov	 eax, DWORD PTR _s$[ebp+60]
  0030b	89 8d 84 e1 ff
	ff		 mov	 DWORD PTR _nItem$3[ebp], ecx
  00311	80 38 7d	 cmp	 BYTE PTR [eax], 125	; 0000007dH
  00314	75 c0		 jne	 SHORT $LL8@ReadIni
$LN9@ReadIni:

; 253  : 			}
; 254  : 		}
; 255  : 		s.GetToken();

  00316	6a 00		 push	 0
  00318	8d 8d 88 e1 ff
	ff		 lea	 ecx, DWORD PTR _s$[ebp]
  0031e	e8 00 00 00 00	 call	 ?GetToken@CScript@@UAEHH@Z ; CScript::GetToken
  00323	83 bd cc e9 ff
	ff 15		 cmp	 DWORD PTR _s$[ebp+2116], 21 ; 00000015H
  0032a	0f 85 50 fd ff
	ff		 jne	 $LL2@ReadIni
$LN209@ReadIni:

; 256  : 	}
; 257  : 	return TRUE;

  00330	be 01 00 00 00	 mov	 esi, 1
$LN29@ReadIni:
  00335	8d 8d 88 e1 ff
	ff		 lea	 ecx, DWORD PTR _s$[ebp]
  0033b	e8 00 00 00 00	 call	 ??1CScript@@UAE@XZ	; CScript::~CScript
  00340	8b c6		 mov	 eax, esi

; 258  : }

  00342	8b 4d f4	 mov	 ecx, DWORD PTR __$EHRec$[ebp]
  00345	64 89 0d 00 00
	00 00		 mov	 DWORD PTR fs:0, ecx
  0034c	59		 pop	 ecx
  0034d	5f		 pop	 edi
  0034e	5e		 pop	 esi
  0034f	8b 4d f0	 mov	 ecx, DWORD PTR __$ArrayPad$[ebp]
  00352	33 cd		 xor	 ecx, ebp
  00354	e8 00 00 00 00	 call	 @__security_check_cookie@4
  00359	8b e5		 mov	 esp, ebp
  0035b	5d		 pop	 ebp
  0035c	c2 04 00	 ret	 4
_TEXT	ENDS
;	COMDAT text$x
text$x	SEGMENT
__unwindfunclet$?ReadIni@CTElection@@AAEHPBD@Z$0:
  00000	8d 8d 88 e1 ff
	ff		 lea	 ecx, DWORD PTR _s$[ebp]
  00006	e9 00 00 00 00	 jmp	 ??1CScript@@UAE@XZ	; CScript::~CScript
  0000b	cc		 int	 3
  0000c	cc		 int	 3
  0000d	cc		 int	 3
  0000e	cc		 int	 3
  0000f	cc		 int	 3
__ehhandler$?ReadIni@CTElection@@AAEHPBD@Z:
  00010	90		 npad	 1
  00011	90		 npad	 1
  00012	8b 54 24 08	 mov	 edx, DWORD PTR [esp+8]
  00016	8d 42 0c	 lea	 eax, DWORD PTR [edx+12]
  00019	8b 8a 84 e1 ff
	ff		 mov	 ecx, DWORD PTR [edx-7804]
  0001f	33 c8		 xor	 ecx, eax
  00021	e8 00 00 00 00	 call	 @__security_check_cookie@4
  00026	8b 4a fc	 mov	 ecx, DWORD PTR [edx-4]
  00029	33 c8		 xor	 ecx, eax
  0002b	e8 00 00 00 00	 call	 @__security_check_cookie@4
  00030	b8 00 00 00 00	 mov	 eax, OFFSET __ehfuncinfo$?ReadIni@CTElection@@AAEHPBD@Z
  00035	e9 00 00 00 00	 jmp	 ___CxxFrameHandler3
text$x	ENDS
?ReadIni@CTElection@@AAEHPBD@Z ENDP			; CTElection::ReadIni
; Function compile flags: /Ogtp
; File C:\IAGOS\server\v18\Source\Source\DatabaseServer\tlord.cpp
;	COMDAT ?DoTestIncVote@CTElection@@MAEHKK@Z
_TEXT	SEGMENT
_idPlayer$ = 8						; size = 4
_idElector$ = 12					; size = 4
?DoTestIncVote@CTElection@@MAEHKK@Z PROC		; CTElection::DoTestIncVote, COMDAT
; _this$ = ecx

; 483  : {	// ĹőÇĄ ŔúŔĺ ą× °á°ú ŔüĽŰ

  00000	55		 push	 ebp
  00001	8b ec		 mov	 ebp, esp
  00003	53		 push	 ebx

; 484  : 	// IElection::IncVote
; 485  : 	election::OutputDebugString( "CTElection.DoTestIncVote: %07d, %07d", idPlayer, idElector );

  00004	8b 5d 0c	 mov	 ebx, DWORD PTR _idElector$[ebp]
  00007	56		 push	 esi
  00008	57		 push	 edi
  00009	8b 7d 08	 mov	 edi, DWORD PTR _idPlayer$[ebp]
  0000c	8b f1		 mov	 esi, ecx
  0000e	53		 push	 ebx
  0000f	57		 push	 edi
  00010	68 00 00 00 00	 push	 OFFSET ??_C@_0CF@GEOBODGJ@CTElection?4DoTestIncVote?3?5?$CF07d?0@
  00015	e8 00 00 00 00	 call	 ?OutputDebugStringA@election@@YAXPBDZZ ; election::OutputDebugStringA

; 486  : 	CLController* pController	= m_pLord->GetController();

  0001a	8b 4e 04	 mov	 ecx, DWORD PTR [esi+4]
  0001d	83 c4 0c	 add	 esp, 12			; 0000000cH
  00020	8b 01		 mov	 eax, DWORD PTR [ecx]
  00022	ff 50 08	 call	 DWORD PTR [eax+8]

; 487  : 	BOOL bRet	= pController->IncVote( idPlayer, idElector );

  00025	53		 push	 ebx
  00026	57		 push	 edi
  00027	8b c8		 mov	 ecx, eax
  00029	e8 00 00 00 00	 call	 ?IncVote@CLController@@QAEHKK@Z ; CLController::IncVote
  0002e	8b f0		 mov	 esi, eax

; 488  : 	CDPTrans::GetInstance()->SendElectionIncVote( idPlayer, idElector, bRet );

  00030	56		 push	 esi
  00031	53		 push	 ebx
  00032	57		 push	 edi
  00033	e8 00 00 00 00	 call	 ?GetInstance@CDPTrans@@SAPAV1@XZ ; CDPTrans::GetInstance
  00038	8b c8		 mov	 ecx, eax
  0003a	e8 00 00 00 00	 call	 ?SendElectionIncVote@CDPTrans@@QAEXKKH@Z ; CDPTrans::SendElectionIncVote

; 489  : 	return bRet;

  0003f	5f		 pop	 edi
  00040	8b c6		 mov	 eax, esi
  00042	5e		 pop	 esi
  00043	5b		 pop	 ebx

; 490  : }

  00044	5d		 pop	 ebp
  00045	c2 08 00	 ret	 8
?DoTestIncVote@CTElection@@MAEHKK@Z ENDP		; CTElection::DoTestIncVote
_TEXT	ENDS
; Function compile flags: /Ogtp
; File C:\IAGOS\server\v18\Source\Source\DatabaseServer\tlord.cpp
;	COMDAT ?DoTestSetPledge@CTElection@@MAEHKPBD@Z
_TEXT	SEGMENT
_idPlayer$ = 8						; size = 4
_szPledge$ = 12						; size = 4
?DoTestSetPledge@CTElection@@MAEHKPBD@Z PROC		; CTElection::DoTestSetPledge, COMDAT
; _this$ = ecx

; 469  : {	// °řľŕ ĽłÁ¤ ŔúŔĺ ą× °á°ú ŔüĽŰ

  00000	55		 push	 ebp
  00001	8b ec		 mov	 ebp, esp
  00003	53		 push	 ebx

; 470  : 	// IElection::SetPledge
; 471  : 	BOOL bRet	= FALSE;
; 472  : 	election::OutputDebugString( "CTElection.DoTestSetPledge: %07d, %s", idPlayer, szPledge );

  00004	8b 5d 08	 mov	 ebx, DWORD PTR _idPlayer$[ebp]
  00007	56		 push	 esi
  00008	57		 push	 edi
  00009	8b 7d 0c	 mov	 edi, DWORD PTR _szPledge$[ebp]
  0000c	8b f1		 mov	 esi, ecx
  0000e	57		 push	 edi
  0000f	53		 push	 ebx
  00010	68 00 00 00 00	 push	 OFFSET ??_C@_0CF@EBIGHEOA@CTElection?4DoTestSetPledge?3?5?$CF07@
  00015	e8 00 00 00 00	 call	 ?OutputDebugStringA@election@@YAXPBDZZ ; election::OutputDebugStringA
  0001a	83 c4 0c	 add	 esp, 12			; 0000000cH

; 473  : 	if( GetState() == eVote )

  0001d	83 7e 10 02	 cmp	 DWORD PTR [esi+16], 2
  00021	75 2b		 jne	 SHORT $LN4@DoTestSetP

; 474  : 	{
; 475  : 		CLController* pController	= m_pLord->GetController();

  00023	8b 4e 04	 mov	 ecx, DWORD PTR [esi+4]
  00026	8b 01		 mov	 eax, DWORD PTR [ecx]
  00028	ff 50 08	 call	 DWORD PTR [eax+8]

; 476  : 		bRet	= pController->SetPledge( idPlayer, szPledge );

  0002b	57		 push	 edi
  0002c	53		 push	 ebx
  0002d	8b c8		 mov	 ecx, eax
  0002f	e8 00 00 00 00	 call	 ?SetPledge@CLController@@QAEHKPBD@Z ; CLController::SetPledge
  00034	8b f0		 mov	 esi, eax

; 477  : 		CDPTrans::GetInstance()->SendElectionSetPledge( idPlayer, szPledge, bRet );

  00036	56		 push	 esi
  00037	57		 push	 edi
  00038	53		 push	 ebx
  00039	e8 00 00 00 00	 call	 ?GetInstance@CDPTrans@@SAPAV1@XZ ; CDPTrans::GetInstance
  0003e	8b c8		 mov	 ecx, eax
  00040	e8 00 00 00 00	 call	 ?SendElectionSetPledge@CDPTrans@@QAEXKPBDH@Z ; CDPTrans::SendElectionSetPledge
  00045	5f		 pop	 edi

; 478  : 	}
; 479  : 	return bRet;

  00046	8b c6		 mov	 eax, esi

; 480  : }

  00048	5e		 pop	 esi
  00049	5b		 pop	 ebx
  0004a	5d		 pop	 ebp
  0004b	c2 08 00	 ret	 8
$LN4@DoTestSetP:
  0004e	5f		 pop	 edi
  0004f	5e		 pop	 esi
  00050	33 c0		 xor	 eax, eax
  00052	5b		 pop	 ebx
  00053	5d		 pop	 ebp
  00054	c2 08 00	 ret	 8
?DoTestSetPledge@CTElection@@MAEHKPBD@Z ENDP		; CTElection::DoTestSetPledge
_TEXT	ENDS
; Function compile flags: /Ogtp
; File C:\IAGOS\server\v18\Source\Source\DatabaseServer\tlord.cpp
;	COMDAT ?DoAddDepositComplete@CTElection@@MAEXK_JJ@Z
_TEXT	SEGMENT
_idPlayer$ = 8						; size = 4
_iDeposit$ = 12						; size = 8
_tCreate$ = 20						; size = 4
?DoAddDepositComplete@CTElection@@MAEXK_JJ@Z PROC	; CTElection::DoAddDepositComplete, COMDAT
; _this$ = ecx

; 466  : }

  00000	c2 10 00	 ret	 16			; 00000010H
?DoAddDepositComplete@CTElection@@MAEXK_JJ@Z ENDP	; CTElection::DoAddDepositComplete
_TEXT	ENDS
; Function compile flags: /Ogtp
; File C:\IAGOS\server\v18\Source\Source\DatabaseServer\tlord.cpp
;	COMDAT ?DoTestAddDeposit@CTElection@@MAEHK_JJ@Z
_TEXT	SEGMENT
_idPlayer$ = 8						; size = 4
_iDeposit$ = 12						; size = 8
_tCreate$ = 20						; size = 4
?DoTestAddDeposit@CTElection@@MAEHK_JJ@Z PROC		; CTElection::DoTestAddDeposit, COMDAT
; _this$ = ecx

; 455  : {	// ±şÁÖ ŔÔÂű ŔúŔĺ ą× °á°ú ŔüĽŰ

  00000	55		 push	 ebp
  00001	8b ec		 mov	 ebp, esp
  00003	53		 push	 ebx

; 456  : 	// IElection::AddDeposit
; 457  : 	election::OutputDebugString( "CTElection.DoTestAddDeposit: %07d, %I64d, %d", idPlayer, iDeposit, tCreate );

  00004	8b 5d 10	 mov	 ebx, DWORD PTR _iDeposit$[ebp+4]
  00007	56		 push	 esi
  00008	57		 push	 edi
  00009	8b 7d 14	 mov	 edi, DWORD PTR _tCreate$[ebp]
  0000c	8b f1		 mov	 esi, ecx
  0000e	57		 push	 edi
  0000f	53		 push	 ebx
  00010	ff 75 0c	 push	 DWORD PTR _iDeposit$[ebp]
  00013	ff 75 08	 push	 DWORD PTR _idPlayer$[ebp]
  00016	68 00 00 00 00	 push	 OFFSET ??_C@_0CN@IFFHNJAO@CTElection?4DoTestAddDeposit?3?5?$CF0@
  0001b	e8 00 00 00 00	 call	 ?OutputDebugStringA@election@@YAXPBDZZ ; election::OutputDebugStringA

; 458  : 	CLController* pController	= m_pLord->GetController();

  00020	8b 4e 04	 mov	 ecx, DWORD PTR [esi+4]
  00023	83 c4 14	 add	 esp, 20			; 00000014H
  00026	8b 01		 mov	 eax, DWORD PTR [ecx]
  00028	ff 50 08	 call	 DWORD PTR [eax+8]

; 459  : 	BOOL bRet	= ( GetState() == eCandidacy ) && pController->AddDeposit( idPlayer, iDeposit, tCreate );

  0002b	83 7e 10 01	 cmp	 DWORD PTR [esi+16], 1
  0002f	75 1a		 jne	 SHORT $LN3@DoTestAddD
  00031	57		 push	 edi
  00032	53		 push	 ebx
  00033	ff 75 0c	 push	 DWORD PTR _iDeposit$[ebp]
  00036	8b c8		 mov	 ecx, eax
  00038	ff 75 08	 push	 DWORD PTR _idPlayer$[ebp]
  0003b	e8 00 00 00 00	 call	 ?AddDeposit@CLController@@QAEHK_JJ@Z ; CLController::AddDeposit
  00040	85 c0		 test	 eax, eax
  00042	74 07		 je	 SHORT $LN3@DoTestAddD
  00044	be 01 00 00 00	 mov	 esi, 1
  00049	eb 02		 jmp	 SHORT $LN4@DoTestAddD
$LN3@DoTestAddD:
  0004b	33 f6		 xor	 esi, esi
$LN4@DoTestAddD:

; 460  : 	CDPTrans::GetInstance()->SendElectionAddDeposit( idPlayer, iDeposit, tCreate, bRet );

  0004d	56		 push	 esi
  0004e	57		 push	 edi
  0004f	53		 push	 ebx
  00050	ff 75 0c	 push	 DWORD PTR _iDeposit$[ebp]
  00053	ff 75 08	 push	 DWORD PTR _idPlayer$[ebp]
  00056	e8 00 00 00 00	 call	 ?GetInstance@CDPTrans@@SAPAV1@XZ ; CDPTrans::GetInstance
  0005b	8b c8		 mov	 ecx, eax
  0005d	e8 00 00 00 00	 call	 ?SendElectionAddDeposit@CDPTrans@@QAEXK_JJH@Z ; CDPTrans::SendElectionAddDeposit

; 461  : 	return bRet;

  00062	5f		 pop	 edi
  00063	8b c6		 mov	 eax, esi
  00065	5e		 pop	 esi
  00066	5b		 pop	 ebx

; 462  : }

  00067	5d		 pop	 ebp
  00068	c2 10 00	 ret	 16			; 00000010H
?DoTestAddDeposit@CTElection@@MAEHK_JJ@Z ENDP		; CTElection::DoTestAddDeposit
_TEXT	ENDS
; Function compile flags: /Ogtp
; File C:\IAGOS\server\v18\Source\Source\DatabaseServer\tlord.cpp
;	COMDAT ?DoTestEndVote@CTElection@@MAEHK@Z
_TEXT	SEGMENT
_idPlayer$ = 8						; size = 4
?DoTestEndVote@CTElection@@MAEHK@Z PROC			; CTElection::DoTestEndVote, COMDAT
; _this$ = ecx

; 434  : {	// ĹőÇĄ Áľ·á »óĹÂ Ăł¸®ą× ŔüĽŰ

  00000	55		 push	 ebp
  00001	8b ec		 mov	 ebp, esp
  00003	56		 push	 esi
  00004	57		 push	 edi

; 435  : 	// IElection::EndVote
; 436  : 	election::OutputDebugString( "CTElection.DoTestEndVote" );

  00005	68 00 00 00 00	 push	 OFFSET ??_C@_0BJ@NBOADCDH@CTElection?4DoTestEndVote@
  0000a	8b f1		 mov	 esi, ecx
  0000c	e8 00 00 00 00	 call	 ?OutputDebugStringA@election@@YAXPBDZZ ; election::OutputDebugStringA

; 437  : 	CLController* pController	= m_pLord->GetController();

  00011	8b 4e 04	 mov	 ecx, DWORD PTR [esi+4]
  00014	83 c4 04	 add	 esp, 4
  00017	8b 01		 mov	 eax, DWORD PTR [ecx]
  00019	ff 50 08	 call	 DWORD PTR [eax+8]

; 438  : 	if( pController->EndVote( idPlayer ) )	// »óĹÂ ŔúŔĺ

  0001c	8b 7d 08	 mov	 edi, DWORD PTR _idPlayer$[ebp]
  0001f	8b c8		 mov	 ecx, eax
  00021	57		 push	 edi
  00022	e8 00 00 00 00	 call	 ?EndVote@CLController@@QAEHK@Z ; CLController::EndVote
  00027	85 c0		 test	 eax, eax
  00029	74 27		 je	 SHORT $LN2@DoTestEndV

; 439  : 	{
; 440  : 		CDPTrans::GetInstance()->SendElectionEndVote( idPlayer );		// ŔüĽŰ

  0002b	57		 push	 edi
  0002c	e8 00 00 00 00	 call	 ?GetInstance@CDPTrans@@SAPAV1@XZ ; CDPTrans::GetInstance
  00031	8b c8		 mov	 ecx, eax
  00033	e8 00 00 00 00	 call	 ?SendElectionEndVote@CDPTrans@@QAEXK@Z ; CDPTrans::SendElectionEndVote

; 441  : 		PostDepositToAllCandidate();	// ŔÔÂű±Ý ąÝČŻ

  00038	8b ce		 mov	 ecx, esi
  0003a	e8 00 00 00 00	 call	 ?PostDepositToAllCandidate@CTElection@@AAEXXZ ; CTElection::PostDepositToAllCandidate

; 442  : 		PostLordItems( idPlayer );		// ±şÁÖ ľĆŔĚĹŰ Áö±Ţ

  0003f	57		 push	 edi
  00040	8b ce		 mov	 ecx, esi
  00042	e8 00 00 00 00	 call	 ?PostLordItems@CTElection@@AAEXK@Z ; CTElection::PostLordItems
  00047	5f		 pop	 edi

; 443  : 		return TRUE;

  00048	b8 01 00 00 00	 mov	 eax, 1

; 446  : }

  0004d	5e		 pop	 esi
  0004e	5d		 pop	 ebp
  0004f	c2 04 00	 ret	 4
$LN2@DoTestEndV:
  00052	5f		 pop	 edi

; 444  : 	}
; 445  : 	return FALSE;

  00053	33 c0		 xor	 eax, eax

; 446  : }

  00055	5e		 pop	 esi
  00056	5d		 pop	 ebp
  00057	c2 04 00	 ret	 4
?DoTestEndVote@CTElection@@MAEHK@Z ENDP			; CTElection::DoTestEndVote
_TEXT	ENDS
; Function compile flags: /Ogtp
; File C:\IAGOS\server\v18\Source\Source\DatabaseServer\tlord.cpp
;	COMDAT ?DoTestBeginVote@CTElection@@MAEHAAH@Z
_TEXT	SEGMENT
_nRequirement$ = 8					; size = 4
?DoTestBeginVote@CTElection@@MAEHAAH@Z PROC		; CTElection::DoTestBeginVote, COMDAT
; _this$ = ecx

; 420  : {	// ĹőÇĄ ˝ĂŔŰ »óĹÂŔÇ ŔúŔĺ ą× ŔüĽŰ

  00000	55		 push	 ebp
  00001	8b ec		 mov	 ebp, esp
  00003	56		 push	 esi

; 421  : 	election::OutputDebugString( "CTElection.DoTestBeginVote" );

  00004	68 00 00 00 00	 push	 OFFSET ??_C@_0BL@LMGPGHGD@CTElection?4DoTestBeginVote@
  00009	8b f1		 mov	 esi, ecx
  0000b	e8 00 00 00 00	 call	 ?OutputDebugStringA@election@@YAXPBDZZ ; election::OutputDebugStringA

; 422  : 	CLController* pController	= m_pLord->GetController();

  00010	8b 4e 04	 mov	 ecx, DWORD PTR [esi+4]
  00013	83 c4 04	 add	 esp, 4
  00016	8b 01		 mov	 eax, DWORD PTR [ecx]
  00018	ff 50 08	 call	 DWORD PTR [eax+8]

; 423  : 	int nTotal	= pController->BeginVote();

  0001b	8b c8		 mov	 ecx, eax
  0001d	e8 00 00 00 00	 call	 ?BeginVote@CLController@@QAEHXZ ; CLController::BeginVote

; 424  : 	if( nTotal >= 0 )

  00022	85 c0		 test	 eax, eax
  00024	78 2c		 js	 SHORT $LN2@DoTestBegi

; 425  : 	{
; 426  : 		nRequirement	= static_cast<int>( nTotal * property.fRequirementFactor );

  00026	66 0f 6e c0	 movd	 xmm0, eax
  0002a	8b 45 08	 mov	 eax, DWORD PTR _nRequirement$[ebp]
  0002d	0f 5b c0	 cvtdq2ps xmm0, xmm0
  00030	f3 0f 59 46 5c	 mulss	 xmm0, DWORD PTR [esi+92]
  00035	f3 0f 2c c8	 cvttss2si ecx, xmm0

; 427  : 		CDPTrans::GetInstance()->SendElectionBeginVote( nRequirement );

  00039	51		 push	 ecx
  0003a	89 08		 mov	 DWORD PTR [eax], ecx
  0003c	e8 00 00 00 00	 call	 ?GetInstance@CDPTrans@@SAPAV1@XZ ; CDPTrans::GetInstance
  00041	8b c8		 mov	 ecx, eax
  00043	e8 00 00 00 00	 call	 ?SendElectionBeginVote@CDPTrans@@QAEXH@Z ; CDPTrans::SendElectionBeginVote

; 428  : 		return TRUE;

  00048	b8 01 00 00 00	 mov	 eax, 1
  0004d	5e		 pop	 esi

; 431  : }

  0004e	5d		 pop	 ebp
  0004f	c2 04 00	 ret	 4
$LN2@DoTestBegi:

; 429  : 	}
; 430  : 	return FALSE;

  00052	33 c0		 xor	 eax, eax
  00054	5e		 pop	 esi

; 431  : }

  00055	5d		 pop	 ebp
  00056	c2 04 00	 ret	 4
?DoTestBeginVote@CTElection@@MAEHAAH@Z ENDP		; CTElection::DoTestBeginVote
_TEXT	ENDS
; Function compile flags: /Ogtp
; File C:\IAGOS\server\v18\Source\Source\DatabaseServer\tlord.cpp
; File C:\Program Files\Microsoft Visual Studio\2022\Professional\VC\Tools\MSVC\14.44.35207\include\vector
; File C:\IAGOS\server\v18\Source\Source\DatabaseServer\tlord.h
; File C:\IAGOS\server\v18\Source\Source\DatabaseServer\tlord.cpp
; File C:\Program Files\Microsoft Visual Studio\2022\Professional\VC\Tools\MSVC\14.44.35207\include\algorithm
; File C:\IAGOS\server\v18\Source\Source\DatabaseServer\tlord.cpp
;	COMDAT ?DoReturnDeposit@CTElection@@MAEXXZ
_TEXT	SEGMENT
__Func$ = -4						; size = 4
?DoReturnDeposit@CTElection@@MAEXXZ PROC		; CTElection::DoReturnDeposit, COMDAT
; _this$ = ecx

; 411  : {	// ¸đµç ČÄş¸żˇ ´ëÇŃ żěĆíŔ» ĹëÇŃ ŔÔÂű±Ý ąÝČŻ

  00000	55		 push	 ebp
  00001	8b ec		 mov	 ebp, esp
  00003	51		 push	 ecx
  00004	56		 push	 esi
  00005	57		 push	 edi

; 412  : 	// IElection::BeginVote
; 413  : 	election::OutputDebugString( "CTElection.DoReturnDeposit" );

  00006	68 00 00 00 00	 push	 OFFSET ??_C@_0BL@GDEBELLG@CTElection?4DoReturnDeposit@
  0000b	8b f1		 mov	 esi, ecx
  0000d	e8 00 00 00 00	 call	 ?OutputDebugStringA@election@@YAXPBDZZ ; election::OutputDebugStringA

; 414  : 	CLController* pController	= m_pLord->GetController();

  00012	8b 4e 04	 mov	 ecx, DWORD PTR [esi+4]
  00015	83 c4 04	 add	 esp, 4
  00018	8b 01		 mov	 eax, DWORD PTR [ecx]
  0001a	ff 50 08	 call	 DWORD PTR [eax+8]
; File C:\Program Files\Microsoft Visual Studio\2022\Professional\VC\Tools\MSVC\14.44.35207\include\vector

; 46   :     _CONSTEXPR20 _Vector_const_iterator(_Tptr _Parg, const _Container_base* _Pvector) noexcept : _Ptr(_Parg) {

  0001d	8b 7e 18	 mov	 edi, DWORD PTR [esi+24]
  00020	8b 76 14	 mov	 esi, DWORD PTR [esi+20]
  00023	83 c6 50	 add	 esi, 80			; 00000050H
; File C:\IAGOS\server\v18\Source\Source\DatabaseServer\tlord.h

; 151  : 	PostDeposit( CQuery* pQuery )	{	m_pQuery	= pQuery;	}

  00026	8b 40 0c	 mov	 eax, DWORD PTR [eax+12]
; File C:\IAGOS\server\v18\Source\Source\DatabaseServer\tlord.cpp

; 416  : 	for_each( m_vCandidates.begin() + IElection::nMaxCandidates, m_vCandidates.end(), PostDeposit( pController->GetQueryObject() ) );

  00029	89 45 fc	 mov	 DWORD PTR __Func$[ebp], eax
; File C:\Program Files\Microsoft Visual Studio\2022\Professional\VC\Tools\MSVC\14.44.35207\include\algorithm

; 402  :     for (; _UFirst != _ULast; ++_UFirst) {

  0002c	3b f7		 cmp	 esi, edi
  0002e	74 10		 je	 SHORT $LN34@DoReturnDe
$LL35@DoReturnDe:

; 403  :         _Func(*_UFirst);

  00030	56		 push	 esi
  00031	8d 4d fc	 lea	 ecx, DWORD PTR __Func$[ebp]
  00034	e8 00 00 00 00	 call	 ??RPostDeposit@@QBEXABV?$shared_ptr@VCCandidate@@@std@@@Z ; PostDeposit::operator()
  00039	83 c6 08	 add	 esi, 8
  0003c	3b f7		 cmp	 esi, edi
  0003e	75 f0		 jne	 SHORT $LL35@DoReturnDe
$LN34@DoReturnDe:
  00040	5f		 pop	 edi
; File C:\IAGOS\server\v18\Source\Source\DatabaseServer\tlord.cpp

; 417  : }

  00041	5e		 pop	 esi
  00042	8b e5		 mov	 esp, ebp
  00044	5d		 pop	 ebp
  00045	c3		 ret	 0
?DoReturnDeposit@CTElection@@MAEXXZ ENDP		; CTElection::DoReturnDeposit
_TEXT	ENDS
; Function compile flags: /Ogtp
; File C:\IAGOS\server\v18\Source\Source\DatabaseServer\tlord.cpp
;	COMDAT ?DoTestBeginCandidacy@CTElection@@MAEHXZ
_TEXT	SEGMENT
?DoTestBeginCandidacy@CTElection@@MAEHXZ PROC		; CTElection::DoTestBeginCandidacy, COMDAT
; _this$ = ecx

; 342  : {	// ŔÔČÄş¸ °ł˝Ă »óĹÂŔÇ ŔúŔĺ ą× żůµĺ Ľ­ąö ŔüĽŰ

  00000	56		 push	 esi

; 343  : 	// IElection::BeginCandidacy
; 344  : 	election::OutputDebugString( "CTElection.DoTestBeginCandidacy" );

  00001	68 00 00 00 00	 push	 OFFSET ??_C@_0CA@EFGOLAFI@CTElection?4DoTestBeginCandidacy@
  00006	8b f1		 mov	 esi, ecx
  00008	e8 00 00 00 00	 call	 ?OutputDebugStringA@election@@YAXPBDZZ ; election::OutputDebugStringA

; 345  : 	CLController* pController	= m_pLord->GetController();

  0000d	8b 4e 04	 mov	 ecx, DWORD PTR [esi+4]
  00010	83 c4 04	 add	 esp, 4
  00013	8b 01		 mov	 eax, DWORD PTR [ecx]
  00015	ff 50 08	 call	 DWORD PTR [eax+8]

; 346  : 	BOOL bResult	= pController->BeginCandidacy();

  00018	8b c8		 mov	 ecx, eax
  0001a	e8 00 00 00 00	 call	 ?BeginCandidacy@CLController@@QAEHXZ ; CLController::BeginCandidacy
  0001f	8b f0		 mov	 esi, eax

; 347  : 	if( bResult )

  00021	85 f6		 test	 esi, esi
  00023	74 0e		 je	 SHORT $LN2@DoTestBegi

; 348  : 		CDPTrans::GetInstance()->SendElectionBeginCandidacy();

  00025	e8 00 00 00 00	 call	 ?GetInstance@CDPTrans@@SAPAV1@XZ ; CDPTrans::GetInstance
  0002a	8b c8		 mov	 ecx, eax
  0002c	e8 00 00 00 00	 call	 ?SendElectionBeginCandidacy@CDPTrans@@QAEXXZ ; CDPTrans::SendElectionBeginCandidacy

; 349  : 	return bResult;

  00031	8b c6		 mov	 eax, esi
$LN2@DoTestBegi:

; 350  : }

  00033	5e		 pop	 esi
  00034	c3		 ret	 0
?DoTestBeginCandidacy@CTElection@@MAEHXZ ENDP		; CTElection::DoTestBeginCandidacy
_TEXT	ENDS
; Function compile flags: /Ogtp
; File C:\IAGOS\server\v18\Source\Source\DatabaseServer\tlord.cpp
; File C:\Program Files\Microsoft Visual Studio\2022\Professional\VC\Tools\MSVC\14.44.35207\atlmfc\include\atltime.h
; File C:\IAGOS\server\v18\Source\Source\DatabaseServer\tlord.cpp
; File C:\Program Files\Microsoft Visual Studio\2022\Professional\VC\Tools\MSVC\14.44.35207\atlmfc\include\atltime.h
; File C:\IAGOS\server\v18\Source\Source\DatabaseServer\tlord.cpp
;	COMDAT ?stot@CTElection@@SAJPBD@Z
_TEXT	SEGMENT
_nYear$1$ = -80						; size = 4
_nDay$1$ = -76						; size = 4
_nMonth$1$ = -72					; size = 4
_szMonth$ = -68						; size = 3
_szDay$ = -64						; size = 3
_szHour$ = -60						; size = 3
_szMin$ = -56						; size = 3
_szSec$ = -52						; size = 3
_atm$1 = -48						; size = 36
_szYear$ = -12						; size = 5
__$ArrayPad$ = -4					; size = 4
_sz$ = 8						; size = 4
?stot@CTElection@@SAJPBD@Z PROC				; CTElection::stot, COMDAT

; 267  : {

  00000	55		 push	 ebp
  00001	8b ec		 mov	 ebp, esp
  00003	83 ec 50	 sub	 esp, 80			; 00000050H
  00006	a1 00 00 00 00	 mov	 eax, DWORD PTR ___security_cookie
  0000b	33 c5		 xor	 eax, ebp
  0000d	89 45 fc	 mov	 DWORD PTR __$ArrayPad$[ebp], eax
  00010	53		 push	 ebx
  00011	56		 push	 esi
  00012	8b 75 08	 mov	 esi, DWORD PTR _sz$[ebp]

; 268  : 	if( strlen( sz ) != 14 )

  00015	8b c6		 mov	 eax, esi
  00017	57		 push	 edi
  00018	8d 50 01	 lea	 edx, DWORD PTR [eax+1]
  0001b	0f 1f 44 00 00	 npad	 5
$LL69@stot:
  00020	8a 08		 mov	 cl, BYTE PTR [eax]
  00022	40		 inc	 eax
  00023	84 c9		 test	 cl, cl
  00025	75 f9		 jne	 SHORT $LL69@stot
  00027	2b c2		 sub	 eax, edx
  00029	83 f8 0e	 cmp	 eax, 14			; 0000000eH
  0002c	74 0e		 je	 SHORT $LN2@stot

; 269  : 		Error( "CTElection.stot: %s", sz );

  0002e	56		 push	 esi
  0002f	68 00 00 00 00	 push	 OFFSET ??_C@_0BE@HLJDCBPH@CTElection?4stot?3?5?$CFs@
  00034	e8 00 00 00 00	 call	 ?Error@@YAPBDPBDZZ	; Error
  00039	83 c4 08	 add	 esp, 8
$LN2@stot:

; 270  : 	char szYear[5]	= { 0,};
; 271  : 	char szMonth[3]	= { 0,};

  0003c	33 c0		 xor	 eax, eax
  0003e	c7 45 f4 00 00
	00 00		 mov	 DWORD PTR _szYear$[ebp], 0

; 272  : 	char szDay[3]	= { 0,};
; 273  : 	char szHour[3]	= { 0,};
; 274  : 	char szMin[3]	= { 0,};
; 275  : 	char szSec[3]	= { 0, };
; 276  : 	strncpy( szYear, sz, 4 );

  00045	6a 04		 push	 4
  00047	66 89 45 bc	 mov	 WORD PTR _szMonth$[ebp], ax
  0004b	88 45 be	 mov	 BYTE PTR _szMonth$[ebp+2], al
  0004e	66 89 45 c0	 mov	 WORD PTR _szDay$[ebp], ax
  00052	88 45 c2	 mov	 BYTE PTR _szDay$[ebp+2], al
  00055	66 89 45 c4	 mov	 WORD PTR _szHour$[ebp], ax
  00059	88 45 c6	 mov	 BYTE PTR _szHour$[ebp+2], al
  0005c	66 89 45 c8	 mov	 WORD PTR _szMin$[ebp], ax
  00060	88 45 ca	 mov	 BYTE PTR _szMin$[ebp+2], al
  00063	66 89 45 cc	 mov	 WORD PTR _szSec$[ebp], ax
  00067	88 45 ce	 mov	 BYTE PTR _szSec$[ebp+2], al
  0006a	8d 45 f4	 lea	 eax, DWORD PTR _szYear$[ebp]
  0006d	56		 push	 esi
  0006e	50		 push	 eax
  0006f	c6 45 f8 00	 mov	 BYTE PTR _szYear$[ebp+4], 0
  00073	e8 00 00 00 00	 call	 _strncpy

; 277  : 	strncpy( szMonth, sz+4, 2 );

  00078	6a 02		 push	 2
  0007a	8d 46 04	 lea	 eax, DWORD PTR [esi+4]
  0007d	50		 push	 eax
  0007e	8d 45 bc	 lea	 eax, DWORD PTR _szMonth$[ebp]
  00081	50		 push	 eax
  00082	e8 00 00 00 00	 call	 _strncpy

; 278  : 	strncpy( szDay, sz+6, 2 );

  00087	6a 02		 push	 2
  00089	8d 46 06	 lea	 eax, DWORD PTR [esi+6]
  0008c	50		 push	 eax
  0008d	8d 45 c0	 lea	 eax, DWORD PTR _szDay$[ebp]
  00090	50		 push	 eax
  00091	e8 00 00 00 00	 call	 _strncpy

; 279  : 	strncpy( szHour, sz+8, 2 );

  00096	6a 02		 push	 2
  00098	8d 46 08	 lea	 eax, DWORD PTR [esi+8]
  0009b	50		 push	 eax
  0009c	8d 45 c4	 lea	 eax, DWORD PTR _szHour$[ebp]
  0009f	50		 push	 eax
  000a0	e8 00 00 00 00	 call	 _strncpy

; 280  : 	strncpy( szMin, sz+10, 2 );

  000a5	6a 02		 push	 2
  000a7	8d 46 0a	 lea	 eax, DWORD PTR [esi+10]
  000aa	50		 push	 eax
  000ab	8d 45 c8	 lea	 eax, DWORD PTR _szMin$[ebp]
  000ae	50		 push	 eax
  000af	e8 00 00 00 00	 call	 _strncpy

; 281  : 	strncpy( szSec, sz+12, 2 );

  000b4	6a 02		 push	 2
  000b6	8d 46 0c	 lea	 eax, DWORD PTR [esi+12]
  000b9	50		 push	 eax
  000ba	8d 45 cc	 lea	 eax, DWORD PTR _szSec$[ebp]
  000bd	50		 push	 eax
  000be	e8 00 00 00 00	 call	 _strncpy
  000c3	83 c4 48	 add	 esp, 72			; 00000048H

; 282  : 	CTime tm( atoi( szYear ), atoi( szMonth ), atoi( szDay ), atoi( szHour ), atoi( szMin ), atoi( szSec ) );

  000c6	8d 45 cc	 lea	 eax, DWORD PTR _szSec$[ebp]
  000c9	50		 push	 eax
  000ca	e8 00 00 00 00	 call	 _atoi
  000cf	8b f0		 mov	 esi, eax
  000d1	8d 45 c8	 lea	 eax, DWORD PTR _szMin$[ebp]
  000d4	50		 push	 eax
  000d5	e8 00 00 00 00	 call	 _atoi
  000da	8b f8		 mov	 edi, eax
  000dc	8d 45 c4	 lea	 eax, DWORD PTR _szHour$[ebp]
  000df	50		 push	 eax
  000e0	e8 00 00 00 00	 call	 _atoi
  000e5	8b d8		 mov	 ebx, eax
  000e7	8d 45 c0	 lea	 eax, DWORD PTR _szDay$[ebp]
  000ea	50		 push	 eax
  000eb	e8 00 00 00 00	 call	 _atoi
  000f0	89 45 b4	 mov	 DWORD PTR _nDay$1$[ebp], eax
  000f3	8d 45 bc	 lea	 eax, DWORD PTR _szMonth$[ebp]
  000f6	50		 push	 eax
  000f7	e8 00 00 00 00	 call	 _atoi
  000fc	89 45 b8	 mov	 DWORD PTR _nMonth$1$[ebp], eax
  000ff	8d 45 f4	 lea	 eax, DWORD PTR _szYear$[ebp]
  00102	50		 push	 eax
  00103	e8 00 00 00 00	 call	 _atoi
  00108	83 c4 18	 add	 esp, 24			; 00000018H
  0010b	89 45 b0	 mov	 DWORD PTR _nYear$1$[ebp], eax
; File C:\Program Files\Microsoft Visual Studio\2022\Professional\VC\Tools\MSVC\14.44.35207\atlmfc\include\atltime.h

; 436  : 	ATLENSURE( nYear >= 1970 );

  0010e	3d b2 07 00 00	 cmp	 eax, 1970		; 000007b2H
  00113	7c 74		 jl	 SHORT $LN63@stot

; 437  : 	ATLENSURE( nMonth >= 1 && nMonth <= 12 );

  00115	8b 4d b8	 mov	 ecx, DWORD PTR _nMonth$1$[ebp]
  00118	49		 dec	 ecx
  00119	83 f9 0b	 cmp	 ecx, 11			; 0000000bH
  0011c	77 6b		 ja	 SHORT $LN63@stot

; 438  : 	ATLENSURE( nDay >= 1 && nDay <= 31 );

  0011e	8b 55 b4	 mov	 edx, DWORD PTR _nDay$1$[ebp]
  00121	8d 42 ff	 lea	 eax, DWORD PTR [edx-1]
  00124	83 f8 1e	 cmp	 eax, 30			; 0000001eH
  00127	77 60		 ja	 SHORT $LN63@stot

; 439  : 	ATLENSURE( nHour >= 0 && nHour <= 23 );

  00129	83 fb 17	 cmp	 ebx, 23			; 00000017H
  0012c	77 5b		 ja	 SHORT $LN63@stot

; 440  : 	ATLENSURE( nMin >= 0 && nMin <= 59 );

  0012e	83 ff 3b	 cmp	 edi, 59			; 0000003bH
  00131	77 56		 ja	 SHORT $LN63@stot

; 441  : 	ATLENSURE( nSec >= 0 && nSec <= 59 );

  00133	83 fe 3b	 cmp	 esi, 59			; 0000003bH
  00136	77 51		 ja	 SHORT $LN63@stot

; 442  : 
; 443  : #pragma warning (pop)
; 444  : 
; 445  : 	struct tm atm;
; 446  : 
; 447  : 	atm.tm_sec = nSec;
; 448  : 	atm.tm_min = nMin;
; 449  : 	atm.tm_hour = nHour;
; 450  : 	atm.tm_mday = nDay;
; 451  : 	atm.tm_mon = nMonth - 1;        // tm_mon is 0 based
; 452  : 	atm.tm_year = nYear - 1900;     // tm_year is 1900 based

  00138	8b 45 b0	 mov	 eax, DWORD PTR _nYear$1$[ebp]
  0013b	05 94 f8 ff ff	 add	 eax, -1900		; fffff894H
  00140	89 75 d0	 mov	 DWORD PTR _atm$1[ebp], esi
  00143	89 45 e4	 mov	 DWORD PTR _atm$1[ebp+20], eax

; 453  : 	atm.tm_isdst = nDST;
; 454  : 
; 455  : 	m_time = _mktime64(&atm);

  00146	8d 45 d0	 lea	 eax, DWORD PTR _atm$1[ebp]
  00149	50		 push	 eax
  0014a	89 7d d4	 mov	 DWORD PTR _atm$1[ebp+4], edi
  0014d	89 5d d8	 mov	 DWORD PTR _atm$1[ebp+8], ebx
  00150	89 55 dc	 mov	 DWORD PTR _atm$1[ebp+12], edx
  00153	89 4d e0	 mov	 DWORD PTR _atm$1[ebp+16], ecx
  00156	c7 45 f0 ff ff
	ff ff		 mov	 DWORD PTR _atm$1[ebp+32], -1
  0015d	e8 00 00 00 00	 call	 __mktime64
  00162	83 c4 04	 add	 esp, 4
  00165	8b c8		 mov	 ecx, eax
  00167	23 ca		 and	 ecx, edx
  00169	5f		 pop	 edi
  0016a	5e		 pop	 esi
  0016b	5b		 pop	 ebx
  0016c	83 f9 ff	 cmp	 ecx, -1

; 456  : 	ATLASSUME(m_time != -1);       // indicates an illegal input time
; 457  : 	if(m_time == -1)

  0016f	74 0e		 je	 SHORT $LN81@stot
; File C:\IAGOS\server\v18\Source\Source\DatabaseServer\tlord.cpp

; 284  : }

  00171	8b 4d fc	 mov	 ecx, DWORD PTR __$ArrayPad$[ebp]
  00174	33 cd		 xor	 ecx, ebp
  00176	e8 00 00 00 00	 call	 @__security_check_cookie@4
  0017b	8b e5		 mov	 esp, ebp
  0017d	5d		 pop	 ebp
  0017e	c3		 ret	 0
$LN81@stot:
; File C:\Program Files\Microsoft Visual Studio\2022\Professional\VC\Tools\MSVC\14.44.35207\atlmfc\include\atltime.h

; 459  : 		AtlThrow(E_INVALIDARG);

  0017f	68 57 00 07 80	 push	 -2147024809		; 80070057H
  00184	e8 00 00 00 00	 call	 ?AtlThrowImpl@ATL@@YGXJ@Z ; ATL::AtlThrowImpl
$LN63@stot:

; 441  : 	ATLENSURE( nSec >= 0 && nSec <= 59 );

  00189	68 05 40 00 80	 push	 -2147467259		; 80004005H
  0018e	e8 00 00 00 00	 call	 ?AtlThrowImpl@ATL@@YGXJ@Z ; ATL::AtlThrowImpl
$LN79@stot:
  00193	cc		 int	 3
?stot@CTElection@@SAJPBD@Z ENDP				; CTElection::stot
_TEXT	ENDS
; Function compile flags: /Ogtp
; File C:\IAGOS\server\v18\Source\Source\DatabaseServer\tlord.cpp
; File C:\Program Files\Microsoft Visual Studio\2022\Professional\VC\Tools\MSVC\14.44.35207\atlmfc\include\atltime.h
; File C:\Program Files\Microsoft Visual Studio\2022\Professional\VC\Tools\MSVC\14.44.35207\atlmfc\include\afxstr.h
; File C:\Program Files\Microsoft Visual Studio\2022\Professional\VC\Tools\MSVC\14.44.35207\atlmfc\include\atlsimpstr.h
; File C:\Program Files\Microsoft Visual Studio\2022\Professional\VC\Tools\MSVC\14.44.35207\atlmfc\include\cstringt.h
; File C:\Program Files\Microsoft Visual Studio\2022\Professional\VC\Tools\MSVC\14.44.35207\atlmfc\include\atlsimpstr.h
; File C:\IAGOS\server\v18\Source\Source\DatabaseServer\tlord.cpp
; File C:\Program Files\Microsoft Visual Studio\2022\Professional\VC\Tools\MSVC\14.44.35207\atlmfc\include\atltime.h
; File C:\Program Files\Microsoft Visual Studio\2022\Professional\VC\Tools\MSVC\14.44.35207\atlmfc\include\atlsimpstr.h
; File C:\IAGOS\server\v18\Source\Source\DatabaseServer\tlord.cpp
;	COMDAT ?ttos@CTElection@@SA?AV?$CStringT@DV?$StrTraitMFC@DV?$ChTraitsCRT@D@ATL@@@@@ATL@@J@Z
_TEXT	SEGMENT
___$ReturnUdt$GSCopy$ = -192				; size = 4
_tm$ = -188						; size = 8
_ptmTemp$2 = -180					; size = 36
_szBuffer$3 = -144					; size = 128
__$ArrayPad$ = -16					; size = 4
__$EHRec$ = -12						; size = 12
___$ReturnUdt$ = 8					; size = 4
_t$ = 12						; size = 4
?ttos@CTElection@@SA?AV?$CStringT@DV?$StrTraitMFC@DV?$ChTraitsCRT@D@ATL@@@@@ATL@@J@Z PROC ; CTElection::ttos, COMDAT

; 261  : {

  00000	55		 push	 ebp
  00001	8b ec		 mov	 ebp, esp
  00003	6a ff		 push	 -1
  00005	68 00 00 00 00	 push	 __ehhandler$?ttos@CTElection@@SA?AV?$CStringT@DV?$StrTraitMFC@DV?$ChTraitsCRT@D@ATL@@@@@ATL@@J@Z
  0000a	64 a1 00 00 00
	00		 mov	 eax, DWORD PTR fs:0
  00010	50		 push	 eax
  00011	81 ec b8 00 00
	00		 sub	 esp, 184		; 000000b8H
  00017	a1 00 00 00 00	 mov	 eax, DWORD PTR ___security_cookie
  0001c	33 c5		 xor	 eax, ebp
  0001e	89 45 f0	 mov	 DWORD PTR __$ArrayPad$[ebp], eax
  00021	56		 push	 esi
  00022	50		 push	 eax
  00023	8d 45 f4	 lea	 eax, DWORD PTR __$EHRec$[ebp]
  00026	64 a3 00 00 00
	00		 mov	 DWORD PTR fs:0, eax

; 262  : 	CTime tm( t );

  0002c	8b 45 0c	 mov	 eax, DWORD PTR _t$[ebp]
  0002f	8b 75 08	 mov	 esi, DWORD PTR ___$ReturnUdt$[ebp]
  00032	99		 cdq
  00033	89 b5 40 ff ff
	ff		 mov	 DWORD PTR ___$ReturnUdt$GSCopy$[ebp], esi
; File C:\Program Files\Microsoft Visual Studio\2022\Professional\VC\Tools\MSVC\14.44.35207\atlmfc\include\atltime.h

; 420  : 	m_time( time )

  00039	89 85 44 ff ff
	ff		 mov	 DWORD PTR _tm$[ebp], eax

; 1069 : 	if (_localtime64_s(&ptmTemp, &m_time) != 0)

  0003f	8d 85 44 ff ff
	ff		 lea	 eax, DWORD PTR _tm$[ebp]
  00045	50		 push	 eax
  00046	8d 85 4c ff ff
	ff		 lea	 eax, DWORD PTR _ptmTemp$2[ebp]

; 420  : 	m_time( time )

  0004c	89 95 48 ff ff
	ff		 mov	 DWORD PTR _tm$[ebp+4], edx

; 1069 : 	if (_localtime64_s(&ptmTemp, &m_time) != 0)

  00052	50		 push	 eax
  00053	e8 00 00 00 00	 call	 __localtime64_s
  00058	83 c4 08	 add	 esp, 8
  0005b	85 c0		 test	 eax, eax
  0005d	0f 85 a1 00 00
	00		 jne	 $LN81@ttos

; 1072 : 	}
; 1073 : 
; 1074 : 	if (!_tcsftime(szBuffer, maxTimeBufferSize, pFormat, &ptmTemp))

  00063	8d 85 4c ff ff
	ff		 lea	 eax, DWORD PTR _ptmTemp$2[ebp]
  00069	50		 push	 eax
  0006a	68 00 00 00 00	 push	 OFFSET ??_C@_0N@BNMNAMM@?$CFY?$CFm?$CFd?$CFH?$CFM?$CFS@
  0006f	8d 85 70 ff ff
	ff		 lea	 eax, DWORD PTR _szBuffer$3[ebp]
  00075	68 80 00 00 00	 push	 128			; 00000080H
  0007a	50		 push	 eax
  0007b	e8 00 00 00 00	 call	 _strftime
  00080	83 c4 10	 add	 esp, 16			; 00000010H
  00083	85 c0		 test	 eax, eax
  00085	75 06		 jne	 SHORT $LN10@ttos

; 1075 : 	{
; 1076 : 		szBuffer[0] = '\0';

  00087	88 85 70 ff ff
	ff		 mov	 BYTE PTR _szBuffer$3[ebp], al
$LN10@ttos:
; File C:\Program Files\Microsoft Visual Studio\2022\Professional\VC\Tools\MSVC\14.44.35207\atlmfc\include\afxstr.h

; 56   : 		return( AfxGetStringManager() );

  0008d	e8 00 00 00 00	 call	 ?AfxGetStringManager@@YGPAUIAtlStringMgr@ATL@@XZ ; AfxGetStringManager
  00092	8b c8		 mov	 ecx, eax
; File C:\Program Files\Microsoft Visual Studio\2022\Professional\VC\Tools\MSVC\14.44.35207\atlmfc\include\atlsimpstr.h

; 209  : 		ATLENSURE( pStringMgr != NULL );

  00094	85 c9		 test	 ecx, ecx
  00096	74 76		 je	 SHORT $LN82@ttos

; 210  : 		CStringData* pData = pStringMgr->GetNilString();

  00098	8b 01		 mov	 eax, DWORD PTR [ecx]
  0009a	ff 50 0c	 call	 DWORD PTR [eax+12]

; 211  : 		Attach( pData );

  0009d	83 c0 10	 add	 eax, 16			; 00000010H
  000a0	89 06		 mov	 DWORD PTR [esi], eax
; File C:\Program Files\Microsoft Visual Studio\2022\Professional\VC\Tools\MSVC\14.44.35207\atlmfc\include\cstringt.h

; 2712 : 		if( (pv != NULL) && IS_INTRESOURCE( pv ) )

  000a2	8d 85 70 ff ff
	ff		 lea	 eax, DWORD PTR _szBuffer$3[ebp]

; 1052 : 		CThisSimpleString( StringTraits::GetDefaultManager() )

  000a8	c7 45 fc 01 00
	00 00		 mov	 DWORD PTR __$EHRec$[ebp+8], 1

; 2712 : 		if( (pv != NULL) && IS_INTRESOURCE( pv ) )

  000af	a9 00 00 ff ff	 test	 eax, -65536		; ffff0000H
  000b4	75 0d		 jne	 SHORT $LN76@ttos

; 2713 : 		{
; 2714 : 			UINT nID = LOWORD( reinterpret_cast< DWORD_PTR >( pv ) );

  000b6	0f b7 c0	 movzx	 eax, ax

; 2715 : 			(nID);
; 2716 : #ifdef _ATL_USE_WINAPI_FAMILY_DESKTOP_APP
; 2717 : 			if( !LoadString( nID ) )

  000b9	8b ce		 mov	 ecx, esi
  000bb	50		 push	 eax
  000bc	e8 00 00 00 00	 call	 ?LoadStringA@?$CStringT@DV?$StrTraitMFC@DV?$ChTraitsCRT@D@ATL@@@@@ATL@@QAEHI@Z ; ATL::CStringT<char,StrTraitMFC<char,ATL::ChTraitsCRT<char> > >::LoadStringA

; 1054 : 		if( !CheckImplicitLoad( pszSrc ) )

  000c1	eb 25		 jmp	 SHORT $LN47@ttos
$LN76@ttos:
; File C:\Program Files\Microsoft Visual Studio\2022\Professional\VC\Tools\MSVC\14.44.35207\atlmfc\include\atlsimpstr.h

; 730  : 		return( int( strlen( psz ) ) );

  000c3	8d 8d 70 ff ff
	ff		 lea	 ecx, DWORD PTR _szBuffer$3[ebp]
  000c9	8d 51 01	 lea	 edx, DWORD PTR [ecx+1]
  000cc	0f 1f 40 00	 npad	 4
$LL77@ttos:
  000d0	8a 01		 mov	 al, BYTE PTR [ecx]
  000d2	41		 inc	 ecx
  000d3	84 c0		 test	 al, al
  000d5	75 f9		 jne	 SHORT $LL77@ttos
  000d7	2b ca		 sub	 ecx, edx

; 606  : 		SetString( pszSrc, StringLength( pszSrc ) );

  000d9	8d 85 70 ff ff
	ff		 lea	 eax, DWORD PTR _szBuffer$3[ebp]
  000df	51		 push	 ecx
  000e0	50		 push	 eax
  000e1	8b ce		 mov	 ecx, esi
  000e3	e8 00 00 00 00	 call	 ?SetString@?$CSimpleStringT@D$0A@@ATL@@QAEXPBDH@Z ; ATL::CSimpleStringT<char,0>::SetString
$LN47@ttos:
; File C:\IAGOS\server\v18\Source\Source\DatabaseServer\tlord.cpp

; 263  : 	return tm.Format( "%Y%m%d%H%M%S" );

  000e8	8b c6		 mov	 eax, esi

; 264  : }

  000ea	8b 4d f4	 mov	 ecx, DWORD PTR __$EHRec$[ebp]
  000ed	64 89 0d 00 00
	00 00		 mov	 DWORD PTR fs:0, ecx
  000f4	59		 pop	 ecx
  000f5	5e		 pop	 esi
  000f6	8b 4d f0	 mov	 ecx, DWORD PTR __$ArrayPad$[ebp]
  000f9	33 cd		 xor	 ecx, ebp
  000fb	e8 00 00 00 00	 call	 @__security_check_cookie@4
  00100	8b e5		 mov	 esp, ebp
  00102	5d		 pop	 ebp
  00103	c3		 ret	 0
$LN81@ttos:
; File C:\Program Files\Microsoft Visual Studio\2022\Professional\VC\Tools\MSVC\14.44.35207\atlmfc\include\atltime.h

; 1071 : 		AtlThrow(E_INVALIDARG);

  00104	68 57 00 07 80	 push	 -2147024809		; 80070057H
  00109	e8 00 00 00 00	 call	 ?AtlThrowImpl@ATL@@YGXJ@Z ; ATL::AtlThrowImpl
$LN82@ttos:
; File C:\Program Files\Microsoft Visual Studio\2022\Professional\VC\Tools\MSVC\14.44.35207\atlmfc\include\atlsimpstr.h

; 209  : 		ATLENSURE( pStringMgr != NULL );

  0010e	68 05 40 00 80	 push	 -2147467259		; 80004005H
  00113	e8 00 00 00 00	 call	 ?AtlThrowImpl@ATL@@YGXJ@Z ; ATL::AtlThrowImpl
$LN79@ttos:
  00118	cc		 int	 3
_TEXT	ENDS
;	COMDAT text$x
text$x	SEGMENT
__unwindfunclet$?ttos@CTElection@@SA?AV?$CStringT@DV?$StrTraitMFC@DV?$ChTraitsCRT@D@ATL@@@@@ATL@@J@Z$3:
  00000	8b 8d 40 ff ff
	ff		 mov	 ecx, DWORD PTR ___$ReturnUdt$GSCopy$[ebp]
  00006	e9 00 00 00 00	 jmp	 ??1?$CSimpleStringT@D$0A@@ATL@@QAE@XZ ; ATL::CSimpleStringT<char,0>::~CSimpleStringT<char,0>
  0000b	cc		 int	 3
  0000c	cc		 int	 3
  0000d	cc		 int	 3
  0000e	cc		 int	 3
  0000f	cc		 int	 3
__ehhandler$?ttos@CTElection@@SA?AV?$CStringT@DV?$StrTraitMFC@DV?$ChTraitsCRT@D@ATL@@@@@ATL@@J@Z:
  00010	90		 npad	 1
  00011	90		 npad	 1
  00012	8b 54 24 08	 mov	 edx, DWORD PTR [esp+8]
  00016	8d 42 0c	 lea	 eax, DWORD PTR [edx+12]
  00019	8b 8a 40 ff ff
	ff		 mov	 ecx, DWORD PTR [edx-192]
  0001f	33 c8		 xor	 ecx, eax
  00021	e8 00 00 00 00	 call	 @__security_check_cookie@4
  00026	8b 4a fc	 mov	 ecx, DWORD PTR [edx-4]
  00029	33 c8		 xor	 ecx, eax
  0002b	e8 00 00 00 00	 call	 @__security_check_cookie@4
  00030	b8 00 00 00 00	 mov	 eax, OFFSET __ehfuncinfo$?ttos@CTElection@@SA?AV?$CStringT@DV?$StrTraitMFC@DV?$ChTraitsCRT@D@ATL@@@@@ATL@@J@Z
  00035	e9 00 00 00 00	 jmp	 ___CxxFrameHandler3
text$x	ENDS
?ttos@CTElection@@SA?AV?$CStringT@DV?$StrTraitMFC@DV?$ChTraitsCRT@D@ATL@@@@@ATL@@J@Z ENDP ; CTElection::ttos
; Function compile flags: /Ogtp
; File C:\IAGOS\server\v18\Source\Source\DatabaseServer\tlord.cpp
; File C:\IAGOS\server\v18\Source\Source\_Common\lord.h
; File C:\IAGOS\server\v18\Source\Source\DatabaseServer\tlord.cpp
; File C:\IAGOS\server\v18\Source\Source\_Common\lord.h
; File C:\IAGOS\server\v18\Source\Source\DatabaseServer\tlord.cpp
; File C:\Program Files\Microsoft Visual Studio\2022\Professional\VC\Tools\MSVC\14.44.35207\atlmfc\include\atlsimpstr.h
; File C:\IAGOS\server\v18\Source\Source\DatabaseServer\tlord.cpp
; File C:\Program Files\Microsoft Visual Studio\2022\Professional\VC\Tools\MSVC\14.44.35207\atlmfc\include\atlsimpstr.h
; File C:\IAGOS\server\v18\Source\Source\DatabaseServer\tlord.cpp
;	COMDAT ?Restore@CTElection@@QAEHPAVCQuery@@@Z
_TEXT	SEGMENT
$T2 = -312						; size = 4
_this$GSCopy$1$ = -308					; size = 4
_idPlayer$1$ = -304					; size = 4
_iDeposit$2$ = -300					; size = 4
_pQuery$GSCopy$1$ = -296				; size = 4
_szPledge$3 = -292					; size = 255
_szBegin$4 = -36					; size = 17
__$ArrayPad$ = -16					; size = 4
__$EHRec$ = -12						; size = 12
_pQuery$ = 8						; size = 4
?Restore@CTElection@@QAEHPAVCQuery@@@Z PROC		; CTElection::Restore, COMDAT
; _this$ = ecx

; 287  : {	// µĄŔĚĹÍşŁŔĚ˝ş·ÎşÎĹÍ Ľ±°Ĺ »óĹÂ şążř

  00000	55		 push	 ebp
  00001	8b ec		 mov	 ebp, esp
  00003	6a ff		 push	 -1
  00005	68 00 00 00 00	 push	 __ehhandler$?Restore@CTElection@@QAEHPAVCQuery@@@Z
  0000a	64 a1 00 00 00
	00		 mov	 eax, DWORD PTR fs:0
  00010	50		 push	 eax
  00011	81 ec 2c 01 00
	00		 sub	 esp, 300		; 0000012cH
  00017	a1 00 00 00 00	 mov	 eax, DWORD PTR ___security_cookie
  0001c	33 c5		 xor	 eax, ebp
  0001e	89 45 f0	 mov	 DWORD PTR __$ArrayPad$[ebp], eax
  00021	56		 push	 esi
  00022	57		 push	 edi
  00023	50		 push	 eax
  00024	8d 45 f4	 lea	 eax, DWORD PTR __$EHRec$[ebp]
  00027	64 a3 00 00 00
	00		 mov	 DWORD PTR fs:0, eax
  0002d	8b f9		 mov	 edi, ecx
  0002f	89 bd cc fe ff
	ff		 mov	 DWORD PTR _this$GSCopy$1$[ebp], edi

; 288  : 	if( !pQuery->Execute( "uspRestoreElection %d", g_appInfo.dwSys ) )

  00035	ff 35 00 00 00
	00		 push	 DWORD PTR ?g_appInfo@@3UAppInfo@@A
  0003b	8b 75 08	 mov	 esi, DWORD PTR _pQuery$[ebp]
  0003e	68 00 00 00 00	 push	 OFFSET ??_C@_0BG@KGCKLKHB@uspRestoreElection?5?$CFd@
  00043	56		 push	 esi
  00044	89 b5 d8 fe ff
	ff		 mov	 DWORD PTR _pQuery$GSCopy$1$[ebp], esi
  0004a	e8 00 00 00 00	 call	 ?Execute@CQuery@@QAAHPBDZZ ; CQuery::Execute
  0004f	83 c4 0c	 add	 esp, 12			; 0000000cH
  00052	85 c0		 test	 eax, eax
  00054	0f 84 9d 00 00
	00		 je	 $LN34@Restore

; 289  : 		return FALSE;
; 290  : 	if( pQuery->Fetch() )

  0005a	8b ce		 mov	 ecx, esi
  0005c	e8 00 00 00 00	 call	 ?Fetch@CQuery@@QAEHXZ	; CQuery::Fetch
  00061	85 c0		 test	 eax, eax
  00063	74 67		 je	 SHORT $LN32@Restore

; 291  : 	{
; 292  : 		m_idElection	= pQuery->GetInt( "idElection" );

  00065	68 00 00 00 00	 push	 OFFSET ??_C@_0L@NBMLJLBM@idElection@
  0006a	8b ce		 mov	 ecx, esi
  0006c	e8 00 00 00 00	 call	 ?GetInt@CQuery@@QAEHPAD@Z ; CQuery::GetInt

; 293  : 		ELECTION_STATE eState	= static_cast<ELECTION_STATE>( pQuery->GetInt( "eState" ) );

  00071	68 00 00 00 00	 push	 OFFSET ??_C@_06PFLNLAJN@eState@
  00076	8b ce		 mov	 ecx, esi
  00078	89 47 08	 mov	 DWORD PTR [edi+8], eax
  0007b	e8 00 00 00 00	 call	 ?GetInt@CQuery@@QAEHPAD@Z ; CQuery::GetInt

; 294  : 		SetState( eState );
; 295  : 		SetRequirement( (int)( pQuery->GetInt( "nRequirement" ) * property.fRequirementFactor ) );

  00080	68 00 00 00 00	 push	 OFFSET ??_C@_0N@NOMIPDCI@nRequirement@
  00085	8b ce		 mov	 ecx, esi
  00087	89 47 10	 mov	 DWORD PTR [edi+16], eax
  0008a	e8 00 00 00 00	 call	 ?GetInt@CQuery@@QAEHPAD@Z ; CQuery::GetInt

; 297  : 		pQuery->GetStr( "szBegin", szBegin );

  0008f	8b ce		 mov	 ecx, esi
  00091	c6 45 ec 00	 mov	 BYTE PTR _szBegin$4[ebp+16], 0
  00095	66 0f 6e c0	 movd	 xmm0, eax
  00099	0f 5b c0	 cvtdq2ps xmm0, xmm0
  0009c	f3 0f 59 47 5c	 mulss	 xmm0, DWORD PTR [edi+92]
  000a1	f3 0f 2c c0	 cvttss2si eax, xmm0
  000a5	0f 57 c0	 xorps	 xmm0, xmm0
; File C:\IAGOS\server\v18\Source\Source\_Common\lord.h

; 108  : 	void	SetRequirement( int nRequirement )	{	m_nRequirement	= nRequirement;		}

  000a8	89 47 0c	 mov	 DWORD PTR [edi+12], eax
; File C:\IAGOS\server\v18\Source\Source\DatabaseServer\tlord.cpp

; 297  : 		pQuery->GetStr( "szBegin", szBegin );

  000ab	8d 45 dc	 lea	 eax, DWORD PTR _szBegin$4[ebp]
  000ae	50		 push	 eax
  000af	68 00 00 00 00	 push	 OFFSET ??_C@_07PJNBBDOG@szBegin@
  000b4	0f 11 45 dc	 movups	 XMMWORD PTR _szBegin$4[ebp], xmm0
  000b8	e8 00 00 00 00	 call	 ?GetStr@CQuery@@QAEXPAD0@Z ; CQuery::GetStr

; 298  : 		SetBegin( CTElection::stot( szBegin ) );

  000bd	8d 45 dc	 lea	 eax, DWORD PTR _szBegin$4[ebp]
  000c0	50		 push	 eax
  000c1	e8 00 00 00 00	 call	 ?stot@CTElection@@SAJPBD@Z ; CTElection::stot
  000c6	83 c4 04	 add	 esp, 4
; File C:\IAGOS\server\v18\Source\Source\_Common\lord.h

; 77   : 	void	SetBegin( time_t tBegin )	{	m_tBegin	= tBegin;	}

  000c9	89 47 20	 mov	 DWORD PTR [edi+32], eax
$LN32@Restore:
; File C:\IAGOS\server\v18\Source\Source\DatabaseServer\tlord.cpp

; 300  : 	if( !pQuery->Execute( "uspRestoreCandidates %d, %d", g_appInfo.dwSys, GetId() ) )

  000cc	ff 77 08	 push	 DWORD PTR [edi+8]
  000cf	8d 47 08	 lea	 eax, DWORD PTR [edi+8]
  000d2	ff 35 00 00 00
	00		 push	 DWORD PTR ?g_appInfo@@3UAppInfo@@A
  000d8	68 00 00 00 00	 push	 OFFSET ??_C@_0BM@CHJPNMJK@uspRestoreCandidates?5?$CFd?0?5?$CFd@
  000dd	56		 push	 esi
  000de	e8 00 00 00 00	 call	 ?Execute@CQuery@@QAAHPBDZZ ; CQuery::Execute
  000e3	83 c4 10	 add	 esp, 16			; 00000010H
  000e6	85 c0		 test	 eax, eax
  000e8	75 14		 jne	 SHORT $LN27@Restore

; 301  : 	{
; 302  : 		Error( "couldn't execute uspRestoreCandidates" );

  000ea	68 00 00 00 00	 push	 OFFSET ??_C@_0CG@GCHADNNB@couldn?8t?5execute?5uspRestoreCand@
  000ef	e8 00 00 00 00	 call	 ?Error@@YAPBDPBDZZ	; Error
  000f4	83 c4 04	 add	 esp, 4
$LN34@Restore:

; 330  : }

  000f7	33 c0		 xor	 eax, eax
  000f9	e9 4e 01 00 00	 jmp	 $LN1@Restore
$LN27@Restore:

; 303  : 		return FALSE;
; 304  : 	}
; 305  : 	while( pQuery->Fetch() )

  000fe	8b ce		 mov	 ecx, esi
  00100	e8 00 00 00 00	 call	 ?Fetch@CQuery@@QAEHXZ	; CQuery::Fetch
  00105	85 c0		 test	 eax, eax
  00107	0f 84 a8 00 00
	00		 je	 $LN3@Restore
  0010d	0f 1f 00	 npad	 3
$LL2@Restore:

; 306  : 	{
; 307  : 		u_long idPlayer		= static_cast<u_long>( pQuery->GetInt( "idPlayer" ) );

  00110	68 00 00 00 00	 push	 OFFSET ??_C@_08EPHCN@idPlayer@
  00115	8b ce		 mov	 ecx, esi
  00117	e8 00 00 00 00	 call	 ?GetInt@CQuery@@QAEHPAD@Z ; CQuery::GetInt

; 308  : 		__int64 iDeposit	= pQuery->GetInt64( "iDeposit" );

  0011c	68 00 00 00 00	 push	 OFFSET ??_C@_08PIPANNIJ@iDeposit@
  00121	8b ce		 mov	 ecx, esi
  00123	89 85 d0 fe ff
	ff		 mov	 DWORD PTR _idPlayer$1$[ebp], eax
  00129	e8 00 00 00 00	 call	 ?GetInt64@CQuery@@QAE_JPAD@Z ; CQuery::GetInt64

; 309  : 		char szPledge[CCandidate::nMaxPledgeLen]	= { 0,};

  0012e	68 ff 00 00 00	 push	 255			; 000000ffH
  00133	89 85 d4 fe ff
	ff		 mov	 DWORD PTR _iDeposit$2$[ebp], eax
  00139	8b fa		 mov	 edi, edx
  0013b	8d 85 dc fe ff
	ff		 lea	 eax, DWORD PTR _szPledge$3[ebp]
  00141	6a 00		 push	 0
  00143	50		 push	 eax
  00144	e8 00 00 00 00	 call	 _memset
  00149	83 c4 0c	 add	 esp, 12			; 0000000cH

; 310  : 		pQuery->GetStr( "szPledge", szPledge );

  0014c	8d 85 dc fe ff
	ff		 lea	 eax, DWORD PTR _szPledge$3[ebp]
  00152	8b ce		 mov	 ecx, esi
  00154	50		 push	 eax
  00155	68 00 00 00 00	 push	 OFFSET ??_C@_08BCPGFKB@szPledge@
  0015a	e8 00 00 00 00	 call	 ?GetStr@CQuery@@QAEXPAD0@Z ; CQuery::GetStr

; 311  : 		int nVote	= pQuery->GetInt( "nVote" );

  0015f	68 00 00 00 00	 push	 OFFSET ??_C@_05ODKHLCCG@nVote@
  00164	8b ce		 mov	 ecx, esi
  00166	e8 00 00 00 00	 call	 ?GetInt@CQuery@@QAEHPAD@Z ; CQuery::GetInt

; 312  : 		time_t tCreate	= pQuery->GetInt( "tCreate" );

  0016b	8b 8d d8 fe ff
	ff		 mov	 ecx, DWORD PTR _pQuery$GSCopy$1$[ebp]
  00171	8b f0		 mov	 esi, eax
  00173	68 00 00 00 00	 push	 OFFSET ??_C@_07BIPEELOH@tCreate@
  00178	e8 00 00 00 00	 call	 ?GetInt@CQuery@@QAEHPAD@Z ; CQuery::GetInt

; 313  : 		AddCandidate( idPlayer, iDeposit, szPledge, nVote, tCreate );

  0017d	50		 push	 eax
  0017e	56		 push	 esi
  0017f	8d 85 dc fe ff
	ff		 lea	 eax, DWORD PTR _szPledge$3[ebp]
  00185	50		 push	 eax
  00186	57		 push	 edi
  00187	ff b5 d4 fe ff
	ff		 push	 DWORD PTR _iDeposit$2$[ebp]
  0018d	8b bd cc fe ff
	ff		 mov	 edi, DWORD PTR _this$GSCopy$1$[ebp]
  00193	8b cf		 mov	 ecx, edi
  00195	ff b5 d0 fe ff
	ff		 push	 DWORD PTR _idPlayer$1$[ebp]
  0019b	e8 00 00 00 00	 call	 ?AddCandidate@IElection@@QAEPAVCCandidate@@K_JPBDHJ@Z ; IElection::AddCandidate
  001a0	8b b5 d8 fe ff
	ff		 mov	 esi, DWORD PTR _pQuery$GSCopy$1$[ebp]
  001a6	8b ce		 mov	 ecx, esi
  001a8	e8 00 00 00 00	 call	 ?Fetch@CQuery@@QAEHXZ	; CQuery::Fetch
  001ad	85 c0		 test	 eax, eax
  001af	0f 85 5b ff ff
	ff		 jne	 $LL2@Restore
$LN3@Restore:

; 314  : 	}
; 315  : 	if( GetState() == eVote )	// ĹőÇĄ »óĹÂ¸é

  001b5	83 7f 10 02	 cmp	 DWORD PTR [edi+16], 2
  001b9	8b cf		 mov	 ecx, edi
  001bb	75 07		 jne	 SHORT $LN7@Restore

; 316  : 		SortVote();		// µćÇĄĽö·Î Á¤·Ä

  001bd	e8 00 00 00 00	 call	 ?SortVote@IElection@@IAEXXZ ; IElection::SortVote
  001c2	eb 05		 jmp	 SHORT $LN8@Restore
$LN7@Restore:

; 317  : 	else	// ±× ąŰŔÇ »óĹÂ¶ó¸é
; 318  : 		SortDeposit();	// ŔÔÂű±ÝŔ¸·Î Á¤·Ä

  001c4	e8 00 00 00 00	 call	 ?SortDeposit@IElection@@IAEXXZ ; IElection::SortDeposit
$LN8@Restore:

; 319  : 	
; 320  : 	if( !GetBegin() || GetState() == eExpired )	// ĂÖĂĘ ˝ÇÇŕŔĚ°ĹłŞ ¸¸·áµČ Ľ±°Ĺ¶ó¸é

  001c9	83 7f 20 00	 cmp	 DWORD PTR [edi+32], 0
  001cd	74 06		 je	 SHORT $LN10@Restore
  001cf	83 7f 10 03	 cmp	 DWORD PTR [edi+16], 3
  001d3	75 72		 jne	 SHORT $LN11@Restore
$LN10@Restore:

; 321  : 	{
; 322  : 		PrepareNext();

  001d5	8b cf		 mov	 ecx, edi
  001d7	e8 00 00 00 00	 call	 ?PrepareNext@IElection@@QAEXXZ ; IElection::PrepareNext

; 323  : 		if( !pQuery->Execute( "uspElectionInitialize %d, %d, %s", g_appInfo.dwSys, GetId(), CTElection::ttos( GetBegin() ) ) )

  001dc	ff 77 20	 push	 DWORD PTR [edi+32]
  001df	8d 85 c8 fe ff
	ff		 lea	 eax, DWORD PTR $T2[ebp]
  001e5	50		 push	 eax
  001e6	e8 00 00 00 00	 call	 ?ttos@CTElection@@SA?AV?$CStringT@DV?$StrTraitMFC@DV?$ChTraitsCRT@D@ATL@@@@@ATL@@J@Z ; CTElection::ttos
  001eb	ff 30		 push	 DWORD PTR [eax]
  001ed	c7 45 fc 00 00
	00 00		 mov	 DWORD PTR __$EHRec$[ebp+8], 0
  001f4	ff 77 08	 push	 DWORD PTR [edi+8]
  001f7	ff 35 00 00 00
	00		 push	 DWORD PTR ?g_appInfo@@3UAppInfo@@A
  001fd	68 00 00 00 00	 push	 OFFSET ??_C@_0CB@FCFJFKNF@uspElectionInitialize?5?$CFd?0?5?$CFd?0?5?$CF@
  00202	56		 push	 esi
  00203	e8 00 00 00 00	 call	 ?Execute@CQuery@@QAAHPBDZZ ; CQuery::Execute
; File C:\Program Files\Microsoft Visual Studio\2022\Professional\VC\Tools\MSVC\14.44.35207\atlmfc\include\atlsimpstr.h

; 804  : 		return( reinterpret_cast< CStringData* >( m_pszData )-1 );

  00208	8b 95 c8 fe ff
	ff		 mov	 edx, DWORD PTR $T2[ebp]
; File C:\IAGOS\server\v18\Source\Source\DatabaseServer\tlord.cpp

; 323  : 		if( !pQuery->Execute( "uspElectionInitialize %d, %d, %s", g_appInfo.dwSys, GetId(), CTElection::ttos( GetBegin() ) ) )

  0020e	83 c4 1c	 add	 esp, 28			; 0000001cH
  00211	8b f0		 mov	 esi, eax
  00213	c7 45 fc ff ff
	ff ff		 mov	 DWORD PTR __$EHRec$[ebp+8], -1
; File C:\Program Files\Microsoft Visual Studio\2022\Professional\VC\Tools\MSVC\14.44.35207\atlmfc\include\atlsimpstr.h

; 804  : 		return( reinterpret_cast< CStringData* >( m_pszData )-1 );

  0021a	83 c2 f0	 add	 edx, -16		; fffffff0H

; 92   : 		if( _InterlockedDecrement( &nRefs ) <= 0 )

  0021d	83 c9 ff	 or	 ecx, -1
  00220	f0 0f c1 4a 0c	 lock	  xadd	 DWORD PTR [edx+12], ecx
  00225	49		 dec	 ecx
  00226	85 c9		 test	 ecx, ecx
  00228	7f 08		 jg	 SHORT $LN25@Restore

; 93   : 		{
; 94   : 			pStringMgr->Free( this );

  0022a	8b 0a		 mov	 ecx, DWORD PTR [edx]
  0022c	52		 push	 edx
  0022d	8b 01		 mov	 eax, DWORD PTR [ecx]
  0022f	ff 50 04	 call	 DWORD PTR [eax+4]
$LN25@Restore:
; File C:\IAGOS\server\v18\Source\Source\DatabaseServer\tlord.cpp

; 323  : 		if( !pQuery->Execute( "uspElectionInitialize %d, %d, %s", g_appInfo.dwSys, GetId(), CTElection::ttos( GetBegin() ) ) )

  00232	85 f6		 test	 esi, esi
  00234	75 11		 jne	 SHORT $LN11@Restore

; 324  : 		{
; 325  : 			Error( "couldn't execute uspElectionInitialize" );

  00236	68 00 00 00 00	 push	 OFFSET ??_C@_0CH@LCMLFLCE@couldn?8t?5execute?5uspElectionIni@
  0023b	e8 00 00 00 00	 call	 ?Error@@YAPBDPBDZZ	; Error
  00240	83 c4 04	 add	 esp, 4

; 326  : 			return FALSE;

  00243	33 c0		 xor	 eax, eax
  00245	eb 05		 jmp	 SHORT $LN1@Restore
$LN11@Restore:

; 327  : 		}
; 328  : 	}
; 329  : 	return TRUE;

  00247	b8 01 00 00 00	 mov	 eax, 1
$LN1@Restore:

; 330  : }

  0024c	8b 4d f4	 mov	 ecx, DWORD PTR __$EHRec$[ebp]
  0024f	64 89 0d 00 00
	00 00		 mov	 DWORD PTR fs:0, ecx
  00256	59		 pop	 ecx
  00257	5f		 pop	 edi
  00258	5e		 pop	 esi
  00259	8b 4d f0	 mov	 ecx, DWORD PTR __$ArrayPad$[ebp]
  0025c	33 cd		 xor	 ecx, ebp
  0025e	e8 00 00 00 00	 call	 @__security_check_cookie@4
  00263	8b e5		 mov	 esp, ebp
  00265	5d		 pop	 ebp
  00266	c2 04 00	 ret	 4
_TEXT	ENDS
;	COMDAT text$x
text$x	SEGMENT
__unwindfunclet$?Restore@CTElection@@QAEHPAVCQuery@@@Z$0:
  00000	8d 8d c8 fe ff
	ff		 lea	 ecx, DWORD PTR $T2[ebp]
  00006	e9 00 00 00 00	 jmp	 ??1?$CStringT@DV?$StrTraitMFC@DV?$ChTraitsCRT@D@ATL@@@@@ATL@@QAE@XZ ; ATL::CStringT<char,StrTraitMFC<char,ATL::ChTraitsCRT<char> > >::~CStringT<char,StrTraitMFC<char,ATL::ChTraitsCRT<char> > >
  0000b	cc		 int	 3
  0000c	cc		 int	 3
  0000d	cc		 int	 3
  0000e	cc		 int	 3
  0000f	cc		 int	 3
__ehhandler$?Restore@CTElection@@QAEHPAVCQuery@@@Z:
  00010	90		 npad	 1
  00011	90		 npad	 1
  00012	8b 54 24 08	 mov	 edx, DWORD PTR [esp+8]
  00016	8d 42 0c	 lea	 eax, DWORD PTR [edx+12]
  00019	8b 8a c8 fe ff
	ff		 mov	 ecx, DWORD PTR [edx-312]
  0001f	33 c8		 xor	 ecx, eax
  00021	e8 00 00 00 00	 call	 @__security_check_cookie@4
  00026	8b 4a fc	 mov	 ecx, DWORD PTR [edx-4]
  00029	33 c8		 xor	 ecx, eax
  0002b	e8 00 00 00 00	 call	 @__security_check_cookie@4
  00030	b8 00 00 00 00	 mov	 eax, OFFSET __ehfuncinfo$?Restore@CTElection@@QAEHPAVCQuery@@@Z
  00035	e9 00 00 00 00	 jmp	 ___CxxFrameHandler3
text$x	ENDS
?Restore@CTElection@@QAEHPAVCQuery@@@Z ENDP		; CTElection::Restore
; Function compile flags: /Ogtp
; File C:\IAGOS\server\v18\Source\Source\DatabaseServer\tlord.cpp
;	COMDAT ?OnTimer@CTElection@@QAEXXZ
_TEXT	SEGMENT
?OnTimer@CTElection@@QAEXXZ PROC			; CTElection::OnTimer, COMDAT
; _this$ = ecx

; 534  : {	// Ľ±°Ĺ Ć˝

  00000	56		 push	 esi
  00001	8b f1		 mov	 esi, ecx

; 535  : 	if( !IsRunable() )		// ±şÁÖ ÇÁ·ÎĽĽ˝ş°ˇ ˝ÇÇŕÁßŔĚ ľĆ´Ď¸é

  00003	83 7e 60 00	 cmp	 DWORD PTR [esi+96], 0
  00007	74 3a		 je	 SHORT $LN8@OnTimer

; 536  : 		return;
; 537  : 	
; 538  : 	// ÇöŔçŔÇ Ľ±°Ĺ »óĹÂżÍ
; 539  : 	// ÇöŔç ˝Ă°Ł ±âÁŘ Ľ±°Ĺ »óĹÂ°ˇ ´Ů¸Ł¸é
; 540  : 	// ´ŮŔ˝ ´Ü°č·Î ÁřÇŕ ˝ĂĹ˛´Ů
; 541  : 	if( GetState() != GetPropertyState() )

  00009	57		 push	 edi
  0000a	8b 7e 10	 mov	 edi, DWORD PTR [esi+16]
  0000d	e8 00 00 00 00	 call	 ?GetPropertyState@IElection@@QAE?AW4ELECTION_STATE@1@XZ ; IElection::GetPropertyState
  00012	3b f8		 cmp	 edi, eax
  00014	74 2c		 je	 SHORT $LN15@OnTimer

; 542  : 	{
; 543  : 		if( GetState() == eReady )

  00016	85 ff		 test	 edi, edi
  00018	75 09		 jne	 SHORT $LN4@OnTimer

; 544  : 			BeginCandidacy();

  0001a	5f		 pop	 edi
  0001b	8b ce		 mov	 ecx, esi
  0001d	5e		 pop	 esi
  0001e	e9 00 00 00 00	 jmp	 ?BeginCandidacy@IElection@@QAEXXZ ; IElection::BeginCandidacy
$LN4@OnTimer:

; 545  : 		else if( GetState() == eCandidacy )

  00023	83 ff 01	 cmp	 edi, 1
  00026	75 0c		 jne	 SHORT $LN6@OnTimer

; 546  : 			BeginVote( 0 );

  00028	6a 00		 push	 0
  0002a	8b ce		 mov	 ecx, esi
  0002c	e8 00 00 00 00	 call	 ?BeginVote@IElection@@QAEXH@Z ; IElection::BeginVote
  00031	5f		 pop	 edi
  00032	5e		 pop	 esi

; 549  : 	}
; 550  : }

  00033	c3		 ret	 0
$LN6@OnTimer:

; 547  : 		else if( GetState() == eVote )

  00034	83 ff 02	 cmp	 edi, 2
  00037	75 09		 jne	 SHORT $LN15@OnTimer

; 548  : 			EndVote( 0 );

  00039	6a 00		 push	 0
  0003b	8b ce		 mov	 ecx, esi
  0003d	e8 00 00 00 00	 call	 ?EndVote@IElection@@QAEXK@Z ; IElection::EndVote
$LN15@OnTimer:
  00042	5f		 pop	 edi
$LN8@OnTimer:
  00043	5e		 pop	 esi

; 549  : 	}
; 550  : }

  00044	c3		 ret	 0
?OnTimer@CTElection@@QAEXXZ ENDP			; CTElection::OnTimer
_TEXT	ENDS
; Function compile flags: /Ogtp
; File C:\IAGOS\server\v18\Source\Source\DatabaseServer\tlord.cpp
;	COMDAT ?GetRetRate@CTElection@@QAEMK@Z
_TEXT	SEGMENT
_idPlayer$ = 8						; size = 4
?GetRetRate@CTElection@@QAEMK@Z PROC			; CTElection::GetRetRate, COMDAT
; _this$ = ecx

; 333  : {	// ŔÔÂű±Ý ąÝČŻŔ˛

  00000	55		 push	 ebp
  00001	8b ec		 mov	 ebp, esp
  00003	56		 push	 esi

; 334  : 	int nOrder	= GetOrder( idPlayer );

  00004	ff 75 08	 push	 DWORD PTR _idPlayer$[ebp]
  00007	8b f1		 mov	 esi, ecx
  00009	e8 00 00 00 00	 call	 ?GetOrder@IElection@@QAEHK@Z ; IElection::GetOrder

; 335  : 	nOrder	= min( nOrder, IElection::nMaxCandidates );

  0000e	ba 0a 00 00 00	 mov	 edx, 10			; 0000000aH
  00013	3b c2		 cmp	 eax, edx
  00015	0f 4c d0	 cmovl	 edx, eax

; 336  : 	if( nOrder < 0 )

  00018	85 d2		 test	 edx, edx
  0001a	79 07		 jns	 SHORT $LN2@GetRetRate

; 337  : 		return 0.0F;

  0001c	d9 ee		 fldz
  0001e	5e		 pop	 esi

; 339  : }

  0001f	5d		 pop	 ebp
  00020	c2 04 00	 ret	 4
$LN2@GetRetRate:

; 338  : 	return property.m_vReturnDepositRates[nOrder];

  00023	8b 46 38	 mov	 eax, DWORD PTR [esi+56]
  00026	5e		 pop	 esi
  00027	d9 04 90	 fld	 DWORD PTR [eax+edx*4]

; 339  : }

  0002a	5d		 pop	 ebp
  0002b	c2 04 00	 ret	 4
?GetRetRate@CTElection@@QAEMK@Z ENDP			; CTElection::GetRetRate
_TEXT	ENDS
; Function compile flags: /Ogtp
; File C:\IAGOS\server\v18\Source\Source\DatabaseServer\tlord.cpp
;	COMDAT ?Initialize@CTElection@@QAEHPBD@Z
_TEXT	SEGMENT
_szFile$ = 8						; size = 4
?Initialize@CTElection@@QAEHPBD@Z PROC			; CTElection::Initialize, COMDAT
; _this$ = ecx

; 193  : {	// ĂĘ±âČ­

  00000	55		 push	 ebp
  00001	8b ec		 mov	 ebp, esp

; 194  : 	if( !ReadIni( szFile ) )	// ˝şĹ©¸łĆ® ·Îµĺ

  00003	ff 75 08	 push	 DWORD PTR _szFile$[ebp]
  00006	e8 00 00 00 00	 call	 ?ReadIni@CTElection@@AAEHPBD@Z ; CTElection::ReadIni
  0000b	85 c0		 test	 eax, eax
  0000d	75 16		 jne	 SHORT $LN2@Initialize

; 195  : 	{
; 196  : 		election::OutputDebugString( "CTElection::Initialize(): LoadScript(): file not found: %s", szFile );

  0000f	ff 75 08	 push	 DWORD PTR _szFile$[ebp]
  00012	68 00 00 00 00	 push	 OFFSET ??_C@_0DL@DADIAAPI@CTElection?3?3Initialize?$CI?$CJ?3?5LoadS@
  00017	e8 00 00 00 00	 call	 ?OutputDebugStringA@election@@YAXPBDZZ ; election::OutputDebugStringA
  0001c	83 c4 08	 add	 esp, 8

; 197  : 		return FALSE;

  0001f	33 c0		 xor	 eax, eax

; 200  : }

  00021	5d		 pop	 ebp
  00022	c2 04 00	 ret	 4
$LN2@Initialize:

; 198  : 	}
; 199  : 	return TRUE;

  00025	b8 01 00 00 00	 mov	 eax, 1

; 200  : }

  0002a	5d		 pop	 ebp
  0002b	c2 04 00	 ret	 4
?Initialize@CTElection@@QAEHPBD@Z ENDP			; CTElection::Initialize
_TEXT	ENDS
; Function compile flags: /Ogtp
; File C:\IAGOS\server\v18\Source\Source\DatabaseServer\tlord.cpp
;	COMDAT ??1CTElection@@UAE@XZ
_TEXT	SEGMENT
??1CTElection@@UAE@XZ PROC				; CTElection::~CTElection, COMDAT
; _this$ = ecx

; 189  : {

  00000	c7 01 00 00 00
	00		 mov	 DWORD PTR [ecx], OFFSET ??_7CTElection@@6B@

; 190  : }

  00006	e9 00 00 00 00	 jmp	 ??1IElection@@UAE@XZ	; IElection::~IElection
??1CTElection@@UAE@XZ ENDP				; CTElection::~CTElection
_TEXT	ENDS
; Function compile flags: /Ogtp
; File C:\IAGOS\server\v18\Source\Source\DatabaseServer\tlord.cpp
;	COMDAT ??0CTElection@@QAE@PAVCLord@@@Z
_TEXT	SEGMENT
_this$ = -4						; size = 4
_pLord$ = 8						; size = 4
??0CTElection@@QAE@PAVCLord@@@Z PROC			; CTElection::CTElection, COMDAT
; _this$ = ecx

; 185  : {

  00000	55		 push	 ebp
  00001	8b ec		 mov	 ebp, esp
  00003	51		 push	 ecx
  00004	56		 push	 esi
  00005	ff 75 08	 push	 DWORD PTR _pLord$[ebp]
  00008	8b f1		 mov	 esi, ecx
  0000a	89 75 fc	 mov	 DWORD PTR _this$[ebp], esi
  0000d	e8 00 00 00 00	 call	 ??0IElection@@IAE@PAVCLord@@@Z ; IElection::IElection
  00012	c7 06 00 00 00
	00		 mov	 DWORD PTR [esi], OFFSET ??_7CTElection@@6B@

; 186  : }

  00018	8b c6		 mov	 eax, esi
  0001a	c7 46 60 01 00
	00 00		 mov	 DWORD PTR [esi+96], 1
  00021	5e		 pop	 esi
  00022	8b e5		 mov	 esp, ebp
  00024	5d		 pop	 ebp
  00025	c2 04 00	 ret	 4
??0CTElection@@QAE@PAVCLord@@@Z ENDP			; CTElection::CTElection
_TEXT	ENDS
; Function compile flags: /Ogtp
;	COMDAT ??_GCTLord@@UAEPAXI@Z
_TEXT	SEGMENT
___flags$ = 8						; size = 4
??_GCTLord@@UAEPAXI@Z PROC				; CTLord::`scalar deleting destructor', COMDAT
; _this$ = ecx
  00000	55		 push	 ebp
  00001	8b ec		 mov	 ebp, esp
  00003	56		 push	 esi
  00004	8b f1		 mov	 esi, ecx
  00006	e8 00 00 00 00	 call	 ??1CTLord@@UAE@XZ	; CTLord::~CTLord
  0000b	f6 45 08 01	 test	 BYTE PTR ___flags$[ebp], 1
  0000f	74 0b		 je	 SHORT $LN5@scalar
  00011	6a 18		 push	 24			; 00000018H
  00013	56		 push	 esi
  00014	e8 00 00 00 00	 call	 ??3@YAXPAXI@Z		; operator delete
  00019	83 c4 08	 add	 esp, 8
$LN5@scalar:
  0001c	8b c6		 mov	 eax, esi
  0001e	5e		 pop	 esi
  0001f	5d		 pop	 ebp
  00020	c2 04 00	 ret	 4
??_GCTLord@@UAEPAXI@Z ENDP				; CTLord::`scalar deleting destructor'
_TEXT	ENDS
; Function compile flags: /Ogtp
; File C:\IAGOS\server\v18\Source\Source\DatabaseServer\tlord.h
;	COMDAT ?GetController@CTLord@@UAEPAVCLController@@XZ
_TEXT	SEGMENT
?GetController@CTLord@@UAEPAVCLController@@XZ PROC	; CTLord::GetController, COMDAT
; _this$ = ecx

; 37   : 	virtual	CLController*	GetController( void )	{	return m_pController;	}

  00000	8b 41 14	 mov	 eax, DWORD PTR [ecx+20]
  00003	c3		 ret	 0
?GetController@CTLord@@UAEPAVCLController@@XZ ENDP	; CTLord::GetController
_TEXT	ENDS
; Function compile flags: /Ogtp
; File C:\IAGOS\server\v18\Source\Source\DatabaseServer\tlord.cpp
;	COMDAT ?PostRequest@CTLord@@QAEHHPAEHK@Z
_TEXT	SEGMENT
_nQuery$ = 8						; size = 4
_lpBuf$ = 12						; size = 4
_nBufSize$ = 16						; size = 4
_dwCompletionKey$ = 20					; size = 4
?PostRequest@CTLord@@QAEHHPAEHK@Z PROC			; CTLord::PostRequest, COMDAT
; _this$ = ecx

; 71   : {	// ±şÁÖ ˝ş·ąµĺżˇ ŔŰľ÷Ŕ» żäĂ»

  00000	55		 push	 ebp
  00001	8b ec		 mov	 ebp, esp

; 72   : 	return m_pController->PostRequest( nQuery, lpBuf, nBufSize, dwCompletionKey );

  00003	8b 49 14	 mov	 ecx, DWORD PTR [ecx+20]

; 73   : }

  00006	5d		 pop	 ebp

; 72   : 	return m_pController->PostRequest( nQuery, lpBuf, nBufSize, dwCompletionKey );

  00007	e9 00 00 00 00	 jmp	 ?PostRequest@CDbController@@QAEHHPAEHK@Z ; CDbController::PostRequest
?PostRequest@CTLord@@QAEHHPAEHK@Z ENDP			; CTLord::PostRequest
_TEXT	ENDS
; Function compile flags: /Ogtp
; File C:\IAGOS\server\v18\Source\Source\DatabaseServer\tlord.cpp
;	COMDAT ?OnTimer@CTLord@@QAEXXZ
_TEXT	SEGMENT
?OnTimer@CTLord@@QAEXXZ PROC				; CTLord::OnTimer, COMDAT
; _this$ = ecx

; 151  : {	// Ć˝	// ĂĘ´ç 1Č¸		// m_pController°ˇ ČŁĂâ

  00000	56		 push	 esi
  00001	8b f1		 mov	 esi, ecx

; 152  : 	TRACE( "CTLord.OnTimer: %d\n", time( NULL ) );
; 153  : 	CTElection* pElection	= static_cast<CTElection*>( GetElection() );
; 154  : 	pElection->OnTimer();

  00003	8b 4e 08	 mov	 ecx, DWORD PTR [esi+8]
  00006	e8 00 00 00 00	 call	 ?OnTimer@CTElection@@QAEXXZ ; CTElection::OnTimer

; 155  : 	CLEvent* pEvent	= static_cast<CLEvent*>( GetEvent() );
; 156  : 	pEvent->OnTimer();

  0000b	8b 4e 0c	 mov	 ecx, DWORD PTR [esi+12]
  0000e	e8 00 00 00 00	 call	 ?OnTimer@CLEvent@@QAEXXZ ; CLEvent::OnTimer

; 157  : 	CTLordSkill* pSkills	= static_cast<CTLordSkill*>( GetSkills() );
; 158  : 	pSkills->OnTimer();

  00013	8b 4e 10	 mov	 ecx, DWORD PTR [esi+16]
  00016	5e		 pop	 esi
  00017	e9 00 00 00 00	 jmp	 ?OnTimer@CTLordSkill@@QAEXXZ ; CTLordSkill::OnTimer
?OnTimer@CTLord@@QAEXXZ ENDP				; CTLord::OnTimer
_TEXT	ENDS
; Function compile flags: /Ogtp
; File C:\IAGOS\server\v18\Source\Source\DatabaseServer\tlord.cpp
; File C:\Program Files (x86)\Windows Kits\10\Include\10.0.26100.0\ucrt\time.h
; File C:\IAGOS\server\v18\Source\Source\DatabaseServer\tlord.cpp
; File C:\Program Files (x86)\Windows Kits\10\Include\10.0.26100.0\ucrt\time.h
; File C:\IAGOS\server\v18\Source\Source\DatabaseServer\tlord.cpp
;	COMDAT ?Handler@CTLord@@QAEXPAUtagDB_OVERLAPPED_PLUS@@K@Z
_TEXT	SEGMENT
_iDeposit$2 = -33096					; size = 8
_idPlayer$3 = -33092					; size = 4
_nSkill$4 = -33092					; size = 4
_idPlayer$5 = -33088					; size = 4
_iIEvent$6 = -33088					; size = 4
_idTarget$7 = -33088					; size = 4
_idPlayer$8 = -33084					; size = 4
_idPlayer$9 = -33084					; size = 4
_idElector$10 = -33084					; size = 4
_iEEvent$11 = -33084					; size = 4
_idPlayer$12 = -33084					; size = 4
_ar$13 = -33080						; size = 16404
_ar$14 = -16676						; size = 16404
_ar$15 = -16676						; size = 16404
_ar$16 = -16676						; size = 16404
_ar$17 = -16676						; size = 16404
_szPledge$18 = -272					; size = 255
__$ArrayPad$ = -16					; size = 4
__$EHRec$ = -12						; size = 12
_pov$ = 8						; size = 4
_dwCompletionKey$ = 12					; size = 4
?Handler@CTLord@@QAEXPAUtagDB_OVERLAPPED_PLUS@@K@Z PROC	; CTLord::Handler, COMDAT
; _this$ = ecx

; 76   : {	// ±şÁÖ ˝ş·ąµĺ°ˇ Ľö˝ĹÇŃ żäĂ»Ŕ» Ăł¸®ÇŃ´Ů

  00000	55		 push	 ebp
  00001	8b ec		 mov	 ebp, esp
  00003	6a ff		 push	 -1
  00005	68 00 00 00 00	 push	 __ehhandler$?Handler@CTLord@@QAEXPAUtagDB_OVERLAPPED_PLUS@@K@Z
  0000a	64 a1 00 00 00
	00		 mov	 eax, DWORD PTR fs:0
  00010	50		 push	 eax
  00011	b8 3c 81 00 00	 mov	 eax, 33084		; 0000813cH
  00016	e8 00 00 00 00	 call	 __chkstk
  0001b	a1 00 00 00 00	 mov	 eax, DWORD PTR ___security_cookie
  00020	33 c5		 xor	 eax, ebp
  00022	89 45 f0	 mov	 DWORD PTR __$ArrayPad$[ebp], eax
  00025	53		 push	 ebx
  00026	56		 push	 esi
  00027	57		 push	 edi
  00028	50		 push	 eax
  00029	8d 45 f4	 lea	 eax, DWORD PTR __$EHRec$[ebp]
  0002c	64 a3 00 00 00
	00		 mov	 DWORD PTR fs:0, eax
  00032	8b f9		 mov	 edi, ecx
  00034	8b 75 08	 mov	 esi, DWORD PTR _pov$[ebp]

; 77   : 	switch( pov->nQueryMode )

  00037	8b 46 14	 mov	 eax, DWORD PTR [esi+20]
  0003a	83 f8 09	 cmp	 eax, 9
  0003d	0f 87 74 02 00
	00		 ja	 $LN2@Handler
  00043	ff 24 85 00 00
	00 00		 jmp	 DWORD PTR $LN31@Handler[eax*4]
$LN4@Handler:

; 78   : 	{
; 79   : 		case eBeginCandidacy:	// ŔÔČÄş¸ ˝ĂŔŰ
; 80   : 			GetElection()->BeginCandidacy();

  0004a	8b 4f 08	 mov	 ecx, DWORD PTR [edi+8]
  0004d	e8 00 00 00 00	 call	 ?BeginCandidacy@IElection@@QAEXXZ ; IElection::BeginCandidacy

; 81   : 			break;

  00052	e9 60 02 00 00	 jmp	 $LN2@Handler
$LN5@Handler:

; 82   : 		case eBeginVote:	// ĹőÇĄ ˝ĂŔŰ
; 83   : 			GetElection()->BeginVote( 0 );

  00057	8b 4f 08	 mov	 ecx, DWORD PTR [edi+8]
  0005a	6a 00		 push	 0
  0005c	e8 00 00 00 00	 call	 ?BeginVote@IElection@@QAEXH@Z ; IElection::BeginVote

; 84   : 			break;

  00061	e9 51 02 00 00	 jmp	 $LN2@Handler
$LN6@Handler:

; 85   : 		case eEndVote:	// ĹőÇĄ Áľ·á
; 86   : 			GetElection()->EndVote( 0 );

  00066	8b 4f 08	 mov	 ecx, DWORD PTR [edi+8]
  00069	6a 00		 push	 0
  0006b	e8 00 00 00 00	 call	 ?EndVote@IElection@@QAEXK@Z ; IElection::EndVote

; 87   : 			break;

  00070	e9 42 02 00 00	 jmp	 $LN2@Handler
$LN7@Handler:

; 88   : 		//--------------------------------------------------------------------------------
; 89   : 		case eAddDeposit:	// ±şÁÖ ŔÔÂű
; 90   : 			{
; 91   : 				u_long idPlayer;
; 92   : 				__int64 iDeposit;
; 93   : 				CAr ar( pov->lpBuf, pov->uBufSize );

  00075	ff 76 1c	 push	 DWORD PTR [esi+28]
  00078	8d 8d dc be ff
	ff		 lea	 ecx, DWORD PTR _ar$14[ebp]
  0007e	ff 76 18	 push	 DWORD PTR [esi+24]
  00081	e8 00 00 00 00	 call	 ??0CAr@@QAE@PAXI@Z	; CAr::CAr

; 94   : 				ar >> idPlayer >> iDeposit;

  00086	8d 85 b8 7e ff
	ff		 lea	 eax, DWORD PTR _iDeposit$2[ebp]
  0008c	c7 45 fc 00 00
	00 00		 mov	 DWORD PTR __$EHRec$[ebp+8], 0
  00093	50		 push	 eax
  00094	8d 85 c4 7e ff
	ff		 lea	 eax, DWORD PTR _idPlayer$8[ebp]
  0009a	50		 push	 eax
  0009b	8d 8d dc be ff
	ff		 lea	 ecx, DWORD PTR _ar$14[ebp]
  000a1	e8 00 00 00 00	 call	 ??$?5K@CAr@@QAEAAV0@AAK@Z ; CAr::operator>><unsigned long>
  000a6	8b c8		 mov	 ecx, eax
  000a8	e8 00 00 00 00	 call	 ??$?5_J@CAr@@QAEAAV0@AA_J@Z ; CAr::operator>><__int64>
; File C:\Program Files (x86)\Windows Kits\10\Include\10.0.26100.0\ucrt\time.h

; 428  :             return _time32(_Time);

  000ad	6a 00		 push	 0
  000af	e8 00 00 00 00	 call	 __time32
; File C:\IAGOS\server\v18\Source\Source\DatabaseServer\tlord.cpp

; 95   : 				GetElection()->AddDeposit( idPlayer, iDeposit, time( NULL ) );

  000b4	8b 4f 08	 mov	 ecx, DWORD PTR [edi+8]
; File C:\Program Files (x86)\Windows Kits\10\Include\10.0.26100.0\ucrt\time.h

; 428  :             return _time32(_Time);

  000b7	83 c4 04	 add	 esp, 4
; File C:\IAGOS\server\v18\Source\Source\DatabaseServer\tlord.cpp

; 95   : 				GetElection()->AddDeposit( idPlayer, iDeposit, time( NULL ) );

  000ba	50		 push	 eax
  000bb	ff b5 bc 7e ff
	ff		 push	 DWORD PTR _iDeposit$2[ebp+4]
  000c1	ff b5 b8 7e ff
	ff		 push	 DWORD PTR _iDeposit$2[ebp]
  000c7	ff b5 c4 7e ff
	ff		 push	 DWORD PTR _idPlayer$8[ebp]
  000cd	e8 00 00 00 00	 call	 ?AddDeposit@IElection@@QAEXK_JJ@Z ; IElection::AddDeposit

; 96   : 				break;

  000d2	8d 8d dc be ff
	ff		 lea	 ecx, DWORD PTR _ar$14[ebp]
  000d8	e9 d5 01 00 00	 jmp	 $LN33@Handler
$LN8@Handler:

; 97   : 			}
; 98   : 		case eSetPledge:	// °řľŕ ĽłÁ¤
; 99   : 			{
; 100  : 				u_long idPlayer;
; 101  : 				char szPledge[CCandidate::nMaxPledgeLen]	= {0, };

  000dd	68 ff 00 00 00	 push	 255			; 000000ffH
  000e2	8d 85 f0 fe ff
	ff		 lea	 eax, DWORD PTR _szPledge$18[ebp]
  000e8	6a 00		 push	 0
  000ea	50		 push	 eax
  000eb	e8 00 00 00 00	 call	 _memset
  000f0	83 c4 0c	 add	 esp, 12			; 0000000cH

; 102  : 				CAr ar( pov->lpBuf, pov->uBufSize );

  000f3	8d 8d dc be ff
	ff		 lea	 ecx, DWORD PTR _ar$15[ebp]
  000f9	ff 76 1c	 push	 DWORD PTR [esi+28]
  000fc	ff 76 18	 push	 DWORD PTR [esi+24]
  000ff	e8 00 00 00 00	 call	 ??0CAr@@QAE@PAXI@Z	; CAr::CAr

; 103  : 				ar >> idPlayer;

  00104	8d 85 c4 7e ff
	ff		 lea	 eax, DWORD PTR _idPlayer$9[ebp]
  0010a	c7 45 fc 01 00
	00 00		 mov	 DWORD PTR __$EHRec$[ebp+8], 1
  00111	50		 push	 eax
  00112	8d 8d dc be ff
	ff		 lea	 ecx, DWORD PTR _ar$15[ebp]
  00118	e8 00 00 00 00	 call	 ??$?5K@CAr@@QAEAAV0@AAK@Z ; CAr::operator>><unsigned long>

; 104  : 				ar.ReadString( szPledge, CCandidate::nMaxPledgeLen );

  0011d	68 ff 00 00 00	 push	 255			; 000000ffH
  00122	8d 85 f0 fe ff
	ff		 lea	 eax, DWORD PTR _szPledge$18[ebp]
  00128	50		 push	 eax
  00129	8d 8d dc be ff
	ff		 lea	 ecx, DWORD PTR _ar$15[ebp]
  0012f	e8 00 00 00 00	 call	 ?ReadString@CAr@@QAEPADPADH@Z ; CAr::ReadString

; 105  : 				GetElection()->SetPledge( idPlayer, szPledge );

  00134	8b 4f 08	 mov	 ecx, DWORD PTR [edi+8]
  00137	8d 85 f0 fe ff
	ff		 lea	 eax, DWORD PTR _szPledge$18[ebp]
  0013d	50		 push	 eax
  0013e	ff b5 c4 7e ff
	ff		 push	 DWORD PTR _idPlayer$9[ebp]
  00144	e8 00 00 00 00	 call	 ?SetPledge@IElection@@QAEXKPBD@Z ; IElection::SetPledge

; 106  : 				break;

  00149	8d 8d dc be ff
	ff		 lea	 ecx, DWORD PTR _ar$15[ebp]
  0014f	e9 5e 01 00 00	 jmp	 $LN33@Handler
$LN9@Handler:

; 107  : 			}
; 108  : 		case eIncVote:	// ĹőÇĄ
; 109  : 			{
; 110  : 				u_long idPlayer, idElector;
; 111  : 				CAr ar( pov->lpBuf, pov->uBufSize );

  00154	ff 76 1c	 push	 DWORD PTR [esi+28]
  00157	8d 8d dc be ff
	ff		 lea	 ecx, DWORD PTR _ar$16[ebp]
  0015d	ff 76 18	 push	 DWORD PTR [esi+24]
  00160	e8 00 00 00 00	 call	 ??0CAr@@QAE@PAXI@Z	; CAr::CAr

; 112  : 				ar >> idPlayer >> idElector;

  00165	8d 85 c4 7e ff
	ff		 lea	 eax, DWORD PTR _idElector$10[ebp]
  0016b	c7 45 fc 02 00
	00 00		 mov	 DWORD PTR __$EHRec$[ebp+8], 2
  00172	50		 push	 eax
  00173	8d 85 c0 7e ff
	ff		 lea	 eax, DWORD PTR _idPlayer$5[ebp]
  00179	50		 push	 eax
  0017a	8d 8d dc be ff
	ff		 lea	 ecx, DWORD PTR _ar$16[ebp]
  00180	e8 00 00 00 00	 call	 ??$?5K@CAr@@QAEAAV0@AAK@Z ; CAr::operator>><unsigned long>
  00185	8b c8		 mov	 ecx, eax
  00187	e8 00 00 00 00	 call	 ??$?5K@CAr@@QAEAAV0@AAK@Z ; CAr::operator>><unsigned long>

; 113  : 				GetElection()->IncVote( idPlayer, idElector );

  0018c	ff b5 c4 7e ff
	ff		 push	 DWORD PTR _idElector$10[ebp]
  00192	8b 4f 08	 mov	 ecx, DWORD PTR [edi+8]
  00195	ff b5 c0 7e ff
	ff		 push	 DWORD PTR _idPlayer$5[ebp]
  0019b	e8 00 00 00 00	 call	 ?IncVote@IElection@@QAEXKK@Z ; IElection::IncVote

; 114  : 				break;

  001a0	8d 8d dc be ff
	ff		 lea	 ecx, DWORD PTR _ar$16[ebp]
  001a6	e9 07 01 00 00	 jmp	 $LN33@Handler
$LN10@Handler:

; 115  : 			}
; 116  : 		//--------------------------------------------------------------------------------
; 117  : 		case eInit:		// ±şÁÖ Á¤ş¸ ŔüĽŰ
; 118  : 								// dwCompletionKey	Ľö˝Ĺ żůµĺ Ľ­ąö dpid
; 119  : 			CDPTrans::GetInstance()->SendLord( dwCompletionKey );

  001ab	ff 75 0c	 push	 DWORD PTR _dwCompletionKey$[ebp]
  001ae	e8 00 00 00 00	 call	 ?GetInstance@CDPTrans@@SAPAV1@XZ ; CDPTrans::GetInstance
  001b3	8b c8		 mov	 ecx, eax
  001b5	e8 00 00 00 00	 call	 ?SendLord@CDPTrans@@QAEXK@Z ; CDPTrans::SendLord

; 120  : 			break;

  001ba	e9 f8 00 00 00	 jmp	 $LN2@Handler
$LN11@Handler:

; 121  : 		//--------------------------------------------------------------------------------
; 122  : 		case eLEventCreate:		// ±şÁÖ ŔĚşĄĆ® ˝ĂŔŰ
; 123  : 			{
; 124  : 				u_long idPlayer;
; 125  : 				int iEEvent, iIEvent;
; 126  : 				CAr ar( pov->lpBuf, pov->uBufSize );

  001bf	ff 76 1c	 push	 DWORD PTR [esi+28]
  001c2	8d 8d dc be ff
	ff		 lea	 ecx, DWORD PTR _ar$17[ebp]
  001c8	ff 76 18	 push	 DWORD PTR [esi+24]
  001cb	e8 00 00 00 00	 call	 ??0CAr@@QAE@PAXI@Z	; CAr::CAr

; 127  : 				ar >> idPlayer >> iEEvent >> iIEvent;

  001d0	8d 85 c0 7e ff
	ff		 lea	 eax, DWORD PTR _iIEvent$6[ebp]
  001d6	c7 45 fc 03 00
	00 00		 mov	 DWORD PTR __$EHRec$[ebp+8], 3
  001dd	50		 push	 eax
  001de	8d 85 c4 7e ff
	ff		 lea	 eax, DWORD PTR _iEEvent$11[ebp]
  001e4	50		 push	 eax
  001e5	8d 85 bc 7e ff
	ff		 lea	 eax, DWORD PTR _idPlayer$3[ebp]
  001eb	50		 push	 eax
  001ec	8d 8d dc be ff
	ff		 lea	 ecx, DWORD PTR _ar$17[ebp]
  001f2	e8 00 00 00 00	 call	 ??$?5K@CAr@@QAEAAV0@AAK@Z ; CAr::operator>><unsigned long>
  001f7	8b c8		 mov	 ecx, eax
  001f9	e8 00 00 00 00	 call	 ??$?5H@CAr@@QAEAAV0@AAH@Z ; CAr::operator>><int>
  001fe	8b c8		 mov	 ecx, eax
  00200	e8 00 00 00 00	 call	 ??$?5H@CAr@@QAEAAV0@AAH@Z ; CAr::operator>><int>

; 128  : 				GetEvent()->AddComponent( idPlayer, iEEvent, iIEvent );

  00205	ff b5 c0 7e ff
	ff		 push	 DWORD PTR _iIEvent$6[ebp]
  0020b	8b 4f 0c	 mov	 ecx, DWORD PTR [edi+12]
  0020e	ff b5 c4 7e ff
	ff		 push	 DWORD PTR _iEEvent$11[ebp]
  00214	ff b5 bc 7e ff
	ff		 push	 DWORD PTR _idPlayer$3[ebp]
  0021a	e8 00 00 00 00	 call	 ?AddComponent@ILordEvent@@QAEXKHH@Z ; ILordEvent::AddComponent

; 129  : 				break;

  0021f	8d 8d dc be ff
	ff		 lea	 ecx, DWORD PTR _ar$17[ebp]
  00225	e9 88 00 00 00	 jmp	 $LN33@Handler
$LN12@Handler:

; 130  : 			}
; 131  : 		case eLEventInitialize:		// ±şÁÖ ŔĚşĄĆ® ĂĘ±âČ­
; 132  : 			{
; 133  : 				GetEvent()->Initialize();

  0022a	8b 4f 0c	 mov	 ecx, DWORD PTR [edi+12]
  0022d	e8 00 00 00 00	 call	 ?Initialize@ILordEvent@@QAEXXZ ; ILordEvent::Initialize

; 134  : 				break;

  00232	e9 80 00 00 00	 jmp	 $LN2@Handler
$LN13@Handler:

; 135  : 			}
; 136  : 		case eLordSkillUse:		// ±şÁÖ ˝şĹł »çżë
; 137  : 			{
; 138  : 				u_long idPlayer, idTarget;
; 139  : 				int nSkill;
; 140  : 				CAr ar( pov->lpBuf, pov->uBufSize );

  00237	ff 76 1c	 push	 DWORD PTR [esi+28]
  0023a	8d 8d c8 7e ff
	ff		 lea	 ecx, DWORD PTR _ar$13[ebp]
  00240	ff 76 18	 push	 DWORD PTR [esi+24]
  00243	e8 00 00 00 00	 call	 ??0CAr@@QAE@PAXI@Z	; CAr::CAr

; 141  : 				ar >> idPlayer >> idTarget >>  nSkill;

  00248	8d 85 bc 7e ff
	ff		 lea	 eax, DWORD PTR _nSkill$4[ebp]
  0024e	c7 45 fc 04 00
	00 00		 mov	 DWORD PTR __$EHRec$[ebp+8], 4
  00255	50		 push	 eax
  00256	8d 85 c0 7e ff
	ff		 lea	 eax, DWORD PTR _idTarget$7[ebp]
  0025c	50		 push	 eax
  0025d	8d 85 c4 7e ff
	ff		 lea	 eax, DWORD PTR _idPlayer$12[ebp]
  00263	50		 push	 eax
  00264	8d 8d c8 7e ff
	ff		 lea	 ecx, DWORD PTR _ar$13[ebp]
  0026a	e8 00 00 00 00	 call	 ??$?5K@CAr@@QAEAAV0@AAK@Z ; CAr::operator>><unsigned long>
  0026f	8b c8		 mov	 ecx, eax
  00271	e8 00 00 00 00	 call	 ??$?5K@CAr@@QAEAAV0@AAK@Z ; CAr::operator>><unsigned long>
  00276	8b c8		 mov	 ecx, eax
  00278	e8 00 00 00 00	 call	 ??$?5H@CAr@@QAEAAV0@AAH@Z ; CAr::operator>><int>

; 142  : 				CLordSkillComponentExecutable* pComponent	= GetSkills()->GetSkill( nSkill );

  0027d	ff b5 bc 7e ff
	ff		 push	 DWORD PTR _nSkill$4[ebp]
  00283	8b 4f 10	 mov	 ecx, DWORD PTR [edi+16]
  00286	e8 00 00 00 00	 call	 ?GetSkill@CLordSkill@@QAEPAVCLordSkillComponentExecutable@@H@Z ; CLordSkill::GetSkill
  0028b	8b d8		 mov	 ebx, eax

; 143  : 				if( pComponent )	// ˝Ç Ĺ¬·ˇ˝ş´Â CLordSkillComponentODBC

  0028d	85 db		 test	 ebx, ebx
  0028f	74 1b		 je	 SHORT $LN14@Handler

; 144  : 					pComponent->Execute( idPlayer, idTarget, static_cast<LPVOID>( GetController() ) );

  00291	8b 17		 mov	 edx, DWORD PTR [edi]
  00293	8b cf		 mov	 ecx, edi
  00295	8b 33		 mov	 esi, DWORD PTR [ebx]
  00297	ff 52 08	 call	 DWORD PTR [edx+8]
  0029a	50		 push	 eax
  0029b	ff b5 c0 7e ff
	ff		 push	 DWORD PTR _idTarget$7[ebp]
  002a1	8b cb		 mov	 ecx, ebx
  002a3	ff b5 c4 7e ff
	ff		 push	 DWORD PTR _idPlayer$12[ebp]
  002a9	ff 56 04	 call	 DWORD PTR [esi+4]
$LN14@Handler:

; 145  : 				break;

  002ac	8d 8d c8 7e ff
	ff		 lea	 ecx, DWORD PTR _ar$13[ebp]
$LN33@Handler:

; 146  : 			}
; 147  : 	}
; 148  : }

  002b2	e8 00 00 00 00	 call	 ??1CAr@@QAE@XZ		; CAr::~CAr
$LN2@Handler:
  002b7	8b 4d f4	 mov	 ecx, DWORD PTR __$EHRec$[ebp]
  002ba	64 89 0d 00 00
	00 00		 mov	 DWORD PTR fs:0, ecx
  002c1	59		 pop	 ecx
  002c2	5f		 pop	 edi
  002c3	5e		 pop	 esi
  002c4	5b		 pop	 ebx
  002c5	8b 4d f0	 mov	 ecx, DWORD PTR __$ArrayPad$[ebp]
  002c8	33 cd		 xor	 ecx, ebp
  002ca	e8 00 00 00 00	 call	 @__security_check_cookie@4
  002cf	8b e5		 mov	 esp, ebp
  002d1	5d		 pop	 ebp
  002d2	c2 08 00	 ret	 8
  002d5	0f 1f 00	 npad	 3
$LN31@Handler:
  002d8	00 00 00 00	 DD	 $LN4@Handler
  002dc	00 00 00 00	 DD	 $LN5@Handler
  002e0	00 00 00 00	 DD	 $LN6@Handler
  002e4	00 00 00 00	 DD	 $LN7@Handler
  002e8	00 00 00 00	 DD	 $LN8@Handler
  002ec	00 00 00 00	 DD	 $LN9@Handler
  002f0	00 00 00 00	 DD	 $LN10@Handler
  002f4	00 00 00 00	 DD	 $LN11@Handler
  002f8	00 00 00 00	 DD	 $LN12@Handler
  002fc	00 00 00 00	 DD	 $LN13@Handler
_TEXT	ENDS
;	COMDAT text$x
text$x	SEGMENT
__unwindfunclet$?Handler@CTLord@@QAEXPAUtagDB_OVERLAPPED_PLUS@@K@Z$0:
  00000	8d 8d dc be ff
	ff		 lea	 ecx, DWORD PTR _ar$14[ebp]
  00006	e9 00 00 00 00	 jmp	 ??1CAr@@QAE@XZ		; CAr::~CAr
__unwindfunclet$?Handler@CTLord@@QAEXPAUtagDB_OVERLAPPED_PLUS@@K@Z$1:
  0000b	8d 8d dc be ff
	ff		 lea	 ecx, DWORD PTR _ar$15[ebp]
  00011	e9 00 00 00 00	 jmp	 ??1CAr@@QAE@XZ		; CAr::~CAr
__unwindfunclet$?Handler@CTLord@@QAEXPAUtagDB_OVERLAPPED_PLUS@@K@Z$2:
  00016	8d 8d dc be ff
	ff		 lea	 ecx, DWORD PTR _ar$16[ebp]
  0001c	e9 00 00 00 00	 jmp	 ??1CAr@@QAE@XZ		; CAr::~CAr
__unwindfunclet$?Handler@CTLord@@QAEXPAUtagDB_OVERLAPPED_PLUS@@K@Z$3:
  00021	8d 8d dc be ff
	ff		 lea	 ecx, DWORD PTR _ar$17[ebp]
  00027	e9 00 00 00 00	 jmp	 ??1CAr@@QAE@XZ		; CAr::~CAr
__unwindfunclet$?Handler@CTLord@@QAEXPAUtagDB_OVERLAPPED_PLUS@@K@Z$4:
  0002c	8d 8d c8 7e ff
	ff		 lea	 ecx, DWORD PTR _ar$13[ebp]
  00032	e9 00 00 00 00	 jmp	 ??1CAr@@QAE@XZ		; CAr::~CAr
  00037	cc		 int	 3
  00038	cc		 int	 3
  00039	cc		 int	 3
  0003a	cc		 int	 3
  0003b	cc		 int	 3
__ehhandler$?Handler@CTLord@@QAEXPAUtagDB_OVERLAPPED_PLUS@@K@Z:
  0003c	90		 npad	 1
  0003d	90		 npad	 1
  0003e	8b 54 24 08	 mov	 edx, DWORD PTR [esp+8]
  00042	8d 42 0c	 lea	 eax, DWORD PTR [edx+12]
  00045	8b 8a b4 7e ff
	ff		 mov	 ecx, DWORD PTR [edx-33100]
  0004b	33 c8		 xor	 ecx, eax
  0004d	e8 00 00 00 00	 call	 @__security_check_cookie@4
  00052	8b 4a fc	 mov	 ecx, DWORD PTR [edx-4]
  00055	33 c8		 xor	 ecx, eax
  00057	e8 00 00 00 00	 call	 @__security_check_cookie@4
  0005c	b8 00 00 00 00	 mov	 eax, OFFSET __ehfuncinfo$?Handler@CTLord@@QAEXPAUtagDB_OVERLAPPED_PLUS@@K@Z
  00061	e9 00 00 00 00	 jmp	 ___CxxFrameHandler3
text$x	ENDS
?Handler@CTLord@@QAEXPAUtagDB_OVERLAPPED_PLUS@@K@Z ENDP	; CTLord::Handler
; Function compile flags: /Ogtp
; File C:\IAGOS\server\v18\Source\Source\DatabaseServer\tlord.cpp
; File C:\IAGOS\server\v18\Source\Source\_Common\lord.h
; File C:\IAGOS\server\v18\Source\Source\DatabaseServer\tlord.cpp
;	COMDAT ?Restore@CTLord@@QAEHPAVCQuery@@@Z
_TEXT	SEGMENT
_pQuery$ = 8						; size = 4
?Restore@CTLord@@QAEHPAVCQuery@@@Z PROC			; CTLord::Restore, COMDAT
; _this$ = ecx

; 167  : {	// ±şÁÖ şążř

  00000	55		 push	 ebp
  00001	8b ec		 mov	 ebp, esp
  00003	56		 push	 esi

; 168  : 	if( !pQuery->Execute( "uspRestoreLord %d", g_appInfo.dwSys ) )

  00004	8b 75 08	 mov	 esi, DWORD PTR _pQuery$[ebp]
  00007	57		 push	 edi
  00008	ff 35 00 00 00
	00		 push	 DWORD PTR ?g_appInfo@@3UAppInfo@@A
  0000e	8b f9		 mov	 edi, ecx
  00010	68 00 00 00 00	 push	 OFFSET ??_C@_0BC@MCPIBNBK@uspRestoreLord?5?$CFd@
  00015	56		 push	 esi
  00016	e8 00 00 00 00	 call	 ?Execute@CQuery@@QAAHPBDZZ ; CQuery::Execute
  0001b	83 c4 0c	 add	 esp, 12			; 0000000cH
  0001e	85 c0		 test	 eax, eax
  00020	75 06		 jne	 SHORT $LN2@Restore

; 173  : }

  00022	5f		 pop	 edi
  00023	5e		 pop	 esi
  00024	5d		 pop	 ebp
  00025	c2 04 00	 ret	 4
$LN2@Restore:

; 169  : 		return FALSE;
; 170  : 	if( pQuery->Fetch() )

  00028	8b ce		 mov	 ecx, esi
  0002a	e8 00 00 00 00	 call	 ?Fetch@CQuery@@QAEHXZ	; CQuery::Fetch
  0002f	85 c0		 test	 eax, eax
  00031	74 0f		 je	 SHORT $LN3@Restore

; 171  : 		Set( pQuery->GetInt( "idLord" ) );

  00033	68 00 00 00 00	 push	 OFFSET ??_C@_06EHHKCEHL@idLord@
  00038	8b ce		 mov	 ecx, esi
  0003a	e8 00 00 00 00	 call	 ?GetInt@CQuery@@QAEHPAD@Z ; CQuery::GetInt
; File C:\IAGOS\server\v18\Source\Source\_Common\lord.h

; 255  : 	void	Set( u_long idPlayer )	{	m_idPlayer	= idPlayer;	}

  0003f	89 47 04	 mov	 DWORD PTR [edi+4], eax
$LN3@Restore:
  00042	5f		 pop	 edi
; File C:\IAGOS\server\v18\Source\Source\DatabaseServer\tlord.cpp

; 172  : 	return TRUE;

  00043	b8 01 00 00 00	 mov	 eax, 1

; 173  : }

  00048	5e		 pop	 esi
  00049	5d		 pop	 ebp
  0004a	c2 04 00	 ret	 4
?Restore@CTLord@@QAEHPAVCQuery@@@Z ENDP			; CTLord::Restore
_TEXT	ENDS
; Function compile flags: /Ogtp
; File C:\IAGOS\server\v18\Source\Source\DatabaseServer\tlord.cpp
;	COMDAT ?RestoreAll@CTLord@@QAEHXZ
_TEXT	SEGMENT
?RestoreAll@CTLord@@QAEHXZ PROC				; CTLord::RestoreAll, COMDAT
; _this$ = ecx

; 163  : 	return GetController()->Restore();

  00000	8b 01		 mov	 eax, DWORD PTR [ecx]
  00002	ff 50 08	 call	 DWORD PTR [eax+8]
  00005	8b c8		 mov	 ecx, eax
  00007	e9 00 00 00 00	 jmp	 ?Restore@CLController@@QAEHXZ ; CLController::Restore
?RestoreAll@CTLord@@QAEHXZ ENDP				; CTLord::RestoreAll
_TEXT	ENDS
; Function compile flags: /Ogtp
; File C:\IAGOS\server\v18\Source\Source\DatabaseServer\tlord.cpp
;	COMDAT ?DestroyColleagues@CTLord@@UAEXXZ
_TEXT	SEGMENT
?DestroyColleagues@CTLord@@UAEXXZ PROC			; CTLord::DestroyColleagues, COMDAT
; _this$ = ecx

; 54   : {	// Çů·Â °´ĂĽŔÇ Á¦°Ĺ

  00000	56		 push	 esi
  00001	8b f1		 mov	 esi, ecx

; 55   : 	if( m_pController )

  00003	8b 4e 14	 mov	 ecx, DWORD PTR [esi+20]
  00006	85 c9		 test	 ecx, ecx
  00008	74 05		 je	 SHORT $LN2@DestroyCol

; 56   : 		m_pController->CloseDbHandler();

  0000a	e8 00 00 00 00	 call	 ?CloseDbHandler@CDbController@@QAEXXZ ; CDbController::CloseDbHandler
$LN2@DestroyCol:

; 57   : 
; 58   : 	SAFE_DELETE( m_pElection );

  0000f	8b 4e 08	 mov	 ecx, DWORD PTR [esi+8]
  00012	85 c9		 test	 ecx, ecx
  00014	74 0d		 je	 SHORT $LN3@DestroyCol
  00016	8b 01		 mov	 eax, DWORD PTR [ecx]
  00018	6a 01		 push	 1
  0001a	ff 10		 call	 DWORD PTR [eax]
  0001c	c7 46 08 00 00
	00 00		 mov	 DWORD PTR [esi+8], 0
$LN3@DestroyCol:

; 59   : 	SAFE_DELETE( m_pEvent );

  00023	8b 4e 0c	 mov	 ecx, DWORD PTR [esi+12]
  00026	85 c9		 test	 ecx, ecx
  00028	74 0d		 je	 SHORT $LN4@DestroyCol
  0002a	8b 01		 mov	 eax, DWORD PTR [ecx]
  0002c	6a 01		 push	 1
  0002e	ff 10		 call	 DWORD PTR [eax]
  00030	c7 46 0c 00 00
	00 00		 mov	 DWORD PTR [esi+12], 0
$LN4@DestroyCol:

; 60   : 	SAFE_DELETE( m_pSkills );

  00037	8b 4e 10	 mov	 ecx, DWORD PTR [esi+16]
  0003a	85 c9		 test	 ecx, ecx
  0003c	74 0d		 je	 SHORT $LN5@DestroyCol
  0003e	8b 01		 mov	 eax, DWORD PTR [ecx]
  00040	6a 01		 push	 1
  00042	ff 10		 call	 DWORD PTR [eax]
  00044	c7 46 10 00 00
	00 00		 mov	 DWORD PTR [esi+16], 0
$LN5@DestroyCol:

; 61   : 	SAFE_DELETE( m_pController );

  0004b	8b 4e 14	 mov	 ecx, DWORD PTR [esi+20]
  0004e	85 c9		 test	 ecx, ecx
  00050	74 0d		 je	 SHORT $LN6@DestroyCol
  00052	8b 01		 mov	 eax, DWORD PTR [ecx]
  00054	6a 01		 push	 1
  00056	ff 10		 call	 DWORD PTR [eax]
  00058	c7 46 14 00 00
	00 00		 mov	 DWORD PTR [esi+20], 0
$LN6@DestroyCol:

; 62   : }

  0005f	5e		 pop	 esi
  00060	c3		 ret	 0
?DestroyColleagues@CTLord@@UAEXXZ ENDP			; CTLord::DestroyColleagues
_TEXT	ENDS
; Function compile flags: /Ogtp
; File C:\IAGOS\server\v18\Source\Source\DatabaseServer\tlord.cpp
;	COMDAT ?CreateColleagues@CTLord@@UAEXXZ
_TEXT	SEGMENT
$T2 = -16						; size = 4
$T3 = -16						; size = 4
$T4 = -16						; size = 4
$T5 = -16						; size = 4
$T6 = -16						; size = 4
__$EHRec$ = -12						; size = 12
?CreateColleagues@CTLord@@UAEXXZ PROC			; CTLord::CreateColleagues, COMDAT
; _this$ = ecx

; 30   : {	// Çů·Â °´ĂĽŔÇ »ýĽş ą× ĂĘ±âČ­

  00000	55		 push	 ebp
  00001	8b ec		 mov	 ebp, esp
  00003	6a ff		 push	 -1
  00005	68 00 00 00 00	 push	 __ehhandler$?CreateColleagues@CTLord@@UAEXXZ
  0000a	64 a1 00 00 00
	00		 mov	 eax, DWORD PTR fs:0
  00010	50		 push	 eax
  00011	51		 push	 ecx
  00012	53		 push	 ebx
  00013	56		 push	 esi
  00014	57		 push	 edi
  00015	a1 00 00 00 00	 mov	 eax, DWORD PTR ___security_cookie
  0001a	33 c5		 xor	 eax, ebp
  0001c	50		 push	 eax
  0001d	8d 45 f4	 lea	 eax, DWORD PTR __$EHRec$[ebp]
  00020	64 a3 00 00 00
	00		 mov	 DWORD PTR fs:0, eax
  00026	8b f1		 mov	 esi, ecx

; 31   : 	// »ýĽş
; 32   : 	m_pController	= new CLController( this );

  00028	6a 18		 push	 24			; 00000018H
  0002a	e8 00 00 00 00	 call	 ??2@YAPAXI@Z		; operator new
  0002f	83 c4 04	 add	 esp, 4
  00032	89 45 f0	 mov	 DWORD PTR $T2[ebp], eax
  00035	c7 45 fc 00 00
	00 00		 mov	 DWORD PTR __$EHRec$[ebp+8], 0
  0003c	85 c0		 test	 eax, eax
  0003e	74 0a		 je	 SHORT $LN4@CreateColl
  00040	56		 push	 esi
  00041	8b c8		 mov	 ecx, eax
  00043	e8 00 00 00 00	 call	 ??0CLController@@QAE@PAVCTLord@@@Z ; CLController::CLController
  00048	eb 02		 jmp	 SHORT $LN5@CreateColl
$LN4@CreateColl:
  0004a	33 c0		 xor	 eax, eax
$LN5@CreateColl:

; 33   : 	m_pController->CreateDbHandler( MIN( 1 ) );

  0004c	68 60 ea 00 00	 push	 60000			; 0000ea60H
  00051	8b c8		 mov	 ecx, eax
  00053	c7 45 fc ff ff
	ff ff		 mov	 DWORD PTR __$EHRec$[ebp+8], -1
  0005a	89 46 14	 mov	 DWORD PTR [esi+20], eax
  0005d	e8 00 00 00 00	 call	 ?CreateDbHandler@CDbController@@QAEHK@Z ; CDbController::CreateDbHandler

; 34   : 	CTElection * pElection	= new CTElection( this );

  00062	6a 64		 push	 100			; 00000064H
  00064	e8 00 00 00 00	 call	 ??2@YAPAXI@Z		; operator new
  00069	83 c4 04	 add	 esp, 4
  0006c	89 45 f0	 mov	 DWORD PTR $T3[ebp], eax
  0006f	c7 45 fc 01 00
	00 00		 mov	 DWORD PTR __$EHRec$[ebp+8], 1
  00076	85 c0		 test	 eax, eax
  00078	74 0c		 je	 SHORT $LN6@CreateColl
  0007a	56		 push	 esi
  0007b	8b c8		 mov	 ecx, eax
  0007d	e8 00 00 00 00	 call	 ??0CTElection@@QAE@PAVCLord@@@Z ; CTElection::CTElection
  00082	8b f8		 mov	 edi, eax
  00084	eb 02		 jmp	 SHORT $LN7@CreateColl
$LN6@CreateColl:
  00086	33 ff		 xor	 edi, edi
$LN7@CreateColl:

; 35   : 	CLEvent* pEvent		= new CLEvent( this );

  00088	6a 2c		 push	 44			; 0000002cH
  0008a	c7 45 fc ff ff
	ff ff		 mov	 DWORD PTR __$EHRec$[ebp+8], -1
  00091	e8 00 00 00 00	 call	 ??2@YAPAXI@Z		; operator new
  00096	83 c4 04	 add	 esp, 4
  00099	89 45 f0	 mov	 DWORD PTR $T4[ebp], eax
  0009c	c7 45 fc 02 00
	00 00		 mov	 DWORD PTR __$EHRec$[ebp+8], 2
  000a3	85 c0		 test	 eax, eax
  000a5	74 0c		 je	 SHORT $LN8@CreateColl
  000a7	56		 push	 esi
  000a8	8b c8		 mov	 ecx, eax
  000aa	e8 00 00 00 00	 call	 ??0CLEvent@@QAE@PAVCLord@@@Z ; CLEvent::CLEvent
  000af	8b d8		 mov	 ebx, eax
  000b1	eb 02		 jmp	 SHORT $LN9@CreateColl
$LN8@CreateColl:
  000b3	33 db		 xor	 ebx, ebx
$LN9@CreateColl:

; 36   : 	CLordSkill* pSkills		= new CTLordSkill( this );

  000b5	6a 14		 push	 20			; 00000014H
  000b7	c7 45 fc ff ff
	ff ff		 mov	 DWORD PTR __$EHRec$[ebp+8], -1
  000be	e8 00 00 00 00	 call	 ??2@YAPAXI@Z		; operator new
  000c3	83 c4 04	 add	 esp, 4
  000c6	89 45 f0	 mov	 DWORD PTR $T5[ebp], eax
  000c9	c7 45 fc 03 00
	00 00		 mov	 DWORD PTR __$EHRec$[ebp+8], 3
  000d0	85 c0		 test	 eax, eax
  000d2	74 0d		 je	 SHORT $LN10@CreateColl
  000d4	56		 push	 esi
  000d5	8b c8		 mov	 ecx, eax
  000d7	e8 00 00 00 00	 call	 ??0CTLordSkill@@QAE@PAVCLord@@@Z ; CTLordSkill::CTLordSkill
  000dc	89 45 f0	 mov	 DWORD PTR $T6[ebp], eax
  000df	eb 07		 jmp	 SHORT $LN11@CreateColl
$LN10@CreateColl:
  000e1	c7 45 f0 00 00
	00 00		 mov	 DWORD PTR $T6[ebp], 0
$LN11@CreateColl:

; 37   : 	// ˝şĹ©¸łĆ®
; 38   : 	pElection->Initialize( "election.inc" );

  000e8	68 00 00 00 00	 push	 OFFSET ??_C@_0N@MMPBPIHN@election?4inc@
  000ed	8b cf		 mov	 ecx, edi
  000ef	c7 45 fc ff ff
	ff ff		 mov	 DWORD PTR __$EHRec$[ebp+8], -1
  000f6	e8 00 00 00 00	 call	 ?Initialize@CTElection@@QAEHPBD@Z ; CTElection::Initialize

; 39   : 	pEvent->Initialize( "lordevent.inc" );

  000fb	68 00 00 00 00	 push	 OFFSET ??_C@_0O@NKJDDJPP@lordevent?4inc@
  00100	8b cb		 mov	 ecx, ebx
  00102	e8 00 00 00 00	 call	 ?Initialize@ILordEvent@@QAEHPBD@Z ; ILordEvent::Initialize

; 40   : 	pSkills->Initialize( "lordskill.txt" );

  00107	8b 4d f0	 mov	 ecx, DWORD PTR $T6[ebp]
  0010a	68 00 00 00 00	 push	 OFFSET ??_C@_0O@DNECDNPA@lordskill?4txt@
  0010f	e8 00 00 00 00	 call	 ?Initialize@CLordSkill@@QAEHPBD@Z ; CLordSkill::Initialize

; 41   : 	// ĽłÁ¤
; 42   : 	m_pElection		= pElection;
; 43   : 	m_pEvent	= pEvent;
; 44   : 	m_pSkills	= pSkills;

  00114	8b 45 f0	 mov	 eax, DWORD PTR $T6[ebp]

; 45   : 	// µĄŔĚĹÍşŁŔĚ˝ş·ÎşÎĹÍ ŔĚŔü »óĹÂ şążř
; 46   : 	if( !RestoreAll() )

  00117	8b ce		 mov	 ecx, esi
  00119	89 7e 08	 mov	 DWORD PTR [esi+8], edi
  0011c	89 5e 0c	 mov	 DWORD PTR [esi+12], ebx
  0011f	89 46 10	 mov	 DWORD PTR [esi+16], eax
  00122	e8 00 00 00 00	 call	 ?RestoreAll@CTLord@@QAEHXZ ; CTLord::RestoreAll
  00127	85 c0		 test	 eax, eax
  00129	74 12		 je	 SHORT $LN19@CreateColl

; 50   : 	}
; 51   : }

  0012b	8b 4d f4	 mov	 ecx, DWORD PTR __$EHRec$[ebp]
  0012e	64 89 0d 00 00
	00 00		 mov	 DWORD PTR fs:0, ecx
  00135	59		 pop	 ecx
  00136	5f		 pop	 edi
  00137	5e		 pop	 esi
  00138	5b		 pop	 ebx
  00139	8b e5		 mov	 esp, ebp
  0013b	5d		 pop	 ebp
  0013c	c3		 ret	 0
$LN19@CreateColl:

; 47   : 	{
; 48   : 		election::OutputDebugString( "CTLord.CreateColleagues" );

  0013d	68 00 00 00 00	 push	 OFFSET ??_C@_0BI@GMEIIJGO@CTLord?4CreateColleagues@
  00142	e8 00 00 00 00	 call	 ?OutputDebugStringA@election@@YAXPBDZZ ; election::OutputDebugStringA
  00147	83 c4 04	 add	 esp, 4

; 49   : 		exit( -1 );

  0014a	6a ff		 push	 -1
  0014c	e8 00 00 00 00	 call	 _exit
$LN17@CreateColl:
  00151	cc		 int	 3
_TEXT	ENDS
;	COMDAT text$x
text$x	SEGMENT
__unwindfunclet$?CreateColleagues@CTLord@@UAEXXZ$0:
  00000	6a 18		 push	 24			; 00000018H
  00002	8b 45 f0	 mov	 eax, DWORD PTR $T2[ebp]
  00005	50		 push	 eax
  00006	e8 00 00 00 00	 call	 ??3@YAXPAXI@Z		; operator delete
  0000b	83 c4 08	 add	 esp, 8
  0000e	c3		 ret	 0
__unwindfunclet$?CreateColleagues@CTLord@@UAEXXZ$1:
  0000f	6a 64		 push	 100			; 00000064H
  00011	8b 45 f0	 mov	 eax, DWORD PTR $T3[ebp]
  00014	50		 push	 eax
  00015	e8 00 00 00 00	 call	 ??3@YAXPAXI@Z		; operator delete
  0001a	83 c4 08	 add	 esp, 8
  0001d	c3		 ret	 0
__unwindfunclet$?CreateColleagues@CTLord@@UAEXXZ$2:
  0001e	6a 2c		 push	 44			; 0000002cH
  00020	8b 45 f0	 mov	 eax, DWORD PTR $T4[ebp]
  00023	50		 push	 eax
  00024	e8 00 00 00 00	 call	 ??3@YAXPAXI@Z		; operator delete
  00029	83 c4 08	 add	 esp, 8
  0002c	c3		 ret	 0
__unwindfunclet$?CreateColleagues@CTLord@@UAEXXZ$3:
  0002d	6a 14		 push	 20			; 00000014H
  0002f	8b 45 f0	 mov	 eax, DWORD PTR $T5[ebp]
  00032	50		 push	 eax
  00033	e8 00 00 00 00	 call	 ??3@YAXPAXI@Z		; operator delete
  00038	83 c4 08	 add	 esp, 8
  0003b	c3		 ret	 0
  0003c	cc		 int	 3
  0003d	cc		 int	 3
  0003e	cc		 int	 3
  0003f	cc		 int	 3
  00040	cc		 int	 3
__ehhandler$?CreateColleagues@CTLord@@UAEXXZ:
  00041	90		 npad	 1
  00042	90		 npad	 1
  00043	8b 54 24 08	 mov	 edx, DWORD PTR [esp+8]
  00047	8d 42 0c	 lea	 eax, DWORD PTR [edx+12]
  0004a	8b 4a ec	 mov	 ecx, DWORD PTR [edx-20]
  0004d	33 c8		 xor	 ecx, eax
  0004f	e8 00 00 00 00	 call	 @__security_check_cookie@4
  00054	b8 00 00 00 00	 mov	 eax, OFFSET __ehfuncinfo$?CreateColleagues@CTLord@@UAEXXZ
  00059	e9 00 00 00 00	 jmp	 ___CxxFrameHandler3
text$x	ENDS
?CreateColleagues@CTLord@@UAEXXZ ENDP			; CTLord::CreateColleagues
; Function compile flags: /Ogtp
; File C:\IAGOS\server\v18\Source\Source\DatabaseServer\tlord.cpp
;	COMDAT ?Instance@CTLord@@SAPAV1@XZ
_TEXT	SEGMENT
__$EHRec$ = -12						; size = 12
?Instance@CTLord@@SAPAV1@XZ PROC			; CTLord::Instance, COMDAT

; 65   : {

  00000	55		 push	 ebp
  00001	8b ec		 mov	 ebp, esp
  00003	6a ff		 push	 -1
  00005	68 00 00 00 00	 push	 __ehhandler$?Instance@CTLord@@SAPAV1@XZ
  0000a	64 a1 00 00 00
	00		 mov	 eax, DWORD PTR fs:0
  00010	50		 push	 eax
  00011	a1 00 00 00 00	 mov	 eax, DWORD PTR ___security_cookie
  00016	33 c5		 xor	 eax, ebp
  00018	50		 push	 eax
  00019	8d 45 f4	 lea	 eax, DWORD PTR __$EHRec$[ebp]
  0001c	64 a3 00 00 00
	00		 mov	 DWORD PTR fs:0, eax

; 66   : 	static	CTLord	sLord;

  00022	64 a1 00 00 00
	00		 mov	 eax, DWORD PTR fs:__tls_array
  00028	8b 0d 00 00 00
	00		 mov	 ecx, DWORD PTR __tls_index
  0002e	8b 0c 88	 mov	 ecx, DWORD PTR [eax+ecx*4]
  00031	a1 00 00 00 00	 mov	 eax, DWORD PTR ?$TSS0@?1??Instance@CTLord@@SAPAV2@XZ@4HA
  00036	3b 81 00 00 00
	00		 cmp	 eax, DWORD PTR __Init_thread_epoch[ecx]
  0003c	7f 14		 jg	 SHORT $LN9@Instance
$LN5@Instance:

; 67   : 	return &sLord;
; 68   : }

  0003e	b8 00 00 00 00	 mov	 eax, OFFSET ?sLord@?1??Instance@CTLord@@SAPAV2@XZ@4V2@A
  00043	8b 4d f4	 mov	 ecx, DWORD PTR __$EHRec$[ebp]
  00046	64 89 0d 00 00
	00 00		 mov	 DWORD PTR fs:0, ecx
  0004d	59		 pop	 ecx
  0004e	8b e5		 mov	 esp, ebp
  00050	5d		 pop	 ebp
  00051	c3		 ret	 0
$LN9@Instance:

; 66   : 	static	CTLord	sLord;

  00052	68 00 00 00 00	 push	 OFFSET ?$TSS0@?1??Instance@CTLord@@SAPAV2@XZ@4HA
  00057	e8 00 00 00 00	 call	 __Init_thread_header
  0005c	83 c4 04	 add	 esp, 4
  0005f	83 3d 00 00 00
	00 ff		 cmp	 DWORD PTR ?$TSS0@?1??Instance@CTLord@@SAPAV2@XZ@4HA, -1
  00066	75 d6		 jne	 SHORT $LN5@Instance
  00068	b9 00 00 00 00	 mov	 ecx, OFFSET ?sLord@?1??Instance@CTLord@@SAPAV2@XZ@4V2@A
  0006d	c7 45 fc 00 00
	00 00		 mov	 DWORD PTR __$EHRec$[ebp+8], 0
  00074	e8 00 00 00 00	 call	 ??0CTLord@@QAE@XZ	; CTLord::CTLord
  00079	68 00 00 00 00	 push	 OFFSET ??__FsLord@?1??Instance@CTLord@@SAPAV1@XZ@YAXXZ ; `CTLord::Instance'::`2'::`dynamic atexit destructor for 'sLord''
  0007e	e8 00 00 00 00	 call	 _atexit
  00083	68 00 00 00 00	 push	 OFFSET ?$TSS0@?1??Instance@CTLord@@SAPAV2@XZ@4HA
  00088	e8 00 00 00 00	 call	 __Init_thread_footer
  0008d	83 c4 08	 add	 esp, 8
  00090	eb ac		 jmp	 SHORT $LN5@Instance
_TEXT	ENDS
;	COMDAT text$x
text$x	SEGMENT
__unwindfunclet$?Instance@CTLord@@SAPAV1@XZ$0:
  00000	68 00 00 00 00	 push	 OFFSET ?$TSS0@?1??Instance@CTLord@@SAPAV2@XZ@4HA
  00005	e8 00 00 00 00	 call	 __Init_thread_abort
  0000a	59		 pop	 ecx
  0000b	c3		 ret	 0
  0000c	cc		 int	 3
  0000d	cc		 int	 3
  0000e	cc		 int	 3
  0000f	cc		 int	 3
  00010	cc		 int	 3
__ehhandler$?Instance@CTLord@@SAPAV1@XZ:
  00011	90		 npad	 1
  00012	90		 npad	 1
  00013	8b 54 24 08	 mov	 edx, DWORD PTR [esp+8]
  00017	8d 42 0c	 lea	 eax, DWORD PTR [edx+12]
  0001a	8b 4a fc	 mov	 ecx, DWORD PTR [edx-4]
  0001d	33 c8		 xor	 ecx, eax
  0001f	e8 00 00 00 00	 call	 @__security_check_cookie@4
  00024	b8 00 00 00 00	 mov	 eax, OFFSET __ehfuncinfo$?Instance@CTLord@@SAPAV1@XZ
  00029	e9 00 00 00 00	 jmp	 ___CxxFrameHandler3
text$x	ENDS
?Instance@CTLord@@SAPAV1@XZ ENDP			; CTLord::Instance
; Function compile flags: /Ogtp
; File C:\IAGOS\server\v18\Source\Source\DatabaseServer\tlord.cpp
;	COMDAT ??1CTLord@@UAE@XZ
_TEXT	SEGMENT
??1CTLord@@UAE@XZ PROC					; CTLord::~CTLord, COMDAT
; _this$ = ecx

; 26   : {

  00000	c7 01 00 00 00
	00		 mov	 DWORD PTR [ecx], OFFSET ??_7CTLord@@6B@

; 27   : }

  00006	e9 00 00 00 00	 jmp	 ??1CLord@@QAE@XZ	; CLord::~CLord
??1CTLord@@UAE@XZ ENDP					; CTLord::~CTLord
_TEXT	ENDS
; Function compile flags: /Ogtp
; File C:\IAGOS\server\v18\Source\Source\DatabaseServer\tlord.cpp
;	COMDAT ??0CTLord@@QAE@XZ
_TEXT	SEGMENT
_this$ = -4						; size = 4
??0CTLord@@QAE@XZ PROC					; CTLord::CTLord, COMDAT
; _this$ = ecx

; 22   : {

  00000	55		 push	 ebp
  00001	8b ec		 mov	 ebp, esp
  00003	51		 push	 ecx
  00004	56		 push	 esi
  00005	8b f1		 mov	 esi, ecx
  00007	89 75 fc	 mov	 DWORD PTR _this$[ebp], esi
  0000a	e8 00 00 00 00	 call	 ??0CLord@@IAE@XZ	; CLord::CLord
  0000f	c7 06 00 00 00
	00		 mov	 DWORD PTR [esi], OFFSET ??_7CTLord@@6B@

; 23   : }

  00015	8b c6		 mov	 eax, esi
  00017	c7 46 14 00 00
	00 00		 mov	 DWORD PTR [esi+20], 0
  0001e	5e		 pop	 esi
  0001f	8b e5		 mov	 esp, ebp
  00021	5d		 pop	 ebp
  00022	c3		 ret	 0
??0CTLord@@QAE@XZ ENDP					; CTLord::CTLord
_TEXT	ENDS
; Function compile flags: /Ogtp
; File C:\IAGOS\server\v18\Source\Source\_Network\Misc\Include\Ar.h
;	COMDAT ??$?5H@CAr@@QAEAAV0@AAH@Z
_TEXT	SEGMENT
_t$ = 8							; size = 4
??$?5H@CAr@@QAEAAV0@AAH@Z PROC				; CAr::operator>><int>, COMDAT
; _this$ = ecx

; 302  : {

  00000	55		 push	 ebp
  00001	8b ec		 mov	 ebp, esp
  00003	8b d1		 mov	 edx, ecx

; 303  : 	if (m_lpBufCur + sizeof(T) <= m_lpBufMax)

  00005	8b 4a 08	 mov	 ecx, DWORD PTR [edx+8]
  00008	8d 41 04	 lea	 eax, DWORD PTR [ecx+4]
  0000b	3b 42 0c	 cmp	 eax, DWORD PTR [edx+12]
  0000e	8b 45 08	 mov	 eax, DWORD PTR _t$[ebp]
  00011	77 0e		 ja	 SHORT $LN2@operator

; 304  : 	{
; 305  : 		t = *(UNALIGNED T*)m_lpBufCur;

  00013	8b 09		 mov	 ecx, DWORD PTR [ecx]
  00015	89 08		 mov	 DWORD PTR [eax], ecx

; 312  : 	}
; 313  : 	return *this;
; 314  : }

  00017	8b c2		 mov	 eax, edx
  00019	83 42 08 04	 add	 DWORD PTR [edx+8], 4
  0001d	5d		 pop	 ebp
  0001e	c2 04 00	 ret	 4
$LN2@operator:

; 306  : 		m_lpBufCur += sizeof(T);
; 307  : 	}
; 308  : 	else
; 309  : 	{
; 310  : 		t = T();

  00021	c7 00 00 00 00
	00		 mov	 DWORD PTR [eax], 0

; 311  : 		m_lpBufCur = m_lpBufMax;

  00027	8b 42 0c	 mov	 eax, DWORD PTR [edx+12]
  0002a	89 42 08	 mov	 DWORD PTR [edx+8], eax

; 312  : 	}
; 313  : 	return *this;
; 314  : }

  0002d	8b c2		 mov	 eax, edx
  0002f	5d		 pop	 ebp
  00030	c2 04 00	 ret	 4
??$?5H@CAr@@QAEAAV0@AAH@Z ENDP				; CAr::operator>><int>
_TEXT	ENDS
; Function compile flags: /Ogtp
; File C:\Program Files\Microsoft Visual Studio\2022\Professional\VC\Tools\MSVC\14.44.35207\include\vector
;	COMDAT ?_Xlength@?$vector@HV?$allocator@H@std@@@std@@CAXXZ
_TEXT	SEGMENT
?_Xlength@?$vector@HV?$allocator@H@std@@@std@@CAXXZ PROC ; std::vector<int,std::allocator<int> >::_Xlength, COMDAT

; 2184 :         _Xlength_error("vector too long");

  00000	68 00 00 00 00	 push	 OFFSET ??_C@_0BA@FOIKENOD@vector?5too?5long@
  00005	e8 00 00 00 00	 call	 ?_Xlength_error@std@@YAXPBD@Z ; std::_Xlength_error
$LN3@Xlength:
  0000a	cc		 int	 3
?_Xlength@?$vector@HV?$allocator@H@std@@@std@@CAXXZ ENDP ; std::vector<int,std::allocator<int> >::_Xlength
_TEXT	ENDS
; Function compile flags: /Ogtp
; File C:\Program Files\Microsoft Visual Studio\2022\Professional\VC\Tools\MSVC\14.44.35207\include\vector
;	COMDAT ?_Xlength@?$vector@MV?$allocator@M@std@@@std@@CAXXZ
_TEXT	SEGMENT
?_Xlength@?$vector@MV?$allocator@M@std@@@std@@CAXXZ PROC ; std::vector<float,std::allocator<float> >::_Xlength, COMDAT

; 2184 :         _Xlength_error("vector too long");

  00000	68 00 00 00 00	 push	 OFFSET ??_C@_0BA@FOIKENOD@vector?5too?5long@
  00005	e8 00 00 00 00	 call	 ?_Xlength_error@std@@YAXPBD@Z ; std::_Xlength_error
$LN3@Xlength:
  0000a	cc		 int	 3
?_Xlength@?$vector@MV?$allocator@M@std@@@std@@CAXXZ ENDP ; std::vector<float,std::allocator<float> >::_Xlength
_TEXT	ENDS
; Function compile flags: /Ogtp
; File C:\IAGOS\server\v18\Source\Source\_Common\lord.h
;	COMDAT ?DoEndVoteComplete@IElection@@MAEXXZ
_TEXT	SEGMENT
?DoEndVoteComplete@IElection@@MAEXXZ PROC		; IElection::DoEndVoteComplete, COMDAT
; _this$ = ecx

; 94   : 	virtual	void	DoEndVoteComplete( void )	{}

  00000	c2 00 00	 ret	 0
?DoEndVoteComplete@IElection@@MAEXXZ ENDP		; IElection::DoEndVoteComplete
_TEXT	ENDS
; Function compile flags: /Ogtp
; File C:\IAGOS\server\v18\Source\Source\_Common\lord.h
;	COMDAT ?DoIncVoteComplete@IElection@@MAEXXZ
_TEXT	SEGMENT
?DoIncVoteComplete@IElection@@MAEXXZ PROC		; IElection::DoIncVoteComplete, COMDAT
; _this$ = ecx

; 93   : 	virtual	void	DoIncVoteComplete( void )	{}

  00000	c2 00 00	 ret	 0
?DoIncVoteComplete@IElection@@MAEXXZ ENDP		; IElection::DoIncVoteComplete
_TEXT	ENDS
; Function compile flags: /Ogtp
; File C:\IAGOS\server\v18\Source\Source\_Common\lord.h
;	COMDAT ?DoSetPlegeComplete@IElection@@MAEXXZ
_TEXT	SEGMENT
?DoSetPlegeComplete@IElection@@MAEXXZ PROC		; IElection::DoSetPlegeComplete, COMDAT
; _this$ = ecx

; 91   : 	virtual	void	DoSetPlegeComplete( void )		{}

  00000	c2 00 00	 ret	 0
?DoSetPlegeComplete@IElection@@MAEXXZ ENDP		; IElection::DoSetPlegeComplete
_TEXT	ENDS
; Function compile flags: /Ogtp
; File C:\Program Files\Microsoft Visual Studio\2022\Professional\VC\Tools\MSVC\14.44.35207\include\xmemory
;	COMDAT ??$_Allocate_manually_vector_aligned@U_Default_allocate_traits@std@@@std@@YAPAXI@Z
_TEXT	SEGMENT
__Bytes$ = 8						; size = 4
??$_Allocate_manually_vector_aligned@U_Default_allocate_traits@std@@@std@@YAPAXI@Z PROC ; std::_Allocate_manually_vector_aligned<std::_Default_allocate_traits>, COMDAT

; 182  : __declspec(allocator) void* _Allocate_manually_vector_aligned(const size_t _Bytes) {

  00000	55		 push	 ebp
  00001	8b ec		 mov	 ebp, esp

; 183  :     // allocate _Bytes manually aligned to at least _Big_allocation_alignment
; 184  :     const size_t _Block_size = _Non_user_size + _Bytes;

  00003	8b 45 08	 mov	 eax, DWORD PTR __Bytes$[ebp]
  00006	8d 48 23	 lea	 ecx, DWORD PTR [eax+35]

; 185  :     if (_Block_size <= _Bytes) {

  00009	3b c8		 cmp	 ecx, eax
  0000b	0f 86 00 00 00
	00		 jbe	 ?_Throw_bad_array_new_length@std@@YAXXZ ; std::_Throw_bad_array_new_length

; 136  :         return ::operator new(_Bytes);

  00011	51		 push	 ecx
  00012	e8 00 00 00 00	 call	 ??2@YAPAXI@Z		; operator new

; 186  :         _Throw_bad_array_new_length(); // add overflow
; 187  :     }
; 188  : 
; 189  :     const uintptr_t _Ptr_container = reinterpret_cast<uintptr_t>(_Traits::_Allocate(_Block_size));

  00017	8b c8		 mov	 ecx, eax

; 136  :         return ::operator new(_Bytes);

  00019	83 c4 04	 add	 esp, 4

; 190  :     _STL_VERIFY(_Ptr_container != 0, "invalid argument"); // validate even in release since we're doing p[-1]

  0001c	85 c9		 test	 ecx, ecx
  0001e	74 0b		 je	 SHORT $LN9@Allocate_m

; 191  :     void* const _Ptr = reinterpret_cast<void*>((_Ptr_container + _Non_user_size) & ~(_Big_allocation_alignment - 1));

  00020	8d 41 23	 lea	 eax, DWORD PTR [ecx+35]
  00023	83 e0 e0	 and	 eax, -32		; ffffffe0H

; 192  :     static_cast<uintptr_t*>(_Ptr)[-1] = _Ptr_container;

  00026	89 48 fc	 mov	 DWORD PTR [eax-4], ecx

; 193  : 
; 194  : #ifdef _DEBUG
; 195  :     static_cast<uintptr_t*>(_Ptr)[-2] = _Big_allocation_sentinel;
; 196  : #endif // defined(_DEBUG)
; 197  :     return _Ptr;
; 198  : }

  00029	5d		 pop	 ebp
  0002a	c3		 ret	 0
$LN9@Allocate_m:

; 190  :     _STL_VERIFY(_Ptr_container != 0, "invalid argument"); // validate even in release since we're doing p[-1]

  0002b	6a 00		 push	 0
  0002d	6a 00		 push	 0
  0002f	6a 00		 push	 0
  00031	6a 00		 push	 0
  00033	6a 00		 push	 0
  00035	e8 00 00 00 00	 call	 __invoke_watson
$LN7@Allocate_m:
  0003a	cc		 int	 3
??$_Allocate_manually_vector_aligned@U_Default_allocate_traits@std@@@std@@YAPAXI@Z ENDP ; std::_Allocate_manually_vector_aligned<std::_Default_allocate_traits>
_TEXT	ENDS
; Function compile flags: /Ogtp
; File C:\IAGOS\server\v18\Source\Source\_Network\Mcl\Include\CMclAutoLock.h
; File C:\IAGOS\server\v18\Source\Source\_Network\Mcl\Include\CMclCritSec.h
; File C:\IAGOS\server\v18\Source\Source\_Network\Mcl\Include\CMclAutoLock.h
;	COMDAT ??1CMclAutoLock@@QAE@XZ
_TEXT	SEGMENT
??1CMclAutoLock@@QAE@XZ PROC				; CMclAutoLock::~CMclAutoLock, COMDAT
; _this$ = ecx
; File C:\IAGOS\server\v18\Source\Source\_Network\Mcl\Include\CMclCritSec.h

; 39   : 		::LeaveCriticalSection( &m_CritSec );

  00000	8b 01		 mov	 eax, DWORD PTR [ecx]
  00002	83 c0 04	 add	 eax, 4
  00005	50		 push	 eax
  00006	ff 15 00 00 00
	00		 call	 DWORD PTR __imp__LeaveCriticalSection@4
; File C:\IAGOS\server\v18\Source\Source\_Network\Mcl\Include\CMclAutoLock.h

; 29   : 	}

  0000c	c3		 ret	 0
??1CMclAutoLock@@QAE@XZ ENDP				; CMclAutoLock::~CMclAutoLock
_TEXT	ENDS
; Function compile flags: /Ogtp
; File C:\Program Files\Microsoft Visual Studio\2022\Professional\VC\Tools\MSVC\14.44.35207\include\xmemory
;	COMDAT ?_Throw_bad_array_new_length@std@@YAXXZ
_TEXT	SEGMENT
$T1 = -12						; size = 12
?_Throw_bad_array_new_length@std@@YAXXZ PROC		; std::_Throw_bad_array_new_length, COMDAT

; 107  : [[noreturn]] inline void _Throw_bad_array_new_length() {

  00000	55		 push	 ebp
  00001	8b ec		 mov	 ebp, esp
  00003	83 ec 0c	 sub	 esp, 12			; 0000000cH

; 108  :     _THROW(bad_array_new_length{});

  00006	8d 4d f4	 lea	 ecx, DWORD PTR $T1[ebp]
  00009	e8 00 00 00 00	 call	 ??0bad_array_new_length@std@@QAE@XZ ; std::bad_array_new_length::bad_array_new_length
  0000e	68 00 00 00 00	 push	 OFFSET __TI3?AVbad_array_new_length@std@@
  00013	8d 45 f4	 lea	 eax, DWORD PTR $T1[ebp]
  00016	50		 push	 eax
  00017	e8 00 00 00 00	 call	 __CxxThrowException@8
$LN3@Throw_bad_:
  0001c	cc		 int	 3
?_Throw_bad_array_new_length@std@@YAXXZ ENDP		; std::_Throw_bad_array_new_length
_TEXT	ENDS
; Function compile flags: /Ogtp
; File C:\Program Files\Microsoft Visual Studio\2022\Professional\VC\Tools\MSVC\14.44.35207\include\vcruntime_exception.h
;	COMDAT ??_Gbad_array_new_length@std@@UAEPAXI@Z
_TEXT	SEGMENT
___flags$ = 8						; size = 4
??_Gbad_array_new_length@std@@UAEPAXI@Z PROC		; std::bad_array_new_length::`scalar deleting destructor', COMDAT
; _this$ = ecx
  00000	55		 push	 ebp
  00001	8b ec		 mov	 ebp, esp

; 90   :     {

  00003	56		 push	 esi
  00004	8b f1		 mov	 esi, ecx

; 91   :         __std_exception_destroy(&_Data);

  00006	8d 46 04	 lea	 eax, DWORD PTR [esi+4]
  00009	c7 06 00 00 00
	00		 mov	 DWORD PTR [esi], OFFSET ??_7exception@std@@6B@
  0000f	50		 push	 eax
  00010	e8 00 00 00 00	 call	 ___std_exception_destroy
  00015	83 c4 04	 add	 esp, 4
  00018	f6 45 08 01	 test	 BYTE PTR ___flags$[ebp], 1
  0001c	74 0b		 je	 SHORT $LN18@scalar
  0001e	6a 0c		 push	 12			; 0000000cH
  00020	56		 push	 esi
  00021	e8 00 00 00 00	 call	 ??3@YAXPAXI@Z		; operator delete
  00026	83 c4 08	 add	 esp, 8
$LN18@scalar:
  00029	8b c6		 mov	 eax, esi
  0002b	5e		 pop	 esi
  0002c	5d		 pop	 ebp
  0002d	c2 04 00	 ret	 4
??_Gbad_array_new_length@std@@UAEPAXI@Z ENDP		; std::bad_array_new_length::`scalar deleting destructor'
_TEXT	ENDS
; Function compile flags: /Ogtp
; File C:\Program Files\Microsoft Visual Studio\2022\Professional\VC\Tools\MSVC\14.44.35207\include\vcruntime_exception.h
;	COMDAT ??0bad_array_new_length@std@@QAE@ABV01@@Z
_TEXT	SEGMENT
___that$ = 8						; size = 4
??0bad_array_new_length@std@@QAE@ABV01@@Z PROC		; std::bad_array_new_length::bad_array_new_length, COMDAT
; _this$ = ecx
  00000	55		 push	 ebp
  00001	8b ec		 mov	 ebp, esp

; 73   :     {

  00003	56		 push	 esi
  00004	8b f1		 mov	 esi, ecx
  00006	0f 57 c0	 xorps	 xmm0, xmm0

; 72   :         : _Data()

  00009	8d 46 04	 lea	 eax, DWORD PTR [esi+4]

; 74   :         __std_exception_copy(&_Other._Data, &_Data);

  0000c	50		 push	 eax
  0000d	c7 06 00 00 00
	00		 mov	 DWORD PTR [esi], OFFSET ??_7exception@std@@6B@
  00013	66 0f d6 00	 movq	 QWORD PTR [eax], xmm0
  00017	8b 45 08	 mov	 eax, DWORD PTR ___that$[ebp]
  0001a	83 c0 04	 add	 eax, 4
  0001d	50		 push	 eax
  0001e	e8 00 00 00 00	 call	 ___std_exception_copy
  00023	83 c4 08	 add	 esp, 8
  00026	c7 06 00 00 00
	00		 mov	 DWORD PTR [esi], OFFSET ??_7bad_array_new_length@std@@6B@
  0002c	8b c6		 mov	 eax, esi
  0002e	5e		 pop	 esi
  0002f	5d		 pop	 ebp
  00030	c2 04 00	 ret	 4
??0bad_array_new_length@std@@QAE@ABV01@@Z ENDP		; std::bad_array_new_length::bad_array_new_length
_TEXT	ENDS
; Function compile flags: /Ogtp
; File C:\Program Files\Microsoft Visual Studio\2022\Professional\VC\Tools\MSVC\14.44.35207\include\vcruntime_exception.h
;	COMDAT ??1bad_array_new_length@std@@UAE@XZ
_TEXT	SEGMENT
??1bad_array_new_length@std@@UAE@XZ PROC		; std::bad_array_new_length::~bad_array_new_length, COMDAT
; _this$ = ecx

; 91   :         __std_exception_destroy(&_Data);

  00000	8d 41 04	 lea	 eax, DWORD PTR [ecx+4]
  00003	c7 01 00 00 00
	00		 mov	 DWORD PTR [ecx], OFFSET ??_7exception@std@@6B@
  00009	50		 push	 eax
  0000a	e8 00 00 00 00	 call	 ___std_exception_destroy
  0000f	59		 pop	 ecx
  00010	c3		 ret	 0
??1bad_array_new_length@std@@UAE@XZ ENDP		; std::bad_array_new_length::~bad_array_new_length
_TEXT	ENDS
; Function compile flags: /Ogtp
; File C:\Program Files\Microsoft Visual Studio\2022\Professional\VC\Tools\MSVC\14.44.35207\include\vcruntime_exception.h
;	COMDAT ??0bad_array_new_length@std@@QAE@XZ
_TEXT	SEGMENT
??0bad_array_new_length@std@@QAE@XZ PROC		; std::bad_array_new_length::bad_array_new_length, COMDAT
; _this$ = ecx

; 144  :     {

  00000	0f 57 c0	 xorps	 xmm0, xmm0

; 145  :     }

  00003	8b c1		 mov	 eax, ecx

; 66   :         : _Data()

  00005	66 0f d6 41 04	 movq	 QWORD PTR [ecx+4], xmm0

; 67   :     {
; 68   :         _Data._What = _Message;

  0000a	c7 41 04 00 00
	00 00		 mov	 DWORD PTR [ecx+4], OFFSET ??_C@_0BF@KINCDENJ@bad?5array?5new?5length@

; 144  :     {

  00011	c7 01 00 00 00
	00		 mov	 DWORD PTR [ecx], OFFSET ??_7bad_array_new_length@std@@6B@

; 145  :     }

  00017	c3		 ret	 0
??0bad_array_new_length@std@@QAE@XZ ENDP		; std::bad_array_new_length::bad_array_new_length
_TEXT	ENDS
; Function compile flags: /Ogtp
; File C:\Program Files\Microsoft Visual Studio\2022\Professional\VC\Tools\MSVC\14.44.35207\include\vcruntime_exception.h
;	COMDAT ??_Gbad_alloc@std@@UAEPAXI@Z
_TEXT	SEGMENT
___flags$ = 8						; size = 4
??_Gbad_alloc@std@@UAEPAXI@Z PROC			; std::bad_alloc::`scalar deleting destructor', COMDAT
; _this$ = ecx
  00000	55		 push	 ebp
  00001	8b ec		 mov	 ebp, esp

; 90   :     {

  00003	56		 push	 esi
  00004	8b f1		 mov	 esi, ecx

; 91   :         __std_exception_destroy(&_Data);

  00006	8d 46 04	 lea	 eax, DWORD PTR [esi+4]
  00009	c7 06 00 00 00
	00		 mov	 DWORD PTR [esi], OFFSET ??_7exception@std@@6B@
  0000f	50		 push	 eax
  00010	e8 00 00 00 00	 call	 ___std_exception_destroy
  00015	83 c4 04	 add	 esp, 4
  00018	f6 45 08 01	 test	 BYTE PTR ___flags$[ebp], 1
  0001c	74 0b		 je	 SHORT $LN13@scalar
  0001e	6a 0c		 push	 12			; 0000000cH
  00020	56		 push	 esi
  00021	e8 00 00 00 00	 call	 ??3@YAXPAXI@Z		; operator delete
  00026	83 c4 08	 add	 esp, 8
$LN13@scalar:
  00029	8b c6		 mov	 eax, esi
  0002b	5e		 pop	 esi
  0002c	5d		 pop	 ebp
  0002d	c2 04 00	 ret	 4
??_Gbad_alloc@std@@UAEPAXI@Z ENDP			; std::bad_alloc::`scalar deleting destructor'
_TEXT	ENDS
; Function compile flags: /Ogtp
; File C:\Program Files\Microsoft Visual Studio\2022\Professional\VC\Tools\MSVC\14.44.35207\include\vcruntime_exception.h
;	COMDAT ??0bad_alloc@std@@QAE@ABV01@@Z
_TEXT	SEGMENT
___that$ = 8						; size = 4
??0bad_alloc@std@@QAE@ABV01@@Z PROC			; std::bad_alloc::bad_alloc, COMDAT
; _this$ = ecx
  00000	55		 push	 ebp
  00001	8b ec		 mov	 ebp, esp

; 73   :     {

  00003	56		 push	 esi
  00004	8b f1		 mov	 esi, ecx
  00006	0f 57 c0	 xorps	 xmm0, xmm0

; 72   :         : _Data()

  00009	8d 46 04	 lea	 eax, DWORD PTR [esi+4]

; 74   :         __std_exception_copy(&_Other._Data, &_Data);

  0000c	50		 push	 eax
  0000d	c7 06 00 00 00
	00		 mov	 DWORD PTR [esi], OFFSET ??_7exception@std@@6B@
  00013	66 0f d6 00	 movq	 QWORD PTR [eax], xmm0
  00017	8b 45 08	 mov	 eax, DWORD PTR ___that$[ebp]
  0001a	83 c0 04	 add	 eax, 4
  0001d	50		 push	 eax
  0001e	e8 00 00 00 00	 call	 ___std_exception_copy
  00023	83 c4 08	 add	 esp, 8
  00026	c7 06 00 00 00
	00		 mov	 DWORD PTR [esi], OFFSET ??_7bad_alloc@std@@6B@
  0002c	8b c6		 mov	 eax, esi
  0002e	5e		 pop	 esi
  0002f	5d		 pop	 ebp
  00030	c2 04 00	 ret	 4
??0bad_alloc@std@@QAE@ABV01@@Z ENDP			; std::bad_alloc::bad_alloc
_TEXT	ENDS
; Function compile flags: /Ogtp
; File C:\Program Files\Microsoft Visual Studio\2022\Professional\VC\Tools\MSVC\14.44.35207\include\vcruntime_exception.h
;	COMDAT ??_Gexception@std@@UAEPAXI@Z
_TEXT	SEGMENT
___flags$ = 8						; size = 4
??_Gexception@std@@UAEPAXI@Z PROC			; std::exception::`scalar deleting destructor', COMDAT
; _this$ = ecx
  00000	55		 push	 ebp
  00001	8b ec		 mov	 ebp, esp

; 90   :     {

  00003	56		 push	 esi
  00004	8b f1		 mov	 esi, ecx

; 91   :         __std_exception_destroy(&_Data);

  00006	8d 46 04	 lea	 eax, DWORD PTR [esi+4]
  00009	c7 06 00 00 00
	00		 mov	 DWORD PTR [esi], OFFSET ??_7exception@std@@6B@
  0000f	50		 push	 eax
  00010	e8 00 00 00 00	 call	 ___std_exception_destroy
  00015	83 c4 04	 add	 esp, 4
  00018	f6 45 08 01	 test	 BYTE PTR ___flags$[ebp], 1
  0001c	74 0b		 je	 SHORT $LN8@scalar
  0001e	6a 0c		 push	 12			; 0000000cH
  00020	56		 push	 esi
  00021	e8 00 00 00 00	 call	 ??3@YAXPAXI@Z		; operator delete
  00026	83 c4 08	 add	 esp, 8
$LN8@scalar:
  00029	8b c6		 mov	 eax, esi
  0002b	5e		 pop	 esi
  0002c	5d		 pop	 ebp
  0002d	c2 04 00	 ret	 4
??_Gexception@std@@UAEPAXI@Z ENDP			; std::exception::`scalar deleting destructor'
_TEXT	ENDS
; Function compile flags: /Ogtp
; File C:\Program Files\Microsoft Visual Studio\2022\Professional\VC\Tools\MSVC\14.44.35207\include\vcruntime_exception.h
;	COMDAT ?what@exception@std@@UBEPBDXZ
_TEXT	SEGMENT
?what@exception@std@@UBEPBDXZ PROC			; std::exception::what, COMDAT
; _this$ = ecx

; 96   :         return _Data._What ? _Data._What : "Unknown exception";

  00000	8b 49 04	 mov	 ecx, DWORD PTR [ecx+4]
  00003	b8 00 00 00 00	 mov	 eax, OFFSET ??_C@_0BC@EOODALEL@Unknown?5exception@
  00008	85 c9		 test	 ecx, ecx
  0000a	0f 45 c1	 cmovne	 eax, ecx

; 97   :     }

  0000d	c3		 ret	 0
?what@exception@std@@UBEPBDXZ ENDP			; std::exception::what
_TEXT	ENDS
; Function compile flags: /Ogtp
; File C:\Program Files\Microsoft Visual Studio\2022\Professional\VC\Tools\MSVC\14.44.35207\include\vcruntime_exception.h
;	COMDAT ??1exception@std@@UAE@XZ
_TEXT	SEGMENT
??1exception@std@@UAE@XZ PROC				; std::exception::~exception, COMDAT
; _this$ = ecx

; 91   :         __std_exception_destroy(&_Data);

  00000	8d 41 04	 lea	 eax, DWORD PTR [ecx+4]
  00003	c7 01 00 00 00
	00		 mov	 DWORD PTR [ecx], OFFSET ??_7exception@std@@6B@
  00009	50		 push	 eax
  0000a	e8 00 00 00 00	 call	 ___std_exception_destroy
  0000f	59		 pop	 ecx

; 92   :     }

  00010	c3		 ret	 0
??1exception@std@@UAE@XZ ENDP				; std::exception::~exception
_TEXT	ENDS
; Function compile flags: /Ogtp
; File C:\Program Files\Microsoft Visual Studio\2022\Professional\VC\Tools\MSVC\14.44.35207\include\vcruntime_exception.h
;	COMDAT ??0exception@std@@QAE@ABV01@@Z
_TEXT	SEGMENT
__Other$ = 8						; size = 4
??0exception@std@@QAE@ABV01@@Z PROC			; std::exception::exception, COMDAT
; _this$ = ecx

; 73   :     {

  00000	55		 push	 ebp
  00001	8b ec		 mov	 ebp, esp
  00003	56		 push	 esi
  00004	8b f1		 mov	 esi, ecx
  00006	0f 57 c0	 xorps	 xmm0, xmm0
  00009	8d 46 04	 lea	 eax, DWORD PTR [esi+4]

; 74   :         __std_exception_copy(&_Other._Data, &_Data);

  0000c	50		 push	 eax
  0000d	c7 06 00 00 00
	00		 mov	 DWORD PTR [esi], OFFSET ??_7exception@std@@6B@
  00013	66 0f d6 00	 movq	 QWORD PTR [eax], xmm0
  00017	8b 45 08	 mov	 eax, DWORD PTR __Other$[ebp]
  0001a	83 c0 04	 add	 eax, 4
  0001d	50		 push	 eax
  0001e	e8 00 00 00 00	 call	 ___std_exception_copy
  00023	83 c4 08	 add	 esp, 8

; 75   :     }

  00026	8b c6		 mov	 eax, esi
  00028	5e		 pop	 esi
  00029	5d		 pop	 ebp
  0002a	c2 04 00	 ret	 4
??0exception@std@@QAE@ABV01@@Z ENDP			; std::exception::exception
_TEXT	ENDS
; Function compile flags: /Ogtp
; File C:\Program Files\Microsoft Visual Studio\2022\Professional\VC\Tools\MSVC\14.44.35207\atlmfc\include\cstringt.h
; File C:\Program Files\Microsoft Visual Studio\2022\Professional\VC\Tools\MSVC\14.44.35207\atlmfc\include\afxstr.h
; File C:\Program Files\Microsoft Visual Studio\2022\Professional\VC\Tools\MSVC\14.44.35207\atlmfc\include\cstringt.h
; File C:\Program Files\Microsoft Visual Studio\2022\Professional\VC\Tools\MSVC\14.44.35207\atlmfc\include\afxstr.h
; File C:\Program Files\Microsoft Visual Studio\2022\Professional\VC\Tools\MSVC\14.44.35207\atlmfc\include\cstringt.h
; File C:\Program Files\Microsoft Visual Studio\2022\Professional\VC\Tools\MSVC\14.44.35207\atlmfc\include\atlcore.h
; File C:\Program Files\Microsoft Visual Studio\2022\Professional\VC\Tools\MSVC\14.44.35207\atlmfc\include\cstringt.h
; File C:\Program Files\Microsoft Visual Studio\2022\Professional\VC\Tools\MSVC\14.44.35207\atlmfc\include\atlsimpstr.h
; File C:\Program Files\Microsoft Visual Studio\2022\Professional\VC\Tools\MSVC\14.44.35207\atlmfc\include\cstringt.h
; File C:\Program Files\Microsoft Visual Studio\2022\Professional\VC\Tools\MSVC\14.44.35207\atlmfc\include\atlsimpstr.h
; File C:\Program Files\Microsoft Visual Studio\2022\Professional\VC\Tools\MSVC\14.44.35207\atlmfc\include\cstringt.h
; File C:\Program Files\Microsoft Visual Studio\2022\Professional\VC\Tools\MSVC\14.44.35207\atlmfc\include\atlsimpstr.h
; File C:\Program Files\Microsoft Visual Studio\2022\Professional\VC\Tools\MSVC\14.44.35207\atlmfc\include\cstringt.h
; File C:\Program Files\Microsoft Visual Studio\2022\Professional\VC\Tools\MSVC\14.44.35207\atlmfc\include\atlsimpstr.h
; File C:\Program Files\Microsoft Visual Studio\2022\Professional\VC\Tools\MSVC\14.44.35207\atlmfc\include\cstringt.h
;	COMDAT ?LoadStringA@?$CStringT@DV?$StrTraitMFC@DV?$ChTraitsCRT@D@ATL@@@@@ATL@@QAEHI@Z
_TEXT	SEGMENT
_this$1$ = -4						; size = 4
_nID$ = 8						; size = 4
_hResource$1$ = 8					; size = 4
?LoadStringA@?$CStringT@DV?$StrTraitMFC@DV?$ChTraitsCRT@D@ATL@@@@@ATL@@QAEHI@Z PROC ; ATL::CStringT<char,StrTraitMFC<char,ATL::ChTraitsCRT<char> > >::LoadStringA, COMDAT
; _this$ = ecx

; 2340 : 	{

  00000	55		 push	 ebp
  00001	8b ec		 mov	 ebp, esp
  00003	51		 push	 ecx
  00004	53		 push	 ebx
  00005	57		 push	 edi
; File C:\Program Files\Microsoft Visual Studio\2022\Professional\VC\Tools\MSVC\14.44.35207\atlmfc\include\afxstr.h

; 51   : 		return( AfxFindStringResourceHandle( nID ) );

  00006	8b 7d 08	 mov	 edi, DWORD PTR _nID$[ebp]
  00009	57		 push	 edi
; File C:\Program Files\Microsoft Visual Studio\2022\Professional\VC\Tools\MSVC\14.44.35207\atlmfc\include\cstringt.h

; 2340 : 	{

  0000a	89 4d fc	 mov	 DWORD PTR _this$1$[ebp], ecx
; File C:\Program Files\Microsoft Visual Studio\2022\Professional\VC\Tools\MSVC\14.44.35207\atlmfc\include\afxstr.h

; 51   : 		return( AfxFindStringResourceHandle( nID ) );

  0000d	e8 00 00 00 00	 call	 ?AfxFindStringResourceHandle@@YGPAUHINSTANCE__@@I@Z ; AfxFindStringResourceHandle
; File C:\Program Files\Microsoft Visual Studio\2022\Professional\VC\Tools\MSVC\14.44.35207\atlmfc\include\cstringt.h

; 2341 : 		HINSTANCE hInstance = StringTraits::FindStringResourceInstance( nID );

  00012	8b d8		 mov	 ebx, eax

; 2342 : 		if( hInstance == NULL )

  00014	85 db		 test	 ebx, ebx
  00016	75 08		 jne	 SHORT $LN2@LoadString

; 2348 : 	}

  00018	5f		 pop	 edi
  00019	5b		 pop	 ebx
  0001a	8b e5		 mov	 esp, ebp
  0001c	5d		 pop	 ebp
  0001d	c2 04 00	 ret	 4
$LN2@LoadString:
; File C:\Program Files\Microsoft Visual Studio\2022\Professional\VC\Tools\MSVC\14.44.35207\atlmfc\include\atlcore.h

; 380  : 	hResource = ::FindResourceW(hInstance, MAKEINTRESOURCEW( (((id>>4)+1) & static_cast<WORD>(~0)) ), (LPWSTR) RT_STRING);

  00020	8b c7		 mov	 eax, edi
  00022	c1 e8 04	 shr	 eax, 4
  00025	56		 push	 esi
  00026	40		 inc	 eax
  00027	6a 06		 push	 6
  00029	0f b7 c0	 movzx	 eax, ax
  0002c	50		 push	 eax
  0002d	53		 push	 ebx
  0002e	ff 15 00 00 00
	00		 call	 DWORD PTR __imp__FindResourceW@12
  00034	89 45 08	 mov	 DWORD PTR _hResource$1$[ebp], eax

; 381  : 	if( hResource == NULL )

  00037	85 c0		 test	 eax, eax
  00039	0f 84 cc 00 00
	00		 je	 $LN51@LoadString

; 338  : 	hGlobal = ::LoadResource( hInstance, hResource );

  0003f	50		 push	 eax
  00040	53		 push	 ebx
  00041	ff 15 00 00 00
	00		 call	 DWORD PTR __imp__LoadResource@8

; 339  : 	if( hGlobal == NULL )

  00047	85 c0		 test	 eax, eax
  00049	75 04		 jne	 SHORT $LN15@LoadString

; 340  : 	{
; 341  : 		return( NULL );

  0004b	33 f6		 xor	 esi, esi
  0004d	eb 43		 jmp	 SHORT $LN18@LoadString
$LN15@LoadString:

; 342  : 	}
; 343  : 
; 344  : 	pImage = (const ATLSTRINGRESOURCEIMAGE*)::LockResource( hGlobal );

  0004f	50		 push	 eax
  00050	ff 15 00 00 00
	00		 call	 DWORD PTR __imp__LockResource@4
  00056	8b f0		 mov	 esi, eax

; 345  : 	if( pImage == NULL )

  00058	85 f6		 test	 esi, esi
  0005a	74 36		 je	 SHORT $LN18@LoadString
$LN16@LoadString:

; 346  : 	{
; 347  : 		return( NULL );
; 348  : 	}
; 349  : 
; 350  : 	nResourceSize = ::SizeofResource( hInstance, hResource );

  0005c	ff 75 08	 push	 DWORD PTR _hResource$1$[ebp]
  0005f	53		 push	 ebx
  00060	ff 15 00 00 00
	00		 call	 DWORD PTR __imp__SizeofResource@8

; 351  : 	pImageEnd = (const ATLSTRINGRESOURCEIMAGE*)(LPBYTE( pImage )+nResourceSize);

  00066	8d 0c 06	 lea	 ecx, DWORD PTR [esi+eax]

; 352  : 	iIndex = id&0x000f;

  00069	83 e7 0f	 and	 edi, 15			; 0000000fH

; 353  : 
; 354  : 	while( (iIndex > 0) && (pImage < pImageEnd) )

  0006c	76 14		 jbe	 SHORT $LN14@LoadString
  0006e	66 90		 npad	 2
$LL13@LoadString:
  00070	3b f1		 cmp	 esi, ecx
  00072	73 12		 jae	 SHORT $LN50@LoadString

; 355  : 	{
; 356  : 		pImage = (const ATLSTRINGRESOURCEIMAGE*)(LPBYTE( pImage )+(sizeof( ATLSTRINGRESOURCEIMAGE )+(pImage->nLength*sizeof( WCHAR ))));

  00074	0f b7 06	 movzx	 eax, WORD PTR [esi]
  00077	8d 34 46	 lea	 esi, DWORD PTR [esi+eax*2]
  0007a	83 c6 02	 add	 esi, 2

; 357  : 		iIndex--;

  0007d	83 ef 01	 sub	 edi, 1
  00080	75 ee		 jne	 SHORT $LL13@LoadString
$LN14@LoadString:

; 358  : 	}
; 359  : 	if( pImage >= pImageEnd )

  00082	3b f1		 cmp	 esi, ecx
  00084	72 04		 jb	 SHORT $LN17@LoadString
$LN50@LoadString:

; 360  : 	{
; 361  : 		return( NULL );

  00086	33 f6		 xor	 esi, esi
  00088	eb 08		 jmp	 SHORT $LN18@LoadString
$LN17@LoadString:

; 362  : 	}
; 363  : 	if( pImage->nLength == 0 )

  0008a	33 c0		 xor	 eax, eax
  0008c	66 39 06	 cmp	 WORD PTR [esi], ax
  0008f	0f 44 f0	 cmove	 esi, eax
$LN18@LoadString:
; File C:\Program Files\Microsoft Visual Studio\2022\Professional\VC\Tools\MSVC\14.44.35207\atlmfc\include\cstringt.h

; 2356 : 		if( pImage == NULL )

  00092	85 f6		 test	 esi, esi
  00094	74 75		 je	 SHORT $LN51@LoadString

; 2359 : 		}
; 2360 : 
; 2361 : 		int nLength = StringTraits::GetBaseTypeLength( pImage->achString, pImage->nLength );

  00096	0f b7 06	 movzx	 eax, WORD PTR [esi]
  00099	8d 4e 02	 lea	 ecx, DWORD PTR [esi+2]

; 350  : 		return ::WideCharToMultiByte( _AtlGetConversionACP(), 0, pszSource, nLength, NULL, 0, NULL, NULL );

  0009c	6a 00		 push	 0
  0009e	6a 00		 push	 0
  000a0	6a 00		 push	 0
  000a2	6a 00		 push	 0
  000a4	50		 push	 eax
  000a5	51		 push	 ecx
  000a6	6a 00		 push	 0
  000a8	6a 03		 push	 3
  000aa	ff 15 00 00 00
	00		 call	 DWORD PTR __imp__WideCharToMultiByte@32

; 2361 : 		int nLength = StringTraits::GetBaseTypeLength( pImage->achString, pImage->nLength );

  000b0	8b f8		 mov	 edi, eax
; File C:\Program Files\Microsoft Visual Studio\2022\Professional\VC\Tools\MSVC\14.44.35207\atlmfc\include\atlsimpstr.h

; 808  : 		if (nLength < 0)

  000b2	85 ff		 test	 edi, edi
  000b4	78 60		 js	 SHORT $LN38@LoadString

; 804  : 		return( reinterpret_cast< CStringData* >( m_pszData )-1 );

  000b6	8b 5d fc	 mov	 ebx, DWORD PTR _this$1$[ebp]

; 812  : 		int nShared = 1-pOldData->nRefs;  // nShared < 0 means true, >= 0 means false

  000b9	ba 01 00 00 00	 mov	 edx, 1

; 804  : 		return( reinterpret_cast< CStringData* >( m_pszData )-1 );

  000be	8b 0b		 mov	 ecx, DWORD PTR [ebx]

; 812  : 		int nShared = 1-pOldData->nRefs;  // nShared < 0 means true, >= 0 means false

  000c0	2b 51 fc	 sub	 edx, DWORD PTR [ecx-4]

; 813  : 		int nTooShort = pOldData->nAllocLength-nLength;  // nTooShort < 0 means true, >= 0 means false

  000c3	8b 49 f8	 mov	 ecx, DWORD PTR [ecx-8]
  000c6	2b cf		 sub	 ecx, edi

; 814  : 		if( (nShared|nTooShort) < 0 )  // If either sign bit is set (i.e. either is less than zero), we need to copy data

  000c8	0b d1		 or	 edx, ecx
  000ca	7d 08		 jge	 SHORT $LN26@LoadString

; 815  : 		{
; 816  : 			PrepareWrite2( nLength );

  000cc	57		 push	 edi
  000cd	8b cb		 mov	 ecx, ebx
  000cf	e8 00 00 00 00	 call	 ?PrepareWrite2@?$CSimpleStringT@D$0A@@ATL@@AAEXH@Z ; ATL::CSimpleStringT<char,0>::PrepareWrite2
$LN26@LoadString:
; File C:\Program Files\Microsoft Visual Studio\2022\Professional\VC\Tools\MSVC\14.44.35207\atlmfc\include\cstringt.h

; 2363 : 		StringTraits::ConvertToBaseType( pszBuffer, nLength, pImage->achString, pImage->nLength );

  000d4	0f b7 06	 movzx	 eax, WORD PTR [esi]

; 372  : 		::WideCharToMultiByte( _AtlGetConversionACP(), 0, pszSrc, nSrcLength, pszDest, nDestLength, NULL, NULL );

  000d7	6a 00		 push	 0
  000d9	6a 00		 push	 0
  000db	57		 push	 edi
  000dc	ff 33		 push	 DWORD PTR [ebx]
  000de	50		 push	 eax
  000df	8d 46 02	 lea	 eax, DWORD PTR [esi+2]
  000e2	50		 push	 eax
  000e3	6a 00		 push	 0
  000e5	6a 03		 push	 3
  000e7	ff 15 00 00 00
	00		 call	 DWORD PTR __imp__WideCharToMultiByte@32
; File C:\Program Files\Microsoft Visual Studio\2022\Professional\VC\Tools\MSVC\14.44.35207\atlmfc\include\atlsimpstr.h

; 875  : 		if( nLength < 0 || nLength > GetData()->nAllocLength)

  000ed	8b 03		 mov	 eax, DWORD PTR [ebx]
  000ef	3b 78 f8	 cmp	 edi, DWORD PTR [eax-8]
  000f2	7f 22		 jg	 SHORT $LN38@LoadString

; 877  : 
; 878  : 		GetData()->nDataLength = nLength;

  000f4	89 78 f4	 mov	 DWORD PTR [eax-12], edi

; 879  : 		m_pszData[nLength] = 0;

  000f7	8b 03		 mov	 eax, DWORD PTR [ebx]
; File C:\Program Files\Microsoft Visual Studio\2022\Professional\VC\Tools\MSVC\14.44.35207\atlmfc\include\cstringt.h

; 2347 : 		return( LoadString( hInstance, nID ) );

  000f9	5e		 pop	 esi
; File C:\Program Files\Microsoft Visual Studio\2022\Professional\VC\Tools\MSVC\14.44.35207\atlmfc\include\atlsimpstr.h

; 879  : 		m_pszData[nLength] = 0;

  000fa	c6 04 07 00	 mov	 BYTE PTR [edi+eax], 0
; File C:\Program Files\Microsoft Visual Studio\2022\Professional\VC\Tools\MSVC\14.44.35207\atlmfc\include\cstringt.h

; 2366 : 		return( TRUE );

  000fe	b8 01 00 00 00	 mov	 eax, 1
  00103	5f		 pop	 edi

; 2348 : 	}

  00104	5b		 pop	 ebx
  00105	8b e5		 mov	 esp, ebp
  00107	5d		 pop	 ebp
  00108	c2 04 00	 ret	 4
$LN51@LoadString:

; 2347 : 		return( LoadString( hInstance, nID ) );

  0010b	5e		 pop	 esi
  0010c	5f		 pop	 edi

; 2358 : 			return( FALSE );

  0010d	33 c0		 xor	 eax, eax

; 2348 : 	}

  0010f	5b		 pop	 ebx
  00110	8b e5		 mov	 esp, ebp
  00112	5d		 pop	 ebp
  00113	c2 04 00	 ret	 4
$LN38@LoadString:
; File C:\Program Files\Microsoft Visual Studio\2022\Professional\VC\Tools\MSVC\14.44.35207\atlmfc\include\atlsimpstr.h

; 876  : 			AtlThrow(E_INVALIDARG);

  00116	68 57 00 07 80	 push	 -2147024809		; 80070057H
  0011b	e8 00 00 00 00	 call	 ?AtlThrowImpl@ATL@@YGXJ@Z ; ATL::AtlThrowImpl
$LN63@LoadString:
  00120	cc		 int	 3
?LoadStringA@?$CStringT@DV?$StrTraitMFC@DV?$ChTraitsCRT@D@ATL@@@@@ATL@@QAEHI@Z ENDP ; ATL::CStringT<char,StrTraitMFC<char,ATL::ChTraitsCRT<char> > >::LoadStringA
_TEXT	ENDS
; Function compile flags: /Ogtp
; File C:\Program Files\Microsoft Visual Studio\2022\Professional\VC\Tools\MSVC\14.44.35207\atlmfc\include\cstringt.h
; File C:\Program Files\Microsoft Visual Studio\2022\Professional\VC\Tools\MSVC\14.44.35207\atlmfc\include\atlsimpstr.h
; File C:\Program Files\Microsoft Visual Studio\2022\Professional\VC\Tools\MSVC\14.44.35207\atlmfc\include\cstringt.h
;	COMDAT ??1?$CStringT@DV?$StrTraitMFC@DV?$ChTraitsCRT@D@ATL@@@@@ATL@@QAE@XZ
_TEXT	SEGMENT
??1?$CStringT@DV?$StrTraitMFC@DV?$ChTraitsCRT@D@ATL@@@@@ATL@@QAE@XZ PROC ; ATL::CStringT<char,StrTraitMFC<char,ATL::ChTraitsCRT<char> > >::~CStringT<char,StrTraitMFC<char,ATL::ChTraitsCRT<char> > >, COMDAT
; _this$ = ecx
; File C:\Program Files\Microsoft Visual Studio\2022\Professional\VC\Tools\MSVC\14.44.35207\atlmfc\include\atlsimpstr.h

; 804  : 		return( reinterpret_cast< CStringData* >( m_pszData )-1 );

  00000	8b 11		 mov	 edx, DWORD PTR [ecx]

; 92   : 		if( _InterlockedDecrement( &nRefs ) <= 0 )

  00002	83 c8 ff	 or	 eax, -1

; 804  : 		return( reinterpret_cast< CStringData* >( m_pszData )-1 );

  00005	83 ea 10	 sub	 edx, 16			; 00000010H

; 92   : 		if( _InterlockedDecrement( &nRefs ) <= 0 )

  00008	f0 0f c1 42 0c	 lock	  xadd	 DWORD PTR [edx+12], eax
  0000d	48		 dec	 eax
  0000e	85 c0		 test	 eax, eax
  00010	7f 08		 jg	 SHORT $LN8@CStringT

; 93   : 		{
; 94   : 			pStringMgr->Free( this );

  00012	8b 0a		 mov	 ecx, DWORD PTR [edx]
  00014	52		 push	 edx
  00015	8b 01		 mov	 eax, DWORD PTR [ecx]
  00017	ff 50 04	 call	 DWORD PTR [eax+4]
$LN8@CStringT:
; File C:\Program Files\Microsoft Visual Studio\2022\Professional\VC\Tools\MSVC\14.44.35207\atlmfc\include\cstringt.h

; 1303 : 	}

  0001a	c3		 ret	 0
??1?$CStringT@DV?$StrTraitMFC@DV?$ChTraitsCRT@D@ATL@@@@@ATL@@QAE@XZ ENDP ; ATL::CStringT<char,StrTraitMFC<char,ATL::ChTraitsCRT<char> > >::~CStringT<char,StrTraitMFC<char,ATL::ChTraitsCRT<char> > >
_TEXT	ENDS
; Function compile flags: /Ogtp
; File C:\Program Files\Microsoft Visual Studio\2022\Professional\VC\Tools\MSVC\14.44.35207\atlmfc\include\atlsimpstr.h
;	COMDAT ?Reallocate@?$CSimpleStringT@D$0A@@ATL@@AAEXH@Z
_TEXT	SEGMENT
_nLength$ = 8						; size = 4
?Reallocate@?$CSimpleStringT@D$0A@@ATL@@AAEXH@Z PROC	; ATL::CSimpleStringT<char,0>::Reallocate, COMDAT
; _this$ = ecx

; 853  : 	{

  00000	55		 push	 ebp
  00001	8b ec		 mov	 ebp, esp
  00003	56		 push	 esi

; 854  : 		CStringData* pOldData = GetData();
; 855  : 		ATLASSERT( pOldData->nAllocLength < nLength );
; 856  : 		IAtlStringMgr* pStringMgr = pOldData->pStringMgr;
; 857  : 		if ( pOldData->nAllocLength >= nLength || nLength <= 0)

  00004	8b 75 08	 mov	 esi, DWORD PTR _nLength$[ebp]
  00007	57		 push	 edi
  00008	8b f9		 mov	 edi, ecx

; 804  : 		return( reinterpret_cast< CStringData* >( m_pszData )-1 );

  0000a	8b 17		 mov	 edx, DWORD PTR [edi]
  0000c	83 ea 10	 sub	 edx, 16			; 00000010H

; 854  : 		CStringData* pOldData = GetData();
; 855  : 		ATLASSERT( pOldData->nAllocLength < nLength );
; 856  : 		IAtlStringMgr* pStringMgr = pOldData->pStringMgr;
; 857  : 		if ( pOldData->nAllocLength >= nLength || nLength <= 0)

  0000f	39 72 08	 cmp	 DWORD PTR [edx+8], esi
  00012	7d 1e		 jge	 SHORT $LN3@Reallocate
  00014	85 f6		 test	 esi, esi
  00016	7e 1a		 jle	 SHORT $LN3@Reallocate

; 860  : 			return;
; 861  : 		}
; 862  : 		CStringData* pNewData = pStringMgr->Reallocate( pOldData, nLength, sizeof( XCHAR ) );

  00018	8b 0a		 mov	 ecx, DWORD PTR [edx]
  0001a	6a 01		 push	 1
  0001c	56		 push	 esi
  0001d	52		 push	 edx
  0001e	8b 01		 mov	 eax, DWORD PTR [ecx]
  00020	ff 50 08	 call	 DWORD PTR [eax+8]

; 863  : 		if( pNewData == NULL )

  00023	85 c0		 test	 eax, eax
  00025	74 0b		 je	 SHORT $LN3@Reallocate

; 864  : 		{
; 865  : 			ThrowMemoryException();
; 866  : 		}
; 867  : 		Attach( pNewData );

  00027	83 c0 10	 add	 eax, 16			; 00000010H
  0002a	89 07		 mov	 DWORD PTR [edi], eax
  0002c	5f		 pop	 edi
  0002d	5e		 pop	 esi

; 868  : 	}

  0002e	5d		 pop	 ebp
  0002f	c2 04 00	 ret	 4
$LN3@Reallocate:

; 858  : 		{
; 859  : 			ThrowMemoryException();

  00032	e8 00 00 00 00	 call	 ?ThrowMemoryException@?$CSimpleStringT@D$0A@@ATL@@KAXXZ ; ATL::CSimpleStringT<char,0>::ThrowMemoryException
$LN12@Reallocate:
  00037	cc		 int	 3
?Reallocate@?$CSimpleStringT@D$0A@@ATL@@AAEXH@Z ENDP	; ATL::CSimpleStringT<char,0>::Reallocate
_TEXT	ENDS
; Function compile flags: /Ogtp
; File C:\Program Files\Microsoft Visual Studio\2022\Professional\VC\Tools\MSVC\14.44.35207\atlmfc\include\atlsimpstr.h
;	COMDAT ?PrepareWrite2@?$CSimpleStringT@D$0A@@ATL@@AAEXH@Z
_TEXT	SEGMENT
_nLength$ = 8						; size = 4
?PrepareWrite2@?$CSimpleStringT@D$0A@@ATL@@AAEXH@Z PROC	; ATL::CSimpleStringT<char,0>::PrepareWrite2, COMDAT
; _this$ = ecx

; 822  : 	{

  00000	55		 push	 ebp
  00001	8b ec		 mov	 ebp, esp
  00003	56		 push	 esi

; 823  : 		CStringData* pOldData = GetData();
; 824  : 		if( pOldData->nDataLength > nLength )

  00004	8b 75 08	 mov	 esi, DWORD PTR _nLength$[ebp]
  00007	57		 push	 edi
  00008	8b f9		 mov	 edi, ecx

; 804  : 		return( reinterpret_cast< CStringData* >( m_pszData )-1 );

  0000a	8b 0f		 mov	 ecx, DWORD PTR [edi]

; 823  : 		CStringData* pOldData = GetData();
; 824  : 		if( pOldData->nDataLength > nLength )

  0000c	39 71 f4	 cmp	 DWORD PTR [ecx-12], esi
  0000f	0f 4f 71 f4	 cmovg	 esi, DWORD PTR [ecx-12]

; 77   : 		return( nRefs > 1 );

  00013	83 79 fc 01	 cmp	 DWORD PTR [ecx-4], 1

; 825  : 		{
; 826  : 			nLength = pOldData->nDataLength;
; 827  : 		}
; 828  : 		if( pOldData->IsShared() )

  00017	7e 0e		 jle	 SHORT $LN3@PrepareWri

; 829  : 		{
; 830  : 			Fork( nLength );

  00019	56		 push	 esi
  0001a	8b cf		 mov	 ecx, edi
  0001c	e8 00 00 00 00	 call	 ?Fork@?$CSimpleStringT@D$0A@@ATL@@AAEXH@Z ; ATL::CSimpleStringT<char,0>::Fork
  00021	5f		 pop	 edi

; 850  : 		}
; 851  : 	}

  00022	5e		 pop	 esi
  00023	5d		 pop	 ebp
  00024	c2 04 00	 ret	 4
$LN3@PrepareWri:

; 831  : 		}
; 832  : 		else if( pOldData->nAllocLength < nLength )

  00027	8b 49 f8	 mov	 ecx, DWORD PTR [ecx-8]
  0002a	3b ce		 cmp	 ecx, esi
  0002c	7d 25		 jge	 SHORT $LN5@PrepareWri

; 833  : 		{
; 834  : 			// Grow exponentially, until we hit 1G, then by 1M thereafter.
; 835  : 			int nNewLength = pOldData->nAllocLength;
; 836  : 			if( nNewLength > 1024 * 1024 * 1024 )

  0002e	81 f9 00 00 00
	40		 cmp	 ecx, 1073741824		; 40000000H
  00034	7e 07		 jle	 SHORT $LN6@PrepareWri

; 837  : 			{
; 838  : 				nNewLength += 1024 * 1024;

  00036	b8 00 00 10 00	 mov	 eax, 1048576		; 00100000H

; 839  : 			}

  0003b	eb 07		 jmp	 SHORT $LN7@PrepareWri
$LN6@PrepareWri:

; 840  : 			else
; 841  : 			{
; 842  : 				// Exponential growth factor is 1.5.
; 843  : 				nNewLength = nNewLength + nNewLength / 2;

  0003d	8b c1		 mov	 eax, ecx
  0003f	99		 cdq
  00040	2b c2		 sub	 eax, edx
  00042	d1 f8		 sar	 eax, 1
$LN7@PrepareWri:

; 844  : 			}
; 845  : 			if( nNewLength < nLength )

  00044	03 c1		 add	 eax, ecx

; 846  : 			{
; 847  : 				nNewLength = nLength;
; 848  : 			}
; 849  : 			Reallocate( nNewLength );

  00046	8b cf		 mov	 ecx, edi
  00048	3b c6		 cmp	 eax, esi
  0004a	0f 4d f0	 cmovge	 esi, eax
  0004d	56		 push	 esi
  0004e	e8 00 00 00 00	 call	 ?Reallocate@?$CSimpleStringT@D$0A@@ATL@@AAEXH@Z ; ATL::CSimpleStringT<char,0>::Reallocate
$LN5@PrepareWri:

; 850  : 		}
; 851  : 	}

  00053	5f		 pop	 edi
  00054	5e		 pop	 esi
  00055	5d		 pop	 ebp
  00056	c2 04 00	 ret	 4
?PrepareWrite2@?$CSimpleStringT@D$0A@@ATL@@AAEXH@Z ENDP	; ATL::CSimpleStringT<char,0>::PrepareWrite2
_TEXT	ENDS
; Function compile flags: /Ogtp
; File C:\Program Files\Microsoft Visual Studio\2022\Professional\VC\Tools\MSVC\14.44.35207\atlmfc\include\atlsimpstr.h
; File C:\Program Files (x86)\Windows Kits\10\Include\10.0.26100.0\ucrt\corecrt_memcpy_s.h
; File C:\Program Files\Microsoft Visual Studio\2022\Professional\VC\Tools\MSVC\14.44.35207\atlmfc\include\atlsimpstr.h
;	COMDAT ?Fork@?$CSimpleStringT@D$0A@@ATL@@AAEXH@Z
_TEXT	SEGMENT
_this$1$ = -12						; size = 4
_nOldLength$1$ = -8					; size = 4
__Source$1$ = -4					; size = 4
_nLength$ = 8						; size = 4
_pNewData$1$ = 8					; size = 4
?Fork@?$CSimpleStringT@D$0A@@ATL@@AAEXH@Z PROC		; ATL::CSimpleStringT<char,0>::Fork, COMDAT
; _this$ = ecx

; 787  : 	{

  00000	55		 push	 ebp
  00001	8b ec		 mov	 ebp, esp
  00003	83 ec 0c	 sub	 esp, 12			; 0000000cH
  00006	8b c1		 mov	 eax, ecx
  00008	89 45 f4	 mov	 DWORD PTR _this$1$[ebp], eax
  0000b	53		 push	 ebx
  0000c	56		 push	 esi

; 804  : 		return( reinterpret_cast< CStringData* >( m_pszData )-1 );

  0000d	8b 00		 mov	 eax, DWORD PTR [eax]

; 790  : 		CStringData* pNewData = pOldData->pStringMgr->Clone()->Allocate( nLength, sizeof( XCHAR ) );

  0000f	8b 48 f0	 mov	 ecx, DWORD PTR [eax-16]

; 804  : 		return( reinterpret_cast< CStringData* >( m_pszData )-1 );

  00012	8d 58 f0	 lea	 ebx, DWORD PTR [eax-16]
  00015	89 45 fc	 mov	 DWORD PTR __Source$1$[ebp], eax

; 787  : 	{

  00018	57		 push	 edi

; 788  : 		CStringData* pOldData = GetData();
; 789  : 		int nOldLength = pOldData->nDataLength;

  00019	8b 7b 04	 mov	 edi, DWORD PTR [ebx+4]

; 790  : 		CStringData* pNewData = pOldData->pStringMgr->Clone()->Allocate( nLength, sizeof( XCHAR ) );

  0001c	8b 01		 mov	 eax, DWORD PTR [ecx]
  0001e	89 7d f8	 mov	 DWORD PTR _nOldLength$1$[ebp], edi
  00021	ff 50 10	 call	 DWORD PTR [eax+16]
  00024	8b 75 08	 mov	 esi, DWORD PTR _nLength$[ebp]
  00027	8b c8		 mov	 ecx, eax
  00029	6a 01		 push	 1
  0002b	56		 push	 esi
  0002c	8b 10		 mov	 edx, DWORD PTR [eax]
  0002e	ff 12		 call	 DWORD PTR [edx]
  00030	89 45 08	 mov	 DWORD PTR _pNewData$1$[ebp], eax

; 791  : 		if( pNewData == NULL )

  00033	85 c0		 test	 eax, eax
  00035	74 6c		 je	 SHORT $LN25@Fork

; 794  : 		}
; 795  : 		int nCharsToCopy = ((nOldLength < nLength) ? nOldLength : nLength)+1;  // Copy '\0'

  00037	3b fe		 cmp	 edi, esi
  00039	0f 4c f7	 cmovl	 esi, edi

; 796  : 		memcpy_s( PXSTR( pNewData->data() ), nCharsToCopy * sizeof( XCHAR ),

  0003c	8d 78 10	 lea	 edi, DWORD PTR [eax+16]
  0003f	83 c6 01	 add	 esi, 1
; File C:\Program Files (x86)\Windows Kits\10\Include\10.0.26100.0\ucrt\corecrt_memcpy_s.h

; 47   :         if (_SourceSize == 0)

  00042	74 33		 je	 SHORT $LN11@Fork

; 48   :         {
; 49   :             return 0;
; 50   :         }
; 51   : 
; 52   :         _CRT_MEMCPY_S_VALIDATE_RETURN_ERRCODE(_Destination != NULL, EINVAL);

  00044	85 ff		 test	 edi, edi
  00046	74 1f		 je	 SHORT $LN23@Fork

; 53   :         if (_Source == NULL || _DestinationSize < _SourceSize)

  00048	8b 45 fc	 mov	 eax, DWORD PTR __Source$1$[ebp]
  0004b	56		 push	 esi
  0004c	85 c0		 test	 eax, eax
  0004e	74 0c		 je	 SHORT $LN10@Fork

; 56   : 
; 57   :             _CRT_MEMCPY_S_VALIDATE_RETURN_ERRCODE(_Source != NULL,                 EINVAL);
; 58   :             _CRT_MEMCPY_S_VALIDATE_RETURN_ERRCODE(_DestinationSize >= _SourceSize, ERANGE);
; 59   : 
; 60   :             // Unreachable, but required to suppress /analyze warnings:
; 61   :             return EINVAL;
; 62   :         }
; 63   :         memcpy(_Destination, _Source, _SourceSize);

  00050	50		 push	 eax
  00051	57		 push	 edi
  00052	e8 00 00 00 00	 call	 _memcpy
  00057	83 c4 0c	 add	 esp, 12			; 0000000cH
  0005a	eb 1b		 jmp	 SHORT $LN11@Fork
$LN10@Fork:

; 54   :         {
; 55   :             memset(_Destination, 0, _DestinationSize);

  0005c	6a 00		 push	 0
  0005e	57		 push	 edi
  0005f	e8 00 00 00 00	 call	 _memset
  00064	83 c4 0c	 add	 esp, 12			; 0000000cH
$LN23@Fork:
; File C:\Program Files\Microsoft Visual Studio\2022\Professional\VC\Tools\MSVC\14.44.35207\atlmfc\include\atlsimpstr.h

; 798  : 		pNewData->nDataLength = nOldLength;

  00067	e8 00 00 00 00	 call	 __errno
  0006c	c7 00 16 00 00
	00		 mov	 DWORD PTR [eax], 22	; 00000016H
  00072	e8 00 00 00 00	 call	 __invalid_parameter_noinfo
$LN11@Fork:
  00077	8b 4d 08	 mov	 ecx, DWORD PTR _pNewData$1$[ebp]
  0007a	8b 45 f8	 mov	 eax, DWORD PTR _nOldLength$1$[ebp]
  0007d	89 41 04	 mov	 DWORD PTR [ecx+4], eax

; 92   : 		if( _InterlockedDecrement( &nRefs ) <= 0 )

  00080	83 c8 ff	 or	 eax, -1
  00083	f0 0f c1 43 0c	 lock	  xadd	 DWORD PTR [ebx+12], eax
  00088	48		 dec	 eax
  00089	85 c0		 test	 eax, eax
  0008b	7f 08		 jg	 SHORT $LN15@Fork

; 93   : 		{
; 94   : 			pStringMgr->Free( this );

  0008d	8b 0b		 mov	 ecx, DWORD PTR [ebx]
  0008f	53		 push	 ebx
  00090	8b 01		 mov	 eax, DWORD PTR [ecx]
  00092	ff 50 04	 call	 DWORD PTR [eax+4]
$LN15@Fork:

; 799  : 		pOldData->Release();
; 800  : 		Attach( pNewData );

  00095	8b 45 f4	 mov	 eax, DWORD PTR _this$1$[ebp]
  00098	89 38		 mov	 DWORD PTR [eax], edi

; 801  : 	}

  0009a	5f		 pop	 edi
  0009b	5e		 pop	 esi
  0009c	5b		 pop	 ebx
  0009d	8b e5		 mov	 esp, ebp
  0009f	5d		 pop	 ebp
  000a0	c2 04 00	 ret	 4
$LN25@Fork:

; 792  : 		{
; 793  : 			ThrowMemoryException();

  000a3	e8 00 00 00 00	 call	 ?ThrowMemoryException@?$CSimpleStringT@D$0A@@ATL@@KAXXZ ; ATL::CSimpleStringT<char,0>::ThrowMemoryException
$LN22@Fork:
  000a8	cc		 int	 3
?Fork@?$CSimpleStringT@D$0A@@ATL@@AAEXH@Z ENDP		; ATL::CSimpleStringT<char,0>::Fork
_TEXT	ENDS
; Function compile flags: /Ogtp
; File C:\Program Files\Microsoft Visual Studio\2022\Professional\VC\Tools\MSVC\14.44.35207\atlmfc\include\atlsimpstr.h
;	COMDAT ?ThrowMemoryException@?$CSimpleStringT@D$0A@@ATL@@KAXXZ
_TEXT	SEGMENT
?ThrowMemoryException@?$CSimpleStringT@D$0A@@ATL@@KAXXZ PROC ; ATL::CSimpleStringT<char,0>::ThrowMemoryException, COMDAT

; 777  : 		AtlThrow( E_OUTOFMEMORY );

  00000	68 0e 00 07 80	 push	 -2147024882		; 8007000eH
  00005	e8 00 00 00 00	 call	 ?AtlThrowImpl@ATL@@YGXJ@Z ; ATL::AtlThrowImpl
$LN3@ThrowMemor:
  0000a	cc		 int	 3
?ThrowMemoryException@?$CSimpleStringT@D$0A@@ATL@@KAXXZ ENDP ; ATL::CSimpleStringT<char,0>::ThrowMemoryException
_TEXT	ENDS
; Function compile flags: /Ogtp
; File C:\Program Files\Microsoft Visual Studio\2022\Professional\VC\Tools\MSVC\14.44.35207\atlmfc\include\atlsimpstr.h
; File C:\Program Files (x86)\Windows Kits\10\Include\10.0.26100.0\ucrt\corecrt_memcpy_s.h
; File C:\Program Files\Microsoft Visual Studio\2022\Professional\VC\Tools\MSVC\14.44.35207\atlmfc\include\atlsimpstr.h
; File C:\Program Files (x86)\Windows Kits\10\Include\10.0.26100.0\ucrt\corecrt_memcpy_s.h
; File C:\Program Files\Microsoft Visual Studio\2022\Professional\VC\Tools\MSVC\14.44.35207\atlmfc\include\atlsimpstr.h
;	COMDAT ?SetString@?$CSimpleStringT@D$0A@@ATL@@QAEXPBDH@Z
_TEXT	SEGMENT
_pszSrc$ = 8						; size = 4
_nOldLength$1$ = 8					; size = 4
_nLength$ = 12						; size = 4
_nOffset$1$ = 12					; size = 4
?SetString@?$CSimpleStringT@D$0A@@ATL@@QAEXPBDH@Z PROC	; ATL::CSimpleStringT<char,0>::SetString, COMDAT
; _this$ = ecx

; 611  : 	{

  00000	55		 push	 ebp
  00001	8b ec		 mov	 ebp, esp
  00003	56		 push	 esi

; 612  : 		if( nLength == 0 )

  00004	8b 75 0c	 mov	 esi, DWORD PTR _nLength$[ebp]
  00007	57		 push	 edi
  00008	8b f9		 mov	 edi, ecx
  0000a	85 f6		 test	 esi, esi
  0000c	75 58		 jne	 SHORT $LN2@SetString

; 804  : 		return( reinterpret_cast< CStringData* >( m_pszData )-1 );

  0000e	8b 07		 mov	 eax, DWORD PTR [edi]

; 443  : 		if( pOldData->nDataLength == 0 )

  00010	83 78 f4 00	 cmp	 DWORD PTR [eax-12], 0

; 804  : 		return( reinterpret_cast< CStringData* >( m_pszData )-1 );

  00014	8d 50 f0	 lea	 edx, DWORD PTR [eax-16]

; 442  : 		IAtlStringMgr* pStringMgr = pOldData->pStringMgr;

  00017	8b 32		 mov	 esi, DWORD PTR [edx]

; 443  : 		if( pOldData->nDataLength == 0 )

  00019	74 1f		 je	 SHORT $LN72@SetString

; 73   : 		return nRefs < 0;

  0001b	83 7a 0c 00	 cmp	 DWORD PTR [edx+12], 0
  0001f	8d 4a 0c	 lea	 ecx, DWORD PTR [edx+12]

; 448  : 		if( pOldData->IsLocked() )

  00022	7d 1c		 jge	 SHORT $LN10@SetString

; 875  : 		if( nLength < 0 || nLength > GetData()->nAllocLength)

  00024	83 78 f8 00	 cmp	 DWORD PTR [eax-8], 0
  00028	0f 8c 0b 01 00
	00		 jl	 $LN71@SetString

; 877  : 
; 878  : 		GetData()->nDataLength = nLength;

  0002e	c7 40 f4 00 00
	00 00		 mov	 DWORD PTR [eax-12], 0

; 879  : 		m_pszData[nLength] = 0;

  00035	8b 07		 mov	 eax, DWORD PTR [edi]
  00037	c6 00 00	 mov	 BYTE PTR [eax], 0
$LN72@SetString:
  0003a	5f		 pop	 edi

; 638  : 			else
; 639  : 			{
; 640  : 				memcpy_s( pszBuffer, GetAllocLength() * sizeof( XCHAR ), pszSrc, nLength * sizeof( XCHAR ));
; 641  : 			}
; 642  : 			ReleaseBufferSetLength( nLength );
; 643  : 		}
; 644  : 	}

  0003b	5e		 pop	 esi
  0003c	5d		 pop	 ebp
  0003d	c2 08 00	 ret	 8
$LN10@SetString:

; 92   : 		if( _InterlockedDecrement( &nRefs ) <= 0 )

  00040	83 c8 ff	 or	 eax, -1
  00043	f0 0f c1 01	 lock	  xadd	 DWORD PTR [ecx], eax
  00047	48		 dec	 eax
  00048	85 c0		 test	 eax, eax
  0004a	7f 08		 jg	 SHORT $LN27@SetString

; 93   : 		{
; 94   : 			pStringMgr->Free( this );

  0004c	8b 0a		 mov	 ecx, DWORD PTR [edx]
  0004e	52		 push	 edx
  0004f	8b 01		 mov	 eax, DWORD PTR [ecx]
  00051	ff 50 04	 call	 DWORD PTR [eax+4]
$LN27@SetString:

; 456  : 			CStringData* pNewData = pStringMgr->GetNilString();

  00054	8b 06		 mov	 eax, DWORD PTR [esi]
  00056	8b ce		 mov	 ecx, esi
  00058	ff 50 0c	 call	 DWORD PTR [eax+12]

; 457  : 			Attach( pNewData );

  0005b	83 c0 10	 add	 eax, 16			; 00000010H
  0005e	89 07		 mov	 DWORD PTR [edi], eax
  00060	5f		 pop	 edi

; 638  : 			else
; 639  : 			{
; 640  : 				memcpy_s( pszBuffer, GetAllocLength() * sizeof( XCHAR ), pszSrc, nLength * sizeof( XCHAR ));
; 641  : 			}
; 642  : 			ReleaseBufferSetLength( nLength );
; 643  : 		}
; 644  : 	}

  00061	5e		 pop	 esi
  00062	5d		 pop	 ebp
  00063	c2 08 00	 ret	 8
$LN2@SetString:
  00066	53		 push	 ebx

; 613  : 		{
; 614  : 			Empty();
; 615  : 		}
; 616  : 		else
; 617  : 		{
; 618  : 			// It is possible that pszSrc points to a location inside of our
; 619  : 			// buffer.  GetBuffer() might change m_pszData if (1) the buffer
; 620  : 			// is shared or (2) the buffer is too small to hold the new
; 621  : 			// string.  We detect this aliasing, and modify pszSrc to point
; 622  : 			// into the newly allocated buffer instead.
; 623  : 
; 624  : 			if(pszSrc == NULL)

  00067	8b 5d 08	 mov	 ebx, DWORD PTR _pszSrc$[ebp]
  0006a	85 db		 test	 ebx, ebx
  0006c	0f 84 c7 00 00
	00		 je	 $LN71@SetString

; 523  : 		return( GetData()->nDataLength );

  00072	8b 07		 mov	 eax, DWORD PTR [edi]

; 625  : 				AtlThrow(E_INVALIDARG);
; 626  : 
; 627  : 			UINT nOldLength = GetLength();
; 628  : 			UINT_PTR nOffset = pszSrc-GetString();

  00074	8b d3		 mov	 edx, ebx
  00076	2b d0		 sub	 edx, eax
  00078	89 55 0c	 mov	 DWORD PTR _nOffset$1$[ebp], edx
  0007b	8b 48 f4	 mov	 ecx, DWORD PTR [eax-12]
  0007e	89 4d 08	 mov	 DWORD PTR _nOldLength$1$[ebp], ecx

; 808  : 		if (nLength < 0)

  00081	85 f6		 test	 esi, esi
  00083	0f 88 b0 00 00
	00		 js	 $LN71@SetString

; 809  : 			AtlThrow(E_INVALIDARG);
; 810  : 
; 811  : 		CStringData* pOldData = GetData();
; 812  : 		int nShared = 1-pOldData->nRefs;  // nShared < 0 means true, >= 0 means false

  00089	b9 01 00 00 00	 mov	 ecx, 1
  0008e	2b 48 fc	 sub	 ecx, DWORD PTR [eax-4]

; 813  : 		int nTooShort = pOldData->nAllocLength-nLength;  // nTooShort < 0 means true, >= 0 means false

  00091	8b 40 f8	 mov	 eax, DWORD PTR [eax-8]
  00094	2b c6		 sub	 eax, esi

; 814  : 		if( (nShared|nTooShort) < 0 )  // If either sign bit is set (i.e. either is less than zero), we need to copy data

  00096	0b c8		 or	 ecx, eax
  00098	7d 0b		 jge	 SHORT $LN38@SetString

; 815  : 		{
; 816  : 			PrepareWrite2( nLength );

  0009a	56		 push	 esi
  0009b	8b cf		 mov	 ecx, edi
  0009d	e8 00 00 00 00	 call	 ?PrepareWrite2@?$CSimpleStringT@D$0A@@ATL@@AAEXH@Z ; ATL::CSimpleStringT<char,0>::PrepareWrite2
  000a2	8b 55 0c	 mov	 edx, DWORD PTR _nOffset$1$[ebp]
$LN38@SetString:

; 629  : 			// If 0 <= nOffset <= nOldLength, then pszSrc points into our
; 630  : 			// buffer
; 631  : 
; 632  : 			PXSTR pszBuffer = GetBuffer( nLength );

  000a5	8b 07		 mov	 eax, DWORD PTR [edi]
  000a7	8b 48 f8	 mov	 ecx, DWORD PTR [eax-8]

; 633  : 			if( nOffset <= nOldLength )

  000aa	3b 55 08	 cmp	 edx, DWORD PTR _nOldLength$1$[ebp]
  000ad	77 35		 ja	 SHORT $LN5@SetString

; 634  : 			{
; 635  : 				CopyCharsOverlapped( pszBuffer, GetAllocLength(),

  000af	03 d0		 add	 edx, eax
; File C:\Program Files (x86)\Windows Kits\10\Include\10.0.26100.0\ucrt\corecrt_memcpy_s.h

; 81   :         _CRT_MEMCPY_S_VALIDATE_RETURN_ERRCODE(_Destination != NULL,            EINVAL);

  000b1	85 c0		 test	 eax, eax
  000b3	75 0d		 jne	 SHORT $LN51@SetString
  000b5	e8 00 00 00 00	 call	 __errno
  000ba	c7 00 16 00 00
	00		 mov	 DWORD PTR [eax], 22	; 00000016H
  000c0	eb 5b		 jmp	 SHORT $LN97@SetString
$LN51@SetString:

; 82   :         _CRT_MEMCPY_S_VALIDATE_RETURN_ERRCODE(_Source != NULL,                 EINVAL);

  000c2	85 d2		 test	 edx, edx
  000c4	75 0d		 jne	 SHORT $LN52@SetString
  000c6	e8 00 00 00 00	 call	 __errno
  000cb	c7 00 16 00 00
	00		 mov	 DWORD PTR [eax], 22	; 00000016H
  000d1	eb 4a		 jmp	 SHORT $LN97@SetString
$LN52@SetString:

; 83   :         _CRT_MEMCPY_S_VALIDATE_RETURN_ERRCODE(_DestinationSize >= _SourceSize, ERANGE);

  000d3	3b ce		 cmp	 ecx, esi
  000d5	72 3b		 jb	 SHORT $LN98@SetString

; 84   : 
; 85   :         memmove(_Destination, _Source, _SourceSize);

  000d7	56		 push	 esi
  000d8	52		 push	 edx
  000d9	50		 push	 eax
  000da	e8 00 00 00 00	 call	 _memmove
  000df	83 c4 0c	 add	 esp, 12			; 0000000cH
; File C:\Program Files\Microsoft Visual Studio\2022\Professional\VC\Tools\MSVC\14.44.35207\atlmfc\include\atlsimpstr.h

; 637  : 			}

  000e2	eb 3e		 jmp	 SHORT $LN65@SetString
$LN5@SetString:
; File C:\Program Files (x86)\Windows Kits\10\Include\10.0.26100.0\ucrt\corecrt_memcpy_s.h

; 52   :         _CRT_MEMCPY_S_VALIDATE_RETURN_ERRCODE(_Destination != NULL, EINVAL);

  000e4	85 c0		 test	 eax, eax
  000e6	75 0d		 jne	 SHORT $LN61@SetString
  000e8	e8 00 00 00 00	 call	 __errno
  000ed	c7 00 16 00 00
	00		 mov	 DWORD PTR [eax], 22	; 00000016H
  000f3	eb 28		 jmp	 SHORT $LN97@SetString
$LN61@SetString:

; 53   :         if (_Source == NULL || _DestinationSize < _SourceSize)

  000f5	3b ce		 cmp	 ecx, esi
  000f7	72 0d		 jb	 SHORT $LN63@SetString

; 56   : 
; 57   :             _CRT_MEMCPY_S_VALIDATE_RETURN_ERRCODE(_Source != NULL,                 EINVAL);
; 58   :             _CRT_MEMCPY_S_VALIDATE_RETURN_ERRCODE(_DestinationSize >= _SourceSize, ERANGE);
; 59   : 
; 60   :             // Unreachable, but required to suppress /analyze warnings:
; 61   :             return EINVAL;
; 62   :         }
; 63   :         memcpy(_Destination, _Source, _SourceSize);

  000f9	56		 push	 esi
  000fa	53		 push	 ebx
  000fb	50		 push	 eax
  000fc	e8 00 00 00 00	 call	 _memcpy
  00101	83 c4 0c	 add	 esp, 12			; 0000000cH
  00104	eb 1c		 jmp	 SHORT $LN65@SetString
$LN63@SetString:

; 54   :         {
; 55   :             memset(_Destination, 0, _DestinationSize);

  00106	51		 push	 ecx
  00107	6a 00		 push	 0
  00109	50		 push	 eax
  0010a	e8 00 00 00 00	 call	 _memset
  0010f	83 c4 0c	 add	 esp, 12			; 0000000cH
$LN98@SetString:
; File C:\Program Files\Microsoft Visual Studio\2022\Professional\VC\Tools\MSVC\14.44.35207\atlmfc\include\atlsimpstr.h

; 875  : 		if( nLength < 0 || nLength > GetData()->nAllocLength)

  00112	e8 00 00 00 00	 call	 __errno
  00117	c7 00 22 00 00
	00		 mov	 DWORD PTR [eax], 34	; 00000022H
$LN97@SetString:
  0011d	e8 00 00 00 00	 call	 __invalid_parameter_noinfo
$LN65@SetString:
  00122	8b 07		 mov	 eax, DWORD PTR [edi]
  00124	5b		 pop	 ebx
  00125	3b 70 f8	 cmp	 esi, DWORD PTR [eax-8]
  00128	7f 0f		 jg	 SHORT $LN71@SetString

; 877  : 
; 878  : 		GetData()->nDataLength = nLength;

  0012a	89 70 f4	 mov	 DWORD PTR [eax-12], esi

; 879  : 		m_pszData[nLength] = 0;

  0012d	8b 07		 mov	 eax, DWORD PTR [edi]
  0012f	5f		 pop	 edi
  00130	c6 04 06 00	 mov	 BYTE PTR [esi+eax], 0

; 638  : 			else
; 639  : 			{
; 640  : 				memcpy_s( pszBuffer, GetAllocLength() * sizeof( XCHAR ), pszSrc, nLength * sizeof( XCHAR ));
; 641  : 			}
; 642  : 			ReleaseBufferSetLength( nLength );
; 643  : 		}
; 644  : 	}

  00134	5e		 pop	 esi
  00135	5d		 pop	 ebp
  00136	c2 08 00	 ret	 8
$LN71@SetString:

; 876  : 			AtlThrow(E_INVALIDARG);

  00139	68 57 00 07 80	 push	 -2147024809		; 80070057H
  0013e	e8 00 00 00 00	 call	 ?AtlThrowImpl@ATL@@YGXJ@Z ; ATL::AtlThrowImpl
$LN96@SetString:
  00143	cc		 int	 3
?SetString@?$CSimpleStringT@D$0A@@ATL@@QAEXPBDH@Z ENDP	; ATL::CSimpleStringT<char,0>::SetString
_TEXT	ENDS
; Function compile flags: /Ogtp
; File C:\Program Files\Microsoft Visual Studio\2022\Professional\VC\Tools\MSVC\14.44.35207\atlmfc\include\atlsimpstr.h
;	COMDAT ??1?$CSimpleStringT@D$0A@@ATL@@QAE@XZ
_TEXT	SEGMENT
??1?$CSimpleStringT@D$0A@@ATL@@QAE@XZ PROC		; ATL::CSimpleStringT<char,0>::~CSimpleStringT<char,0>, COMDAT
; _this$ = ecx

; 804  : 		return( reinterpret_cast< CStringData* >( m_pszData )-1 );

  00000	8b 11		 mov	 edx, DWORD PTR [ecx]

; 92   : 		if( _InterlockedDecrement( &nRefs ) <= 0 )

  00002	83 c8 ff	 or	 eax, -1

; 804  : 		return( reinterpret_cast< CStringData* >( m_pszData )-1 );

  00005	83 ea 10	 sub	 edx, 16			; 00000010H

; 92   : 		if( _InterlockedDecrement( &nRefs ) <= 0 )

  00008	f0 0f c1 42 0c	 lock	  xadd	 DWORD PTR [edx+12], eax
  0000d	48		 dec	 eax
  0000e	85 c0		 test	 eax, eax
  00010	7f 08		 jg	 SHORT $LN6@CSimpleStr

; 93   : 		{
; 94   : 			pStringMgr->Free( this );

  00012	8b 0a		 mov	 ecx, DWORD PTR [edx]
  00014	52		 push	 edx
  00015	8b 01		 mov	 eax, DWORD PTR [ecx]
  00017	ff 50 04	 call	 DWORD PTR [eax+4]
$LN6@CSimpleStr:

; 265  : 		CStringData* pData = GetData();
; 266  : 		pData->Release();
; 267  : 	}

  0001a	c3		 ret	 0
??1?$CSimpleStringT@D$0A@@ATL@@QAE@XZ ENDP		; ATL::CSimpleStringT<char,0>::~CSimpleStringT<char,0>
_TEXT	ENDS
; Function compile flags: /Ogtp
; File C:\Program Files\Microsoft Visual Studio\2022\Professional\VC\Tools\MSVC\14.44.35207\atlmfc\include\atlexcept.h
;	COMDAT ?AtlThrowImpl@ATL@@YGXJ@Z
_TEXT	SEGMENT
_hr$ = 8						; size = 4
?AtlThrowImpl@ATL@@YGXJ@Z PROC				; ATL::AtlThrowImpl, COMDAT

; 69   : {

  00000	55		 push	 ebp
  00001	8b ec		 mov	 ebp, esp

; 70   : 	ATLTRACE(atlTraceException, 0, _T("AtlThrow: hr = 0x%x\n"), hr );
; 71   : #ifdef _AFX
; 72   : 	if( hr == E_OUTOFMEMORY )

  00003	8b 45 08	 mov	 eax, DWORD PTR _hr$[ebp]
  00006	3d 0e 00 07 80	 cmp	 eax, -2147024882	; 8007000eH
  0000b	75 05		 jne	 SHORT $LN2@AtlThrowIm

; 73   : 	{
; 74   : 		AfxThrowMemoryException();

  0000d	e8 00 00 00 00	 call	 ?AfxThrowMemoryException@@YGXXZ ; AfxThrowMemoryException
$LN2@AtlThrowIm:

; 75   : 	}
; 76   : 	else
; 77   : 	{
; 78   : 		AfxThrowOleException( hr );

  00012	50		 push	 eax
  00013	e8 00 00 00 00	 call	 ?AfxThrowOleException@@YGXJ@Z ; AfxThrowOleException
$LN5@AtlThrowIm:
  00018	cc		 int	 3
?AtlThrowImpl@ATL@@YGXJ@Z ENDP				; ATL::AtlThrowImpl
_TEXT	ENDS
; Function compile flags: /Ogtp
; File C:\Program Files (x86)\Windows Kits\10\Include\10.0.26100.0\ucrt\stdio.h
;	COMDAT _sprintf
_TEXT	SEGMENT
__Buffer$ = 8						; size = 4
__Format$ = 12						; size = 4
_sprintf PROC						; COMDAT

; 1771 :     {

  00000	55		 push	 ebp
  00001	8b ec		 mov	 ebp, esp

; 1392 :         int const _Result = __stdio_common_vsprintf(

  00003	8d 45 10	 lea	 eax, DWORD PTR __Format$[ebp+4]
  00006	50		 push	 eax
  00007	6a 00		 push	 0
  00009	ff 75 0c	 push	 DWORD PTR __Format$[ebp]
  0000c	6a ff		 push	 -1
  0000e	ff 75 08	 push	 DWORD PTR __Buffer$[ebp]
  00011	e8 00 00 00 00	 call	 ___local_stdio_printf_options
  00016	8b 08		 mov	 ecx, DWORD PTR [eax]
  00018	ff 70 04	 push	 DWORD PTR [eax+4]
  0001b	83 c9 01	 or	 ecx, 1
  0001e	51		 push	 ecx
  0001f	e8 00 00 00 00	 call	 ___stdio_common_vsprintf

; 1393 :             _CRT_INTERNAL_LOCAL_PRINTF_OPTIONS | _CRT_INTERNAL_PRINTF_LEGACY_VSPRINTF_NULL_TERMINATION,
; 1394 :             _Buffer, _BufferCount, _Format, _Locale, _ArgList);
; 1395 : 
; 1396 :         return _Result < 0 ? -1 : _Result;

  00024	83 c9 ff	 or	 ecx, -1
  00027	83 c4 1c	 add	 esp, 28			; 0000001cH
  0002a	85 c0		 test	 eax, eax
  0002c	0f 48 c1	 cmovs	 eax, ecx

; 1772 :         int _Result;
; 1773 :         va_list _ArgList;
; 1774 :         __crt_va_start(_ArgList, _Format);
; 1775 : 
; 1776 :         _Result = _vsprintf_l(_Buffer, _Format, NULL, _ArgList);
; 1777 : 
; 1778 :         __crt_va_end(_ArgList);
; 1779 :         return _Result;
; 1780 :     }

  0002f	5d		 pop	 ebp
  00030	c3		 ret	 0
_sprintf ENDP
_TEXT	ENDS
; Function compile flags: /Ogtp
; File C:\Program Files (x86)\Windows Kits\10\Include\10.0.26100.0\ucrt\corecrt_stdio_config.h
;	COMDAT ___local_stdio_printf_options
_TEXT	SEGMENT
___local_stdio_printf_options PROC			; COMDAT

; 91   :         static unsigned __int64 _OptionsStorage;
; 92   :         return &_OptionsStorage;

  00000	b8 00 00 00 00	 mov	 eax, OFFSET ?_OptionsStorage@?1??__local_stdio_printf_options@@9@4_KA ; `__local_stdio_printf_options'::`2'::_OptionsStorage

; 93   :     }

  00005	c3		 ret	 0
___local_stdio_printf_options ENDP
_TEXT	ENDS
; Function compile flags: /Ogtp
; File C:\IAGOS\server\v18\Source\Source\DatabaseServer\tlord.cpp
;	COMDAT ?__empty_global_delete@@YAXPAXI@Z
_TEXT	SEGMENT
___formal$ = 8						; size = 4
___formal$ = 12						; size = 4
?__empty_global_delete@@YAXPAXI@Z PROC			; __empty_global_delete, COMDAT

  00000	c2 00 00	 ret	 0
?__empty_global_delete@@YAXPAXI@Z ENDP			; __empty_global_delete
_TEXT	ENDS
; Function compile flags: /Ogtp
; File C:\IAGOS\server\v18\Source\Source\DatabaseServer\tlord.cpp
;	COMDAT ?__empty_global_delete@@YAXPAX@Z
_TEXT	SEGMENT
___formal$ = 8						; size = 4
?__empty_global_delete@@YAXPAX@Z PROC			; __empty_global_delete, COMDAT

  00000	c2 00 00	 ret	 0
?__empty_global_delete@@YAXPAX@Z ENDP			; __empty_global_delete
_TEXT	ENDS
END
