; Listing generated by Microsoft (R) Optimizing Compiler Version 19.44.35225.0 

	TITLE	C:\IAGOS\server\v18\Source\Output\DatabaseServer\Release\tlord.obj
	.686P
	.XMM
	include listing.inc
	.model	flat

INCLUDELIB LIBCMT
INCLUDELIB OLDNAMES

PUBLIC	?__empty_global_delete@@YAXPAX@Z		; __empty_global_delete
PUBLIC	?__empty_global_delete@@YAXPAXI@Z		; __empty_global_delete
PUBLIC	___local_stdio_printf_options
PUBLIC	_sprintf
PUBLIC	?AtlThrowImpl@ATL@@YGXJ@Z			; ATL::AtlThrowImpl
PUBLIC	??1?$CSimpleStringT@D$0A@@ATL@@QAE@XZ		; ATL::CSimpleStringT<char,0>::~CSimpleStringT<char,0>
PUBLIC	?SetString@?$CSimpleStringT@D$0A@@ATL@@QAEXPBDH@Z ; ATL::CSimpleStringT<char,0>::SetString
PUBLIC	?ThrowMemoryException@?$CSimpleStringT@D$0A@@ATL@@KAXXZ ; ATL::CSimpleStringT<char,0>::ThrowMemoryException
PUBLIC	?Fork@?$CSimpleStringT@D$0A@@ATL@@AAEXH@Z	; ATL::CSimpleStringT<char,0>::Fork
PUBLIC	?PrepareWrite2@?$CSimpleStringT@D$0A@@ATL@@AAEXH@Z ; ATL::CSimpleStringT<char,0>::PrepareWrite2
PUBLIC	?Reallocate@?$CSimpleStringT@D$0A@@ATL@@AAEXH@Z	; ATL::CSimpleStringT<char,0>::Reallocate
PUBLIC	??1?$CStringT@DV?$StrTraitMFC@DV?$ChTraitsCRT@D@ATL@@@@@ATL@@QAE@XZ ; ATL::CStringT<char,StrTraitMFC<char,ATL::ChTraitsCRT<char> > >::~CStringT<char,StrTraitMFC<char,ATL::ChTraitsCRT<char> > >
PUBLIC	?LoadStringA@?$CStringT@DV?$StrTraitMFC@DV?$ChTraitsCRT@D@ATL@@@@@ATL@@QAEHI@Z ; ATL::CStringT<char,StrTraitMFC<char,ATL::ChTraitsCRT<char> > >::LoadStringA
PUBLIC	??0exception@std@@QAE@ABV01@@Z			; std::exception::exception
PUBLIC	??1exception@std@@UAE@XZ			; std::exception::~exception
PUBLIC	?what@exception@std@@UBEPBDXZ			; std::exception::what
PUBLIC	??_Gexception@std@@UAEPAXI@Z			; std::exception::`scalar deleting destructor'
PUBLIC	??0bad_alloc@std@@QAE@ABV01@@Z			; std::bad_alloc::bad_alloc
PUBLIC	??_Gbad_alloc@std@@UAEPAXI@Z			; std::bad_alloc::`scalar deleting destructor'
PUBLIC	??0bad_array_new_length@std@@QAE@XZ		; std::bad_array_new_length::bad_array_new_length
PUBLIC	??1bad_array_new_length@std@@UAE@XZ		; std::bad_array_new_length::~bad_array_new_length
PUBLIC	??0bad_array_new_length@std@@QAE@ABV01@@Z	; std::bad_array_new_length::bad_array_new_length
PUBLIC	??_Gbad_array_new_length@std@@UAEPAXI@Z		; std::bad_array_new_length::`scalar deleting destructor'
PUBLIC	?_Throw_bad_array_new_length@std@@YAXXZ		; std::_Throw_bad_array_new_length
PUBLIC	??1CMclAutoLock@@QAE@XZ				; CMclAutoLock::~CMclAutoLock
PUBLIC	??$_Allocate_manually_vector_aligned@U_Default_allocate_traits@std@@@std@@YAPAXI@Z ; std::_Allocate_manually_vector_aligned<std::_Default_allocate_traits>
PUBLIC	?DoSetPlegeComplete@IElection@@MAEXXZ		; IElection::DoSetPlegeComplete
PUBLIC	?DoIncVoteComplete@IElection@@MAEXXZ		; IElection::DoIncVoteComplete
PUBLIC	?DoEndVoteComplete@IElection@@MAEXXZ		; IElection::DoEndVoteComplete
PUBLIC	?_Xlength@?$vector@MV?$allocator@M@std@@@std@@CAXXZ ; std::vector<float,std::allocator<float> >::_Xlength
PUBLIC	?_Xlength@?$vector@HV?$allocator@H@std@@@std@@CAXXZ ; std::vector<int,std::allocator<int> >::_Xlength
PUBLIC	??$?5H@CAr@@QAEAAV0@AAH@Z			; CAr::operator>><int>
PUBLIC	??0CTLord@@QAE@XZ				; CTLord::CTLord
PUBLIC	??1CTLord@@UAE@XZ				; CTLord::~CTLord
PUBLIC	?Instance@CTLord@@SAPAV1@XZ			; CTLord::Instance
PUBLIC	?CreateColleagues@CTLord@@UAEXXZ		; CTLord::CreateColleagues
PUBLIC	?DestroyColleagues@CTLord@@UAEXXZ		; CTLord::DestroyColleagues
PUBLIC	?RestoreAll@CTLord@@QAEHXZ			; CTLord::RestoreAll
PUBLIC	?Restore@CTLord@@QAEHPAVCQuery@@@Z		; CTLord::Restore
PUBLIC	?Handler@CTLord@@QAEXPAUtagDB_OVERLAPPED_PLUS@@K@Z ; CTLord::Handler
PUBLIC	?OnTimer@CTLord@@QAEXXZ				; CTLord::OnTimer
PUBLIC	?PostRequest@CTLord@@QAEHHPAEHK@Z		; CTLord::PostRequest
PUBLIC	?GetController@CTLord@@UAEPAVCLController@@XZ	; CTLord::GetController
PUBLIC	??_GCTLord@@UAEPAXI@Z				; CTLord::`scalar deleting destructor'
PUBLIC	??0CTElection@@QAE@PAVCLord@@@Z			; CTElection::CTElection
PUBLIC	??1CTElection@@UAE@XZ				; CTElection::~CTElection
PUBLIC	?Initialize@CTElection@@QAEHPBD@Z		; CTElection::Initialize
PUBLIC	?GetRetRate@CTElection@@QAEMK@Z			; CTElection::GetRetRate
PUBLIC	?OnTimer@CTElection@@QAEXXZ			; CTElection::OnTimer
PUBLIC	?Restore@CTElection@@QAEHPAVCQuery@@@Z		; CTElection::Restore
PUBLIC	?ttos@CTElection@@SA?AV?$CStringT@DV?$StrTraitMFC@DV?$ChTraitsCRT@D@ATL@@@@@ATL@@J@Z ; CTElection::ttos
PUBLIC	?stot@CTElection@@SAJPBD@Z			; CTElection::stot
PUBLIC	?DoTestBeginCandidacy@CTElection@@MAEHXZ	; CTElection::DoTestBeginCandidacy
PUBLIC	?DoReturnDeposit@CTElection@@MAEXXZ		; CTElection::DoReturnDeposit
PUBLIC	?DoTestBeginVote@CTElection@@MAEHAAH@Z		; CTElection::DoTestBeginVote
PUBLIC	?DoTestEndVote@CTElection@@MAEHK@Z		; CTElection::DoTestEndVote
PUBLIC	?DoTestAddDeposit@CTElection@@MAEHK_JJ@Z	; CTElection::DoTestAddDeposit
PUBLIC	?DoAddDepositComplete@CTElection@@MAEXK_JJ@Z	; CTElection::DoAddDepositComplete
PUBLIC	?DoTestSetPledge@CTElection@@MAEHKPBD@Z		; CTElection::DoTestSetPledge
PUBLIC	?DoTestIncVote@CTElection@@MAEHKK@Z		; CTElection::DoTestIncVote
PUBLIC	?ReadIni@CTElection@@AAEHPBD@Z			; CTElection::ReadIni
PUBLIC	?PostItem@CTElection@@AAEXKAAU_PostItemStruct@@@Z ; CTElection::PostItem
PUBLIC	?PostDepositToAllCandidate@CTElection@@AAEXXZ	; CTElection::PostDepositToAllCandidate
PUBLIC	?PostLordItems@CTElection@@AAEXK@Z		; CTElection::PostLordItems
PUBLIC	??_GCTElection@@UAEPAXI@Z			; CTElection::`scalar deleting destructor'
PUBLIC	??0CTLordSkill@@QAE@PAVCLord@@@Z		; CTLordSkill::CTLordSkill
PUBLIC	??1CTLordSkill@@UAE@XZ				; CTLordSkill::~CTLordSkill
PUBLIC	?CreateSkillComponent@CTLordSkill@@UAEPAVCLordSkillComponentExecutable@@H@Z ; CTLordSkill::CreateSkillComponent
PUBLIC	?Restore@CTLordSkill@@QAEHPAVCQuery@@@Z		; CTLordSkill::Restore
PUBLIC	?OnTimer@CTLordSkill@@QAEXXZ			; CTLordSkill::OnTimer
PUBLIC	??_GCTLordSkill@@UAEPAXI@Z			; CTLordSkill::`scalar deleting destructor'
PUBLIC	??0CLEvent@@QAE@PAVCLord@@@Z			; CLEvent::CLEvent
PUBLIC	??1CLEvent@@UAE@XZ				; CLEvent::~CLEvent
PUBLIC	?Restore@CLEvent@@QAEHPAVCQuery@@@Z		; CLEvent::Restore
PUBLIC	?OnTimer@CLEvent@@QAEXXZ			; CLEvent::OnTimer
PUBLIC	?DoTestAddComponent@CLEvent@@MAEHPAVCLEComponent@@@Z ; CLEvent::DoTestAddComponent
PUBLIC	?DoTestInitialize@CLEvent@@MAEHXZ		; CLEvent::DoTestInitialize
PUBLIC	?DecrementAllComponentTick@CLEvent@@IAEHXZ	; CLEvent::DecrementAllComponentTick
PUBLIC	??_GCLEvent@@UAEPAXI@Z				; CLEvent::`scalar deleting destructor'
PUBLIC	??RPostDeposit@@QBEXABV?$shared_ptr@VCCandidate@@@std@@@Z ; PostDeposit::operator()
PUBLIC	??0CLController@@QAE@PAVCTLord@@@Z		; CLController::CLController
PUBLIC	??1CLController@@UAE@XZ				; CLController::~CLController
PUBLIC	?Restore@CLController@@QAEHXZ			; CLController::Restore
PUBLIC	?BeginCandidacy@CLController@@QAEHXZ		; CLController::BeginCandidacy
PUBLIC	?BeginVote@CLController@@QAEHXZ			; CLController::BeginVote
PUBLIC	?EndVote@CLController@@QAEHK@Z			; CLController::EndVote
PUBLIC	?AddDeposit@CLController@@QAEHK_JJ@Z		; CLController::AddDeposit
PUBLIC	?SetPledge@CLController@@QAEHKPBD@Z		; CLController::SetPledge
PUBLIC	?IncVote@CLController@@QAEHKK@Z			; CLController::IncVote
PUBLIC	?AddLEComponent@CLController@@QAEHPAVCLEComponent@@@Z ; CLController::AddLEComponent
PUBLIC	?InitializeLEvent@CLController@@QAEHXZ		; CLController::InitializeLEvent
PUBLIC	?UpdateLordSkillTick@CLController@@QAEHPAVCLordSkillComponent@@H@Z ; CLController::UpdateLordSkillTick
PUBLIC	?UpdateLordEventTick@CLController@@QAEHPAVCLEComponent@@@Z ; CLController::UpdateLordEventTick
PUBLIC	?Handler@CLController@@UAEXPAUtagDB_OVERLAPPED_PLUS@@K@Z ; CLController::Handler
PUBLIC	?OnTimer@CLController@@UAEXXZ			; CLController::OnTimer
PUBLIC	??_GCLController@@UAEPAXI@Z			; CLController::`scalar deleting destructor'
PUBLIC	??$?5K@CAr@@QAEAAV0@AAK@Z			; CAr::operator>><unsigned long>
PUBLIC	??$?5_J@CAr@@QAEAAV0@AA_J@Z			; CAr::operator>><__int64>
PUBLIC	??$_Emplace_reallocate@ABH@?$vector@HV?$allocator@H@std@@@std@@AAEPAHQAHABH@Z ; std::vector<int,std::allocator<int> >::_Emplace_reallocate<int const &>
PUBLIC	??$_Emplace_reallocate@ABM@?$vector@MV?$allocator@M@std@@@std@@AAEPAMQAMABM@Z ; std::vector<float,std::allocator<float> >::_Emplace_reallocate<float const &>
PUBLIC	??$_Copy_memmove@PAHPAH@std@@YAPAHPAH00@Z	; std::_Copy_memmove<int *,int *>
PUBLIC	??$_Copy_memmove@PAMPAM@std@@YAPAMPAM00@Z	; std::_Copy_memmove<float *,float *>
PUBLIC	??$_Copy_memmove_tail@PAH@std@@YAPAHQBDQAHII@Z	; std::_Copy_memmove_tail<int *>
PUBLIC	??$_Copy_memmove_tail@PAM@std@@YAPAMQBDQAMII@Z	; std::_Copy_memmove_tail<float *>
PUBLIC	?_OptionsStorage@?1??__local_stdio_printf_options@@9@4_KA ; `__local_stdio_printf_options'::`2'::_OptionsStorage
PUBLIC	??_C@_00CNPNBAHC@@				; `string'
PUBLIC	??_7exception@std@@6B@				; std::exception::`vftable'
PUBLIC	??_C@_0BC@EOODALEL@Unknown?5exception@		; `string'
PUBLIC	??_7bad_alloc@std@@6B@				; std::bad_alloc::`vftable'
PUBLIC	??_7bad_array_new_length@std@@6B@		; std::bad_array_new_length::`vftable'
PUBLIC	??_C@_0BF@KINCDENJ@bad?5array?5new?5length@	; `string'
PUBLIC	??_R0?AVexception@std@@@8			; std::exception `RTTI Type Descriptor'
PUBLIC	__CT??_R0?AVexception@std@@@8??0exception@std@@QAE@ABV01@@Z12
PUBLIC	__TI3?AVbad_array_new_length@std@@
PUBLIC	__CTA3?AVbad_array_new_length@std@@
PUBLIC	??_R0?AVbad_array_new_length@std@@@8		; std::bad_array_new_length `RTTI Type Descriptor'
PUBLIC	__CT??_R0?AVbad_array_new_length@std@@@8??0bad_array_new_length@std@@QAE@ABV01@@Z12
PUBLIC	??_R0?AVbad_alloc@std@@@8			; std::bad_alloc `RTTI Type Descriptor'
PUBLIC	__CT??_R0?AVbad_alloc@std@@@8??0bad_alloc@std@@QAE@ABV01@@Z12
PUBLIC	??_C@_0BA@FOIKENOD@vector?5too?5long@		; `string'
PUBLIC	??_R4exception@std@@6B@				; std::exception::`RTTI Complete Object Locator'
PUBLIC	??_R3exception@std@@8				; std::exception::`RTTI Class Hierarchy Descriptor'
PUBLIC	??_R2exception@std@@8				; std::exception::`RTTI Base Class Array'
PUBLIC	??_R1A@?0A@EA@exception@std@@8			; std::exception::`RTTI Base Class Descriptor at (0,-1,0,64)'
PUBLIC	??_R4bad_array_new_length@std@@6B@		; std::bad_array_new_length::`RTTI Complete Object Locator'
PUBLIC	??_R3bad_array_new_length@std@@8		; std::bad_array_new_length::`RTTI Class Hierarchy Descriptor'
PUBLIC	??_R2bad_array_new_length@std@@8		; std::bad_array_new_length::`RTTI Base Class Array'
PUBLIC	??_R1A@?0A@EA@bad_array_new_length@std@@8	; std::bad_array_new_length::`RTTI Base Class Descriptor at (0,-1,0,64)'
PUBLIC	??_R1A@?0A@EA@bad_alloc@std@@8			; std::bad_alloc::`RTTI Base Class Descriptor at (0,-1,0,64)'
PUBLIC	??_R3bad_alloc@std@@8				; std::bad_alloc::`RTTI Class Hierarchy Descriptor'
PUBLIC	??_R2bad_alloc@std@@8				; std::bad_alloc::`RTTI Base Class Array'
PUBLIC	??_R4bad_alloc@std@@6B@				; std::bad_alloc::`RTTI Complete Object Locator'
PUBLIC	??_7CTLord@@6B@					; CTLord::`vftable'
PUBLIC	??_7CTElection@@6B@				; CTElection::`vftable'
PUBLIC	??_7CTLordSkill@@6B@				; CTLordSkill::`vftable'
PUBLIC	??_7CLEvent@@6B@				; CLEvent::`vftable'
PUBLIC	??_7CLController@@6B@				; CLController::`vftable'
PUBLIC	??_C@_0N@MMPBPIHN@election?4inc@		; `string'
PUBLIC	??_C@_0O@NKJDDJPP@lordevent?4inc@		; `string'
PUBLIC	??_C@_0O@DNECDNPA@lordskill?4txt@		; `string'
PUBLIC	??_C@_0BI@GMEIIJGO@CTLord?4CreateColleagues@	; `string'
PUBLIC	??_C@_0BC@MCPIBNBK@uspRestoreLord?5?$CFd@	; `string'
PUBLIC	??_C@_06EHHKCEHL@idLord@			; `string'
PUBLIC	??_C@_0DL@DADIAAPI@CTElection?3?3Initialize?$CI?$CJ?3?5LoadS@ ; `string'
PUBLIC	??_C@_08EMBNBNLN@property@			; `string'
PUBLIC	??_C@_0L@NLLMANDB@nDayOfWeek@			; `string'
PUBLIC	??_C@_05DIDGHFGE@nHour@				; `string'
PUBLIC	??_C@_0L@CKDBDEOG@tCandidacy@			; `string'
PUBLIC	??_C@_05EBOKJDNL@tVote@				; `string'
PUBLIC	??_C@_05NBICHHD@nDays@				; `string'
PUBLIC	??_C@_04HCCHHEEF@rate@				; `string'
PUBLIC	??_C@_0BD@FJBKFPAD@fRequirementFactor@		; `string'
PUBLIC	??_C@_04NHONDGDE@item@				; `string'
PUBLIC	??_C@_0N@BNMNAMM@?$CFY?$CFm?$CFd?$CFH?$CFM?$CFS@ ; `string'
PUBLIC	??_C@_0BE@HLJDCBPH@CTElection?4stot?3?5?$CFs@	; `string'
PUBLIC	??_C@_0BG@KGCKLKHB@uspRestoreElection?5?$CFd@	; `string'
PUBLIC	??_C@_0L@NBMLJLBM@idElection@			; `string'
PUBLIC	??_C@_06PFLNLAJN@eState@			; `string'
PUBLIC	??_C@_0N@NOMIPDCI@nRequirement@			; `string'
PUBLIC	??_C@_07PJNBBDOG@szBegin@			; `string'
PUBLIC	??_C@_0BM@CHJPNMJK@uspRestoreCandidates?5?$CFd?0?5?$CFd@ ; `string'
PUBLIC	??_C@_0CG@GCHADNNB@couldn?8t?5execute?5uspRestoreCand@ ; `string'
PUBLIC	??_C@_08EPHCN@idPlayer@				; `string'
PUBLIC	??_C@_08PIPANNIJ@iDeposit@			; `string'
PUBLIC	??_C@_08BCPGFKB@szPledge@			; `string'
PUBLIC	??_C@_05ODKHLCCG@nVote@				; `string'
PUBLIC	??_C@_07BIPEELOH@tCreate@			; `string'
PUBLIC	??_C@_0CB@FCFJFKNF@uspElectionInitialize?5?$CFd?0?5?$CFd?0?5?$CF@ ; `string'
PUBLIC	??_C@_0CH@LCMLFLCE@couldn?8t?5execute?5uspElectionIni@ ; `string'
PUBLIC	??_C@_0CA@EFGOLAFI@CTElection?4DoTestBeginCandidacy@ ; `string'
PUBLIC	??_C@_0BP@DDPAGKOB@uspElectionLeaveOut?5?$CFd?0?5?$CFd?0?5?$CFd@ ; `string'
PUBLIC	??_C@_0CF@DMMBMGJN@couldn?8t?5execute?5uspElectionLea@ ; `string'
PUBLIC	??_C@_0BL@GDEBELLG@CTElection?4DoReturnDeposit@	; `string'
PUBLIC	??_C@_0BL@LMGPGHGD@CTElection?4DoTestBeginVote@	; `string'
PUBLIC	??_C@_0BJ@NBOADCDH@CTElection?4DoTestEndVote@	; `string'
PUBLIC	??_C@_0CN@IFFHNJAO@CTElection?4DoTestAddDeposit?3?5?$CF0@ ; `string'
PUBLIC	??_C@_0CF@EBIGHEOA@CTElection?4DoTestSetPledge?3?5?$CF07@ ; `string'
PUBLIC	??_C@_0CF@GEOBODGJ@CTElection?4DoTestIncVote?3?5?$CF07d?0@ ; `string'
PUBLIC	??_C@_0BE@PNIJDBCM@uspRestoreLEvent?5?$CFd@	; `string'
PUBLIC	??_C@_05DLOGCGOB@nTick@				; `string'
PUBLIC	??_C@_08NHMMOOHF@fEFactor@			; `string'
PUBLIC	??_C@_08IAGDPLDK@fIFactor@			; `string'
PUBLIC	??_C@_0CB@IFBIPCGL@uspElectionBeginCandidacy?5?$CFd?0?5?$CF@ ; `string'
PUBLIC	??_C@_0BM@CADCBIMM@uspElectionBeginVote?5?$CFd?0?5?$CFd@ ; `string'
PUBLIC	??_C@_0CC@KFNJJIIE@uspElectionEndVote?5?$CFd?0?5?$CFd?0?5?$CFd?0?5@ ; `string'
PUBLIC	??_C@_0CM@MKKLKFBM@uspElectionAddDeposit?5?$CFd?0?5?$CFd?0?5?$CF@ ; `string'
PUBLIC	??_C@_0CN@DFOIGMEI@?$HLcall?5uspElectionSetPledge?$CI?5?$CFd?0@ ; `string'
PUBLIC	??_C@_0CC@MJFIHIPP@uspElectionIncVote?5?$CFd?0?5?$CFd?0?5?$CFd?0?5@ ; `string'
PUBLIC	??_C@_07MGNKFCA@bResult@			; `string'
PUBLIC	??_C@_0CL@KGJPMKPI@uspAddLEComponent?5?$CFd?0?5?$CFd?0?5?$CFd?0?5?$CF@ ; `string'
PUBLIC	??_C@_0BH@NILKABO@uspInitializeLEvent?5?$CFd@	; `string'
PUBLIC	??_C@_0BM@PHMEBJEL@uspLordSkillTick?5?$CFd?0?5?$CFd?0?5?$CFd@ ; `string'
PUBLIC	??_C@_0BM@INGAOOO@uspLordEventTick?5?$CFd?0?5?$CFd?0?5?$CFd@ ; `string'
PUBLIC	??_C@_0BH@OCAHAJDB@uspRestoreLordSkill?5?$CFd@	; `string'
PUBLIC	??_C@_06BDEJIFFK@nSkill@			; `string'
PUBLIC	??_R4CLController@@6B@				; CLController::`RTTI Complete Object Locator'
PUBLIC	??_R0?AVCLController@@@8			; CLController `RTTI Type Descriptor'
PUBLIC	??_R3CLController@@8				; CLController::`RTTI Class Hierarchy Descriptor'
PUBLIC	??_R2CLController@@8				; CLController::`RTTI Base Class Array'
PUBLIC	??_R1A@?0A@EA@CLController@@8			; CLController::`RTTI Base Class Descriptor at (0,-1,0,64)'
PUBLIC	??_R1A@?0A@EA@CDbController@@8			; CDbController::`RTTI Base Class Descriptor at (0,-1,0,64)'
PUBLIC	??_R0?AVCDbController@@@8			; CDbController `RTTI Type Descriptor'
PUBLIC	??_R3CDbController@@8				; CDbController::`RTTI Class Hierarchy Descriptor'
PUBLIC	??_R2CDbController@@8				; CDbController::`RTTI Base Class Array'
PUBLIC	??_R4CTLord@@6B@				; CTLord::`RTTI Complete Object Locator'
PUBLIC	??_R0?AVCTLord@@@8				; CTLord `RTTI Type Descriptor'
PUBLIC	??_R3CTLord@@8					; CTLord::`RTTI Class Hierarchy Descriptor'
PUBLIC	??_R2CTLord@@8					; CTLord::`RTTI Base Class Array'
PUBLIC	??_R1A@?0A@EA@CTLord@@8				; CTLord::`RTTI Base Class Descriptor at (0,-1,0,64)'
PUBLIC	??_R1A@?0A@EA@CLord@@8				; CLord::`RTTI Base Class Descriptor at (0,-1,0,64)'
PUBLIC	??_R0?AVCLord@@@8				; CLord `RTTI Type Descriptor'
PUBLIC	??_R3CLord@@8					; CLord::`RTTI Class Hierarchy Descriptor'
PUBLIC	??_R2CLord@@8					; CLord::`RTTI Base Class Array'
PUBLIC	??_R4CTElection@@6B@				; CTElection::`RTTI Complete Object Locator'
PUBLIC	??_R0?AVCTElection@@@8				; CTElection `RTTI Type Descriptor'
PUBLIC	??_R3CTElection@@8				; CTElection::`RTTI Class Hierarchy Descriptor'
PUBLIC	??_R2CTElection@@8				; CTElection::`RTTI Base Class Array'
PUBLIC	??_R1A@?0A@EA@CTElection@@8			; CTElection::`RTTI Base Class Descriptor at (0,-1,0,64)'
PUBLIC	??_R1A@?0A@EA@IElection@@8			; IElection::`RTTI Base Class Descriptor at (0,-1,0,64)'
PUBLIC	??_R0?AVIElection@@@8				; IElection `RTTI Type Descriptor'
PUBLIC	??_R3IElection@@8				; IElection::`RTTI Class Hierarchy Descriptor'
PUBLIC	??_R2IElection@@8				; IElection::`RTTI Base Class Array'
PUBLIC	??_R4CTLordSkill@@6B@				; CTLordSkill::`RTTI Complete Object Locator'
PUBLIC	??_R0?AVCTLordSkill@@@8				; CTLordSkill `RTTI Type Descriptor'
PUBLIC	??_R3CTLordSkill@@8				; CTLordSkill::`RTTI Class Hierarchy Descriptor'
PUBLIC	??_R2CTLordSkill@@8				; CTLordSkill::`RTTI Base Class Array'
PUBLIC	??_R1A@?0A@EA@CTLordSkill@@8			; CTLordSkill::`RTTI Base Class Descriptor at (0,-1,0,64)'
PUBLIC	??_R1A@?0A@EA@CLordSkill@@8			; CLordSkill::`RTTI Base Class Descriptor at (0,-1,0,64)'
PUBLIC	??_R0?AVCLordSkill@@@8				; CLordSkill `RTTI Type Descriptor'
PUBLIC	??_R3CLordSkill@@8				; CLordSkill::`RTTI Class Hierarchy Descriptor'
PUBLIC	??_R2CLordSkill@@8				; CLordSkill::`RTTI Base Class Array'
PUBLIC	??_R4CLEvent@@6B@				; CLEvent::`RTTI Complete Object Locator'
PUBLIC	??_R0?AVCLEvent@@@8				; CLEvent `RTTI Type Descriptor'
PUBLIC	??_R3CLEvent@@8					; CLEvent::`RTTI Class Hierarchy Descriptor'
PUBLIC	??_R2CLEvent@@8					; CLEvent::`RTTI Base Class Array'
PUBLIC	??_R1A@?0A@EA@CLEvent@@8			; CLEvent::`RTTI Base Class Descriptor at (0,-1,0,64)'
PUBLIC	??_R1A@?0A@EA@ILordEvent@@8			; ILordEvent::`RTTI Base Class Descriptor at (0,-1,0,64)'
PUBLIC	??_R0?AVILordEvent@@@8				; ILordEvent `RTTI Type Descriptor'
PUBLIC	??_R3ILordEvent@@8				; ILordEvent::`RTTI Class Hierarchy Descriptor'
PUBLIC	??_R2ILordEvent@@8				; ILordEvent::`RTTI Base Class Array'
PUBLIC	__real@00000000
PUBLIC	__real@42c80000
EXTRN	??2@YAPAXI@Z:PROC				; operator new
EXTRN	??3@YAXPAXI@Z:PROC				; operator delete
EXTRN	_atexit:PROC
EXTRN	__Init_thread_header:PROC
EXTRN	__Init_thread_abort:PROC
EXTRN	__Init_thread_footer:PROC
EXTRN	__invalid_parameter_noinfo:PROC
EXTRN	__invoke_watson:PROC
EXTRN	__errno:PROC
EXTRN	_strncpy:PROC
EXTRN	__imp__EnterCriticalSection@4:PROC
EXTRN	__imp__LeaveCriticalSection@4:PROC
EXTRN	__imp__LoadResource@8:PROC
EXTRN	__imp__LockResource@4:PROC
EXTRN	__imp__SizeofResource@8:PROC
EXTRN	__imp__FindResourceW@12:PROC
EXTRN	__imp__lstrcpyA@8:PROC
EXTRN	__imp__WideCharToMultiByte@32:PROC
EXTRN	__mbscmp:PROC
EXTRN	___stdio_common_vsprintf:PROC
EXTRN	_exit:PROC
EXTRN	_atoi:PROC
EXTRN	__localtime64_s:PROC
EXTRN	__mktime64:PROC
EXTRN	_strftime:PROC
EXTRN	__time32:PROC
EXTRN	?AfxThrowMemoryException@@YGXXZ:PROC		; AfxThrowMemoryException
EXTRN	?AfxThrowOleException@@YGXJ@Z:PROC		; AfxThrowOleException
EXTRN	?AfxFindStringResourceHandle@@YGPAUHINSTANCE__@@I@Z:PROC ; AfxFindStringResourceHandle
EXTRN	?AfxGetStringManager@@YGPAUIAtlStringMgr@ATL@@XZ:PROC ; AfxGetStringManager
EXTRN	?_Xlength_error@std@@YAXPBD@Z:PROC		; std::_Xlength_error
EXTRN	___std_exception_copy:PROC
EXTRN	___std_exception_destroy:PROC
EXTRN	??_Eexception@std@@UAEPAXI@Z:PROC		; std::exception::`vector deleting destructor'
EXTRN	??_Ebad_alloc@std@@UAEPAXI@Z:PROC		; std::bad_alloc::`vector deleting destructor'
EXTRN	??_Ebad_array_new_length@std@@UAEPAXI@Z:PROC	; std::bad_array_new_length::`vector deleting destructor'
EXTRN	?Error@@YAPBDPBDZZ:PROC				; Error
EXTRN	?GetNumber@CScanner@@QAEHH@Z:PROC		; CScanner::GetNumber
EXTRN	?GetFloat@CScanner@@QAEMH@Z:PROC		; CScanner::GetFloat
EXTRN	??0CScript@@QAE@H@Z:PROC			; CScript::CScript
EXTRN	??1CScript@@UAE@XZ:PROC				; CScript::~CScript
EXTRN	?Load@CScript@@QAEHPBDHH@Z:PROC			; CScript::Load
EXTRN	?GetToken@CScript@@UAEHH@Z:PROC			; CScript::GetToken
EXTRN	??1CQuery@@QAE@XZ:PROC				; CQuery::~CQuery
EXTRN	?Exec@CQuery@@QAEHPBD@Z:PROC			; CQuery::Exec
EXTRN	?Execute@CQuery@@QAAHPBDZZ:PROC			; CQuery::Execute
EXTRN	?Fetch@CQuery@@QAEHXZ:PROC			; CQuery::Fetch
EXTRN	?GetInt@CQuery@@QAEHPAD@Z:PROC			; CQuery::GetInt
EXTRN	?GetInt64@CQuery@@QAE_JPAD@Z:PROC		; CQuery::GetInt64
EXTRN	?GetFloat@CQuery@@QAEMPAD@Z:PROC		; CQuery::GetFloat
EXTRN	?GetStr@CQuery@@QAEXPAD0@Z:PROC			; CQuery::GetStr
EXTRN	?BindParameter@CQuery@@QAEHGFFFKFPAXJPAJ@Z:PROC	; CQuery::BindParameter
EXTRN	??0CAr@@QAE@PAXI@Z:PROC				; CAr::CAr
EXTRN	??1CAr@@QAE@XZ:PROC				; CAr::~CAr
EXTRN	?ReadString@CAr@@QAEPADPADH@Z:PROC		; CAr::ReadString
EXTRN	??0CItemElem@@QAE@XZ:PROC			; CItemElem::CItemElem
EXTRN	??0CLordSkill@@QAE@PAVCLord@@@Z:PROC		; CLordSkill::CLordSkill
EXTRN	??1CLordSkill@@UAE@XZ:PROC			; CLordSkill::~CLordSkill
EXTRN	?GetSkill@CLordSkill@@QAEPAVCLordSkillComponentExecutable@@H@Z:PROC ; CLordSkill::GetSkill
EXTRN	?Initialize@CLordSkill@@QAEHPBD@Z:PROC		; CLordSkill::Initialize
EXTRN	??0IElection@@IAE@PAVCLord@@@Z:PROC		; IElection::IElection
EXTRN	??1IElection@@UAE@XZ:PROC			; IElection::~IElection
EXTRN	?AddCandidate@IElection@@QAEPAVCCandidate@@K_JPBDHJ@Z:PROC ; IElection::AddCandidate
EXTRN	?GetOrder@IElection@@QAEHK@Z:PROC		; IElection::GetOrder
EXTRN	?GetPropertyState@IElection@@QAE?AW4ELECTION_STATE@1@XZ:PROC ; IElection::GetPropertyState
EXTRN	?PrepareNext@IElection@@QAEXXZ:PROC		; IElection::PrepareNext
EXTRN	?BeginCandidacy@IElection@@QAEXXZ:PROC		; IElection::BeginCandidacy
EXTRN	?BeginVote@IElection@@QAEXH@Z:PROC		; IElection::BeginVote
EXTRN	?EndVote@IElection@@QAEXK@Z:PROC		; IElection::EndVote
EXTRN	?AddDeposit@IElection@@QAEXK_JJ@Z:PROC		; IElection::AddDeposit
EXTRN	?SetPledge@IElection@@QAEXKPBD@Z:PROC		; IElection::SetPledge
EXTRN	?IncVote@IElection@@QAEXKK@Z:PROC		; IElection::IncVote
EXTRN	?GetNextBegin@IElection@@QAEJXZ:PROC		; IElection::GetNextBegin
EXTRN	?SortDeposit@IElection@@IAEXXZ:PROC		; IElection::SortDeposit
EXTRN	?SortVote@IElection@@IAEXXZ:PROC		; IElection::SortVote
EXTRN	??0CLEComponent@@QAE@HKMM@Z:PROC		; CLEComponent::CLEComponent
EXTRN	?Decrement@CLEComponent@@QAEHXZ:PROC		; CLEComponent::Decrement
EXTRN	??0ILordEvent@@IAE@PAVCLord@@@Z:PROC		; ILordEvent::ILordEvent
EXTRN	??1ILordEvent@@UAE@XZ:PROC			; ILordEvent::~ILordEvent
EXTRN	?AddComponent@ILordEvent@@QAEXPAVCLEComponent@@H@Z:PROC ; ILordEvent::AddComponent
EXTRN	?AddComponent@ILordEvent@@QAEXKHH@Z:PROC	; ILordEvent::AddComponent
EXTRN	?Initialize@ILordEvent@@QAEXXZ:PROC		; ILordEvent::Initialize
EXTRN	?Initialize@ILordEvent@@QAEHPBD@Z:PROC		; ILordEvent::Initialize
EXTRN	?EraseExpiredComponents@ILordEvent@@QAEXXZ:PROC	; ILordEvent::EraseExpiredComponents
EXTRN	??1CLord@@QAE@XZ:PROC				; CLord::~CLord
EXTRN	??0CLord@@IAE@XZ:PROC				; CLord::CLord
EXTRN	?OutputDebugStringA@election@@YAXPBDZZ:PROC	; election::OutputDebugStringA
EXTRN	??0CDbController@@QAE@XZ:PROC			; CDbController::CDbController
EXTRN	??1CDbController@@UAE@XZ:PROC			; CDbController::~CDbController
EXTRN	?CreateDbHandler@CDbController@@QAEHK@Z:PROC	; CDbController::CreateDbHandler
EXTRN	?CloseDbHandler@CDbController@@QAEXXZ:PROC	; CDbController::CloseDbHandler
EXTRN	?PostRequest@CDbController@@QAEHHPAEHK@Z:PROC	; CDbController::PostRequest
EXTRN	?CreateQuery@CDbController@@QAEPAVCQuery@@XZ:PROC ; CDbController::CreateQuery
EXTRN	?Post@post@@YAXKPAVCMail@@PAVCQuery@@@Z:PROC	; post::Post
EXTRN	??0CMail@@QAE@XZ:PROC				; CMail::CMail
EXTRN	??_ECTLord@@UAEPAXI@Z:PROC			; CTLord::`vector deleting destructor'
EXTRN	??_ECTElection@@UAEPAXI@Z:PROC			; CTElection::`vector deleting destructor'
EXTRN	??_ECTLordSkill@@UAEPAXI@Z:PROC			; CTLordSkill::`vector deleting destructor'
EXTRN	??_ECLEvent@@UAEPAXI@Z:PROC			; CLEvent::`vector deleting destructor'
EXTRN	??_ECLController@@UAEPAXI@Z:PROC		; CLController::`vector deleting destructor'
EXTRN	??0CLordSkillComponentODBC@@QAE@XZ:PROC		; CLordSkillComponentODBC::CLordSkillComponentODBC
EXTRN	?GetInstance@CPlayerDataCenter@@SAPAV1@XZ:PROC	; CPlayerDataCenter::GetInstance
EXTRN	?GetPlayerData@CPlayerDataCenter@@QAEPAU_PlayerData@@K@Z:PROC ; CPlayerDataCenter::GetPlayerData
EXTRN	?GetInstance@CDPTrans@@SAPAV1@XZ:PROC		; CDPTrans::GetInstance
EXTRN	?SendElectionAddDeposit@CDPTrans@@QAEXK_JJH@Z:PROC ; CDPTrans::SendElectionAddDeposit
EXTRN	?SendElectionSetPledge@CDPTrans@@QAEXKPBDH@Z:PROC ; CDPTrans::SendElectionSetPledge
EXTRN	?SendElectionIncVote@CDPTrans@@QAEXKKH@Z:PROC	; CDPTrans::SendElectionIncVote
EXTRN	?SendElectionBeginCandidacy@CDPTrans@@QAEXXZ:PROC ; CDPTrans::SendElectionBeginCandidacy
EXTRN	?SendElectionBeginVote@CDPTrans@@QAEXH@Z:PROC	; CDPTrans::SendElectionBeginVote
EXTRN	?SendElectionEndVote@CDPTrans@@QAEXK@Z:PROC	; CDPTrans::SendElectionEndVote
EXTRN	?SendLord@CDPTrans@@QAEXK@Z:PROC		; CDPTrans::SendLord
EXTRN	?SendLEventCreate@CDPTrans@@QAEXPAVCLEComponent@@H@Z:PROC ; CDPTrans::SendLEventCreate
EXTRN	?SendLEventInitialize@CDPTrans@@QAEXXZ:PROC	; CDPTrans::SendLEventInitialize
EXTRN	?SendLordSkillTick@CDPTrans@@QAEXPAVCLordSkill@@@Z:PROC ; CDPTrans::SendLordSkillTick
EXTRN	?SendLEventTick@CDPTrans@@QAEXPAVILordEvent@@@Z:PROC ; CDPTrans::SendLEventTick
EXTRN	@__security_check_cookie@4:PROC
EXTRN	__CxxThrowException@8:PROC
EXTRN	___CxxFrameHandler3:PROC
EXTRN	__alldiv:PROC
EXTRN	__chkstk:PROC
EXTRN	__ftol3:PROC
EXTRN	__ltof3:PROC
EXTRN	_memcpy:PROC
EXTRN	_memmove:PROC
EXTRN	_memset:PROC
EXTRN	__Init_thread_epoch:DWORD
EXTRN	??_7type_info@@6B@:QWORD			; type_info::`vftable'
EXTRN	?g_next@@3KA:DWORD				; g_next
EXTRN	?prj@@3VCProject@@A:BYTE			; prj
EXTRN	?g_appInfo@@3UAppInfo@@A:QWORD			; g_appInfo
EXTRN	___security_cookie:DWORD
EXTRN	__fltused:DWORD
EXTRN	__tls_array:DWORD
EXTRN	__tls_index:DWORD
;	COMDAT ?_OptionsStorage@?1??__local_stdio_printf_options@@9@4_KA
_BSS	SEGMENT
?_OptionsStorage@?1??__local_stdio_printf_options@@9@4_KA DQ 01H DUP (?) ; `__local_stdio_printf_options'::`2'::_OptionsStorage
_BSS	ENDS
;	COMDAT ?sLord@?1??Instance@CTLord@@SAPAV2@XZ@4V2@A
_BSS	SEGMENT
?sLord@?1??Instance@CTLord@@SAPAV2@XZ@4V2@A DB 018H DUP (?) ; `CTLord::Instance'::`2'::sLord
_BSS	ENDS
;	COMDAT ?$TSS0@?1??Instance@CTLord@@SAPAV2@XZ@4HA
_BSS	SEGMENT
?$TSS0@?1??Instance@CTLord@@SAPAV2@XZ@4HA DD 01H DUP (?) ; `CTLord::Instance'::`2'::$TSS0
_BSS	ENDS
;	COMDAT __real@42c80000
CONST	SEGMENT
__real@42c80000 DD 042c80000r			; 100
CONST	ENDS
;	COMDAT __real@00000000
CONST	SEGMENT
__real@00000000 DD 000000000r			; 0
CONST	ENDS
;	COMDAT ??_R2ILordEvent@@8
rdata$r	SEGMENT
??_R2ILordEvent@@8 DD FLAT:??_R1A@?0A@EA@ILordEvent@@8	; ILordEvent::`RTTI Base Class Array'
rdata$r	ENDS
;	COMDAT ??_R3ILordEvent@@8
rdata$r	SEGMENT
??_R3ILordEvent@@8 DD 00H				; ILordEvent::`RTTI Class Hierarchy Descriptor'
	DD	00H
	DD	01H
	DD	FLAT:??_R2ILordEvent@@8
rdata$r	ENDS
;	COMDAT ??_R0?AVILordEvent@@@8
data$rs	SEGMENT
??_R0?AVILordEvent@@@8 DD FLAT:??_7type_info@@6B@	; ILordEvent `RTTI Type Descriptor'
	DD	00H
	DB	'.?AVILordEvent@@', 00H
data$rs	ENDS
;	COMDAT ??_R1A@?0A@EA@ILordEvent@@8
rdata$r	SEGMENT
??_R1A@?0A@EA@ILordEvent@@8 DD FLAT:??_R0?AVILordEvent@@@8 ; ILordEvent::`RTTI Base Class Descriptor at (0,-1,0,64)'
	DD	00H
	DD	00H
	DD	0ffffffffH
	DD	00H
	DD	040H
	DD	FLAT:??_R3ILordEvent@@8
rdata$r	ENDS
;	COMDAT ??_R1A@?0A@EA@CLEvent@@8
rdata$r	SEGMENT
??_R1A@?0A@EA@CLEvent@@8 DD FLAT:??_R0?AVCLEvent@@@8	; CLEvent::`RTTI Base Class Descriptor at (0,-1,0,64)'
	DD	01H
	DD	00H
	DD	0ffffffffH
	DD	00H
	DD	040H
	DD	FLAT:??_R3CLEvent@@8
rdata$r	ENDS
;	COMDAT ??_R2CLEvent@@8
rdata$r	SEGMENT
??_R2CLEvent@@8 DD FLAT:??_R1A@?0A@EA@CLEvent@@8	; CLEvent::`RTTI Base Class Array'
	DD	FLAT:??_R1A@?0A@EA@ILordEvent@@8
rdata$r	ENDS
;	COMDAT ??_R3CLEvent@@8
rdata$r	SEGMENT
??_R3CLEvent@@8 DD 00H					; CLEvent::`RTTI Class Hierarchy Descriptor'
	DD	00H
	DD	02H
	DD	FLAT:??_R2CLEvent@@8
rdata$r	ENDS
;	COMDAT ??_R0?AVCLEvent@@@8
data$rs	SEGMENT
??_R0?AVCLEvent@@@8 DD FLAT:??_7type_info@@6B@		; CLEvent `RTTI Type Descriptor'
	DD	00H
	DB	'.?AVCLEvent@@', 00H
data$rs	ENDS
;	COMDAT ??_R4CLEvent@@6B@
rdata$r	SEGMENT
??_R4CLEvent@@6B@ DD 00H				; CLEvent::`RTTI Complete Object Locator'
	DD	00H
	DD	00H
	DD	FLAT:??_R0?AVCLEvent@@@8
	DD	FLAT:??_R3CLEvent@@8
rdata$r	ENDS
;	COMDAT ??_R2CLordSkill@@8
rdata$r	SEGMENT
??_R2CLordSkill@@8 DD FLAT:??_R1A@?0A@EA@CLordSkill@@8	; CLordSkill::`RTTI Base Class Array'
rdata$r	ENDS
;	COMDAT ??_R3CLordSkill@@8
rdata$r	SEGMENT
??_R3CLordSkill@@8 DD 00H				; CLordSkill::`RTTI Class Hierarchy Descriptor'
	DD	00H
	DD	01H
	DD	FLAT:??_R2CLordSkill@@8
rdata$r	ENDS
;	COMDAT ??_R0?AVCLordSkill@@@8
data$rs	SEGMENT
??_R0?AVCLordSkill@@@8 DD FLAT:??_7type_info@@6B@	; CLordSkill `RTTI Type Descriptor'
	DD	00H
	DB	'.?AVCLordSkill@@', 00H
data$rs	ENDS
;	COMDAT ??_R1A@?0A@EA@CLordSkill@@8
rdata$r	SEGMENT
??_R1A@?0A@EA@CLordSkill@@8 DD FLAT:??_R0?AVCLordSkill@@@8 ; CLordSkill::`RTTI Base Class Descriptor at (0,-1,0,64)'
	DD	00H
	DD	00H
	DD	0ffffffffH
	DD	00H
	DD	040H
	DD	FLAT:??_R3CLordSkill@@8
rdata$r	ENDS
;	COMDAT ??_R1A@?0A@EA@CTLordSkill@@8
rdata$r	SEGMENT
??_R1A@?0A@EA@CTLordSkill@@8 DD FLAT:??_R0?AVCTLordSkill@@@8 ; CTLordSkill::`RTTI Base Class Descriptor at (0,-1,0,64)'
	DD	01H
	DD	00H
	DD	0ffffffffH
	DD	00H
	DD	040H
	DD	FLAT:??_R3CTLordSkill@@8
rdata$r	ENDS
;	COMDAT ??_R2CTLordSkill@@8
rdata$r	SEGMENT
??_R2CTLordSkill@@8 DD FLAT:??_R1A@?0A@EA@CTLordSkill@@8 ; CTLordSkill::`RTTI Base Class Array'
	DD	FLAT:??_R1A@?0A@EA@CLordSkill@@8
rdata$r	ENDS
;	COMDAT ??_R3CTLordSkill@@8
rdata$r	SEGMENT
??_R3CTLordSkill@@8 DD 00H				; CTLordSkill::`RTTI Class Hierarchy Descriptor'
	DD	00H
	DD	02H
	DD	FLAT:??_R2CTLordSkill@@8
rdata$r	ENDS
;	COMDAT ??_R0?AVCTLordSkill@@@8
data$rs	SEGMENT
??_R0?AVCTLordSkill@@@8 DD FLAT:??_7type_info@@6B@	; CTLordSkill `RTTI Type Descriptor'
	DD	00H
	DB	'.?AVCTLordSkill@@', 00H
data$rs	ENDS
;	COMDAT ??_R4CTLordSkill@@6B@
rdata$r	SEGMENT
??_R4CTLordSkill@@6B@ DD 00H				; CTLordSkill::`RTTI Complete Object Locator'
	DD	00H
	DD	00H
	DD	FLAT:??_R0?AVCTLordSkill@@@8
	DD	FLAT:??_R3CTLordSkill@@8
rdata$r	ENDS
;	COMDAT ??_R2IElection@@8
rdata$r	SEGMENT
??_R2IElection@@8 DD FLAT:??_R1A@?0A@EA@IElection@@8	; IElection::`RTTI Base Class Array'
rdata$r	ENDS
;	COMDAT ??_R3IElection@@8
rdata$r	SEGMENT
??_R3IElection@@8 DD 00H				; IElection::`RTTI Class Hierarchy Descriptor'
	DD	00H
	DD	01H
	DD	FLAT:??_R2IElection@@8
rdata$r	ENDS
;	COMDAT ??_R0?AVIElection@@@8
data$rs	SEGMENT
??_R0?AVIElection@@@8 DD FLAT:??_7type_info@@6B@	; IElection `RTTI Type Descriptor'
	DD	00H
	DB	'.?AVIElection@@', 00H
data$rs	ENDS
;	COMDAT ??_R1A@?0A@EA@IElection@@8
rdata$r	SEGMENT
??_R1A@?0A@EA@IElection@@8 DD FLAT:??_R0?AVIElection@@@8 ; IElection::`RTTI Base Class Descriptor at (0,-1,0,64)'
	DD	00H
	DD	00H
	DD	0ffffffffH
	DD	00H
	DD	040H
	DD	FLAT:??_R3IElection@@8
rdata$r	ENDS
;	COMDAT ??_R1A@?0A@EA@CTElection@@8
rdata$r	SEGMENT
??_R1A@?0A@EA@CTElection@@8 DD FLAT:??_R0?AVCTElection@@@8 ; CTElection::`RTTI Base Class Descriptor at (0,-1,0,64)'
	DD	01H
	DD	00H
	DD	0ffffffffH
	DD	00H
	DD	040H
	DD	FLAT:??_R3CTElection@@8
rdata$r	ENDS
;	COMDAT ??_R2CTElection@@8
rdata$r	SEGMENT
??_R2CTElection@@8 DD FLAT:??_R1A@?0A@EA@CTElection@@8	; CTElection::`RTTI Base Class Array'
	DD	FLAT:??_R1A@?0A@EA@IElection@@8
rdata$r	ENDS
;	COMDAT ??_R3CTElection@@8
rdata$r	SEGMENT
??_R3CTElection@@8 DD 00H				; CTElection::`RTTI Class Hierarchy Descriptor'
	DD	00H
	DD	02H
	DD	FLAT:??_R2CTElection@@8
rdata$r	ENDS
;	COMDAT ??_R0?AVCTElection@@@8
data$rs	SEGMENT
??_R0?AVCTElection@@@8 DD FLAT:??_7type_info@@6B@	; CTElection `RTTI Type Descriptor'
	DD	00H
	DB	'.?AVCTElection@@', 00H
data$rs	ENDS
;	COMDAT ??_R4CTElection@@6B@
rdata$r	SEGMENT
??_R4CTElection@@6B@ DD 00H				; CTElection::`RTTI Complete Object Locator'
	DD	00H
	DD	00H
	DD	FLAT:??_R0?AVCTElection@@@8
	DD	FLAT:??_R3CTElection@@8
rdata$r	ENDS
;	COMDAT ??_R2CLord@@8
rdata$r	SEGMENT
??_R2CLord@@8 DD FLAT:??_R1A@?0A@EA@CLord@@8		; CLord::`RTTI Base Class Array'
rdata$r	ENDS
;	COMDAT ??_R3CLord@@8
rdata$r	SEGMENT
??_R3CLord@@8 DD 00H					; CLord::`RTTI Class Hierarchy Descriptor'
	DD	00H
	DD	01H
	DD	FLAT:??_R2CLord@@8
rdata$r	ENDS
;	COMDAT ??_R0?AVCLord@@@8
data$rs	SEGMENT
??_R0?AVCLord@@@8 DD FLAT:??_7type_info@@6B@		; CLord `RTTI Type Descriptor'
	DD	00H
	DB	'.?AVCLord@@', 00H
data$rs	ENDS
;	COMDAT ??_R1A@?0A@EA@CLord@@8
rdata$r	SEGMENT
??_R1A@?0A@EA@CLord@@8 DD FLAT:??_R0?AVCLord@@@8	; CLord::`RTTI Base Class Descriptor at (0,-1,0,64)'
	DD	00H
	DD	00H
	DD	0ffffffffH
	DD	00H
	DD	040H
	DD	FLAT:??_R3CLord@@8
rdata$r	ENDS
;	COMDAT ??_R1A@?0A@EA@CTLord@@8
rdata$r	SEGMENT
??_R1A@?0A@EA@CTLord@@8 DD FLAT:??_R0?AVCTLord@@@8	; CTLord::`RTTI Base Class Descriptor at (0,-1,0,64)'
	DD	01H
	DD	00H
	DD	0ffffffffH
	DD	00H
	DD	040H
	DD	FLAT:??_R3CTLord@@8
rdata$r	ENDS
;	COMDAT ??_R2CTLord@@8
rdata$r	SEGMENT
??_R2CTLord@@8 DD FLAT:??_R1A@?0A@EA@CTLord@@8		; CTLord::`RTTI Base Class Array'
	DD	FLAT:??_R1A@?0A@EA@CLord@@8
rdata$r	ENDS
;	COMDAT ??_R3CTLord@@8
rdata$r	SEGMENT
??_R3CTLord@@8 DD 00H					; CTLord::`RTTI Class Hierarchy Descriptor'
	DD	00H
	DD	02H
	DD	FLAT:??_R2CTLord@@8
rdata$r	ENDS
;	COMDAT ??_R0?AVCTLord@@@8
data$rs	SEGMENT
??_R0?AVCTLord@@@8 DD FLAT:??_7type_info@@6B@		; CTLord `RTTI Type Descriptor'
	DD	00H
	DB	'.?AVCTLord@@', 00H
data$rs	ENDS
;	COMDAT ??_R4CTLord@@6B@
rdata$r	SEGMENT
??_R4CTLord@@6B@ DD 00H					; CTLord::`RTTI Complete Object Locator'
	DD	00H
	DD	00H
	DD	FLAT:??_R0?AVCTLord@@@8
	DD	FLAT:??_R3CTLord@@8
rdata$r	ENDS
;	COMDAT ??_R2CDbController@@8
rdata$r	SEGMENT
??_R2CDbController@@8 DD FLAT:??_R1A@?0A@EA@CDbController@@8 ; CDbController::`RTTI Base Class Array'
rdata$r	ENDS
;	COMDAT ??_R3CDbController@@8
rdata$r	SEGMENT
??_R3CDbController@@8 DD 00H				; CDbController::`RTTI Class Hierarchy Descriptor'
	DD	00H
	DD	01H
	DD	FLAT:??_R2CDbController@@8
rdata$r	ENDS
;	COMDAT ??_R0?AVCDbController@@@8
data$rs	SEGMENT
??_R0?AVCDbController@@@8 DD FLAT:??_7type_info@@6B@	; CDbController `RTTI Type Descriptor'
	DD	00H
	DB	'.?AVCDbController@@', 00H
data$rs	ENDS
;	COMDAT ??_R1A@?0A@EA@CDbController@@8
rdata$r	SEGMENT
??_R1A@?0A@EA@CDbController@@8 DD FLAT:??_R0?AVCDbController@@@8 ; CDbController::`RTTI Base Class Descriptor at (0,-1,0,64)'
	DD	00H
	DD	00H
	DD	0ffffffffH
	DD	00H
	DD	040H
	DD	FLAT:??_R3CDbController@@8
rdata$r	ENDS
;	COMDAT ??_R1A@?0A@EA@CLController@@8
rdata$r	SEGMENT
??_R1A@?0A@EA@CLController@@8 DD FLAT:??_R0?AVCLController@@@8 ; CLController::`RTTI Base Class Descriptor at (0,-1,0,64)'
	DD	01H
	DD	00H
	DD	0ffffffffH
	DD	00H
	DD	040H
	DD	FLAT:??_R3CLController@@8
rdata$r	ENDS
;	COMDAT ??_R2CLController@@8
rdata$r	SEGMENT
??_R2CLController@@8 DD FLAT:??_R1A@?0A@EA@CLController@@8 ; CLController::`RTTI Base Class Array'
	DD	FLAT:??_R1A@?0A@EA@CDbController@@8
rdata$r	ENDS
;	COMDAT ??_R3CLController@@8
rdata$r	SEGMENT
??_R3CLController@@8 DD 00H				; CLController::`RTTI Class Hierarchy Descriptor'
	DD	00H
	DD	02H
	DD	FLAT:??_R2CLController@@8
rdata$r	ENDS
;	COMDAT ??_R0?AVCLController@@@8
data$rs	SEGMENT
??_R0?AVCLController@@@8 DD FLAT:??_7type_info@@6B@	; CLController `RTTI Type Descriptor'
	DD	00H
	DB	'.?AVCLController@@', 00H
data$rs	ENDS
;	COMDAT ??_R4CLController@@6B@
rdata$r	SEGMENT
??_R4CLController@@6B@ DD 00H				; CLController::`RTTI Complete Object Locator'
	DD	00H
	DD	00H
	DD	FLAT:??_R0?AVCLController@@@8
	DD	FLAT:??_R3CLController@@8
rdata$r	ENDS
;	COMDAT ??_C@_06BDEJIFFK@nSkill@
CONST	SEGMENT
??_C@_06BDEJIFFK@nSkill@ DB 'nSkill', 00H		; `string'
CONST	ENDS
;	COMDAT ??_C@_0BH@OCAHAJDB@uspRestoreLordSkill?5?$CFd@
CONST	SEGMENT
??_C@_0BH@OCAHAJDB@uspRestoreLordSkill?5?$CFd@ DB 'uspRestoreLordSkill %d'
	DB	00H						; `string'
CONST	ENDS
;	COMDAT ??_C@_0BM@INGAOOO@uspLordEventTick?5?$CFd?0?5?$CFd?0?5?$CFd@
CONST	SEGMENT
??_C@_0BM@INGAOOO@uspLordEventTick?5?$CFd?0?5?$CFd?0?5?$CFd@ DB 'uspLordE'
	DB	'ventTick %d, %d, %d', 00H			; `string'
CONST	ENDS
;	COMDAT ??_C@_0BM@PHMEBJEL@uspLordSkillTick?5?$CFd?0?5?$CFd?0?5?$CFd@
CONST	SEGMENT
??_C@_0BM@PHMEBJEL@uspLordSkillTick?5?$CFd?0?5?$CFd?0?5?$CFd@ DB 'uspLord'
	DB	'SkillTick %d, %d, %d', 00H			; `string'
CONST	ENDS
;	COMDAT ??_C@_0BH@NILKABO@uspInitializeLEvent?5?$CFd@
CONST	SEGMENT
??_C@_0BH@NILKABO@uspInitializeLEvent?5?$CFd@ DB 'uspInitializeLEvent %d', 00H ; `string'
CONST	ENDS
;	COMDAT ??_C@_0CL@KGJPMKPI@uspAddLEComponent?5?$CFd?0?5?$CFd?0?5?$CFd?0?5?$CF@
CONST	SEGMENT
??_C@_0CL@KGJPMKPI@uspAddLEComponent?5?$CFd?0?5?$CFd?0?5?$CFd?0?5?$CF@ DB 'u'
	DB	'spAddLEComponent %d, %d, %d, %3.2f, %3.2f', 00H ; `string'
CONST	ENDS
;	COMDAT ??_C@_07MGNKFCA@bResult@
CONST	SEGMENT
??_C@_07MGNKFCA@bResult@ DB 'bResult', 00H		; `string'
CONST	ENDS
;	COMDAT ??_C@_0CC@MJFIHIPP@uspElectionIncVote?5?$CFd?0?5?$CFd?0?5?$CFd?0?5@
CONST	SEGMENT
??_C@_0CC@MJFIHIPP@uspElectionIncVote?5?$CFd?0?5?$CFd?0?5?$CFd?0?5@ DB 'u'
	DB	'spElectionIncVote %d, %d, %d, %d', 00H	; `string'
CONST	ENDS
;	COMDAT ??_C@_0CN@DFOIGMEI@?$HLcall?5uspElectionSetPledge?$CI?5?$CFd?0@
CONST	SEGMENT
??_C@_0CN@DFOIGMEI@?$HLcall?5uspElectionSetPledge?$CI?5?$CFd?0@ DB '{call'
	DB	' uspElectionSetPledge( %d, %d, %d, ? )}', 00H ; `string'
CONST	ENDS
;	COMDAT ??_C@_0CM@MKKLKFBM@uspElectionAddDeposit?5?$CFd?0?5?$CFd?0?5?$CF@
CONST	SEGMENT
??_C@_0CM@MKKLKFBM@uspElectionAddDeposit?5?$CFd?0?5?$CFd?0?5?$CF@ DB 'usp'
	DB	'ElectionAddDeposit %d, %d, %d, %I64d, %d', 00H ; `string'
CONST	ENDS
;	COMDAT ??_C@_0CC@KFNJJIIE@uspElectionEndVote?5?$CFd?0?5?$CFd?0?5?$CFd?0?5@
CONST	SEGMENT
??_C@_0CC@KFNJJIIE@uspElectionEndVote?5?$CFd?0?5?$CFd?0?5?$CFd?0?5@ DB 'u'
	DB	'spElectionEndVote %d, %d, %d, %s', 00H	; `string'
CONST	ENDS
;	COMDAT ??_C@_0BM@CADCBIMM@uspElectionBeginVote?5?$CFd?0?5?$CFd@
CONST	SEGMENT
??_C@_0BM@CADCBIMM@uspElectionBeginVote?5?$CFd?0?5?$CFd@ DB 'uspElectionB'
	DB	'eginVote %d, %d', 00H			; `string'
CONST	ENDS
;	COMDAT ??_C@_0CB@IFBIPCGL@uspElectionBeginCandidacy?5?$CFd?0?5?$CF@
CONST	SEGMENT
??_C@_0CB@IFBIPCGL@uspElectionBeginCandidacy?5?$CFd?0?5?$CF@ DB 'uspElect'
	DB	'ionBeginCandidacy %d, %d', 00H		; `string'
CONST	ENDS
;	COMDAT ??_C@_08IAGDPLDK@fIFactor@
CONST	SEGMENT
??_C@_08IAGDPLDK@fIFactor@ DB 'fIFactor', 00H		; `string'
CONST	ENDS
;	COMDAT ??_C@_08NHMMOOHF@fEFactor@
CONST	SEGMENT
??_C@_08NHMMOOHF@fEFactor@ DB 'fEFactor', 00H		; `string'
CONST	ENDS
;	COMDAT ??_C@_05DLOGCGOB@nTick@
CONST	SEGMENT
??_C@_05DLOGCGOB@nTick@ DB 'nTick', 00H			; `string'
CONST	ENDS
;	COMDAT ??_C@_0BE@PNIJDBCM@uspRestoreLEvent?5?$CFd@
CONST	SEGMENT
??_C@_0BE@PNIJDBCM@uspRestoreLEvent?5?$CFd@ DB 'uspRestoreLEvent %d', 00H ; `string'
CONST	ENDS
;	COMDAT ??_C@_0CF@GEOBODGJ@CTElection?4DoTestIncVote?3?5?$CF07d?0@
CONST	SEGMENT
??_C@_0CF@GEOBODGJ@CTElection?4DoTestIncVote?3?5?$CF07d?0@ DB 'CTElection'
	DB	'.DoTestIncVote: %07d, %07d', 00H		; `string'
CONST	ENDS
;	COMDAT ??_C@_0CF@EBIGHEOA@CTElection?4DoTestSetPledge?3?5?$CF07@
CONST	SEGMENT
??_C@_0CF@EBIGHEOA@CTElection?4DoTestSetPledge?3?5?$CF07@ DB 'CTElection.'
	DB	'DoTestSetPledge: %07d, %s', 00H		; `string'
CONST	ENDS
;	COMDAT ??_C@_0CN@IFFHNJAO@CTElection?4DoTestAddDeposit?3?5?$CF0@
CONST	SEGMENT
??_C@_0CN@IFFHNJAO@CTElection?4DoTestAddDeposit?3?5?$CF0@ DB 'CTElection.'
	DB	'DoTestAddDeposit: %07d, %I64d, %d', 00H	; `string'
CONST	ENDS
;	COMDAT ??_C@_0BJ@NBOADCDH@CTElection?4DoTestEndVote@
CONST	SEGMENT
??_C@_0BJ@NBOADCDH@CTElection?4DoTestEndVote@ DB 'CTElection.DoTestEndVot'
	DB	'e', 00H					; `string'
CONST	ENDS
;	COMDAT ??_C@_0BL@LMGPGHGD@CTElection?4DoTestBeginVote@
CONST	SEGMENT
??_C@_0BL@LMGPGHGD@CTElection?4DoTestBeginVote@ DB 'CTElection.DoTestBegi'
	DB	'nVote', 00H					; `string'
CONST	ENDS
;	COMDAT ??_C@_0BL@GDEBELLG@CTElection?4DoReturnDeposit@
CONST	SEGMENT
??_C@_0BL@GDEBELLG@CTElection?4DoReturnDeposit@ DB 'CTElection.DoReturnDe'
	DB	'posit', 00H					; `string'
CONST	ENDS
;	COMDAT ??_C@_0CF@DMMBMGJN@couldn?8t?5execute?5uspElectionLea@
CONST	SEGMENT
??_C@_0CF@DMMBMGJN@couldn?8t?5execute?5uspElectionLea@ DB 'couldn''t exec'
	DB	'ute uspElectionLeaveOut', 00H		; `string'
CONST	ENDS
;	COMDAT ??_C@_0BP@DDPAGKOB@uspElectionLeaveOut?5?$CFd?0?5?$CFd?0?5?$CFd@
CONST	SEGMENT
??_C@_0BP@DDPAGKOB@uspElectionLeaveOut?5?$CFd?0?5?$CFd?0?5?$CFd@ DB 'uspE'
	DB	'lectionLeaveOut %d, %d, %d', 00H		; `string'
CONST	ENDS
;	COMDAT ??_C@_0CA@EFGOLAFI@CTElection?4DoTestBeginCandidacy@
CONST	SEGMENT
??_C@_0CA@EFGOLAFI@CTElection?4DoTestBeginCandidacy@ DB 'CTElection.DoTes'
	DB	'tBeginCandidacy', 00H			; `string'
CONST	ENDS
;	COMDAT ??_C@_0CH@LCMLFLCE@couldn?8t?5execute?5uspElectionIni@
CONST	SEGMENT
??_C@_0CH@LCMLFLCE@couldn?8t?5execute?5uspElectionIni@ DB 'couldn''t exec'
	DB	'ute uspElectionInitialize', 00H		; `string'
CONST	ENDS
;	COMDAT ??_C@_0CB@FCFJFKNF@uspElectionInitialize?5?$CFd?0?5?$CFd?0?5?$CF@
CONST	SEGMENT
??_C@_0CB@FCFJFKNF@uspElectionInitialize?5?$CFd?0?5?$CFd?0?5?$CF@ DB 'usp'
	DB	'ElectionInitialize %d, %d, %s', 00H		; `string'
CONST	ENDS
;	COMDAT ??_C@_07BIPEELOH@tCreate@
CONST	SEGMENT
??_C@_07BIPEELOH@tCreate@ DB 'tCreate', 00H		; `string'
CONST	ENDS
;	COMDAT ??_C@_05ODKHLCCG@nVote@
CONST	SEGMENT
??_C@_05ODKHLCCG@nVote@ DB 'nVote', 00H			; `string'
CONST	ENDS
;	COMDAT ??_C@_08BCPGFKB@szPledge@
CONST	SEGMENT
??_C@_08BCPGFKB@szPledge@ DB 'szPledge', 00H		; `string'
CONST	ENDS
;	COMDAT ??_C@_08PIPANNIJ@iDeposit@
CONST	SEGMENT
??_C@_08PIPANNIJ@iDeposit@ DB 'iDeposit', 00H		; `string'
CONST	ENDS
;	COMDAT ??_C@_08EPHCN@idPlayer@
CONST	SEGMENT
??_C@_08EPHCN@idPlayer@ DB 'idPlayer', 00H		; `string'
CONST	ENDS
;	COMDAT ??_C@_0CG@GCHADNNB@couldn?8t?5execute?5uspRestoreCand@
CONST	SEGMENT
??_C@_0CG@GCHADNNB@couldn?8t?5execute?5uspRestoreCand@ DB 'couldn''t exec'
	DB	'ute uspRestoreCandidates', 00H		; `string'
CONST	ENDS
;	COMDAT ??_C@_0BM@CHJPNMJK@uspRestoreCandidates?5?$CFd?0?5?$CFd@
CONST	SEGMENT
??_C@_0BM@CHJPNMJK@uspRestoreCandidates?5?$CFd?0?5?$CFd@ DB 'uspRestoreCa'
	DB	'ndidates %d, %d', 00H			; `string'
CONST	ENDS
;	COMDAT ??_C@_07PJNBBDOG@szBegin@
CONST	SEGMENT
??_C@_07PJNBBDOG@szBegin@ DB 'szBegin', 00H		; `string'
CONST	ENDS
;	COMDAT ??_C@_0N@NOMIPDCI@nRequirement@
CONST	SEGMENT
??_C@_0N@NOMIPDCI@nRequirement@ DB 'nRequirement', 00H	; `string'
CONST	ENDS
;	COMDAT ??_C@_06PFLNLAJN@eState@
CONST	SEGMENT
??_C@_06PFLNLAJN@eState@ DB 'eState', 00H		; `string'
CONST	ENDS
;	COMDAT ??_C@_0L@NBMLJLBM@idElection@
CONST	SEGMENT
??_C@_0L@NBMLJLBM@idElection@ DB 'idElection', 00H	; `string'
CONST	ENDS
;	COMDAT ??_C@_0BG@KGCKLKHB@uspRestoreElection?5?$CFd@
CONST	SEGMENT
??_C@_0BG@KGCKLKHB@uspRestoreElection?5?$CFd@ DB 'uspRestoreElection %d', 00H ; `string'
CONST	ENDS
;	COMDAT ??_C@_0BE@HLJDCBPH@CTElection?4stot?3?5?$CFs@
CONST	SEGMENT
??_C@_0BE@HLJDCBPH@CTElection?4stot?3?5?$CFs@ DB 'CTElection.stot: %s', 00H ; `string'
CONST	ENDS
;	COMDAT ??_C@_0N@BNMNAMM@?$CFY?$CFm?$CFd?$CFH?$CFM?$CFS@
CONST	SEGMENT
??_C@_0N@BNMNAMM@?$CFY?$CFm?$CFd?$CFH?$CFM?$CFS@ DB '%Y%m%d%H%M%S', 00H ; `string'
CONST	ENDS
;	COMDAT ??_C@_04NHONDGDE@item@
CONST	SEGMENT
??_C@_04NHONDGDE@item@ DB 'item', 00H			; `string'
CONST	ENDS
;	COMDAT ??_C@_0BD@FJBKFPAD@fRequirementFactor@
CONST	SEGMENT
??_C@_0BD@FJBKFPAD@fRequirementFactor@ DB 'fRequirementFactor', 00H ; `string'
CONST	ENDS
;	COMDAT ??_C@_04HCCHHEEF@rate@
CONST	SEGMENT
??_C@_04HCCHHEEF@rate@ DB 'rate', 00H			; `string'
CONST	ENDS
;	COMDAT ??_C@_05NBICHHD@nDays@
CONST	SEGMENT
??_C@_05NBICHHD@nDays@ DB 'nDays', 00H			; `string'
CONST	ENDS
;	COMDAT ??_C@_05EBOKJDNL@tVote@
CONST	SEGMENT
??_C@_05EBOKJDNL@tVote@ DB 'tVote', 00H			; `string'
CONST	ENDS
;	COMDAT ??_C@_0L@CKDBDEOG@tCandidacy@
CONST	SEGMENT
??_C@_0L@CKDBDEOG@tCandidacy@ DB 'tCandidacy', 00H	; `string'
CONST	ENDS
;	COMDAT ??_C@_05DIDGHFGE@nHour@
CONST	SEGMENT
??_C@_05DIDGHFGE@nHour@ DB 'nHour', 00H			; `string'
CONST	ENDS
;	COMDAT ??_C@_0L@NLLMANDB@nDayOfWeek@
CONST	SEGMENT
??_C@_0L@NLLMANDB@nDayOfWeek@ DB 'nDayOfWeek', 00H	; `string'
CONST	ENDS
;	COMDAT ??_C@_08EMBNBNLN@property@
CONST	SEGMENT
??_C@_08EMBNBNLN@property@ DB 'property', 00H		; `string'
CONST	ENDS
;	COMDAT ??_C@_0DL@DADIAAPI@CTElection?3?3Initialize?$CI?$CJ?3?5LoadS@
CONST	SEGMENT
??_C@_0DL@DADIAAPI@CTElection?3?3Initialize?$CI?$CJ?3?5LoadS@ DB 'CTElect'
	DB	'ion::Initialize(): LoadScript(): file not found: %s', 00H ; `string'
CONST	ENDS
;	COMDAT ??_C@_06EHHKCEHL@idLord@
CONST	SEGMENT
??_C@_06EHHKCEHL@idLord@ DB 'idLord', 00H		; `string'
CONST	ENDS
;	COMDAT ??_C@_0BC@MCPIBNBK@uspRestoreLord?5?$CFd@
CONST	SEGMENT
??_C@_0BC@MCPIBNBK@uspRestoreLord?5?$CFd@ DB 'uspRestoreLord %d', 00H ; `string'
CONST	ENDS
;	COMDAT ??_C@_0BI@GMEIIJGO@CTLord?4CreateColleagues@
CONST	SEGMENT
??_C@_0BI@GMEIIJGO@CTLord?4CreateColleagues@ DB 'CTLord.CreateColleagues', 00H ; `string'
CONST	ENDS
;	COMDAT ??_C@_0O@DNECDNPA@lordskill?4txt@
CONST	SEGMENT
??_C@_0O@DNECDNPA@lordskill?4txt@ DB 'lordskill.txt', 00H ; `string'
CONST	ENDS
;	COMDAT ??_C@_0O@NKJDDJPP@lordevent?4inc@
CONST	SEGMENT
??_C@_0O@NKJDDJPP@lordevent?4inc@ DB 'lordevent.inc', 00H ; `string'
CONST	ENDS
;	COMDAT ??_C@_0N@MMPBPIHN@election?4inc@
CONST	SEGMENT
??_C@_0N@MMPBPIHN@election?4inc@ DB 'election.inc', 00H	; `string'
CONST	ENDS
;	COMDAT ??_7CLController@@6B@
CONST	SEGMENT
??_7CLController@@6B@ DD FLAT:??_R4CLController@@6B@	; CLController::`vftable'
	DD	FLAT:??_ECLController@@UAEPAXI@Z
	DD	FLAT:?Handler@CLController@@UAEXPAUtagDB_OVERLAPPED_PLUS@@K@Z
	DD	FLAT:?OnTimer@CLController@@UAEXXZ
CONST	ENDS
;	COMDAT ??_7CLEvent@@6B@
CONST	SEGMENT
??_7CLEvent@@6B@ DD FLAT:??_R4CLEvent@@6B@		; CLEvent::`vftable'
	DD	FLAT:??_ECLEvent@@UAEPAXI@Z
	DD	FLAT:?DoTestAddComponent@CLEvent@@MAEHPAVCLEComponent@@@Z
	DD	FLAT:?DoTestInitialize@CLEvent@@MAEHXZ
CONST	ENDS
;	COMDAT ??_7CTLordSkill@@6B@
CONST	SEGMENT
??_7CTLordSkill@@6B@ DD FLAT:??_R4CTLordSkill@@6B@	; CTLordSkill::`vftable'
	DD	FLAT:??_ECTLordSkill@@UAEPAXI@Z
	DD	FLAT:?CreateSkillComponent@CTLordSkill@@UAEPAVCLordSkillComponentExecutable@@H@Z
CONST	ENDS
;	COMDAT ??_7CTElection@@6B@
CONST	SEGMENT
??_7CTElection@@6B@ DD FLAT:??_R4CTElection@@6B@	; CTElection::`vftable'
	DD	FLAT:??_ECTElection@@UAEPAXI@Z
	DD	FLAT:?DoTestBeginCandidacy@CTElection@@MAEHXZ
	DD	FLAT:?DoReturnDeposit@CTElection@@MAEXXZ
	DD	FLAT:?DoTestBeginVote@CTElection@@MAEHAAH@Z
	DD	FLAT:?DoTestEndVote@CTElection@@MAEHK@Z
	DD	FLAT:?DoTestAddDeposit@CTElection@@MAEHK_JJ@Z
	DD	FLAT:?DoAddDepositComplete@CTElection@@MAEXK_JJ@Z
	DD	FLAT:?DoTestSetPledge@CTElection@@MAEHKPBD@Z
	DD	FLAT:?DoSetPlegeComplete@IElection@@MAEXXZ
	DD	FLAT:?DoTestIncVote@CTElection@@MAEHKK@Z
	DD	FLAT:?DoIncVoteComplete@IElection@@MAEXXZ
	DD	FLAT:?DoEndVoteComplete@IElection@@MAEXXZ
CONST	ENDS
;	COMDAT ??_7CTLord@@6B@
CONST	SEGMENT
??_7CTLord@@6B@ DD FLAT:??_R4CTLord@@6B@		; CTLord::`vftable'
	DD	FLAT:?CreateColleagues@CTLord@@UAEXXZ
	DD	FLAT:?DestroyColleagues@CTLord@@UAEXXZ
	DD	FLAT:?GetController@CTLord@@UAEPAVCLController@@XZ
	DD	FLAT:??_ECTLord@@UAEPAXI@Z
CONST	ENDS
;	COMDAT ??_R4bad_alloc@std@@6B@
rdata$r	SEGMENT
??_R4bad_alloc@std@@6B@ DD 00H				; std::bad_alloc::`RTTI Complete Object Locator'
	DD	00H
	DD	00H
	DD	FLAT:??_R0?AVbad_alloc@std@@@8
	DD	FLAT:??_R3bad_alloc@std@@8
rdata$r	ENDS
;	COMDAT ??_R2bad_alloc@std@@8
rdata$r	SEGMENT
??_R2bad_alloc@std@@8 DD FLAT:??_R1A@?0A@EA@bad_alloc@std@@8 ; std::bad_alloc::`RTTI Base Class Array'
	DD	FLAT:??_R1A@?0A@EA@exception@std@@8
rdata$r	ENDS
;	COMDAT ??_R3bad_alloc@std@@8
rdata$r	SEGMENT
??_R3bad_alloc@std@@8 DD 00H				; std::bad_alloc::`RTTI Class Hierarchy Descriptor'
	DD	00H
	DD	02H
	DD	FLAT:??_R2bad_alloc@std@@8
rdata$r	ENDS
;	COMDAT ??_R1A@?0A@EA@bad_alloc@std@@8
rdata$r	SEGMENT
??_R1A@?0A@EA@bad_alloc@std@@8 DD FLAT:??_R0?AVbad_alloc@std@@@8 ; std::bad_alloc::`RTTI Base Class Descriptor at (0,-1,0,64)'
	DD	01H
	DD	00H
	DD	0ffffffffH
	DD	00H
	DD	040H
	DD	FLAT:??_R3bad_alloc@std@@8
rdata$r	ENDS
;	COMDAT ??_R1A@?0A@EA@bad_array_new_length@std@@8
rdata$r	SEGMENT
??_R1A@?0A@EA@bad_array_new_length@std@@8 DD FLAT:??_R0?AVbad_array_new_length@std@@@8 ; std::bad_array_new_length::`RTTI Base Class Descriptor at (0,-1,0,64)'
	DD	02H
	DD	00H
	DD	0ffffffffH
	DD	00H
	DD	040H
	DD	FLAT:??_R3bad_array_new_length@std@@8
rdata$r	ENDS
;	COMDAT ??_R2bad_array_new_length@std@@8
rdata$r	SEGMENT
??_R2bad_array_new_length@std@@8 DD FLAT:??_R1A@?0A@EA@bad_array_new_length@std@@8 ; std::bad_array_new_length::`RTTI Base Class Array'
	DD	FLAT:??_R1A@?0A@EA@bad_alloc@std@@8
	DD	FLAT:??_R1A@?0A@EA@exception@std@@8
rdata$r	ENDS
;	COMDAT ??_R3bad_array_new_length@std@@8
rdata$r	SEGMENT
??_R3bad_array_new_length@std@@8 DD 00H			; std::bad_array_new_length::`RTTI Class Hierarchy Descriptor'
	DD	00H
	DD	03H
	DD	FLAT:??_R2bad_array_new_length@std@@8
rdata$r	ENDS
;	COMDAT ??_R4bad_array_new_length@std@@6B@
rdata$r	SEGMENT
??_R4bad_array_new_length@std@@6B@ DD 00H		; std::bad_array_new_length::`RTTI Complete Object Locator'
	DD	00H
	DD	00H
	DD	FLAT:??_R0?AVbad_array_new_length@std@@@8
	DD	FLAT:??_R3bad_array_new_length@std@@8
rdata$r	ENDS
;	COMDAT ??_R1A@?0A@EA@exception@std@@8
rdata$r	SEGMENT
??_R1A@?0A@EA@exception@std@@8 DD FLAT:??_R0?AVexception@std@@@8 ; std::exception::`RTTI Base Class Descriptor at (0,-1,0,64)'
	DD	00H
	DD	00H
	DD	0ffffffffH
	DD	00H
	DD	040H
	DD	FLAT:??_R3exception@std@@8
rdata$r	ENDS
;	COMDAT ??_R2exception@std@@8
rdata$r	SEGMENT
??_R2exception@std@@8 DD FLAT:??_R1A@?0A@EA@exception@std@@8 ; std::exception::`RTTI Base Class Array'
rdata$r	ENDS
;	COMDAT ??_R3exception@std@@8
rdata$r	SEGMENT
??_R3exception@std@@8 DD 00H				; std::exception::`RTTI Class Hierarchy Descriptor'
	DD	00H
	DD	01H
	DD	FLAT:??_R2exception@std@@8
rdata$r	ENDS
;	COMDAT ??_R4exception@std@@6B@
rdata$r	SEGMENT
??_R4exception@std@@6B@ DD 00H				; std::exception::`RTTI Complete Object Locator'
	DD	00H
	DD	00H
	DD	FLAT:??_R0?AVexception@std@@@8
	DD	FLAT:??_R3exception@std@@8
rdata$r	ENDS
;	COMDAT ??_C@_0BA@FOIKENOD@vector?5too?5long@
CONST	SEGMENT
??_C@_0BA@FOIKENOD@vector?5too?5long@ DB 'vector too long', 00H ; `string'
CONST	ENDS
;	COMDAT __CT??_R0?AVbad_alloc@std@@@8??0bad_alloc@std@@QAE@ABV01@@Z12
xdata$x	SEGMENT
__CT??_R0?AVbad_alloc@std@@@8??0bad_alloc@std@@QAE@ABV01@@Z12 DD 010H
	DD	FLAT:??_R0?AVbad_alloc@std@@@8
	DD	00H
	DD	0ffffffffH
	ORG $+4
	DD	0cH
	DD	FLAT:??0bad_alloc@std@@QAE@ABV01@@Z
xdata$x	ENDS
;	COMDAT ??_R0?AVbad_alloc@std@@@8
data$r	SEGMENT
??_R0?AVbad_alloc@std@@@8 DD FLAT:??_7type_info@@6B@	; std::bad_alloc `RTTI Type Descriptor'
	DD	00H
	DB	'.?AVbad_alloc@std@@', 00H
data$r	ENDS
;	COMDAT __CT??_R0?AVbad_array_new_length@std@@@8??0bad_array_new_length@std@@QAE@ABV01@@Z12
xdata$x	SEGMENT
__CT??_R0?AVbad_array_new_length@std@@@8??0bad_array_new_length@std@@QAE@ABV01@@Z12 DD 00H
	DD	FLAT:??_R0?AVbad_array_new_length@std@@@8
	DD	00H
	DD	0ffffffffH
	ORG $+4
	DD	0cH
	DD	FLAT:??0bad_array_new_length@std@@QAE@ABV01@@Z
xdata$x	ENDS
;	COMDAT ??_R0?AVbad_array_new_length@std@@@8
data$r	SEGMENT
??_R0?AVbad_array_new_length@std@@@8 DD FLAT:??_7type_info@@6B@ ; std::bad_array_new_length `RTTI Type Descriptor'
	DD	00H
	DB	'.?AVbad_array_new_length@std@@', 00H
data$r	ENDS
;	COMDAT __CTA3?AVbad_array_new_length@std@@
xdata$x	SEGMENT
__CTA3?AVbad_array_new_length@std@@ DD 03H
	DD	FLAT:__CT??_R0?AVbad_array_new_length@std@@@8??0bad_array_new_length@std@@QAE@ABV01@@Z12
	DD	FLAT:__CT??_R0?AVbad_alloc@std@@@8??0bad_alloc@std@@QAE@ABV01@@Z12
	DD	FLAT:__CT??_R0?AVexception@std@@@8??0exception@std@@QAE@ABV01@@Z12
xdata$x	ENDS
;	COMDAT __TI3?AVbad_array_new_length@std@@
xdata$x	SEGMENT
__TI3?AVbad_array_new_length@std@@ DD 00H
	DD	FLAT:??1bad_array_new_length@std@@UAE@XZ
	DD	00H
	DD	FLAT:__CTA3?AVbad_array_new_length@std@@
xdata$x	ENDS
;	COMDAT __CT??_R0?AVexception@std@@@8??0exception@std@@QAE@ABV01@@Z12
xdata$x	SEGMENT
__CT??_R0?AVexception@std@@@8??0exception@std@@QAE@ABV01@@Z12 DD 00H
	DD	FLAT:??_R0?AVexception@std@@@8
	DD	00H
	DD	0ffffffffH
	ORG $+4
	DD	0cH
	DD	FLAT:??0exception@std@@QAE@ABV01@@Z
xdata$x	ENDS
;	COMDAT ??_R0?AVexception@std@@@8
data$r	SEGMENT
??_R0?AVexception@std@@@8 DD FLAT:??_7type_info@@6B@	; std::exception `RTTI Type Descriptor'
	DD	00H
	DB	'.?AVexception@std@@', 00H
data$r	ENDS
;	COMDAT ??_C@_0BF@KINCDENJ@bad?5array?5new?5length@
CONST	SEGMENT
??_C@_0BF@KINCDENJ@bad?5array?5new?5length@ DB 'bad array new length', 00H ; `string'
CONST	ENDS
;	COMDAT ??_7bad_array_new_length@std@@6B@
CONST	SEGMENT
??_7bad_array_new_length@std@@6B@ DD FLAT:??_R4bad_array_new_length@std@@6B@ ; std::bad_array_new_length::`vftable'
	DD	FLAT:??_Ebad_array_new_length@std@@UAEPAXI@Z
	DD	FLAT:?what@exception@std@@UBEPBDXZ
CONST	ENDS
;	COMDAT ??_7bad_alloc@std@@6B@
CONST	SEGMENT
??_7bad_alloc@std@@6B@ DD FLAT:??_R4bad_alloc@std@@6B@	; std::bad_alloc::`vftable'
	DD	FLAT:??_Ebad_alloc@std@@UAEPAXI@Z
	DD	FLAT:?what@exception@std@@UBEPBDXZ
CONST	ENDS
;	COMDAT ??_C@_0BC@EOODALEL@Unknown?5exception@
CONST	SEGMENT
??_C@_0BC@EOODALEL@Unknown?5exception@ DB 'Unknown exception', 00H ; `string'
CONST	ENDS
;	COMDAT ??_7exception@std@@6B@
CONST	SEGMENT
??_7exception@std@@6B@ DD FLAT:??_R4exception@std@@6B@	; std::exception::`vftable'
	DD	FLAT:??_Eexception@std@@UAEPAXI@Z
	DD	FLAT:?what@exception@std@@UBEPBDXZ
CONST	ENDS
;	COMDAT ??_C@_00CNPNBAHC@@
CONST	SEGMENT
??_C@_00CNPNBAHC@@ DB 00H				; `string'
CONST	ENDS
;	COMDAT xdata$x
xdata$x	SEGMENT
__unwindtable$?EndVote@CLController@@QAEHK@Z DD 0ffffffffH
	DD	FLAT:__unwindfunclet$?EndVote@CLController@@QAEHK@Z$0
__ehfuncinfo$?EndVote@CLController@@QAEHK@Z DD 019930522H
	DD	01H
	DD	FLAT:__unwindtable$?EndVote@CLController@@QAEHK@Z
	DD	2 DUP(00H)
	DD	2 DUP(00H)
	DD	00H
	DD	01H
xdata$x	ENDS
;	COMDAT xdata$x
xdata$x	SEGMENT
__unwindtable$??RPostDeposit@@QBEXABV?$shared_ptr@VCCandidate@@@std@@@Z DD 0ffffffffH
	DD	FLAT:__unwindfunclet$??RPostDeposit@@QBEXABV?$shared_ptr@VCCandidate@@@std@@@Z$0
	DD	0ffffffffH
	DD	FLAT:__unwindfunclet$??RPostDeposit@@QBEXABV?$shared_ptr@VCCandidate@@@std@@@Z$1
__ehfuncinfo$??RPostDeposit@@QBEXABV?$shared_ptr@VCCandidate@@@std@@@Z DD 019930522H
	DD	02H
	DD	FLAT:__unwindtable$??RPostDeposit@@QBEXABV?$shared_ptr@VCCandidate@@@std@@@Z
	DD	2 DUP(00H)
	DD	2 DUP(00H)
	DD	00H
	DD	01H
xdata$x	ENDS
;	COMDAT xdata$x
xdata$x	SEGMENT
__unwindtable$?Restore@CLEvent@@QAEHPAVCQuery@@@Z DD 0ffffffffH
	DD	FLAT:__unwindfunclet$?Restore@CLEvent@@QAEHPAVCQuery@@@Z$0
__ehfuncinfo$?Restore@CLEvent@@QAEHPAVCQuery@@@Z DD 019930522H
	DD	01H
	DD	FLAT:__unwindtable$?Restore@CLEvent@@QAEHPAVCQuery@@@Z
	DD	2 DUP(00H)
	DD	2 DUP(00H)
	DD	00H
	DD	01H
xdata$x	ENDS
;	COMDAT xdata$x
xdata$x	SEGMENT
__unwindtable$?CreateSkillComponent@CTLordSkill@@UAEPAVCLordSkillComponentExecutable@@H@Z DD 0ffffffffH
	DD	FLAT:__unwindfunclet$?CreateSkillComponent@CTLordSkill@@UAEPAVCLordSkillComponentExecutable@@H@Z$0
__ehfuncinfo$?CreateSkillComponent@CTLordSkill@@UAEPAVCLordSkillComponentExecutable@@H@Z DD 019930522H
	DD	01H
	DD	FLAT:__unwindtable$?CreateSkillComponent@CTLordSkill@@UAEPAVCLordSkillComponentExecutable@@H@Z
	DD	2 DUP(00H)
	DD	2 DUP(00H)
	DD	00H
	DD	01H
xdata$x	ENDS
;	COMDAT xdata$x
xdata$x	SEGMENT
__unwindtable$?PostLordItems@CTElection@@AAEXK@Z DD 0ffffffffH
	DD	FLAT:__unwindfunclet$?PostLordItems@CTElection@@AAEXK@Z$0
__ehfuncinfo$?PostLordItems@CTElection@@AAEXK@Z DD 019930522H
	DD	01H
	DD	FLAT:__unwindtable$?PostLordItems@CTElection@@AAEXK@Z
	DD	2 DUP(00H)
	DD	2 DUP(00H)
	DD	00H
	DD	01H
xdata$x	ENDS
;	COMDAT xdata$x
xdata$x	SEGMENT
__unwindtable$?PostItem@CTElection@@AAEXKAAU_PostItemStruct@@@Z DD 0ffffffffH
	DD	FLAT:__unwindfunclet$?PostItem@CTElection@@AAEXKAAU_PostItemStruct@@@Z$0
	DD	0ffffffffH
	DD	FLAT:__unwindfunclet$?PostItem@CTElection@@AAEXKAAU_PostItemStruct@@@Z$1
__ehfuncinfo$?PostItem@CTElection@@AAEXKAAU_PostItemStruct@@@Z DD 019930522H
	DD	02H
	DD	FLAT:__unwindtable$?PostItem@CTElection@@AAEXKAAU_PostItemStruct@@@Z
	DD	2 DUP(00H)
	DD	2 DUP(00H)
	DD	00H
	DD	01H
xdata$x	ENDS
;	COMDAT xdata$x
xdata$x	SEGMENT
__unwindtable$?ReadIni@CTElection@@AAEHPBD@Z DD 0ffffffffH
	DD	FLAT:__unwindfunclet$?ReadIni@CTElection@@AAEHPBD@Z$0
__ehfuncinfo$?ReadIni@CTElection@@AAEHPBD@Z DD 019930522H
	DD	01H
	DD	FLAT:__unwindtable$?ReadIni@CTElection@@AAEHPBD@Z
	DD	2 DUP(00H)
	DD	2 DUP(00H)
	DD	00H
	DD	01H
xdata$x	ENDS
;	COMDAT xdata$x
xdata$x	SEGMENT
__unwindtable$?ttos@CTElection@@SA?AV?$CStringT@DV?$StrTraitMFC@DV?$ChTraitsCRT@D@ATL@@@@@ATL@@J@Z DD 0ffffffffH
	DD	00H
	DD	0ffffffffH
	DD	FLAT:__unwindfunclet$?ttos@CTElection@@SA?AV?$CStringT@DV?$StrTraitMFC@DV?$ChTraitsCRT@D@ATL@@@@@ATL@@J@Z$3
__ehfuncinfo$?ttos@CTElection@@SA?AV?$CStringT@DV?$StrTraitMFC@DV?$ChTraitsCRT@D@ATL@@@@@ATL@@J@Z DD 019930522H
	DD	02H
	DD	FLAT:__unwindtable$?ttos@CTElection@@SA?AV?$CStringT@DV?$StrTraitMFC@DV?$ChTraitsCRT@D@ATL@@@@@ATL@@J@Z
	DD	2 DUP(00H)
	DD	2 DUP(00H)
	DD	00H
	DD	01H
xdata$x	ENDS
;	COMDAT xdata$x
xdata$x	SEGMENT
__unwindtable$?Restore@CTElection@@QAEHPAVCQuery@@@Z DD 0ffffffffH
	DD	FLAT:__unwindfunclet$?Restore@CTElection@@QAEHPAVCQuery@@@Z$0
__ehfuncinfo$?Restore@CTElection@@QAEHPAVCQuery@@@Z DD 019930522H
	DD	01H
	DD	FLAT:__unwindtable$?Restore@CTElection@@QAEHPAVCQuery@@@Z
	DD	2 DUP(00H)
	DD	2 DUP(00H)
	DD	00H
	DD	01H
xdata$x	ENDS
;	COMDAT xdata$x
xdata$x	SEGMENT
__ehfuncinfo$?Handler@CTLord@@QAEXPAUtagDB_OVERLAPPED_PLUS@@K@Z DD 019930522H
	DD	05H
	DD	FLAT:__unwindtable$?Handler@CTLord@@QAEXPAUtagDB_OVERLAPPED_PLUS@@K@Z
	DD	2 DUP(00H)
	DD	2 DUP(00H)
	DD	00H
	DD	01H
__unwindtable$?Handler@CTLord@@QAEXPAUtagDB_OVERLAPPED_PLUS@@K@Z DD 0ffffffffH
	DD	FLAT:__unwindfunclet$?Handler@CTLord@@QAEXPAUtagDB_OVERLAPPED_PLUS@@K@Z$0
	DD	0ffffffffH
	DD	FLAT:__unwindfunclet$?Handler@CTLord@@QAEXPAUtagDB_OVERLAPPED_PLUS@@K@Z$1
	DD	0ffffffffH
	DD	FLAT:__unwindfunclet$?Handler@CTLord@@QAEXPAUtagDB_OVERLAPPED_PLUS@@K@Z$2
	DD	0ffffffffH
	DD	FLAT:__unwindfunclet$?Handler@CTLord@@QAEXPAUtagDB_OVERLAPPED_PLUS@@K@Z$3
	DD	0ffffffffH
	DD	FLAT:__unwindfunclet$?Handler@CTLord@@QAEXPAUtagDB_OVERLAPPED_PLUS@@K@Z$4
xdata$x	ENDS
;	COMDAT xdata$x
xdata$x	SEGMENT
__unwindtable$?CreateColleagues@CTLord@@UAEXXZ DD 0ffffffffH
	DD	FLAT:__unwindfunclet$?CreateColleagues@CTLord@@UAEXXZ$0
	DD	0ffffffffH
	DD	FLAT:__unwindfunclet$?CreateColleagues@CTLord@@UAEXXZ$1
	DD	0ffffffffH
	DD	FLAT:__unwindfunclet$?CreateColleagues@CTLord@@UAEXXZ$2
	DD	0ffffffffH
	DD	FLAT:__unwindfunclet$?CreateColleagues@CTLord@@UAEXXZ$3
__ehfuncinfo$?CreateColleagues@CTLord@@UAEXXZ DD 019930522H
	DD	04H
	DD	FLAT:__unwindtable$?CreateColleagues@CTLord@@UAEXXZ
	DD	2 DUP(00H)
	DD	2 DUP(00H)
	DD	00H
	DD	01H
xdata$x	ENDS
;	COMDAT xdata$x
xdata$x	SEGMENT
__unwindtable$?Instance@CTLord@@SAPAV1@XZ DD 0ffffffffH
	DD	FLAT:__unwindfunclet$?Instance@CTLord@@SAPAV1@XZ$0
__ehfuncinfo$?Instance@CTLord@@SAPAV1@XZ DD 019930522H
	DD	01H
	DD	FLAT:__unwindtable$?Instance@CTLord@@SAPAV1@XZ
	DD	2 DUP(00H)
	DD	2 DUP(00H)
	DD	00H
	DD	01H
xdata$x	ENDS
;	COMDAT xdata$x
xdata$x	SEGMENT
__unwindtable$?Format@CTime@ATL@@QBE?AV?$CStringT@DV?$StrTraitMFC@DV?$ChTraitsCRT@D@ATL@@@@@2@PBD@Z DD 0ffffffffH
	DD	FLAT:__unwindfunclet$?Format@CTime@ATL@@QBE?AV?$CStringT@DV?$StrTraitMFC@DV?$ChTraitsCRT@D@ATL@@@@@2@PBD@Z$1
	DD	0ffffffffH
	DD	FLAT:__unwindfunclet$?Format@CTime@ATL@@QBE?AV?$CStringT@DV?$StrTraitMFC@DV?$ChTraitsCRT@D@ATL@@@@@2@PBD@Z$2
__ehfuncinfo$?Format@CTime@ATL@@QBE?AV?$CStringT@DV?$StrTraitMFC@DV?$ChTraitsCRT@D@ATL@@@@@2@PBD@Z DD 019930522H
	DD	02H
	DD	FLAT:__unwindtable$?Format@CTime@ATL@@QBE?AV?$CStringT@DV?$StrTraitMFC@DV?$ChTraitsCRT@D@ATL@@@@@2@PBD@Z
	DD	2 DUP(00H)
	DD	2 DUP(00H)
	DD	00H
	DD	01H
xdata$x	ENDS
;	COMDAT xdata$x
xdata$x	SEGMENT
__unwindtable$??0?$CStringT@DV?$StrTraitMFC@DV?$ChTraitsCRT@D@ATL@@@@@ATL@@QAE@PBD@Z DD 0ffffffffH
	DD	FLAT:__unwindfunclet$??0?$CStringT@DV?$StrTraitMFC@DV?$ChTraitsCRT@D@ATL@@@@@ATL@@QAE@PBD@Z$0
__ehfuncinfo$??0?$CStringT@DV?$StrTraitMFC@DV?$ChTraitsCRT@D@ATL@@@@@ATL@@QAE@PBD@Z DD 019930522H
	DD	01H
	DD	FLAT:__unwindtable$??0?$CStringT@DV?$StrTraitMFC@DV?$ChTraitsCRT@D@ATL@@@@@ATL@@QAE@PBD@Z
	DD	2 DUP(00H)
	DD	2 DUP(00H)
	DD	00H
	DD	01H
xdata$x	ENDS
; Function compile flags: /Ogtp
; File C:\Program Files\Microsoft Visual Studio\2022\Professional\VC\Tools\MSVC\14.44.35207\include\xutility
;	COMDAT ??$_Copy_memmove_tail@PAM@std@@YAPAMQBDQAMII@Z
_TEXT	SEGMENT
__First_ch$ = 8						; size = 4
__Dest$ = 12						; size = 4
__Byte_count$ = 16					; size = 4
__Object_count$ = 20					; size = 4
??$_Copy_memmove_tail@PAM@std@@YAPAMQBDQAMII@Z PROC	; std::_Copy_memmove_tail<float *>, COMDAT

; 4747 :     const char* const _First_ch, const _OutCtgIt _Dest, const size_t _Byte_count, const size_t _Object_count) {

  00000	55		 push	 ebp
  00001	8b ec		 mov	 ebp, esp
  00003	56		 push	 esi

; 4748 :     _STL_INTERNAL_CHECK(_Byte_count == _Object_count * sizeof(*_Dest));
; 4749 :     const auto _Dest_ptr = _STD _To_address(_Dest);
; 4750 :     const auto _Dest_ch  = const_cast<char*>(reinterpret_cast<const volatile char*>(_Dest_ptr));
; 4751 :     _CSTD memmove(_Dest_ch, _First_ch, _Byte_count);

  00004	8b 75 0c	 mov	 esi, DWORD PTR __Dest$[ebp]
  00007	57		 push	 edi
  00008	8b 7d 10	 mov	 edi, DWORD PTR __Byte_count$[ebp]
  0000b	57		 push	 edi
  0000c	ff 75 08	 push	 DWORD PTR __First_ch$[ebp]
  0000f	56		 push	 esi
  00010	e8 00 00 00 00	 call	 _memmove
  00015	83 c4 0c	 add	 esp, 12			; 0000000cH

; 4752 :     if constexpr (is_pointer_v<_OutCtgIt>) {
; 4753 :         (void) _Object_count;
; 4754 :         // CodeQL [SM02986] This cast is correct: we're bypassing pointer arithmetic for performance.
; 4755 :         return reinterpret_cast<_OutCtgIt>(_Dest_ch + _Byte_count);

  00018	8d 04 3e	 lea	 eax, DWORD PTR [esi+edi]
  0001b	5f		 pop	 edi
  0001c	5e		 pop	 esi

; 4756 :     } else {
; 4757 :         return _Dest + static_cast<_Iter_diff_t<_OutCtgIt>>(_Object_count);
; 4758 :     }
; 4759 : }

  0001d	5d		 pop	 ebp
  0001e	c3		 ret	 0
??$_Copy_memmove_tail@PAM@std@@YAPAMQBDQAMII@Z ENDP	; std::_Copy_memmove_tail<float *>
_TEXT	ENDS
; Function compile flags: /Ogtp
; File C:\Program Files\Microsoft Visual Studio\2022\Professional\VC\Tools\MSVC\14.44.35207\include\xutility
;	COMDAT ??$_Copy_memmove_tail@PAH@std@@YAPAHQBDQAHII@Z
_TEXT	SEGMENT
__First_ch$ = 8						; size = 4
__Dest$ = 12						; size = 4
__Byte_count$ = 16					; size = 4
__Object_count$ = 20					; size = 4
??$_Copy_memmove_tail@PAH@std@@YAPAHQBDQAHII@Z PROC	; std::_Copy_memmove_tail<int *>, COMDAT

; 4747 :     const char* const _First_ch, const _OutCtgIt _Dest, const size_t _Byte_count, const size_t _Object_count) {

  00000	55		 push	 ebp
  00001	8b ec		 mov	 ebp, esp
  00003	56		 push	 esi

; 4748 :     _STL_INTERNAL_CHECK(_Byte_count == _Object_count * sizeof(*_Dest));
; 4749 :     const auto _Dest_ptr = _STD _To_address(_Dest);
; 4750 :     const auto _Dest_ch  = const_cast<char*>(reinterpret_cast<const volatile char*>(_Dest_ptr));
; 4751 :     _CSTD memmove(_Dest_ch, _First_ch, _Byte_count);

  00004	8b 75 0c	 mov	 esi, DWORD PTR __Dest$[ebp]
  00007	57		 push	 edi
  00008	8b 7d 10	 mov	 edi, DWORD PTR __Byte_count$[ebp]
  0000b	57		 push	 edi
  0000c	ff 75 08	 push	 DWORD PTR __First_ch$[ebp]
  0000f	56		 push	 esi
  00010	e8 00 00 00 00	 call	 _memmove
  00015	83 c4 0c	 add	 esp, 12			; 0000000cH

; 4752 :     if constexpr (is_pointer_v<_OutCtgIt>) {
; 4753 :         (void) _Object_count;
; 4754 :         // CodeQL [SM02986] This cast is correct: we're bypassing pointer arithmetic for performance.
; 4755 :         return reinterpret_cast<_OutCtgIt>(_Dest_ch + _Byte_count);

  00018	8d 04 3e	 lea	 eax, DWORD PTR [esi+edi]
  0001b	5f		 pop	 edi
  0001c	5e		 pop	 esi

; 4756 :     } else {
; 4757 :         return _Dest + static_cast<_Iter_diff_t<_OutCtgIt>>(_Object_count);
; 4758 :     }
; 4759 : }

  0001d	5d		 pop	 ebp
  0001e	c3		 ret	 0
??$_Copy_memmove_tail@PAH@std@@YAPAHQBDQAHII@Z ENDP	; std::_Copy_memmove_tail<int *>
_TEXT	ENDS
; Function compile flags: /Ogtp
; File C:\Program Files\Microsoft Visual Studio\2022\Professional\VC\Tools\MSVC\14.44.35207\include\xutility
;	COMDAT ??$_Copy_memmove@PAMPAM@std@@YAPAMPAM00@Z
_TEXT	SEGMENT
__First$ = 8						; size = 4
__Last$ = 12						; size = 4
__Dest$ = 16						; size = 4
??$_Copy_memmove@PAMPAM@std@@YAPAMPAM00@Z PROC		; std::_Copy_memmove<float *,float *>, COMDAT

; 4762 : _OutCtgIt _Copy_memmove(_CtgIt _First, _CtgIt _Last, _OutCtgIt _Dest) {

  00000	55		 push	 ebp
  00001	8b ec		 mov	 ebp, esp

; 4763 :     _STL_INTERNAL_CHECK(_First <= _Last);
; 4764 :     const auto _First_ptr    = _STD _To_address(_First);
; 4765 :     const auto _Last_ptr     = _STD _To_address(_Last);
; 4766 :     const auto _Object_count = static_cast<size_t>(_Last_ptr - _First_ptr);

  00003	8b 55 08	 mov	 edx, DWORD PTR __First$[ebp]
  00006	8b 4d 0c	 mov	 ecx, DWORD PTR __Last$[ebp]
  00009	2b ca		 sub	 ecx, edx
  0000b	8b c1		 mov	 eax, ecx
  0000d	c1 f8 02	 sar	 eax, 2

; 4767 :     const auto _First_ch     = const_cast<const char*>(reinterpret_cast<const volatile char*>(_First_ptr));
; 4768 :     const auto _Last_ch      = const_cast<const char*>(reinterpret_cast<const volatile char*>(_Last_ptr));
; 4769 :     const auto _Byte_count   = static_cast<size_t>(_Last_ch - _First_ch);
; 4770 :     return _STD _Copy_memmove_tail(_First_ch, _STD move(_Dest), _Byte_count, _Object_count);

  00010	50		 push	 eax
  00011	51		 push	 ecx
  00012	ff 75 10	 push	 DWORD PTR __Dest$[ebp]
  00015	52		 push	 edx
  00016	e8 00 00 00 00	 call	 ??$_Copy_memmove_tail@PAM@std@@YAPAMQBDQAMII@Z ; std::_Copy_memmove_tail<float *>
  0001b	83 c4 10	 add	 esp, 16			; 00000010H

; 4771 : }

  0001e	5d		 pop	 ebp
  0001f	c3		 ret	 0
??$_Copy_memmove@PAMPAM@std@@YAPAMPAM00@Z ENDP		; std::_Copy_memmove<float *,float *>
_TEXT	ENDS
; Function compile flags: /Ogtp
; File C:\Program Files\Microsoft Visual Studio\2022\Professional\VC\Tools\MSVC\14.44.35207\include\xutility
;	COMDAT ??$_Copy_memmove@PAHPAH@std@@YAPAHPAH00@Z
_TEXT	SEGMENT
__First$ = 8						; size = 4
__Last$ = 12						; size = 4
__Dest$ = 16						; size = 4
??$_Copy_memmove@PAHPAH@std@@YAPAHPAH00@Z PROC		; std::_Copy_memmove<int *,int *>, COMDAT

; 4762 : _OutCtgIt _Copy_memmove(_CtgIt _First, _CtgIt _Last, _OutCtgIt _Dest) {

  00000	55		 push	 ebp
  00001	8b ec		 mov	 ebp, esp

; 4763 :     _STL_INTERNAL_CHECK(_First <= _Last);
; 4764 :     const auto _First_ptr    = _STD _To_address(_First);
; 4765 :     const auto _Last_ptr     = _STD _To_address(_Last);
; 4766 :     const auto _Object_count = static_cast<size_t>(_Last_ptr - _First_ptr);

  00003	8b 55 08	 mov	 edx, DWORD PTR __First$[ebp]
  00006	8b 4d 0c	 mov	 ecx, DWORD PTR __Last$[ebp]
  00009	2b ca		 sub	 ecx, edx
  0000b	8b c1		 mov	 eax, ecx
  0000d	c1 f8 02	 sar	 eax, 2

; 4767 :     const auto _First_ch     = const_cast<const char*>(reinterpret_cast<const volatile char*>(_First_ptr));
; 4768 :     const auto _Last_ch      = const_cast<const char*>(reinterpret_cast<const volatile char*>(_Last_ptr));
; 4769 :     const auto _Byte_count   = static_cast<size_t>(_Last_ch - _First_ch);
; 4770 :     return _STD _Copy_memmove_tail(_First_ch, _STD move(_Dest), _Byte_count, _Object_count);

  00010	50		 push	 eax
  00011	51		 push	 ecx
  00012	ff 75 10	 push	 DWORD PTR __Dest$[ebp]
  00015	52		 push	 edx
  00016	e8 00 00 00 00	 call	 ??$_Copy_memmove_tail@PAH@std@@YAPAHQBDQAHII@Z ; std::_Copy_memmove_tail<int *>
  0001b	83 c4 10	 add	 esp, 16			; 00000010H

; 4771 : }

  0001e	5d		 pop	 ebp
  0001f	c3		 ret	 0
??$_Copy_memmove@PAHPAH@std@@YAPAHPAH00@Z ENDP		; std::_Copy_memmove<int *,int *>
_TEXT	ENDS
; Function compile flags: /Ogtp
; File C:\Program Files\Microsoft Visual Studio\2022\Professional\VC\Tools\MSVC\14.44.35207\include\vector
; File C:\Program Files\Microsoft Visual Studio\2022\Professional\VC\Tools\MSVC\14.44.35207\include\xmemory
; File C:\Program Files\Microsoft Visual Studio\2022\Professional\VC\Tools\MSVC\14.44.35207\include\vector
; File C:\Program Files\Microsoft Visual Studio\2022\Professional\VC\Tools\MSVC\14.44.35207\include\xmemory
; File C:\Program Files\Microsoft Visual Studio\2022\Professional\VC\Tools\MSVC\14.44.35207\include\vector
; File C:\Program Files\Microsoft Visual Studio\2022\Professional\VC\Tools\MSVC\14.44.35207\include\xmemory
; File C:\Program Files\Microsoft Visual Studio\2022\Professional\VC\Tools\MSVC\14.44.35207\include\vector
; File C:\Program Files\Microsoft Visual Studio\2022\Professional\VC\Tools\MSVC\14.44.35207\include\xmemory
; File C:\Program Files\Microsoft Visual Studio\2022\Professional\VC\Tools\MSVC\14.44.35207\include\vector
; File C:\Program Files\Microsoft Visual Studio\2022\Professional\VC\Tools\MSVC\14.44.35207\include\xmemory
; File C:\Program Files\Microsoft Visual Studio\2022\Professional\VC\Tools\MSVC\14.44.35207\include\vector
; File C:\Program Files\Microsoft Visual Studio\2022\Professional\VC\Tools\MSVC\14.44.35207\include\xmemory
; File C:\Program Files\Microsoft Visual Studio\2022\Professional\VC\Tools\MSVC\14.44.35207\include\vector
; File C:\Program Files\Microsoft Visual Studio\2022\Professional\VC\Tools\MSVC\14.44.35207\include\xmemory
; File C:\Program Files\Microsoft Visual Studio\2022\Professional\VC\Tools\MSVC\14.44.35207\include\vector
; File C:\Program Files\Microsoft Visual Studio\2022\Professional\VC\Tools\MSVC\14.44.35207\include\xmemory
; File C:\Program Files\Microsoft Visual Studio\2022\Professional\VC\Tools\MSVC\14.44.35207\include\vector
; File C:\Program Files\Microsoft Visual Studio\2022\Professional\VC\Tools\MSVC\14.44.35207\include\xmemory
; File C:\Program Files\Microsoft Visual Studio\2022\Professional\VC\Tools\MSVC\14.44.35207\include\vector
; File C:\Program Files\Microsoft Visual Studio\2022\Professional\VC\Tools\MSVC\14.44.35207\include\xmemory
; File C:\Program Files\Microsoft Visual Studio\2022\Professional\VC\Tools\MSVC\14.44.35207\include\vector
;	COMDAT ??$_Emplace_reallocate@ABM@?$vector@MV?$allocator@M@std@@@std@@AAEPAMQAMABM@Z
_TEXT	SEGMENT
__Newsize$1$ = -12					; size = 4
tv716 = -8						; size = 4
tv714 = -4						; size = 4
__Whereptr$ = 8						; size = 4
_<_Val_0>$ = 12						; size = 4
??$_Emplace_reallocate@ABM@?$vector@MV?$allocator@M@std@@@std@@AAEPAMQAMABM@Z PROC ; std::vector<float,std::allocator<float> >::_Emplace_reallocate<float const &>, COMDAT
; _this$ = ecx

; 875  :     _CONSTEXPR20 pointer _Emplace_reallocate(const pointer _Whereptr, _Valty&&... _Val) {

  00000	55		 push	 ebp
  00001	8b ec		 mov	 ebp, esp
  00003	83 ec 0c	 sub	 esp, 12			; 0000000cH
  00006	53		 push	 ebx

; 876  :         // reallocate and insert by perfectly forwarding _Val at _Whereptr
; 877  :         _Alty& _Al        = _Getal();
; 878  :         auto& _My_data    = _Mypair._Myval2;
; 879  :         pointer& _Myfirst = _My_data._Myfirst;
; 880  :         pointer& _Mylast  = _My_data._Mylast;
; 881  : 
; 882  :         _STL_INTERNAL_CHECK(_Mylast == _My_data._Myend); // check that we have no unused capacity
; 883  : 
; 884  :         const auto _Whereoff = static_cast<size_type>(_Whereptr - _Myfirst);

  00007	8b 5d 08	 mov	 ebx, DWORD PTR __Whereptr$[ebp]
  0000a	56		 push	 esi
  0000b	8b f1		 mov	 esi, ecx
  0000d	57		 push	 edi
  0000e	8b 0e		 mov	 ecx, DWORD PTR [esi]
  00010	2b d9		 sub	 ebx, ecx

; 885  :         const auto _Oldsize  = static_cast<size_type>(_Mylast - _Myfirst);

  00012	8b 46 04	 mov	 eax, DWORD PTR [esi+4]
  00015	2b c1		 sub	 eax, ecx
  00017	c1 fb 02	 sar	 ebx, 2
  0001a	c1 f8 02	 sar	 eax, 2

; 886  : 
; 887  :         if (_Oldsize == max_size()) {

  0001d	3d ff ff ff 3f	 cmp	 eax, 1073741823		; 3fffffffH
  00022	0f 84 13 01 00
	00		 je	 $LN119@Emplace_re

; 1924 :         return static_cast<size_type>(_My_data._Myend - _My_data._Myfirst);

  00028	8b 56 08	 mov	 edx, DWORD PTR [esi+8]

; 889  :         }
; 890  : 
; 891  :         const size_type _Newsize = _Oldsize + 1;

  0002b	8d 78 01	 lea	 edi, DWORD PTR [eax+1]

; 1924 :         return static_cast<size_type>(_My_data._Myend - _My_data._Myfirst);

  0002e	2b d1		 sub	 edx, ecx

; 889  :         }
; 890  : 
; 891  :         const size_type _Newsize = _Oldsize + 1;

  00030	89 7d f4	 mov	 DWORD PTR __Newsize$1$[ebp], edi

; 1924 :         return static_cast<size_type>(_My_data._Myend - _My_data._Myfirst);

  00033	c1 fa 02	 sar	 edx, 2

; 2011 :         if (_Oldcapacity > _Max - _Oldcapacity / 2) {

  00036	b8 ff ff ff 3f	 mov	 eax, 1073741823		; 3fffffffH
  0003b	8b ca		 mov	 ecx, edx
  0003d	d1 e9		 shr	 ecx, 1
  0003f	2b c1		 sub	 eax, ecx
  00041	3b d0		 cmp	 edx, eax
  00043	76 14		 jbe	 SHORT $LN8@Emplace_re

; 2012 :             return _Max; // geometric growth would overflow

  00045	b8 fc ff ff ff	 mov	 eax, -4			; fffffffcH
  0004a	c7 45 f8 fc ff
	ff ff		 mov	 DWORD PTR tv716[ebp], -4 ; fffffffcH
; File C:\Program Files\Microsoft Visual Studio\2022\Professional\VC\Tools\MSVC\14.44.35207\include\xmemory

; 253  :             return _Allocate_manually_vector_aligned<_Traits>(_Bytes);

  00051	50		 push	 eax
  00052	e8 00 00 00 00	 call	 ??$_Allocate_manually_vector_aligned@U_Default_allocate_traits@std@@@std@@YAPAXI@Z ; std::_Allocate_manually_vector_aligned<std::_Default_allocate_traits>
  00057	eb 3d		 jmp	 SHORT $LN117@Emplace_re
$LN8@Emplace_re:
; File C:\Program Files\Microsoft Visual Studio\2022\Professional\VC\Tools\MSVC\14.44.35207\include\vector

; 2015 :         const size_type _Geometric = _Oldcapacity + _Oldcapacity / 2;

  00059	8d 04 11	 lea	 eax, DWORD PTR [ecx+edx]
; File C:\Program Files\Microsoft Visual Studio\2022\Professional\VC\Tools\MSVC\14.44.35207\include\xmemory

; 117  :         if (_Count > _Max_possible) {

  0005c	8b cf		 mov	 ecx, edi
  0005e	3b c7		 cmp	 eax, edi
  00060	0f 43 c8	 cmovae	 ecx, eax
  00063	81 f9 ff ff ff
	3f		 cmp	 ecx, 1073741823		; 3fffffffH
  00069	0f 87 d1 00 00
	00		 ja	 $LN120@Emplace_re

; 119  :         }
; 120  :     }
; 121  : 
; 122  :     return _Count * _Ty_size;

  0006f	8d 04 8d 00 00
	00 00		 lea	 eax, DWORD PTR [ecx*4]
  00076	89 45 f8	 mov	 DWORD PTR tv716[ebp], eax

; 227  :     if (_Bytes == 0) {

  00079	85 c0		 test	 eax, eax
  0007b	75 04		 jne	 SHORT $LN23@Emplace_re

; 228  :         return nullptr;

  0007d	33 ff		 xor	 edi, edi
  0007f	eb 1a		 jmp	 SHORT $LN22@Emplace_re
$LN23@Emplace_re:

; 229  :     }
; 230  : 
; 231  : #if _HAS_CXX20 // TRANSITION, GH-1532
; 232  :     if (_STD is_constant_evaluated()) {
; 233  :         return _Traits::_Allocate(_Bytes);
; 234  :     }
; 235  : #endif // _HAS_CXX20
; 236  : 
; 237  : #ifdef __cpp_aligned_new
; 238  :     if constexpr (_Align > __STDCPP_DEFAULT_NEW_ALIGNMENT__) {
; 239  :         size_t _Passed_align = _Align;
; 240  : #if defined(_M_IX86) || defined(_M_X64)
; 241  :         if (_Bytes >= _Big_allocation_threshold) {
; 242  :             // boost the alignment of big allocations to help autovectorization
; 243  :             _Passed_align = (_STD max)(_Align, _Big_allocation_alignment);
; 244  :         }
; 245  : #endif // defined(_M_IX86) || defined(_M_X64)
; 246  :         return _Traits::_Allocate_aligned(_Bytes, _Passed_align);
; 247  :     } else
; 248  : #endif // defined(__cpp_aligned_new)
; 249  :     {
; 250  : #if defined(_M_IX86) || defined(_M_X64)
; 251  :         if (_Bytes >= _Big_allocation_threshold) {

  00081	3d 00 10 00 00	 cmp	 eax, 4096		; 00001000H
  00086	72 08		 jb	 SHORT $LN24@Emplace_re

; 253  :             return _Allocate_manually_vector_aligned<_Traits>(_Bytes);

  00088	50		 push	 eax
  00089	e8 00 00 00 00	 call	 ??$_Allocate_manually_vector_aligned@U_Default_allocate_traits@std@@@std@@YAPAXI@Z ; std::_Allocate_manually_vector_aligned<std::_Default_allocate_traits>
  0008e	eb 06		 jmp	 SHORT $LN117@Emplace_re
$LN24@Emplace_re:

; 136  :         return ::operator new(_Bytes);

  00090	50		 push	 eax
  00091	e8 00 00 00 00	 call	 ??2@YAPAXI@Z		; operator new
$LN117@Emplace_re:
; File C:\Program Files\Microsoft Visual Studio\2022\Professional\VC\Tools\MSVC\14.44.35207\include\vector

; 900  :         _Alty_traits::construct(_Al, _STD _Unfancy(_Newvec + _Whereoff), _STD forward<_Valty>(_Val)...);

  00096	8b f8		 mov	 edi, eax
  00098	83 c4 04	 add	 esp, 4
$LN22@Emplace_re:
; File C:\Program Files\Microsoft Visual Studio\2022\Professional\VC\Tools\MSVC\14.44.35207\include\xmemory

; 732  :         ::new (const_cast<void*>(static_cast<const volatile void*>(_Ptr))) _Objty(_STD forward<_Types>(_Args)...);

  0009b	8b 45 0c	 mov	 eax, DWORD PTR _<_Val_0>$[ebp]
; File C:\Program Files\Microsoft Visual Studio\2022\Professional\VC\Tools\MSVC\14.44.35207\include\vector

; 900  :         _Alty_traits::construct(_Al, _STD _Unfancy(_Newvec + _Whereoff), _STD forward<_Valty>(_Val)...);

  0009e	8d 0c 9f	 lea	 ecx, DWORD PTR [edi+ebx*4]

; 903  :         if (_Whereptr == _Mylast) { // at back, provide strong guarantee

  000a1	8b 5d 08	 mov	 ebx, DWORD PTR __Whereptr$[ebp]
  000a4	89 4d fc	 mov	 DWORD PTR tv714[ebp], ecx
; File C:\Program Files\Microsoft Visual Studio\2022\Professional\VC\Tools\MSVC\14.44.35207\include\xmemory

; 732  :         ::new (const_cast<void*>(static_cast<const volatile void*>(_Ptr))) _Objty(_STD forward<_Types>(_Args)...);

  000a7	8b 00		 mov	 eax, DWORD PTR [eax]
  000a9	89 01		 mov	 DWORD PTR [ecx], eax
; File C:\Program Files\Microsoft Visual Studio\2022\Professional\VC\Tools\MSVC\14.44.35207\include\vector

; 903  :         if (_Whereptr == _Mylast) { // at back, provide strong guarantee

  000ab	8b 46 04	 mov	 eax, DWORD PTR [esi+4]
  000ae	8b 0e		 mov	 ecx, DWORD PTR [esi]
  000b0	3b d8		 cmp	 ebx, eax
  000b2	75 07		 jne	 SHORT $LN3@Emplace_re

; 909  :         } else { // provide basic guarantee

  000b4	8b 5d fc	 mov	 ebx, DWORD PTR tv714[ebp]
; File C:\Program Files\Microsoft Visual Studio\2022\Professional\VC\Tools\MSVC\14.44.35207\include\xmemory

; 1992 :             _STD _Copy_memmove(_UFirst, _ULast, _STD _Unfancy(_Dest));

  000b7	8b d7		 mov	 edx, edi
; File C:\Program Files\Microsoft Visual Studio\2022\Professional\VC\Tools\MSVC\14.44.35207\include\vector

; 909  :         } else { // provide basic guarantee

  000b9	eb 16		 jmp	 SHORT $LN58@Emplace_re
$LN3@Emplace_re:
; File C:\Program Files\Microsoft Visual Studio\2022\Professional\VC\Tools\MSVC\14.44.35207\include\xmemory

; 1992 :             _STD _Copy_memmove(_UFirst, _ULast, _STD _Unfancy(_Dest));

  000bb	57		 push	 edi
  000bc	53		 push	 ebx
  000bd	51		 push	 ecx
  000be	e8 00 00 00 00	 call	 ??$_Copy_memmove@PAMPAM@std@@YAPAMPAM00@Z ; std::_Copy_memmove<float *,float *>
  000c3	8b 46 04	 mov	 eax, DWORD PTR [esi+4]
  000c6	8b cb		 mov	 ecx, ebx
; File C:\Program Files\Microsoft Visual Studio\2022\Professional\VC\Tools\MSVC\14.44.35207\include\vector

; 912  :             _STD _Uninitialized_move(_Whereptr, _Mylast, _Newvec + _Whereoff + 1, _Al);

  000c8	8b 5d fc	 mov	 ebx, DWORD PTR tv714[ebp]
; File C:\Program Files\Microsoft Visual Studio\2022\Professional\VC\Tools\MSVC\14.44.35207\include\xmemory

; 1992 :             _STD _Copy_memmove(_UFirst, _ULast, _STD _Unfancy(_Dest));

  000cb	83 c4 0c	 add	 esp, 12			; 0000000cH
; File C:\Program Files\Microsoft Visual Studio\2022\Professional\VC\Tools\MSVC\14.44.35207\include\vector

; 912  :             _STD _Uninitialized_move(_Whereptr, _Mylast, _Newvec + _Whereoff + 1, _Al);

  000ce	8d 53 04	 lea	 edx, DWORD PTR [ebx+4]
$LN58@Emplace_re:

; 913  :         }
; 914  : 
; 915  :         _Guard._New_begin = nullptr;

  000d1	52		 push	 edx
  000d2	50		 push	 eax
  000d3	51		 push	 ecx
  000d4	e8 00 00 00 00	 call	 ??$_Copy_memmove@PAMPAM@std@@YAPAMPAM00@Z ; std::_Copy_memmove<float *,float *>

; 2069 :         if (_Myfirst) { // destroy and deallocate old array

  000d9	8b 06		 mov	 eax, DWORD PTR [esi]

; 913  :         }
; 914  : 
; 915  :         _Guard._New_begin = nullptr;

  000db	83 c4 0c	 add	 esp, 12			; 0000000cH

; 2069 :         if (_Myfirst) { // destroy and deallocate old array

  000de	85 c0		 test	 eax, eax
  000e0	74 2c		 je	 SHORT $LN80@Emplace_re

; 2070 :             _STD _Destroy_range(_Myfirst, _Mylast, _Al);
; 2071 :             _ASAN_VECTOR_REMOVE;
; 2072 :             _Al.deallocate(_Myfirst, static_cast<size_type>(_Myend - _Myfirst));

  000e2	8b 4e 08	 mov	 ecx, DWORD PTR [esi+8]
  000e5	2b c8		 sub	 ecx, eax
; File C:\Program Files\Microsoft Visual Studio\2022\Professional\VC\Tools\MSVC\14.44.35207\include\xmemory

; 985  :         _STD _Deallocate<_New_alignof<_Ty>>(_Ptr, sizeof(_Ty) * _Count);

  000e7	83 e1 fc	 and	 ecx, -4			; fffffffcH

; 284  :         if (_Bytes >= _Big_allocation_threshold) {

  000ea	81 f9 00 10 00
	00		 cmp	 ecx, 4096		; 00001000H
  000f0	72 12		 jb	 SHORT $LN85@Emplace_re

; 205  :     const uintptr_t _Ptr_container   = _Ptr_user[-1];

  000f2	8b 50 fc	 mov	 edx, DWORD PTR [eax-4]
  000f5	83 c1 23	 add	 ecx, 35			; 00000023H

; 206  : 
; 207  :     // If the following asserts, it likely means that we are performing
; 208  :     // an aligned delete on memory coming from an unaligned allocation.
; 209  :     _STL_ASSERT(_Ptr_user[-2] == _Big_allocation_sentinel, "invalid argument");
; 210  : 
; 211  :     // Extra paranoia on aligned allocation/deallocation; ensure _Ptr_container is
; 212  :     // in range [_Min_back_shift, _Non_user_size]
; 213  : #ifdef _DEBUG
; 214  :     constexpr uintptr_t _Min_back_shift = 2 * sizeof(void*);
; 215  : #else // ^^^ defined(_DEBUG) / !defined(_DEBUG) vvv
; 216  :     constexpr uintptr_t _Min_back_shift = sizeof(void*);
; 217  : #endif // ^^^ !defined(_DEBUG) ^^^
; 218  :     const uintptr_t _Back_shift = reinterpret_cast<uintptr_t>(_Ptr) - _Ptr_container;

  000f8	2b c2		 sub	 eax, edx

; 219  :     _STL_VERIFY(_Back_shift >= _Min_back_shift && _Back_shift <= _Non_user_size, "invalid argument");

  000fa	83 c0 fc	 add	 eax, -4			; fffffffcH
  000fd	83 f8 1f	 cmp	 eax, 31			; 0000001fH
  00100	77 2a		 ja	 SHORT $LN84@Emplace_re

; 220  :     _Ptr = reinterpret_cast<void*>(_Ptr_container);

  00102	8b c2		 mov	 eax, edx
$LN85@Emplace_re:

; 289  :         ::operator delete(_Ptr, _Bytes);

  00104	51		 push	 ecx
  00105	50		 push	 eax
  00106	e8 00 00 00 00	 call	 ??3@YAXPAXI@Z		; operator delete
  0010b	83 c4 08	 add	 esp, 8
$LN80@Emplace_re:
; File C:\Program Files\Microsoft Visual Studio\2022\Professional\VC\Tools\MSVC\14.44.35207\include\vector

; 2076 :         _Mylast  = _Newvec + _Newsize;

  0010e	8b 45 f4	 mov	 eax, DWORD PTR __Newsize$1$[ebp]
  00111	89 3e		 mov	 DWORD PTR [esi], edi
  00113	8d 0c 87	 lea	 ecx, DWORD PTR [edi+eax*4]

; 916  :         _Change_array(_Newvec, _Newsize, _Newcapacity);
; 917  :         return _Newvec + _Whereoff;

  00116	8b c3		 mov	 eax, ebx

; 2076 :         _Mylast  = _Newvec + _Newsize;

  00118	89 4e 04	 mov	 DWORD PTR [esi+4], ecx

; 2077 :         _Myend   = _Newvec + _Newcapacity;

  0011b	8b 4d f8	 mov	 ecx, DWORD PTR tv716[ebp]
  0011e	03 cf		 add	 ecx, edi

; 918  :     }

  00120	5f		 pop	 edi

; 2077 :         _Myend   = _Newvec + _Newcapacity;

  00121	89 4e 08	 mov	 DWORD PTR [esi+8], ecx

; 918  :     }

  00124	5e		 pop	 esi
  00125	5b		 pop	 ebx
  00126	8b e5		 mov	 esp, ebp
  00128	5d		 pop	 ebp
  00129	c2 08 00	 ret	 8
$LN84@Emplace_re:
; File C:\Program Files\Microsoft Visual Studio\2022\Professional\VC\Tools\MSVC\14.44.35207\include\xmemory

; 219  :     _STL_VERIFY(_Back_shift >= _Min_back_shift && _Back_shift <= _Non_user_size, "invalid argument");

  0012c	6a 00		 push	 0
  0012e	6a 00		 push	 0
  00130	6a 00		 push	 0
  00132	6a 00		 push	 0
  00134	6a 00		 push	 0
  00136	e8 00 00 00 00	 call	 __invoke_watson
$LN119@Emplace_re:
; File C:\Program Files\Microsoft Visual Studio\2022\Professional\VC\Tools\MSVC\14.44.35207\include\vector

; 888  :             _Xlength();

  0013b	e8 00 00 00 00	 call	 ?_Xlength@?$vector@MV?$allocator@M@std@@@std@@CAXXZ ; std::vector<float,std::allocator<float> >::_Xlength
$LN120@Emplace_re:
; File C:\Program Files\Microsoft Visual Studio\2022\Professional\VC\Tools\MSVC\14.44.35207\include\xmemory

; 118  :             _Throw_bad_array_new_length(); // multiply overflow

  00140	e8 00 00 00 00	 call	 ?_Throw_bad_array_new_length@std@@YAXXZ ; std::_Throw_bad_array_new_length
$LN116@Emplace_re:
  00145	cc		 int	 3
??$_Emplace_reallocate@ABM@?$vector@MV?$allocator@M@std@@@std@@AAEPAMQAMABM@Z ENDP ; std::vector<float,std::allocator<float> >::_Emplace_reallocate<float const &>
_TEXT	ENDS
; Function compile flags: /Ogtp
; File C:\Program Files\Microsoft Visual Studio\2022\Professional\VC\Tools\MSVC\14.44.35207\include\vector
; File C:\Program Files\Microsoft Visual Studio\2022\Professional\VC\Tools\MSVC\14.44.35207\include\xmemory
; File C:\Program Files\Microsoft Visual Studio\2022\Professional\VC\Tools\MSVC\14.44.35207\include\vector
; File C:\Program Files\Microsoft Visual Studio\2022\Professional\VC\Tools\MSVC\14.44.35207\include\xmemory
; File C:\Program Files\Microsoft Visual Studio\2022\Professional\VC\Tools\MSVC\14.44.35207\include\vector
; File C:\Program Files\Microsoft Visual Studio\2022\Professional\VC\Tools\MSVC\14.44.35207\include\xmemory
; File C:\Program Files\Microsoft Visual Studio\2022\Professional\VC\Tools\MSVC\14.44.35207\include\vector
; File C:\Program Files\Microsoft Visual Studio\2022\Professional\VC\Tools\MSVC\14.44.35207\include\xmemory
; File C:\Program Files\Microsoft Visual Studio\2022\Professional\VC\Tools\MSVC\14.44.35207\include\vector
; File C:\Program Files\Microsoft Visual Studio\2022\Professional\VC\Tools\MSVC\14.44.35207\include\xmemory
; File C:\Program Files\Microsoft Visual Studio\2022\Professional\VC\Tools\MSVC\14.44.35207\include\vector
; File C:\Program Files\Microsoft Visual Studio\2022\Professional\VC\Tools\MSVC\14.44.35207\include\xmemory
; File C:\Program Files\Microsoft Visual Studio\2022\Professional\VC\Tools\MSVC\14.44.35207\include\vector
; File C:\Program Files\Microsoft Visual Studio\2022\Professional\VC\Tools\MSVC\14.44.35207\include\xmemory
; File C:\Program Files\Microsoft Visual Studio\2022\Professional\VC\Tools\MSVC\14.44.35207\include\vector
; File C:\Program Files\Microsoft Visual Studio\2022\Professional\VC\Tools\MSVC\14.44.35207\include\xmemory
; File C:\Program Files\Microsoft Visual Studio\2022\Professional\VC\Tools\MSVC\14.44.35207\include\vector
;	COMDAT ??$_Emplace_reallocate@ABH@?$vector@HV?$allocator@H@std@@@std@@AAEPAHQAHABH@Z
_TEXT	SEGMENT
__Newsize$1$ = -12					; size = 4
tv652 = -8						; size = 4
tv650 = -4						; size = 4
__Whereptr$ = 8						; size = 4
_<_Val_0>$ = 12						; size = 4
??$_Emplace_reallocate@ABH@?$vector@HV?$allocator@H@std@@@std@@AAEPAHQAHABH@Z PROC ; std::vector<int,std::allocator<int> >::_Emplace_reallocate<int const &>, COMDAT
; _this$ = ecx

; 875  :     _CONSTEXPR20 pointer _Emplace_reallocate(const pointer _Whereptr, _Valty&&... _Val) {

  00000	55		 push	 ebp
  00001	8b ec		 mov	 ebp, esp
  00003	83 ec 0c	 sub	 esp, 12			; 0000000cH
  00006	53		 push	 ebx

; 876  :         // reallocate and insert by perfectly forwarding _Val at _Whereptr
; 877  :         _Alty& _Al        = _Getal();
; 878  :         auto& _My_data    = _Mypair._Myval2;
; 879  :         pointer& _Myfirst = _My_data._Myfirst;
; 880  :         pointer& _Mylast  = _My_data._Mylast;
; 881  : 
; 882  :         _STL_INTERNAL_CHECK(_Mylast == _My_data._Myend); // check that we have no unused capacity
; 883  : 
; 884  :         const auto _Whereoff = static_cast<size_type>(_Whereptr - _Myfirst);

  00007	8b 5d 08	 mov	 ebx, DWORD PTR __Whereptr$[ebp]
  0000a	56		 push	 esi
  0000b	8b f1		 mov	 esi, ecx
  0000d	57		 push	 edi
  0000e	8b 0e		 mov	 ecx, DWORD PTR [esi]
  00010	2b d9		 sub	 ebx, ecx

; 885  :         const auto _Oldsize  = static_cast<size_type>(_Mylast - _Myfirst);

  00012	8b 46 04	 mov	 eax, DWORD PTR [esi+4]
  00015	2b c1		 sub	 eax, ecx
  00017	c1 fb 02	 sar	 ebx, 2
  0001a	c1 f8 02	 sar	 eax, 2

; 886  : 
; 887  :         if (_Oldsize == max_size()) {

  0001d	3d ff ff ff 3f	 cmp	 eax, 1073741823		; 3fffffffH
  00022	0f 84 13 01 00
	00		 je	 $LN111@Emplace_re

; 1924 :         return static_cast<size_type>(_My_data._Myend - _My_data._Myfirst);

  00028	8b 56 08	 mov	 edx, DWORD PTR [esi+8]

; 889  :         }
; 890  : 
; 891  :         const size_type _Newsize = _Oldsize + 1;

  0002b	8d 78 01	 lea	 edi, DWORD PTR [eax+1]

; 1924 :         return static_cast<size_type>(_My_data._Myend - _My_data._Myfirst);

  0002e	2b d1		 sub	 edx, ecx

; 889  :         }
; 890  : 
; 891  :         const size_type _Newsize = _Oldsize + 1;

  00030	89 7d f4	 mov	 DWORD PTR __Newsize$1$[ebp], edi

; 1924 :         return static_cast<size_type>(_My_data._Myend - _My_data._Myfirst);

  00033	c1 fa 02	 sar	 edx, 2

; 2011 :         if (_Oldcapacity > _Max - _Oldcapacity / 2) {

  00036	b8 ff ff ff 3f	 mov	 eax, 1073741823		; 3fffffffH
  0003b	8b ca		 mov	 ecx, edx
  0003d	d1 e9		 shr	 ecx, 1
  0003f	2b c1		 sub	 eax, ecx
  00041	3b d0		 cmp	 edx, eax
  00043	76 14		 jbe	 SHORT $LN8@Emplace_re

; 2012 :             return _Max; // geometric growth would overflow

  00045	b8 fc ff ff ff	 mov	 eax, -4			; fffffffcH
  0004a	c7 45 f8 fc ff
	ff ff		 mov	 DWORD PTR tv652[ebp], -4 ; fffffffcH
; File C:\Program Files\Microsoft Visual Studio\2022\Professional\VC\Tools\MSVC\14.44.35207\include\xmemory

; 253  :             return _Allocate_manually_vector_aligned<_Traits>(_Bytes);

  00051	50		 push	 eax
  00052	e8 00 00 00 00	 call	 ??$_Allocate_manually_vector_aligned@U_Default_allocate_traits@std@@@std@@YAPAXI@Z ; std::_Allocate_manually_vector_aligned<std::_Default_allocate_traits>
  00057	eb 3d		 jmp	 SHORT $LN109@Emplace_re
$LN8@Emplace_re:
; File C:\Program Files\Microsoft Visual Studio\2022\Professional\VC\Tools\MSVC\14.44.35207\include\vector

; 2015 :         const size_type _Geometric = _Oldcapacity + _Oldcapacity / 2;

  00059	8d 04 11	 lea	 eax, DWORD PTR [ecx+edx]
; File C:\Program Files\Microsoft Visual Studio\2022\Professional\VC\Tools\MSVC\14.44.35207\include\xmemory

; 117  :         if (_Count > _Max_possible) {

  0005c	8b cf		 mov	 ecx, edi
  0005e	3b c7		 cmp	 eax, edi
  00060	0f 43 c8	 cmovae	 ecx, eax
  00063	81 f9 ff ff ff
	3f		 cmp	 ecx, 1073741823		; 3fffffffH
  00069	0f 87 d1 00 00
	00		 ja	 $LN112@Emplace_re

; 119  :         }
; 120  :     }
; 121  : 
; 122  :     return _Count * _Ty_size;

  0006f	8d 04 8d 00 00
	00 00		 lea	 eax, DWORD PTR [ecx*4]
  00076	89 45 f8	 mov	 DWORD PTR tv652[ebp], eax

; 227  :     if (_Bytes == 0) {

  00079	85 c0		 test	 eax, eax
  0007b	75 04		 jne	 SHORT $LN23@Emplace_re

; 228  :         return nullptr;

  0007d	33 ff		 xor	 edi, edi
  0007f	eb 1a		 jmp	 SHORT $LN22@Emplace_re
$LN23@Emplace_re:

; 229  :     }
; 230  : 
; 231  : #if _HAS_CXX20 // TRANSITION, GH-1532
; 232  :     if (_STD is_constant_evaluated()) {
; 233  :         return _Traits::_Allocate(_Bytes);
; 234  :     }
; 235  : #endif // _HAS_CXX20
; 236  : 
; 237  : #ifdef __cpp_aligned_new
; 238  :     if constexpr (_Align > __STDCPP_DEFAULT_NEW_ALIGNMENT__) {
; 239  :         size_t _Passed_align = _Align;
; 240  : #if defined(_M_IX86) || defined(_M_X64)
; 241  :         if (_Bytes >= _Big_allocation_threshold) {
; 242  :             // boost the alignment of big allocations to help autovectorization
; 243  :             _Passed_align = (_STD max)(_Align, _Big_allocation_alignment);
; 244  :         }
; 245  : #endif // defined(_M_IX86) || defined(_M_X64)
; 246  :         return _Traits::_Allocate_aligned(_Bytes, _Passed_align);
; 247  :     } else
; 248  : #endif // defined(__cpp_aligned_new)
; 249  :     {
; 250  : #if defined(_M_IX86) || defined(_M_X64)
; 251  :         if (_Bytes >= _Big_allocation_threshold) {

  00081	3d 00 10 00 00	 cmp	 eax, 4096		; 00001000H
  00086	72 08		 jb	 SHORT $LN24@Emplace_re

; 253  :             return _Allocate_manually_vector_aligned<_Traits>(_Bytes);

  00088	50		 push	 eax
  00089	e8 00 00 00 00	 call	 ??$_Allocate_manually_vector_aligned@U_Default_allocate_traits@std@@@std@@YAPAXI@Z ; std::_Allocate_manually_vector_aligned<std::_Default_allocate_traits>
  0008e	eb 06		 jmp	 SHORT $LN109@Emplace_re
$LN24@Emplace_re:

; 136  :         return ::operator new(_Bytes);

  00090	50		 push	 eax
  00091	e8 00 00 00 00	 call	 ??2@YAPAXI@Z		; operator new
$LN109@Emplace_re:
; File C:\Program Files\Microsoft Visual Studio\2022\Professional\VC\Tools\MSVC\14.44.35207\include\vector

; 900  :         _Alty_traits::construct(_Al, _STD _Unfancy(_Newvec + _Whereoff), _STD forward<_Valty>(_Val)...);

  00096	8b f8		 mov	 edi, eax
  00098	83 c4 04	 add	 esp, 4
$LN22@Emplace_re:
  0009b	8b 45 0c	 mov	 eax, DWORD PTR _<_Val_0>$[ebp]
  0009e	8d 0c 9f	 lea	 ecx, DWORD PTR [edi+ebx*4]

; 901  :         _Constructed_first = _Newvec + _Whereoff;
; 902  : 
; 903  :         if (_Whereptr == _Mylast) { // at back, provide strong guarantee

  000a1	8b 5d 08	 mov	 ebx, DWORD PTR __Whereptr$[ebp]
  000a4	89 4d fc	 mov	 DWORD PTR tv650[ebp], ecx
  000a7	8b 00		 mov	 eax, DWORD PTR [eax]
  000a9	89 01		 mov	 DWORD PTR [ecx], eax
  000ab	8b 46 04	 mov	 eax, DWORD PTR [esi+4]
  000ae	8b 0e		 mov	 ecx, DWORD PTR [esi]
  000b0	3b d8		 cmp	 ebx, eax
  000b2	75 07		 jne	 SHORT $LN3@Emplace_re

; 909  :         } else { // provide basic guarantee

  000b4	8b 5d fc	 mov	 ebx, DWORD PTR tv650[ebp]
; File C:\Program Files\Microsoft Visual Studio\2022\Professional\VC\Tools\MSVC\14.44.35207\include\xmemory

; 1992 :             _STD _Copy_memmove(_UFirst, _ULast, _STD _Unfancy(_Dest));

  000b7	8b d7		 mov	 edx, edi
; File C:\Program Files\Microsoft Visual Studio\2022\Professional\VC\Tools\MSVC\14.44.35207\include\vector

; 909  :         } else { // provide basic guarantee

  000b9	eb 16		 jmp	 SHORT $LN52@Emplace_re
$LN3@Emplace_re:
; File C:\Program Files\Microsoft Visual Studio\2022\Professional\VC\Tools\MSVC\14.44.35207\include\xmemory

; 1992 :             _STD _Copy_memmove(_UFirst, _ULast, _STD _Unfancy(_Dest));

  000bb	57		 push	 edi
  000bc	53		 push	 ebx
  000bd	51		 push	 ecx
  000be	e8 00 00 00 00	 call	 ??$_Copy_memmove@PAHPAH@std@@YAPAHPAH00@Z ; std::_Copy_memmove<int *,int *>
  000c3	8b 46 04	 mov	 eax, DWORD PTR [esi+4]
  000c6	8b cb		 mov	 ecx, ebx
; File C:\Program Files\Microsoft Visual Studio\2022\Professional\VC\Tools\MSVC\14.44.35207\include\vector

; 912  :             _STD _Uninitialized_move(_Whereptr, _Mylast, _Newvec + _Whereoff + 1, _Al);

  000c8	8b 5d fc	 mov	 ebx, DWORD PTR tv650[ebp]
; File C:\Program Files\Microsoft Visual Studio\2022\Professional\VC\Tools\MSVC\14.44.35207\include\xmemory

; 1992 :             _STD _Copy_memmove(_UFirst, _ULast, _STD _Unfancy(_Dest));

  000cb	83 c4 0c	 add	 esp, 12			; 0000000cH
; File C:\Program Files\Microsoft Visual Studio\2022\Professional\VC\Tools\MSVC\14.44.35207\include\vector

; 912  :             _STD _Uninitialized_move(_Whereptr, _Mylast, _Newvec + _Whereoff + 1, _Al);

  000ce	8d 53 04	 lea	 edx, DWORD PTR [ebx+4]
$LN52@Emplace_re:

; 913  :         }
; 914  : 
; 915  :         _Guard._New_begin = nullptr;

  000d1	52		 push	 edx
  000d2	50		 push	 eax
  000d3	51		 push	 ecx
  000d4	e8 00 00 00 00	 call	 ??$_Copy_memmove@PAHPAH@std@@YAPAHPAH00@Z ; std::_Copy_memmove<int *,int *>

; 2069 :         if (_Myfirst) { // destroy and deallocate old array

  000d9	8b 06		 mov	 eax, DWORD PTR [esi]

; 913  :         }
; 914  : 
; 915  :         _Guard._New_begin = nullptr;

  000db	83 c4 0c	 add	 esp, 12			; 0000000cH

; 2069 :         if (_Myfirst) { // destroy and deallocate old array

  000de	85 c0		 test	 eax, eax
  000e0	74 2c		 je	 SHORT $LN72@Emplace_re

; 2070 :             _STD _Destroy_range(_Myfirst, _Mylast, _Al);
; 2071 :             _ASAN_VECTOR_REMOVE;
; 2072 :             _Al.deallocate(_Myfirst, static_cast<size_type>(_Myend - _Myfirst));

  000e2	8b 4e 08	 mov	 ecx, DWORD PTR [esi+8]
  000e5	2b c8		 sub	 ecx, eax
; File C:\Program Files\Microsoft Visual Studio\2022\Professional\VC\Tools\MSVC\14.44.35207\include\xmemory

; 985  :         _STD _Deallocate<_New_alignof<_Ty>>(_Ptr, sizeof(_Ty) * _Count);

  000e7	83 e1 fc	 and	 ecx, -4			; fffffffcH

; 284  :         if (_Bytes >= _Big_allocation_threshold) {

  000ea	81 f9 00 10 00
	00		 cmp	 ecx, 4096		; 00001000H
  000f0	72 12		 jb	 SHORT $LN77@Emplace_re

; 205  :     const uintptr_t _Ptr_container   = _Ptr_user[-1];

  000f2	8b 50 fc	 mov	 edx, DWORD PTR [eax-4]
  000f5	83 c1 23	 add	 ecx, 35			; 00000023H

; 206  : 
; 207  :     // If the following asserts, it likely means that we are performing
; 208  :     // an aligned delete on memory coming from an unaligned allocation.
; 209  :     _STL_ASSERT(_Ptr_user[-2] == _Big_allocation_sentinel, "invalid argument");
; 210  : 
; 211  :     // Extra paranoia on aligned allocation/deallocation; ensure _Ptr_container is
; 212  :     // in range [_Min_back_shift, _Non_user_size]
; 213  : #ifdef _DEBUG
; 214  :     constexpr uintptr_t _Min_back_shift = 2 * sizeof(void*);
; 215  : #else // ^^^ defined(_DEBUG) / !defined(_DEBUG) vvv
; 216  :     constexpr uintptr_t _Min_back_shift = sizeof(void*);
; 217  : #endif // ^^^ !defined(_DEBUG) ^^^
; 218  :     const uintptr_t _Back_shift = reinterpret_cast<uintptr_t>(_Ptr) - _Ptr_container;

  000f8	2b c2		 sub	 eax, edx

; 219  :     _STL_VERIFY(_Back_shift >= _Min_back_shift && _Back_shift <= _Non_user_size, "invalid argument");

  000fa	83 c0 fc	 add	 eax, -4			; fffffffcH
  000fd	83 f8 1f	 cmp	 eax, 31			; 0000001fH
  00100	77 2a		 ja	 SHORT $LN76@Emplace_re

; 220  :     _Ptr = reinterpret_cast<void*>(_Ptr_container);

  00102	8b c2		 mov	 eax, edx
$LN77@Emplace_re:

; 289  :         ::operator delete(_Ptr, _Bytes);

  00104	51		 push	 ecx
  00105	50		 push	 eax
  00106	e8 00 00 00 00	 call	 ??3@YAXPAXI@Z		; operator delete
  0010b	83 c4 08	 add	 esp, 8
$LN72@Emplace_re:
; File C:\Program Files\Microsoft Visual Studio\2022\Professional\VC\Tools\MSVC\14.44.35207\include\vector

; 2076 :         _Mylast  = _Newvec + _Newsize;

  0010e	8b 45 f4	 mov	 eax, DWORD PTR __Newsize$1$[ebp]
  00111	89 3e		 mov	 DWORD PTR [esi], edi
  00113	8d 0c 87	 lea	 ecx, DWORD PTR [edi+eax*4]

; 916  :         _Change_array(_Newvec, _Newsize, _Newcapacity);
; 917  :         return _Newvec + _Whereoff;

  00116	8b c3		 mov	 eax, ebx

; 2076 :         _Mylast  = _Newvec + _Newsize;

  00118	89 4e 04	 mov	 DWORD PTR [esi+4], ecx

; 2077 :         _Myend   = _Newvec + _Newcapacity;

  0011b	8b 4d f8	 mov	 ecx, DWORD PTR tv652[ebp]
  0011e	03 cf		 add	 ecx, edi

; 918  :     }

  00120	5f		 pop	 edi

; 2077 :         _Myend   = _Newvec + _Newcapacity;

  00121	89 4e 08	 mov	 DWORD PTR [esi+8], ecx

; 918  :     }

  00124	5e		 pop	 esi
  00125	5b		 pop	 ebx
  00126	8b e5		 mov	 esp, ebp
  00128	5d		 pop	 ebp
  00129	c2 08 00	 ret	 8
$LN76@Emplace_re:
; File C:\Program Files\Microsoft Visual Studio\2022\Professional\VC\Tools\MSVC\14.44.35207\include\xmemory

; 219  :     _STL_VERIFY(_Back_shift >= _Min_back_shift && _Back_shift <= _Non_user_size, "invalid argument");

  0012c	6a 00		 push	 0
  0012e	6a 00		 push	 0
  00130	6a 00		 push	 0
  00132	6a 00		 push	 0
  00134	6a 00		 push	 0
  00136	e8 00 00 00 00	 call	 __invoke_watson
$LN111@Emplace_re:
; File C:\Program Files\Microsoft Visual Studio\2022\Professional\VC\Tools\MSVC\14.44.35207\include\vector

; 888  :             _Xlength();

  0013b	e8 00 00 00 00	 call	 ?_Xlength@?$vector@HV?$allocator@H@std@@@std@@CAXXZ ; std::vector<int,std::allocator<int> >::_Xlength
$LN112@Emplace_re:
; File C:\Program Files\Microsoft Visual Studio\2022\Professional\VC\Tools\MSVC\14.44.35207\include\xmemory

; 118  :             _Throw_bad_array_new_length(); // multiply overflow

  00140	e8 00 00 00 00	 call	 ?_Throw_bad_array_new_length@std@@YAXXZ ; std::_Throw_bad_array_new_length
$LN108@Emplace_re:
  00145	cc		 int	 3
??$_Emplace_reallocate@ABH@?$vector@HV?$allocator@H@std@@@std@@AAEPAHQAHABH@Z ENDP ; std::vector<int,std::allocator<int> >::_Emplace_reallocate<int const &>
_TEXT	ENDS
; Function compile flags: /Ogtp
; File C:\IAGOS\server\v18\Source\Source\_Network\Misc\Include\Ar.h
;	COMDAT ??$?5_J@CAr@@QAEAAV0@AA_J@Z
_TEXT	SEGMENT
_t$ = 8							; size = 4
??$?5_J@CAr@@QAEAAV0@AA_J@Z PROC			; CAr::operator>><__int64>, COMDAT
; _this$ = ecx

; 302  : {

  00000	55		 push	 ebp
  00001	8b ec		 mov	 ebp, esp
  00003	56		 push	 esi
  00004	8b f1		 mov	 esi, ecx

; 303  : 	if (m_lpBufCur + sizeof(T) <= m_lpBufMax)

  00006	8b 56 08	 mov	 edx, DWORD PTR [esi+8]
  00009	8d 42 08	 lea	 eax, DWORD PTR [edx+8]
  0000c	3b 46 0c	 cmp	 eax, DWORD PTR [esi+12]
  0000f	8b 45 08	 mov	 eax, DWORD PTR _t$[ebp]
  00012	77 15		 ja	 SHORT $LN2@operator

; 304  : 	{
; 305  : 		t = *(UNALIGNED T*)m_lpBufCur;

  00014	8b 0a		 mov	 ecx, DWORD PTR [edx]
  00016	8b 52 04	 mov	 edx, DWORD PTR [edx+4]
  00019	89 08		 mov	 DWORD PTR [eax], ecx
  0001b	89 50 04	 mov	 DWORD PTR [eax+4], edx

; 312  : 	}
; 313  : 	return *this;
; 314  : }

  0001e	8b c6		 mov	 eax, esi
  00020	83 46 08 08	 add	 DWORD PTR [esi+8], 8
  00024	5e		 pop	 esi
  00025	5d		 pop	 ebp
  00026	c2 04 00	 ret	 4
$LN2@operator:

; 306  : 		m_lpBufCur += sizeof(T);
; 307  : 	}
; 308  : 	else
; 309  : 	{
; 310  : 		t = T();

  00029	c7 00 00 00 00
	00		 mov	 DWORD PTR [eax], 0
  0002f	c7 40 04 00 00
	00 00		 mov	 DWORD PTR [eax+4], 0

; 311  : 		m_lpBufCur = m_lpBufMax;

  00036	8b 46 0c	 mov	 eax, DWORD PTR [esi+12]
  00039	89 46 08	 mov	 DWORD PTR [esi+8], eax

; 312  : 	}
; 313  : 	return *this;
; 314  : }

  0003c	8b c6		 mov	 eax, esi
  0003e	5e		 pop	 esi
  0003f	5d		 pop	 ebp
  00040	c2 04 00	 ret	 4
??$?5_J@CAr@@QAEAAV0@AA_J@Z ENDP			; CAr::operator>><__int64>
_TEXT	ENDS
; Function compile flags: /Ogtp
;	COMDAT ??__FsLord@?1??Instance@CTLord@@SAPAV1@XZ@YAXXZ
text$yd	SEGMENT
??__FsLord@?1??Instance@CTLord@@SAPAV1@XZ@YAXXZ PROC	; `CTLord::Instance'::`2'::`dynamic atexit destructor for 'sLord'', COMDAT
  00000	b9 00 00 00 00	 mov	 ecx, OFFSET ?sLord@?1??Instance@CTLord@@SAPAV2@XZ@4V2@A
  00005	e9 00 00 00 00	 jmp	 ??1CTLord@@UAE@XZ	; CTLord::~CTLord
??__FsLord@?1??Instance@CTLord@@SAPAV1@XZ@YAXXZ ENDP	; `CTLord::Instance'::`2'::`dynamic atexit destructor for 'sLord''
text$yd	ENDS
; Function compile flags: /Ogtp
; File C:\IAGOS\server\v18\Source\Source\_Network\Misc\Include\Ar.h
;	COMDAT ??$?5K@CAr@@QAEAAV0@AAK@Z
_TEXT	SEGMENT
_t$ = 8							; size = 4
??$?5K@CAr@@QAEAAV0@AAK@Z PROC				; CAr::operator>><unsigned long>, COMDAT
; _this$ = ecx

; 302  : {

  00000	55		 push	 ebp
  00001	8b ec		 mov	 ebp, esp
  00003	8b d1		 mov	 edx, ecx

; 303  : 	if (m_lpBufCur + sizeof(T) <= m_lpBufMax)

  00005	8b 4a 08	 mov	 ecx, DWORD PTR [edx+8]
  00008	8d 41 04	 lea	 eax, DWORD PTR [ecx+4]
  0000b	3b 42 0c	 cmp	 eax, DWORD PTR [edx+12]
  0000e	8b 45 08	 mov	 eax, DWORD PTR _t$[ebp]
  00011	77 0e		 ja	 SHORT $LN2@operator

; 304  : 	{
; 305  : 		t = *(UNALIGNED T*)m_lpBufCur;

  00013	8b 09		 mov	 ecx, DWORD PTR [ecx]
  00015	89 08		 mov	 DWORD PTR [eax], ecx

; 312  : 	}
; 313  : 	return *this;
; 314  : }

  00017	8b c2		 mov	 eax, edx
  00019	83 42 08 04	 add	 DWORD PTR [edx+8], 4
  0001d	5d		 pop	 ebp
  0001e	c2 04 00	 ret	 4
$LN2@operator:

; 306  : 		m_lpBufCur += sizeof(T);
; 307  : 	}
; 308  : 	else
; 309  : 	{
; 310  : 		t = T();

  00021	c7 00 00 00 00
	00		 mov	 DWORD PTR [eax], 0

; 311  : 		m_lpBufCur = m_lpBufMax;

  00027	8b 42 0c	 mov	 eax, DWORD PTR [edx+12]
  0002a	89 42 08	 mov	 DWORD PTR [edx+8], eax

; 312  : 	}
; 313  : 	return *this;
; 314  : }

  0002d	8b c2		 mov	 eax, edx
  0002f	5d		 pop	 ebp
  00030	c2 04 00	 ret	 4
??$?5K@CAr@@QAEAAV0@AAK@Z ENDP				; CAr::operator>><unsigned long>
_TEXT	ENDS
; Function compile flags: /Ogtp
;	COMDAT ??_GCLController@@UAEPAXI@Z
_TEXT	SEGMENT
___flags$ = 8						; size = 4
??_GCLController@@UAEPAXI@Z PROC			; CLController::`scalar deleting destructor', COMDAT
; _this$ = ecx
  00000	55		 push	 ebp
  00001	8b ec		 mov	 ebp, esp
  00003	56		 push	 esi
  00004	8b f1		 mov	 esi, ecx
  00006	e8 00 00 00 00	 call	 ??1CLController@@UAE@XZ	; CLController::~CLController
  0000b	f6 45 08 01	 test	 BYTE PTR ___flags$[ebp], 1
  0000f	74 0b		 je	 SHORT $LN5@scalar
  00011	6a 18		 push	 24			; 00000018H
  00013	56		 push	 esi
  00014	e8 00 00 00 00	 call	 ??3@YAXPAXI@Z		; operator delete
  00019	83 c4 08	 add	 esp, 8
$LN5@scalar:
  0001c	8b c6		 mov	 eax, esi
  0001e	5e		 pop	 esi
  0001f	5d		 pop	 ebp
  00020	c2 04 00	 ret	 4
??_GCLController@@UAEPAXI@Z ENDP			; CLController::`scalar deleting destructor'
_TEXT	ENDS
; Function compile flags: /Ogtp
; File C:\IAGOS\server\v18\Source\Source\DatabaseServer\tlord.cpp
;	COMDAT ?OnTimer@CLController@@UAEXXZ
_TEXT	SEGMENT
?OnTimer@CLController@@UAEXXZ PROC			; CLController::OnTimer, COMDAT
; _this$ = ecx

; 642  : 	m_pLord->OnTimer();

  00000	8b 49 14	 mov	 ecx, DWORD PTR [ecx+20]
  00003	e9 00 00 00 00	 jmp	 ?OnTimer@CTLord@@QAEXXZ	; CTLord::OnTimer
?OnTimer@CLController@@UAEXXZ ENDP			; CLController::OnTimer
_TEXT	ENDS
; Function compile flags: /Ogtp
; File C:\IAGOS\server\v18\Source\Source\DatabaseServer\tlord.cpp
;	COMDAT ?Handler@CLController@@UAEXPAUtagDB_OVERLAPPED_PLUS@@K@Z
_TEXT	SEGMENT
_pov$ = 8						; size = 4
_dwCompletionKey$ = 12					; size = 4
?Handler@CLController@@UAEXPAUtagDB_OVERLAPPED_PLUS@@K@Z PROC ; CLController::Handler, COMDAT
; _this$ = ecx

; 636  : {	// ¸đµç żäĂ»Ŕ» m_pLordżˇ Ŕ§ŔÓÇŃ´Ů

  00000	55		 push	 ebp
  00001	8b ec		 mov	 ebp, esp

; 637  : 	m_pLord->Handler( pov, dwCompletionKey );

  00003	8b 49 14	 mov	 ecx, DWORD PTR [ecx+20]

; 638  : }

  00006	5d		 pop	 ebp

; 637  : 	m_pLord->Handler( pov, dwCompletionKey );

  00007	e9 00 00 00 00	 jmp	 ?Handler@CTLord@@QAEXPAUtagDB_OVERLAPPED_PLUS@@K@Z ; CTLord::Handler
?Handler@CLController@@UAEXPAUtagDB_OVERLAPPED_PLUS@@K@Z ENDP ; CLController::Handler
_TEXT	ENDS
; Function compile flags: /Ogtp
; File C:\IAGOS\server\v18\Source\Source\DatabaseServer\tlord.cpp
;	COMDAT ?UpdateLordEventTick@CLController@@QAEHPAVCLEComponent@@@Z
_TEXT	SEGMENT
_pComponent$ = 8					; size = 4
?UpdateLordEventTick@CLController@@QAEHPAVCLEComponent@@@Z PROC ; CLController::UpdateLordEventTick, COMDAT
; _this$ = ecx

; 741  : {	// ±şÁÖ ŔĚşĄĆ® ł˛Ŕş ˝Ă°Ł ŔúŔĺ

  00000	55		 push	 ebp
  00001	8b ec		 mov	 ebp, esp

; 742  : 	return GetQueryObject()->Execute( "uspLordEventTick %d, %d, %d", g_appInfo.dwSys, pComponent->GetIdPlayer(), pComponent->GetTick() );

  00003	8b 45 08	 mov	 eax, DWORD PTR _pComponent$[ebp]
  00006	ff 70 04	 push	 DWORD PTR [eax+4]
  00009	ff 70 08	 push	 DWORD PTR [eax+8]
  0000c	ff 35 00 00 00
	00		 push	 DWORD PTR ?g_appInfo@@3UAppInfo@@A
  00012	68 00 00 00 00	 push	 OFFSET ??_C@_0BM@INGAOOO@uspLordEventTick?5?$CFd?0?5?$CFd?0?5?$CFd@
  00017	ff 71 0c	 push	 DWORD PTR [ecx+12]
  0001a	e8 00 00 00 00	 call	 ?Execute@CQuery@@QAAHPBDZZ ; CQuery::Execute
  0001f	83 c4 14	 add	 esp, 20			; 00000014H

; 743  : }

  00022	5d		 pop	 ebp
  00023	c2 04 00	 ret	 4
?UpdateLordEventTick@CLController@@QAEHPAVCLEComponent@@@Z ENDP ; CLController::UpdateLordEventTick
_TEXT	ENDS
; Function compile flags: /Ogtp
; File C:\IAGOS\server\v18\Source\Source\DatabaseServer\tlord.cpp
;	COMDAT ?UpdateLordSkillTick@CLController@@QAEHPAVCLordSkillComponent@@H@Z
_TEXT	SEGMENT
_pSkill$ = 8						; size = 4
_nTick$ = 12						; size = 4
?UpdateLordSkillTick@CLController@@QAEHPAVCLordSkillComponent@@H@Z PROC ; CLController::UpdateLordSkillTick, COMDAT
; _this$ = ecx

; 736  : {	// ±şÁÖ ˝şĹł Ŕç»çżë ´ë±â ˝Ă°Ł ŔúŔĺ

  00000	55		 push	 ebp
  00001	8b ec		 mov	 ebp, esp

; 737  : 	return GetQueryObject()->Execute( "uspLordSkillTick %d, %d, %d", g_appInfo.dwSys, pSkill->GetId(), nTick );

  00003	ff 75 0c	 push	 DWORD PTR _nTick$[ebp]
  00006	8b 45 08	 mov	 eax, DWORD PTR _pSkill$[ebp]
  00009	ff 70 04	 push	 DWORD PTR [eax+4]
  0000c	ff 35 00 00 00
	00		 push	 DWORD PTR ?g_appInfo@@3UAppInfo@@A
  00012	68 00 00 00 00	 push	 OFFSET ??_C@_0BM@PHMEBJEL@uspLordSkillTick?5?$CFd?0?5?$CFd?0?5?$CFd@
  00017	ff 71 0c	 push	 DWORD PTR [ecx+12]
  0001a	e8 00 00 00 00	 call	 ?Execute@CQuery@@QAAHPBDZZ ; CQuery::Execute
  0001f	83 c4 14	 add	 esp, 20			; 00000014H

; 738  : }

  00022	5d		 pop	 ebp
  00023	c2 08 00	 ret	 8
?UpdateLordSkillTick@CLController@@QAEHPAVCLordSkillComponent@@H@Z ENDP ; CLController::UpdateLordSkillTick
_TEXT	ENDS
; Function compile flags: /Ogtp
; File C:\IAGOS\server\v18\Source\Source\DatabaseServer\tlord.cpp
;	COMDAT ?InitializeLEvent@CLController@@QAEHXZ
_TEXT	SEGMENT
?InitializeLEvent@CLController@@QAEHXZ PROC		; CLController::InitializeLEvent, COMDAT
; _this$ = ecx

; 732  : 	return GetQueryObject()->Execute( "uspInitializeLEvent %d", g_appInfo.dwSys );

  00000	ff 35 00 00 00
	00		 push	 DWORD PTR ?g_appInfo@@3UAppInfo@@A
  00006	68 00 00 00 00	 push	 OFFSET ??_C@_0BH@NILKABO@uspInitializeLEvent?5?$CFd@
  0000b	ff 71 0c	 push	 DWORD PTR [ecx+12]
  0000e	e8 00 00 00 00	 call	 ?Execute@CQuery@@QAAHPBDZZ ; CQuery::Execute
  00013	83 c4 0c	 add	 esp, 12			; 0000000cH

; 733  : }

  00016	c3		 ret	 0
?InitializeLEvent@CLController@@QAEHXZ ENDP		; CLController::InitializeLEvent
_TEXT	ENDS
; Function compile flags: /Ogtp
; File C:\IAGOS\server\v18\Source\Source\DatabaseServer\tlord.cpp
;	COMDAT ?AddLEComponent@CLController@@QAEHPAVCLEComponent@@@Z
_TEXT	SEGMENT
_pComponent$ = 8					; size = 4
?AddLEComponent@CLController@@QAEHPAVCLEComponent@@@Z PROC ; CLController::AddLEComponent, COMDAT
; _this$ = ecx

; 723  : {	// ±şÁÖ ŔĚşĄĆ® »ýĽş ŔúŔĺ

  00000	55		 push	 ebp
  00001	8b ec		 mov	 ebp, esp

; 724  : 	if( GetQueryObject()->Execute( "uspAddLEComponent %d, %d, %d, %3.2f, %3.2f", g_appInfo.dwSys, pComponent->GetIdPlayer(), pComponent->GetTick(), pComponent->GetEFactor(), pComponent->GetIFactor() ) 
; 725  : 		&& GetQueryObject()->Fetch() )

  00003	8b 45 08	 mov	 eax, DWORD PTR _pComponent$[ebp]
  00006	56		 push	 esi
  00007	83 ec 10	 sub	 esp, 16			; 00000010H
  0000a	8b f1		 mov	 esi, ecx
  0000c	f3 0f 10 40 10	 movss	 xmm0, DWORD PTR [eax+16]
  00011	0f 5a c0	 cvtps2pd xmm0, xmm0
  00014	f2 0f 11 44 24
	08		 movsd	 QWORD PTR [esp+8], xmm0
  0001a	f3 0f 10 40 0c	 movss	 xmm0, DWORD PTR [eax+12]
  0001f	0f 5a c0	 cvtps2pd xmm0, xmm0
  00022	f2 0f 11 04 24	 movsd	 QWORD PTR [esp], xmm0
  00027	ff 70 04	 push	 DWORD PTR [eax+4]
  0002a	ff 70 08	 push	 DWORD PTR [eax+8]
  0002d	ff 35 00 00 00
	00		 push	 DWORD PTR ?g_appInfo@@3UAppInfo@@A
  00033	68 00 00 00 00	 push	 OFFSET ??_C@_0CL@KGJPMKPI@uspAddLEComponent?5?$CFd?0?5?$CFd?0?5?$CFd?0?5?$CF@
  00038	ff 76 0c	 push	 DWORD PTR [esi+12]
  0003b	e8 00 00 00 00	 call	 ?Execute@CQuery@@QAAHPBDZZ ; CQuery::Execute
  00040	83 c4 24	 add	 esp, 36			; 00000024H
  00043	85 c0		 test	 eax, eax
  00045	74 1e		 je	 SHORT $LN2@AddLECompo
  00047	8b 4e 0c	 mov	 ecx, DWORD PTR [esi+12]
  0004a	e8 00 00 00 00	 call	 ?Fetch@CQuery@@QAEHXZ	; CQuery::Fetch
  0004f	85 c0		 test	 eax, eax
  00051	74 12		 je	 SHORT $LN2@AddLECompo

; 726  : 		return static_cast<BOOL>( GetQueryObject()->GetInt( "bResult" ) );

  00053	8b 4e 0c	 mov	 ecx, DWORD PTR [esi+12]
  00056	68 00 00 00 00	 push	 OFFSET ??_C@_07MGNKFCA@bResult@
  0005b	e8 00 00 00 00	 call	 ?GetInt@CQuery@@QAEHPAD@Z ; CQuery::GetInt
  00060	5e		 pop	 esi

; 728  : }

  00061	5d		 pop	 ebp
  00062	c2 04 00	 ret	 4
$LN2@AddLECompo:

; 727  : 	return FALSE;

  00065	33 c0		 xor	 eax, eax
  00067	5e		 pop	 esi

; 728  : }

  00068	5d		 pop	 ebp
  00069	c2 04 00	 ret	 4
?AddLEComponent@CLController@@QAEHPAVCLEComponent@@@Z ENDP ; CLController::AddLEComponent
_TEXT	ENDS
; Function compile flags: /Ogtp
; File C:\IAGOS\server\v18\Source\Source\DatabaseServer\tlord.cpp
;	COMDAT ?IncVote@CLController@@QAEHKK@Z
_TEXT	SEGMENT
_szQuery$ = -260					; size = 255
__$ArrayPad$ = -4					; size = 4
_idPlayer$ = 8						; size = 4
_idElector$ = 12					; size = 4
?IncVote@CLController@@QAEHKK@Z PROC			; CLController::IncVote, COMDAT
; _this$ = ecx

; 710  : {	// ĹőÇĄ ŔúŔĺ

  00000	55		 push	 ebp
  00001	8b ec		 mov	 ebp, esp
  00003	81 ec 04 01 00
	00		 sub	 esp, 260		; 00000104H
  00009	a1 00 00 00 00	 mov	 eax, DWORD PTR ___security_cookie
  0000e	33 c5		 xor	 eax, ebp
  00010	89 45 fc	 mov	 DWORD PTR __$ArrayPad$[ebp], eax
  00013	56		 push	 esi

; 711  : 	// ŔĚąĚ ĹőÇĄÇŃ »çżëŔÚ¸é FALSE ąÝČŻ
; 712  : 	char szQuery[255]	= { 0,};

  00014	68 ff 00 00 00	 push	 255			; 000000ffH
  00019	8d 85 fc fe ff
	ff		 lea	 eax, DWORD PTR _szQuery$[ebp]
  0001f	8b f1		 mov	 esi, ecx
  00021	6a 00		 push	 0
  00023	50		 push	 eax
  00024	e8 00 00 00 00	 call	 _memset

; 713  : 	IElection* pElection	= m_pLord->GetElection();
; 714  : 	sprintf( szQuery, "uspElectionIncVote %d, %d, %d, %d", g_appInfo.dwSys, pElection->GetId(), idPlayer, idElector );

  00029	8b 46 14	 mov	 eax, DWORD PTR [esi+20]
  0002c	ff 75 0c	 push	 DWORD PTR _idElector$[ebp]
  0002f	ff 75 08	 push	 DWORD PTR _idPlayer$[ebp]
  00032	8b 40 08	 mov	 eax, DWORD PTR [eax+8]
  00035	ff 70 08	 push	 DWORD PTR [eax+8]
  00038	8d 85 fc fe ff
	ff		 lea	 eax, DWORD PTR _szQuery$[ebp]
  0003e	ff 35 00 00 00
	00		 push	 DWORD PTR ?g_appInfo@@3UAppInfo@@A
  00044	68 00 00 00 00	 push	 OFFSET ??_C@_0CC@MJFIHIPP@uspElectionIncVote?5?$CFd?0?5?$CFd?0?5?$CFd?0?5@
  00049	50		 push	 eax
  0004a	e8 00 00 00 00	 call	 _sprintf

; 715  : 	if( !GetQueryObject()->Exec( szQuery ) )

  0004f	8b 4e 0c	 mov	 ecx, DWORD PTR [esi+12]
  00052	8d 85 fc fe ff
	ff		 lea	 eax, DWORD PTR _szQuery$[ebp]
  00058	83 c4 24	 add	 esp, 36			; 00000024H
  0005b	50		 push	 eax
  0005c	e8 00 00 00 00	 call	 ?Exec@CQuery@@QAEHPBD@Z	; CQuery::Exec
  00061	85 c0		 test	 eax, eax
  00063	74 2a		 je	 SHORT $LN5@IncVote

; 716  : 		return FALSE;
; 717  : 	if( !GetQueryObject()->Fetch() )

  00065	8b 4e 0c	 mov	 ecx, DWORD PTR [esi+12]
  00068	e8 00 00 00 00	 call	 ?Fetch@CQuery@@QAEHXZ	; CQuery::Fetch
  0006d	85 c0		 test	 eax, eax
  0006f	74 1e		 je	 SHORT $LN5@IncVote

; 718  : 		return FALSE;
; 719  : 	return static_cast<BOOL>( GetQueryObject()->GetInt( "bResult" ) );

  00071	8b 4e 0c	 mov	 ecx, DWORD PTR [esi+12]
  00074	68 00 00 00 00	 push	 OFFSET ??_C@_07MGNKFCA@bResult@
  00079	e8 00 00 00 00	 call	 ?GetInt@CQuery@@QAEHPAD@Z ; CQuery::GetInt
  0007e	5e		 pop	 esi

; 720  : }

  0007f	8b 4d fc	 mov	 ecx, DWORD PTR __$ArrayPad$[ebp]
  00082	33 cd		 xor	 ecx, ebp
  00084	e8 00 00 00 00	 call	 @__security_check_cookie@4
  00089	8b e5		 mov	 esp, ebp
  0008b	5d		 pop	 ebp
  0008c	c2 08 00	 ret	 8
$LN5@IncVote:
  0008f	8b 4d fc	 mov	 ecx, DWORD PTR __$ArrayPad$[ebp]
  00092	33 c0		 xor	 eax, eax
  00094	33 cd		 xor	 ecx, ebp
  00096	5e		 pop	 esi
  00097	e8 00 00 00 00	 call	 @__security_check_cookie@4
  0009c	8b e5		 mov	 esp, ebp
  0009e	5d		 pop	 ebp
  0009f	c2 08 00	 ret	 8
?IncVote@CLController@@QAEHKK@Z ENDP			; CLController::IncVote
_TEXT	ENDS
; Function compile flags: /Ogtp
; File C:\IAGOS\server\v18\Source\Source\DatabaseServer\tlord.cpp
;	COMDAT ?SetPledge@CLController@@QAEHKPBD@Z
_TEXT	SEGMENT
_cbLen$ = -264						; size = 4
_szQuery$ = -260					; size = 255
__$ArrayPad$ = -4					; size = 4
_idPlayer$ = 8						; size = 4
_szPledge$ = 12						; size = 4
?SetPledge@CLController@@QAEHKPBD@Z PROC		; CLController::SetPledge, COMDAT
; _this$ = ecx

; 699  : {	// °řľŕ ĽłÁ¤ ŔúŔĺ

  00000	55		 push	 ebp
  00001	8b ec		 mov	 ebp, esp
  00003	81 ec 08 01 00
	00		 sub	 esp, 264		; 00000108H
  00009	a1 00 00 00 00	 mov	 eax, DWORD PTR ___security_cookie
  0000e	33 c5		 xor	 eax, ebp
  00010	89 45 fc	 mov	 DWORD PTR __$ArrayPad$[ebp], eax
  00013	56		 push	 esi
  00014	8b 75 0c	 mov	 esi, DWORD PTR _szPledge$[ebp]

; 700  : 	char szQuery[255]	= { 0,};

  00017	8d 85 fc fe ff
	ff		 lea	 eax, DWORD PTR _szQuery$[ebp]
  0001d	57		 push	 edi
  0001e	68 ff 00 00 00	 push	 255			; 000000ffH
  00023	6a 00		 push	 0
  00025	50		 push	 eax
  00026	8b f9		 mov	 edi, ecx
  00028	e8 00 00 00 00	 call	 _memset

; 701  : 	IElection* pElection	= m_pLord->GetElection();
; 702  : 	sprintf( szQuery, "{call uspElectionSetPledge( %d, %d, %d, ? )}", g_appInfo.dwSys, pElection->GetId(), idPlayer );

  0002d	8b 47 14	 mov	 eax, DWORD PTR [edi+20]
  00030	ff 75 08	 push	 DWORD PTR _idPlayer$[ebp]
  00033	8b 40 08	 mov	 eax, DWORD PTR [eax+8]
  00036	ff 70 08	 push	 DWORD PTR [eax+8]
  00039	8d 85 fc fe ff
	ff		 lea	 eax, DWORD PTR _szQuery$[ebp]
  0003f	ff 35 00 00 00
	00		 push	 DWORD PTR ?g_appInfo@@3UAppInfo@@A
  00045	68 00 00 00 00	 push	 OFFSET ??_C@_0CN@DFOIGMEI@?$HLcall?5uspElectionSetPledge?$CI?5?$CFd?0@
  0004a	50		 push	 eax
  0004b	e8 00 00 00 00	 call	 _sprintf

; 703  : 	SQLINTEGER cbLen	= SQL_NTS;
; 704  : 	if( !GetQueryObject()->BindParameter( 1, SQL_PARAM_INPUT, SQL_C_CHAR, SQL_VARCHAR, CCandidate::nMaxPledgeLen, 0, const_cast<char*>( szPledge ), 0, &cbLen ) )

  00050	8b 4f 0c	 mov	 ecx, DWORD PTR [edi+12]
  00053	8d 85 f8 fe ff
	ff		 lea	 eax, DWORD PTR _cbLen$[ebp]
  00059	83 c4 20	 add	 esp, 32			; 00000020H
  0005c	c7 85 f8 fe ff
	ff fd ff ff ff	 mov	 DWORD PTR _cbLen$[ebp], -3 ; fffffffdH
  00066	50		 push	 eax
  00067	6a 00		 push	 0
  00069	56		 push	 esi
  0006a	6a 00		 push	 0
  0006c	68 ff 00 00 00	 push	 255			; 000000ffH
  00071	6a 0c		 push	 12			; 0000000cH
  00073	6a 01		 push	 1
  00075	6a 01		 push	 1
  00077	6a 01		 push	 1
  00079	e8 00 00 00 00	 call	 ?BindParameter@CQuery@@QAEHGFFFKFPAXJPAJ@Z ; CQuery::BindParameter
  0007e	85 c0		 test	 eax, eax
  00080	75 12		 jne	 SHORT $LN2@SetPledge

; 707  : }

  00082	5f		 pop	 edi
  00083	5e		 pop	 esi
  00084	8b 4d fc	 mov	 ecx, DWORD PTR __$ArrayPad$[ebp]
  00087	33 cd		 xor	 ecx, ebp
  00089	e8 00 00 00 00	 call	 @__security_check_cookie@4
  0008e	8b e5		 mov	 esp, ebp
  00090	5d		 pop	 ebp
  00091	c2 08 00	 ret	 8
$LN2@SetPledge:

; 705  : 		return FALSE;
; 706  : 	return GetQueryObject()->Exec( szQuery );

  00094	8b 4f 0c	 mov	 ecx, DWORD PTR [edi+12]
  00097	8d 85 fc fe ff
	ff		 lea	 eax, DWORD PTR _szQuery$[ebp]
  0009d	50		 push	 eax
  0009e	e8 00 00 00 00	 call	 ?Exec@CQuery@@QAEHPBD@Z	; CQuery::Exec

; 707  : }

  000a3	8b 4d fc	 mov	 ecx, DWORD PTR __$ArrayPad$[ebp]
  000a6	5f		 pop	 edi
  000a7	33 cd		 xor	 ecx, ebp
  000a9	5e		 pop	 esi
  000aa	e8 00 00 00 00	 call	 @__security_check_cookie@4
  000af	8b e5		 mov	 esp, ebp
  000b1	5d		 pop	 ebp
  000b2	c2 08 00	 ret	 8
?SetPledge@CLController@@QAEHKPBD@Z ENDP		; CLController::SetPledge
_TEXT	ENDS
; Function compile flags: /Ogtp
; File C:\IAGOS\server\v18\Source\Source\DatabaseServer\tlord.cpp
;	COMDAT ?AddDeposit@CLController@@QAEHK_JJ@Z
_TEXT	SEGMENT
_szQuery$ = -260					; size = 255
__$ArrayPad$ = -4					; size = 4
_idPlayer$ = 8						; size = 4
_iDeposit$ = 12						; size = 8
_tCreate$ = 20						; size = 4
?AddDeposit@CLController@@QAEHK_JJ@Z PROC		; CLController::AddDeposit, COMDAT
; _this$ = ecx

; 691  : {	// ±şÁÖ ŔÔÂű ŔúŔĺ

  00000	55		 push	 ebp
  00001	8b ec		 mov	 ebp, esp
  00003	81 ec 04 01 00
	00		 sub	 esp, 260		; 00000104H
  00009	a1 00 00 00 00	 mov	 eax, DWORD PTR ___security_cookie
  0000e	33 c5		 xor	 eax, ebp
  00010	89 45 fc	 mov	 DWORD PTR __$ArrayPad$[ebp], eax
  00013	56		 push	 esi

; 692  : 	char szQuery[255]	= { 0,};

  00014	68 ff 00 00 00	 push	 255			; 000000ffH
  00019	8d 85 fc fe ff
	ff		 lea	 eax, DWORD PTR _szQuery$[ebp]
  0001f	8b f1		 mov	 esi, ecx
  00021	6a 00		 push	 0
  00023	50		 push	 eax
  00024	e8 00 00 00 00	 call	 _memset

; 693  : 	IElection* pElection	= m_pLord->GetElection();
; 694  : 	sprintf( szQuery, "uspElectionAddDeposit %d, %d, %d, %I64d, %d", g_appInfo.dwSys, pElection->GetId(), idPlayer, iDeposit, tCreate );

  00029	ff 75 14	 push	 DWORD PTR _tCreate$[ebp]
  0002c	8b 46 14	 mov	 eax, DWORD PTR [esi+20]
  0002f	ff 75 10	 push	 DWORD PTR _iDeposit$[ebp+4]
  00032	ff 75 0c	 push	 DWORD PTR _iDeposit$[ebp]
  00035	8b 40 08	 mov	 eax, DWORD PTR [eax+8]
  00038	ff 75 08	 push	 DWORD PTR _idPlayer$[ebp]
  0003b	ff 70 08	 push	 DWORD PTR [eax+8]
  0003e	8d 85 fc fe ff
	ff		 lea	 eax, DWORD PTR _szQuery$[ebp]
  00044	ff 35 00 00 00
	00		 push	 DWORD PTR ?g_appInfo@@3UAppInfo@@A
  0004a	68 00 00 00 00	 push	 OFFSET ??_C@_0CM@MKKLKFBM@uspElectionAddDeposit?5?$CFd?0?5?$CFd?0?5?$CF@
  0004f	50		 push	 eax
  00050	e8 00 00 00 00	 call	 _sprintf

; 695  : 	return GetQueryObject()->Exec( szQuery );

  00055	8b 4e 0c	 mov	 ecx, DWORD PTR [esi+12]
  00058	8d 85 fc fe ff
	ff		 lea	 eax, DWORD PTR _szQuery$[ebp]
  0005e	83 c4 2c	 add	 esp, 44			; 0000002cH
  00061	50		 push	 eax
  00062	e8 00 00 00 00	 call	 ?Exec@CQuery@@QAEHPBD@Z	; CQuery::Exec

; 696  : }

  00067	8b 4d fc	 mov	 ecx, DWORD PTR __$ArrayPad$[ebp]
  0006a	33 cd		 xor	 ecx, ebp
  0006c	5e		 pop	 esi
  0006d	e8 00 00 00 00	 call	 @__security_check_cookie@4
  00072	8b e5		 mov	 esp, ebp
  00074	5d		 pop	 ebp
  00075	c2 10 00	 ret	 16			; 00000010H
?AddDeposit@CLController@@QAEHK_JJ@Z ENDP		; CLController::AddDeposit
_TEXT	ENDS
; Function compile flags: /Ogtp
; File C:\IAGOS\server\v18\Source\Source\DatabaseServer\tlord.cpp
; File C:\Program Files\Microsoft Visual Studio\2022\Professional\VC\Tools\MSVC\14.44.35207\atlmfc\include\atlsimpstr.h
; File C:\IAGOS\server\v18\Source\Source\DatabaseServer\tlord.cpp
; File C:\Program Files\Microsoft Visual Studio\2022\Professional\VC\Tools\MSVC\14.44.35207\atlmfc\include\atlsimpstr.h
; File C:\IAGOS\server\v18\Source\Source\DatabaseServer\tlord.cpp
;	COMDAT ?EndVote@CLController@@QAEHK@Z
_TEXT	SEGMENT
$T2 = -16						; size = 4
__$EHRec$ = -12						; size = 12
_idPlayer$ = 8						; size = 4
?EndVote@CLController@@QAEHK@Z PROC			; CLController::EndVote, COMDAT
; _this$ = ecx

; 684  : {	// ĹőÇĄ Áľ·á »óĹÂ ŔúŔĺ

  00000	55		 push	 ebp
  00001	8b ec		 mov	 ebp, esp
  00003	6a ff		 push	 -1
  00005	68 00 00 00 00	 push	 __ehhandler$?EndVote@CLController@@QAEHK@Z
  0000a	64 a1 00 00 00
	00		 mov	 eax, DWORD PTR fs:0
  00010	50		 push	 eax
  00011	51		 push	 ecx
  00012	56		 push	 esi
  00013	57		 push	 edi
  00014	a1 00 00 00 00	 mov	 eax, DWORD PTR ___security_cookie
  00019	33 c5		 xor	 eax, ebp
  0001b	50		 push	 eax
  0001c	8d 45 f4	 lea	 eax, DWORD PTR __$EHRec$[ebp]
  0001f	64 a3 00 00 00
	00		 mov	 DWORD PTR fs:0, eax
  00025	8b f9		 mov	 edi, ecx

; 685  : 	IElection* pElection	= m_pLord->GetElection();

  00027	8b 47 14	 mov	 eax, DWORD PTR [edi+20]
  0002a	8b 70 08	 mov	 esi, DWORD PTR [eax+8]

; 686  : 	return GetQueryObject()->Execute( "uspElectionEndVote %d, %d, %d, %s", g_appInfo.dwSys, pElection->GetId(), idPlayer,

  0002d	8b ce		 mov	 ecx, esi
  0002f	e8 00 00 00 00	 call	 ?GetNextBegin@IElection@@QAEJXZ ; IElection::GetNextBegin
  00034	50		 push	 eax
  00035	8d 45 f0	 lea	 eax, DWORD PTR $T2[ebp]
  00038	50		 push	 eax
  00039	e8 00 00 00 00	 call	 ?ttos@CTElection@@SA?AV?$CStringT@DV?$StrTraitMFC@DV?$ChTraitsCRT@D@ATL@@@@@ATL@@J@Z ; CTElection::ttos
  0003e	ff 30		 push	 DWORD PTR [eax]
  00040	c7 45 fc 00 00
	00 00		 mov	 DWORD PTR __$EHRec$[ebp+8], 0
  00047	ff 75 08	 push	 DWORD PTR _idPlayer$[ebp]
  0004a	ff 76 08	 push	 DWORD PTR [esi+8]
  0004d	ff 35 00 00 00
	00		 push	 DWORD PTR ?g_appInfo@@3UAppInfo@@A
  00053	68 00 00 00 00	 push	 OFFSET ??_C@_0CC@KFNJJIIE@uspElectionEndVote?5?$CFd?0?5?$CFd?0?5?$CFd?0?5@
  00058	ff 77 0c	 push	 DWORD PTR [edi+12]
  0005b	e8 00 00 00 00	 call	 ?Execute@CQuery@@QAAHPBDZZ ; CQuery::Execute
; File C:\Program Files\Microsoft Visual Studio\2022\Professional\VC\Tools\MSVC\14.44.35207\atlmfc\include\atlsimpstr.h

; 804  : 		return( reinterpret_cast< CStringData* >( m_pszData )-1 );

  00060	8b 55 f0	 mov	 edx, DWORD PTR $T2[ebp]
; File C:\IAGOS\server\v18\Source\Source\DatabaseServer\tlord.cpp

; 686  : 	return GetQueryObject()->Execute( "uspElectionEndVote %d, %d, %d, %s", g_appInfo.dwSys, pElection->GetId(), idPlayer,

  00063	83 c4 20	 add	 esp, 32			; 00000020H
  00066	8b f0		 mov	 esi, eax
  00068	c7 45 fc ff ff
	ff ff		 mov	 DWORD PTR __$EHRec$[ebp+8], -1
; File C:\Program Files\Microsoft Visual Studio\2022\Professional\VC\Tools\MSVC\14.44.35207\atlmfc\include\atlsimpstr.h

; 804  : 		return( reinterpret_cast< CStringData* >( m_pszData )-1 );

  0006f	83 c2 f0	 add	 edx, -16		; fffffff0H

; 92   : 		if( _InterlockedDecrement( &nRefs ) <= 0 )

  00072	83 c9 ff	 or	 ecx, -1
  00075	f0 0f c1 4a 0c	 lock	  xadd	 DWORD PTR [edx+12], ecx
  0007a	49		 dec	 ecx
  0007b	85 c9		 test	 ecx, ecx
  0007d	7f 0a		 jg	 SHORT $LN11@EndVote

; 93   : 		{
; 94   : 			pStringMgr->Free( this );

  0007f	8b 0a		 mov	 ecx, DWORD PTR [edx]
  00081	52		 push	 edx
  00082	8b 01		 mov	 eax, DWORD PTR [ecx]
  00084	ff 50 04	 call	 DWORD PTR [eax+4]
; File C:\IAGOS\server\v18\Source\Source\DatabaseServer\tlord.cpp

; 686  : 	return GetQueryObject()->Execute( "uspElectionEndVote %d, %d, %d, %s", g_appInfo.dwSys, pElection->GetId(), idPlayer,

  00087	8b c6		 mov	 eax, esi
$LN11@EndVote:

; 687  : 		(LPCSTR)CTElection::ttos( pElection->GetNextBegin() ) );
; 688  : }

  00089	8b 4d f4	 mov	 ecx, DWORD PTR __$EHRec$[ebp]
  0008c	64 89 0d 00 00
	00 00		 mov	 DWORD PTR fs:0, ecx
  00093	59		 pop	 ecx
  00094	5f		 pop	 edi
  00095	5e		 pop	 esi
  00096	8b e5		 mov	 esp, ebp
  00098	5d		 pop	 ebp
  00099	c2 04 00	 ret	 4
_TEXT	ENDS
;	COMDAT text$x
text$x	SEGMENT
__unwindfunclet$?EndVote@CLController@@QAEHK@Z$0:
  00000	8d 4d f0	 lea	 ecx, DWORD PTR $T2[ebp]
  00003	e9 00 00 00 00	 jmp	 ??1?$CStringT@DV?$StrTraitMFC@DV?$ChTraitsCRT@D@ATL@@@@@ATL@@QAE@XZ ; ATL::CStringT<char,StrTraitMFC<char,ATL::ChTraitsCRT<char> > >::~CStringT<char,StrTraitMFC<char,ATL::ChTraitsCRT<char> > >
  00008	cc		 int	 3
  00009	cc		 int	 3
  0000a	cc		 int	 3
  0000b	cc		 int	 3
  0000c	cc		 int	 3
__ehhandler$?EndVote@CLController@@QAEHK@Z:
  0000d	90		 npad	 1
  0000e	90		 npad	 1
  0000f	8b 54 24 08	 mov	 edx, DWORD PTR [esp+8]
  00013	8d 42 0c	 lea	 eax, DWORD PTR [edx+12]
  00016	8b 4a f0	 mov	 ecx, DWORD PTR [edx-16]
  00019	33 c8		 xor	 ecx, eax
  0001b	e8 00 00 00 00	 call	 @__security_check_cookie@4
  00020	b8 00 00 00 00	 mov	 eax, OFFSET __ehfuncinfo$?EndVote@CLController@@QAEHK@Z
  00025	e9 00 00 00 00	 jmp	 ___CxxFrameHandler3
text$x	ENDS
?EndVote@CLController@@QAEHK@Z ENDP			; CLController::EndVote
; Function compile flags: /Ogtp
; File C:\IAGOS\server\v18\Source\Source\DatabaseServer\tlord.cpp
;	COMDAT ?BeginVote@CLController@@QAEHXZ
_TEXT	SEGMENT
_szQuery$ = -260					; size = 255
__$ArrayPad$ = -4					; size = 4
?BeginVote@CLController@@QAEHXZ PROC			; CLController::BeginVote, COMDAT
; _this$ = ecx

; 673  : {	// ĹőÇĄ ˝ĂŔŰ »óĹÂ ŔúŔĺ

  00000	55		 push	 ebp
  00001	8b ec		 mov	 ebp, esp
  00003	81 ec 04 01 00
	00		 sub	 esp, 260		; 00000104H
  00009	a1 00 00 00 00	 mov	 eax, DWORD PTR ___security_cookie
  0000e	33 c5		 xor	 eax, ebp
  00010	89 45 fc	 mov	 DWORD PTR __$ArrayPad$[ebp], eax
  00013	56		 push	 esi

; 674  : 	int nRequirement	= -1;
; 675  : 	char szQuery[255]	= { 0,};

  00014	68 ff 00 00 00	 push	 255			; 000000ffH
  00019	8d 85 fc fe ff
	ff		 lea	 eax, DWORD PTR _szQuery$[ebp]
  0001f	8b f1		 mov	 esi, ecx
  00021	6a 00		 push	 0
  00023	50		 push	 eax
  00024	e8 00 00 00 00	 call	 _memset

; 676  : 	IElection* pElection	= m_pLord->GetElection();
; 677  : 	sprintf( szQuery, "uspElectionBeginVote %d, %d", g_appInfo.dwSys, pElection->GetId() );

  00029	8b 46 14	 mov	 eax, DWORD PTR [esi+20]
  0002c	8b 40 08	 mov	 eax, DWORD PTR [eax+8]
  0002f	ff 70 08	 push	 DWORD PTR [eax+8]
  00032	8d 85 fc fe ff
	ff		 lea	 eax, DWORD PTR _szQuery$[ebp]
  00038	ff 35 00 00 00
	00		 push	 DWORD PTR ?g_appInfo@@3UAppInfo@@A
  0003e	68 00 00 00 00	 push	 OFFSET ??_C@_0BM@CADCBIMM@uspElectionBeginVote?5?$CFd?0?5?$CFd@
  00043	50		 push	 eax
  00044	e8 00 00 00 00	 call	 _sprintf

; 678  : 	if( GetQueryObject()->Exec( szQuery ) && GetQueryObject()->Fetch() )

  00049	8b 4e 0c	 mov	 ecx, DWORD PTR [esi+12]
  0004c	8d 85 fc fe ff
	ff		 lea	 eax, DWORD PTR _szQuery$[ebp]
  00052	83 c4 1c	 add	 esp, 28			; 0000001cH
  00055	50		 push	 eax
  00056	e8 00 00 00 00	 call	 ?Exec@CQuery@@QAEHPBD@Z	; CQuery::Exec
  0005b	85 c0		 test	 eax, eax
  0005d	74 28		 je	 SHORT $LN4@BeginVote
  0005f	8b 4e 0c	 mov	 ecx, DWORD PTR [esi+12]
  00062	e8 00 00 00 00	 call	 ?Fetch@CQuery@@QAEHXZ	; CQuery::Fetch
  00067	85 c0		 test	 eax, eax
  00069	74 1c		 je	 SHORT $LN4@BeginVote

; 679  : 		nRequirement	= GetQueryObject()->GetInt( "nRequirement" );

  0006b	8b 4e 0c	 mov	 ecx, DWORD PTR [esi+12]
  0006e	68 00 00 00 00	 push	 OFFSET ??_C@_0N@NOMIPDCI@nRequirement@
  00073	e8 00 00 00 00	 call	 ?GetInt@CQuery@@QAEHPAD@Z ; CQuery::GetInt
  00078	5e		 pop	 esi

; 680  : 	return nRequirement;
; 681  : }

  00079	8b 4d fc	 mov	 ecx, DWORD PTR __$ArrayPad$[ebp]
  0007c	33 cd		 xor	 ecx, ebp
  0007e	e8 00 00 00 00	 call	 @__security_check_cookie@4
  00083	8b e5		 mov	 esp, ebp
  00085	5d		 pop	 ebp
  00086	c3		 ret	 0
$LN4@BeginVote:
  00087	8b 4d fc	 mov	 ecx, DWORD PTR __$ArrayPad$[ebp]
  0008a	83 c8 ff	 or	 eax, -1
  0008d	33 cd		 xor	 ecx, ebp
  0008f	5e		 pop	 esi
  00090	e8 00 00 00 00	 call	 @__security_check_cookie@4
  00095	8b e5		 mov	 esp, ebp
  00097	5d		 pop	 ebp
  00098	c3		 ret	 0
?BeginVote@CLController@@QAEHXZ ENDP			; CLController::BeginVote
_TEXT	ENDS
; Function compile flags: /Ogtp
; File C:\IAGOS\server\v18\Source\Source\DatabaseServer\tlord.cpp
;	COMDAT ?BeginCandidacy@CLController@@QAEHXZ
_TEXT	SEGMENT
_szQuery$ = -260					; size = 255
__$ArrayPad$ = -4					; size = 4
?BeginCandidacy@CLController@@QAEHXZ PROC		; CLController::BeginCandidacy, COMDAT
; _this$ = ecx

; 665  : {	// ŔÔČÄş¸ ˝ĂŔŰ »óĹÂ ŔúŔĺ

  00000	55		 push	 ebp
  00001	8b ec		 mov	 ebp, esp
  00003	81 ec 04 01 00
	00		 sub	 esp, 260		; 00000104H
  00009	a1 00 00 00 00	 mov	 eax, DWORD PTR ___security_cookie
  0000e	33 c5		 xor	 eax, ebp
  00010	89 45 fc	 mov	 DWORD PTR __$ArrayPad$[ebp], eax
  00013	56		 push	 esi

; 666  : 	char szQuery[255]	= { 0,};

  00014	68 ff 00 00 00	 push	 255			; 000000ffH
  00019	8d 85 fc fe ff
	ff		 lea	 eax, DWORD PTR _szQuery$[ebp]
  0001f	8b f1		 mov	 esi, ecx
  00021	6a 00		 push	 0
  00023	50		 push	 eax
  00024	e8 00 00 00 00	 call	 _memset

; 667  : 	IElection* pElection	= m_pLord->GetElection();
; 668  : 	sprintf( szQuery, "uspElectionBeginCandidacy %d, %d", g_appInfo.dwSys, pElection->GetId() );

  00029	8b 46 14	 mov	 eax, DWORD PTR [esi+20]
  0002c	8b 40 08	 mov	 eax, DWORD PTR [eax+8]
  0002f	ff 70 08	 push	 DWORD PTR [eax+8]
  00032	8d 85 fc fe ff
	ff		 lea	 eax, DWORD PTR _szQuery$[ebp]
  00038	ff 35 00 00 00
	00		 push	 DWORD PTR ?g_appInfo@@3UAppInfo@@A
  0003e	68 00 00 00 00	 push	 OFFSET ??_C@_0CB@IFBIPCGL@uspElectionBeginCandidacy?5?$CFd?0?5?$CF@
  00043	50		 push	 eax
  00044	e8 00 00 00 00	 call	 _sprintf

; 669  : 	return GetQueryObject()->Exec( szQuery );

  00049	8b 4e 0c	 mov	 ecx, DWORD PTR [esi+12]
  0004c	8d 85 fc fe ff
	ff		 lea	 eax, DWORD PTR _szQuery$[ebp]
  00052	83 c4 1c	 add	 esp, 28			; 0000001cH
  00055	50		 push	 eax
  00056	e8 00 00 00 00	 call	 ?Exec@CQuery@@QAEHPBD@Z	; CQuery::Exec

; 670  : }

  0005b	8b 4d fc	 mov	 ecx, DWORD PTR __$ArrayPad$[ebp]
  0005e	33 cd		 xor	 ecx, ebp
  00060	5e		 pop	 esi
  00061	e8 00 00 00 00	 call	 @__security_check_cookie@4
  00066	8b e5		 mov	 esp, ebp
  00068	5d		 pop	 ebp
  00069	c3		 ret	 0
?BeginCandidacy@CLController@@QAEHXZ ENDP		; CLController::BeginCandidacy
_TEXT	ENDS
; Function compile flags: /Ogtp
; File C:\IAGOS\server\v18\Source\Source\DatabaseServer\tlord.cpp
;	COMDAT ?Restore@CLController@@QAEHXZ
_TEXT	SEGMENT
_pElection$1$ = -4					; size = 4
?Restore@CLController@@QAEHXZ PROC			; CLController::Restore, COMDAT
; _this$ = ecx

; 646  : {	// ¸đµç ±şÁÖ ˝Ă˝şĹŰ Çů·Â °´ĂĽµéŔÇ şążř

  00000	55		 push	 ebp
  00001	8b ec		 mov	 ebp, esp
  00003	51		 push	 ecx
  00004	56		 push	 esi
  00005	57		 push	 edi
  00006	8b f9		 mov	 edi, ecx

; 647  : 	CQuery* pQuery	= CreateQuery();

  00008	e8 00 00 00 00	 call	 ?CreateQuery@CDbController@@QAEPAVCQuery@@XZ ; CDbController::CreateQuery
  0000d	8b f0		 mov	 esi, eax

; 648  : 	if( !pQuery )

  0000f	85 f6		 test	 esi, esi
  00011	75 06		 jne	 SHORT $LN2@Restore

; 662  : }

  00013	5f		 pop	 edi
  00014	5e		 pop	 esi
  00015	8b e5		 mov	 esp, ebp
  00017	5d		 pop	 ebp
  00018	c3		 ret	 0
$LN2@Restore:

; 649  : 		return FALSE;
; 650  : 	CTElection* pElection	= static_cast<CTElection*>( m_pLord->GetElection() );

  00019	8b 4f 14	 mov	 ecx, DWORD PTR [edi+20]
  0001c	53		 push	 ebx

; 651  : 	CLEvent* pEvent		= static_cast<CLEvent*>( m_pLord->GetEvent() );
; 652  : 	CTLordSkill* pSkills	= static_cast<CTLordSkill*>( m_pLord->GetSkills() );
; 653  : 	
; 654  : 	if( m_pLord->Restore( pQuery ) && pElection->Restore( pQuery )
; 655  : 		&& pEvent->Restore( pQuery ) && pSkills->Restore( pQuery ) )

  0001d	56		 push	 esi
  0001e	8b 41 08	 mov	 eax, DWORD PTR [ecx+8]
  00021	8b 59 0c	 mov	 ebx, DWORD PTR [ecx+12]
  00024	8b 79 10	 mov	 edi, DWORD PTR [ecx+16]
  00027	89 45 fc	 mov	 DWORD PTR _pElection$1$[ebp], eax
  0002a	e8 00 00 00 00	 call	 ?Restore@CTLord@@QAEHPAVCQuery@@@Z ; CTLord::Restore
  0002f	85 c0		 test	 eax, eax
  00031	74 46		 je	 SHORT $LN3@Restore
  00033	8b 4d fc	 mov	 ecx, DWORD PTR _pElection$1$[ebp]
  00036	56		 push	 esi
  00037	e8 00 00 00 00	 call	 ?Restore@CTElection@@QAEHPAVCQuery@@@Z ; CTElection::Restore
  0003c	85 c0		 test	 eax, eax
  0003e	74 39		 je	 SHORT $LN3@Restore
  00040	56		 push	 esi
  00041	8b cb		 mov	 ecx, ebx
  00043	e8 00 00 00 00	 call	 ?Restore@CLEvent@@QAEHPAVCQuery@@@Z ; CLEvent::Restore
  00048	85 c0		 test	 eax, eax
  0004a	74 2d		 je	 SHORT $LN3@Restore
  0004c	56		 push	 esi
  0004d	8b cf		 mov	 ecx, edi
  0004f	e8 00 00 00 00	 call	 ?Restore@CTLordSkill@@QAEHPAVCQuery@@@Z ; CTLordSkill::Restore
  00054	85 c0		 test	 eax, eax
  00056	74 21		 je	 SHORT $LN3@Restore

; 656  : 	{
; 657  : 		SAFE_DELETE( pQuery );
; 658  : 		return TRUE;

  00058	8b ce		 mov	 ecx, esi
  0005a	e8 00 00 00 00	 call	 ??1CQuery@@QAE@XZ	; CQuery::~CQuery
  0005f	68 10 3d 00 00	 push	 15632			; 00003d10H
  00064	56		 push	 esi
  00065	e8 00 00 00 00	 call	 ??3@YAXPAXI@Z		; operator delete
  0006a	83 c4 08	 add	 esp, 8
  0006d	b8 01 00 00 00	 mov	 eax, 1
  00072	5b		 pop	 ebx
  00073	5f		 pop	 edi

; 662  : }

  00074	5e		 pop	 esi
  00075	8b e5		 mov	 esp, ebp
  00077	5d		 pop	 ebp
  00078	c3		 ret	 0
$LN3@Restore:
  00079	8b ce		 mov	 ecx, esi
  0007b	e8 00 00 00 00	 call	 ??1CQuery@@QAE@XZ	; CQuery::~CQuery
  00080	68 10 3d 00 00	 push	 15632			; 00003d10H
  00085	56		 push	 esi
  00086	e8 00 00 00 00	 call	 ??3@YAXPAXI@Z		; operator delete
  0008b	83 c4 08	 add	 esp, 8

; 659  : 	}
; 660  : 	SAFE_DELETE( pQuery );	
; 661  : 	return FALSE;

  0008e	33 c0		 xor	 eax, eax
  00090	5b		 pop	 ebx
  00091	5f		 pop	 edi

; 662  : }

  00092	5e		 pop	 esi
  00093	8b e5		 mov	 esp, ebp
  00095	5d		 pop	 ebp
  00096	c3		 ret	 0
?Restore@CLController@@QAEHXZ ENDP			; CLController::Restore
_TEXT	ENDS
; Function compile flags: /Ogtp
; File C:\IAGOS\server\v18\Source\Source\DatabaseServer\tlord.cpp
;	COMDAT ??1CLController@@UAE@XZ
_TEXT	SEGMENT
??1CLController@@UAE@XZ PROC				; CLController::~CLController, COMDAT
; _this$ = ecx

; 632  : {

  00000	c7 01 00 00 00
	00		 mov	 DWORD PTR [ecx], OFFSET ??_7CLController@@6B@

; 633  : }

  00006	e9 00 00 00 00	 jmp	 ??1CDbController@@UAE@XZ ; CDbController::~CDbController
??1CLController@@UAE@XZ ENDP				; CLController::~CLController
_TEXT	ENDS
; Function compile flags: /Ogtp
; File C:\IAGOS\server\v18\Source\Source\DatabaseServer\tlord.cpp
;	COMDAT ??0CLController@@QAE@PAVCTLord@@@Z
_TEXT	SEGMENT
_this$ = -4						; size = 4
_pLord$ = 8						; size = 4
??0CLController@@QAE@PAVCTLord@@@Z PROC			; CLController::CLController, COMDAT
; _this$ = ecx

; 628  : {

  00000	55		 push	 ebp
  00001	8b ec		 mov	 ebp, esp
  00003	51		 push	 ecx
  00004	56		 push	 esi
  00005	8b f1		 mov	 esi, ecx
  00007	89 75 fc	 mov	 DWORD PTR _this$[ebp], esi
  0000a	e8 00 00 00 00	 call	 ??0CDbController@@QAE@XZ ; CDbController::CDbController

; 626  : m_pLord( pLord ), 

  0000f	8b 45 08	 mov	 eax, DWORD PTR _pLord$[ebp]
  00012	89 46 14	 mov	 DWORD PTR [esi+20], eax

; 629  : }

  00015	8b c6		 mov	 eax, esi
  00017	c7 06 00 00 00
	00		 mov	 DWORD PTR [esi], OFFSET ??_7CLController@@6B@
  0001d	5e		 pop	 esi
  0001e	8b e5		 mov	 esp, ebp
  00020	5d		 pop	 ebp
  00021	c2 04 00	 ret	 4
??0CLController@@QAE@PAVCTLord@@@Z ENDP			; CLController::CLController
_TEXT	ENDS
; Function compile flags: /Ogtp
; File C:\IAGOS\server\v18\Source\Source\DatabaseServer\tlord.cpp
; File C:\Program Files (x86)\Windows Kits\10\Include\10.0.26100.0\ucrt\time.h
; File C:\IAGOS\server\v18\Source\Source\DatabaseServer\tlord.cpp
; File C:\Program Files (x86)\Windows Kits\10\Include\10.0.26100.0\ucrt\time.h
; File C:\IAGOS\server\v18\Source\Source\DatabaseServer\tlord.cpp
; File C:\Program Files (x86)\Windows Kits\10\Include\10.0.26100.0\ucrt\time.h
; File C:\IAGOS\server\v18\Source\Source\DatabaseServer\tlord.cpp
; File C:\IAGOS\server\v18\Source\Source\_Common\Data.h
; File C:\IAGOS\server\v18\Source\Source\DatabaseServer\Project.h
; File C:\IAGOS\server\v18\Source\Source\DatabaseServer\tlord.cpp
; File C:\IAGOS\server\v18\Source\Source\_Common\Data.h
; File C:\Program Files\Microsoft Visual Studio\2022\Professional\VC\Tools\MSVC\14.44.35207\include\memory
; File C:\IAGOS\server\v18\Source\Source\_Common\Data.h
; File C:\IAGOS\server\v18\Source\Source\DatabaseServer\Project.h
; File C:\IAGOS\server\v18\Source\Source\DatabaseServer\tlord.cpp
; File C:\IAGOS\server\v18\Source\Source\_Common\Data.h
; File C:\IAGOS\server\v18\Source\Source\DatabaseServer\Project.h
; File C:\IAGOS\server\v18\Source\Source\DatabaseServer\tlord.cpp
; File C:\IAGOS\server\v18\Source\Source\_Common\Data.h
; File C:\Program Files\Microsoft Visual Studio\2022\Professional\VC\Tools\MSVC\14.44.35207\include\memory
; File C:\IAGOS\server\v18\Source\Source\_Common\Data.h
; File C:\IAGOS\server\v18\Source\Source\DatabaseServer\Project.h
; File C:\IAGOS\server\v18\Source\Source\DatabaseServer\tlord.cpp
; File C:\IAGOS\server\v18\Source\Source\_Common\xutil.h
; File C:\IAGOS\server\v18\Source\Source\DatabaseServer\tlord.cpp
;	COMDAT ??RPostDeposit@@QBEXABV?$shared_ptr@VCCandidate@@@std@@@Z
_TEXT	SEGMENT
$T2 = -32						; size = 4
_nOrder$1$ = -32					; size = 4
_this$1$ = -28						; size = 4
_pElection$1$ = -24					; size = 4
_iDeposit$2$ = -20					; size = 4
_idReceiver$1$ = -16					; size = 4
__$EHRec$ = -12						; size = 12
_lhs$ = 8						; size = 4
_fRate$ = 8						; size = 4
$T3 = 8							; size = 4
_fRate$1$ = 8						; size = 4
??RPostDeposit@@QBEXABV?$shared_ptr@VCCandidate@@@std@@@Z PROC ; PostDeposit::operator(), COMDAT
; _this$ = ecx

; 353  : {	// ŔÔÂű±Ý żěĆí ąÝČŻ ÇÔĽöŔÚ

  00000	55		 push	 ebp
  00001	8b ec		 mov	 ebp, esp
  00003	6a ff		 push	 -1
  00005	68 00 00 00 00	 push	 __ehhandler$??RPostDeposit@@QBEXABV?$shared_ptr@VCCandidate@@@std@@@Z
  0000a	64 a1 00 00 00
	00		 mov	 eax, DWORD PTR fs:0
  00010	50		 push	 eax
  00011	83 ec 14	 sub	 esp, 20			; 00000014H
  00014	53		 push	 ebx
  00015	56		 push	 esi
  00016	57		 push	 edi
  00017	a1 00 00 00 00	 mov	 eax, DWORD PTR ___security_cookie
  0001c	33 c5		 xor	 eax, ebp
  0001e	50		 push	 eax
  0001f	8d 45 f4	 lea	 eax, DWORD PTR __$EHRec$[ebp]
  00022	64 a3 00 00 00
	00		 mov	 DWORD PTR fs:0, eax
  00028	89 4d e4	 mov	 DWORD PTR _this$1$[ebp], ecx

; 354  : 	u_long idReceiver	= lhs->GetIdPlayer();

  0002b	8b 7d 08	 mov	 edi, DWORD PTR _lhs$[ebp]
  0002e	8b 07		 mov	 eax, DWORD PTR [edi]
  00030	8b 18		 mov	 ebx, DWORD PTR [eax]
  00032	89 5d f0	 mov	 DWORD PTR _idReceiver$1$[ebp], ebx

; 355  : 	CTElection* pElection	= static_cast<CTElection*>( CTLord::Instance()->GetElection() );

  00035	e8 00 00 00 00	 call	 ?Instance@CTLord@@SAPAV1@XZ ; CTLord::Instance

; 356  : 
; 357  : 	// ČÄş¸ŔÚ ĽřŔ§żˇ µű¸Ą ąÝČŻ±Ý ±¸ÇĎ±â
; 358  : 	float fRate		= pElection->GetRetRate( idReceiver );

  0003a	53		 push	 ebx
  0003b	8b 40 08	 mov	 eax, DWORD PTR [eax+8]
  0003e	8b c8		 mov	 ecx, eax
  00040	89 45 e8	 mov	 DWORD PTR _pElection$1$[ebp], eax
  00043	e8 00 00 00 00	 call	 ?GetRetRate@CTElection@@QAEMK@Z ; CTElection::GetRetRate
  00048	d9 5d 08	 fstp	 DWORD PTR _fRate$[ebp]

; 359  : 	if( fRate == 0.0F )

  0004b	f3 0f 10 45 08	 movss	 xmm0, DWORD PTR _fRate$[ebp]
  00050	0f 2e 05 00 00
	00 00		 ucomiss xmm0, DWORD PTR __real@00000000
  00057	9f		 lahf
  00058	f6 c4 44	 test	 ah, 68			; 00000044H
  0005b	0f 8b 50 02 00
	00		 jnp	 $LN1@operator

; 360  : 		return;
; 361  : 	// 2008/10/31 - Á¤ąĐµµ żŔ·ů°ˇ ąß»ýÇĎż© ĽöÁ¤ - Ë¬
; 362  : //	__int64 iDeposit	= lhs->GetDeposit() * fRate;
; 363  : 	__int64 iDeposit	= (__int64)( lhs->GetDeposit() / 100 * ( fRate * 100 ) );

  00061	8b 07		 mov	 eax, DWORD PTR [edi]
  00063	f3 0f 59 05 00
	00 00 00	 mulss	 xmm0, DWORD PTR __real@42c80000
  0006b	6a 00		 push	 0
  0006d	6a 64		 push	 100			; 00000064H
  0006f	ff 70 0c	 push	 DWORD PTR [eax+12]
  00072	f3 0f 11 45 08	 movss	 DWORD PTR _fRate$1$[ebp], xmm0
  00077	ff 70 08	 push	 DWORD PTR [eax+8]
  0007a	e8 00 00 00 00	 call	 __alldiv
  0007f	8b c8		 mov	 ecx, eax
  00081	e8 00 00 00 00	 call	 __ltof3
  00086	f3 0f 59 45 08	 mulss	 xmm0, DWORD PTR _fRate$1$[ebp]
  0008b	e8 00 00 00 00	 call	 __ftol3

; 366  : 	CMail* pMail	= new CMail;

  00090	68 40 01 00 00	 push	 320			; 00000140H
  00095	8b d8		 mov	 ebx, eax
  00097	89 55 ec	 mov	 DWORD PTR _iDeposit$2$[ebp], edx
  0009a	e8 00 00 00 00	 call	 ??2@YAPAXI@Z		; operator new
  0009f	83 c4 04	 add	 esp, 4
  000a2	89 45 e0	 mov	 DWORD PTR $T2[ebp], eax
  000a5	c7 45 fc 00 00
	00 00		 mov	 DWORD PTR __$EHRec$[ebp+8], 0
  000ac	85 c0		 test	 eax, eax
  000ae	74 0b		 je	 SHORT $LN8@operator
  000b0	8b c8		 mov	 ecx, eax
  000b2	e8 00 00 00 00	 call	 ??0CMail@@QAE@XZ	; CMail::CMail
  000b7	8b f0		 mov	 esi, eax
  000b9	eb 02		 jmp	 SHORT $LN9@operator
$LN8@operator:
  000bb	33 f6		 xor	 esi, esi
$LN9@operator:
; File C:\Program Files (x86)\Windows Kits\10\Include\10.0.26100.0\ucrt\time.h

; 428  :             return _time32(_Time);

  000bd	6a 00		 push	 0
; File C:\IAGOS\server\v18\Source\Source\DatabaseServer\tlord.cpp

; 366  : 	CMail* pMail	= new CMail;

  000bf	c7 45 fc ff ff
	ff ff		 mov	 DWORD PTR __$EHRec$[ebp+8], -1
; File C:\Program Files (x86)\Windows Kits\10\Include\10.0.26100.0\ucrt\time.h

; 428  :             return _time32(_Time);

  000c6	e8 00 00 00 00	 call	 __time32
; File C:\IAGOS\server\v18\Source\Source\DatabaseServer\tlord.cpp

; 370  : 	int nOrder	= pElection->GetOrder( idReceiver );

  000cb	8b 4d e8	 mov	 ecx, DWORD PTR _pElection$1$[ebp]
; File C:\Program Files (x86)\Windows Kits\10\Include\10.0.26100.0\ucrt\time.h

; 428  :             return _time32(_Time);

  000ce	83 c4 04	 add	 esp, 4
; File C:\IAGOS\server\v18\Source\Source\DatabaseServer\tlord.cpp

; 367  : 	pMail->m_tmCreate	= ::time_null();

  000d1	89 46 14	 mov	 DWORD PTR [esi+20], eax

; 368  : 	pMail->m_idSender	= 0;	//

  000d4	c7 46 08 00 00
	00 00		 mov	 DWORD PTR [esi+8], 0

; 370  : 	int nOrder	= pElection->GetOrder( idReceiver );

  000db	ff 75 f0	 push	 DWORD PTR _idReceiver$1$[ebp]
  000de	e8 00 00 00 00	 call	 ?GetOrder@IElection@@QAEHK@Z ; IElection::GetOrder
  000e3	89 45 e0	 mov	 DWORD PTR _nOrder$1$[ebp], eax

; 371  : 
; 372  : 	if( nOrder < IElection::nMaxCandidates )

  000e6	83 f8 0a	 cmp	 eax, 10			; 0000000aH
  000e9	0f 8d 8a 00 00
	00		 jge	 $LN3@operator
; File C:\IAGOS\server\v18\Source\Source\_Common\Data.h

; 270  : 	if( dwIndex >= (DWORD)m_nMaxIndex )

  000ef	81 3d 78 00 00
	00 9c 0e 00 00	 cmp	 DWORD PTR ?prj@@3VCProject@@A+120, 3740 ; 00000e9cH
  000f9	76 15		 jbe	 SHORT $LN64@operator

; 271  : 		return NULL;
; 272  : 	return (T*) m_apOffset[ dwIndex ];

  000fb	8b 0d 68 00 00
	00		 mov	 ecx, DWORD PTR ?prj@@3VCProject@@A+104
  00101	8b 81 70 3a 00
	00		 mov	 eax, DWORD PTR [ecx+14960]
; File C:\IAGOS\server\v18\Source\Source\DatabaseServer\Project.h

; 184  : 		if( m_colorText.GetAt( dwIndex ) == NULL )

  00107	85 c0		 test	 eax, eax
  00109	74 05		 je	 SHORT $LN64@operator

; 186  : 		return m_colorText.GetAt( dwIndex )->lpszData; 

  0010b	8b 40 04	 mov	 eax, DWORD PTR [eax+4]
  0010e	eb 05		 jmp	 SHORT $LN20@operator
$LN64@operator:

; 185  : 			return "";

  00110	b8 00 00 00 00	 mov	 eax, OFFSET ??_C@_00CNPNBAHC@@
$LN20@operator:
; File C:\IAGOS\server\v18\Source\Source\DatabaseServer\tlord.cpp

; 374  : 		lstrcpy( pMail->m_szTitle, prj.GetText( TID_GAME_ELECTION_RETURN_DEPOSIT_MAIL_TITLE_02 ) );	// title

  00115	50		 push	 eax
  00116	8d 46 19	 lea	 eax, DWORD PTR [esi+25]
  00119	50		 push	 eax
  0011a	ff 15 00 00 00
	00		 call	 DWORD PTR __imp__lstrcpyA@8
; File C:\IAGOS\server\v18\Source\Source\_Common\Data.h

; 270  : 	if( dwIndex >= (DWORD)m_nMaxIndex )

  00120	81 3d 78 00 00
	00 9d 0e 00 00	 cmp	 DWORD PTR ?prj@@3VCProject@@A+120, 3741 ; 00000e9dH
; File C:\Program Files\Microsoft Visual Studio\2022\Professional\VC\Tools\MSVC\14.44.35207\include\memory

; 1773 :         return get();

  0012a	8b 17		 mov	 edx, DWORD PTR [edi]
; File C:\IAGOS\server\v18\Source\Source\_Common\Data.h

; 270  : 	if( dwIndex >= (DWORD)m_nMaxIndex )

  0012c	76 14		 jbe	 SHORT $LN65@operator

; 271  : 		return NULL;
; 272  : 	return (T*) m_apOffset[ dwIndex ];

  0012e	a1 68 00 00 00	 mov	 eax, DWORD PTR ?prj@@3VCProject@@A+104
  00133	8b 80 74 3a 00
	00		 mov	 eax, DWORD PTR [eax+14964]
; File C:\IAGOS\server\v18\Source\Source\DatabaseServer\Project.h

; 184  : 		if( m_colorText.GetAt( dwIndex ) == NULL )

  00139	85 c0		 test	 eax, eax
  0013b	74 05		 je	 SHORT $LN65@operator

; 186  : 		return m_colorText.GetAt( dwIndex )->lpszData; 

  0013d	8b 48 04	 mov	 ecx, DWORD PTR [eax+4]
  00140	eb 05		 jmp	 SHORT $LN32@operator
$LN65@operator:

; 185  : 			return "";

  00142	b9 00 00 00 00	 mov	 ecx, OFFSET ??_C@_00CNPNBAHC@@
$LN32@operator:
  00147	f3 0f 10 45 08	 movss	 xmm0, DWORD PTR _fRate$1$[ebp]
; File C:\IAGOS\server\v18\Source\Source\DatabaseServer\tlord.cpp

; 375  : 		sprintf( pMail->m_szText, prj.GetText( TID_GAME_ELECTION_RETURN_DEPOSIT_MAIL_TEXT_02 ),

  0014c	8b 7d ec	 mov	 edi, DWORD PTR _iDeposit$2$[ebp]
  0014f	8b 45 e0	 mov	 eax, DWORD PTR _nOrder$1$[ebp]
  00152	57		 push	 edi
  00153	53		 push	 ebx
  00154	83 ec 08	 sub	 esp, 8
  00157	40		 inc	 eax
  00158	0f 5a c0	 cvtps2pd xmm0, xmm0
  0015b	f2 0f 11 04 24	 movsd	 QWORD PTR [esp], xmm0
  00160	50		 push	 eax
  00161	ff 72 0c	 push	 DWORD PTR [edx+12]
  00164	8d 46 39	 lea	 eax, DWORD PTR [esi+57]
  00167	ff 72 08	 push	 DWORD PTR [edx+8]
  0016a	51		 push	 ecx
  0016b	50		 push	 eax
  0016c	e8 00 00 00 00	 call	 _sprintf
  00171	83 c4 24	 add	 esp, 36			; 00000024H

; 376  : 			static_cast<__int64>( lhs->GetDeposit() ),
; 377  : 			nOrder + 1,
; 378  : 			static_cast<float>( fRate * 100.0F ),
; 379  : 			static_cast<__int64>( iDeposit ) );
; 380  : 	}

  00174	e9 ae 00 00 00	 jmp	 $LN5@operator
$LN3@operator:
; File C:\IAGOS\server\v18\Source\Source\_Common\Data.h

; 270  : 	if( dwIndex >= (DWORD)m_nMaxIndex )

  00179	81 3d 78 00 00
	00 98 0e 00 00	 cmp	 DWORD PTR ?prj@@3VCProject@@A+120, 3736 ; 00000e98H
  00183	76 14		 jbe	 SHORT $LN66@operator

; 271  : 		return NULL;
; 272  : 	return (T*) m_apOffset[ dwIndex ];

  00185	a1 68 00 00 00	 mov	 eax, DWORD PTR ?prj@@3VCProject@@A+104
  0018a	8b 80 60 3a 00
	00		 mov	 eax, DWORD PTR [eax+14944]
; File C:\IAGOS\server\v18\Source\Source\DatabaseServer\Project.h

; 184  : 		if( m_colorText.GetAt( dwIndex ) == NULL )

  00190	85 c0		 test	 eax, eax
  00192	74 05		 je	 SHORT $LN66@operator

; 186  : 		return m_colorText.GetAt( dwIndex )->lpszData; 

  00194	8b 40 04	 mov	 eax, DWORD PTR [eax+4]
  00197	eb 05		 jmp	 SHORT $LN41@operator
$LN66@operator:

; 185  : 			return "";

  00199	b8 00 00 00 00	 mov	 eax, OFFSET ??_C@_00CNPNBAHC@@
$LN41@operator:
; File C:\IAGOS\server\v18\Source\Source\DatabaseServer\tlord.cpp

; 383  : 		lstrcpy( pMail->m_szTitle, prj.GetText( TID_GAME_ELECTION_RETURN_DEPOSIT_MAIL_TITLE_01 ) );	// title

  0019e	50		 push	 eax
  0019f	8d 46 19	 lea	 eax, DWORD PTR [esi+25]
  001a2	50		 push	 eax
  001a3	ff 15 00 00 00
	00		 call	 DWORD PTR __imp__lstrcpyA@8
; File C:\IAGOS\server\v18\Source\Source\_Common\Data.h

; 270  : 	if( dwIndex >= (DWORD)m_nMaxIndex )

  001a9	81 3d 78 00 00
	00 99 0e 00 00	 cmp	 DWORD PTR ?prj@@3VCProject@@A+120, 3737 ; 00000e99H
; File C:\Program Files\Microsoft Visual Studio\2022\Professional\VC\Tools\MSVC\14.44.35207\include\memory

; 1773 :         return get();

  001b3	8b 0f		 mov	 ecx, DWORD PTR [edi]
; File C:\IAGOS\server\v18\Source\Source\_Common\Data.h

; 270  : 	if( dwIndex >= (DWORD)m_nMaxIndex )

  001b5	76 14		 jbe	 SHORT $LN67@operator

; 271  : 		return NULL;
; 272  : 	return (T*) m_apOffset[ dwIndex ];

  001b7	a1 68 00 00 00	 mov	 eax, DWORD PTR ?prj@@3VCProject@@A+104
  001bc	8b 80 64 3a 00
	00		 mov	 eax, DWORD PTR [eax+14948]
; File C:\IAGOS\server\v18\Source\Source\DatabaseServer\Project.h

; 184  : 		if( m_colorText.GetAt( dwIndex ) == NULL )

  001c2	85 c0		 test	 eax, eax
  001c4	74 05		 je	 SHORT $LN67@operator

; 186  : 		return m_colorText.GetAt( dwIndex )->lpszData; 

  001c6	8b 40 04	 mov	 eax, DWORD PTR [eax+4]
  001c9	eb 05		 jmp	 SHORT $LN53@operator
$LN67@operator:

; 185  : 			return "";

  001cb	b8 00 00 00 00	 mov	 eax, OFFSET ??_C@_00CNPNBAHC@@
$LN53@operator:
  001d0	f3 0f 10 45 08	 movss	 xmm0, DWORD PTR _fRate$1$[ebp]
; File C:\IAGOS\server\v18\Source\Source\DatabaseServer\tlord.cpp

; 384  : 		sprintf( pMail->m_szText, prj.GetText( TID_GAME_ELECTION_RETURN_DEPOSIT_MAIL_TEXT_01 ),

  001d5	8b 7d ec	 mov	 edi, DWORD PTR _iDeposit$2$[ebp]
  001d8	57		 push	 edi
  001d9	53		 push	 ebx
  001da	0f 5a c0	 cvtps2pd xmm0, xmm0
  001dd	83 ec 08	 sub	 esp, 8
  001e0	f2 0f 11 04 24	 movsd	 QWORD PTR [esp], xmm0
  001e5	ff 71 0c	 push	 DWORD PTR [ecx+12]
  001e8	ff 71 08	 push	 DWORD PTR [ecx+8]
  001eb	50		 push	 eax
  001ec	8d 46 39	 lea	 eax, DWORD PTR [esi+57]
  001ef	50		 push	 eax
  001f0	e8 00 00 00 00	 call	 _sprintf

; 385  : 			static_cast<__int64>( lhs->GetDeposit() ),
; 386  : 			static_cast<float>( fRate * 100.0F ),
; 387  : 			static_cast<__int64>( iDeposit ) );
; 388  : 
; 389  : 		if( !m_pQuery->Execute( "uspElectionLeaveOut %d, %d, %d", g_appInfo.dwSys, pElection->GetId(), idReceiver ) )

  001f5	ff 75 f0	 push	 DWORD PTR _idReceiver$1$[ebp]
  001f8	8b 45 e8	 mov	 eax, DWORD PTR _pElection$1$[ebp]
  001fb	ff 70 08	 push	 DWORD PTR [eax+8]
  001fe	8b 45 e4	 mov	 eax, DWORD PTR _this$1$[ebp]
  00201	ff 35 00 00 00
	00		 push	 DWORD PTR ?g_appInfo@@3UAppInfo@@A
  00207	68 00 00 00 00	 push	 OFFSET ??_C@_0BP@DDPAGKOB@uspElectionLeaveOut?5?$CFd?0?5?$CFd?0?5?$CFd@
  0020c	ff 30		 push	 DWORD PTR [eax]
  0020e	e8 00 00 00 00	 call	 ?Execute@CQuery@@QAAHPBDZZ ; CQuery::Execute
  00213	83 c4 34	 add	 esp, 52			; 00000034H
  00216	85 c0		 test	 eax, eax
  00218	75 0d		 jne	 SHORT $LN5@operator

; 390  : 			Error( "couldn't execute uspElectionLeaveOut" );

  0021a	68 00 00 00 00	 push	 OFFSET ??_C@_0CF@DMMBMGJN@couldn?8t?5execute?5uspElectionLea@
  0021f	e8 00 00 00 00	 call	 ?Error@@YAPBDPBDZZ	; Error
  00224	83 c4 04	 add	 esp, 4
$LN5@operator:

; 391  : 	}
; 392  : 	
; 393  : 	// ąÝČŻ±ÝŔ» Ćä¸°°ú ĆäłÄ·Î şĐ¸®ÇĎż© Ă·şÎ
; 394  : 	int nPerin	= static_cast<int>( iDeposit / static_cast<__int64>(PERIN_VALUE ) );

  00227	6a 00		 push	 0
  00229	68 00 e1 f5 05	 push	 100000000		; 05f5e100H
  0022e	57		 push	 edi
  0022f	53		 push	 ebx
  00230	e8 00 00 00 00	 call	 __alldiv
  00235	8b f8		 mov	 edi, eax

; 395  : 	int nPenya	= static_cast<int>( iDeposit - static_cast<__int64>( PERIN_VALUE ) * static_cast<__int64>( nPerin ) );

  00237	69 cf 00 e1 f5
	05		 imul	 ecx, edi, 100000000
  0023d	2b d9		 sub	 ebx, ecx

; 396  : 
; 397  : 	pMail->m_nGold	= nPenya;

  0023f	89 5e 10	 mov	 DWORD PTR [esi+16], ebx

; 398  : 	if( nPerin > 0 )

  00242	85 ff		 test	 edi, edi
  00244	7e 5a		 jle	 SHORT $LN6@operator

; 399  : 	{
; 400  : 		pMail->m_pItemElem	= new CItemElem;

  00246	68 98 00 00 00	 push	 152			; 00000098H
  0024b	e8 00 00 00 00	 call	 ??2@YAPAXI@Z		; operator new
  00250	83 c4 04	 add	 esp, 4
  00253	89 45 08	 mov	 DWORD PTR $T3[ebp], eax
  00256	c7 45 fc 01 00
	00 00		 mov	 DWORD PTR __$EHRec$[ebp+8], 1
  0025d	85 c0		 test	 eax, eax
  0025f	74 09		 je	 SHORT $LN10@operator
  00261	8b c8		 mov	 ecx, eax
  00263	e8 00 00 00 00	 call	 ??0CItemElem@@QAE@XZ	; CItemElem::CItemElem
  00268	eb 02		 jmp	 SHORT $LN11@operator
$LN10@operator:
  0026a	33 c0		 xor	 eax, eax
$LN11@operator:
  0026c	89 46 0c	 mov	 DWORD PTR [esi+12], eax

; 401  : 		pMail->m_pItemElem->m_dwItemId	= II_SYS_SYS_SCR_PERIN;

  0026f	c7 40 08 58 67
	00 00		 mov	 DWORD PTR [eax+8], 26456 ; 00006758H

; 402  : 		pMail->m_pItemElem->m_nItemNum	= static_cast<short>( nPerin );

  00276	8b 46 0c	 mov	 eax, DWORD PTR [esi+12]
  00279	c7 45 fc ff ff
	ff ff		 mov	 DWORD PTR __$EHRec$[ebp+8], -1
  00280	66 89 78 66	 mov	 WORD PTR [eax+102], di
; File C:\IAGOS\server\v18\Source\Source\_Common\xutil.h

; 16   : 	g_next = g_next * 1103515245 + 12345;// + nRandomSeed[ i++ ];

  00284	69 0d 00 00 00
	00 6d 4e c6 41	 imul	 ecx, DWORD PTR ?g_next@@3KA, 1103515245 ; g_next
  0028e	81 c1 39 30 00
	00		 add	 ecx, 12345		; 00003039H
  00294	89 0d 00 00 00
	00		 mov	 DWORD PTR ?g_next@@3KA, ecx ; g_next
; File C:\IAGOS\server\v18\Source\Source\DatabaseServer\tlord.cpp

; 403  : 		pMail->m_pItemElem->SetSerialNumber( xRand() );

  0029a	8b 46 0c	 mov	 eax, DWORD PTR [esi+12]
  0029d	89 48 30	 mov	 DWORD PTR [eax+48], ecx
$LN6@operator:

; 404  : 	}
; 405  : 
; 406  : 	// żěĆí ąßĽŰ
; 407  : 	post::Post( idReceiver, pMail, m_pQuery );

  002a0	8b 45 e4	 mov	 eax, DWORD PTR _this$1$[ebp]
  002a3	ff 30		 push	 DWORD PTR [eax]
  002a5	56		 push	 esi
  002a6	ff 75 f0	 push	 DWORD PTR _idReceiver$1$[ebp]
  002a9	e8 00 00 00 00	 call	 ?Post@post@@YAXKPAVCMail@@PAVCQuery@@@Z ; post::Post
  002ae	83 c4 0c	 add	 esp, 12			; 0000000cH
$LN1@operator:

; 408  : }

  002b1	8b 4d f4	 mov	 ecx, DWORD PTR __$EHRec$[ebp]
  002b4	64 89 0d 00 00
	00 00		 mov	 DWORD PTR fs:0, ecx
  002bb	59		 pop	 ecx
  002bc	5f		 pop	 edi
  002bd	5e		 pop	 esi
  002be	5b		 pop	 ebx
  002bf	8b e5		 mov	 esp, ebp
  002c1	5d		 pop	 ebp
  002c2	c2 04 00	 ret	 4
_TEXT	ENDS
;	COMDAT text$x
text$x	SEGMENT
__unwindfunclet$??RPostDeposit@@QBEXABV?$shared_ptr@VCCandidate@@@std@@@Z$0:
  00000	68 40 01 00 00	 push	 320			; 00000140H
  00005	8b 45 e0	 mov	 eax, DWORD PTR $T2[ebp]
  00008	50		 push	 eax
  00009	e8 00 00 00 00	 call	 ??3@YAXPAXI@Z		; operator delete
  0000e	83 c4 08	 add	 esp, 8
  00011	c3		 ret	 0
__unwindfunclet$??RPostDeposit@@QBEXABV?$shared_ptr@VCCandidate@@@std@@@Z$1:
  00012	68 98 00 00 00	 push	 152			; 00000098H
  00017	8b 45 08	 mov	 eax, DWORD PTR $T3[ebp]
  0001a	50		 push	 eax
  0001b	e8 00 00 00 00	 call	 ??3@YAXPAXI@Z		; operator delete
  00020	83 c4 08	 add	 esp, 8
  00023	c3		 ret	 0
  00024	cc		 int	 3
  00025	cc		 int	 3
  00026	cc		 int	 3
  00027	cc		 int	 3
  00028	cc		 int	 3
__ehhandler$??RPostDeposit@@QBEXABV?$shared_ptr@VCCandidate@@@std@@@Z:
  00029	90		 npad	 1
  0002a	90		 npad	 1
  0002b	8b 54 24 08	 mov	 edx, DWORD PTR [esp+8]
  0002f	8d 42 0c	 lea	 eax, DWORD PTR [edx+12]
  00032	8b 4a dc	 mov	 ecx, DWORD PTR [edx-36]
  00035	33 c8		 xor	 ecx, eax
  00037	e8 00 00 00 00	 call	 @__security_check_cookie@4
  0003c	b8 00 00 00 00	 mov	 eax, OFFSET __ehfuncinfo$??RPostDeposit@@QBEXABV?$shared_ptr@VCCandidate@@@std@@@Z
  00041	e9 00 00 00 00	 jmp	 ___CxxFrameHandler3
text$x	ENDS
??RPostDeposit@@QBEXABV?$shared_ptr@VCCandidate@@@std@@@Z ENDP ; PostDeposit::operator()
; Function compile flags: /Ogtp
;	COMDAT ??_GCLEvent@@UAEPAXI@Z
_TEXT	SEGMENT
___flags$ = 8						; size = 4
??_GCLEvent@@UAEPAXI@Z PROC				; CLEvent::`scalar deleting destructor', COMDAT
; _this$ = ecx
  00000	55		 push	 ebp
  00001	8b ec		 mov	 ebp, esp
  00003	56		 push	 esi
  00004	8b f1		 mov	 esi, ecx
  00006	e8 00 00 00 00	 call	 ??1CLEvent@@UAE@XZ	; CLEvent::~CLEvent
  0000b	f6 45 08 01	 test	 BYTE PTR ___flags$[ebp], 1
  0000f	74 0b		 je	 SHORT $LN5@scalar
  00011	6a 2c		 push	 44			; 0000002cH
  00013	56		 push	 esi
  00014	e8 00 00 00 00	 call	 ??3@YAXPAXI@Z		; operator delete
  00019	83 c4 08	 add	 esp, 8
$LN5@scalar:
  0001c	8b c6		 mov	 eax, esi
  0001e	5e		 pop	 esi
  0001f	5d		 pop	 ebp
  00020	c2 04 00	 ret	 4
??_GCLEvent@@UAEPAXI@Z ENDP				; CLEvent::`scalar deleting destructor'
_TEXT	ENDS
; Function compile flags: /Ogtp
; File C:\IAGOS\server\v18\Source\Source\DatabaseServer\tlord.cpp
; File C:\Program Files\Microsoft Visual Studio\2022\Professional\VC\Tools\MSVC\14.44.35207\include\vector
; File C:\IAGOS\server\v18\Source\Source\DatabaseServer\tlord.cpp
; File C:\Program Files\Microsoft Visual Studio\2022\Professional\VC\Tools\MSVC\14.44.35207\include\vector
; File C:\IAGOS\server\v18\Source\Source\DatabaseServer\tlord.cpp
;	COMDAT ?DecrementAllComponentTick@CLEvent@@IAEHXZ
_TEXT	SEGMENT
?DecrementAllComponentTick@CLEvent@@IAEHXZ PROC		; CLEvent::DecrementAllComponentTick, COMDAT
; _this$ = ecx

; 591  : {	// ¸đµç ±şÁÖ ŔĚşĄĆ®ŔÇ ł˛Ŕş ˝Ă°ŁŔ» °¨ĽŇ˝ĂĹ°°í ŔúŔĺÇŃ ČÄ

  00000	53		 push	 ebx
  00001	8b d9		 mov	 ebx, ecx
  00003	56		 push	 esi
  00004	57		 push	 edi

; 592  : 	// ł˛Ŕş ˝Ă°ŁŔĚ 0ŔÎ ŔĚşĄĆ®°ˇ ŔÖ´Ů¸é TRUE¸¦ ąÝČŻÇŃ´Ů
; 593  : 	BOOL bExpired	= FALSE;

  00005	33 ff		 xor	 edi, edi
; File C:\Program Files\Microsoft Visual Studio\2022\Professional\VC\Tools\MSVC\14.44.35207\include\vector

; 46   :     _CONSTEXPR20 _Vector_const_iterator(_Tptr _Parg, const _Container_base* _Pvector) noexcept : _Ptr(_Parg) {

  00007	8b 73 1c	 mov	 esi, DWORD PTR [ebx+28]

; 176  :         return !(*this == _Right);

  0000a	3b 73 20	 cmp	 esi, DWORD PTR [ebx+32]
; File C:\IAGOS\server\v18\Source\Source\DatabaseServer\tlord.cpp

; 594  : 	for( VLEC::iterator i = m_vComponents.begin(); i != m_vComponents.end(); ++i )

  0000d	74 2b		 je	 SHORT $LN41@DecrementA
  0000f	90		 npad	 1
$LL4@DecrementA:

; 595  : 	{
; 596  : 		if( ( *i )->Decrement() == 0 )

  00010	8b 0e		 mov	 ecx, DWORD PTR [esi]
  00012	e8 00 00 00 00	 call	 ?Decrement@CLEComponent@@QAEHXZ ; CLEComponent::Decrement

; 597  : 			bExpired	= TRUE;
; 598  : 		m_pLord->GetController()->UpdateLordEventTick( *i );

  00017	8b 4b 28	 mov	 ecx, DWORD PTR [ebx+40]
  0001a	85 c0		 test	 eax, eax
  0001c	ff 36		 push	 DWORD PTR [esi]
  0001e	b8 01 00 00 00	 mov	 eax, 1
  00023	0f 44 f8	 cmove	 edi, eax
  00026	8b 01		 mov	 eax, DWORD PTR [ecx]
  00028	ff 50 08	 call	 DWORD PTR [eax+8]
  0002b	8b c8		 mov	 ecx, eax
  0002d	e8 00 00 00 00	 call	 ?UpdateLordEventTick@CLController@@QAEHPAVCLEComponent@@@Z ; CLController::UpdateLordEventTick
; File C:\Program Files\Microsoft Visual Studio\2022\Professional\VC\Tools\MSVC\14.44.35207\include\vector

; 82   :         ++_Ptr;

  00032	83 c6 04	 add	 esi, 4

; 176  :         return !(*this == _Right);

  00035	3b 73 20	 cmp	 esi, DWORD PTR [ebx+32]
; File C:\IAGOS\server\v18\Source\Source\DatabaseServer\tlord.cpp

; 594  : 	for( VLEC::iterator i = m_vComponents.begin(); i != m_vComponents.end(); ++i )

  00038	75 d6		 jne	 SHORT $LL4@DecrementA
$LN41@DecrementA:

; 599  : 	}
; 600  : 	return bExpired;
; 601  : }

  0003a	8b c7		 mov	 eax, edi
  0003c	5f		 pop	 edi
  0003d	5e		 pop	 esi
  0003e	5b		 pop	 ebx
  0003f	c3		 ret	 0
?DecrementAllComponentTick@CLEvent@@IAEHXZ ENDP		; CLEvent::DecrementAllComponentTick
_TEXT	ENDS
; Function compile flags: /Ogtp
; File C:\IAGOS\server\v18\Source\Source\DatabaseServer\tlord.cpp
;	COMDAT ?DoTestInitialize@CLEvent@@MAEHXZ
_TEXT	SEGMENT
?DoTestInitialize@CLEvent@@MAEHXZ PROC			; CLEvent::DoTestInitialize, COMDAT
; _this$ = ecx

; 614  : 	// ILordEvent::Initialize
; 615  : 	CLController* pController	= m_pLord->GetController();

  00000	8b 49 28	 mov	 ecx, DWORD PTR [ecx+40]
  00003	8b 01		 mov	 eax, DWORD PTR [ecx]
  00005	ff 50 08	 call	 DWORD PTR [eax+8]

; 616  : 	if( !pController->InitializeLEvent() )

  00008	8b c8		 mov	 ecx, eax
  0000a	e8 00 00 00 00	 call	 ?InitializeLEvent@CLController@@QAEHXZ ; CLController::InitializeLEvent
  0000f	85 c0		 test	 eax, eax
  00011	75 01		 jne	 SHORT $LN2@DoTestInit

; 620  : }

  00013	c3		 ret	 0
$LN2@DoTestInit:

; 617  : 		return FALSE;
; 618  : 	CDPTrans::GetInstance()->SendLEventInitialize();

  00014	e8 00 00 00 00	 call	 ?GetInstance@CDPTrans@@SAPAV1@XZ ; CDPTrans::GetInstance
  00019	8b c8		 mov	 ecx, eax
  0001b	e8 00 00 00 00	 call	 ?SendLEventInitialize@CDPTrans@@QAEXXZ ; CDPTrans::SendLEventInitialize

; 619  : 	return TRUE;

  00020	b8 01 00 00 00	 mov	 eax, 1

; 620  : }

  00025	c3		 ret	 0
?DoTestInitialize@CLEvent@@MAEHXZ ENDP			; CLEvent::DoTestInitialize
_TEXT	ENDS
; Function compile flags: /Ogtp
; File C:\IAGOS\server\v18\Source\Source\DatabaseServer\tlord.cpp
;	COMDAT ?DoTestAddComponent@CLEvent@@MAEHPAVCLEComponent@@@Z
_TEXT	SEGMENT
_pComponent$ = 8					; size = 4
?DoTestAddComponent@CLEvent@@MAEHPAVCLEComponent@@@Z PROC ; CLEvent::DoTestAddComponent, COMDAT
; _this$ = ecx

; 604  : {	// Ăß°ˇµČ ±şÁÖ ŔĚşĄĆ®¸¦ ŔúŔĺÇĎ°í ŔüĽŰÇŃ´Ů

  00000	55		 push	 ebp
  00001	8b ec		 mov	 ebp, esp

; 605  : 	// ILordEvent::AddComponent
; 606  : 	CLController* pController	= m_pLord->GetController();

  00003	8b 49 28	 mov	 ecx, DWORD PTR [ecx+40]
  00006	57		 push	 edi
  00007	8b 01		 mov	 eax, DWORD PTR [ecx]
  00009	ff 50 08	 call	 DWORD PTR [eax+8]

; 607  : 	BOOL bResult	= pController->AddLEComponent( pComponent );

  0000c	ff 75 08	 push	 DWORD PTR _pComponent$[ebp]
  0000f	8b c8		 mov	 ecx, eax
  00011	e8 00 00 00 00	 call	 ?AddLEComponent@CLController@@QAEHPAVCLEComponent@@@Z ; CLController::AddLEComponent
  00016	8b f8		 mov	 edi, eax

; 608  : 	CDPTrans::GetInstance()->SendLEventCreate( pComponent, bResult );

  00018	57		 push	 edi
  00019	ff 75 08	 push	 DWORD PTR _pComponent$[ebp]
  0001c	e8 00 00 00 00	 call	 ?GetInstance@CDPTrans@@SAPAV1@XZ ; CDPTrans::GetInstance
  00021	8b c8		 mov	 ecx, eax
  00023	e8 00 00 00 00	 call	 ?SendLEventCreate@CDPTrans@@QAEXPAVCLEComponent@@H@Z ; CDPTrans::SendLEventCreate

; 609  : 	return bResult;

  00028	8b c7		 mov	 eax, edi
  0002a	5f		 pop	 edi

; 610  : }

  0002b	5d		 pop	 ebp
  0002c	c2 04 00	 ret	 4
?DoTestAddComponent@CLEvent@@MAEHPAVCLEComponent@@@Z ENDP ; CLEvent::DoTestAddComponent
_TEXT	ENDS
; Function compile flags: /Ogtp
; File C:\IAGOS\server\v18\Source\Source\DatabaseServer\tlord.cpp
;	COMDAT ?OnTimer@CLEvent@@QAEXXZ
_TEXT	SEGMENT
?OnTimer@CLEvent@@QAEXXZ PROC				; CLEvent::OnTimer, COMDAT
; _this$ = ecx

; 581  : {	// Ć˝

  00000	56		 push	 esi
  00001	57		 push	 edi
  00002	8b f9		 mov	 edi, ecx

; 582  : 	// ¸đµç ±şÁÖ ŔĚşĄĆ®ŔÇ ˝Ă°ŁŔ» °¨ĽŇ˝ĂĹ˛´Ů
; 583  : 	BOOL bExpired	= DecrementAllComponentTick();

  00004	e8 00 00 00 00	 call	 ?DecrementAllComponentTick@CLEvent@@IAEHXZ ; CLEvent::DecrementAllComponentTick

; 584  : 	CDPTrans::GetInstance()->SendLEventTick( this );

  00009	57		 push	 edi
  0000a	8b f0		 mov	 esi, eax
  0000c	e8 00 00 00 00	 call	 ?GetInstance@CDPTrans@@SAPAV1@XZ ; CDPTrans::GetInstance
  00011	8b c8		 mov	 ecx, eax
  00013	e8 00 00 00 00	 call	 ?SendLEventTick@CDPTrans@@QAEXPAVILordEvent@@@Z ; CDPTrans::SendLEventTick

; 585  : 	// ˝Ă°Ł ¸¸·áµČ ŔĚşĄĆ®°ˇ ŔÖ´Ů¸é Á¦°ĹÇŃ´Ů
; 586  : 	if( bExpired )	

  00018	85 f6		 test	 esi, esi
  0001a	74 09		 je	 SHORT $LN2@OnTimer

; 587  : 		EraseExpiredComponents();

  0001c	8b cf		 mov	 ecx, edi
  0001e	5f		 pop	 edi

; 588  : }

  0001f	5e		 pop	 esi

; 587  : 		EraseExpiredComponents();

  00020	e9 00 00 00 00	 jmp	 ?EraseExpiredComponents@ILordEvent@@QAEXXZ ; ILordEvent::EraseExpiredComponents
$LN2@OnTimer:
  00025	5f		 pop	 edi

; 588  : }

  00026	5e		 pop	 esi
  00027	c3		 ret	 0
?OnTimer@CLEvent@@QAEXXZ ENDP				; CLEvent::OnTimer
_TEXT	ENDS
; Function compile flags: /Ogtp
; File C:\IAGOS\server\v18\Source\Source\DatabaseServer\tlord.cpp
;	COMDAT ?Restore@CLEvent@@QAEHPAVCQuery@@@Z
_TEXT	SEGMENT
$T2 = -24						; size = 4
_idPlayer$1$ = -20					; size = 4
_fEFactor$3 = -16					; size = 4
__$EHRec$ = -12						; size = 12
_pQuery$ = 8						; size = 4
_fIFactor$4 = 8						; size = 4
?Restore@CLEvent@@QAEHPAVCQuery@@@Z PROC		; CLEvent::Restore, COMDAT
; _this$ = ecx

; 565  : {	// µĄŔĚĹÍşŁŔĚ˝ş·ÎşÎĹÍ şążř

  00000	55		 push	 ebp
  00001	8b ec		 mov	 ebp, esp
  00003	6a ff		 push	 -1
  00005	68 00 00 00 00	 push	 __ehhandler$?Restore@CLEvent@@QAEHPAVCQuery@@@Z
  0000a	64 a1 00 00 00
	00		 mov	 eax, DWORD PTR fs:0
  00010	50		 push	 eax
  00011	83 ec 0c	 sub	 esp, 12			; 0000000cH
  00014	53		 push	 ebx
  00015	56		 push	 esi
  00016	57		 push	 edi
  00017	a1 00 00 00 00	 mov	 eax, DWORD PTR ___security_cookie
  0001c	33 c5		 xor	 eax, ebp
  0001e	50		 push	 eax
  0001f	8d 45 f4	 lea	 eax, DWORD PTR __$EHRec$[ebp]
  00022	64 a3 00 00 00
	00		 mov	 DWORD PTR fs:0, eax
  00028	8b f9		 mov	 edi, ecx

; 566  : 	if( !pQuery->Execute( "uspRestoreLEvent %d", g_appInfo.dwSys ) )

  0002a	ff 35 00 00 00
	00		 push	 DWORD PTR ?g_appInfo@@3UAppInfo@@A
  00030	8b 75 08	 mov	 esi, DWORD PTR _pQuery$[ebp]
  00033	68 00 00 00 00	 push	 OFFSET ??_C@_0BE@PNIJDBCM@uspRestoreLEvent?5?$CFd@
  00038	56		 push	 esi
  00039	e8 00 00 00 00	 call	 ?Execute@CQuery@@QAAHPBDZZ ; CQuery::Execute
  0003e	83 c4 0c	 add	 esp, 12			; 0000000cH
  00041	85 c0		 test	 eax, eax
  00043	75 14		 jne	 SHORT $LN9@Restore

; 578  : }

  00045	8b 4d f4	 mov	 ecx, DWORD PTR __$EHRec$[ebp]
  00048	64 89 0d 00 00
	00 00		 mov	 DWORD PTR fs:0, ecx
  0004f	59		 pop	 ecx
  00050	5f		 pop	 edi
  00051	5e		 pop	 esi
  00052	5b		 pop	 ebx
  00053	8b e5		 mov	 esp, ebp
  00055	5d		 pop	 ebp
  00056	c2 04 00	 ret	 4
$LN9@Restore:

; 567  : 		return FALSE;
; 568  : 	while( pQuery->Fetch() )

  00059	8b ce		 mov	 ecx, esi
  0005b	e8 00 00 00 00	 call	 ?Fetch@CQuery@@QAEHXZ	; CQuery::Fetch
  00060	85 c0		 test	 eax, eax
  00062	0f 84 a2 00 00
	00		 je	 $LN3@Restore
  00068	0f 1f 84 00 00
	00 00 00	 npad	 8
$LL2@Restore:

; 569  : 	{
; 570  : 		int nTick	= pQuery->GetInt( "nTick" );

  00070	68 00 00 00 00	 push	 OFFSET ??_C@_05DLOGCGOB@nTick@
  00075	8b ce		 mov	 ecx, esi
  00077	e8 00 00 00 00	 call	 ?GetInt@CQuery@@QAEHPAD@Z ; CQuery::GetInt

; 571  : 		u_long idPlayer		= pQuery->GetInt( "idPlayer" );

  0007c	68 00 00 00 00	 push	 OFFSET ??_C@_08EPHCN@idPlayer@
  00081	8b ce		 mov	 ecx, esi
  00083	8b d8		 mov	 ebx, eax
  00085	e8 00 00 00 00	 call	 ?GetInt@CQuery@@QAEHPAD@Z ; CQuery::GetInt

; 572  : 		float fEFactor	= pQuery->GetFloat( "fEFactor" );

  0008a	68 00 00 00 00	 push	 OFFSET ??_C@_08NHMMOOHF@fEFactor@
  0008f	8b ce		 mov	 ecx, esi
  00091	89 45 ec	 mov	 DWORD PTR _idPlayer$1$[ebp], eax
  00094	e8 00 00 00 00	 call	 ?GetFloat@CQuery@@QAEMPAD@Z ; CQuery::GetFloat
  00099	d9 5d f0	 fstp	 DWORD PTR _fEFactor$3[ebp]

; 573  : 		float fIFactor	= pQuery->GetFloat( "fIFactor" );

  0009c	68 00 00 00 00	 push	 OFFSET ??_C@_08IAGDPLDK@fIFactor@
  000a1	8b ce		 mov	 ecx, esi
  000a3	e8 00 00 00 00	 call	 ?GetFloat@CQuery@@QAEMPAD@Z ; CQuery::GetFloat

; 574  : 		CLEComponent* pComponent	= new CLEComponent( nTick, idPlayer, fEFactor, fIFactor );

  000a8	6a 14		 push	 20			; 00000014H
  000aa	d9 5d 08	 fstp	 DWORD PTR _fIFactor$4[ebp]
  000ad	e8 00 00 00 00	 call	 ??2@YAPAXI@Z		; operator new
  000b2	83 c4 04	 add	 esp, 4
  000b5	89 45 e8	 mov	 DWORD PTR $T2[ebp], eax
  000b8	c7 45 fc 00 00
	00 00		 mov	 DWORD PTR __$EHRec$[ebp+8], 0
  000bf	85 c0		 test	 eax, eax
  000c1	74 25		 je	 SHORT $LN6@Restore
  000c3	f3 0f 10 45 08	 movss	 xmm0, DWORD PTR _fIFactor$4[ebp]
  000c8	83 ec 08	 sub	 esp, 8
  000cb	8b c8		 mov	 ecx, eax
  000cd	f3 0f 11 44 24
	04		 movss	 DWORD PTR [esp+4], xmm0
  000d3	f3 0f 10 45 f0	 movss	 xmm0, DWORD PTR _fEFactor$3[ebp]
  000d8	f3 0f 11 04 24	 movss	 DWORD PTR [esp], xmm0
  000dd	ff 75 ec	 push	 DWORD PTR _idPlayer$1$[ebp]
  000e0	53		 push	 ebx
  000e1	e8 00 00 00 00	 call	 ??0CLEComponent@@QAE@HKMM@Z ; CLEComponent::CLEComponent
  000e6	eb 02		 jmp	 SHORT $LN7@Restore
$LN6@Restore:
  000e8	33 c0		 xor	 eax, eax
$LN7@Restore:

; 575  : 		AddComponent( pComponent, FALSE );

  000ea	6a 00		 push	 0
  000ec	50		 push	 eax
  000ed	8b cf		 mov	 ecx, edi
  000ef	c7 45 fc ff ff
	ff ff		 mov	 DWORD PTR __$EHRec$[ebp+8], -1
  000f6	e8 00 00 00 00	 call	 ?AddComponent@ILordEvent@@QAEXPAVCLEComponent@@H@Z ; ILordEvent::AddComponent
  000fb	8b ce		 mov	 ecx, esi
  000fd	e8 00 00 00 00	 call	 ?Fetch@CQuery@@QAEHXZ	; CQuery::Fetch
  00102	85 c0		 test	 eax, eax
  00104	0f 85 66 ff ff
	ff		 jne	 $LL2@Restore
$LN3@Restore:

; 576  : 	}
; 577  : 	return TRUE;

  0010a	b8 01 00 00 00	 mov	 eax, 1

; 578  : }

  0010f	8b 4d f4	 mov	 ecx, DWORD PTR __$EHRec$[ebp]
  00112	64 89 0d 00 00
	00 00		 mov	 DWORD PTR fs:0, ecx
  00119	59		 pop	 ecx
  0011a	5f		 pop	 edi
  0011b	5e		 pop	 esi
  0011c	5b		 pop	 ebx
  0011d	8b e5		 mov	 esp, ebp
  0011f	5d		 pop	 ebp
  00120	c2 04 00	 ret	 4
_TEXT	ENDS
;	COMDAT text$x
text$x	SEGMENT
__unwindfunclet$?Restore@CLEvent@@QAEHPAVCQuery@@@Z$0:
  00000	6a 14		 push	 20			; 00000014H
  00002	8b 45 e8	 mov	 eax, DWORD PTR $T2[ebp]
  00005	50		 push	 eax
  00006	e8 00 00 00 00	 call	 ??3@YAXPAXI@Z		; operator delete
  0000b	83 c4 08	 add	 esp, 8
  0000e	c3		 ret	 0
  0000f	cc		 int	 3
  00010	cc		 int	 3
  00011	cc		 int	 3
  00012	cc		 int	 3
  00013	cc		 int	 3
__ehhandler$?Restore@CLEvent@@QAEHPAVCQuery@@@Z:
  00014	90		 npad	 1
  00015	90		 npad	 1
  00016	8b 54 24 08	 mov	 edx, DWORD PTR [esp+8]
  0001a	8d 42 0c	 lea	 eax, DWORD PTR [edx+12]
  0001d	8b 4a e4	 mov	 ecx, DWORD PTR [edx-28]
  00020	33 c8		 xor	 ecx, eax
  00022	e8 00 00 00 00	 call	 @__security_check_cookie@4
  00027	b8 00 00 00 00	 mov	 eax, OFFSET __ehfuncinfo$?Restore@CLEvent@@QAEHPAVCQuery@@@Z
  0002c	e9 00 00 00 00	 jmp	 ___CxxFrameHandler3
text$x	ENDS
?Restore@CLEvent@@QAEHPAVCQuery@@@Z ENDP		; CLEvent::Restore
; Function compile flags: /Ogtp
; File C:\IAGOS\server\v18\Source\Source\DatabaseServer\tlord.cpp
;	COMDAT ??1CLEvent@@UAE@XZ
_TEXT	SEGMENT
??1CLEvent@@UAE@XZ PROC					; CLEvent::~CLEvent, COMDAT
; _this$ = ecx

; 561  : {

  00000	c7 01 00 00 00
	00		 mov	 DWORD PTR [ecx], OFFSET ??_7CLEvent@@6B@

; 562  : }

  00006	e9 00 00 00 00	 jmp	 ??1ILordEvent@@UAE@XZ	; ILordEvent::~ILordEvent
??1CLEvent@@UAE@XZ ENDP					; CLEvent::~CLEvent
_TEXT	ENDS
; Function compile flags: /Ogtp
; File C:\IAGOS\server\v18\Source\Source\DatabaseServer\tlord.cpp
;	COMDAT ??0CLEvent@@QAE@PAVCLord@@@Z
_TEXT	SEGMENT
_this$ = -4						; size = 4
_pLord$ = 8						; size = 4
??0CLEvent@@QAE@PAVCLord@@@Z PROC			; CLEvent::CLEvent, COMDAT
; _this$ = ecx

; 557  : {

  00000	55		 push	 ebp
  00001	8b ec		 mov	 ebp, esp
  00003	51		 push	 ecx
  00004	56		 push	 esi
  00005	ff 75 08	 push	 DWORD PTR _pLord$[ebp]
  00008	8b f1		 mov	 esi, ecx
  0000a	89 75 fc	 mov	 DWORD PTR _this$[ebp], esi
  0000d	e8 00 00 00 00	 call	 ??0ILordEvent@@IAE@PAVCLord@@@Z ; ILordEvent::ILordEvent
  00012	c7 06 00 00 00
	00		 mov	 DWORD PTR [esi], OFFSET ??_7CLEvent@@6B@

; 558  : }

  00018	8b c6		 mov	 eax, esi
  0001a	5e		 pop	 esi
  0001b	8b e5		 mov	 esp, ebp
  0001d	5d		 pop	 ebp
  0001e	c2 04 00	 ret	 4
??0CLEvent@@QAE@PAVCLord@@@Z ENDP			; CLEvent::CLEvent
_TEXT	ENDS
; Function compile flags: /Ogtp
;	COMDAT ??_GCTLordSkill@@UAEPAXI@Z
_TEXT	SEGMENT
___flags$ = 8						; size = 4
??_GCTLordSkill@@UAEPAXI@Z PROC				; CTLordSkill::`scalar deleting destructor', COMDAT
; _this$ = ecx
  00000	55		 push	 ebp
  00001	8b ec		 mov	 ebp, esp
  00003	56		 push	 esi
  00004	8b f1		 mov	 esi, ecx
  00006	e8 00 00 00 00	 call	 ??1CTLordSkill@@UAE@XZ	; CTLordSkill::~CTLordSkill
  0000b	f6 45 08 01	 test	 BYTE PTR ___flags$[ebp], 1
  0000f	74 0b		 je	 SHORT $LN5@scalar
  00011	6a 14		 push	 20			; 00000014H
  00013	56		 push	 esi
  00014	e8 00 00 00 00	 call	 ??3@YAXPAXI@Z		; operator delete
  00019	83 c4 08	 add	 esp, 8
$LN5@scalar:
  0001c	8b c6		 mov	 eax, esi
  0001e	5e		 pop	 esi
  0001f	5d		 pop	 ebp
  00020	c2 04 00	 ret	 4
??_GCTLordSkill@@UAEPAXI@Z ENDP				; CTLordSkill::`scalar deleting destructor'
_TEXT	ENDS
; Function compile flags: /Ogtp
; File C:\IAGOS\server\v18\Source\Source\DatabaseServer\tlord.cpp
; File C:\Program Files\Microsoft Visual Studio\2022\Professional\VC\Tools\MSVC\14.44.35207\include\vector
; File C:\IAGOS\server\v18\Source\Source\DatabaseServer\tlord.cpp
; File C:\Program Files\Microsoft Visual Studio\2022\Professional\VC\Tools\MSVC\14.44.35207\include\vector
; File C:\IAGOS\server\v18\Source\Source\DatabaseServer\tlord.cpp
; File C:\Program Files\Microsoft Visual Studio\2022\Professional\VC\Tools\MSVC\14.44.35207\include\vector
; File C:\IAGOS\server\v18\Source\Source\DatabaseServer\tlord.cpp
;	COMDAT ?OnTimer@CTLordSkill@@QAEXXZ
_TEXT	SEGMENT
?OnTimer@CTLordSkill@@QAEXXZ PROC			; CTLordSkill::OnTimer, COMDAT
; _this$ = ecx

; 774  : {	// Ć˝

  00000	53		 push	 ebx
  00001	56		 push	 esi
  00002	57		 push	 edi
  00003	8b f9		 mov	 edi, ecx

; 775  : 	CLController* pController	= m_pLord->GetController();

  00005	8b 4f 04	 mov	 ecx, DWORD PTR [edi+4]
  00008	8b 01		 mov	 eax, DWORD PTR [ecx]
  0000a	ff 50 08	 call	 DWORD PTR [eax+8]
; File C:\Program Files\Microsoft Visual Studio\2022\Professional\VC\Tools\MSVC\14.44.35207\include\vector

; 46   :     _CONSTEXPR20 _Vector_const_iterator(_Tptr _Parg, const _Container_base* _Pvector) noexcept : _Ptr(_Parg) {

  0000d	8b 77 08	 mov	 esi, DWORD PTR [edi+8]
; File C:\IAGOS\server\v18\Source\Source\DatabaseServer\tlord.cpp

; 775  : 	CLController* pController	= m_pLord->GetController();

  00010	8b d8		 mov	 ebx, eax
; File C:\Program Files\Microsoft Visual Studio\2022\Professional\VC\Tools\MSVC\14.44.35207\include\vector

; 176  :         return !(*this == _Right);

  00012	3b 77 0c	 cmp	 esi, DWORD PTR [edi+12]
; File C:\IAGOS\server\v18\Source\Source\DatabaseServer\tlord.cpp

; 776  : 	for( VLSC::iterator i = m_vComponents.begin(); i != m_vComponents.end(); ++i )

  00015	74 1e		 je	 SHORT $LN3@OnTimer
$LL4@OnTimer:

; 777  : 	{
; 778  : 		CLordSkillComponentExecutable* pSkill	= *i ;

  00017	8b 06		 mov	 eax, DWORD PTR [esi]

; 779  : 		if( pSkill->GetTick() > 0 )

  00019	8b 48 0c	 mov	 ecx, DWORD PTR [eax+12]
  0001c	85 c9		 test	 ecx, ecx
  0001e	7e 0d		 jle	 SHORT $LN2@OnTimer

; 780  : 		{
; 781  : 			// Ŕç»çżë ´ë±â ˝Ă°ŁŔ» °¨ĽŇ˝ĂĹ˛´Ů
; 782  : 			pSkill->SetTick( pSkill->GetTick() - 1 );

  00020	49		 dec	 ecx

; 783  : 			// ŔúŔĺ
; 784  : 			pController->UpdateLordSkillTick( pSkill, pSkill->GetTick() );

  00021	51		 push	 ecx
  00022	89 48 0c	 mov	 DWORD PTR [eax+12], ecx
  00025	8b cb		 mov	 ecx, ebx
  00027	50		 push	 eax
  00028	e8 00 00 00 00	 call	 ?UpdateLordSkillTick@CLController@@QAEHPAVCLordSkillComponent@@H@Z ; CLController::UpdateLordSkillTick
$LN2@OnTimer:
; File C:\Program Files\Microsoft Visual Studio\2022\Professional\VC\Tools\MSVC\14.44.35207\include\vector

; 82   :         ++_Ptr;

  0002d	83 c6 04	 add	 esi, 4

; 176  :         return !(*this == _Right);

  00030	3b 77 0c	 cmp	 esi, DWORD PTR [edi+12]
; File C:\IAGOS\server\v18\Source\Source\DatabaseServer\tlord.cpp

; 776  : 	for( VLSC::iterator i = m_vComponents.begin(); i != m_vComponents.end(); ++i )

  00033	75 e2		 jne	 SHORT $LL4@OnTimer
$LN3@OnTimer:

; 785  : 		}
; 786  : 	}
; 787  : 	CDPTrans::GetInstance()->SendLordSkillTick( this );

  00035	57		 push	 edi
  00036	e8 00 00 00 00	 call	 ?GetInstance@CDPTrans@@SAPAV1@XZ ; CDPTrans::GetInstance
  0003b	8b c8		 mov	 ecx, eax
  0003d	e8 00 00 00 00	 call	 ?SendLordSkillTick@CDPTrans@@QAEXPAVCLordSkill@@@Z ; CDPTrans::SendLordSkillTick
  00042	5f		 pop	 edi
  00043	5e		 pop	 esi
  00044	5b		 pop	 ebx

; 788  : }

  00045	c3		 ret	 0
?OnTimer@CTLordSkill@@QAEXXZ ENDP			; CTLordSkill::OnTimer
_TEXT	ENDS
; Function compile flags: /Ogtp
; File C:\IAGOS\server\v18\Source\Source\DatabaseServer\tlord.cpp
; File C:\IAGOS\server\v18\Source\Source\_Common\lordskill.h
; File C:\IAGOS\server\v18\Source\Source\DatabaseServer\tlord.cpp
;	COMDAT ?Restore@CTLordSkill@@QAEHPAVCQuery@@@Z
_TEXT	SEGMENT
_pQuery$ = 8						; size = 4
?Restore@CTLordSkill@@QAEHPAVCQuery@@@Z PROC		; CTLordSkill::Restore, COMDAT
; _this$ = ecx

; 762  : {	// µĄŔĚĹÍşŁŔĚ˝ş·ÎşÎĹÍ ±şÁÖ ˝şĹł şążř

  00000	55		 push	 ebp
  00001	8b ec		 mov	 ebp, esp
  00003	53		 push	 ebx
  00004	57		 push	 edi

; 763  : 	if( !pQuery->Execute( "uspRestoreLordSkill %d", g_appInfo.dwSys ) )

  00005	ff 35 00 00 00
	00		 push	 DWORD PTR ?g_appInfo@@3UAppInfo@@A
  0000b	8b 7d 08	 mov	 edi, DWORD PTR _pQuery$[ebp]
  0000e	8b d9		 mov	 ebx, ecx
  00010	68 00 00 00 00	 push	 OFFSET ??_C@_0BH@OCAHAJDB@uspRestoreLordSkill?5?$CFd@
  00015	57		 push	 edi
  00016	e8 00 00 00 00	 call	 ?Execute@CQuery@@QAAHPBDZZ ; CQuery::Execute
  0001b	83 c4 0c	 add	 esp, 12			; 0000000cH
  0001e	85 c0		 test	 eax, eax
  00020	75 06		 jne	 SHORT $LN8@Restore

; 771  : }

  00022	5f		 pop	 edi
  00023	5b		 pop	 ebx
  00024	5d		 pop	 ebp
  00025	c2 04 00	 ret	 4
$LN8@Restore:

; 765  : 	while( pQuery->Fetch() )

  00028	8b cf		 mov	 ecx, edi
  0002a	e8 00 00 00 00	 call	 ?Fetch@CQuery@@QAEHXZ	; CQuery::Fetch
  0002f	85 c0		 test	 eax, eax
  00031	74 32		 je	 SHORT $LN3@Restore
  00033	56		 push	 esi
$LL2@Restore:

; 766  : 	{
; 767  : 			CLordSkillComponent* pComponent	= GetSkill( pQuery->GetInt( "nSkill" ) );

  00034	68 00 00 00 00	 push	 OFFSET ??_C@_06BDEJIFFK@nSkill@
  00039	8b cf		 mov	 ecx, edi
  0003b	e8 00 00 00 00	 call	 ?GetInt@CQuery@@QAEHPAD@Z ; CQuery::GetInt
  00040	50		 push	 eax
  00041	8b cb		 mov	 ecx, ebx
  00043	e8 00 00 00 00	 call	 ?GetSkill@CLordSkill@@QAEPAVCLordSkillComponentExecutable@@H@Z ; CLordSkill::GetSkill

; 768  : 			pComponent->SetTick( pQuery->GetInt( "nTick" ) );

  00048	68 00 00 00 00	 push	 OFFSET ??_C@_05DLOGCGOB@nTick@
  0004d	8b cf		 mov	 ecx, edi
  0004f	8b f0		 mov	 esi, eax
  00051	e8 00 00 00 00	 call	 ?GetInt@CQuery@@QAEHPAD@Z ; CQuery::GetInt
  00056	8b cf		 mov	 ecx, edi
; File C:\IAGOS\server\v18\Source\Source\_Common\lordskill.h

; 31   : 	void	SetTick( int nTick )	{	m_nTick		= nTick;	}

  00058	89 46 0c	 mov	 DWORD PTR [esi+12], eax
; File C:\IAGOS\server\v18\Source\Source\DatabaseServer\tlord.cpp

; 765  : 	while( pQuery->Fetch() )

  0005b	e8 00 00 00 00	 call	 ?Fetch@CQuery@@QAEHXZ	; CQuery::Fetch
  00060	85 c0		 test	 eax, eax
  00062	75 d0		 jne	 SHORT $LL2@Restore
  00064	5e		 pop	 esi
$LN3@Restore:
  00065	5f		 pop	 edi

; 769  : 	}
; 770  : 	return TRUE;

  00066	b8 01 00 00 00	 mov	 eax, 1

; 771  : }

  0006b	5b		 pop	 ebx
  0006c	5d		 pop	 ebp
  0006d	c2 04 00	 ret	 4
?Restore@CTLordSkill@@QAEHPAVCQuery@@@Z ENDP		; CTLordSkill::Restore
_TEXT	ENDS
; Function compile flags: /Ogtp
; File C:\IAGOS\server\v18\Source\Source\DatabaseServer\tlord.cpp
;	COMDAT ?CreateSkillComponent@CTLordSkill@@UAEPAVCLordSkillComponentExecutable@@H@Z
_TEXT	SEGMENT
$T2 = -16						; size = 4
__$EHRec$ = -12						; size = 12
_nType$ = 8						; size = 4
?CreateSkillComponent@CTLordSkill@@UAEPAVCLordSkillComponentExecutable@@H@Z PROC ; CTLordSkill::CreateSkillComponent, COMDAT
; _this$ = ecx

; 756  : {	// Ć®·Ł˝ş Ľ­ąöżˇĽ­ŔÇ ¸đµç ±şÁÖ ˝şĹłŔş

  00000	55		 push	 ebp
  00001	8b ec		 mov	 ebp, esp
  00003	6a ff		 push	 -1
  00005	68 00 00 00 00	 push	 __ehhandler$?CreateSkillComponent@CTLordSkill@@UAEPAVCLordSkillComponentExecutable@@H@Z
  0000a	64 a1 00 00 00
	00		 mov	 eax, DWORD PTR fs:0
  00010	50		 push	 eax
  00011	51		 push	 ecx
  00012	a1 00 00 00 00	 mov	 eax, DWORD PTR ___security_cookie
  00017	33 c5		 xor	 eax, ebp
  00019	50		 push	 eax
  0001a	8d 45 f4	 lea	 eax, DWORD PTR __$EHRec$[ebp]
  0001d	64 a3 00 00 00
	00		 mov	 DWORD PTR fs:0, eax

; 757  : 	// CLordSkillComponentODBC
; 758  : 	return new CLordSkillComponentODBC;

  00023	68 fc 00 00 00	 push	 252			; 000000fcH
  00028	e8 00 00 00 00	 call	 ??2@YAPAXI@Z		; operator new
  0002d	83 c4 04	 add	 esp, 4
  00030	89 45 f0	 mov	 DWORD PTR $T2[ebp], eax
  00033	c7 45 fc 00 00
	00 00		 mov	 DWORD PTR __$EHRec$[ebp+8], 0
  0003a	85 c0		 test	 eax, eax
  0003c	74 18		 je	 SHORT $LN3@CreateSkil
  0003e	8b c8		 mov	 ecx, eax
  00040	e8 00 00 00 00	 call	 ??0CLordSkillComponentODBC@@QAE@XZ ; CLordSkillComponentODBC::CLordSkillComponentODBC

; 759  : }

  00045	8b 4d f4	 mov	 ecx, DWORD PTR __$EHRec$[ebp]
  00048	64 89 0d 00 00
	00 00		 mov	 DWORD PTR fs:0, ecx
  0004f	59		 pop	 ecx
  00050	8b e5		 mov	 esp, ebp
  00052	5d		 pop	 ebp
  00053	c2 04 00	 ret	 4
$LN3@CreateSkil:

; 757  : 	// CLordSkillComponentODBC
; 758  : 	return new CLordSkillComponentODBC;

  00056	33 c0		 xor	 eax, eax

; 759  : }

  00058	8b 4d f4	 mov	 ecx, DWORD PTR __$EHRec$[ebp]
  0005b	64 89 0d 00 00
	00 00		 mov	 DWORD PTR fs:0, ecx
  00062	59		 pop	 ecx
  00063	8b e5		 mov	 esp, ebp
  00065	5d		 pop	 ebp
  00066	c2 04 00	 ret	 4
_TEXT	ENDS
;	COMDAT text$x
text$x	SEGMENT
__unwindfunclet$?CreateSkillComponent@CTLordSkill@@UAEPAVCLordSkillComponentExecutable@@H@Z$0:
  00000	68 fc 00 00 00	 push	 252			; 000000fcH
  00005	8b 45 f0	 mov	 eax, DWORD PTR $T2[ebp]
  00008	50		 push	 eax
  00009	e8 00 00 00 00	 call	 ??3@YAXPAXI@Z		; operator delete
  0000e	83 c4 08	 add	 esp, 8
  00011	c3		 ret	 0
  00012	cc		 int	 3
  00013	cc		 int	 3
  00014	cc		 int	 3
  00015	cc		 int	 3
  00016	cc		 int	 3
__ehhandler$?CreateSkillComponent@CTLordSkill@@UAEPAVCLordSkillComponentExecutable@@H@Z:
  00017	90		 npad	 1
  00018	90		 npad	 1
  00019	8b 54 24 08	 mov	 edx, DWORD PTR [esp+8]
  0001d	8d 42 0c	 lea	 eax, DWORD PTR [edx+12]
  00020	8b 4a f8	 mov	 ecx, DWORD PTR [edx-8]
  00023	33 c8		 xor	 ecx, eax
  00025	e8 00 00 00 00	 call	 @__security_check_cookie@4
  0002a	b8 00 00 00 00	 mov	 eax, OFFSET __ehfuncinfo$?CreateSkillComponent@CTLordSkill@@UAEPAVCLordSkillComponentExecutable@@H@Z
  0002f	e9 00 00 00 00	 jmp	 ___CxxFrameHandler3
text$x	ENDS
?CreateSkillComponent@CTLordSkill@@UAEPAVCLordSkillComponentExecutable@@H@Z ENDP ; CTLordSkill::CreateSkillComponent
; Function compile flags: /Ogtp
; File C:\IAGOS\server\v18\Source\Source\DatabaseServer\tlord.cpp
;	COMDAT ??1CTLordSkill@@UAE@XZ
_TEXT	SEGMENT
??1CTLordSkill@@UAE@XZ PROC				; CTLordSkill::~CTLordSkill, COMDAT
; _this$ = ecx

; 752  : {

  00000	c7 01 00 00 00
	00		 mov	 DWORD PTR [ecx], OFFSET ??_7CTLordSkill@@6B@

; 753  : }

  00006	e9 00 00 00 00	 jmp	 ??1CLordSkill@@UAE@XZ	; CLordSkill::~CLordSkill
??1CTLordSkill@@UAE@XZ ENDP				; CTLordSkill::~CTLordSkill
_TEXT	ENDS
; Function compile flags: /Ogtp
; File C:\IAGOS\server\v18\Source\Source\DatabaseServer\tlord.cpp
;	COMDAT ??0CTLordSkill@@QAE@PAVCLord@@@Z
_TEXT	SEGMENT
_this$ = -4						; size = 4
_pLord$ = 8						; size = 4
??0CTLordSkill@@QAE@PAVCLord@@@Z PROC			; CTLordSkill::CTLordSkill, COMDAT
; _this$ = ecx

; 748  : {

  00000	55		 push	 ebp
  00001	8b ec		 mov	 ebp, esp
  00003	51		 push	 ecx
  00004	56		 push	 esi
  00005	ff 75 08	 push	 DWORD PTR _pLord$[ebp]
  00008	8b f1		 mov	 esi, ecx
  0000a	89 75 fc	 mov	 DWORD PTR _this$[ebp], esi
  0000d	e8 00 00 00 00	 call	 ??0CLordSkill@@QAE@PAVCLord@@@Z ; CLordSkill::CLordSkill
  00012	c7 06 00 00 00
	00		 mov	 DWORD PTR [esi], OFFSET ??_7CTLordSkill@@6B@

; 749  : }

  00018	8b c6		 mov	 eax, esi
  0001a	5e		 pop	 esi
  0001b	8b e5		 mov	 esp, ebp
  0001d	5d		 pop	 ebp
  0001e	c2 04 00	 ret	 4
??0CTLordSkill@@QAE@PAVCLord@@@Z ENDP			; CTLordSkill::CTLordSkill
_TEXT	ENDS
; Function compile flags: /Ogtp
;	COMDAT ??_GCTElection@@UAEPAXI@Z
_TEXT	SEGMENT
___flags$ = 8						; size = 4
??_GCTElection@@UAEPAXI@Z PROC				; CTElection::`scalar deleting destructor', COMDAT
; _this$ = ecx
  00000	55		 push	 ebp
  00001	8b ec		 mov	 ebp, esp
  00003	56		 push	 esi
  00004	8b f1		 mov	 esi, ecx
  00006	e8 00 00 00 00	 call	 ??1CTElection@@UAE@XZ	; CTElection::~CTElection
  0000b	f6 45 08 01	 test	 BYTE PTR ___flags$[ebp], 1
  0000f	74 0b		 je	 SHORT $LN5@scalar
  00011	6a 64		 push	 100			; 00000064H
  00013	56		 push	 esi
  00014	e8 00 00 00 00	 call	 ??3@YAXPAXI@Z		; operator delete
  00019	83 c4 08	 add	 esp, 8
$LN5@scalar:
  0001c	8b c6		 mov	 eax, esi
  0001e	5e		 pop	 esi
  0001f	5d		 pop	 ebp
  00020	c2 04 00	 ret	 4
??_GCTElection@@UAEPAXI@Z ENDP				; CTElection::`scalar deleting destructor'
_TEXT	ENDS
; Function compile flags: /Ogtp
; File C:\IAGOS\server\v18\Source\Source\DatabaseServer\tlord.cpp
; File C:\IAGOS\server\v18\Source\Source\_Network\Mcl\Include\CMclAutoLock.h
; File C:\IAGOS\server\v18\Source\Source\_Network\Mcl\Include\CMclCritSec.h
; File C:\IAGOS\server\v18\Source\Source\DatabaseServer\tlord.cpp
; File C:\IAGOS\server\v18\Source\Source\_Network\Mcl\Include\CMclCritSec.h
; File C:\IAGOS\server\v18\Source\Source\DatabaseServer\tlord.cpp
; File C:\IAGOS\server\v18\Source\Source\_Network\Mcl\Include\CMclCritSec.h
; File C:\IAGOS\server\v18\Source\Source\DatabaseServer\tlord.cpp
; File C:\Program Files\Microsoft Visual Studio\2022\Professional\VC\Tools\MSVC\14.44.35207\include\vector
; File C:\IAGOS\server\v18\Source\Source\DatabaseServer\tlord.cpp
; File C:\Program Files (x86)\Windows Kits\10\Include\10.0.26100.0\ucrt\time.h
; File C:\IAGOS\server\v18\Source\Source\DatabaseServer\tlord.cpp
; File C:\Program Files (x86)\Windows Kits\10\Include\10.0.26100.0\ucrt\time.h
; File C:\IAGOS\server\v18\Source\Source\DatabaseServer\tlord.cpp
; File C:\Program Files\Microsoft Visual Studio\2022\Professional\VC\Tools\MSVC\14.44.35207\include\vector
; File C:\IAGOS\server\v18\Source\Source\DatabaseServer\tlord.cpp
;	COMDAT ?PostLordItems@CTElection@@AAEXK@Z
_TEXT	SEGMENT
_pi$2 = -20						; size = 8
_Lock$3 = -16						; size = 4
__$EHRec$ = -12						; size = 12
_idLord$ = 8						; size = 4
tv343 = 8						; size = 4
tv358 = 8						; size = 4
?PostLordItems@CTElection@@AAEXK@Z PROC			; CTElection::PostLordItems, COMDAT
; _this$ = ecx

; 493  : {	// ±şÁÖ ľĆŔĚĹŰ żěĆí Áö±Ţ

  00000	55		 push	 ebp
  00001	8b ec		 mov	 ebp, esp
  00003	6a ff		 push	 -1
  00005	68 00 00 00 00	 push	 __ehhandler$?PostLordItems@CTElection@@AAEXK@Z
  0000a	64 a1 00 00 00
	00		 mov	 eax, DWORD PTR fs:0
  00010	50		 push	 eax
  00011	83 ec 08	 sub	 esp, 8
  00014	53		 push	 ebx
  00015	56		 push	 esi
  00016	57		 push	 edi
  00017	a1 00 00 00 00	 mov	 eax, DWORD PTR ___security_cookie
  0001c	33 c5		 xor	 eax, ebp
  0001e	50		 push	 eax
  0001f	8d 45 f4	 lea	 eax, DWORD PTR __$EHRec$[ebp]
  00022	64 a3 00 00 00
	00		 mov	 DWORD PTR fs:0, eax
  00028	8b d9		 mov	 ebx, ecx

; 494  : 	if( idLord != NULL_ID )

  0002a	8b 7d 08	 mov	 edi, DWORD PTR _idLord$[ebp]
  0002d	83 ff ff	 cmp	 edi, -1
  00030	0f 84 99 00 00
	00		 je	 $LN3@PostLordIt

; 495  : 	{
; 496  : 		BYTE iIndex		= SEX_MALE;

  00036	c6 45 08 00	 mov	 BYTE PTR tv343[ebp], 0

; 497  : 		{
; 498  : 			CMclAutoLock	Lock( CPlayerDataCenter::GetInstance()->m_Access );

  0003a	e8 00 00 00 00	 call	 ?GetInstance@CPlayerDataCenter@@SAPAV1@XZ ; CPlayerDataCenter::GetInstance
  0003f	83 c0 14	 add	 eax, 20			; 00000014H
; File C:\IAGOS\server\v18\Source\Source\_Network\Mcl\Include\CMclAutoLock.h

; 21   : 		m_pcCritSec = &rCMclCritSec;

  00042	89 45 f0	 mov	 DWORD PTR _Lock$3[ebp], eax
; File C:\IAGOS\server\v18\Source\Source\_Network\Mcl\Include\CMclCritSec.h

; 33   : 		::EnterCriticalSection( &m_CritSec );

  00045	8d 70 04	 lea	 esi, DWORD PTR [eax+4]
  00048	56		 push	 esi
  00049	ff 15 00 00 00
	00		 call	 DWORD PTR __imp__EnterCriticalSection@4
; File C:\IAGOS\server\v18\Source\Source\DatabaseServer\tlord.cpp

; 499  : 			PlayerData* pData	= CPlayerDataCenter::GetInstance()->GetPlayerData( idLord );

  0004f	57		 push	 edi
  00050	c7 45 fc 00 00
	00 00		 mov	 DWORD PTR __$EHRec$[ebp+8], 0
  00057	e8 00 00 00 00	 call	 ?GetInstance@CPlayerDataCenter@@SAPAV1@XZ ; CPlayerDataCenter::GetInstance
  0005c	8b c8		 mov	 ecx, eax
  0005e	e8 00 00 00 00	 call	 ?GetPlayerData@CPlayerDataCenter@@QAEPAU_PlayerData@@K@Z ; CPlayerDataCenter::GetPlayerData

; 500  : 			if( pData )

  00063	85 c0		 test	 eax, eax
  00065	74 10		 je	 SHORT $LN7@PostLordIt

; 501  : 				iIndex	= pData->data.nSex;
; 502  : 			ASSERT( iIndex >= 0 && iIndex < 2 );
; 503  : 			if( iIndex < 0 || iIndex > 2 )

  00067	0f b6 48 08	 movzx	 ecx, BYTE PTR [eax+8]
  0006b	33 d2		 xor	 edx, edx
  0006d	80 78 08 02	 cmp	 BYTE PTR [eax+8], 2
  00071	0f 47 ca	 cmova	 ecx, edx
  00074	89 4d 08	 mov	 DWORD PTR tv343[ebp], ecx
$LN7@PostLordIt:
; File C:\IAGOS\server\v18\Source\Source\_Network\Mcl\Include\CMclCritSec.h

; 39   : 		::LeaveCriticalSection( &m_CritSec );

  00077	56		 push	 esi
; File C:\IAGOS\server\v18\Source\Source\DatabaseServer\tlord.cpp

; 505  : 		}

  00078	c7 45 fc ff ff
	ff ff		 mov	 DWORD PTR __$EHRec$[ebp+8], -1
; File C:\IAGOS\server\v18\Source\Source\_Network\Mcl\Include\CMclCritSec.h

; 39   : 		::LeaveCriticalSection( &m_CritSec );

  0007f	ff 15 00 00 00
	00		 call	 DWORD PTR __imp__LeaveCriticalSection@4
; File C:\IAGOS\server\v18\Source\Source\DatabaseServer\tlord.cpp

; 506  : 		for( vector<int>::iterator i = property.m_vItems[iIndex].begin(); i != property.m_vItems[iIndex].end(); ++i )

  00085	8b 4d 08	 mov	 ecx, DWORD PTR tv343[ebp]
  00088	0f b6 c1	 movzx	 eax, cl
  0008b	8d 34 40	 lea	 esi, DWORD PTR [eax+eax*2]
; File C:\Program Files\Microsoft Visual Studio\2022\Professional\VC\Tools\MSVC\14.44.35207\include\vector

; 46   :     _CONSTEXPR20 _Vector_const_iterator(_Tptr _Parg, const _Container_base* _Pvector) noexcept : _Ptr(_Parg) {

  0008e	8b 74 b3 44	 mov	 esi, DWORD PTR [ebx+esi*4+68]

; 1852 :         return iterator(_My_data._Mylast, _STD addressof(_My_data));

  00092	8d 04 40	 lea	 eax, DWORD PTR [eax+eax*2]
  00095	8d 40 12	 lea	 eax, DWORD PTR [eax+18]
  00098	8d 04 83	 lea	 eax, DWORD PTR [ebx+eax*4]
  0009b	89 45 08	 mov	 DWORD PTR tv358[ebp], eax

; 176  :         return !(*this == _Right);

  0009e	3b 30		 cmp	 esi, DWORD PTR [eax]
; File C:\IAGOS\server\v18\Source\Source\DatabaseServer\tlord.cpp

; 506  : 		for( vector<int>::iterator i = property.m_vItems[iIndex].begin(); i != property.m_vItems[iIndex].end(); ++i )

  000a0	74 2d		 je	 SHORT $LN3@PostLordIt
$LL4@PostLordIt:

; 509  : 			pi.nItem	= *i;

  000a2	8b 06		 mov	 eax, DWORD PTR [esi]
; File C:\Program Files (x86)\Windows Kits\10\Include\10.0.26100.0\ucrt\time.h

; 428  :             return _time32(_Time);

  000a4	6a 00		 push	 0
; File C:\IAGOS\server\v18\Source\Source\DatabaseServer\tlord.cpp

; 509  : 			pi.nItem	= *i;

  000a6	89 45 ec	 mov	 DWORD PTR _pi$2[ebp], eax
; File C:\Program Files (x86)\Windows Kits\10\Include\10.0.26100.0\ucrt\time.h

; 428  :             return _time32(_Time);

  000a9	e8 00 00 00 00	 call	 __time32
  000ae	83 c4 04	 add	 esp, 4
; File C:\IAGOS\server\v18\Source\Source\DatabaseServer\tlord.cpp

; 510  : 			pi.dwKeepTime	= time( NULL ) + 1209600;	// 14ŔĎ

  000b1	05 00 75 12 00	 add	 eax, 1209600		; 00127500H
  000b6	89 45 f0	 mov	 DWORD PTR _pi$2[ebp+4], eax

; 511  : 			PostItem( idLord, pi );

  000b9	8b cb		 mov	 ecx, ebx
  000bb	8d 45 ec	 lea	 eax, DWORD PTR _pi$2[ebp]
  000be	50		 push	 eax
  000bf	57		 push	 edi
  000c0	e8 00 00 00 00	 call	 ?PostItem@CTElection@@AAEXKAAU_PostItemStruct@@@Z ; CTElection::PostItem
; File C:\Program Files\Microsoft Visual Studio\2022\Professional\VC\Tools\MSVC\14.44.35207\include\vector

; 176  :         return !(*this == _Right);

  000c5	8b 45 08	 mov	 eax, DWORD PTR tv358[ebp]

; 82   :         ++_Ptr;

  000c8	83 c6 04	 add	 esi, 4

; 176  :         return !(*this == _Right);

  000cb	3b 30		 cmp	 esi, DWORD PTR [eax]
; File C:\IAGOS\server\v18\Source\Source\DatabaseServer\tlord.cpp

; 506  : 		for( vector<int>::iterator i = property.m_vItems[iIndex].begin(); i != property.m_vItems[iIndex].end(); ++i )

  000cd	75 d3		 jne	 SHORT $LL4@PostLordIt
$LN3@PostLordIt:

; 512  : 		}
; 513  : 	}
; 514  : }

  000cf	8b 4d f4	 mov	 ecx, DWORD PTR __$EHRec$[ebp]
  000d2	64 89 0d 00 00
	00 00		 mov	 DWORD PTR fs:0, ecx
  000d9	59		 pop	 ecx
  000da	5f		 pop	 edi
  000db	5e		 pop	 esi
  000dc	5b		 pop	 ebx
  000dd	8b e5		 mov	 esp, ebp
  000df	5d		 pop	 ebp
  000e0	c2 04 00	 ret	 4
_TEXT	ENDS
;	COMDAT text$x
text$x	SEGMENT
__unwindfunclet$?PostLordItems@CTElection@@AAEXK@Z$0:
  00000	8d 4d f0	 lea	 ecx, DWORD PTR _Lock$3[ebp]
  00003	e9 00 00 00 00	 jmp	 ??1CMclAutoLock@@QAE@XZ	; CMclAutoLock::~CMclAutoLock
  00008	cc		 int	 3
  00009	cc		 int	 3
  0000a	cc		 int	 3
  0000b	cc		 int	 3
  0000c	cc		 int	 3
__ehhandler$?PostLordItems@CTElection@@AAEXK@Z:
  0000d	90		 npad	 1
  0000e	90		 npad	 1
  0000f	8b 54 24 08	 mov	 edx, DWORD PTR [esp+8]
  00013	8d 42 0c	 lea	 eax, DWORD PTR [edx+12]
  00016	8b 4a e8	 mov	 ecx, DWORD PTR [edx-24]
  00019	33 c8		 xor	 ecx, eax
  0001b	e8 00 00 00 00	 call	 @__security_check_cookie@4
  00020	b8 00 00 00 00	 mov	 eax, OFFSET __ehfuncinfo$?PostLordItems@CTElection@@AAEXK@Z
  00025	e9 00 00 00 00	 jmp	 ___CxxFrameHandler3
text$x	ENDS
?PostLordItems@CTElection@@AAEXK@Z ENDP			; CTElection::PostLordItems
; Function compile flags: /Ogtp
; File C:\IAGOS\server\v18\Source\Source\DatabaseServer\tlord.cpp
; File C:\Program Files\Microsoft Visual Studio\2022\Professional\VC\Tools\MSVC\14.44.35207\include\vector
; File C:\IAGOS\server\v18\Source\Source\DatabaseServer\tlord.h
; File C:\IAGOS\server\v18\Source\Source\DatabaseServer\tlord.cpp
; File C:\Program Files\Microsoft Visual Studio\2022\Professional\VC\Tools\MSVC\14.44.35207\include\algorithm
; File C:\IAGOS\server\v18\Source\Source\DatabaseServer\tlord.cpp
;	COMDAT ?PostDepositToAllCandidate@CTElection@@AAEXXZ
_TEXT	SEGMENT
__Func$ = -4						; size = 4
?PostDepositToAllCandidate@CTElection@@AAEXXZ PROC	; CTElection::PostDepositToAllCandidate, COMDAT
; _this$ = ecx

; 449  : {	// ¸đµç ČÄş¸ŔÚ ŔÔÂű±Ý ąÝČŻ

  00000	55		 push	 ebp
  00001	8b ec		 mov	 ebp, esp
  00003	51		 push	 ecx
  00004	56		 push	 esi
  00005	8b f1		 mov	 esi, ecx
  00007	57		 push	 edi

; 450  : 	CLController* pController	= m_pLord->GetController();

  00008	8b 4e 04	 mov	 ecx, DWORD PTR [esi+4]
  0000b	8b 01		 mov	 eax, DWORD PTR [ecx]
  0000d	ff 50 08	 call	 DWORD PTR [eax+8]
; File C:\Program Files\Microsoft Visual Studio\2022\Professional\VC\Tools\MSVC\14.44.35207\include\vector

; 46   :     _CONSTEXPR20 _Vector_const_iterator(_Tptr _Parg, const _Container_base* _Pvector) noexcept : _Ptr(_Parg) {

  00010	8b 7e 18	 mov	 edi, DWORD PTR [esi+24]
  00013	8b 76 14	 mov	 esi, DWORD PTR [esi+20]
; File C:\IAGOS\server\v18\Source\Source\DatabaseServer\tlord.h

; 151  : 	PostDeposit( CQuery* pQuery )	{	m_pQuery	= pQuery;	}

  00016	8b 40 0c	 mov	 eax, DWORD PTR [eax+12]
; File C:\IAGOS\server\v18\Source\Source\DatabaseServer\tlord.cpp

; 451  : 	for_each( m_vCandidates.begin(), m_vCandidates.end(), PostDeposit( pController->GetQueryObject() ) );

  00019	89 45 fc	 mov	 DWORD PTR __Func$[ebp], eax
; File C:\Program Files\Microsoft Visual Studio\2022\Professional\VC\Tools\MSVC\14.44.35207\include\algorithm

; 402  :     for (; _UFirst != _ULast; ++_UFirst) {

  0001c	3b f7		 cmp	 esi, edi
  0001e	74 10		 je	 SHORT $LN25@PostDeposi
$LL26@PostDeposi:

; 403  :         _Func(*_UFirst);

  00020	56		 push	 esi
  00021	8d 4d fc	 lea	 ecx, DWORD PTR __Func$[ebp]
  00024	e8 00 00 00 00	 call	 ??RPostDeposit@@QBEXABV?$shared_ptr@VCCandidate@@@std@@@Z ; PostDeposit::operator()
  00029	83 c6 08	 add	 esi, 8
  0002c	3b f7		 cmp	 esi, edi
  0002e	75 f0		 jne	 SHORT $LL26@PostDeposi
$LN25@PostDeposi:
  00030	5f		 pop	 edi
; File C:\IAGOS\server\v18\Source\Source\DatabaseServer\tlord.cpp

; 452  : }

  00031	5e		 pop	 esi
  00032	8b e5		 mov	 esp, ebp
  00034	5d		 pop	 ebp
  00035	c3		 ret	 0
?PostDepositToAllCandidate@CTElection@@AAEXXZ ENDP	; CTElection::PostDepositToAllCandidate
_TEXT	ENDS
; Function compile flags: /Ogtp
; File C:\IAGOS\server\v18\Source\Source\DatabaseServer\tlord.cpp
; File C:\Program Files (x86)\Windows Kits\10\Include\10.0.26100.0\ucrt\time.h
; File C:\IAGOS\server\v18\Source\Source\DatabaseServer\tlord.cpp
; File C:\Program Files (x86)\Windows Kits\10\Include\10.0.26100.0\ucrt\time.h
; File C:\IAGOS\server\v18\Source\Source\DatabaseServer\tlord.cpp
; File C:\IAGOS\server\v18\Source\Source\_Common\Data.h
; File C:\IAGOS\server\v18\Source\Source\DatabaseServer\Project.h
; File C:\IAGOS\server\v18\Source\Source\DatabaseServer\tlord.cpp
; File C:\IAGOS\server\v18\Source\Source\_Common\Data.h
; File C:\IAGOS\server\v18\Source\Source\DatabaseServer\Project.h
; File C:\IAGOS\server\v18\Source\Source\DatabaseServer\tlord.cpp
; File C:\IAGOS\server\v18\Source\Source\_Common\xutil.h
; File C:\IAGOS\server\v18\Source\Source\DatabaseServer\tlord.cpp
;	COMDAT ?PostItem@CTElection@@AAEXKAAU_PostItemStruct@@@Z
_TEXT	SEGMENT
$T2 = -16						; size = 4
$T3 = -16						; size = 4
__$EHRec$ = -12						; size = 12
_idPlayer$ = 8						; size = 4
_pi$ = 12						; size = 4
?PostItem@CTElection@@AAEXKAAU_PostItemStruct@@@Z PROC	; CTElection::PostItem, COMDAT
; _this$ = ecx

; 517  : {	// żěĆíŔ» ĹëÇŃ ľĆŔĚĹŰ Áö±Ţ

  00000	55		 push	 ebp
  00001	8b ec		 mov	 ebp, esp
  00003	6a ff		 push	 -1
  00005	68 00 00 00 00	 push	 __ehhandler$?PostItem@CTElection@@AAEXKAAU_PostItemStruct@@@Z
  0000a	64 a1 00 00 00
	00		 mov	 eax, DWORD PTR fs:0
  00010	50		 push	 eax
  00011	51		 push	 ecx
  00012	56		 push	 esi
  00013	57		 push	 edi
  00014	a1 00 00 00 00	 mov	 eax, DWORD PTR ___security_cookie
  00019	33 c5		 xor	 eax, ebp
  0001b	50		 push	 eax
  0001c	8d 45 f4	 lea	 eax, DWORD PTR __$EHRec$[ebp]
  0001f	64 a3 00 00 00
	00		 mov	 DWORD PTR fs:0, eax
  00025	8b f9		 mov	 edi, ecx

; 519  : 	CMail* pMail	= new CMail;

  00027	68 40 01 00 00	 push	 320			; 00000140H
  0002c	e8 00 00 00 00	 call	 ??2@YAPAXI@Z		; operator new
  00031	83 c4 04	 add	 esp, 4
  00034	89 45 f0	 mov	 DWORD PTR $T2[ebp], eax
  00037	c7 45 fc 00 00
	00 00		 mov	 DWORD PTR __$EHRec$[ebp+8], 0
  0003e	85 c0		 test	 eax, eax
  00040	74 0b		 je	 SHORT $LN3@PostItem
  00042	8b c8		 mov	 ecx, eax
  00044	e8 00 00 00 00	 call	 ??0CMail@@QAE@XZ	; CMail::CMail
  00049	8b f0		 mov	 esi, eax
  0004b	eb 02		 jmp	 SHORT $LN4@PostItem
$LN3@PostItem:
  0004d	33 f6		 xor	 esi, esi
$LN4@PostItem:
; File C:\Program Files (x86)\Windows Kits\10\Include\10.0.26100.0\ucrt\time.h

; 428  :             return _time32(_Time);

  0004f	6a 00		 push	 0
; File C:\IAGOS\server\v18\Source\Source\DatabaseServer\tlord.cpp

; 519  : 	CMail* pMail	= new CMail;

  00051	c7 45 fc ff ff
	ff ff		 mov	 DWORD PTR __$EHRec$[ebp+8], -1
; File C:\Program Files (x86)\Windows Kits\10\Include\10.0.26100.0\ucrt\time.h

; 428  :             return _time32(_Time);

  00058	e8 00 00 00 00	 call	 __time32
  0005d	83 c4 04	 add	 esp, 4
; File C:\IAGOS\server\v18\Source\Source\DatabaseServer\tlord.cpp

; 520  : 	pMail->m_tmCreate	= ::time_null();

  00060	89 46 14	 mov	 DWORD PTR [esi+20], eax

; 521  : 	pMail->m_idSender	= 0;	//

  00063	c7 46 08 00 00
	00 00		 mov	 DWORD PTR [esi+8], 0
; File C:\IAGOS\server\v18\Source\Source\_Common\Data.h

; 270  : 	if( dwIndex >= (DWORD)m_nMaxIndex )

  0006a	81 3d 78 00 00
	00 9e 0e 00 00	 cmp	 DWORD PTR ?prj@@3VCProject@@A+120, 3742 ; 00000e9eH
  00074	76 14		 jbe	 SHORT $LN33@PostItem

; 271  : 		return NULL;
; 272  : 	return (T*) m_apOffset[ dwIndex ];

  00076	a1 68 00 00 00	 mov	 eax, DWORD PTR ?prj@@3VCProject@@A+104
  0007b	8b 80 78 3a 00
	00		 mov	 eax, DWORD PTR [eax+14968]
; File C:\IAGOS\server\v18\Source\Source\DatabaseServer\Project.h

; 184  : 		if( m_colorText.GetAt( dwIndex ) == NULL )

  00081	85 c0		 test	 eax, eax
  00083	74 05		 je	 SHORT $LN33@PostItem

; 186  : 		return m_colorText.GetAt( dwIndex )->lpszData; 

  00085	8b 40 04	 mov	 eax, DWORD PTR [eax+4]
  00088	eb 05		 jmp	 SHORT $LN13@PostItem
$LN33@PostItem:

; 185  : 			return "";

  0008a	b8 00 00 00 00	 mov	 eax, OFFSET ??_C@_00CNPNBAHC@@
$LN13@PostItem:
; File C:\IAGOS\server\v18\Source\Source\DatabaseServer\tlord.cpp

; 522  : 	sprintf( pMail->m_szTitle, prj.GetText( TID_GAME_ELECTION_SET_LORD_MAIL_TITLE ) );

  0008f	50		 push	 eax
  00090	8d 46 19	 lea	 eax, DWORD PTR [esi+25]
  00093	50		 push	 eax
  00094	e8 00 00 00 00	 call	 _sprintf
  00099	83 c4 08	 add	 esp, 8
; File C:\IAGOS\server\v18\Source\Source\_Common\Data.h

; 270  : 	if( dwIndex >= (DWORD)m_nMaxIndex )

  0009c	81 3d 78 00 00
	00 9f 0e 00 00	 cmp	 DWORD PTR ?prj@@3VCProject@@A+120, 3743 ; 00000e9fH
  000a6	76 14		 jbe	 SHORT $LN34@PostItem

; 271  : 		return NULL;
; 272  : 	return (T*) m_apOffset[ dwIndex ];

  000a8	a1 68 00 00 00	 mov	 eax, DWORD PTR ?prj@@3VCProject@@A+104
  000ad	8b 80 7c 3a 00
	00		 mov	 eax, DWORD PTR [eax+14972]
; File C:\IAGOS\server\v18\Source\Source\DatabaseServer\Project.h

; 184  : 		if( m_colorText.GetAt( dwIndex ) == NULL )

  000b3	85 c0		 test	 eax, eax
  000b5	74 05		 je	 SHORT $LN34@PostItem

; 186  : 		return m_colorText.GetAt( dwIndex )->lpszData; 

  000b7	8b 40 04	 mov	 eax, DWORD PTR [eax+4]
  000ba	eb 05		 jmp	 SHORT $LN22@PostItem
$LN34@PostItem:

; 185  : 			return "";

  000bc	b8 00 00 00 00	 mov	 eax, OFFSET ??_C@_00CNPNBAHC@@
$LN22@PostItem:
; File C:\IAGOS\server\v18\Source\Source\DatabaseServer\tlord.cpp

; 523  : 	sprintf( pMail->m_szText, prj.GetText( TID_GAME_ELECTION_SET_LORD_MAIL_TEXT ) );

  000c1	50		 push	 eax
  000c2	8d 46 39	 lea	 eax, DWORD PTR [esi+57]
  000c5	50		 push	 eax
  000c6	e8 00 00 00 00	 call	 _sprintf

; 524  : 	pMail->m_pItemElem	= new CItemElem;

  000cb	68 98 00 00 00	 push	 152			; 00000098H
  000d0	e8 00 00 00 00	 call	 ??2@YAPAXI@Z		; operator new
  000d5	83 c4 0c	 add	 esp, 12			; 0000000cH
  000d8	89 45 f0	 mov	 DWORD PTR $T3[ebp], eax
  000db	c7 45 fc 01 00
	00 00		 mov	 DWORD PTR __$EHRec$[ebp+8], 1
  000e2	85 c0		 test	 eax, eax
  000e4	74 0b		 je	 SHORT $LN5@PostItem
  000e6	8b c8		 mov	 ecx, eax
  000e8	e8 00 00 00 00	 call	 ??0CItemElem@@QAE@XZ	; CItemElem::CItemElem
  000ed	8b c8		 mov	 ecx, eax
  000ef	eb 02		 jmp	 SHORT $LN6@PostItem
$LN5@PostItem:
  000f1	33 c9		 xor	 ecx, ecx
$LN6@PostItem:

; 525  : 	pMail->m_pItemElem->m_dwItemId	= pi.nItem;

  000f3	8b 55 0c	 mov	 edx, DWORD PTR _pi$[ebp]
  000f6	89 4e 0c	 mov	 DWORD PTR [esi+12], ecx
  000f9	c7 45 fc ff ff
	ff ff		 mov	 DWORD PTR __$EHRec$[ebp+8], -1
  00100	8b 02		 mov	 eax, DWORD PTR [edx]
  00102	89 41 08	 mov	 DWORD PTR [ecx+8], eax

; 526  : 	pMail->m_pItemElem->m_nItemNum	= 1;

  00105	b9 01 00 00 00	 mov	 ecx, 1
  0010a	8b 46 0c	 mov	 eax, DWORD PTR [esi+12]
  0010d	66 89 48 66	 mov	 WORD PTR [eax+102], cx

; 527  : 	pMail->m_pItemElem->m_dwKeepTime	= pi.dwKeepTime;

  00111	8b 4e 0c	 mov	 ecx, DWORD PTR [esi+12]
  00114	8b 42 04	 mov	 eax, DWORD PTR [edx+4]
  00117	89 81 80 00 00
	00		 mov	 DWORD PTR [ecx+128], eax
; File C:\IAGOS\server\v18\Source\Source\_Common\xutil.h

; 16   : 	g_next = g_next * 1103515245 + 12345;// + nRandomSeed[ i++ ];

  0011d	69 0d 00 00 00
	00 6d 4e c6 41	 imul	 ecx, DWORD PTR ?g_next@@3KA, 1103515245 ; g_next
  00127	81 c1 39 30 00
	00		 add	 ecx, 12345		; 00003039H
  0012d	89 0d 00 00 00
	00		 mov	 DWORD PTR ?g_next@@3KA, ecx ; g_next
; File C:\IAGOS\server\v18\Source\Source\DatabaseServer\tlord.cpp

; 528  : 	pMail->m_pItemElem->SetSerialNumber( xRand() );

  00133	8b 46 0c	 mov	 eax, DWORD PTR [esi+12]
  00136	89 48 30	 mov	 DWORD PTR [eax+48], ecx

; 529  : 	CLController* pController	= m_pLord->GetController();

  00139	8b 4f 04	 mov	 ecx, DWORD PTR [edi+4]
  0013c	8b 01		 mov	 eax, DWORD PTR [ecx]
  0013e	ff 50 08	 call	 DWORD PTR [eax+8]

; 530  : 	post::Post( idPlayer, pMail, pController->GetQueryObject() );

  00141	ff 70 0c	 push	 DWORD PTR [eax+12]
  00144	56		 push	 esi
  00145	ff 75 08	 push	 DWORD PTR _idPlayer$[ebp]
  00148	e8 00 00 00 00	 call	 ?Post@post@@YAXKPAVCMail@@PAVCQuery@@@Z ; post::Post
  0014d	83 c4 0c	 add	 esp, 12			; 0000000cH

; 531  : }

  00150	8b 4d f4	 mov	 ecx, DWORD PTR __$EHRec$[ebp]
  00153	64 89 0d 00 00
	00 00		 mov	 DWORD PTR fs:0, ecx
  0015a	59		 pop	 ecx
  0015b	5f		 pop	 edi
  0015c	5e		 pop	 esi
  0015d	8b e5		 mov	 esp, ebp
  0015f	5d		 pop	 ebp
  00160	c2 08 00	 ret	 8
_TEXT	ENDS
;	COMDAT text$x
text$x	SEGMENT
__unwindfunclet$?PostItem@CTElection@@AAEXKAAU_PostItemStruct@@@Z$0:
  00000	68 40 01 00 00	 push	 320			; 00000140H
  00005	8b 45 f0	 mov	 eax, DWORD PTR $T2[ebp]
  00008	50		 push	 eax
  00009	e8 00 00 00 00	 call	 ??3@YAXPAXI@Z		; operator delete
  0000e	83 c4 08	 add	 esp, 8
  00011	c3		 ret	 0
__unwindfunclet$?PostItem@CTElection@@AAEXKAAU_PostItemStruct@@@Z$1:
  00012	68 98 00 00 00	 push	 152			; 00000098H
  00017	8b 45 f0	 mov	 eax, DWORD PTR $T3[ebp]
  0001a	50		 push	 eax
  0001b	e8 00 00 00 00	 call	 ??3@YAXPAXI@Z		; operator delete
  00020	83 c4 08	 add	 esp, 8
  00023	c3		 ret	 0
  00024	cc		 int	 3
  00025	cc		 int	 3
  00026	cc		 int	 3
  00027	cc		 int	 3
  00028	cc		 int	 3
__ehhandler$?PostItem@CTElection@@AAEXKAAU_PostItemStruct@@@Z:
  00029	90		 npad	 1
  0002a	90		 npad	 1
  0002b	8b 54 24 08	 mov	 edx, DWORD PTR [esp+8]
  0002f	8d 42 0c	 lea	 eax, DWORD PTR [edx+12]
  00032	8b 4a f0	 mov	 ecx, DWORD PTR [edx-16]
  00035	33 c8		 xor	 ecx, eax
  00037	e8 00 00 00 00	 call	 @__security_check_cookie@4
  0003c	b8 00 00 00 00	 mov	 eax, OFFSET __ehfuncinfo$?PostItem@CTElection@@AAEXKAAU_PostItemStruct@@@Z
  00041	e9 00 00 00 00	 jmp	 ___CxxFrameHandler3
text$x	ENDS
?PostItem@CTElection@@AAEXKAAU_PostItemStruct@@@Z ENDP	; CTElection::PostItem
; Function compile flags: /Ogtp
; File C:\IAGOS\server\v18\Source\Source\DatabaseServer\tlord.cpp
; File C:\Program Files\Microsoft Visual Studio\2022\Professional\VC\Tools\MSVC\14.44.35207\atlmfc\include\cstringt.h
; File C:\IAGOS\server\v18\Source\Source\DatabaseServer\tlord.cpp
; File C:\Program Files\Microsoft Visual Studio\2022\Professional\VC\Tools\MSVC\14.44.35207\atlmfc\include\cstringt.h
; File C:\IAGOS\server\v18\Source\Source\DatabaseServer\tlord.cpp
; File C:\Program Files\Microsoft Visual Studio\2022\Professional\VC\Tools\MSVC\14.44.35207\atlmfc\include\cstringt.h
; File C:\IAGOS\server\v18\Source\Source\DatabaseServer\tlord.cpp
; File C:\Program Files\Microsoft Visual Studio\2022\Professional\VC\Tools\MSVC\14.44.35207\atlmfc\include\cstringt.h
; File C:\IAGOS\server\v18\Source\Source\DatabaseServer\tlord.cpp
; File C:\Program Files\Microsoft Visual Studio\2022\Professional\VC\Tools\MSVC\14.44.35207\atlmfc\include\cstringt.h
; File C:\IAGOS\server\v18\Source\Source\DatabaseServer\tlord.cpp
; File C:\Program Files\Microsoft Visual Studio\2022\Professional\VC\Tools\MSVC\14.44.35207\atlmfc\include\cstringt.h
; File C:\IAGOS\server\v18\Source\Source\DatabaseServer\tlord.cpp
; File C:\Program Files\Microsoft Visual Studio\2022\Professional\VC\Tools\MSVC\14.44.35207\atlmfc\include\cstringt.h
; File C:\IAGOS\server\v18\Source\Source\DatabaseServer\tlord.cpp
; File C:\Program Files\Microsoft Visual Studio\2022\Professional\VC\Tools\MSVC\14.44.35207\include\vector
; File C:\Program Files\Microsoft Visual Studio\2022\Professional\VC\Tools\MSVC\14.44.35207\include\xutility
; File C:\Program Files\Microsoft Visual Studio\2022\Professional\VC\Tools\MSVC\14.44.35207\include\vector
; File C:\IAGOS\server\v18\Source\Source\DatabaseServer\tlord.cpp
; File C:\Program Files\Microsoft Visual Studio\2022\Professional\VC\Tools\MSVC\14.44.35207\atlmfc\include\cstringt.h
; File C:\IAGOS\server\v18\Source\Source\DatabaseServer\tlord.cpp
; File C:\Program Files\Microsoft Visual Studio\2022\Professional\VC\Tools\MSVC\14.44.35207\atlmfc\include\cstringt.h
; File C:\IAGOS\server\v18\Source\Source\DatabaseServer\tlord.cpp
; File C:\Program Files\Microsoft Visual Studio\2022\Professional\VC\Tools\MSVC\14.44.35207\include\vector
; File C:\IAGOS\server\v18\Source\Source\DatabaseServer\tlord.cpp
;	COMDAT ?ReadIni@CTElection@@AAEHPBD@Z
_TEXT	SEGMENT
_fRate$2 = -7804					; size = 4
_nItem$3 = -7804					; size = 4
_s$ = -7800						; size = 7784
__$ArrayPad$ = -16					; size = 4
__$EHRec$ = -12						; size = 12
_szFile$ = 8						; size = 4
?ReadIni@CTElection@@AAEHPBD@Z PROC			; CTElection::ReadIni, COMDAT
; _this$ = ecx

; 203  : {	// ˝şĹ©¸łĆ® ·Îµĺ

  00000	55		 push	 ebp
  00001	8b ec		 mov	 ebp, esp
  00003	6a ff		 push	 -1
  00005	68 00 00 00 00	 push	 __ehhandler$?ReadIni@CTElection@@AAEHPBD@Z
  0000a	64 a1 00 00 00
	00		 mov	 eax, DWORD PTR fs:0
  00010	50		 push	 eax
  00011	b8 70 1e 00 00	 mov	 eax, 7792		; 00001e70H
  00016	e8 00 00 00 00	 call	 __chkstk
  0001b	a1 00 00 00 00	 mov	 eax, DWORD PTR ___security_cookie
  00020	33 c5		 xor	 eax, ebp
  00022	89 45 f0	 mov	 DWORD PTR __$ArrayPad$[ebp], eax
  00025	56		 push	 esi
  00026	57		 push	 edi
  00027	50		 push	 eax
  00028	8d 45 f4	 lea	 eax, DWORD PTR __$EHRec$[ebp]
  0002b	64 a3 00 00 00
	00		 mov	 DWORD PTR fs:0, eax
  00031	8b f9		 mov	 edi, ecx
  00033	8b 75 08	 mov	 esi, DWORD PTR _szFile$[ebp]

; 204  : 	CScript s;

  00036	8d 8d 88 e1 ff
	ff		 lea	 ecx, DWORD PTR _s$[ebp]
  0003c	6a 00		 push	 0
  0003e	e8 00 00 00 00	 call	 ??0CScript@@QAE@H@Z	; CScript::CScript

; 205  : 	if( s.Load( szFile ) == FALSE )

  00043	6a 00		 push	 0
  00045	6a 01		 push	 1
  00047	56		 push	 esi
  00048	8d 8d 88 e1 ff
	ff		 lea	 ecx, DWORD PTR _s$[ebp]
  0004e	c7 45 fc 00 00
	00 00		 mov	 DWORD PTR __$EHRec$[ebp+8], 0
  00055	e8 00 00 00 00	 call	 ?Load@CScript@@QAEHPBDHH@Z ; CScript::Load
  0005a	85 c0		 test	 eax, eax
  0005c	75 07		 jne	 SHORT $LN10@ReadIni
  0005e	33 f6		 xor	 esi, esi
  00060	e9 d0 02 00 00	 jmp	 $LN29@ReadIni
$LN10@ReadIni:

; 206  : 		return FALSE;
; 207  : 
; 208  : 	s.GetToken();

  00065	6a 00		 push	 0
  00067	8d 8d 88 e1 ff
	ff		 lea	 ecx, DWORD PTR _s$[ebp]
  0006d	e8 00 00 00 00	 call	 ?GetToken@CScript@@UAEHH@Z ; CScript::GetToken

; 209  : 	while( s.tok != FINISHED )

  00072	83 bd cc e9 ff
	ff 15		 cmp	 DWORD PTR _s$[ebp+2116], 21 ; 00000015H
  00079	0f 84 b1 02 00
	00		 je	 $LN209@ReadIni
  0007f	90		 npad	 1
$LL2@ReadIni:
; File C:\Program Files\Microsoft Visual Studio\2022\Professional\VC\Tools\MSVC\14.44.35207\atlmfc\include\cstringt.h

; 184  : 		return _mbscmp( reinterpret_cast< const unsigned char* >( pszA ), reinterpret_cast< const unsigned char* >( pszB ) );

  00080	68 00 00 00 00	 push	 OFFSET ??_C@_08EMBNBNLN@property@
  00085	ff b5 a8 e1 ff
	ff		 push	 DWORD PTR _s$[ebp+32]
  0008b	e8 00 00 00 00	 call	 __mbscmp
  00090	83 c4 08	 add	 esp, 8

; 2490 : 		return(str1.Compare(psz2) == 0);

  00093	85 c0		 test	 eax, eax
; File C:\IAGOS\server\v18\Source\Source\DatabaseServer\tlord.cpp

; 211  : 		if( s.Token == _T( "property" ) )

  00095	0f 85 1f 01 00
	00		 jne	 $LN132@ReadIni

; 212  : 		{
; 213  : 			s.GetToken();	// {

  0009b	50		 push	 eax
  0009c	8d 8d 88 e1 ff
	ff		 lea	 ecx, DWORD PTR _s$[ebp]
  000a2	e8 00 00 00 00	 call	 ?GetToken@CScript@@UAEHH@Z ; CScript::GetToken

; 214  : 			s.GetToken();

  000a7	6a 00		 push	 0
  000a9	8d 8d 88 e1 ff
	ff		 lea	 ecx, DWORD PTR _s$[ebp]
  000af	e8 00 00 00 00	 call	 ?GetToken@CScript@@UAEHH@Z ; CScript::GetToken

; 215  : 			while( *s.token != '}' )

  000b4	8b 85 c4 e1 ff
	ff		 mov	 eax, DWORD PTR _s$[ebp+60]
  000ba	80 38 7d	 cmp	 BYTE PTR [eax], 125	; 0000007dH
  000bd	0f 84 53 02 00
	00		 je	 $LN9@ReadIni
  000c3	0f 1f 40 00 66
	0f 1f 84 00 00
	00 00 00	 npad	 13
$LL4@ReadIni:
; File C:\Program Files\Microsoft Visual Studio\2022\Professional\VC\Tools\MSVC\14.44.35207\atlmfc\include\cstringt.h

; 184  : 		return _mbscmp( reinterpret_cast< const unsigned char* >( pszA ), reinterpret_cast< const unsigned char* >( pszB ) );

  000d0	68 00 00 00 00	 push	 OFFSET ??_C@_0L@NLLMANDB@nDayOfWeek@
  000d5	ff b5 a8 e1 ff
	ff		 push	 DWORD PTR _s$[ebp+32]
  000db	e8 00 00 00 00	 call	 __mbscmp
  000e0	83 c4 08	 add	 esp, 8

; 2490 : 		return(str1.Compare(psz2) == 0);

  000e3	85 c0		 test	 eax, eax
; File C:\IAGOS\server\v18\Source\Source\DatabaseServer\tlord.cpp

; 217  : 				if( s.Token == _T( "nDayOfWeek" ) )

  000e5	75 14		 jne	 SHORT $LN68@ReadIni

; 218  : 					property.nDayOfWeek		= s.GetNumber();

  000e7	50		 push	 eax
  000e8	8d 8d 88 e1 ff
	ff		 lea	 ecx, DWORD PTR _s$[ebp]
  000ee	e8 00 00 00 00	 call	 ?GetNumber@CScanner@@QAEHH@Z ; CScanner::GetNumber
  000f3	89 47 24	 mov	 DWORD PTR [edi+36], eax
  000f6	e9 9e 00 00 00	 jmp	 $LN21@ReadIni
$LN68@ReadIni:
; File C:\Program Files\Microsoft Visual Studio\2022\Professional\VC\Tools\MSVC\14.44.35207\atlmfc\include\cstringt.h

; 184  : 		return _mbscmp( reinterpret_cast< const unsigned char* >( pszA ), reinterpret_cast< const unsigned char* >( pszB ) );

  000fb	68 00 00 00 00	 push	 OFFSET ??_C@_05DIDGHFGE@nHour@
  00100	ff b5 a8 e1 ff
	ff		 push	 DWORD PTR _s$[ebp+32]
  00106	e8 00 00 00 00	 call	 __mbscmp
  0010b	83 c4 08	 add	 esp, 8

; 2490 : 		return(str1.Compare(psz2) == 0);

  0010e	85 c0		 test	 eax, eax
; File C:\IAGOS\server\v18\Source\Source\DatabaseServer\tlord.cpp

; 219  : 				else if( s.Token == _T( "nHour" ) )

  00110	75 11		 jne	 SHORT $LN84@ReadIni

; 220  : 					property.nHour	= s.GetNumber();

  00112	50		 push	 eax
  00113	8d 8d 88 e1 ff
	ff		 lea	 ecx, DWORD PTR _s$[ebp]
  00119	e8 00 00 00 00	 call	 ?GetNumber@CScanner@@QAEHH@Z ; CScanner::GetNumber
  0011e	89 47 28	 mov	 DWORD PTR [edi+40], eax
  00121	eb 76		 jmp	 SHORT $LN21@ReadIni
$LN84@ReadIni:
; File C:\Program Files\Microsoft Visual Studio\2022\Professional\VC\Tools\MSVC\14.44.35207\atlmfc\include\cstringt.h

; 184  : 		return _mbscmp( reinterpret_cast< const unsigned char* >( pszA ), reinterpret_cast< const unsigned char* >( pszB ) );

  00123	68 00 00 00 00	 push	 OFFSET ??_C@_0L@CKDBDEOG@tCandidacy@
  00128	ff b5 a8 e1 ff
	ff		 push	 DWORD PTR _s$[ebp+32]
  0012e	e8 00 00 00 00	 call	 __mbscmp
  00133	83 c4 08	 add	 esp, 8

; 2490 : 		return(str1.Compare(psz2) == 0);

  00136	85 c0		 test	 eax, eax
; File C:\IAGOS\server\v18\Source\Source\DatabaseServer\tlord.cpp

; 221  : 				else if( s.Token == _T( "tCandidacy" ) )

  00138	75 11		 jne	 SHORT $LN100@ReadIni

; 222  : 					property.tCandidacy	= s.GetNumber();

  0013a	50		 push	 eax
  0013b	8d 8d 88 e1 ff
	ff		 lea	 ecx, DWORD PTR _s$[ebp]
  00141	e8 00 00 00 00	 call	 ?GetNumber@CScanner@@QAEHH@Z ; CScanner::GetNumber
  00146	89 47 2c	 mov	 DWORD PTR [edi+44], eax
  00149	eb 4e		 jmp	 SHORT $LN21@ReadIni
$LN100@ReadIni:
; File C:\Program Files\Microsoft Visual Studio\2022\Professional\VC\Tools\MSVC\14.44.35207\atlmfc\include\cstringt.h

; 184  : 		return _mbscmp( reinterpret_cast< const unsigned char* >( pszA ), reinterpret_cast< const unsigned char* >( pszB ) );

  0014b	68 00 00 00 00	 push	 OFFSET ??_C@_05EBOKJDNL@tVote@
  00150	ff b5 a8 e1 ff
	ff		 push	 DWORD PTR _s$[ebp+32]
  00156	e8 00 00 00 00	 call	 __mbscmp
  0015b	83 c4 08	 add	 esp, 8

; 2490 : 		return(str1.Compare(psz2) == 0);

  0015e	85 c0		 test	 eax, eax
; File C:\IAGOS\server\v18\Source\Source\DatabaseServer\tlord.cpp

; 223  : 				else if( s.Token == _T( "tVote" ) )

  00160	75 11		 jne	 SHORT $LN116@ReadIni

; 224  : 					property.tVote	= s.GetNumber();

  00162	50		 push	 eax
  00163	8d 8d 88 e1 ff
	ff		 lea	 ecx, DWORD PTR _s$[ebp]
  00169	e8 00 00 00 00	 call	 ?GetNumber@CScanner@@QAEHH@Z ; CScanner::GetNumber
  0016e	89 47 30	 mov	 DWORD PTR [edi+48], eax
  00171	eb 26		 jmp	 SHORT $LN21@ReadIni
$LN116@ReadIni:
; File C:\Program Files\Microsoft Visual Studio\2022\Professional\VC\Tools\MSVC\14.44.35207\atlmfc\include\cstringt.h

; 184  : 		return _mbscmp( reinterpret_cast< const unsigned char* >( pszA ), reinterpret_cast< const unsigned char* >( pszB ) );

  00173	68 00 00 00 00	 push	 OFFSET ??_C@_05NBICHHD@nDays@
  00178	ff b5 a8 e1 ff
	ff		 push	 DWORD PTR _s$[ebp+32]
  0017e	e8 00 00 00 00	 call	 __mbscmp
  00183	83 c4 08	 add	 esp, 8

; 2490 : 		return(str1.Compare(psz2) == 0);

  00186	85 c0		 test	 eax, eax
; File C:\IAGOS\server\v18\Source\Source\DatabaseServer\tlord.cpp

; 225  : 				else if( s.Token == _T( "nDays" ) )

  00188	75 0f		 jne	 SHORT $LN21@ReadIni

; 226  : 					property.nDays	= s.GetNumber();

  0018a	50		 push	 eax
  0018b	8d 8d 88 e1 ff
	ff		 lea	 ecx, DWORD PTR _s$[ebp]
  00191	e8 00 00 00 00	 call	 ?GetNumber@CScanner@@QAEHH@Z ; CScanner::GetNumber
  00196	89 47 34	 mov	 DWORD PTR [edi+52], eax
$LN21@ReadIni:

; 227  : 				s.GetToken();

  00199	6a 00		 push	 0
  0019b	8d 8d 88 e1 ff
	ff		 lea	 ecx, DWORD PTR _s$[ebp]
  001a1	e8 00 00 00 00	 call	 ?GetToken@CScript@@UAEHH@Z ; CScript::GetToken
  001a6	8b 85 c4 e1 ff
	ff		 mov	 eax, DWORD PTR _s$[ebp+60]
  001ac	80 38 7d	 cmp	 BYTE PTR [eax], 125	; 0000007dH
  001af	0f 85 1b ff ff
	ff		 jne	 $LL4@ReadIni

; 228  : 			}
; 229  : 		}

  001b5	e9 5c 01 00 00	 jmp	 $LN9@ReadIni
$LN132@ReadIni:
; File C:\Program Files\Microsoft Visual Studio\2022\Professional\VC\Tools\MSVC\14.44.35207\atlmfc\include\cstringt.h

; 184  : 		return _mbscmp( reinterpret_cast< const unsigned char* >( pszA ), reinterpret_cast< const unsigned char* >( pszB ) );

  001ba	68 00 00 00 00	 push	 OFFSET ??_C@_04HCCHHEEF@rate@
  001bf	ff b5 a8 e1 ff
	ff		 push	 DWORD PTR _s$[ebp+32]
  001c5	e8 00 00 00 00	 call	 __mbscmp
  001ca	83 c4 08	 add	 esp, 8

; 2490 : 		return(str1.Compare(psz2) == 0);

  001cd	85 c0		 test	 eax, eax
; File C:\IAGOS\server\v18\Source\Source\DatabaseServer\tlord.cpp

; 230  : 		else if( s.Token == _T( "rate" ) )

  001cf	75 7e		 jne	 SHORT $LN158@ReadIni

; 231  : 		{
; 232  : 			s.GetToken();	// {

  001d1	50		 push	 eax
  001d2	8d 8d 88 e1 ff
	ff		 lea	 ecx, DWORD PTR _s$[ebp]
  001d8	e8 00 00 00 00	 call	 ?GetToken@CScript@@UAEHH@Z ; CScript::GetToken

; 233  : 			float fRate	= s.GetFloat();

  001dd	6a 00		 push	 0
  001df	8d 8d 88 e1 ff
	ff		 lea	 ecx, DWORD PTR _s$[ebp]
  001e5	e8 00 00 00 00	 call	 ?GetFloat@CScanner@@QAEMH@Z ; CScanner::GetFloat

; 234  : 			while( *s.token != '}' )

  001ea	8b 85 c4 e1 ff
	ff		 mov	 eax, DWORD PTR _s$[ebp+60]
  001f0	d9 9d 84 e1 ff
	ff		 fstp	 DWORD PTR _fRate$2[ebp]
  001f6	80 38 7d	 cmp	 BYTE PTR [eax], 125	; 0000007dH
  001f9	0f 84 17 01 00
	00		 je	 $LN9@ReadIni
  001ff	90		 npad	 1
$LL6@ReadIni:
; File C:\Program Files\Microsoft Visual Studio\2022\Professional\VC\Tools\MSVC\14.44.35207\include\vector

; 844  :         if (_Mylast != _My_data._Myend) {

  00200	8b 47 3c	 mov	 eax, DWORD PTR [edi+60]
  00203	3b 47 40	 cmp	 eax, DWORD PTR [edi+64]
  00206	74 14		 je	 SHORT $LN146@ReadIni
; File C:\Program Files\Microsoft Visual Studio\2022\Professional\VC\Tools\MSVC\14.44.35207\include\xutility

; 476  :         ::new (static_cast<void*>(_STD addressof(_Obj))) _Ty(_STD forward<_Types>(_Args)...);

  00208	f3 0f 10 85 84
	e1 ff ff	 movss	 xmm0, DWORD PTR _fRate$2[ebp]
  00210	f3 0f 11 00	 movss	 DWORD PTR [eax], xmm0
; File C:\Program Files\Microsoft Visual Studio\2022\Professional\VC\Tools\MSVC\14.44.35207\include\vector

; 869  :         ++_Mylast;

  00214	83 c0 04	 add	 eax, 4
  00217	89 47 3c	 mov	 DWORD PTR [edi+60], eax

; 845  :             return _Emplace_back_with_unused_capacity(_STD forward<_Valty>(_Val)...);

  0021a	eb 10		 jmp	 SHORT $LN145@ReadIni
$LN146@ReadIni:

; 846  :         }
; 847  : 
; 848  :         return *_Emplace_reallocate(_Mylast, _STD forward<_Valty>(_Val)...);

  0021c	8d 8d 84 e1 ff
	ff		 lea	 ecx, DWORD PTR _fRate$2[ebp]
  00222	51		 push	 ecx
  00223	50		 push	 eax
  00224	8d 4f 38	 lea	 ecx, DWORD PTR [edi+56]
  00227	e8 00 00 00 00	 call	 ??$_Emplace_reallocate@ABM@?$vector@MV?$allocator@M@std@@@std@@AAEPAMQAMABM@Z ; std::vector<float,std::allocator<float> >::_Emplace_reallocate<float const &>
$LN145@ReadIni:
; File C:\IAGOS\server\v18\Source\Source\DatabaseServer\tlord.cpp

; 237  : 				fRate	= s.GetFloat();

  0022c	6a 00		 push	 0
  0022e	8d 8d 88 e1 ff
	ff		 lea	 ecx, DWORD PTR _s$[ebp]
  00234	e8 00 00 00 00	 call	 ?GetFloat@CScanner@@QAEMH@Z ; CScanner::GetFloat
  00239	8b 85 c4 e1 ff
	ff		 mov	 eax, DWORD PTR _s$[ebp+60]
  0023f	d9 9d 84 e1 ff
	ff		 fstp	 DWORD PTR _fRate$2[ebp]
  00245	80 38 7d	 cmp	 BYTE PTR [eax], 125	; 0000007dH
  00248	75 b6		 jne	 SHORT $LL6@ReadIni

; 238  : 			}
; 239  : 		}

  0024a	e9 c7 00 00 00	 jmp	 $LN9@ReadIni
$LN158@ReadIni:
; File C:\Program Files\Microsoft Visual Studio\2022\Professional\VC\Tools\MSVC\14.44.35207\atlmfc\include\cstringt.h

; 184  : 		return _mbscmp( reinterpret_cast< const unsigned char* >( pszA ), reinterpret_cast< const unsigned char* >( pszB ) );

  0024f	68 00 00 00 00	 push	 OFFSET ??_C@_0BD@FJBKFPAD@fRequirementFactor@
  00254	ff b5 a8 e1 ff
	ff		 push	 DWORD PTR _s$[ebp+32]
  0025a	e8 00 00 00 00	 call	 __mbscmp
  0025f	83 c4 08	 add	 esp, 8

; 2490 : 		return(str1.Compare(psz2) == 0);

  00262	85 c0		 test	 eax, eax
; File C:\IAGOS\server\v18\Source\Source\DatabaseServer\tlord.cpp

; 240  : 		else if( s.Token == _T( "fRequirementFactor" ) )

  00264	75 14		 jne	 SHORT $LN174@ReadIni

; 241  : 		{
; 242  : 			property.fRequirementFactor	= s.GetFloat();

  00266	50		 push	 eax
  00267	8d 8d 88 e1 ff
	ff		 lea	 ecx, DWORD PTR _s$[ebp]
  0026d	e8 00 00 00 00	 call	 ?GetFloat@CScanner@@QAEMH@Z ; CScanner::GetFloat
  00272	d9 5f 5c	 fstp	 DWORD PTR [edi+92]

; 243  : 		}

  00275	e9 9c 00 00 00	 jmp	 $LN9@ReadIni
$LN174@ReadIni:
; File C:\Program Files\Microsoft Visual Studio\2022\Professional\VC\Tools\MSVC\14.44.35207\atlmfc\include\cstringt.h

; 184  : 		return _mbscmp( reinterpret_cast< const unsigned char* >( pszA ), reinterpret_cast< const unsigned char* >( pszB ) );

  0027a	68 00 00 00 00	 push	 OFFSET ??_C@_04NHONDGDE@item@
  0027f	ff b5 a8 e1 ff
	ff		 push	 DWORD PTR _s$[ebp+32]
  00285	e8 00 00 00 00	 call	 __mbscmp
  0028a	83 c4 08	 add	 esp, 8

; 2490 : 		return(str1.Compare(psz2) == 0);

  0028d	85 c0		 test	 eax, eax
; File C:\IAGOS\server\v18\Source\Source\DatabaseServer\tlord.cpp

; 244  : 		else if( s.Token == _T( "item" ) )

  0028f	0f 85 81 00 00
	00		 jne	 $LN9@ReadIni

; 245  : 		{
; 246  : 			int iIndex	= s.GetNumber();

  00295	50		 push	 eax
  00296	8d 8d 88 e1 ff
	ff		 lea	 ecx, DWORD PTR _s$[ebp]
  0029c	e8 00 00 00 00	 call	 ?GetNumber@CScanner@@QAEHH@Z ; CScanner::GetNumber

; 247  : 			s.GetToken();	// {

  002a1	6a 00		 push	 0
  002a3	8d 8d 88 e1 ff
	ff		 lea	 ecx, DWORD PTR _s$[ebp]
  002a9	8b f0		 mov	 esi, eax
  002ab	e8 00 00 00 00	 call	 ?GetToken@CScript@@UAEHH@Z ; CScript::GetToken

; 248  : 			int nItem		= s.GetNumber();

  002b0	6a 00		 push	 0
  002b2	8d 8d 88 e1 ff
	ff		 lea	 ecx, DWORD PTR _s$[ebp]
  002b8	e8 00 00 00 00	 call	 ?GetNumber@CScanner@@QAEHH@Z ; CScanner::GetNumber
  002bd	8b c8		 mov	 ecx, eax

; 249  : 			while( *s.token != '}' )

  002bf	8b 85 c4 e1 ff
	ff		 mov	 eax, DWORD PTR _s$[ebp+60]
  002c5	89 8d 84 e1 ff
	ff		 mov	 DWORD PTR _nItem$3[ebp], ecx
  002cb	80 38 7d	 cmp	 BYTE PTR [eax], 125	; 0000007dH
  002ce	74 46		 je	 SHORT $LN9@ReadIni
  002d0	8d 04 76	 lea	 eax, DWORD PTR [esi+esi*2]
  002d3	8d 34 87	 lea	 esi, DWORD PTR [edi+eax*4]
$LL8@ReadIni:
; File C:\Program Files\Microsoft Visual Studio\2022\Professional\VC\Tools\MSVC\14.44.35207\include\vector

; 844  :         if (_Mylast != _My_data._Myend) {

  002d6	8b 46 48	 mov	 eax, DWORD PTR [esi+72]
  002d9	3b 46 4c	 cmp	 eax, DWORD PTR [esi+76]
  002dc	74 08		 je	 SHORT $LN188@ReadIni

; 860  :             _STD _Construct_in_place(*_Mylast, _STD forward<_Valty>(_Val)...);

  002de	89 08		 mov	 DWORD PTR [eax], ecx

; 869  :         ++_Mylast;

  002e0	83 46 48 04	 add	 DWORD PTR [esi+72], 4

; 845  :             return _Emplace_back_with_unused_capacity(_STD forward<_Valty>(_Val)...);

  002e4	eb 10		 jmp	 SHORT $LN187@ReadIni
$LN188@ReadIni:

; 846  :         }
; 847  : 
; 848  :         return *_Emplace_reallocate(_Mylast, _STD forward<_Valty>(_Val)...);

  002e6	8d 8d 84 e1 ff
	ff		 lea	 ecx, DWORD PTR _nItem$3[ebp]
  002ec	51		 push	 ecx
  002ed	50		 push	 eax
  002ee	8d 4e 44	 lea	 ecx, DWORD PTR [esi+68]
  002f1	e8 00 00 00 00	 call	 ??$_Emplace_reallocate@ABH@?$vector@HV?$allocator@H@std@@@std@@AAEPAHQAHABH@Z ; std::vector<int,std::allocator<int> >::_Emplace_reallocate<int const &>
$LN187@ReadIni:
; File C:\IAGOS\server\v18\Source\Source\DatabaseServer\tlord.cpp

; 252  : 				nItem	= s.GetNumber();

  002f6	6a 00		 push	 0
  002f8	8d 8d 88 e1 ff
	ff		 lea	 ecx, DWORD PTR _s$[ebp]
  002fe	e8 00 00 00 00	 call	 ?GetNumber@CScanner@@QAEHH@Z ; CScanner::GetNumber
  00303	8b c8		 mov	 ecx, eax
  00305	8b 85 c4 e1 ff
	ff		 mov	 eax, DWORD PTR _s$[ebp+60]
  0030b	89 8d 84 e1 ff
	ff		 mov	 DWORD PTR _nItem$3[ebp], ecx
  00311	80 38 7d	 cmp	 BYTE PTR [eax], 125	; 0000007dH
  00314	75 c0		 jne	 SHORT $LL8@ReadIni
$LN9@ReadIni:

; 253  : 			}
; 254  : 		}
; 255  : 		s.GetToken();

  00316	6a 00		 push	 0
  00318	8d 8d 88 e1 ff
	ff		 lea	 ecx, DWORD PTR _s$[ebp]
  0031e	e8 00 00 00 00	 call	 ?GetToken@CScript@@UAEHH@Z ; CScript::GetToken
  00323	83 bd cc e9 ff
	ff 15		 cmp	 DWORD PTR _s$[ebp+2116], 21 ; 00000015H
  0032a	0f 85 50 fd ff
	ff		 jne	 $LL2@ReadIni
$LN209@ReadIni:

; 256  : 	}
; 257  : 	return TRUE;

  00330	be 01 00 00 00	 mov	 esi, 1
$LN29@ReadIni:
  00335	8d 8d 88 e1 ff
	ff		 lea	 ecx, DWORD PTR _s$[ebp]
  0033b	e8 00 00 00 00	 call	 ??1CScript@@UAE@XZ	; CScript::~CScript
  00340	8b c6		 mov	 eax, esi

; 258  : }

  00342	8b 4d f4	 mov	 ecx, DWORD PTR __$EHRec$[ebp]
  00345	64 89 0d 00 00
	00 00		 mov	 DWORD PTR fs:0, ecx
  0034c	59		 pop	 ecx
  0034d	5f		 pop	 edi
  0034e	5e		 pop	 esi
  0034f	8b 4d f0	 mov	 ecx, DWORD PTR __$ArrayPad$[ebp]
  00352	33 cd		 xor	 ecx, ebp
  00354	e8 00 00 00 00	 call	 @__security_check_cookie@4
  00359	8b e5		 mov	 esp, ebp
  0035b	5d		 pop	 ebp
  0035c	c2 04 00	 ret	 4
_TEXT	ENDS
;	COMDAT text$x
text$x	SEGMENT
__unwindfunclet$?ReadIni@CTElection@@AAEHPBD@Z$0:
  00000	8d 8d 88 e1 ff
	ff		 lea	 ecx, DWORD PTR _s$[ebp]
  00006	e9 00 00 00 00	 jmp	 ??1CScript@@UAE@XZ	; CScript::~CScript
  0000b	cc		 int	 3
  0000c	cc		 int	 3
  0000d	cc		 int	 3
  0000e	cc		 int	 3
  0000f	cc		 int	 3
__ehhandler$?ReadIni@CTElection@@AAEHPBD@Z:
  00010	90		 npad	 1
  00011	90		 npad	 1
  00012	8b 54 24 08	 mov	 edx, DWORD PTR [esp+8]
  00016	8d 42 0c	 lea	 eax, DWORD PTR [edx+12]
  00019	8b 8a 84 e1 ff
	ff		 mov	 ecx, DWORD PTR [edx-7804]
  0001f	33 c8		 xor	 ecx, eax
  00021	e8 00 00 00 00	 call	 @__security_check_cookie@4
  00026	8b 4a fc	 mov	 ecx, DWORD PTR [edx-4]
  00029	33 c8		 xor	 ecx, eax
  0002b	e8 00 00 00 00	 call	 @__security_check_cookie@4
  00030	b8 00 00 00 00	 mov	 eax, OFFSET __ehfuncinfo$?ReadIni@CTElection@@AAEHPBD@Z
  00035	e9 00 00 00 00	 jmp	 ___CxxFrameHandler3
text$x	ENDS
?ReadIni@CTElection@@AAEHPBD@Z ENDP			; CTElection::ReadIni
; Function compile flags: /Ogtp
; File C:\IAGOS\server\v18\Source\Source\DatabaseServer\tlord.cpp
;	COMDAT ?DoTestIncVote@CTElection@@MAEHKK@Z
_TEXT	SEGMENT
_idPlayer$ = 8						; size = 4
_idElector$ = 12					; size = 4
?DoTestIncVote@CTElection@@MAEHKK@Z PROC		; CTElection::DoTestIncVote, COMDAT
; _this$ = ecx

; 483  : {	// ĹőÇĄ ŔúŔĺ ą× °á°ú ŔüĽŰ

  00000	55		 push	 ebp
  00001	8b ec		 mov	 ebp, esp
  00003	53		 push	 ebx

; 484  : 	// IElection::IncVote
; 485  : 	election::OutputDebugString( "CTElection.DoTestIncVote: %07d, %07d", idPlayer, idElector );

  00004	8b 5d 0c	 mov	 ebx, DWORD PTR _idElector$[ebp]
  00007	56		 push	 esi
  00008	57		 push	 edi
  00009	8b 7d 08	 mov	 edi, DWORD PTR _idPlayer$[ebp]
  0000c	8b f1		 mov	 esi, ecx
  0000e	53		 push	 ebx
  0000f	57		 push	 edi
  00010	68 00 00 00 00	 push	 OFFSET ??_C@_0CF@GEOBODGJ@CTElection?4DoTestIncVote?3?5?$CF07d?0@
  00015	e8 00 00 00 00	 call	 ?OutputDebugStringA@election@@YAXPBDZZ ; election::OutputDebugStringA

; 486  : 	CLController* pController	= m_pLord->GetController();

  0001a	8b 4e 04	 mov	 ecx, DWORD PTR [esi+4]
  0001d	83 c4 0c	 add	 esp, 12			; 0000000cH
  00020	8b 01		 mov	 eax, DWORD PTR [ecx]
  00022	ff 50 08	 call	 DWORD PTR [eax+8]

; 487  : 	BOOL bRet	= pController->IncVote( idPlayer, idElector );

  00025	53		 push	 ebx
  00026	57		 push	 edi
  00027	8b c8		 mov	 ecx, eax
  00029	e8 00 00 00 00	 call	 ?IncVote@CLController@@QAEHKK@Z ; CLController::IncVote
  0002e	8b f0		 mov	 esi, eax

; 488  : 	CDPTrans::GetInstance()->SendElectionIncVote( idPlayer, idElector, bRet );

  00030	56		 push	 esi
  00031	53		 push	 ebx
  00032	57		 push	 edi
  00033	e8 00 00 00 00	 call	 ?GetInstance@CDPTrans@@SAPAV1@XZ ; CDPTrans::GetInstance
  00038	8b c8		 mov	 ecx, eax
  0003a	e8 00 00 00 00	 call	 ?SendElectionIncVote@CDPTrans@@QAEXKKH@Z ; CDPTrans::SendElectionIncVote

; 489  : 	return bRet;

  0003f	5f		 pop	 edi
  00040	8b c6		 mov	 eax, esi
  00042	5e		 pop	 esi
  00043	5b		 pop	 ebx

; 490  : }

  00044	5d		 pop	 ebp
  00045	c2 08 00	 ret	 8
?DoTestIncVote@CTElection@@MAEHKK@Z ENDP		; CTElection::DoTestIncVote
_TEXT	ENDS
; Function compile flags: /Ogtp
; File C:\IAGOS\server\v18\Source\Source\DatabaseServer\tlord.cpp
;	COMDAT ?DoTestSetPledge@CTElection@@MAEHKPBD@Z
_TEXT	SEGMENT
_idPlayer$ = 8						; size = 4
_szPledge$ = 12						; size = 4
?DoTestSetPledge@CTElection@@MAEHKPBD@Z PROC		; CTElection::DoTestSetPledge, COMDAT
; _this$ = ecx

; 469  : {	// °řľŕ ĽłÁ¤ ŔúŔĺ ą× °á°ú ŔüĽŰ

  00000	55		 push	 ebp
  00001	8b ec		 mov	 ebp, esp
  00003	53		 push	 ebx

; 470  : 	// IElection::SetPledge
; 471  : 	BOOL bRet	= FALSE;
; 472  : 	election::OutputDebugString( "CTElection.DoTestSetPledge: %07d, %s", idPlayer, szPledge );

  00004	8b 5d 08	 mov	 ebx, DWORD PTR _idPlayer$[ebp]
  00007	56		 push	 esi
  00008	57		 push	 edi
  00009	8b 7d 0c	 mov	 edi, DWORD PTR _szPledge$[ebp]
  0000c	8b f1		 mov	 esi, ecx
  0000e	57		 push	 edi
  0000f	53		 push	 ebx
  00010	68 00 00 00 00	 push	 OFFSET ??_C@_0CF@EBIGHEOA@CTElection?4DoTestSetPledge?3?5?$CF07@
  00015	e8 00 00 00 00	 call	 ?OutputDebugStringA@election@@YAXPBDZZ ; election::OutputDebugStringA
  0001a	83 c4 0c	 add	 esp, 12			; 0000000cH

; 473  : 	if( GetState() == eVote )

  0001d	83 7e 10 02	 cmp	 DWORD PTR [esi+16], 2
  00021	75 2b		 jne	 SHORT $LN4@DoTestSetP

; 474  : 	{
; 475  : 		CLController* pController	= m_pLord->GetController();

  00023	8b 4e 04	 mov	 ecx, DWORD PTR [esi+4]
  00026	8b 01		 mov	 eax, DWORD PTR [ecx]
  00028	ff 50 08	 call	 DWORD PTR [eax+8]

; 476  : 		bRet	= pController->SetPledge( idPlayer, szPledge );

  0002b	57		 push	 edi
  0002c	53		 push	 ebx
  0002d	8b c8		 mov	 ecx, eax
  0002f	e8 00 00 00 00	 call	 ?SetPledge@CLController@@QAEHKPBD@Z ; CLController::SetPledge
  00034	8b f0		 mov	 esi, eax

; 477  : 		CDPTrans::GetInstance()->SendElectionSetPledge( idPlayer, szPledge, bRet );

  00036	56		 push	 esi
  00037	57		 push	 edi
  00038	53		 push	 ebx
  00039	e8 00 00 00 00	 call	 ?GetInstance@CDPTrans@@SAPAV1@XZ ; CDPTrans::GetInstance
  0003e	8b c8		 mov	 ecx, eax
  00040	e8 00 00 00 00	 call	 ?SendElectionSetPledge@CDPTrans@@QAEXKPBDH@Z ; CDPTrans::SendElectionSetPledge
  00045	5f		 pop	 edi

; 478  : 	}
; 479  : 	return bRet;

  00046	8b c6		 mov	 eax, esi

; 480  : }

  00048	5e		 pop	 esi
  00049	5b		 pop	 ebx
  0004a	5d		 pop	 ebp
  0004b	c2 08 00	 ret	 8
$LN4@DoTestSetP:
  0004e	5f		 pop	 edi
  0004f	5e		 pop	 esi
  00050	33 c0		 xor	 eax, eax
  00052	5b		 pop	 ebx
  00053	5d		 pop	 ebp
  00054	c2 08 00	 ret	 8
?DoTestSetPledge@CTElection@@MAEHKPBD@Z ENDP		; CTElection::DoTestSetPledge
_TEXT	ENDS
; Function compile flags: /Ogtp
; File C:\IAGOS\server\v18\Source\Source\DatabaseServer\tlord.cpp
;	COMDAT ?DoAddDepositComplete@CTElection@@MAEXK_JJ@Z
_TEXT	SEGMENT
_idPlayer$ = 8						; size = 4
_iDeposit$ = 12						; size = 8
_tCreate$ = 20						; size = 4
?DoAddDepositComplete@CTElection@@MAEXK_JJ@Z PROC	; CTElection::DoAddDepositComplete, COMDAT
; _this$ = ecx

; 466  : }

  00000	c2 10 00	 ret	 16			; 00000010H
?DoAddDepositComplete@CTElection@@MAEXK_JJ@Z ENDP	; CTElection::DoAddDepositComplete
_TEXT	ENDS
; Function compile flags: /Ogtp
; File C:\IAGOS\server\v18\Source\Source\DatabaseServer\tlord.cpp
;	COMDAT ?DoTestAddDeposit@CTElection@@MAEHK_JJ@Z
_TEXT	SEGMENT
_idPlayer$ = 8						; size = 4
_iDeposit$ = 12						; size = 8
_tCreate$ = 20						; size = 4
?DoTestAddDeposit@CTElection@@MAEHK_JJ@Z PROC		; CTElection::DoTestAddDeposit, COMDAT
; _this$ = ecx

; 455  : {	// ±şÁÖ ŔÔÂű ŔúŔĺ ą× °á°ú ŔüĽŰ

  00000	55		 push	 ebp
  00001	8b ec		 mov	 ebp, esp
  00003	53		 push	 ebx

; 456  : 	// IElection::AddDeposit
; 457  : 	election::OutputDebugString( "CTElection.DoTestAddDeposit: %07d, %I64d, %d", idPlayer, iDeposit, tCreate );

  00004	8b 5d 10	 mov	 ebx, DWORD PTR _iDeposit$[ebp+4]
  00007	56		 push	 esi
  00008	57		 push	 edi
  00009	8b 7d 14	 mov	 edi, DWORD PTR _tCreate$[ebp]
  0000c	8b f1		 mov	 esi, ecx
  0000e	57		 push	 edi
  0000f	53		 push	 ebx
  00010	ff 75 0c	 push	 DWORD PTR _iDeposit$[ebp]
  00013	ff 75 08	 push	 DWORD PTR _idPlayer$[ebp]
  00016	68 00 00 00 00	 push	 OFFSET ??_C@_0CN@IFFHNJAO@CTElection?4DoTestAddDeposit?3?5?$CF0@
  0001b	e8 00 00 00 00	 call	 ?OutputDebugStringA@election@@YAXPBDZZ ; election::OutputDebugStringA

; 458  : 	CLController* pController	= m_pLord->GetController();

  00020	8b 4e 04	 mov	 ecx, DWORD PTR [esi+4]
  00023	83 c4 14	 add	 esp, 20			; 00000014H
  00026	8b 01		 mov	 eax, DWORD PTR [ecx]
  00028	ff 50 08	 call	 DWORD PTR [eax+8]

; 459  : 	BOOL bRet	= ( GetState() == eCandidacy ) && pController->AddDeposit( idPlayer, iDeposit, tCreate );

  0002b	83 7e 10 01	 cmp	 DWORD PTR [esi+16], 1
  0002f	75 1a		 jne	 SHORT $LN3@DoTestAddD
  00031	57		 push	 edi
  00032	53		 push	 ebx
  00033	ff 75 0c	 push	 DWORD PTR _iDeposit$[ebp]
  00036	8b c8		 mov	 ecx, eax
  00038	ff 75 08	 push	 DWORD PTR _idPlayer$[ebp]
  0003b	e8 00 00 00 00	 call	 ?AddDeposit@CLController@@QAEHK_JJ@Z ; CLController::AddDeposit
  00040	85 c0		 test	 eax, eax
  00042	74 07		 je	 SHORT $LN3@DoTestAddD
  00044	be 01 00 00 00	 mov	 esi, 1
  00049	eb 02		 jmp	 SHORT $LN4@DoTestAddD
$LN3@DoTestAddD:
  0004b	33 f6		 xor	 esi, esi
$LN4@DoTestAddD:

; 460  : 	CDPTrans::GetInstance()->SendElectionAddDeposit( idPlayer, iDeposit, tCreate, bRet );

  0004d	56		 push	 esi
  0004e	57		 push	 edi
  0004f	53		 push	 ebx
  00050	ff 75 0c	 push	 DWORD PTR _iDeposit$[ebp]
  00053	ff 75 08	 push	 DWORD PTR _idPlayer$[ebp]
  00056	e8 00 00 00 00	 call	 ?GetInstance@CDPTrans@@SAPAV1@XZ ; CDPTrans::GetInstance
  0005b	8b c8		 mov	 ecx, eax
  0005d	e8 00 00 00 00	 call	 ?SendElectionAddDeposit@CDPTrans@@QAEXK_JJH@Z ; CDPTrans::SendElectionAddDeposit

; 461  : 	return bRet;

  00062	5f		 pop	 edi
  00063	8b c6		 mov	 eax, esi
  00065	5e		 pop	 esi
  00066	5b		 pop	 ebx

; 462  : }

  00067	5d		 pop	 ebp
  00068	c2 10 00	 ret	 16			; 00000010H
?DoTestAddDeposit@CTElection@@MAEHK_JJ@Z ENDP		; CTElection::DoTestAddDeposit
_TEXT	ENDS
; Function compile flags: /Ogtp
; File C:\IAGOS\server\v18\Source\Source\DatabaseServer\tlord.cpp
;	COMDAT ?DoTestEndVote@CTElection@@MAEHK@Z
_TEXT	SEGMENT
_idPlayer$ = 8						; size = 4
?DoTestEndVote@CTElection@@MAEHK@Z PROC			; CTElection::DoTestEndVote, COMDAT
; _this$ = ecx

; 434  : {	// ĹőÇĄ Áľ·á »óĹÂ Ăł¸®ą× ŔüĽŰ

  00000	55		 push	 ebp
  00001	8b ec		 mov	 ebp, esp
  00003	56		 push	 esi
  00004	57		 push	 edi

; 435  : 	// IElection::EndVote
; 436  : 	election::OutputDebugString( "CTElection.DoTestEndVote" );

  00005	68 00 00 00 00	 push	 OFFSET ??_C@_0BJ@NBOADCDH@CTElection?4DoTestEndVote@
  0000a	8b f1		 mov	 esi, ecx
  0000c	e8 00 00 00 00	 call	 ?OutputDebugStringA@election@@YAXPBDZZ ; election::OutputDebugStringA

; 437  : 	CLController* pController	= m_pLord->GetController();

  00011	8b 4e 04	 mov	 ecx, DWORD PTR [esi+4]
  00014	83 c4 04	 add	 esp, 4
  00017	8b 01		 mov	 eax, DWORD PTR [ecx]
  00019	ff 50 08	 call	 DWORD PTR [eax+8]

; 438  : 	if( pController->EndVote( idPlayer ) )	// »óĹÂ ŔúŔĺ

  0001c	8b 7d 08	 mov	 edi, DWORD PTR _idPlayer$[ebp]
  0001f	8b c8		 mov	 ecx, eax
  00021	57		 push	 edi
  00022	e8 00 00 00 00	 call	 ?EndVote@CLController@@QAEHK@Z ; CLController::EndVote
  00027	85 c0		 test	 eax, eax
  00029	74 27		 je	 SHORT $LN2@DoTestEndV

; 439  : 	{
; 440  : 		CDPTrans::GetInstance()->SendElectionEndVote( idPlayer );		// ŔüĽŰ

  0002b	57		 push	 edi
  0002c	e8 00 00 00 00	 call	 ?GetInstance@CDPTrans@@SAPAV1@XZ ; CDPTrans::GetInstance
  00031	8b c8		 mov	 ecx, eax
  00033	e8 00 00 00 00	 call	 ?SendElectionEndVote@CDPTrans@@QAEXK@Z ; CDPTrans::SendElectionEndVote

; 441  : 		PostDepositToAllCandidate();	// ŔÔÂű±Ý ąÝČŻ

  00038	8b ce		 mov	 ecx, esi
  0003a	e8 00 00 00 00	 call	 ?PostDepositToAllCandidate@CTElection@@AAEXXZ ; CTElection::PostDepositToAllCandidate

; 442  : 		PostLordItems( idPlayer );		// ±şÁÖ ľĆŔĚĹŰ Áö±Ţ

  0003f	57		 push	 edi
  00040	8b ce		 mov	 ecx, esi
  00042	e8 00 00 00 00	 call	 ?PostLordItems@CTElection@@AAEXK@Z ; CTElection::PostLordItems
  00047	5f		 pop	 edi

; 443  : 		return TRUE;

  00048	b8 01 00 00 00	 mov	 eax, 1

; 446  : }

  0004d	5e		 pop	 esi
  0004e	5d		 pop	 ebp
  0004f	c2 04 00	 ret	 4
$LN2@DoTestEndV:
  00052	5f		 pop	 edi

; 444  : 	}
; 445  : 	return FALSE;

  00053	33 c0		 xor	 eax, eax

; 446  : }

  00055	5e		 pop	 esi
  00056	5d		 pop	 ebp
  00057	c2 04 00	 ret	 4
?DoTestEndVote@CTElection@@MAEHK@Z ENDP			; CTElection::DoTestEndVote
_TEXT	ENDS
; Function compile flags: /Ogtp
; File C:\IAGOS\server\v18\Source\Source\DatabaseServer\tlord.cpp
;	COMDAT ?DoTestBeginVote@CTElection@@MAEHAAH@Z
_TEXT	SEGMENT
_nRequirement$ = 8					; size = 4
?DoTestBeginVote@CTElection@@MAEHAAH@Z PROC		; CTElection::DoTestBeginVote, COMDAT
; _this$ = ecx

; 420  : {	// ĹőÇĄ ˝ĂŔŰ »óĹÂŔÇ ŔúŔĺ ą× ŔüĽŰ

  00000	55		 push	 ebp
  00001	8b ec		 mov	 ebp, esp
  00003	56		 push	 esi

; 421  : 	election::OutputDebugString( "CTElection.DoTestBeginVote" );

  00004	68 00 00 00 00	 push	 OFFSET ??_C@_0BL@LMGPGHGD@CTElection?4DoTestBeginVote@
  00009	8b f1		 mov	 esi, ecx
  0000b	e8 00 00 00 00	 call	 ?OutputDebugStringA@election@@YAXPBDZZ ; election::OutputDebugStringA

; 422  : 	CLController* pController	= m_pLord->GetController();

  00010	8b 4e 04	 mov	 ecx, DWORD PTR [esi+4]
  00013	83 c4 04	 add	 esp, 4
  00016	8b 01		 mov	 eax, DWORD PTR [ecx]
  00018	ff 50 08	 call	 DWORD PTR [eax+8]

; 423  : 	int nTotal	= pController->BeginVote();

  0001b	8b c8		 mov	 ecx, eax
  0001d	e8 00 00 00 00	 call	 ?BeginVote@CLController@@QAEHXZ ; CLController::BeginVote

; 424  : 	if( nTotal >= 0 )

  00022	85 c0		 test	 eax, eax
  00024	78 2c		 js	 SHORT $LN2@DoTestBegi

; 425  : 	{
; 426  : 		nRequirement	= static_cast<int>( nTotal * property.fRequirementFactor );

  00026	66 0f 6e c0	 movd	 xmm0, eax
  0002a	8b 45 08	 mov	 eax, DWORD PTR _nRequirement$[ebp]
  0002d	0f 5b c0	 cvtdq2ps xmm0, xmm0
  00030	f3 0f 59 46 5c	 mulss	 xmm0, DWORD PTR [esi+92]
  00035	f3 0f 2c c8	 cvttss2si ecx, xmm0

; 427  : 		CDPTrans::GetInstance()->SendElectionBeginVote( nRequirement );

  00039	51		 push	 ecx
  0003a	89 08		 mov	 DWORD PTR [eax], ecx
  0003c	e8 00 00 00 00	 call	 ?GetInstance@CDPTrans@@SAPAV1@XZ ; CDPTrans::GetInstance
  00041	8b c8		 mov	 ecx, eax
  00043	e8 00 00 00 00	 call	 ?SendElectionBeginVote@CDPTrans@@QAEXH@Z ; CDPTrans::SendElectionBeginVote

; 428  : 		return TRUE;

  00048	b8 01 00 00 00	 mov	 eax, 1
  0004d	5e		 pop	 esi

; 431  : }

  0004e	5d		 pop	 ebp
  0004f	c2 04 00	 ret	 4
$LN2@DoTestBegi:

; 429  : 	}
; 430  : 	return FALSE;

  00052	33 c0		 xor	 eax, eax
  00054	5e		 pop	 esi

; 431  : }

  00055	5d		 pop	 ebp
  00056	c2 04 00	 ret	 4
?DoTestBeginVote@CTElection@@MAEHAAH@Z ENDP		; CTElection::DoTestBeginVote
_TEXT	ENDS
; Function compile flags: /Ogtp
; File C:\IAGOS\server\v18\Source\Source\DatabaseServer\tlord.cpp
; File C:\Program Files\Microsoft Visual Studio\2022\Professional\VC\Tools\MSVC\14.44.35207\include\vector
; File C:\IAGOS\server\v18\Source\Source\DatabaseServer\tlord.h
; File C:\IAGOS\server\v18\Source\Source\DatabaseServer\tlord.cpp
; File C:\Program Files\Microsoft Visual Studio\2022\Professional\VC\Tools\MSVC\14.44.35207\include\algorithm
; File C:\IAGOS\server\v18\Source\Source\DatabaseServer\tlord.cpp
;	COMDAT ?DoReturnDeposit@CTElection@@MAEXXZ
_TEXT	SEGMENT
__Func$ = -4						; size = 4
?DoReturnDeposit@CTElection@@MAEXXZ PROC		; CTElection::DoReturnDeposit, COMDAT
; _this$ = ecx

; 411  : {	// ¸đµç ČÄş¸żˇ ´ëÇŃ żěĆíŔ» ĹëÇŃ ŔÔÂű±Ý ąÝČŻ

  00000	55		 push	 ebp
  00001	8b ec		 mov	 ebp, esp
  00003	51		 push	 ecx
  00004	56		 push	 esi
  00005	57		 push	 edi

; 412  : 	// IElection::BeginVote
; 413  : 	election::OutputDebugString( "CTElection.DoReturnDeposit" );

  00006	68 00 00 00 00	 push	 OFFSET ??_C@_0BL@GDEBELLG@CTElection?4DoReturnDeposit@
  0000b	8b f1		 mov	 esi, ecx
  0000d	e8 00 00 00 00	 call	 ?OutputDebugStringA@election@@YAXPBDZZ ; election::OutputDebugStringA

; 414  : 	CLController* pController	= m_pLord->GetController();

  00012	8b 4e 04	 mov	 ecx, DWORD PTR [esi+4]
  00015	83 c4 04	 add	 esp, 4
  00018	8b 01		 mov	 eax, DWORD PTR [ecx]
  0001a	ff 50 08	 call	 DWORD PTR [eax+8]
; File C:\Program Files\Microsoft Visual Studio\2022\Professional\VC\Tools\MSVC\14.44.35207\include\vector

; 46   :     _CONSTEXPR20 _Vector_const_iterator(_Tptr _Parg, const _Container_base* _Pvector) noexcept : _Ptr(_Parg) {

  0001d	8b 7e 18	 mov	 edi, DWORD PTR [esi+24]
  00020	8b 76 14	 mov	 esi, DWORD PTR [esi+20]
  00023	83 c6 50	 add	 esi, 80			; 00000050H
; File C:\IAGOS\server\v18\Source\Source\DatabaseServer\tlord.h

; 151  : 	PostDeposit( CQuery* pQuery )	{	m_pQuery	= pQuery;	}

  00026	8b 40 0c	 mov	 eax, DWORD PTR [eax+12]
; File C:\IAGOS\server\v18\Source\Source\DatabaseServer\tlord.cpp

; 416  : 	for_each( m_vCandidates.begin() + IElection::nMaxCandidates, m_vCandidates.end(), PostDeposit( pController->GetQueryObject() ) );

  00029	89 45 fc	 mov	 DWORD PTR __Func$[ebp], eax
; File C:\Program Files\Microsoft Visual Studio\2022\Professional\VC\Tools\MSVC\14.44.35207\include\algorithm

; 402  :     for (; _UFirst != _ULast; ++_UFirst) {

  0002c	3b f7		 cmp	 esi, edi
  0002e	74 10		 je	 SHORT $LN34@DoReturnDe
$LL35@DoReturnDe:

; 403  :         _Func(*_UFirst);

  00030	56		 push	 esi
  00031	8d 4d fc	 lea	 ecx, DWORD PTR __Func$[ebp]
  00034	e8 00 00 00 00	 call	 ??RPostDeposit@@QBEXABV?$shared_ptr@VCCandidate@@@std@@@Z ; PostDeposit::operator()
  00039	83 c6 08	 add	 esi, 8
  0003c	3b f7		 cmp	 esi, edi
  0003e	75 f0		 jne	 SHORT $LL35@DoReturnDe
$LN34@DoReturnDe:
  00040	5f		 pop	 edi
; File C:\IAGOS\server\v18\Source\Source\DatabaseServer\tlord.cpp

; 417  : }

  00041	5e		 pop	 esi
  00042	8b e5		 mov	 esp, ebp
  00044	5d		 pop	 ebp
  00045	c3		 ret	 0
?DoReturnDeposit@CTElection@@MAEXXZ ENDP		; CTElection::DoReturnDeposit
_TEXT	ENDS
; Function compile flags: /Ogtp
; File C:\IAGOS\server\v18\Source\Source\DatabaseServer\tlord.cpp
;	COMDAT ?DoTestBeginCandidacy@CTElection@@MAEHXZ
_TEXT	SEGMENT
?DoTestBeginCandidacy@CTElection@@MAEHXZ PROC		; CTElection::DoTestBeginCandidacy, COMDAT
; _this$ = ecx

; 342  : {	// ŔÔČÄş¸ °ł˝Ă »óĹÂŔÇ ŔúŔĺ ą× żůµĺ Ľ­ąö ŔüĽŰ

  00000	56		 push	 esi

; 343  : 	// IElection::BeginCandidacy
; 344  : 	election::OutputDebugString( "CTElection.DoTestBeginCandidacy" );

  00001	68 00 00 00 00	 push	 OFFSET ??_C@_0CA@EFGOLAFI@CTElection?4DoTestBeginCandidacy@
  00006	8b f1		 mov	 esi, ecx
  00008	e8 00 00 00 00	 call	 ?OutputDebugStringA@election@@YAXPBDZZ ; election::OutputDebugStringA

; 345  : 	CLController* pController	= m_pLord->GetController();

  0000d	8b 4e 04	 mov	 ecx, DWORD PTR [esi+4]
  00010	83 c4 04	 add	 esp, 4
  00013	8b 01		 mov	 eax, DWORD PTR [ecx]
  00015	ff 50 08	 call	 DWORD PTR [eax+8]

; 346  : 	BOOL bResult	= pController->BeginCandidacy();

  00018	8b c8		 mov	 ecx, eax
  0001a	e8 00 00 00 00	 call	 ?BeginCandidacy@CLController@@QAEHXZ ; CLController::BeginCandidacy
  0001f	8b f0		 mov	 esi, eax

; 347  : 	if( bResult )

  00021	85 f6		 test	 esi, esi
  00023	74 0e		 je	 SHORT $LN2@DoTestBegi

; 348  : 		CDPTrans::GetInstance()->SendElectionBeginCandidacy();

  00025	e8 00 00 00 00	 call	 ?GetInstance@CDPTrans@@SAPAV1@XZ ; CDPTrans::GetInstance
  0002a	8b c8		 mov	 ecx, eax
  0002c	e8 00 00 00 00	 call	 ?SendElectionBeginCandidacy@CDPTrans@@QAEXXZ ; CDPTrans::SendElectionBeginCandidacy

; 349  : 	return bResult;

  00031	8b c6		 mov	 eax, esi
$LN2@DoTestBegi:

; 350  : }

  00033	5e		 pop	 esi
  00034	c3		 ret	 0
?DoTestBeginCandidacy@CTElection@@MAEHXZ ENDP		; CTElection::DoTestBeginCandidacy
_TEXT	ENDS
; Function compile flags: /Ogtp
; File C:\IAGOS\server\v18\Source\Source\DatabaseServer\tlord.cpp
; File C:\Program Files\Microsoft Visual Studio\2022\Professional\VC\Tools\MSVC\14.44.35207\atlmfc\include\atltime.h
; File C:\IAGOS\server\v18\Source\Source\DatabaseServer\tlord.cpp
; File C:\Program Files\Microsoft Visual Studio\2022\Professional\VC\Tools\MSVC\14.44.35207\atlmfc\include\atltime.h
; File C:\IAGOS\server\v18\Source\Source\DatabaseServer\tlord.cpp
;	COMDAT ?stot@CTElection@@SAJPBD@Z
_TEXT	SEGMENT
_nYear$1$ = -80						; size = 4
_nDay$1$ = -76						; size = 4
_nMonth$1$ = -72					; size = 4
_szMonth$ = -68						; size = 3
_szDay$ = -64						; size = 3
_szHour$ = -60						; size = 3
_szMin$ = -56						; size = 3
_szSec$ = -52						; size = 3
_atm$1 = -48						; size = 36
_szYear$ = -12						; size = 5
__$ArrayPad$ = -4					; size = 4
_sz$ = 8						; size = 4
?stot@CTElection@@SAJPBD@Z PROC				; CTElection::stot, COMDAT

; 267  : {

  00000	55		 push	 ebp
  00001	8b ec		 mov	 ebp, esp
  00003	83 ec 50	 sub	 esp, 80			; 00000050H
  00006	a1 00 00 00 00	 mov	 eax, DWORD PTR ___security_cookie
  0000b	33 c5		 xor	 eax, ebp
  0000d	89 45 fc	 mov	 DWORD PTR __$ArrayPad$[ebp], eax
  00010	53		 push	 ebx
  00011	56		 push	 esi
  00012	8b 75 08	 mov	 esi, DWORD PTR _sz$[ebp]

; 268  : 	if( strlen( sz ) != 14 )

  00015	8b c6		 mov	 eax, esi
  00017	57		 push	 edi
  00018	8d 50 01	 lea	 edx, DWORD PTR [eax+1]
  0001b	0f 1f 44 00 00	 npad	 5
$LL69@stot:
  00020	8a 08		 mov	 cl, BYTE PTR [eax]
  00022	40		 inc	 eax
  00023	84 c9		 test	 cl, cl
  00025	75 f9		 jne	 SHORT $LL69@stot
  00027	2b c2		 sub	 eax, edx
  00029	83 f8 0e	 cmp	 eax, 14			; 0000000eH
  0002c	74 0e		 je	 SHORT $LN2@stot

; 269  : 		Error( "CTElection.stot: %s", sz );

  0002e	56		 push	 esi
  0002f	68 00 00 00 00	 push	 OFFSET ??_C@_0BE@HLJDCBPH@CTElection?4stot?3?5?$CFs@
  00034	e8 00 00 00 00	 call	 ?Error@@YAPBDPBDZZ	; Error
  00039	83 c4 08	 add	 esp, 8
$LN2@stot:

; 270  : 	char szYear[5]	= { 0,};
; 271  : 	char szMonth[3]	= { 0,};

  0003c	33 c0		 xor	 eax, eax
  0003e	c7 45 f4 00 00
	00 00		 mov	 DWORD PTR _szYear$[ebp], 0

; 272  : 	char szDay[3]	= { 0,};
; 273  : 	char szHour[3]	= { 0,};
; 274  : 	char szMin[3]	= { 0,};
; 275  : 	char szSec[3]	= { 0, };
; 276  : 	strncpy( szYear, sz, 4 );

  00045	6a 04		 push	 4
  00047	66 89 45 bc	 mov	 WORD PTR _szMonth$[ebp], ax
  0004b	88 45 be	 mov	 BYTE PTR _szMonth$[ebp+2], al
  0004e	66 89 45 c0	 mov	 WORD PTR _szDay$[ebp], ax
  00052	88 45 c2	 mov	 BYTE PTR _szDay$[ebp+2], al
  00055	66 89 45 c4	 mov	 WORD PTR _szHour$[ebp], ax
  00059	88 45 c6	 mov	 BYTE PTR _szHour$[ebp+2], al
  0005c	66 89 45 c8	 mov	 WORD PTR _szMin$[ebp], ax
  00060	88 45 ca	 mov	 BYTE PTR _szMin$[ebp+2], al
  00063	66 89 45 cc	 mov	 WORD PTR _szSec$[ebp], ax
  00067	88 45 ce	 mov	 BYTE PTR _szSec$[ebp+2], al
  0006a	8d 45 f4	 lea	 eax, DWORD PTR _szYear$[ebp]
  0006d	56		 push	 esi
  0006e	50		 push	 eax
  0006f	c6 45 f8 00	 mov	 BYTE PTR _szYear$[ebp+4], 0
  00073	e8 00 00 00 00	 call	 _strncpy

; 277  : 	strncpy( szMonth, sz+4, 2 );

  00078	6a 02		 push	 2
  0007a	8d 46 04	 lea	 eax, DWORD PTR [esi+4]
  0007d	50		 push	 eax
  0007e	8d 45 bc	 lea	 eax, DWORD PTR _szMonth$[ebp]
  00081	50		 push	 eax
  00082	e8 00 00 00 00	 call	 _strncpy

; 278  : 	strncpy( szDay, sz+6, 2 );

  00087	6a 02		 push	 2
  00089	8d 46 06	 lea	 eax, DWORD PTR [esi+6]
  0008c	50		 push	 eax
  0008d	8d 45 c0	 lea	 eax, DWORD PTR _szDay$[ebp]
  00090	50		 push	 eax
  00091	e8 00 00 00 00	 call	 _strncpy

; 279  : 	strncpy( szHour, sz+8, 2 );

  00096	6a 02		 push	 2
  00098	8d 46 08	 lea	 eax, DWORD PTR [esi+8]
  0009b	50		 push	 eax
  0009c	8d 45 c4	 lea	 eax, DWORD PTR _szHour$[ebp]
  0009f	50		 push	 eax
  000a0	e8 00 00 00 00	 call	 _strncpy

; 280  : 	strncpy( szMin, sz+10, 2 );

  000a5	6a 02		 push	 2
  000a7	8d 46 0a	 lea	 eax, DWORD PTR [esi+10]
  000aa	50		 push	 eax
  000ab	8d 45 c8	 lea	 eax, DWORD PTR _szMin$[ebp]
  000ae	50		 push	 eax
  000af	e8 00 00 00 00	 call	 _strncpy

; 281  : 	strncpy( szSec, sz+12, 2 );

  000b4	6a 02		 push	 2
  000b6	8d 46 0c	 lea	 eax, DWORD PTR [esi+12]
  000b9	50		 push	 eax
  000ba	8d 45 cc	 lea	 eax, DWORD PTR _szSec$[ebp]
  000bd	50		 push	 eax
  000be	e8 00 00 00 00	 call	 _strncpy
  000c3	83 c4 48	 add	 esp, 72			; 00000048H

; 282  : 	CTime tm( atoi( szYear ), atoi( szMonth ), atoi( szDay ), atoi( szHour ), atoi( szMin ), atoi( szSec ) );

  000c6	8d 45 cc	 lea	 eax, DWORD PTR _szSec$[ebp]
  000c9	50		 push	 eax
  000ca	e8 00 00 00 00	 call	 _atoi
  000cf	8b f0		 mov	 esi, eax
  000d1	8d 45 c8	 lea	 eax, DWORD PTR _szMin$[ebp]
  000d4	50		 push	 eax
  000d5	e8 00 00 00 00	 call	 _atoi
  000da	8b f8		 mov	 edi, eax
  000dc	8d 45 c4	 lea	 eax, DWORD PTR _szHour$[ebp]
  000df	50		 push	 eax
  000e0	e8 00 00 00 00	 call	 _atoi
  000e5	8b d8		 mov	 ebx, eax
  000e7	8d 45 c0	 lea	 eax, DWORD PTR _szDay$[ebp]
  000ea	50		 push	 eax
  000eb	e8 00 00 00 00	 call	 _atoi
  000f0	89 45 b4	 mov	 DWORD PTR _nDay$1$[ebp], eax
  000f3	8d 45 bc	 lea	 eax, DWORD PTR _szMonth$[ebp]
  000f6	50		 push	 eax
  000f7	e8 00 00 00 00	 call	 _atoi
  000fc	89 45 b8	 mov	 DWORD PTR _nMonth$1$[ebp], eax
  000ff	8d 45 f4	 lea	 eax, DWORD PTR _szYear$[ebp]
  00102	50		 push	 eax
  00103	e8 00 00 00 00	 call	 _atoi
  00108	83 c4 18	 add	 esp, 24			; 00000018H
  0010b	89 45 b0	 mov	 DWORD PTR _nYear$1$[ebp], eax
; File C:\Program Files\Microsoft Visual Studio\2022\Professional\VC\Tools\MSVC\14.44.35207\atlmfc\include\atltime.h

; 436  : 	ATLENSURE( nYear >= 1970 );

  0010e	3d b2 07 00 00	 cmp	 eax, 1970		; 000007b2H
  00113	7c 74		 jl	 SHORT $LN63@stot

; 437  : 	ATLENSURE( nMonth >= 1 && nMonth <= 12 );

  00115	8b 4d b8	 mov	 ecx, DWORD PTR _nMonth$1$[ebp]
  00118	49		 dec	 ecx
  00119	83 f9 0b	 cmp	 ecx, 11			; 0000000bH
  0011c	77 6b		 ja	 SHORT $LN63@stot

; 438  : 	ATLENSURE( nDay >= 1 && nDay <= 31 );

  0011e	8b 55 b4	 mov	 edx, DWORD PTR _nDay$1$[ebp]
  00121	8d 42 ff	 lea	 eax, DWORD PTR [edx-1]
  00124	83 f8 1e	 cmp	 eax, 30			; 0000001eH
  00127	77 60		 ja	 SHORT $LN63@stot

; 439  : 	ATLENSURE( nHour >= 0 && nHour <= 23 );

  00129	83 fb 17	 cmp	 ebx, 23			; 00000017H
  0012c	77 5b		 ja	 SHORT $LN63@stot

; 440  : 	ATLENSURE( nMin >= 0 && nMin <= 59 );

  0012e	83 ff 3b	 cmp	 edi, 59			; 0000003bH
  00131	77 56		 ja	 SHORT $LN63@stot

; 441  : 	ATLENSURE( nSec >= 0 && nSec <= 59 );

  00133	83 fe 3b	 cmp	 esi, 59			; 0000003bH
  00136	77 51		 ja	 SHORT $LN63@stot

; 442  : 
; 443  : #pragma warning (pop)
; 444  : 
; 445  : 	struct tm atm;
; 446  : 
; 447  : 	atm.tm_sec = nSec;
; 448  : 	atm.tm_min = nMin;
; 449  : 	atm.tm_hour = nHour;
; 450  : 	atm.tm_mday = nDay;
; 451  : 	atm.tm_mon = nMonth - 1;        // tm_mon is 0 based
; 452  : 	atm.tm_year = nYear - 1900;     // tm_year is 1900 based

  00138	8b 45 b0	 mov	 eax, DWORD PTR _nYear$1$[ebp]
  0013b	05 94 f8 ff ff	 add	 eax, -1900		; fffff894H
  00140	89 75 d0	 mov	 DWORD PTR _atm$1[ebp], esi
  00143	89 45 e4	 mov	 DWORD PTR _atm$1[ebp+20], eax

; 453  : 	atm.tm_isdst = nDST;
; 454  : 
; 455  : 	m_time = _mktime64(&atm);

  00146	8d 45 d0	 lea	 eax, DWORD PTR _atm$1[ebp]
  00149	50		 push	 eax
  0014a	89 7d d4	 mov	 DWORD PTR _atm$1[ebp+4], edi
  0014d	89 5d d8	 mov	 DWORD PTR _atm$1[ebp+8], ebx
  00150	89 55 dc	 mov	 DWORD PTR _atm$1[ebp+12], edx
  00153	89 4d e0	 mov	 DWORD PTR _atm$1[ebp+16], ecx
  00156	c7 45 f0 ff ff
	ff ff		 mov	 DWORD PTR _atm$1[ebp+32], -1
  0015d	e8 00 00 00 00	 call	 __mktime64
  00162	83 c4 04	 add	 esp, 4
  00165	8b c8		 mov	 ecx, eax
  00167	23 ca		 and	 ecx, edx
  00169	5f		 pop	 edi
  0016a	5e		 pop	 esi
  0016b	5b		 pop	 ebx
