; Listing generated by Microsoft (R) Optimizing Compiler Version 19.44.35225.0 

	TITLE	C:\IAGOS\server\v18\Source\Output\DatabaseServer\Release\UserTaskBar.obj
	.686P
	.XMM
	include listing.inc
	.model	flat

INCLUDELIB LIBCMT
INCLUDELIB OLDNAMES

PUBLIC	?__empty_global_delete@@YAXPAX@Z		; __empty_global_delete
PUBLIC	?__empty_global_delete@@YAXPAXI@Z		; __empty_global_delete
PUBLIC	??0CUserTaskBar@@QAE@XZ				; CUserTaskBar::CUserTaskBar
PUBLIC	??1CUserTaskBar@@UAE@XZ				; CUserTaskBar::~CUserTaskBar
PUBLIC	?Serialize@CUserTaskBar@@QAEXAAVCAr@@@Z		; CUserTaskBar::Serialize
PUBLIC	?SetShortcut@CUserTaskBar@@QAEXHKKKKKH@Z	; CUserTaskBar::SetShortcut
PUBLIC	?InitTaskBar@CUserTaskBar@@QAEXXZ		; CUserTaskBar::InitTaskBar
PUBLIC	?InitTaskBarShorcutKind@CUserTaskBar@@QAEXK@Z	; CUserTaskBar::InitTaskBarShorcutKind
PUBLIC	??_GCUserTaskBar@@UAEPAXI@Z			; CUserTaskBar::`scalar deleting destructor'
PUBLIC	??$?6H@CAr@@QAEAAV0@ABH@Z			; CAr::operator<<<int>
PUBLIC	??$?6K@CAr@@QAEAAV0@ABK@Z			; CAr::operator<<<unsigned long>
PUBLIC	??$?5H@CAr@@QAEAAV0@AAH@Z			; CAr::operator>><int>
PUBLIC	??$?5K@CAr@@QAEAAV0@AAK@Z			; CAr::operator>><unsigned long>
PUBLIC	??_7CUserTaskBar@@6B@				; CUserTaskBar::`vftable'
PUBLIC	??_C@_0CE@CCMODOGC@CUserTaskBar?3?3SetShortcut?5nWher@ ; `string'
PUBLIC	??_R4CUserTaskBar@@6B@				; CUserTaskBar::`RTTI Complete Object Locator'
PUBLIC	??_R0?AVCUserTaskBar@@@8			; CUserTaskBar `RTTI Type Descriptor'
PUBLIC	??_R3CUserTaskBar@@8				; CUserTaskBar::`RTTI Class Hierarchy Descriptor'
PUBLIC	??_R2CUserTaskBar@@8				; CUserTaskBar::`RTTI Base Class Array'
PUBLIC	??_R1A@?0A@EA@CUserTaskBar@@8			; CUserTaskBar::`RTTI Base Class Descriptor at (0,-1,0,64)'
EXTRN	??3@YAXPAXI@Z:PROC				; operator delete
EXTRN	?Error@@YAPBDPBDZZ:PROC				; Error
EXTRN	?CheckBuf@CAr@@QAEXI@Z:PROC			; CAr::CheckBuf
EXTRN	?WriteString@CAr@@QAEXPBD@Z:PROC		; CAr::WriteString
EXTRN	?ReadString@CAr@@QAEPADPADH@Z:PROC		; CAr::ReadString
EXTRN	?GetBuffer@CAr@@QAEPAEPAH@Z:PROC		; CAr::GetBuffer
EXTRN	??_ECUserTaskBar@@UAEPAXI@Z:PROC		; CUserTaskBar::`vector deleting destructor'
EXTRN	_memset:PROC
EXTRN	??_7type_info@@6B@:QWORD			; type_info::`vftable'
;	COMDAT ??_R1A@?0A@EA@CUserTaskBar@@8
rdata$r	SEGMENT
??_R1A@?0A@EA@CUserTaskBar@@8 DD FLAT:??_R0?AVCUserTaskBar@@@8 ; CUserTaskBar::`RTTI Base Class Descriptor at (0,-1,0,64)'
	DD	00H
	DD	00H
	DD	0ffffffffH
	DD	00H
	DD	040H
	DD	FLAT:??_R3CUserTaskBar@@8
rdata$r	ENDS
;	COMDAT ??_R2CUserTaskBar@@8
rdata$r	SEGMENT
??_R2CUserTaskBar@@8 DD FLAT:??_R1A@?0A@EA@CUserTaskBar@@8 ; CUserTaskBar::`RTTI Base Class Array'
rdata$r	ENDS
;	COMDAT ??_R3CUserTaskBar@@8
rdata$r	SEGMENT
??_R3CUserTaskBar@@8 DD 00H				; CUserTaskBar::`RTTI Class Hierarchy Descriptor'
	DD	00H
	DD	01H
	DD	FLAT:??_R2CUserTaskBar@@8
rdata$r	ENDS
;	COMDAT ??_R0?AVCUserTaskBar@@@8
data$rs	SEGMENT
??_R0?AVCUserTaskBar@@@8 DD FLAT:??_7type_info@@6B@	; CUserTaskBar `RTTI Type Descriptor'
	DD	00H
	DB	'.?AVCUserTaskBar@@', 00H
data$rs	ENDS
;	COMDAT ??_R4CUserTaskBar@@6B@
rdata$r	SEGMENT
??_R4CUserTaskBar@@6B@ DD 00H				; CUserTaskBar::`RTTI Complete Object Locator'
	DD	00H
	DD	00H
	DD	FLAT:??_R0?AVCUserTaskBar@@@8
	DD	FLAT:??_R3CUserTaskBar@@8
rdata$r	ENDS
;	COMDAT ??_C@_0CE@CCMODOGC@CUserTaskBar?3?3SetShortcut?5nWher@
CONST	SEGMENT
??_C@_0CE@CCMODOGC@CUserTaskBar?3?3SetShortcut?5nWher@ DB 'CUserTaskBar::'
	DB	'SetShortcut nWhere:%d', 00H			; `string'
CONST	ENDS
;	COMDAT ??_7CUserTaskBar@@6B@
CONST	SEGMENT
??_7CUserTaskBar@@6B@ DD FLAT:??_R4CUserTaskBar@@6B@	; CUserTaskBar::`vftable'
	DD	FLAT:??_ECUserTaskBar@@UAEPAXI@Z
CONST	ENDS
; Function compile flags: /Ogtp
; File C:\IAGOS\server\v18\Source\Source\_Network\Misc\Include\Ar.h
;	COMDAT ??$?5K@CAr@@QAEAAV0@AAK@Z
_TEXT	SEGMENT
_t$ = 8							; size = 4
??$?5K@CAr@@QAEAAV0@AAK@Z PROC				; CAr::operator>><unsigned long>, COMDAT
; _this$ = ecx

; 302  : {

  00000	55		 push	 ebp
  00001	8b ec		 mov	 ebp, esp
  00003	8b d1		 mov	 edx, ecx

; 303  : 	if (m_lpBufCur + sizeof(T) <= m_lpBufMax)

  00005	8b 4a 08	 mov	 ecx, DWORD PTR [edx+8]
  00008	8d 41 04	 lea	 eax, DWORD PTR [ecx+4]
  0000b	3b 42 0c	 cmp	 eax, DWORD PTR [edx+12]
  0000e	8b 45 08	 mov	 eax, DWORD PTR _t$[ebp]
  00011	77 0e		 ja	 SHORT $LN2@operator

; 304  : 	{
; 305  : 		t = *(UNALIGNED T*)m_lpBufCur;

  00013	8b 09		 mov	 ecx, DWORD PTR [ecx]
  00015	89 08		 mov	 DWORD PTR [eax], ecx

; 312  : 	}
; 313  : 	return *this;
; 314  : }

  00017	8b c2		 mov	 eax, edx
  00019	83 42 08 04	 add	 DWORD PTR [edx+8], 4
  0001d	5d		 pop	 ebp
  0001e	c2 04 00	 ret	 4
$LN2@operator:

; 306  : 		m_lpBufCur += sizeof(T);
; 307  : 	}
; 308  : 	else
; 309  : 	{
; 310  : 		t = T();

  00021	c7 00 00 00 00
	00		 mov	 DWORD PTR [eax], 0

; 311  : 		m_lpBufCur = m_lpBufMax;

  00027	8b 42 0c	 mov	 eax, DWORD PTR [edx+12]
  0002a	89 42 08	 mov	 DWORD PTR [edx+8], eax

; 312  : 	}
; 313  : 	return *this;
; 314  : }

  0002d	8b c2		 mov	 eax, edx
  0002f	5d		 pop	 ebp
  00030	c2 04 00	 ret	 4
??$?5K@CAr@@QAEAAV0@AAK@Z ENDP				; CAr::operator>><unsigned long>
_TEXT	ENDS
; Function compile flags: /Ogtp
; File C:\IAGOS\server\v18\Source\Source\_Network\Misc\Include\Ar.h
;	COMDAT ??$?5H@CAr@@QAEAAV0@AAH@Z
_TEXT	SEGMENT
_t$ = 8							; size = 4
??$?5H@CAr@@QAEAAV0@AAH@Z PROC				; CAr::operator>><int>, COMDAT
; _this$ = ecx

; 302  : {

  00000	55		 push	 ebp
  00001	8b ec		 mov	 ebp, esp
  00003	8b d1		 mov	 edx, ecx

; 303  : 	if (m_lpBufCur + sizeof(T) <= m_lpBufMax)

  00005	8b 4a 08	 mov	 ecx, DWORD PTR [edx+8]
  00008	8d 41 04	 lea	 eax, DWORD PTR [ecx+4]
  0000b	3b 42 0c	 cmp	 eax, DWORD PTR [edx+12]
  0000e	8b 45 08	 mov	 eax, DWORD PTR _t$[ebp]
  00011	77 0e		 ja	 SHORT $LN2@operator

; 304  : 	{
; 305  : 		t = *(UNALIGNED T*)m_lpBufCur;

  00013	8b 09		 mov	 ecx, DWORD PTR [ecx]
  00015	89 08		 mov	 DWORD PTR [eax], ecx

; 312  : 	}
; 313  : 	return *this;
; 314  : }

  00017	8b c2		 mov	 eax, edx
  00019	83 42 08 04	 add	 DWORD PTR [edx+8], 4
  0001d	5d		 pop	 ebp
  0001e	c2 04 00	 ret	 4
$LN2@operator:

; 306  : 		m_lpBufCur += sizeof(T);
; 307  : 	}
; 308  : 	else
; 309  : 	{
; 310  : 		t = T();

  00021	c7 00 00 00 00
	00		 mov	 DWORD PTR [eax], 0

; 311  : 		m_lpBufCur = m_lpBufMax;

  00027	8b 42 0c	 mov	 eax, DWORD PTR [edx+12]
  0002a	89 42 08	 mov	 DWORD PTR [edx+8], eax

; 312  : 	}
; 313  : 	return *this;
; 314  : }

  0002d	8b c2		 mov	 eax, edx
  0002f	5d		 pop	 ebp
  00030	c2 04 00	 ret	 4
??$?5H@CAr@@QAEAAV0@AAH@Z ENDP				; CAr::operator>><int>
_TEXT	ENDS
; Function compile flags: /Ogtp
; File C:\IAGOS\server\v18\Source\Source\_Network\Misc\Include\Ar.h
;	COMDAT ??$?6K@CAr@@QAEAAV0@ABK@Z
_TEXT	SEGMENT
_t$ = 8							; size = 4
??$?6K@CAr@@QAEAAV0@ABK@Z PROC				; CAr::operator<<<unsigned long>, COMDAT
; _this$ = ecx

; 255  : {

  00000	55		 push	 ebp
  00001	8b ec		 mov	 ebp, esp
  00003	56		 push	 esi

; 256  : 	CheckBuf(sizeof(T));

  00004	6a 04		 push	 4
  00006	8b f1		 mov	 esi, ecx
  00008	e8 00 00 00 00	 call	 ?CheckBuf@CAr@@QAEXI@Z	; CAr::CheckBuf

; 257  : 	*(UNALIGNED T*)m_lpBufCur = t;

  0000d	8b 56 08	 mov	 edx, DWORD PTR [esi+8]
  00010	8b 45 08	 mov	 eax, DWORD PTR _t$[ebp]
  00013	8b 00		 mov	 eax, DWORD PTR [eax]
  00015	89 02		 mov	 DWORD PTR [edx], eax

; 258  : 	m_lpBufCur += sizeof(T);
; 259  : 	return *this;

  00017	8b c6		 mov	 eax, esi
  00019	83 46 08 04	 add	 DWORD PTR [esi+8], 4
  0001d	5e		 pop	 esi

; 260  : }

  0001e	5d		 pop	 ebp
  0001f	c2 04 00	 ret	 4
??$?6K@CAr@@QAEAAV0@ABK@Z ENDP				; CAr::operator<<<unsigned long>
_TEXT	ENDS
; Function compile flags: /Ogtp
; File C:\IAGOS\server\v18\Source\Source\_Network\Misc\Include\Ar.h
;	COMDAT ??$?6H@CAr@@QAEAAV0@ABH@Z
_TEXT	SEGMENT
_t$ = 8							; size = 4
??$?6H@CAr@@QAEAAV0@ABH@Z PROC				; CAr::operator<<<int>, COMDAT
; _this$ = ecx

; 255  : {

  00000	55		 push	 ebp
  00001	8b ec		 mov	 ebp, esp
  00003	56		 push	 esi

; 256  : 	CheckBuf(sizeof(T));

  00004	6a 04		 push	 4
  00006	8b f1		 mov	 esi, ecx
  00008	e8 00 00 00 00	 call	 ?CheckBuf@CAr@@QAEXI@Z	; CAr::CheckBuf

; 257  : 	*(UNALIGNED T*)m_lpBufCur = t;

  0000d	8b 56 08	 mov	 edx, DWORD PTR [esi+8]
  00010	8b 45 08	 mov	 eax, DWORD PTR _t$[ebp]
  00013	8b 00		 mov	 eax, DWORD PTR [eax]
  00015	89 02		 mov	 DWORD PTR [edx], eax

; 258  : 	m_lpBufCur += sizeof(T);
; 259  : 	return *this;

  00017	8b c6		 mov	 eax, esi
  00019	83 46 08 04	 add	 DWORD PTR [esi+8], 4
  0001d	5e		 pop	 esi

; 260  : }

  0001e	5d		 pop	 ebp
  0001f	c2 04 00	 ret	 4
??$?6H@CAr@@QAEAAV0@ABH@Z ENDP				; CAr::operator<<<int>
_TEXT	ENDS
; Function compile flags: /Ogtp
;	COMDAT ??_GCUserTaskBar@@UAEPAXI@Z
_TEXT	SEGMENT
___flags$ = 8						; size = 4
??_GCUserTaskBar@@UAEPAXI@Z PROC			; CUserTaskBar::`scalar deleting destructor', COMDAT
; _this$ = ecx
  00000	55		 push	 ebp
  00001	8b ec		 mov	 ebp, esp
  00003	56		 push	 esi
  00004	8b f1		 mov	 esi, ecx
  00006	e8 00 00 00 00	 call	 ??1CUserTaskBar@@UAE@XZ	; CUserTaskBar::~CUserTaskBar
  0000b	f6 45 08 01	 test	 BYTE PTR ___flags$[ebp], 1
  0000f	74 0e		 je	 SHORT $LN5@scalar
  00011	68 74 38 00 00	 push	 14452			; 00003874H
  00016	56		 push	 esi
  00017	e8 00 00 00 00	 call	 ??3@YAXPAXI@Z		; operator delete
  0001c	83 c4 08	 add	 esp, 8
$LN5@scalar:
  0001f	8b c6		 mov	 eax, esi
  00021	5e		 pop	 esi
  00022	5d		 pop	 ebp
  00023	c2 04 00	 ret	 4
??_GCUserTaskBar@@UAEPAXI@Z ENDP			; CUserTaskBar::`scalar deleting destructor'
_TEXT	ENDS
; Function compile flags: /Ogtp
; File C:\IAGOS\server\v18\Source\Source\_Interface\UserTaskBar.cpp
;	COMDAT ?InitTaskBarShorcutKind@CUserTaskBar@@QAEXK@Z
_TEXT	SEGMENT
_this$1$ = -4						; size = 4
_dwShortcutKind$ = 8					; size = 4
tv483 = 8						; size = 4
?InitTaskBarShorcutKind@CUserTaskBar@@QAEXK@Z PROC	; CUserTaskBar::InitTaskBarShorcutKind, COMDAT
; _this$ = ecx

; 35   : {

  00000	55		 push	 ebp
  00001	8b ec		 mov	 ebp, esp
  00003	51		 push	 ecx
  00004	53		 push	 ebx

; 36   : 	for( int i = 0; i < MAX_SLOT_APPLET; i++ )

  00005	8b 5d 08	 mov	 ebx, DWORD PTR _dwShortcutKind$[ebp]
  00008	8b c1		 mov	 eax, ecx
  0000a	56		 push	 esi
  0000b	57		 push	 edi
  0000c	89 45 fc	 mov	 DWORD PTR _this$1$[ebp], eax
  0000f	bf 12 00 00 00	 mov	 edi, 18			; 00000012H
  00014	8d 70 04	 lea	 esi, DWORD PTR [eax+4]
$LL4@InitTaskBa:

; 37   : 	{
; 38   : 		if( m_aSlotApplet[i].m_dwShortcut == dwShortcutKind )		// °ªÀ̀ µé¾îÀÖ´ÂÁö °Ë»ç

  00017	39 1e		 cmp	 DWORD PTR [esi], ebx
  00019	75 10		 jne	 SHORT $LN2@InitTaskBa

; 39   : 			memset( &m_aSlotApplet[i], 0, sizeof( SHORTCUT ) );

  0001b	68 98 00 00 00	 push	 152			; 00000098H
  00020	6a 00		 push	 0
  00022	56		 push	 esi
  00023	e8 00 00 00 00	 call	 _memset
  00028	83 c4 0c	 add	 esp, 12			; 0000000cH
$LN2@InitTaskBa:

; 36   : 	for( int i = 0; i < MAX_SLOT_APPLET; i++ )

  0002b	81 c6 98 00 00
	00		 add	 esi, 152		; 00000098H
  00031	83 ef 01	 sub	 edi, 1
  00034	75 e1		 jne	 SHORT $LL4@InitTaskBa

; 40   : 	}
; 41   : 
; 42   : 	for( int i = 0; i < MAX_SLOT_ITEM_COUNT; i++ )

  00036	8b 75 fc	 mov	 esi, DWORD PTR _this$1$[ebp]
  00039	81 c6 b4 0a 00
	00		 add	 esi, 2740		; 00000ab4H
  0003f	c7 45 08 08 00
	00 00		 mov	 DWORD PTR tv483[ebp], 8
$LL7@InitTaskBa:

; 43   : 	{
; 44   : 		for( int j = 0; j < MAX_SLOT_ITEM; j++ )

  00046	bf 09 00 00 00	 mov	 edi, 9
  0004b	0f 1f 44 00 00	 npad	 5
$LL10@InitTaskBa:

; 45   : 		{
; 46   : 			if( m_aSlotItem[i][j].m_dwShortcut == dwShortcutKind )		// °ªÀ̀ µé¾îÀÖ´ÂÁö °Ë»ç

  00050	39 1e		 cmp	 DWORD PTR [esi], ebx
  00052	75 10		 jne	 SHORT $LN8@InitTaskBa

; 47   : 			{
; 48   : 				memset( &m_aSlotItem[i][j], 0, sizeof( SHORTCUT ) );

  00054	68 98 00 00 00	 push	 152			; 00000098H
  00059	6a 00		 push	 0
  0005b	56		 push	 esi
  0005c	e8 00 00 00 00	 call	 _memset
  00061	83 c4 0c	 add	 esp, 12			; 0000000cH
$LN8@InitTaskBa:

; 43   : 	{
; 44   : 		for( int j = 0; j < MAX_SLOT_ITEM; j++ )

  00064	81 c6 98 00 00
	00		 add	 esi, 152		; 00000098H
  0006a	83 ef 01	 sub	 edi, 1
  0006d	75 e1		 jne	 SHORT $LL10@InitTaskBa

; 40   : 	}
; 41   : 
; 42   : 	for( int i = 0; i < MAX_SLOT_ITEM_COUNT; i++ )

  0006f	83 6d 08 01	 sub	 DWORD PTR tv483[ebp], 1
  00073	75 d1		 jne	 SHORT $LL7@InitTaskBa

; 49   : 			}
; 50   : 		}
; 51   : 	}
; 52   : 	for( int i = 0; i < MAX_SLOT_QUEUE; i++ )

  00075	8b 75 fc	 mov	 esi, DWORD PTR _this$1$[ebp]
  00078	bf 05 00 00 00	 mov	 edi, 5
  0007d	81 c6 74 35 00
	00		 add	 esi, 13684		; 00003574H
$LL13@InitTaskBa:

; 53   : 	{
; 54   : 		if( m_aSlotQueue[i].m_dwShortcut == dwShortcutKind )		// °ªÀ̀ µé¾îÀÖ´ÂÁö °Ë»ç

  00083	39 1e		 cmp	 DWORD PTR [esi], ebx
  00085	75 10		 jne	 SHORT $LN11@InitTaskBa

; 55   : 		{
; 56   : 			memset( &m_aSlotQueue[i], 0, sizeof( SHORTCUT ) );

  00087	68 98 00 00 00	 push	 152			; 00000098H
  0008c	6a 00		 push	 0
  0008e	56		 push	 esi
  0008f	e8 00 00 00 00	 call	 _memset
  00094	83 c4 0c	 add	 esp, 12			; 0000000cH
$LN11@InitTaskBa:

; 49   : 			}
; 50   : 		}
; 51   : 	}
; 52   : 	for( int i = 0; i < MAX_SLOT_QUEUE; i++ )

  00097	81 c6 98 00 00
	00		 add	 esi, 152		; 00000098H
  0009d	83 ef 01	 sub	 edi, 1
  000a0	75 e1		 jne	 SHORT $LL13@InitTaskBa
  000a2	5f		 pop	 edi
  000a3	5e		 pop	 esi
  000a4	5b		 pop	 ebx

; 57   : 		}
; 58   : 	}
; 59   : }

  000a5	8b e5		 mov	 esp, ebp
  000a7	5d		 pop	 ebp
  000a8	c2 04 00	 ret	 4
?InitTaskBarShorcutKind@CUserTaskBar@@QAEXK@Z ENDP	; CUserTaskBar::InitTaskBarShorcutKind
_TEXT	ENDS
; Function compile flags: /Ogtp
; File C:\IAGOS\server\v18\Source\Source\_Interface\UserTaskBar.cpp
;	COMDAT ?InitTaskBar@CUserTaskBar@@QAEXXZ
_TEXT	SEGMENT
?InitTaskBar@CUserTaskBar@@QAEXXZ PROC			; CUserTaskBar::InitTaskBar, COMDAT
; _this$ = ecx

; 26   : {

  00000	56		 push	 esi
  00001	8b f1		 mov	 esi, ecx

; 27   : 	memset( m_aSlotApplet, 0, sizeof( m_aSlotApplet ) );

  00003	68 b0 0a 00 00	 push	 2736			; 00000ab0H
  00008	6a 00		 push	 0
  0000a	8d 46 04	 lea	 eax, DWORD PTR [esi+4]
  0000d	50		 push	 eax
  0000e	e8 00 00 00 00	 call	 _memset

; 28   : 	memset( m_aSlotItem  , 0, sizeof( m_aSlotItem ) );

  00013	68 c0 2a 00 00	 push	 10944			; 00002ac0H
  00018	8d 86 b4 0a 00
	00		 lea	 eax, DWORD PTR [esi+2740]
  0001e	6a 00		 push	 0
  00020	50		 push	 eax
  00021	e8 00 00 00 00	 call	 _memset

; 29   : 	memset( m_aSlotQueue , 0, sizeof( m_aSlotQueue ) );

  00026	68 f8 02 00 00	 push	 760			; 000002f8H
  0002b	8d 86 74 35 00
	00		 lea	 eax, DWORD PTR [esi+13684]
  00031	6a 00		 push	 0
  00033	50		 push	 eax
  00034	e8 00 00 00 00	 call	 _memset
  00039	83 c4 24	 add	 esp, 36			; 00000024H

; 30   : 	m_nActionPoint = 0;

  0003c	c7 86 6c 38 00
	00 00 00 00 00	 mov	 DWORD PTR [esi+14444], 0

; 31   : 	m_nUsedSkillQueue = -1;

  00046	c7 86 70 38 00
	00 ff ff ff ff	 mov	 DWORD PTR [esi+14448], -1
  00050	5e		 pop	 esi

; 32   : }

  00051	c3		 ret	 0
?InitTaskBar@CUserTaskBar@@QAEXXZ ENDP			; CUserTaskBar::InitTaskBar
_TEXT	ENDS
; Function compile flags: /Ogtp
; File C:\IAGOS\server\v18\Source\Source\_Interface\UserTaskBar.cpp
;	COMDAT ?SetShortcut@CUserTaskBar@@QAEXHKKKKKH@Z
_TEXT	SEGMENT
_nIndex$ = 8						; size = 4
_dwShortcut$ = 12					; size = 4
_dwType$ = 16						; size = 4
_dwIndex$ = 20						; size = 4
_dwId$ = 24						; size = 4
_dwData$ = 28						; size = 4
_nWhere$ = 32						; size = 4
?SetShortcut@CUserTaskBar@@QAEXHKKKKKH@Z PROC		; CUserTaskBar::SetShortcut, COMDAT
; _this$ = ecx

; 172  : {

  00000	55		 push	 ebp
  00001	8b ec		 mov	 ebp, esp

; 173  : 	LPSHORTCUT pShortcut;
; 174  : 	if( nWhere == 0 )

  00003	8b 55 20	 mov	 edx, DWORD PTR _nWhere$[ebp]
  00006	85 d2		 test	 edx, edx
  00008	75 05		 jne	 SHORT $LN2@SetShortcu

; 175  : 		pShortcut = &m_aSlotApplet[ nIndex ];

  0000a	83 c1 04	 add	 ecx, 4
  0000d	eb 0b		 jmp	 SHORT $LN7@SetShortcu
$LN2@SetShortcu:

; 176  : 	else if( nWhere == 1 )

  0000f	83 fa 01	 cmp	 edx, 1
  00012	75 34		 jne	 SHORT $LN4@SetShortcu

; 177  : 		pShortcut = &m_aSlotItem[0][ nIndex ];

  00014	81 c1 b4 0a 00
	00		 add	 ecx, 2740		; 00000ab4H
$LN7@SetShortcu:

; 181  : 		return;
; 182  : 	}
; 183  : 
; 184  : //	LPSHORTCUT pShortcut	= &m_aSlotApplet[ nIndex ];
; 185  : 	pShortcut->m_dwShortcut		= dwShortcut   ;

  0001a	69 45 08 98 00
	00 00		 imul	 eax, DWORD PTR _nIndex$[ebp], 152
  00021	03 c8		 add	 ecx, eax
  00023	8b 45 0c	 mov	 eax, DWORD PTR _dwShortcut$[ebp]
  00026	89 01		 mov	 DWORD PTR [ecx], eax

; 186  : 	pShortcut->m_dwType     = dwType;

  00028	8b 45 10	 mov	 eax, DWORD PTR _dwType$[ebp]
  0002b	89 41 08	 mov	 DWORD PTR [ecx+8], eax

; 187  : 	pShortcut->m_dwIndex    = dwIndex;

  0002e	8b 45 14	 mov	 eax, DWORD PTR _dwIndex$[ebp]
  00031	89 41 0c	 mov	 DWORD PTR [ecx+12], eax

; 188  : 	pShortcut->m_dwId       = dwId;

  00034	8b 45 18	 mov	 eax, DWORD PTR _dwId$[ebp]
  00037	89 41 04	 mov	 DWORD PTR [ecx+4], eax

; 189  : 	pShortcut->m_dwUserId   = 0 ;

  0003a	c7 41 10 00 00
	00 00		 mov	 DWORD PTR [ecx+16], 0

; 190  : 	pShortcut->m_dwData     = nWhere;

  00041	89 51 14	 mov	 DWORD PTR [ecx+20], edx

; 191  : }

  00044	5d		 pop	 ebp
  00045	c2 1c 00	 ret	 28			; 0000001cH
$LN4@SetShortcu:

; 178  : 	else
; 179  : 	{
; 180  : 		Error( "CUserTaskBar::SetShortcut nWhere:%d", nWhere ); 

  00048	52		 push	 edx
  00049	68 00 00 00 00	 push	 OFFSET ??_C@_0CE@CCMODOGC@CUserTaskBar?3?3SetShortcut?5nWher@
  0004e	e8 00 00 00 00	 call	 ?Error@@YAPBDPBDZZ	; Error
  00053	83 c4 08	 add	 esp, 8

; 191  : }

  00056	5d		 pop	 ebp
  00057	c2 1c 00	 ret	 28			; 0000001cH
?SetShortcut@CUserTaskBar@@QAEXHKKKKKH@Z ENDP		; CUserTaskBar::SetShortcut
_TEXT	ENDS
; Function compile flags: /Ogtp
; File C:\IAGOS\server\v18\Source\Source\_Interface\UserTaskBar.cpp
; File C:\IAGOS\server\v18\Source\Source\_Network\Misc\Include\Ar.h
; File C:\IAGOS\server\v18\Source\Source\_Interface\UserTaskBar.cpp
; File C:\IAGOS\server\v18\Source\Source\_Network\Misc\Include\Ar.h
; File C:\IAGOS\server\v18\Source\Source\_Interface\UserTaskBar.cpp
; File C:\IAGOS\server\v18\Source\Source\_Network\Misc\Include\Ar.h
; File C:\IAGOS\server\v18\Source\Source\_Interface\UserTaskBar.cpp
; File C:\IAGOS\server\v18\Source\Source\_Network\Misc\Include\Ar.h
; File C:\IAGOS\server\v18\Source\Source\_Interface\UserTaskBar.cpp
; File C:\IAGOS\server\v18\Source\Source\_Network\Misc\Include\Ar.h
; File C:\IAGOS\server\v18\Source\Source\_Interface\UserTaskBar.cpp
;	COMDAT ?Serialize@CUserTaskBar@@QAEXAAVCAr@@@Z
_TEXT	SEGMENT
_nIndex2$1 = -28					; size = 4
_uOffset$2$ = -28					; size = 4
_uOffset$3$ = -28					; size = 4
tv931 = -24						; size = 4
_nBufSize$2 = -20					; size = 4
tv927 = -20						; size = 4
tv929 = -20						; size = 4
_i$3 = -16						; size = 4
_uOffset$1$ = -16					; size = 4
_nCount$1$ = -16					; size = 4
_nCount$2$ = -16					; size = 4
$T4 = -16						; size = 4
_i$5 = -12						; size = 4
_i$1$ = -12						; size = 4
_nCount$1$ = -8						; size = 4
_nCount$2$ = -8						; size = 4
_nCount$3$ = -8						; size = 4
_nIndex$6 = -4						; size = 4
_this$1$ = -4						; size = 4
_ar$ = 8						; size = 4
_nCount$7 = 8						; size = 4
_j$8 = 8						; size = 4
_i$9 = 8						; size = 4
_nCount$10 = 8						; size = 4
_i$1$ = 8						; size = 4
_nCount$3$ = 8						; size = 4
?Serialize@CUserTaskBar@@QAEXAAVCAr@@@Z PROC		; CUserTaskBar::Serialize, COMDAT
; _this$ = ecx

; 62   : {

  00000	55		 push	 ebp
  00001	8b ec		 mov	 ebp, esp
  00003	83 ec 1c	 sub	 esp, 28			; 0000001cH
  00006	53		 push	 ebx
  00007	56		 push	 esi
; File C:\IAGOS\server\v18\Source\Source\_Network\Misc\Include\Ar.h

; 146  : 	return (m_nMode & CAr::load) == 0;

  00008	8b 75 08	 mov	 esi, DWORD PTR _ar$[ebp]
; File C:\IAGOS\server\v18\Source\Source\_Interface\UserTaskBar.cpp

; 62   : {

  0000b	8b d9		 mov	 ebx, ecx
  0000d	57		 push	 edi
  0000e	89 5d fc	 mov	 DWORD PTR _this$1$[ebp], ebx
; File C:\IAGOS\server\v18\Source\Source\_Network\Misc\Include\Ar.h

; 146  : 	return (m_nMode & CAr::load) == 0;

  00011	f6 06 01	 test	 BYTE PTR [esi], 1
; File C:\IAGOS\server\v18\Source\Source\_Interface\UserTaskBar.cpp

; 63   : 	if( ar.IsStoring() )

  00014	0f 85 c2 02 00
	00		 jne	 $LN23@Serialize

; 64   : 	{
; 65   : 		int nCount	= 0;

  0001a	33 c0		 xor	 eax, eax

; 67   : 		ar << nCount;

  0001c	8b ce		 mov	 ecx, esi
  0001e	89 45 f8	 mov	 DWORD PTR _nCount$1$[ebp], eax
  00021	89 45 08	 mov	 DWORD PTR _nCount$7[ebp], eax
; File C:\IAGOS\server\v18\Source\Source\_Network\Misc\Include\Ar.h

; 356  : 	return( m_lpBufCur - m_lpBufStart );

  00024	8b 46 08	 mov	 eax, DWORD PTR [esi+8]
  00027	2b 46 10	 sub	 eax, DWORD PTR [esi+16]
  0002a	89 45 f0	 mov	 DWORD PTR _uOffset$1$[ebp], eax
; File C:\IAGOS\server\v18\Source\Source\_Interface\UserTaskBar.cpp

; 67   : 		ar << nCount;

  0002d	8d 45 08	 lea	 eax, DWORD PTR _nCount$7[ebp]
  00030	50		 push	 eax
  00031	e8 00 00 00 00	 call	 ??$?6H@CAr@@QAEAAV0@ABH@Z ; CAr::operator<<<int>

; 68   : 		for( int i = 0; i < MAX_SLOT_APPLET; i++ )

  00036	33 c9		 xor	 ecx, ecx
  00038	33 c0		 xor	 eax, eax
  0003a	89 4d 08	 mov	 DWORD PTR _i$1$[ebp], ecx
  0003d	89 4d f4	 mov	 DWORD PTR _i$5[ebp], ecx
$LL4@Serialize:

; 69   : 		{
; 70   : 			if( m_aSlotApplet[i].m_dwShortcut != SHORTCUT_NONE )		// °ªÀ̀ µé¾îÀÖ´ÂÁö °Ë»ç

  00040	69 f8 98 00 00
	00		 imul	 edi, eax, 152
  00046	03 fb		 add	 edi, ebx
  00048	83 7f 04 00	 cmp	 DWORD PTR [edi+4], 0
  0004c	74 6a		 je	 SHORT $LN70@Serialize

; 71   : 			{
; 72   : 				ar << i;

  0004e	8d 45 f4	 lea	 eax, DWORD PTR _i$5[ebp]
  00051	8b ce		 mov	 ecx, esi
  00053	50		 push	 eax
  00054	e8 00 00 00 00	 call	 ??$?6H@CAr@@QAEAAV0@ABH@Z ; CAr::operator<<<int>

; 73   : 				ar << m_aSlotApplet[i].m_dwShortcut <<	m_aSlotApplet[i].m_dwId << m_aSlotApplet[i].m_dwType;

  00059	8d 47 0c	 lea	 eax, DWORD PTR [edi+12]
  0005c	8b ce		 mov	 ecx, esi
  0005e	50		 push	 eax
  0005f	8d 47 08	 lea	 eax, DWORD PTR [edi+8]
  00062	50		 push	 eax
  00063	8d 47 04	 lea	 eax, DWORD PTR [edi+4]
  00066	50		 push	 eax
  00067	e8 00 00 00 00	 call	 ??$?6K@CAr@@QAEAAV0@ABK@Z ; CAr::operator<<<unsigned long>
  0006c	8b c8		 mov	 ecx, eax
  0006e	e8 00 00 00 00	 call	 ??$?6K@CAr@@QAEAAV0@ABK@Z ; CAr::operator<<<unsigned long>
  00073	8b c8		 mov	 ecx, eax
  00075	e8 00 00 00 00	 call	 ??$?6K@CAr@@QAEAAV0@ABK@Z ; CAr::operator<<<unsigned long>

; 74   : 				ar << m_aSlotApplet[i].m_dwIndex <<	m_aSlotApplet[i].m_dwUserId << m_aSlotApplet[i].m_dwData;

  0007a	8d 47 18	 lea	 eax, DWORD PTR [edi+24]
  0007d	8b ce		 mov	 ecx, esi
  0007f	50		 push	 eax
  00080	8d 47 14	 lea	 eax, DWORD PTR [edi+20]
  00083	50		 push	 eax
  00084	8d 47 10	 lea	 eax, DWORD PTR [edi+16]
  00087	50		 push	 eax
  00088	e8 00 00 00 00	 call	 ??$?6K@CAr@@QAEAAV0@ABK@Z ; CAr::operator<<<unsigned long>
  0008d	8b c8		 mov	 ecx, eax
  0008f	e8 00 00 00 00	 call	 ??$?6K@CAr@@QAEAAV0@ABK@Z ; CAr::operator<<<unsigned long>
  00094	8b c8		 mov	 ecx, eax
  00096	e8 00 00 00 00	 call	 ??$?6K@CAr@@QAEAAV0@ABK@Z ; CAr::operator<<<unsigned long>

; 75   : 				if( m_aSlotApplet[i].m_dwShortcut == SHORTCUT_CHAT)

  0009b	83 7f 04 08	 cmp	 DWORD PTR [edi+4], 8
  0009f	75 0b		 jne	 SHORT $LN26@Serialize

; 76   : 					ar.WriteString( m_aSlotApplet[i].m_szString );

  000a1	8d 47 1c	 lea	 eax, DWORD PTR [edi+28]
  000a4	8b ce		 mov	 ecx, esi
  000a6	50		 push	 eax
  000a7	e8 00 00 00 00	 call	 ?WriteString@CAr@@QAEXPBD@Z ; CAr::WriteString
$LN26@Serialize:

; 77   : 				nCount++;

  000ac	8b 7d f8	 mov	 edi, DWORD PTR _nCount$1$[ebp]
  000af	8b 4d 08	 mov	 ecx, DWORD PTR _i$1$[ebp]
  000b2	47		 inc	 edi
  000b3	89 7d f8	 mov	 DWORD PTR _nCount$1$[ebp], edi
  000b6	eb 03		 jmp	 SHORT $LN2@Serialize
$LN70@Serialize:

; 69   : 		{
; 70   : 			if( m_aSlotApplet[i].m_dwShortcut != SHORTCUT_NONE )		// °ªÀ̀ µé¾îÀÖ´ÂÁö °Ë»ç

  000b8	8b 7d f8	 mov	 edi, DWORD PTR _nCount$1$[ebp]
$LN2@Serialize:

; 68   : 		for( int i = 0; i < MAX_SLOT_APPLET; i++ )

  000bb	41		 inc	 ecx
  000bc	8b c1		 mov	 eax, ecx
  000be	89 4d 08	 mov	 DWORD PTR _i$1$[ebp], ecx
  000c1	89 4d f4	 mov	 DWORD PTR _i$5[ebp], ecx
  000c4	83 f8 12	 cmp	 eax, 18			; 00000012H
  000c7	0f 8c 73 ff ff
	ff		 jl	 $LL4@Serialize

; 78   : 			}
; 79   : 		}
; 80   : 		int nBufSize;
; 81   : 		LPBYTE lpBuf	= ar.GetBuffer( &nBufSize );

  000cd	8d 45 ec	 lea	 eax, DWORD PTR _nBufSize$2[ebp]
  000d0	8b ce		 mov	 ecx, esi
  000d2	50		 push	 eax
  000d3	e8 00 00 00 00	 call	 ?GetBuffer@CAr@@QAEPAEPAH@Z ; CAr::GetBuffer

; 82   : 		*(UNALIGNED int*)( lpBuf + uOffset )	= nCount;

  000d8	8b 4d f0	 mov	 ecx, DWORD PTR _uOffset$1$[ebp]
  000db	89 3c 08	 mov	 DWORD PTR [eax+ecx], edi

; 83   : 
; 84   : 		nCount	= 0;

  000de	33 c0		 xor	 eax, eax
  000e0	89 45 f8	 mov	 DWORD PTR _nCount$2$[ebp], eax

; 86   : 		ar << nCount;

  000e3	8b ce		 mov	 ecx, esi
  000e5	89 45 08	 mov	 DWORD PTR _nCount$7[ebp], eax
; File C:\IAGOS\server\v18\Source\Source\_Network\Misc\Include\Ar.h

; 356  : 	return( m_lpBufCur - m_lpBufStart );

  000e8	8b 46 08	 mov	 eax, DWORD PTR [esi+8]
  000eb	2b 46 10	 sub	 eax, DWORD PTR [esi+16]
  000ee	89 45 e4	 mov	 DWORD PTR _uOffset$2$[ebp], eax
; File C:\IAGOS\server\v18\Source\Source\_Interface\UserTaskBar.cpp

; 86   : 		ar << nCount;

  000f1	8d 45 08	 lea	 eax, DWORD PTR _nCount$7[ebp]
  000f4	50		 push	 eax
  000f5	e8 00 00 00 00	 call	 ??$?6H@CAr@@QAEAAV0@ABH@Z ; CAr::operator<<<int>

; 87   : 		for( int i = 0; i < MAX_SLOT_ITEM_COUNT; i++ )

  000fa	33 c0		 xor	 eax, eax
  000fc	89 45 f4	 mov	 DWORD PTR _i$1$[ebp], eax
  000ff	89 45 f0	 mov	 DWORD PTR _i$3[ebp], eax
$LL7@Serialize:

; 88   : 		{
; 89   : 			for( int j = 0; j < MAX_SLOT_ITEM; j++ )

  00102	8b 4d fc	 mov	 ecx, DWORD PTR _this$1$[ebp]
  00105	8d 14 c0	 lea	 edx, DWORD PTR [eax+eax*8]
  00108	33 ff		 xor	 edi, edi
  0010a	89 55 e8	 mov	 DWORD PTR tv931[ebp], edx
  0010d	89 7d 08	 mov	 DWORD PTR _j$8[ebp], edi
  00110	33 c0		 xor	 eax, eax
$LL10@Serialize:

; 90   : 			{
; 91   : 				if( m_aSlotItem[i][j].m_dwShortcut != SHORTCUT_NONE )		// °ªÀ̀ µé¾îÀÖ´ÂÁö °Ë»ç

  00112	03 c2		 add	 eax, edx
  00114	69 d8 98 00 00
	00		 imul	 ebx, eax, 152
  0011a	03 d9		 add	 ebx, ecx
  0011c	83 bb b4 0a 00
	00 00		 cmp	 DWORD PTR [ebx+2740], 0
  00123	0f 84 90 00 00
	00		 je	 $LN69@Serialize

; 92   : 				{
; 93   : 					ar << i << j;

  00129	8d 45 08	 lea	 eax, DWORD PTR _j$8[ebp]
  0012c	8b ce		 mov	 ecx, esi
  0012e	50		 push	 eax
  0012f	8d 45 f0	 lea	 eax, DWORD PTR _i$3[ebp]
  00132	50		 push	 eax
  00133	e8 00 00 00 00	 call	 ??$?6H@CAr@@QAEAAV0@ABH@Z ; CAr::operator<<<int>
  00138	8b c8		 mov	 ecx, eax
  0013a	e8 00 00 00 00	 call	 ??$?6H@CAr@@QAEAAV0@ABH@Z ; CAr::operator<<<int>

; 94   : 					ar << m_aSlotItem[i][j].m_dwShortcut <<	m_aSlotItem[i][j].m_dwId << m_aSlotItem[i][j].m_dwType;

  0013f	8d 83 bc 0a 00
	00		 lea	 eax, DWORD PTR [ebx+2748]
  00145	8b ce		 mov	 ecx, esi
  00147	50		 push	 eax
  00148	8d 83 b8 0a 00
	00		 lea	 eax, DWORD PTR [ebx+2744]
  0014e	50		 push	 eax
  0014f	8d 83 b4 0a 00
	00		 lea	 eax, DWORD PTR [ebx+2740]
  00155	50		 push	 eax
  00156	e8 00 00 00 00	 call	 ??$?6K@CAr@@QAEAAV0@ABK@Z ; CAr::operator<<<unsigned long>
  0015b	8b c8		 mov	 ecx, eax
  0015d	e8 00 00 00 00	 call	 ??$?6K@CAr@@QAEAAV0@ABK@Z ; CAr::operator<<<unsigned long>
  00162	8b c8		 mov	 ecx, eax
  00164	e8 00 00 00 00	 call	 ??$?6K@CAr@@QAEAAV0@ABK@Z ; CAr::operator<<<unsigned long>

; 95   : 					ar << m_aSlotItem[i][j].m_dwIndex << m_aSlotItem[i][j].m_dwUserId << m_aSlotItem[i][j].m_dwData;

  00169	8d 83 c8 0a 00
	00		 lea	 eax, DWORD PTR [ebx+2760]
  0016f	8b ce		 mov	 ecx, esi
  00171	50		 push	 eax
  00172	8d 83 c4 0a 00
	00		 lea	 eax, DWORD PTR [ebx+2756]
  00178	50		 push	 eax
  00179	8d 83 c0 0a 00
	00		 lea	 eax, DWORD PTR [ebx+2752]
  0017f	50		 push	 eax
  00180	e8 00 00 00 00	 call	 ??$?6K@CAr@@QAEAAV0@ABK@Z ; CAr::operator<<<unsigned long>
  00185	8b c8		 mov	 ecx, eax
  00187	e8 00 00 00 00	 call	 ??$?6K@CAr@@QAEAAV0@ABK@Z ; CAr::operator<<<unsigned long>
  0018c	8b c8		 mov	 ecx, eax
  0018e	e8 00 00 00 00	 call	 ??$?6K@CAr@@QAEAAV0@ABK@Z ; CAr::operator<<<unsigned long>

; 96   : 					if( m_aSlotItem[i][j].m_dwShortcut == SHORTCUT_CHAT)

  00193	83 bb b4 0a 00
	00 08		 cmp	 DWORD PTR [ebx+2740], 8
  0019a	75 0e		 jne	 SHORT $LN28@Serialize

; 97   : 						ar.WriteString( m_aSlotItem[i][j].m_szString );

  0019c	8d 83 cc 0a 00
	00		 lea	 eax, DWORD PTR [ebx+2764]
  001a2	8b ce		 mov	 ecx, esi
  001a4	50		 push	 eax
  001a5	e8 00 00 00 00	 call	 ?WriteString@CAr@@QAEXPBD@Z ; CAr::WriteString
$LN28@Serialize:

; 98   : 					nCount++;

  001aa	8b 5d f8	 mov	 ebx, DWORD PTR _nCount$2$[ebp]
  001ad	8b 4d fc	 mov	 ecx, DWORD PTR _this$1$[ebp]
  001b0	43		 inc	 ebx
  001b1	8b 55 e8	 mov	 edx, DWORD PTR tv931[ebp]
  001b4	89 5d f8	 mov	 DWORD PTR _nCount$2$[ebp], ebx
  001b7	eb 03		 jmp	 SHORT $LN8@Serialize
$LN69@Serialize:

; 90   : 			{
; 91   : 				if( m_aSlotItem[i][j].m_dwShortcut != SHORTCUT_NONE )		// °ªÀ̀ µé¾îÀÖ´ÂÁö °Ë»ç

  001b9	8b 5d f8	 mov	 ebx, DWORD PTR _nCount$2$[ebp]
$LN8@Serialize:

; 88   : 		{
; 89   : 			for( int j = 0; j < MAX_SLOT_ITEM; j++ )

  001bc	47		 inc	 edi
  001bd	8b c7		 mov	 eax, edi
  001bf	89 7d 08	 mov	 DWORD PTR _j$8[ebp], edi
  001c2	83 f8 09	 cmp	 eax, 9
  001c5	0f 8c 47 ff ff
	ff		 jl	 $LL10@Serialize

; 87   : 		for( int i = 0; i < MAX_SLOT_ITEM_COUNT; i++ )

  001cb	8b 4d f4	 mov	 ecx, DWORD PTR _i$1$[ebp]
  001ce	41		 inc	 ecx
  001cf	8b c1		 mov	 eax, ecx
  001d1	89 4d f4	 mov	 DWORD PTR _i$1$[ebp], ecx
  001d4	89 4d f0	 mov	 DWORD PTR _i$3[ebp], ecx
  001d7	83 f8 08	 cmp	 eax, 8
  001da	0f 8c 22 ff ff
	ff		 jl	 $LL7@Serialize

; 99   : 					
; 100  : 				}
; 101  : 
; 102  : 				// m_aSlotItem[i][j]À̀ À¯È¿ÇÑ ¼ôÄÆÀ̀¶ó¸é
; 103  : //				ar << i << j << m_aSlotItem[i][j]ÀÇ ÇÊ¿äÇÑ Á¤º¸ ÀúÀå
; 104  : //				if( m_aSlotItem[i][j].m_dwType == SHORTCUT_CHAT )
; 105  : //					ar.WriteString(
; 106  : 			}
; 107  : 		}
; 108  : 		lpBuf	= ar.GetBuffer( &nBufSize );

  001e0	8d 45 ec	 lea	 eax, DWORD PTR _nBufSize$2[ebp]
  001e3	8b ce		 mov	 ecx, esi
  001e5	50		 push	 eax
  001e6	e8 00 00 00 00	 call	 ?GetBuffer@CAr@@QAEPAEPAH@Z ; CAr::GetBuffer

; 109  : 		*(UNALIGNED int*)( lpBuf + uOffset )	= nCount;

  001eb	8b 4d e4	 mov	 ecx, DWORD PTR _uOffset$2$[ebp]
  001ee	89 1c 08	 mov	 DWORD PTR [eax+ecx], ebx

; 110  : 
; 111  : 		nCount	= 0;

  001f1	33 c0		 xor	 eax, eax
  001f3	89 45 f8	 mov	 DWORD PTR _nCount$3$[ebp], eax

; 113  : 		ar << nCount;

  001f6	8b ce		 mov	 ecx, esi
  001f8	89 45 08	 mov	 DWORD PTR _nCount$7[ebp], eax
; File C:\IAGOS\server\v18\Source\Source\_Network\Misc\Include\Ar.h

; 356  : 	return( m_lpBufCur - m_lpBufStart );

  001fb	8b 46 08	 mov	 eax, DWORD PTR [esi+8]
  001fe	2b 46 10	 sub	 eax, DWORD PTR [esi+16]
  00201	89 45 e4	 mov	 DWORD PTR _uOffset$3$[ebp], eax
; File C:\IAGOS\server\v18\Source\Source\_Interface\UserTaskBar.cpp

; 113  : 		ar << nCount;

  00204	8d 45 08	 lea	 eax, DWORD PTR _nCount$7[ebp]
  00207	50		 push	 eax
  00208	e8 00 00 00 00	 call	 ??$?6H@CAr@@QAEAAV0@ABH@Z ; CAr::operator<<<int>
  0020d	8b 4d fc	 mov	 ecx, DWORD PTR _this$1$[ebp]
  00210	33 d2		 xor	 edx, edx

; 114  : 		for( int i = 0; i < MAX_SLOT_QUEUE; i++ )

  00212	c7 45 08 00 00
	00 00		 mov	 DWORD PTR _i$9[ebp], 0
  00219	33 c0		 xor	 eax, eax
  0021b	89 55 f0	 mov	 DWORD PTR $T4[ebp], edx
  0021e	66 90		 npad	 2
$LL13@Serialize:

; 115  : 		{
; 116  : 			if( m_aSlotQueue[i].m_dwShortcut != SHORTCUT_NONE )		// °ªÀ̀ µé¾îÀÖ´ÂÁö °Ë»ç

  00220	69 f8 98 00 00
	00		 imul	 edi, eax, 152
  00226	03 f9		 add	 edi, ecx
  00228	83 bf 74 35 00
	00 00		 cmp	 DWORD PTR [edi+13684], 0
  0022f	8d 9f 74 35 00
	00		 lea	 ebx, DWORD PTR [edi+13684]
  00235	74 68		 je	 SHORT $LN71@Serialize

; 117  : 			{
; 118  : 				ar << i;

  00237	8d 45 08	 lea	 eax, DWORD PTR _i$9[ebp]
  0023a	8b ce		 mov	 ecx, esi
  0023c	50		 push	 eax
  0023d	e8 00 00 00 00	 call	 ??$?6H@CAr@@QAEAAV0@ABH@Z ; CAr::operator<<<int>

; 119  : 				ar << m_aSlotQueue[i].m_dwShortcut << m_aSlotQueue[i].m_dwId << m_aSlotQueue[i].m_dwType;

  00242	8d 87 7c 35 00
	00		 lea	 eax, DWORD PTR [edi+13692]
  00248	8b ce		 mov	 ecx, esi
  0024a	50		 push	 eax
  0024b	8d 87 78 35 00
	00		 lea	 eax, DWORD PTR [edi+13688]
  00251	50		 push	 eax
  00252	53		 push	 ebx
  00253	e8 00 00 00 00	 call	 ??$?6K@CAr@@QAEAAV0@ABK@Z ; CAr::operator<<<unsigned long>
  00258	8b c8		 mov	 ecx, eax
  0025a	e8 00 00 00 00	 call	 ??$?6K@CAr@@QAEAAV0@ABK@Z ; CAr::operator<<<unsigned long>
  0025f	8b c8		 mov	 ecx, eax
  00261	e8 00 00 00 00	 call	 ??$?6K@CAr@@QAEAAV0@ABK@Z ; CAr::operator<<<unsigned long>

; 120  : 				ar << m_aSlotQueue[i].m_dwIndex << m_aSlotQueue[i].m_dwUserId << m_aSlotQueue[i].m_dwData;

  00266	8d 87 88 35 00
	00		 lea	 eax, DWORD PTR [edi+13704]
  0026c	8b ce		 mov	 ecx, esi
  0026e	50		 push	 eax
  0026f	8d 87 84 35 00
	00		 lea	 eax, DWORD PTR [edi+13700]
  00275	50		 push	 eax
  00276	8d 87 80 35 00
	00		 lea	 eax, DWORD PTR [edi+13696]
  0027c	50		 push	 eax
  0027d	e8 00 00 00 00	 call	 ??$?6K@CAr@@QAEAAV0@ABK@Z ; CAr::operator<<<unsigned long>
  00282	8b c8		 mov	 ecx, eax
  00284	e8 00 00 00 00	 call	 ??$?6K@CAr@@QAEAAV0@ABK@Z ; CAr::operator<<<unsigned long>
  00289	8b c8		 mov	 ecx, eax
  0028b	e8 00 00 00 00	 call	 ??$?6K@CAr@@QAEAAV0@ABK@Z ; CAr::operator<<<unsigned long>

; 121  : 				nCount++;

  00290	8b 5d f8	 mov	 ebx, DWORD PTR _nCount$3$[ebp]
  00293	8b 55 f0	 mov	 edx, DWORD PTR $T4[ebp]
  00296	43		 inc	 ebx
  00297	8b 4d fc	 mov	 ecx, DWORD PTR _this$1$[ebp]
  0029a	89 5d f8	 mov	 DWORD PTR _nCount$3$[ebp], ebx
  0029d	eb 03		 jmp	 SHORT $LN11@Serialize
$LN71@Serialize:

; 115  : 		{
; 116  : 			if( m_aSlotQueue[i].m_dwShortcut != SHORTCUT_NONE )		// °ªÀ̀ µé¾îÀÖ´ÂÁö °Ë»ç

  0029f	8b 5d f8	 mov	 ebx, DWORD PTR _nCount$3$[ebp]
$LN11@Serialize:

; 114  : 		for( int i = 0; i < MAX_SLOT_QUEUE; i++ )

  002a2	42		 inc	 edx
  002a3	8b c2		 mov	 eax, edx
  002a5	89 55 08	 mov	 DWORD PTR _i$9[ebp], edx
  002a8	89 55 f0	 mov	 DWORD PTR $T4[ebp], edx
  002ab	83 f8 05	 cmp	 eax, 5
  002ae	0f 8c 6c ff ff
	ff		 jl	 $LL13@Serialize

; 122  : 			}
; 123  : 			
; 124  : 							// m_aSlotQueue[i]À̀ À¯È¿ÇÑ ¼ôÄÆÀ̀¶ó¸é
; 125  : //				ar << i << m_aSlotQueue[i]ÀÇ ÇÊ¿äÇÑ Á¤º¸ ÀúÀå
; 126  : 		}
; 127  : 		ar << m_nActionPoint;

  002b4	8d 81 6c 38 00
	00		 lea	 eax, DWORD PTR [ecx+14444]
  002ba	8b ce		 mov	 ecx, esi
  002bc	50		 push	 eax
  002bd	e8 00 00 00 00	 call	 ??$?6H@CAr@@QAEAAV0@ABH@Z ; CAr::operator<<<int>

; 128  : 		lpBuf	= ar.GetBuffer( &nBufSize );

  002c2	8d 45 ec	 lea	 eax, DWORD PTR _nBufSize$2[ebp]
  002c5	8b ce		 mov	 ecx, esi
  002c7	50		 push	 eax
  002c8	e8 00 00 00 00	 call	 ?GetBuffer@CAr@@QAEPAEPAH@Z ; CAr::GetBuffer

; 129  : 		*(UNALIGNED int*)( lpBuf + uOffset )	= nCount;

  002cd	8b 4d e4	 mov	 ecx, DWORD PTR _uOffset$3$[ebp]
  002d0	5f		 pop	 edi

; 168  : 	}
; 169  : }

  002d1	5e		 pop	 esi
  002d2	89 1c 08	 mov	 DWORD PTR [eax+ecx], ebx
  002d5	5b		 pop	 ebx
  002d6	8b e5		 mov	 esp, ebp
  002d8	5d		 pop	 ebp
  002d9	c2 04 00	 ret	 4
$LN23@Serialize:

; 130  : 	}
; 131  : 	else
; 132  : 	{
; 133  : 		memset( m_aSlotApplet, 0, sizeof(m_aSlotApplet) );

  002dc	68 b0 0a 00 00	 push	 2736			; 00000ab0H
  002e1	8d 43 04	 lea	 eax, DWORD PTR [ebx+4]
  002e4	6a 00		 push	 0
  002e6	50		 push	 eax
  002e7	e8 00 00 00 00	 call	 _memset

; 134  : 		memset( m_aSlotItem, 0, sizeof(m_aSlotItem) );

  002ec	68 c0 2a 00 00	 push	 10944			; 00002ac0H
  002f1	8d 83 b4 0a 00
	00		 lea	 eax, DWORD PTR [ebx+2740]
  002f7	6a 00		 push	 0
  002f9	50		 push	 eax
  002fa	e8 00 00 00 00	 call	 _memset

; 135  : 		memset( m_aSlotQueue, 0, sizeof(m_aSlotQueue) );

  002ff	68 f8 02 00 00	 push	 760			; 000002f8H
  00304	8d 83 74 35 00
	00		 lea	 eax, DWORD PTR [ebx+13684]
  0030a	6a 00		 push	 0
  0030c	50		 push	 eax
  0030d	e8 00 00 00 00	 call	 _memset
  00312	83 c4 24	 add	 esp, 36			; 00000024H

; 136  : 
; 137  : 		int nCount, nIndex;
; 138  : 		ar >> nCount;	// applet count

  00315	8d 45 08	 lea	 eax, DWORD PTR _nCount$10[ebp]
  00318	8b ce		 mov	 ecx, esi
  0031a	50		 push	 eax
  0031b	e8 00 00 00 00	 call	 ??$?5H@CAr@@QAEAAV0@AAH@Z ; CAr::operator>><int>

; 139  : 		for( int i = 0; i < nCount; i++ )

  00320	8b 45 08	 mov	 eax, DWORD PTR _nCount$10[ebp]
  00323	89 45 f0	 mov	 DWORD PTR _nCount$1$[ebp], eax
  00326	85 c0		 test	 eax, eax
  00328	0f 8e 7c 00 00
	00		 jle	 $LN15@Serialize
  0032e	66 90		 npad	 2
$LL16@Serialize:

; 140  : 		{
; 141  : 			ar >> nIndex;

  00330	8d 45 fc	 lea	 eax, DWORD PTR _nIndex$6[ebp]
  00333	8b ce		 mov	 ecx, esi
  00335	50		 push	 eax
  00336	e8 00 00 00 00	 call	 ??$?5H@CAr@@QAEAAV0@AAH@Z ; CAr::operator>><int>

; 142  : 			ar >> m_aSlotApplet[nIndex].m_dwShortcut >>	m_aSlotApplet[nIndex].m_dwId >> m_aSlotApplet[nIndex].m_dwType;

  0033b	69 4d fc 98 00
	00 00		 imul	 ecx, DWORD PTR _nIndex$6[ebp], 152
  00342	03 cb		 add	 ecx, ebx
  00344	89 4d ec	 mov	 DWORD PTR tv929[ebp], ecx
  00347	8d 41 0c	 lea	 eax, DWORD PTR [ecx+12]
  0034a	50		 push	 eax
  0034b	8d 41 08	 lea	 eax, DWORD PTR [ecx+8]
  0034e	8d 79 04	 lea	 edi, DWORD PTR [ecx+4]
  00351	8b ce		 mov	 ecx, esi
  00353	50		 push	 eax
  00354	57		 push	 edi
  00355	e8 00 00 00 00	 call	 ??$?5K@CAr@@QAEAAV0@AAK@Z ; CAr::operator>><unsigned long>
  0035a	8b c8		 mov	 ecx, eax
  0035c	e8 00 00 00 00	 call	 ??$?5K@CAr@@QAEAAV0@AAK@Z ; CAr::operator>><unsigned long>
  00361	8b c8		 mov	 ecx, eax
  00363	e8 00 00 00 00	 call	 ??$?5K@CAr@@QAEAAV0@AAK@Z ; CAr::operator>><unsigned long>

; 143  : 			ar >> m_aSlotApplet[nIndex].m_dwIndex >> m_aSlotApplet[nIndex].m_dwUserId >> m_aSlotApplet[nIndex].m_dwData;

  00368	8b 4d ec	 mov	 ecx, DWORD PTR tv929[ebp]
  0036b	8d 41 18	 lea	 eax, DWORD PTR [ecx+24]
  0036e	50		 push	 eax
  0036f	8d 41 14	 lea	 eax, DWORD PTR [ecx+20]
  00372	50		 push	 eax
  00373	8d 41 10	 lea	 eax, DWORD PTR [ecx+16]
  00376	8b ce		 mov	 ecx, esi
  00378	50		 push	 eax
  00379	e8 00 00 00 00	 call	 ??$?5K@CAr@@QAEAAV0@AAK@Z ; CAr::operator>><unsigned long>
  0037e	8b c8		 mov	 ecx, eax
  00380	e8 00 00 00 00	 call	 ??$?5K@CAr@@QAEAAV0@AAK@Z ; CAr::operator>><unsigned long>
  00385	8b c8		 mov	 ecx, eax
  00387	e8 00 00 00 00	 call	 ??$?5K@CAr@@QAEAAV0@AAK@Z ; CAr::operator>><unsigned long>

; 144  : 			if( m_aSlotApplet[nIndex].m_dwShortcut == SHORTCUT_CHAT)

  0038c	83 3f 08	 cmp	 DWORD PTR [edi], 8
  0038f	75 13		 jne	 SHORT $LN14@Serialize

; 145  : 				ar.ReadString( m_aSlotApplet[nIndex].m_szString, MAX_SHORTCUT_STRING );

  00391	8b 45 ec	 mov	 eax, DWORD PTR tv929[ebp]
  00394	8b ce		 mov	 ecx, esi
  00396	68 80 00 00 00	 push	 128			; 00000080H
  0039b	83 c0 1c	 add	 eax, 28			; 0000001cH
  0039e	50		 push	 eax
  0039f	e8 00 00 00 00	 call	 ?ReadString@CAr@@QAEPADPADH@Z ; CAr::ReadString
$LN14@Serialize:

; 139  : 		for( int i = 0; i < nCount; i++ )

  003a4	83 6d f0 01	 sub	 DWORD PTR _nCount$1$[ebp], 1
  003a8	75 86		 jne	 SHORT $LL16@Serialize
$LN15@Serialize:

; 146  : //			ar >>  m_aSlotApplet[nIndex]¿¡ ¾Æ±î ³ÖÀº ÇÊ¿äÇÑ Á¤º¸¸¦ ³Ö´Â´Ù.
; 147  : 		}
; 148  : 		ar >> nCount;	// slot item count

  003aa	8d 45 08	 lea	 eax, DWORD PTR _nCount$10[ebp]
  003ad	8b ce		 mov	 ecx, esi
  003af	50		 push	 eax
  003b0	e8 00 00 00 00	 call	 ??$?5H@CAr@@QAEAAV0@AAH@Z ; CAr::operator>><int>

; 149  : 		int nIndex2;
; 150  : 		for( int i = 0; i < nCount; i++ )

  003b5	8b 45 08	 mov	 eax, DWORD PTR _nCount$10[ebp]
  003b8	89 45 f0	 mov	 DWORD PTR _nCount$2$[ebp], eax
  003bb	85 c0		 test	 eax, eax
  003bd	0f 8e a7 00 00
	00		 jle	 $LN18@Serialize
$LL19@Serialize:

; 151  : 		{
; 152  : 			ar >> nIndex >> nIndex2;	// index

  003c3	8d 45 e4	 lea	 eax, DWORD PTR _nIndex2$1[ebp]
  003c6	8b ce		 mov	 ecx, esi
  003c8	50		 push	 eax
  003c9	8d 45 fc	 lea	 eax, DWORD PTR _nIndex$6[ebp]
  003cc	50		 push	 eax
  003cd	e8 00 00 00 00	 call	 ??$?5H@CAr@@QAEAAV0@AAH@Z ; CAr::operator>><int>
  003d2	8b c8		 mov	 ecx, eax
  003d4	e8 00 00 00 00	 call	 ??$?5H@CAr@@QAEAAV0@AAH@Z ; CAr::operator>><int>

; 153  : 			ar >> m_aSlotItem[nIndex][nIndex2].m_dwShortcut >>	m_aSlotItem[nIndex][nIndex2].m_dwId >> m_aSlotItem[nIndex][nIndex2].m_dwType;

  003d9	8b 4d fc	 mov	 ecx, DWORD PTR _nIndex$6[ebp]
  003dc	8b 45 e4	 mov	 eax, DWORD PTR _nIndex2$1[ebp]
  003df	8d 04 c8	 lea	 eax, DWORD PTR [eax+ecx*8]
  003e2	03 c1		 add	 eax, ecx
  003e4	69 c8 98 00 00
	00		 imul	 ecx, eax, 152
  003ea	03 cb		 add	 ecx, ebx
  003ec	89 4d ec	 mov	 DWORD PTR tv927[ebp], ecx
  003ef	8d 81 bc 0a 00
	00		 lea	 eax, DWORD PTR [ecx+2748]
  003f5	50		 push	 eax
  003f6	8d 81 b8 0a 00
	00		 lea	 eax, DWORD PTR [ecx+2744]
  003fc	8d b9 b4 0a 00
	00		 lea	 edi, DWORD PTR [ecx+2740]
  00402	8b ce		 mov	 ecx, esi
  00404	50		 push	 eax
  00405	57		 push	 edi
  00406	e8 00 00 00 00	 call	 ??$?5K@CAr@@QAEAAV0@AAK@Z ; CAr::operator>><unsigned long>
  0040b	8b c8		 mov	 ecx, eax
  0040d	e8 00 00 00 00	 call	 ??$?5K@CAr@@QAEAAV0@AAK@Z ; CAr::operator>><unsigned long>
  00412	8b c8		 mov	 ecx, eax
  00414	e8 00 00 00 00	 call	 ??$?5K@CAr@@QAEAAV0@AAK@Z ; CAr::operator>><unsigned long>

; 154  : 			ar >> m_aSlotItem[nIndex][nIndex2].m_dwIndex >> m_aSlotItem[nIndex][nIndex2].m_dwUserId >> m_aSlotItem[nIndex][nIndex2].m_dwData;

  00419	8b 4d ec	 mov	 ecx, DWORD PTR tv927[ebp]
  0041c	8d 81 c8 0a 00
	00		 lea	 eax, DWORD PTR [ecx+2760]
  00422	50		 push	 eax
  00423	8d 81 c4 0a 00
	00		 lea	 eax, DWORD PTR [ecx+2756]
  00429	50		 push	 eax
  0042a	8d 81 c0 0a 00
	00		 lea	 eax, DWORD PTR [ecx+2752]
  00430	8b ce		 mov	 ecx, esi
  00432	50		 push	 eax
  00433	e8 00 00 00 00	 call	 ??$?5K@CAr@@QAEAAV0@AAK@Z ; CAr::operator>><unsigned long>
  00438	8b c8		 mov	 ecx, eax
  0043a	e8 00 00 00 00	 call	 ??$?5K@CAr@@QAEAAV0@AAK@Z ; CAr::operator>><unsigned long>
  0043f	8b c8		 mov	 ecx, eax
  00441	e8 00 00 00 00	 call	 ??$?5K@CAr@@QAEAAV0@AAK@Z ; CAr::operator>><unsigned long>

; 155  : 			if( m_aSlotItem[nIndex][nIndex2].m_dwShortcut == SHORTCUT_CHAT)

  00446	83 3f 08	 cmp	 DWORD PTR [edi], 8
  00449	75 15		 jne	 SHORT $LN17@Serialize

; 156  : 				ar.ReadString( m_aSlotItem[nIndex][nIndex2].m_szString, MAX_SHORTCUT_STRING );

  0044b	8b 45 ec	 mov	 eax, DWORD PTR tv927[ebp]
  0044e	8b ce		 mov	 ecx, esi
  00450	68 80 00 00 00	 push	 128			; 00000080H
  00455	05 cc 0a 00 00	 add	 eax, 2764		; 00000accH
  0045a	50		 push	 eax
  0045b	e8 00 00 00 00	 call	 ?ReadString@CAr@@QAEPADPADH@Z ; CAr::ReadString
$LN17@Serialize:

; 149  : 		int nIndex2;
; 150  : 		for( int i = 0; i < nCount; i++ )

  00460	83 6d f0 01	 sub	 DWORD PTR _nCount$2$[ebp], 1
  00464	0f 85 59 ff ff
	ff		 jne	 $LL19@Serialize
$LN18@Serialize:

; 157  : 		}
; 158  : 
; 159  : 		ar >> nCount;

  0046a	8d 45 08	 lea	 eax, DWORD PTR _nCount$10[ebp]
  0046d	8b ce		 mov	 ecx, esi
  0046f	50		 push	 eax
  00470	e8 00 00 00 00	 call	 ??$?5H@CAr@@QAEAAV0@AAH@Z ; CAr::operator>><int>

; 160  : 		for( int i = 0; i < nCount; i++ )

  00475	8b 45 08	 mov	 eax, DWORD PTR _nCount$10[ebp]
  00478	89 45 08	 mov	 DWORD PTR _nCount$3$[ebp], eax
  0047b	85 c0		 test	 eax, eax
  0047d	7e 6f		 jle	 SHORT $LN21@Serialize
  0047f	90		 npad	 1
$LL22@Serialize:

; 161  : 		{
; 162  : 			ar >> nIndex;

  00480	8d 45 fc	 lea	 eax, DWORD PTR _nIndex$6[ebp]
  00483	8b ce		 mov	 ecx, esi
  00485	50		 push	 eax
  00486	e8 00 00 00 00	 call	 ??$?5H@CAr@@QAEAAV0@AAH@Z ; CAr::operator>><int>

; 163  : 			ar >> m_aSlotQueue[nIndex].m_dwShortcut >> m_aSlotQueue[nIndex].m_dwId >> m_aSlotQueue[nIndex].m_dwType;

  0048b	69 7d fc 98 00
	00 00		 imul	 edi, DWORD PTR _nIndex$6[ebp], 152
  00492	8b ce		 mov	 ecx, esi
  00494	03 fb		 add	 edi, ebx
  00496	8d 87 7c 35 00
	00		 lea	 eax, DWORD PTR [edi+13692]
  0049c	50		 push	 eax
  0049d	8d 87 78 35 00
	00		 lea	 eax, DWORD PTR [edi+13688]
  004a3	50		 push	 eax
  004a4	8d 87 74 35 00
	00		 lea	 eax, DWORD PTR [edi+13684]
  004aa	50		 push	 eax
  004ab	e8 00 00 00 00	 call	 ??$?5K@CAr@@QAEAAV0@AAK@Z ; CAr::operator>><unsigned long>
  004b0	8b c8		 mov	 ecx, eax
  004b2	e8 00 00 00 00	 call	 ??$?5K@CAr@@QAEAAV0@AAK@Z ; CAr::operator>><unsigned long>
  004b7	8b c8		 mov	 ecx, eax
  004b9	e8 00 00 00 00	 call	 ??$?5K@CAr@@QAEAAV0@AAK@Z ; CAr::operator>><unsigned long>

; 164  : 			ar >> m_aSlotQueue[nIndex].m_dwIndex >> m_aSlotQueue[nIndex].m_dwUserId >> m_aSlotQueue[nIndex].m_dwData;

  004be	8d 87 88 35 00
	00		 lea	 eax, DWORD PTR [edi+13704]
  004c4	8b ce		 mov	 ecx, esi
  004c6	50		 push	 eax
  004c7	8d 87 84 35 00
	00		 lea	 eax, DWORD PTR [edi+13700]
  004cd	50		 push	 eax
  004ce	8d 87 80 35 00
	00		 lea	 eax, DWORD PTR [edi+13696]
  004d4	50		 push	 eax
  004d5	e8 00 00 00 00	 call	 ??$?5K@CAr@@QAEAAV0@AAK@Z ; CAr::operator>><unsigned long>
  004da	8b c8		 mov	 ecx, eax
  004dc	e8 00 00 00 00	 call	 ??$?5K@CAr@@QAEAAV0@AAK@Z ; CAr::operator>><unsigned long>
  004e1	8b c8		 mov	 ecx, eax
  004e3	e8 00 00 00 00	 call	 ??$?5K@CAr@@QAEAAV0@AAK@Z ; CAr::operator>><unsigned long>
  004e8	83 6d 08 01	 sub	 DWORD PTR _nCount$3$[ebp], 1
  004ec	75 92		 jne	 SHORT $LL22@Serialize
$LN21@Serialize:

; 165  : //			ar >> m_aSlotQueue[nIndex]¿¡ Á¤º¸¸¦ ³Ö´Â´Ù.
; 166  : 		}
; 167  : 		ar >> m_nActionPoint;

  004ee	8d 83 6c 38 00
	00		 lea	 eax, DWORD PTR [ebx+14444]
  004f4	8b ce		 mov	 ecx, esi
  004f6	50		 push	 eax
  004f7	e8 00 00 00 00	 call	 ??$?5H@CAr@@QAEAAV0@AAH@Z ; CAr::operator>><int>
  004fc	5f		 pop	 edi

; 168  : 	}
; 169  : }

  004fd	5e		 pop	 esi
  004fe	5b		 pop	 ebx
  004ff	8b e5		 mov	 esp, ebp
  00501	5d		 pop	 ebp
  00502	c2 04 00	 ret	 4
?Serialize@CUserTaskBar@@QAEXAAVCAr@@@Z ENDP		; CUserTaskBar::Serialize
_TEXT	ENDS
; Function compile flags: /Ogtp
; File C:\IAGOS\server\v18\Source\Source\_Interface\UserTaskBar.cpp
;	COMDAT ??1CUserTaskBar@@UAE@XZ
_TEXT	SEGMENT
??1CUserTaskBar@@UAE@XZ PROC				; CUserTaskBar::~CUserTaskBar, COMDAT
; _this$ = ecx

; 21   : {

  00000	c7 01 00 00 00
	00		 mov	 DWORD PTR [ecx], OFFSET ??_7CUserTaskBar@@6B@

; 22   : 
; 23   : }

  00006	c3		 ret	 0
??1CUserTaskBar@@UAE@XZ ENDP				; CUserTaskBar::~CUserTaskBar
_TEXT	ENDS
; Function compile flags: /Ogtp
; File C:\IAGOS\server\v18\Source\Source\_Interface\UserTaskBar.cpp
;	COMDAT ??0CUserTaskBar@@QAE@XZ
_TEXT	SEGMENT
??0CUserTaskBar@@QAE@XZ PROC				; CUserTaskBar::CUserTaskBar, COMDAT
; _this$ = ecx

; 16   : {

  00000	56		 push	 esi
  00001	8b f1		 mov	 esi, ecx
  00003	c7 06 00 00 00
	00		 mov	 DWORD PTR [esi], OFFSET ??_7CUserTaskBar@@6B@

; 17   : 	InitTaskBar();

  00009	e8 00 00 00 00	 call	 ?InitTaskBar@CUserTaskBar@@QAEXXZ ; CUserTaskBar::InitTaskBar

; 18   : }

  0000e	8b c6		 mov	 eax, esi
  00010	5e		 pop	 esi
  00011	c3		 ret	 0
??0CUserTaskBar@@QAE@XZ ENDP				; CUserTaskBar::CUserTaskBar
_TEXT	ENDS
; Function compile flags: /Ogtp
; File C:\IAGOS\server\v18\Source\Source\_Interface\UserTaskBar.cpp
;	COMDAT ?__empty_global_delete@@YAXPAXI@Z
_TEXT	SEGMENT
___formal$ = 8						; size = 4
___formal$ = 12						; size = 4
?__empty_global_delete@@YAXPAXI@Z PROC			; __empty_global_delete, COMDAT

  00000	c2 00 00	 ret	 0
?__empty_global_delete@@YAXPAXI@Z ENDP			; __empty_global_delete
_TEXT	ENDS
; Function compile flags: /Ogtp
; File C:\IAGOS\server\v18\Source\Source\_Interface\UserTaskBar.cpp
;	COMDAT ?__empty_global_delete@@YAXPAX@Z
_TEXT	SEGMENT
___formal$ = 8						; size = 4
?__empty_global_delete@@YAXPAX@Z PROC			; __empty_global_delete, COMDAT

  00000	c2 00 00	 ret	 0
?__empty_global_delete@@YAXPAX@Z ENDP			; __empty_global_delete
_TEXT	ENDS
END
