; Listing generated by Microsoft (R) Optimizing Compiler Version 19.44.35225.0 

	TITLE	C:\IAGOS\server\v18\Source\Output\DatabaseServer\Release\vutil.obj
	.686P
	.XMM
	include listing.inc
	.model	flat

INCLUDELIB LIBCMT
INCLUDELIB OLDNAMES

PUBLIC	?__empty_global_delete@@YAXPAX@Z		; __empty_global_delete
PUBLIC	?__empty_global_delete@@YAXPAXI@Z		; __empty_global_delete
PUBLIC	?AtlThrowImpl@ATL@@YGXJ@Z			; ATL::AtlThrowImpl
PUBLIC	?SetString@?$CSimpleStringT@D$0A@@ATL@@QAEXPBDH@Z ; ATL::CSimpleStringT<char,0>::SetString
PUBLIC	?ThrowMemoryException@?$CSimpleStringT@D$0A@@ATL@@KAXXZ ; ATL::CSimpleStringT<char,0>::ThrowMemoryException
PUBLIC	?Fork@?$CSimpleStringT@D$0A@@ATL@@AAEXH@Z	; ATL::CSimpleStringT<char,0>::Fork
PUBLIC	?PrepareWrite2@?$CSimpleStringT@D$0A@@ATL@@AAEXH@Z ; ATL::CSimpleStringT<char,0>::PrepareWrite2
PUBLIC	?Reallocate@?$CSimpleStringT@D$0A@@ATL@@AAEXH@Z	; ATL::CSimpleStringT<char,0>::Reallocate
PUBLIC	?CloneData@?$CSimpleStringT@D$0A@@ATL@@CAPAUCStringData@2@PAU32@@Z ; ATL::CSimpleStringT<char,0>::CloneData
PUBLIC	??1?$CStringT@DV?$StrTraitMFC@DV?$ChTraitsCRT@D@ATL@@@@@ATL@@QAE@XZ ; ATL::CStringT<char,StrTraitMFC<char,ATL::ChTraitsCRT<char> > >::~CStringT<char,StrTraitMFC<char,ATL::ChTraitsCRT<char> > >
PUBLIC	??4?$CStringT@DV?$StrTraitMFC@DV?$ChTraitsCRT@D@ATL@@@@@ATL@@QAEAAV01@ABV01@@Z ; ATL::CStringT<char,StrTraitMFC<char,ATL::ChTraitsCRT<char> > >::operator=
PUBLIC	?Left@?$CStringT@DV?$StrTraitMFC@DV?$ChTraitsCRT@D@ATL@@@@@ATL@@QBE?AV12@H@Z ; ATL::CStringT<char,StrTraitMFC<char,ATL::ChTraitsCRT<char> > >::Left
PUBLIC	?SetStrNull@@YAXPADH@Z				; SetStrNull
PUBLIC	?SetStrNull@@YAXAAV?$CStringT@DV?$StrTraitMFC@DV?$ChTraitsCRT@D@ATL@@@@@ATL@@H@Z ; SetStrNull
PUBLIC	?GetCharLen@@YAHPBD@Z				; GetCharLen
PUBLIC	?CopyChar@@YAHPBDPAD@Z				; CopyChar
PUBLIC	?IsMultiByte@@YAHPBD@Z				; IsMultiByte
PUBLIC	?IsHangul@@YAHG@Z				; IsHangul
PUBLIC	?IsNative@@YAHPBD@Z				; IsNative
PUBLIC	?GetStrCut@@YAHPBDPADH@Z			; GetStrCut
PUBLIC	?GetStrLen@@YAHPBD@Z				; GetStrLen
EXTRN	__invalid_parameter_noinfo:PROC
EXTRN	__errno:PROC
EXTRN	__imp__CharNextA@4:PROC
EXTRN	__imp__IsDBCSLeadByte@4:PROC
EXTRN	?AfxThrowMemoryException@@YGXXZ:PROC		; AfxThrowMemoryException
EXTRN	?AfxThrowOleException@@YGXJ@Z:PROC		; AfxThrowOleException
EXTRN	?AfxGetStringManager@@YGPAUIAtlStringMgr@ATL@@XZ:PROC ; AfxGetStringManager
EXTRN	?CharNextEx@@YAPBDPBDG@Z:PROC			; CharNextEx
EXTRN	@__security_check_cookie@4:PROC
EXTRN	___CxxFrameHandler3:PROC
EXTRN	_memcpy:PROC
EXTRN	_memmove:PROC
EXTRN	_memset:PROC
EXTRN	?g_codePage@@3GA:WORD				; g_codePage
EXTRN	___security_cookie:DWORD
;	COMDAT xdata$x
xdata$x	SEGMENT
__unwindtable$?SetStrNull@@YAXAAV?$CStringT@DV?$StrTraitMFC@DV?$ChTraitsCRT@D@ATL@@@@@ATL@@H@Z DD 0ffffffffH
	DD	FLAT:__unwindfunclet$?SetStrNull@@YAXAAV?$CStringT@DV?$StrTraitMFC@DV?$ChTraitsCRT@D@ATL@@@@@ATL@@H@Z$0
	DD	0ffffffffH
	DD	FLAT:__unwindfunclet$?SetStrNull@@YAXAAV?$CStringT@DV?$StrTraitMFC@DV?$ChTraitsCRT@D@ATL@@@@@ATL@@H@Z$1
__ehfuncinfo$?SetStrNull@@YAXAAV?$CStringT@DV?$StrTraitMFC@DV?$ChTraitsCRT@D@ATL@@@@@ATL@@H@Z DD 019930522H
	DD	02H
	DD	FLAT:__unwindtable$?SetStrNull@@YAXAAV?$CStringT@DV?$StrTraitMFC@DV?$ChTraitsCRT@D@ATL@@@@@ATL@@H@Z
	DD	2 DUP(00H)
	DD	2 DUP(00H)
	DD	00H
	DD	01H
xdata$x	ENDS
; Function compile flags: /Ogtp
; File C:\IAGOS\server\v18\Source\Source\_common\vutil.cpp
;	COMDAT ?GetStrLen@@YAHPBD@Z
_TEXT	SEGMENT
_pSrc$ = 8						; size = 4
?GetStrLen@@YAHPBD@Z PROC				; GetStrLen, COMDAT

; 38   : {

  00000	55		 push	 ebp
  00001	8b ec		 mov	 ebp, esp
  00003	8b 45 08	 mov	 eax, DWORD PTR _pSrc$[ebp]
  00006	57		 push	 edi

; 39   : 	int nCount = 0;

  00007	33 ff		 xor	 edi, edi

; 40   : 	int nOffset = 0;
; 41   : 	int nLen;
; 42   : 	
; 43   : 	while( pSrc[ nOffset ] != NULL )

  00009	80 38 00	 cmp	 BYTE PTR [eax], 0
  0000c	74 17		 je	 SHORT $LN9@GetStrLen
  0000e	56		 push	 esi
  0000f	8b f0		 mov	 esi, eax
$LL2@GetStrLen:

; 44   : 	{
; 45   : 		nLen = GetCharLen( &pSrc[ nOffset ]  );

  00011	50		 push	 eax
  00012	e8 00 00 00 00	 call	 ?GetCharLen@@YAHPBD@Z	; GetCharLen

; 46   : 		nOffset += nLen;

  00017	03 f0		 add	 esi, eax
  00019	83 c4 04	 add	 esp, 4

; 47   : 		nCount++;

  0001c	47		 inc	 edi
  0001d	8b c6		 mov	 eax, esi
  0001f	80 3e 00	 cmp	 BYTE PTR [esi], 0
  00022	75 ed		 jne	 SHORT $LL2@GetStrLen

; 40   : 	int nOffset = 0;
; 41   : 	int nLen;
; 42   : 	
; 43   : 	while( pSrc[ nOffset ] != NULL )

  00024	5e		 pop	 esi
$LN9@GetStrLen:

; 48   : 	}
; 49   : 	
; 50   : 	return nCount;
; 51   : }	

  00025	8b c7		 mov	 eax, edi
  00027	5f		 pop	 edi
  00028	5d		 pop	 ebp
  00029	c3		 ret	 0
?GetStrLen@@YAHPBD@Z ENDP				; GetStrLen
_TEXT	ENDS
; Function compile flags: /Ogtp
; File C:\IAGOS\server\v18\Source\Source\_common\vutil.cpp
;	COMDAT ?GetStrCut@@YAHPBDPADH@Z
_TEXT	SEGMENT
_pSrc$ = 8						; size = 4
_pDest$ = 12						; size = 4
_nCount$ = 16						; size = 4
?GetStrCut@@YAHPBDPADH@Z PROC				; GetStrCut, COMDAT

; 20   : {

  00000	55		 push	 ebp
  00001	8b ec		 mov	 ebp, esp
  00003	8b 45 08	 mov	 eax, DWORD PTR _pSrc$[ebp]
  00006	53		 push	 ebx
  00007	57		 push	 edi

; 21   : 	int nOffset = 0;
; 22   : 	int nLen;
; 23   : 	
; 24   : 	while( nCount )

  00008	8b 7d 10	 mov	 edi, DWORD PTR _nCount$[ebp]
  0000b	33 db		 xor	 ebx, ebx
  0000d	85 ff		 test	 edi, edi
  0000f	74 1a		 je	 SHORT $LN3@GetStrCut
  00011	56		 push	 esi
  00012	8b f0		 mov	 esi, eax
$LL2@GetStrCut:

; 25   : 	{
; 26   : 		nLen = GetCharLen( &pSrc[ nOffset ]  );

  00014	56		 push	 esi
  00015	e8 00 00 00 00	 call	 ?GetCharLen@@YAHPBD@Z	; GetCharLen
  0001a	83 c4 04	 add	 esp, 4

; 27   : 		nOffset += nLen;

  0001d	03 d8		 add	 ebx, eax
  0001f	8d 34 06	 lea	 esi, DWORD PTR [esi+eax]

; 28   : 		nCount--;

  00022	83 ef 01	 sub	 edi, 1
  00025	75 ed		 jne	 SHORT $LL2@GetStrCut

; 21   : 	int nOffset = 0;
; 22   : 	int nLen;
; 23   : 	
; 24   : 	while( nCount )

  00027	8b 45 08	 mov	 eax, DWORD PTR _pSrc$[ebp]
  0002a	5e		 pop	 esi
$LN3@GetStrCut:

; 29   : 	}
; 30   : 	
; 31   : 	memcpy( pDest, pSrc, sizeof(char)*nOffset);

  0002b	53		 push	 ebx
  0002c	50		 push	 eax
  0002d	ff 75 0c	 push	 DWORD PTR _pDest$[ebp]
  00030	e8 00 00 00 00	 call	 _memcpy
  00035	83 c4 0c	 add	 esp, 12			; 0000000cH

; 32   : 	
; 33   : 	return 1;

  00038	b8 01 00 00 00	 mov	 eax, 1
  0003d	5f		 pop	 edi
  0003e	5b		 pop	 ebx

; 34   : }	

  0003f	5d		 pop	 ebp
  00040	c3		 ret	 0
?GetStrCut@@YAHPBDPADH@Z ENDP				; GetStrCut
_TEXT	ENDS
; Function compile flags: /Ogtp
; File C:\IAGOS\server\v18\Source\Source\_common\vutil.cpp
; File C:\IAGOS\server\v18\Source\Source\_Common\vutil.h
; File C:\IAGOS\server\v18\Source\Source\_common\vutil.cpp
;	COMDAT ?IsNative@@YAHPBD@Z
_TEXT	SEGMENT
_lpszStr$ = 8						; size = 4
?IsNative@@YAHPBD@Z PROC				; IsNative, COMDAT

; 69   : {

  00000	55		 push	 ebp
  00001	8b ec		 mov	 ebp, esp

; 70   : 	ASSERT( g_codePage != 0 );
; 71   : 
; 72   : 	LPCWSTR pwSrc = (LPCWSTR) lpszStr;
; 73   : 
; 74   : 	if( g_codePage == 874 ) // Ĺ¸ŔĚ 

  00003	66 a1 00 00 00
	00		 mov	 ax, WORD PTR ?g_codePage@@3GA ; g_codePage
  00009	b9 6a 03 00 00	 mov	 ecx, 874		; 0000036aH
  0000e	66 3b c1	 cmp	 ax, cx
  00011	75 10		 jne	 SHORT $LN2@IsNative

; 75   : 	{
; 76   : 		return (BYTE)*lpszStr >= 0xa1 && (BYTE)*lpszStr <= 0xfb;

  00013	8b 45 08	 mov	 eax, DWORD PTR _lpszStr$[ebp]
  00016	b1 5a		 mov	 cl, 90			; 0000005aH
  00018	8a 00		 mov	 al, BYTE PTR [eax]
  0001a	04 5f		 add	 al, 95			; 0000005fH
  0001c	3a c8		 cmp	 cl, al
  0001e	1b c0		 sbb	 eax, eax
  00020	40		 inc	 eax

; 115  : }

  00021	5d		 pop	 ebp
  00022	c3		 ret	 0
$LN2@IsNative:

; 77   : 	}
; 78   : 	else
; 79   : 	if( g_codePage == 949 ) // ÇŃ±Ű 

  00023	b9 b5 03 00 00	 mov	 ecx, 949		; 000003b5H
  00028	66 3b c1	 cmp	 ax, cx
  0002b	75 0f		 jne	 SHORT $LN4@IsNative

; 80   : 	{
; 81   : 		return IsHangul( *pwSrc );

  0002d	8b 45 08	 mov	 eax, DWORD PTR _lpszStr$[ebp]
  00030	0f b7 00	 movzx	 eax, WORD PTR [eax]
  00033	89 45 08	 mov	 DWORD PTR _lpszStr$[ebp], eax

; 115  : }

  00036	5d		 pop	 ebp

; 80   : 	{
; 81   : 		return IsHangul( *pwSrc );

  00037	e9 00 00 00 00	 jmp	 ?IsHangul@@YAHG@Z	; IsHangul
$LN4@IsNative:

; 82   : 	}
; 83   : 	else
; 84   : 	if( g_codePage == 932 ) // ŔĎş» 

  0003c	b9 a4 03 00 00	 mov	 ecx, 932		; 000003a4H
  00041	66 3b c1	 cmp	 ax, cx
  00044	75 0f		 jne	 SHORT $LN6@IsNative
$LN29@IsNative:

; 115  : }

  00046	8b 45 08	 mov	 eax, DWORD PTR _lpszStr$[ebp]
  00049	0f b6 00	 movzx	 eax, BYTE PTR [eax]
  0004c	50		 push	 eax
  0004d	ff 15 00 00 00
	00		 call	 DWORD PTR __imp__IsDBCSLeadByte@4
  00053	5d		 pop	 ebp
  00054	c3		 ret	 0
$LN6@IsNative:

; 85   : 	{
; 86   : 		return IsDBCSLeadByte( (BYTE)( *pwSrc ) );
; 87   : 	}
; 88   : 	else
; 89   : 	if( g_codePage == 936 ) // ÇŃŔÚ : Áß±ą

  00055	b9 a8 03 00 00	 mov	 ecx, 936		; 000003a8H
  0005a	66 3b c1	 cmp	 ax, cx
  0005d	74 e7		 je	 SHORT $LN29@IsNative

; 90   : 	{
; 91   : 		return IsDBCSLeadByte( (BYTE)( *pwSrc ) );
; 92   : 	}
; 93   : 	else
; 94   : 	if( g_codePage == 950 ) // ÇŃŔÚ : ´ë¸¸ 

  0005f	b9 b6 03 00 00	 mov	 ecx, 950		; 000003b6H
  00064	66 3b c1	 cmp	 ax, cx
  00067	75 39		 jne	 SHORT $LN17@IsNative

; 95   : 	{
; 96   : //		return IsDBCSLeadByte( *pwSrc );
; 97   : 
; 98   : 		if( ((BYTE)*lpszStr >= 0xCA && (BYTE)*lpszStr <= 0xFD) && ( (BYTE)*lpszStr+1 >= 0xA1 ) && ( (BYTE)*lpszStr+1 <= 0xFE) )

  00069	8b 45 08	 mov	 eax, DWORD PTR _lpszStr$[ebp]
  0006c	8a 08		 mov	 cl, BYTE PTR [eax]
  0006e	8d 41 36	 lea	 eax, DWORD PTR [ecx+54]
  00071	3c 33		 cmp	 al, 51			; 00000033H
  00073	77 0d		 ja	 SHORT $LN11@IsNative
  00075	0f b6 c1	 movzx	 eax, cl
  00078	2d a0 00 00 00	 sub	 eax, 160		; 000000a0H
  0007d	83 f8 5d	 cmp	 eax, 93			; 0000005dH
  00080	76 19		 jbe	 SHORT $LN25@IsNative
$LN11@IsNative:

; 99   : 		{
; 100  : 			return TRUE;
; 101  : 		}
; 102  : 		else
; 103  : 		if ( ( ( (BYTE)*lpszStr >= 0x41 ) && 
; 104  : 		 	 ( (BYTE)*lpszStr <= 0x5A ) ) || 

  00082	80 f9 41	 cmp	 cl, 65			; 00000041H
  00085	72 05		 jb	 SHORT $LN16@IsNative
  00087	80 f9 5a	 cmp	 cl, 90			; 0000005aH
  0008a	76 0f		 jbe	 SHORT $LN25@IsNative
$LN16@IsNative:
  0008c	8d 41 9f	 lea	 eax, DWORD PTR [ecx-97]
  0008f	3c 19		 cmp	 al, 25			; 00000019H
  00091	76 08		 jbe	 SHORT $LN25@IsNative
; File C:\IAGOS\server\v18\Source\Source\_Common\vutil.h

; 105  : 	if( c >= '0' && c <= '9' )

  00093	80 e9 30	 sub	 cl, 48			; 00000030H
  00096	80 f9 09	 cmp	 cl, 9
  00099	77 07		 ja	 SHORT $LN17@IsNative
$LN25@IsNative:
; File C:\IAGOS\server\v18\Source\Source\_common\vutil.cpp

; 111  : 			return TRUE;

  0009b	b8 01 00 00 00	 mov	 eax, 1

; 115  : }

  000a0	5d		 pop	 ebp
  000a1	c3		 ret	 0
$LN17@IsNative:

; 112  : 		
; 113  : 	}
; 114  : 	return FALSE;

  000a2	33 c0		 xor	 eax, eax

; 115  : }

  000a4	5d		 pop	 ebp
  000a5	c3		 ret	 0
?IsNative@@YAHPBD@Z ENDP				; IsNative
_TEXT	ENDS
; Function compile flags: /Ogtp
; File C:\IAGOS\server\v18\Source\Source\_common\vutil.cpp
;	COMDAT ?IsHangul@@YAHG@Z
_TEXT	SEGMENT
_word$ = 8						; size = 2
?IsHangul@@YAHG@Z PROC					; IsHangul, COMDAT

; 118  : {

  00000	55		 push	 ebp
  00001	8b ec		 mov	 ebp, esp

; 119  : 	BYTE l = word & 0xff;

  00003	8b 55 08	 mov	 edx, DWORD PTR _word$[ebp]

; 120  : 	BYTE h = word >> 8;

  00006	8b ca		 mov	 ecx, edx
  00008	c1 e9 08	 shr	 ecx, 8

; 121  : 
; 122  : 	// ĆŻĽö ą®ŔÚ, ŔĎľî ±âĹ¸ ľđľî FALSE
; 123  : 	if( h >= 0xa1 && h <= 0xac && l >= 0xa0 && l <= 0xff )

  0000b	8d 41 5f	 lea	 eax, DWORD PTR [ecx+95]
  0000e	3c 0b		 cmp	 al, 11			; 0000000bH
  00010	77 05		 ja	 SHORT $LN2@IsHangul
  00012	80 fa a0	 cmp	 dl, 160			; 000000a0H
  00015	73 29		 jae	 SHORT $LN4@IsHangul
$LN2@IsHangul:

; 124  : 		return FALSE;
; 125  : 	// Č®Ŕĺ żĎĽşÇü  
; 126  : 	if( h >= 0x81 && h <= 0xc6 && l >= 0x41 && l <= 0xfe )

  00017	8d 41 7f	 lea	 eax, DWORD PTR [ecx+127]
  0001a	3c 45		 cmp	 al, 69			; 00000045H
  0001c	77 0e		 ja	 SHORT $LN3@IsHangul
  0001e	8d 42 bf	 lea	 eax, DWORD PTR [edx-65]
  00021	3c bd		 cmp	 al, 189			; 000000bdH
  00023	77 07		 ja	 SHORT $LN3@IsHangul

; 130  : 		return TRUE;

  00025	b8 01 00 00 00	 mov	 eax, 1

; 132  : } 

  0002a	5d		 pop	 ebp
  0002b	c3		 ret	 0
$LN3@IsHangul:

; 127  : 		return TRUE;
; 128  : 	// żĎĽşÇü ÄÚµĺ 
; 129  : 	if( h >= 0xb0 && h <= 0xc8 && l >= 0xa1 && l <= 0xfe )

  0002c	80 c1 50	 add	 cl, 80			; 00000050H
  0002f	80 f9 18	 cmp	 cl, 24			; 00000018H
  00032	77 0c		 ja	 SHORT $LN4@IsHangul
  00034	80 c2 5f	 add	 dl, 95			; 0000005fH
  00037	b0 5d		 mov	 al, 93			; 0000005dH
  00039	3a c2		 cmp	 al, dl
  0003b	1b c0		 sbb	 eax, eax
  0003d	40		 inc	 eax

; 132  : } 

  0003e	5d		 pop	 ebp
  0003f	c3		 ret	 0
$LN4@IsHangul:

; 131  : 	return FALSE;

  00040	33 c0		 xor	 eax, eax

; 132  : } 

  00042	5d		 pop	 ebp
  00043	c3		 ret	 0
?IsHangul@@YAHG@Z ENDP					; IsHangul
_TEXT	ENDS
; Function compile flags: /Ogtp
; File C:\IAGOS\server\v18\Source\Source\_common\vutil.cpp
;	COMDAT ?IsMultiByte@@YAHPBD@Z
_TEXT	SEGMENT
_pSrc$ = 8						; size = 4
?IsMultiByte@@YAHPBD@Z PROC				; IsMultiByte, COMDAT

; 64   : {

  00000	55		 push	 ebp
  00001	8b ec		 mov	 ebp, esp

; 65   : 	return ( CharNextEx(pSrc) - pSrc ) > 1;

  00003	0f b7 05 00 00
	00 00		 movzx	 eax, WORD PTR ?g_codePage@@3GA ; g_codePage
  0000a	50		 push	 eax
  0000b	ff 75 08	 push	 DWORD PTR _pSrc$[ebp]
  0000e	e8 00 00 00 00	 call	 ?CharNextEx@@YAPBDPBDG@Z ; CharNextEx
  00013	2b 45 08	 sub	 eax, DWORD PTR _pSrc$[ebp]
  00016	33 c9		 xor	 ecx, ecx
  00018	83 c4 08	 add	 esp, 8
  0001b	83 f8 01	 cmp	 eax, 1
  0001e	0f 9f c1	 setg	 cl
  00021	8b c1		 mov	 eax, ecx

; 66   : }

  00023	5d		 pop	 ebp
  00024	c3		 ret	 0
?IsMultiByte@@YAHPBD@Z ENDP				; IsMultiByte
_TEXT	ENDS
; Function compile flags: /Ogtp
; File C:\IAGOS\server\v18\Source\Source\_common\vutil.cpp
;	COMDAT ?CopyChar@@YAHPBDPAD@Z
_TEXT	SEGMENT
_pSrc$ = 8						; size = 4
_pDest$ = 12						; size = 4
?CopyChar@@YAHPBDPAD@Z PROC				; CopyChar, COMDAT

; 55   : {

  00000	55		 push	 ebp
  00001	8b ec		 mov	 ebp, esp

; 56   : 	const char* pNext = CharNextEx(pSrc);

  00003	0f b7 05 00 00
	00 00		 movzx	 eax, WORD PTR ?g_codePage@@3GA ; g_codePage
  0000a	56		 push	 esi
  0000b	8b 75 08	 mov	 esi, DWORD PTR _pSrc$[ebp]
  0000e	57		 push	 edi
  0000f	50		 push	 eax
  00010	56		 push	 esi
  00011	e8 00 00 00 00	 call	 ?CharNextEx@@YAPBDPBDG@Z ; CharNextEx

; 57   : 
; 58   : 	memcpy(pDest, pSrc, pNext - pSrc);

  00016	8b f8		 mov	 edi, eax
  00018	2b fe		 sub	 edi, esi
  0001a	57		 push	 edi
  0001b	56		 push	 esi
  0001c	ff 75 0c	 push	 DWORD PTR _pDest$[ebp]
  0001f	e8 00 00 00 00	 call	 _memcpy
  00024	83 c4 14	 add	 esp, 20			; 00000014H

; 59   : 
; 60   : 	return pNext - pSrc;

  00027	8b c7		 mov	 eax, edi
  00029	5f		 pop	 edi
  0002a	5e		 pop	 esi

; 61   : }

  0002b	5d		 pop	 ebp
  0002c	c3		 ret	 0
?CopyChar@@YAHPBDPAD@Z ENDP				; CopyChar
_TEXT	ENDS
; Function compile flags: /Ogtp
; File C:\IAGOS\server\v18\Source\Source\_common\vutil.cpp
;	COMDAT ?GetCharLen@@YAHPBD@Z
_TEXT	SEGMENT
_pStr$ = 8						; size = 4
?GetCharLen@@YAHPBD@Z PROC				; GetCharLen, COMDAT

; 13   : {

  00000	55		 push	 ebp
  00001	8b ec		 mov	 ebp, esp

; 14   : 	char* pNext = CharNext( pStr );

  00003	ff 75 08	 push	 DWORD PTR _pStr$[ebp]
  00006	ff 15 00 00 00
	00		 call	 DWORD PTR __imp__CharNextA@4

; 15   : 	return (int) (pNext - pStr );

  0000c	2b 45 08	 sub	 eax, DWORD PTR _pStr$[ebp]

; 16   : }

  0000f	5d		 pop	 ebp
  00010	c3		 ret	 0
?GetCharLen@@YAHPBD@Z ENDP				; GetCharLen
_TEXT	ENDS
; Function compile flags: /Ogtp
; File C:\IAGOS\server\v18\Source\Source\_common\vutil.cpp
; File C:\Program Files\Microsoft Visual Studio\2022\Professional\VC\Tools\MSVC\14.44.35207\atlmfc\include\atlsimpstr.h
; File C:\IAGOS\server\v18\Source\Source\_common\vutil.cpp
; File C:\Program Files\Microsoft Visual Studio\2022\Professional\VC\Tools\MSVC\14.44.35207\atlmfc\include\atlsimpstr.h
; File C:\IAGOS\server\v18\Source\Source\_common\vutil.cpp
; File C:\Program Files\Microsoft Visual Studio\2022\Professional\VC\Tools\MSVC\14.44.35207\atlmfc\include\atlsimpstr.h
; File C:\IAGOS\server\v18\Source\Source\_common\vutil.cpp
; File C:\Program Files\Microsoft Visual Studio\2022\Professional\VC\Tools\MSVC\14.44.35207\atlmfc\include\atlsimpstr.h
; File C:\IAGOS\server\v18\Source\Source\_common\vutil.cpp
;	COMDAT ?SetStrNull@@YAXAAV?$CStringT@DV?$StrTraitMFC@DV?$ChTraitsCRT@D@ATL@@@@@ATL@@H@Z
_TEXT	SEGMENT
__$EHRec$ = -12						; size = 12
_string$ = 8						; size = 4
$T2 = 8							; size = 4
_nNullLength$ = 12					; size = 4
$T3 = 12						; size = 4
?SetStrNull@@YAXAAV?$CStringT@DV?$StrTraitMFC@DV?$ChTraitsCRT@D@ATL@@@@@ATL@@H@Z PROC ; SetStrNull, COMDAT

; 162  : {

  00000	55		 push	 ebp
  00001	8b ec		 mov	 ebp, esp
  00003	6a ff		 push	 -1
  00005	68 00 00 00 00	 push	 __ehhandler$?SetStrNull@@YAXAAV?$CStringT@DV?$StrTraitMFC@DV?$ChTraitsCRT@D@ATL@@@@@ATL@@H@Z
  0000a	64 a1 00 00 00
	00		 mov	 eax, DWORD PTR fs:0
  00010	50		 push	 eax
  00011	53		 push	 ebx
  00012	56		 push	 esi
  00013	57		 push	 edi
  00014	a1 00 00 00 00	 mov	 eax, DWORD PTR ___security_cookie
  00019	33 c5		 xor	 eax, ebp
  0001b	50		 push	 eax
  0001c	8d 45 f4	 lea	 eax, DWORD PTR __$EHRec$[ebp]
  0001f	64 a3 00 00 00
	00		 mov	 DWORD PTR fs:0, eax

; 163  : 	int nLength = string.GetLength();

  00025	8b 7d 08	 mov	 edi, DWORD PTR _string$[ebp]

; 164  : 	// 0Ŕ» łÖŔ» Ć÷ÁöĽÇŔĚ ˝ÇÁ¦ ˝şĆ®¸µ ±ćŔĚş¸´Ů ±ć¸é ˝ÇÁ¦ ˝şĆ®¸µ ±ćŔĚ·Î ¸ÂĂâ ÇĘżä°ˇ ŔÖŔ˝
; 165  : 	if( nNullLength > nLength )

  00028	8b 5d 0c	 mov	 ebx, DWORD PTR _nNullLength$[ebp]
  0002b	8b 07		 mov	 eax, DWORD PTR [edi]
  0002d	3b 58 f4	 cmp	 ebx, DWORD PTR [eax-12]
  00030	0f 4f 58 f4	 cmovg	 ebx, DWORD PTR [eax-12]

; 166  : 		nNullLength = nLength;
; 167  : 	int i = NULL;
; 168  : 	for( i = 0; i < nNullLength; )

  00034	33 f6		 xor	 esi, esi
  00036	85 db		 test	 ebx, ebx
  00038	7e 31		 jle	 SHORT $LN3@SetStrNull
  0003a	66 0f 1f 44 00
	00		 npad	 6
$LL4@SetStrNull:
; File C:\Program Files\Microsoft Visual Studio\2022\Professional\VC\Tools\MSVC\14.44.35207\atlmfc\include\atlsimpstr.h

; 373  : 		if( (iChar < 0) || (iChar > GetLength()) )

  00040	85 f6		 test	 esi, esi
  00042	0f 88 93 00 00
	00		 js	 $LN45@SetStrNull

; 523  : 		return( GetData()->nDataLength );

  00048	8b 07		 mov	 eax, DWORD PTR [edi]

; 373  : 		if( (iChar < 0) || (iChar > GetLength()) )

  0004a	3b 70 f4	 cmp	 esi, DWORD PTR [eax-12]
  0004d	0f 8f 88 00 00
	00		 jg	 $LN45@SetStrNull
; File C:\IAGOS\server\v18\Source\Source\_common\vutil.cpp

; 177  : 		if( IsDBCSLeadByte( string[ i ] ) )

  00053	0f b6 04 30	 movzx	 eax, BYTE PTR [eax+esi]
  00057	50		 push	 eax
  00058	ff 15 00 00 00
	00		 call	 DWORD PTR __imp__IsDBCSLeadByte@4
  0005e	f7 d8		 neg	 eax
  00060	1b c0		 sbb	 eax, eax
  00062	f7 d8		 neg	 eax
  00064	40		 inc	 eax
  00065	03 f0		 add	 esi, eax
  00067	3b f3		 cmp	 esi, ebx
  00069	7c d5		 jl	 SHORT $LL4@SetStrNull
$LN3@SetStrNull:

; 178  : 			i+=2;
; 179  : 		else
; 180  : 			i++;
; 181  : 	}
; 182  : 	// i°ˇ nLength ş¸´Ů Ĺ©´Ů¸é WordÄł¸ŻĹÍŔĎ °ÍŔĚ°í, łˇşÎşĐŔĚ ±úÁ®Ľ­ żŔÂ÷°ˇ »ý±ä °ÍŔĚ´Ů.
; 183  : 	if( i > nNullLength )

  0006b	8b cf		 mov	 ecx, edi
  0006d	3b f3		 cmp	 esi, ebx
  0006f	7e 21		 jle	 SHORT $LN8@SetStrNull

; 184  : 		string = string.Left( i - 2 );

  00071	8d 46 fe	 lea	 eax, DWORD PTR [esi-2]
  00074	50		 push	 eax
  00075	8d 45 08	 lea	 eax, DWORD PTR $T2[ebp]
  00078	50		 push	 eax
  00079	e8 00 00 00 00	 call	 ?Left@?$CStringT@DV?$StrTraitMFC@DV?$ChTraitsCRT@D@ATL@@@@@ATL@@QBE?AV12@H@Z ; ATL::CStringT<char,StrTraitMFC<char,ATL::ChTraitsCRT<char> > >::Left
  0007e	50		 push	 eax
  0007f	8b cf		 mov	 ecx, edi
  00081	c7 45 fc 00 00
	00 00		 mov	 DWORD PTR __$EHRec$[ebp+8], 0
  00088	e8 00 00 00 00	 call	 ??4?$CStringT@DV?$StrTraitMFC@DV?$ChTraitsCRT@D@ATL@@@@@ATL@@QAEAAV01@ABV01@@Z ; ATL::CStringT<char,StrTraitMFC<char,ATL::ChTraitsCRT<char> > >::operator=
; File C:\Program Files\Microsoft Visual Studio\2022\Professional\VC\Tools\MSVC\14.44.35207\atlmfc\include\atlsimpstr.h

; 804  : 		return( reinterpret_cast< CStringData* >( m_pszData )-1 );

  0008d	8b 55 08	 mov	 edx, DWORD PTR $T2[ebp]
; File C:\IAGOS\server\v18\Source\Source\_common\vutil.cpp

; 184  : 		string = string.Left( i - 2 );

  00090	eb 1c		 jmp	 SHORT $LN52@SetStrNull
$LN8@SetStrNull:

; 185  : 	else
; 186  : 		string = string.Left( i );

  00092	56		 push	 esi
  00093	8d 45 0c	 lea	 eax, DWORD PTR $T3[ebp]
  00096	50		 push	 eax
  00097	e8 00 00 00 00	 call	 ?Left@?$CStringT@DV?$StrTraitMFC@DV?$ChTraitsCRT@D@ATL@@@@@ATL@@QBE?AV12@H@Z ; ATL::CStringT<char,StrTraitMFC<char,ATL::ChTraitsCRT<char> > >::Left
  0009c	50		 push	 eax
  0009d	8b cf		 mov	 ecx, edi
  0009f	c7 45 fc 01 00
	00 00		 mov	 DWORD PTR __$EHRec$[ebp+8], 1
  000a6	e8 00 00 00 00	 call	 ??4?$CStringT@DV?$StrTraitMFC@DV?$ChTraitsCRT@D@ATL@@@@@ATL@@QAEAAV01@ABV01@@Z ; ATL::CStringT<char,StrTraitMFC<char,ATL::ChTraitsCRT<char> > >::operator=
; File C:\Program Files\Microsoft Visual Studio\2022\Professional\VC\Tools\MSVC\14.44.35207\atlmfc\include\atlsimpstr.h

; 804  : 		return( reinterpret_cast< CStringData* >( m_pszData )-1 );

  000ab	8b 55 0c	 mov	 edx, DWORD PTR $T3[ebp]
$LN52@SetStrNull:
; File C:\IAGOS\server\v18\Source\Source\_common\vutil.cpp

; 187  : }

  000ae	83 c8 ff	 or	 eax, -1
  000b1	83 c2 f0	 add	 edx, -16		; fffffff0H
  000b4	89 45 fc	 mov	 DWORD PTR __$EHRec$[ebp+8], eax
  000b7	f0 0f c1 42 0c	 lock	  xadd	 DWORD PTR [edx+12], eax
  000bc	48		 dec	 eax
  000bd	85 c0		 test	 eax, eax
  000bf	7f 08		 jg	 SHORT $LN42@SetStrNull
  000c1	8b 0a		 mov	 ecx, DWORD PTR [edx]
  000c3	52		 push	 edx
  000c4	8b 01		 mov	 eax, DWORD PTR [ecx]
  000c6	ff 50 04	 call	 DWORD PTR [eax+4]
$LN42@SetStrNull:
  000c9	8b 4d f4	 mov	 ecx, DWORD PTR __$EHRec$[ebp]
  000cc	64 89 0d 00 00
	00 00		 mov	 DWORD PTR fs:0, ecx
  000d3	59		 pop	 ecx
  000d4	5f		 pop	 edi
  000d5	5e		 pop	 esi
  000d6	5b		 pop	 ebx
  000d7	8b e5		 mov	 esp, ebp
  000d9	5d		 pop	 ebp
  000da	c3		 ret	 0
$LN45@SetStrNull:
; File C:\Program Files\Microsoft Visual Studio\2022\Professional\VC\Tools\MSVC\14.44.35207\atlmfc\include\atlsimpstr.h

; 374  : 			AtlThrow(E_INVALIDARG);

  000db	68 57 00 07 80	 push	 -2147024809		; 80070057H
  000e0	e8 00 00 00 00	 call	 ?AtlThrowImpl@ATL@@YGXJ@Z ; ATL::AtlThrowImpl
$LN50@SetStrNull:
  000e5	cc		 int	 3
_TEXT	ENDS
;	COMDAT text$x
text$x	SEGMENT
__unwindfunclet$?SetStrNull@@YAXAAV?$CStringT@DV?$StrTraitMFC@DV?$ChTraitsCRT@D@ATL@@@@@ATL@@H@Z$0:
  00000	8d 4d 08	 lea	 ecx, DWORD PTR $T2[ebp]
  00003	e9 00 00 00 00	 jmp	 ??1?$CStringT@DV?$StrTraitMFC@DV?$ChTraitsCRT@D@ATL@@@@@ATL@@QAE@XZ ; ATL::CStringT<char,StrTraitMFC<char,ATL::ChTraitsCRT<char> > >::~CStringT<char,StrTraitMFC<char,ATL::ChTraitsCRT<char> > >
__unwindfunclet$?SetStrNull@@YAXAAV?$CStringT@DV?$StrTraitMFC@DV?$ChTraitsCRT@D@ATL@@@@@ATL@@H@Z$1:
  00008	8d 4d 0c	 lea	 ecx, DWORD PTR $T3[ebp]
  0000b	e9 00 00 00 00	 jmp	 ??1?$CStringT@DV?$StrTraitMFC@DV?$ChTraitsCRT@D@ATL@@@@@ATL@@QAE@XZ ; ATL::CStringT<char,StrTraitMFC<char,ATL::ChTraitsCRT<char> > >::~CStringT<char,StrTraitMFC<char,ATL::ChTraitsCRT<char> > >
  00010	cc		 int	 3
  00011	cc		 int	 3
  00012	cc		 int	 3
  00013	cc		 int	 3
  00014	cc		 int	 3
__ehhandler$?SetStrNull@@YAXAAV?$CStringT@DV?$StrTraitMFC@DV?$ChTraitsCRT@D@ATL@@@@@ATL@@H@Z:
  00015	90		 npad	 1
  00016	90		 npad	 1
  00017	8b 54 24 08	 mov	 edx, DWORD PTR [esp+8]
  0001b	8d 42 0c	 lea	 eax, DWORD PTR [edx+12]
  0001e	8b 4a f0	 mov	 ecx, DWORD PTR [edx-16]
  00021	33 c8		 xor	 ecx, eax
  00023	e8 00 00 00 00	 call	 @__security_check_cookie@4
  00028	b8 00 00 00 00	 mov	 eax, OFFSET __ehfuncinfo$?SetStrNull@@YAXAAV?$CStringT@DV?$StrTraitMFC@DV?$ChTraitsCRT@D@ATL@@@@@ATL@@H@Z
  0002d	e9 00 00 00 00	 jmp	 ___CxxFrameHandler3
text$x	ENDS
?SetStrNull@@YAXAAV?$CStringT@DV?$StrTraitMFC@DV?$ChTraitsCRT@D@ATL@@@@@ATL@@H@Z ENDP ; SetStrNull
; Function compile flags: /Ogtp
; File C:\IAGOS\server\v18\Source\Source\_common\vutil.cpp
;	COMDAT ?SetStrNull@@YAXPADH@Z
_TEXT	SEGMENT
_lpStr$ = 8						; size = 4
_nNullLength$ = 12					; size = 4
?SetStrNull@@YAXPADH@Z PROC				; SetStrNull, COMDAT

; 135  : {

  00000	55		 push	 ebp
  00001	8b ec		 mov	 ebp, esp
  00003	53		 push	 ebx
  00004	8b 5d 08	 mov	 ebx, DWORD PTR _lpStr$[ebp]

; 136  : 	int nLength = strlen( lpStr );

  00007	8b cb		 mov	 ecx, ebx
  00009	56		 push	 esi
  0000a	8d 51 01	 lea	 edx, DWORD PTR [ecx+1]
  0000d	0f 1f 00	 npad	 3
$LL15@SetStrNull:
  00010	8a 01		 mov	 al, BYTE PTR [ecx]
  00012	41		 inc	 ecx
  00013	84 c0		 test	 al, al
  00015	75 f9		 jne	 SHORT $LL15@SetStrNull
  00017	2b ca		 sub	 ecx, edx
  00019	57		 push	 edi

; 137  : 	// 0Ŕ» łÖŔ» Ć÷ÁöĽÇŔĚ ˝ÇÁ¦ ˝şĆ®¸µ ±ćŔĚş¸´Ů ±ć¸é ˝ÇÁ¦ ˝şĆ®¸µ ±ćŔĚ·Î ¸ÂĂâ ÇĘżä°ˇ ŔÖŔ˝
; 138  : 	if( nNullLength > nLength )

  0001a	8b 7d 0c	 mov	 edi, DWORD PTR _nNullLength$[ebp]
  0001d	3b f9		 cmp	 edi, ecx
  0001f	0f 4f f9	 cmovg	 edi, ecx

; 139  : 		nNullLength = nLength;
; 140  : 	int i = NULL;
; 141  : 	for( i = 0; i < nNullLength; )

  00022	33 f6		 xor	 esi, esi
  00024	85 ff		 test	 edi, edi
  00026	7e 20		 jle	 SHORT $LN3@SetStrNull
  00028	0f 1f 84 00 00
	00 00 00	 npad	 8
$LL4@SetStrNull:

; 142  : 	{
; 143  : #ifdef __CLIENT
; 144  : 		if( ::GetLanguage() == LANG_THA && g_codePage == 874 ) // Ĺ¸ŔĚ 
; 145  : 			i++;
; 146  : 		else if(::GetLanguage() == LANG_VTN && g_codePage == 1258)
; 147  : 			i++;
; 148  : 		else
; 149  : #endif//__CLIENT
; 150  : 		if( IsDBCSLeadByte( lpStr[ i ] ) )

  00030	0f b6 04 33	 movzx	 eax, BYTE PTR [ebx+esi]
  00034	50		 push	 eax
  00035	ff 15 00 00 00
	00		 call	 DWORD PTR __imp__IsDBCSLeadByte@4
  0003b	f7 d8		 neg	 eax
  0003d	1b c0		 sbb	 eax, eax
  0003f	f7 d8		 neg	 eax
  00041	40		 inc	 eax
  00042	03 f0		 add	 esi, eax
  00044	3b f7		 cmp	 esi, edi
  00046	7c e8		 jl	 SHORT $LL4@SetStrNull
$LN3@SetStrNull:

; 151  : 			i+=2;
; 152  : 		else
; 153  : 			i++;
; 154  : 	}
; 155  : 	// i°ˇ nLength ş¸´Ů Ĺ©´Ů¸é WordÄł¸ŻĹÍŔĎ °ÍŔĚ°í, łˇşÎşĐŔĚ ±úÁ®Ľ­ żŔÂ÷°ˇ »ý±ä °ÍŔĚ´Ů.
; 156  : 	if( i > nNullLength )

  00048	3b f7		 cmp	 esi, edi
  0004a	5f		 pop	 edi
  0004b	7e 09		 jle	 SHORT $LN8@SetStrNull

; 157  : 		lpStr[ i - 2 ] = 0;

  0004d	c6 44 1e fe 00	 mov	 BYTE PTR [esi+ebx-2], 0
  00052	5e		 pop	 esi

; 160  : }

  00053	5b		 pop	 ebx
  00054	5d		 pop	 ebp
  00055	c3		 ret	 0
$LN8@SetStrNull:

; 158  : 	else
; 159  : 		lpStr[ i ] = 0;

  00056	c6 04 1e 00	 mov	 BYTE PTR [esi+ebx], 0
  0005a	5e		 pop	 esi

; 160  : }

  0005b	5b		 pop	 ebx
  0005c	5d		 pop	 ebp
  0005d	c3		 ret	 0
?SetStrNull@@YAXPADH@Z ENDP				; SetStrNull
_TEXT	ENDS
; Function compile flags: /Ogtp
; File C:\Program Files\Microsoft Visual Studio\2022\Professional\VC\Tools\MSVC\14.44.35207\atlmfc\include\cstringt.h
; File C:\Program Files\Microsoft Visual Studio\2022\Professional\VC\Tools\MSVC\14.44.35207\atlmfc\include\atlsimpstr.h
; File C:\Program Files\Microsoft Visual Studio\2022\Professional\VC\Tools\MSVC\14.44.35207\atlmfc\include\cstringt.h
; File C:\Program Files\Microsoft Visual Studio\2022\Professional\VC\Tools\MSVC\14.44.35207\atlmfc\include\atlsimpstr.h
; File C:\Program Files\Microsoft Visual Studio\2022\Professional\VC\Tools\MSVC\14.44.35207\atlmfc\include\cstringt.h
; File C:\Program Files\Microsoft Visual Studio\2022\Professional\VC\Tools\MSVC\14.44.35207\atlmfc\include\atlsimpstr.h
; File C:\Program Files\Microsoft Visual Studio\2022\Professional\VC\Tools\MSVC\14.44.35207\atlmfc\include\cstringt.h
; File C:\Program Files\Microsoft Visual Studio\2022\Professional\VC\Tools\MSVC\14.44.35207\atlmfc\include\atlsimpstr.h
; File C:\Program Files\Microsoft Visual Studio\2022\Professional\VC\Tools\MSVC\14.44.35207\atlmfc\include\cstringt.h
; File C:\Program Files\Microsoft Visual Studio\2022\Professional\VC\Tools\MSVC\14.44.35207\atlmfc\include\atlsimpstr.h
; File C:\Program Files\Microsoft Visual Studio\2022\Professional\VC\Tools\MSVC\14.44.35207\atlmfc\include\cstringt.h
; File C:\Program Files\Microsoft Visual Studio\2022\Professional\VC\Tools\MSVC\14.44.35207\atlmfc\include\atlsimpstr.h
; File C:\Program Files\Microsoft Visual Studio\2022\Professional\VC\Tools\MSVC\14.44.35207\atlmfc\include\cstringt.h
; File C:\Program Files\Microsoft Visual Studio\2022\Professional\VC\Tools\MSVC\14.44.35207\atlmfc\include\atlsimpstr.h
; File C:\Program Files\Microsoft Visual Studio\2022\Professional\VC\Tools\MSVC\14.44.35207\atlmfc\include\afxstr.h
; File C:\Program Files\Microsoft Visual Studio\2022\Professional\VC\Tools\MSVC\14.44.35207\atlmfc\include\cstringt.h
; File C:\Program Files\Microsoft Visual Studio\2022\Professional\VC\Tools\MSVC\14.44.35207\atlmfc\include\atlsimpstr.h
; File C:\Program Files (x86)\Windows Kits\10\Include\10.0.26100.0\ucrt\corecrt_memcpy_s.h
; File C:\Program Files\Microsoft Visual Studio\2022\Professional\VC\Tools\MSVC\14.44.35207\atlmfc\include\cstringt.h
; File C:\Program Files (x86)\Windows Kits\10\Include\10.0.26100.0\ucrt\corecrt_memcpy_s.h
; File C:\Program Files\Microsoft Visual Studio\2022\Professional\VC\Tools\MSVC\14.44.35207\atlmfc\include\cstringt.h
; File C:\Program Files\Microsoft Visual Studio\2022\Professional\VC\Tools\MSVC\14.44.35207\atlmfc\include\atlsimpstr.h
; File C:\Program Files\Microsoft Visual Studio\2022\Professional\VC\Tools\MSVC\14.44.35207\atlmfc\include\cstringt.h
;	COMDAT ?Left@?$CStringT@DV?$StrTraitMFC@DV?$ChTraitsCRT@D@ATL@@@@@ATL@@QBE?AV12@H@Z
_TEXT	SEGMENT
___$ReturnUdt$ = 8					; size = 4
_nCount$ = 12						; size = 4
?Left@?$CStringT@DV?$StrTraitMFC@DV?$ChTraitsCRT@D@ATL@@@@@ATL@@QBE?AV12@H@Z PROC ; ATL::CStringT<char,StrTraitMFC<char,ATL::ChTraitsCRT<char> > >::Left, COMDAT
; _this$ = ecx

; 2155 : 	{

  00000	55		 push	 ebp
  00001	8b ec		 mov	 ebp, esp
  00003	51		 push	 ecx
; File C:\Program Files\Microsoft Visual Studio\2022\Professional\VC\Tools\MSVC\14.44.35207\atlmfc\include\atlsimpstr.h

; 523  : 		return( GetData()->nDataLength );

  00004	8b 45 0c	 mov	 eax, DWORD PTR _nCount$[ebp]
; File C:\Program Files\Microsoft Visual Studio\2022\Professional\VC\Tools\MSVC\14.44.35207\atlmfc\include\cstringt.h

; 2155 : 	{

  00007	56		 push	 esi
; File C:\Program Files\Microsoft Visual Studio\2022\Professional\VC\Tools\MSVC\14.44.35207\atlmfc\include\atlsimpstr.h

; 523  : 		return( GetData()->nDataLength );

  00008	33 f6		 xor	 esi, esi
  0000a	85 c0		 test	 eax, eax
; File C:\Program Files\Microsoft Visual Studio\2022\Professional\VC\Tools\MSVC\14.44.35207\atlmfc\include\cstringt.h

; 2155 : 	{

  0000c	57		 push	 edi
  0000d	8b f9		 mov	 edi, ecx
; File C:\Program Files\Microsoft Visual Studio\2022\Professional\VC\Tools\MSVC\14.44.35207\atlmfc\include\atlsimpstr.h

; 523  : 		return( GetData()->nDataLength );

  0000f	0f 49 f0	 cmovns	 esi, eax
  00012	8b 07		 mov	 eax, DWORD PTR [edi]
; File C:\Program Files\Microsoft Visual Studio\2022\Professional\VC\Tools\MSVC\14.44.35207\atlmfc\include\cstringt.h

; 2161 : 		if( nCount >= nLength )

  00014	8d 48 f0	 lea	 ecx, DWORD PTR [eax-16]
  00017	3b 70 f4	 cmp	 esi, DWORD PTR [eax-12]
  0001a	7c 19		 jl	 SHORT $LN3@Left
; File C:\Program Files\Microsoft Visual Studio\2022\Professional\VC\Tools\MSVC\14.44.35207\atlmfc\include\atlsimpstr.h

; 217  : 		CStringData* pNewData = CloneData( pSrcData );

  0001c	51		 push	 ecx
  0001d	e8 00 00 00 00	 call	 ?CloneData@?$CSimpleStringT@D$0A@@ATL@@CAPAUCStringData@2@PAU32@@Z ; ATL::CSimpleStringT<char,0>::CloneData
  00022	83 c4 04	 add	 esp, 4

; 218  : 		Attach( pNewData );

  00025	8d 48 10	 lea	 ecx, DWORD PTR [eax+16]
  00028	8b 45 08	 mov	 eax, DWORD PTR ___$ReturnUdt$[ebp]
  0002b	5f		 pop	 edi
; File C:\Program Files\Microsoft Visual Studio\2022\Professional\VC\Tools\MSVC\14.44.35207\atlmfc\include\cstringt.h

; 2167 : 	}

  0002c	5e		 pop	 esi
; File C:\Program Files\Microsoft Visual Studio\2022\Professional\VC\Tools\MSVC\14.44.35207\atlmfc\include\atlsimpstr.h

; 218  : 		Attach( pNewData );

  0002d	89 08		 mov	 DWORD PTR [eax], ecx
; File C:\Program Files\Microsoft Visual Studio\2022\Professional\VC\Tools\MSVC\14.44.35207\atlmfc\include\cstringt.h

; 2167 : 	}

  0002f	8b e5		 mov	 esp, ebp
  00031	5d		 pop	 ebp
  00032	c2 08 00	 ret	 8
$LN3@Left:
; File C:\Program Files\Microsoft Visual Studio\2022\Professional\VC\Tools\MSVC\14.44.35207\atlmfc\include\atlsimpstr.h

; 527  : 		IAtlStringMgr* pStringMgr = GetData()->pStringMgr;

  00035	8b 09		 mov	 ecx, DWORD PTR [ecx]

; 528  : 		return pStringMgr ? pStringMgr->Clone() : NULL;

  00037	85 c9		 test	 ecx, ecx
  00039	74 2a		 je	 SHORT $LN19@Left
  0003b	8b 01		 mov	 eax, DWORD PTR [ecx]
  0003d	ff 50 10	 call	 DWORD PTR [eax+16]
  00040	8b c8		 mov	 ecx, eax
; File C:\Program Files\Microsoft Visual Studio\2022\Professional\VC\Tools\MSVC\14.44.35207\atlmfc\include\cstringt.h

; 1442 : 		if(pStringMgr) { return pStringMgr; }

  00042	85 c9		 test	 ecx, ecx
  00044	74 1f		 je	 SHORT $LN19@Left
  00046	8b 3f		 mov	 edi, DWORD PTR [edi]
$LN33@Left:
; File C:\Program Files\Microsoft Visual Studio\2022\Professional\VC\Tools\MSVC\14.44.35207\atlmfc\include\atlsimpstr.h

; 251  : 		if(pchSrc == NULL && nLength != 0)

  00048	85 ff		 test	 edi, edi
  0004a	75 08		 jne	 SHORT $LN40@Left
  0004c	85 f6		 test	 esi, esi
  0004e	0f 85 88 00 00
	00		 jne	 $LN45@Left
$LN40@Left:

; 252  : 			AtlThrow(E_INVALIDARG);
; 253  : 
; 254  : 		CStringData* pData = pStringMgr->Allocate( nLength, sizeof( XCHAR ) );

  00054	8b 01		 mov	 eax, DWORD PTR [ecx]
  00056	6a 01		 push	 1
  00058	56		 push	 esi
  00059	ff 10		 call	 DWORD PTR [eax]

; 255  : 		if( pData == NULL )

  0005b	85 c0		 test	 eax, eax
  0005d	0f 84 83 00 00
	00		 je	 $LN77@Left
  00063	eb 16		 jmp	 SHORT $LN41@Left
$LN19@Left:
; File C:\Program Files\Microsoft Visual Studio\2022\Professional\VC\Tools\MSVC\14.44.35207\atlmfc\include\afxstr.h

; 56   : 		return( AfxGetStringManager() );

  00065	e8 00 00 00 00	 call	 ?AfxGetStringManager@@YGPAUIAtlStringMgr@ATL@@XZ ; AfxGetStringManager
; File C:\Program Files\Microsoft Visual Studio\2022\Professional\VC\Tools\MSVC\14.44.35207\atlmfc\include\cstringt.h

; 1445 : 		return pStringMgr->Clone();

  0006a	8b c8		 mov	 ecx, eax
  0006c	8b 10		 mov	 edx, DWORD PTR [eax]
  0006e	ff 52 10	 call	 DWORD PTR [edx+16]

; 2166 : 		return( CStringT( this->GetString(), nCount, GetManager() ) );

  00071	8b 3f		 mov	 edi, DWORD PTR [edi]

; 1445 : 		return pStringMgr->Clone();

  00073	8b c8		 mov	 ecx, eax
; File C:\Program Files\Microsoft Visual Studio\2022\Professional\VC\Tools\MSVC\14.44.35207\atlmfc\include\atlsimpstr.h

; 249  : 		ATLENSURE( pStringMgr != NULL );

  00075	85 c9		 test	 ecx, ecx
  00077	74 72		 je	 SHORT $LN78@Left
  00079	eb cd		 jmp	 SHORT $LN33@Left
$LN41@Left:
  0007b	53		 push	 ebx

; 258  : 		}
; 259  : 		Attach( pData );

  0007c	8b 5d 08	 mov	 ebx, DWORD PTR ___$ReturnUdt$[ebp]
  0007f	83 c0 10	 add	 eax, 16			; 00000010H
  00082	89 03		 mov	 DWORD PTR [ebx], eax

; 875  : 		if( nLength < 0 || nLength > GetData()->nAllocLength)

  00084	85 f6		 test	 esi, esi
  00086	78 54		 js	 SHORT $LN45@Left
  00088	3b 70 f8	 cmp	 esi, DWORD PTR [eax-8]
  0008b	7f 4f		 jg	 SHORT $LN45@Left

; 877  : 
; 878  : 		GetData()->nDataLength = nLength;

  0008d	89 70 f4	 mov	 DWORD PTR [eax-12], esi

; 879  : 		m_pszData[nLength] = 0;

  00090	c6 04 06 00	 mov	 BYTE PTR [esi+eax], 0
; File C:\Program Files (x86)\Windows Kits\10\Include\10.0.26100.0\ucrt\corecrt_memcpy_s.h

; 47   :         if (_SourceSize == 0)

  00094	85 f6		 test	 esi, esi
  00096	74 39		 je	 SHORT $LN57@Left

; 48   :         {
; 49   :             return 0;
; 50   :         }
; 51   : 
; 52   :         _CRT_MEMCPY_S_VALIDATE_RETURN_ERRCODE(_Destination != NULL, EINVAL);

  00098	85 c0		 test	 eax, eax
  0009a	74 25		 je	 SHORT $LN75@Left

; 53   :         if (_Source == NULL || _DestinationSize < _SourceSize)

  0009c	56		 push	 esi
  0009d	85 ff		 test	 edi, edi
  0009f	74 15		 je	 SHORT $LN56@Left

; 56   : 
; 57   :             _CRT_MEMCPY_S_VALIDATE_RETURN_ERRCODE(_Source != NULL,                 EINVAL);
; 58   :             _CRT_MEMCPY_S_VALIDATE_RETURN_ERRCODE(_DestinationSize >= _SourceSize, ERANGE);
; 59   : 
; 60   :             // Unreachable, but required to suppress /analyze warnings:
; 61   :             return EINVAL;
; 62   :         }
; 63   :         memcpy(_Destination, _Source, _SourceSize);

  000a1	57		 push	 edi
  000a2	50		 push	 eax
  000a3	e8 00 00 00 00	 call	 _memcpy
  000a8	83 c4 0c	 add	 esp, 12			; 0000000cH
; File C:\Program Files\Microsoft Visual Studio\2022\Professional\VC\Tools\MSVC\14.44.35207\atlmfc\include\cstringt.h

; 2166 : 		return( CStringT( this->GetString(), nCount, GetManager() ) );

  000ab	8b c3		 mov	 eax, ebx
  000ad	5b		 pop	 ebx
  000ae	5f		 pop	 edi

; 2167 : 	}

  000af	5e		 pop	 esi
  000b0	8b e5		 mov	 esp, ebp
  000b2	5d		 pop	 ebp
  000b3	c2 08 00	 ret	 8
$LN56@Left:
; File C:\Program Files (x86)\Windows Kits\10\Include\10.0.26100.0\ucrt\corecrt_memcpy_s.h

; 55   :             memset(_Destination, 0, _DestinationSize);

  000b6	6a 00		 push	 0
  000b8	50		 push	 eax
  000b9	e8 00 00 00 00	 call	 _memset
  000be	83 c4 0c	 add	 esp, 12			; 0000000cH
$LN75@Left:
; File C:\Program Files\Microsoft Visual Studio\2022\Professional\VC\Tools\MSVC\14.44.35207\atlmfc\include\cstringt.h

; 2166 : 		return( CStringT( this->GetString(), nCount, GetManager() ) );

  000c1	e8 00 00 00 00	 call	 __errno
  000c6	c7 00 16 00 00
	00		 mov	 DWORD PTR [eax], 22	; 00000016H
  000cc	e8 00 00 00 00	 call	 __invalid_parameter_noinfo
$LN57@Left:
  000d1	8b c3		 mov	 eax, ebx
  000d3	5b		 pop	 ebx
  000d4	5f		 pop	 edi

; 2167 : 	}

  000d5	5e		 pop	 esi
  000d6	8b e5		 mov	 esp, ebp
  000d8	5d		 pop	 ebp
  000d9	c2 08 00	 ret	 8
$LN45@Left:
; File C:\Program Files\Microsoft Visual Studio\2022\Professional\VC\Tools\MSVC\14.44.35207\atlmfc\include\atlsimpstr.h

; 876  : 			AtlThrow(E_INVALIDARG);

  000dc	68 57 00 07 80	 push	 -2147024809		; 80070057H
  000e1	e8 00 00 00 00	 call	 ?AtlThrowImpl@ATL@@YGXJ@Z ; ATL::AtlThrowImpl
$LN77@Left:

; 257  : 			ThrowMemoryException();

  000e6	e8 00 00 00 00	 call	 ?ThrowMemoryException@?$CSimpleStringT@D$0A@@ATL@@KAXXZ ; ATL::CSimpleStringT<char,0>::ThrowMemoryException
$LN78@Left:

; 249  : 		ATLENSURE( pStringMgr != NULL );

  000eb	68 05 40 00 80	 push	 -2147467259		; 80004005H
  000f0	e8 00 00 00 00	 call	 ?AtlThrowImpl@ATL@@YGXJ@Z ; ATL::AtlThrowImpl
$LN74@Left:
  000f5	cc		 int	 3
?Left@?$CStringT@DV?$StrTraitMFC@DV?$ChTraitsCRT@D@ATL@@@@@ATL@@QBE?AV12@H@Z ENDP ; ATL::CStringT<char,StrTraitMFC<char,ATL::ChTraitsCRT<char> > >::Left
_TEXT	ENDS
; Function compile flags: /Ogtp
; File C:\Program Files\Microsoft Visual Studio\2022\Professional\VC\Tools\MSVC\14.44.35207\atlmfc\include\cstringt.h
; File C:\Program Files\Microsoft Visual Studio\2022\Professional\VC\Tools\MSVC\14.44.35207\atlmfc\include\atlsimpstr.h
; File C:\Program Files\Microsoft Visual Studio\2022\Professional\VC\Tools\MSVC\14.44.35207\atlmfc\include\cstringt.h
; File C:\Program Files\Microsoft Visual Studio\2022\Professional\VC\Tools\MSVC\14.44.35207\atlmfc\include\atlsimpstr.h
; File C:\Program Files\Microsoft Visual Studio\2022\Professional\VC\Tools\MSVC\14.44.35207\atlmfc\include\cstringt.h
; File C:\Program Files\Microsoft Visual Studio\2022\Professional\VC\Tools\MSVC\14.44.35207\atlmfc\include\atlsimpstr.h
; File C:\Program Files\Microsoft Visual Studio\2022\Professional\VC\Tools\MSVC\14.44.35207\atlmfc\include\cstringt.h
;	COMDAT ??4?$CStringT@DV?$StrTraitMFC@DV?$ChTraitsCRT@D@ATL@@@@@ATL@@QAEAAV01@ABV01@@Z
_TEXT	SEGMENT
_strSrc$ = 8						; size = 4
_pNewData$1$ = 8					; size = 4
??4?$CStringT@DV?$StrTraitMFC@DV?$ChTraitsCRT@D@ATL@@@@@ATL@@QAEAAV01@ABV01@@Z PROC ; ATL::CStringT<char,StrTraitMFC<char,ATL::ChTraitsCRT<char> > >::operator=, COMDAT
; _this$ = ecx

; 1307 : 	{

  00000	55		 push	 ebp
  00001	8b ec		 mov	 ebp, esp
; File C:\Program Files\Microsoft Visual Studio\2022\Professional\VC\Tools\MSVC\14.44.35207\atlmfc\include\atlsimpstr.h

; 804  : 		return( reinterpret_cast< CStringData* >( m_pszData )-1 );

  00003	8b 45 08	 mov	 eax, DWORD PTR _strSrc$[ebp]
; File C:\Program Files\Microsoft Visual Studio\2022\Professional\VC\Tools\MSVC\14.44.35207\atlmfc\include\cstringt.h

; 1307 : 	{

  00006	56		 push	 esi
  00007	8b f1		 mov	 esi, ecx
  00009	57		 push	 edi
; File C:\Program Files\Microsoft Visual Studio\2022\Professional\VC\Tools\MSVC\14.44.35207\atlmfc\include\atlsimpstr.h

; 804  : 		return( reinterpret_cast< CStringData* >( m_pszData )-1 );

  0000a	8b 08		 mov	 ecx, DWORD PTR [eax]
  0000c	8b 3e		 mov	 edi, DWORD PTR [esi]
  0000e	83 ef 10	 sub	 edi, 16			; 00000010H
  00011	8d 51 f0	 lea	 edx, DWORD PTR [ecx-16]

; 278  : 		if( pSrcData != pOldData)

  00014	3b d7		 cmp	 edx, edi
  00016	74 4d		 je	 SHORT $LN22@operator

; 73   : 		return nRefs < 0;

  00018	83 7f 0c 00	 cmp	 DWORD PTR [edi+12], 0
  0001c	53		 push	 ebx
  0001d	8d 5f 0c	 lea	 ebx, DWORD PTR [edi+12]

; 280  : 			if( pOldData->IsLocked() || pSrcData->pStringMgr != pOldData->pStringMgr )

  00020	7c 37		 jl	 SHORT $LN7@operator
  00022	8b 02		 mov	 eax, DWORD PTR [edx]
  00024	3b 07		 cmp	 eax, DWORD PTR [edi]
  00026	75 31		 jne	 SHORT $LN7@operator

; 283  : 			}
; 284  : 			else
; 285  : 			{
; 286  : 				CStringData* pNewData = CloneData( pSrcData );

  00028	52		 push	 edx
  00029	e8 00 00 00 00	 call	 ?CloneData@?$CSimpleStringT@D$0A@@ATL@@CAPAUCStringData@2@PAU32@@Z ; ATL::CSimpleStringT<char,0>::CloneData
  0002e	83 c4 04	 add	 esp, 4
  00031	89 45 08	 mov	 DWORD PTR _pNewData$1$[ebp], eax

; 92   : 		if( _InterlockedDecrement( &nRefs ) <= 0 )

  00034	83 c9 ff	 or	 ecx, -1
  00037	f0 0f c1 0b	 lock	  xadd	 DWORD PTR [ebx], ecx
  0003b	49		 dec	 ecx
  0003c	85 c9		 test	 ecx, ecx
  0003e	7f 0b		 jg	 SHORT $LN20@operator

; 93   : 		{
; 94   : 			pStringMgr->Free( this );

  00040	8b 0f		 mov	 ecx, DWORD PTR [edi]
  00042	57		 push	 edi
  00043	8b 11		 mov	 edx, DWORD PTR [ecx]
  00045	ff 52 04	 call	 DWORD PTR [edx+4]
  00048	8b 45 08	 mov	 eax, DWORD PTR _pNewData$1$[ebp]
$LN20@operator:

; 288  : 				Attach( pNewData );

  0004b	83 c0 10	 add	 eax, 16			; 00000010H
  0004e	5b		 pop	 ebx
  0004f	89 06		 mov	 DWORD PTR [esi], eax
; File C:\Program Files\Microsoft Visual Studio\2022\Professional\VC\Tools\MSVC\14.44.35207\atlmfc\include\cstringt.h

; 1311 : 	}

  00051	8b c6		 mov	 eax, esi
  00053	5f		 pop	 edi
  00054	5e		 pop	 esi
  00055	5d		 pop	 ebp
  00056	c2 04 00	 ret	 4
$LN7@operator:
; File C:\Program Files\Microsoft Visual Studio\2022\Professional\VC\Tools\MSVC\14.44.35207\atlmfc\include\atlsimpstr.h

; 282  : 				SetString( strSrc.GetString(), strSrc.GetLength() );

  00059	ff 71 f4	 push	 DWORD PTR [ecx-12]
  0005c	51		 push	 ecx
  0005d	8b ce		 mov	 ecx, esi
  0005f	e8 00 00 00 00	 call	 ?SetString@?$CSimpleStringT@D$0A@@ATL@@QAEXPBDH@Z ; ATL::CSimpleStringT<char,0>::SetString
  00064	5b		 pop	 ebx
$LN22@operator:
  00065	5f		 pop	 edi
; File C:\Program Files\Microsoft Visual Studio\2022\Professional\VC\Tools\MSVC\14.44.35207\atlmfc\include\cstringt.h

; 1311 : 	}

  00066	8b c6		 mov	 eax, esi
  00068	5e		 pop	 esi
  00069	5d		 pop	 ebp
  0006a	c2 04 00	 ret	 4
??4?$CStringT@DV?$StrTraitMFC@DV?$ChTraitsCRT@D@ATL@@@@@ATL@@QAEAAV01@ABV01@@Z ENDP ; ATL::CStringT<char,StrTraitMFC<char,ATL::ChTraitsCRT<char> > >::operator=
_TEXT	ENDS
; Function compile flags: /Ogtp
; File C:\Program Files\Microsoft Visual Studio\2022\Professional\VC\Tools\MSVC\14.44.35207\atlmfc\include\cstringt.h
; File C:\Program Files\Microsoft Visual Studio\2022\Professional\VC\Tools\MSVC\14.44.35207\atlmfc\include\atlsimpstr.h
; File C:\Program Files\Microsoft Visual Studio\2022\Professional\VC\Tools\MSVC\14.44.35207\atlmfc\include\cstringt.h
;	COMDAT ??1?$CStringT@DV?$StrTraitMFC@DV?$ChTraitsCRT@D@ATL@@@@@ATL@@QAE@XZ
_TEXT	SEGMENT
??1?$CStringT@DV?$StrTraitMFC@DV?$ChTraitsCRT@D@ATL@@@@@ATL@@QAE@XZ PROC ; ATL::CStringT<char,StrTraitMFC<char,ATL::ChTraitsCRT<char> > >::~CStringT<char,StrTraitMFC<char,ATL::ChTraitsCRT<char> > >, COMDAT
; _this$ = ecx
; File C:\Program Files\Microsoft Visual Studio\2022\Professional\VC\Tools\MSVC\14.44.35207\atlmfc\include\atlsimpstr.h

; 804  : 		return( reinterpret_cast< CStringData* >( m_pszData )-1 );

  00000	8b 11		 mov	 edx, DWORD PTR [ecx]

; 92   : 		if( _InterlockedDecrement( &nRefs ) <= 0 )

  00002	83 c8 ff	 or	 eax, -1

; 804  : 		return( reinterpret_cast< CStringData* >( m_pszData )-1 );

  00005	83 ea 10	 sub	 edx, 16			; 00000010H

; 92   : 		if( _InterlockedDecrement( &nRefs ) <= 0 )

  00008	f0 0f c1 42 0c	 lock	  xadd	 DWORD PTR [edx+12], eax
  0000d	48		 dec	 eax
  0000e	85 c0		 test	 eax, eax
  00010	7f 08		 jg	 SHORT $LN8@CStringT

; 93   : 		{
; 94   : 			pStringMgr->Free( this );

  00012	8b 0a		 mov	 ecx, DWORD PTR [edx]
  00014	52		 push	 edx
  00015	8b 01		 mov	 eax, DWORD PTR [ecx]
  00017	ff 50 04	 call	 DWORD PTR [eax+4]
$LN8@CStringT:
; File C:\Program Files\Microsoft Visual Studio\2022\Professional\VC\Tools\MSVC\14.44.35207\atlmfc\include\cstringt.h

; 1303 : 	}

  0001a	c3		 ret	 0
??1?$CStringT@DV?$StrTraitMFC@DV?$ChTraitsCRT@D@ATL@@@@@ATL@@QAE@XZ ENDP ; ATL::CStringT<char,StrTraitMFC<char,ATL::ChTraitsCRT<char> > >::~CStringT<char,StrTraitMFC<char,ATL::ChTraitsCRT<char> > >
_TEXT	ENDS
; Function compile flags: /Ogtp
; File C:\Program Files\Microsoft Visual Studio\2022\Professional\VC\Tools\MSVC\14.44.35207\atlmfc\include\atlsimpstr.h
; File C:\Program Files (x86)\Windows Kits\10\Include\10.0.26100.0\ucrt\corecrt_memcpy_s.h
; File C:\Program Files\Microsoft Visual Studio\2022\Professional\VC\Tools\MSVC\14.44.35207\atlmfc\include\atlsimpstr.h
; File C:\Program Files (x86)\Windows Kits\10\Include\10.0.26100.0\ucrt\corecrt_memcpy_s.h
; File C:\Program Files\Microsoft Visual Studio\2022\Professional\VC\Tools\MSVC\14.44.35207\atlmfc\include\atlsimpstr.h
; File C:\Program Files (x86)\Windows Kits\10\Include\10.0.26100.0\ucrt\corecrt_memcpy_s.h
; File C:\Program Files\Microsoft Visual Studio\2022\Professional\VC\Tools\MSVC\14.44.35207\atlmfc\include\atlsimpstr.h
;	COMDAT ?CloneData@?$CSimpleStringT@D$0A@@ATL@@CAPAUCStringData@2@PAU32@@Z
_TEXT	SEGMENT
_pData$ = 8						; size = 4
__Source$1$ = 8						; size = 4
?CloneData@?$CSimpleStringT@D$0A@@ATL@@CAPAUCStringData@2@PAU32@@Z PROC ; ATL::CSimpleStringT<char,0>::CloneData, COMDAT

; 883  : 	{

  00000	55		 push	 ebp
  00001	8b ec		 mov	 ebp, esp
  00003	53		 push	 ebx
  00004	56		 push	 esi

; 884  : 		CStringData* pNewData = NULL;
; 885  : 
; 886  : 		IAtlStringMgr* pNewStringMgr = pData->pStringMgr->Clone();

  00005	8b 75 08	 mov	 esi, DWORD PTR _pData$[ebp]
  00008	8b 0e		 mov	 ecx, DWORD PTR [esi]
  0000a	8b 01		 mov	 eax, DWORD PTR [ecx]
  0000c	ff 50 10	 call	 DWORD PTR [eax+16]

; 73   : 		return nRefs < 0;

  0000f	83 7e 0c 00	 cmp	 DWORD PTR [esi+12], 0

; 884  : 		CStringData* pNewData = NULL;
; 885  : 
; 886  : 		IAtlStringMgr* pNewStringMgr = pData->pStringMgr->Clone();

  00013	8b c8		 mov	 ecx, eax

; 73   : 		return nRefs < 0;

  00015	8d 46 0c	 lea	 eax, DWORD PTR [esi+12]

; 887  : 		if( !pData->IsLocked() && (pNewStringMgr == pData->pStringMgr) )

  00018	7c 0f		 jl	 SHORT $LN2@CloneData
  0001a	3b 0e		 cmp	 ecx, DWORD PTR [esi]
  0001c	75 0b		 jne	 SHORT $LN2@CloneData

; 888  : 		{
; 889  : 			pNewData = pData;

  0001e	8b de		 mov	 ebx, esi

; 69   : 		_InterlockedIncrement(&nRefs);

  00020	f0 ff 00	 lock	  inc	 DWORD PTR [eax]

; 904  : 		return( pNewData );

  00023	8b c3		 mov	 eax, ebx

; 905  : 	}

  00025	5e		 pop	 esi
  00026	5b		 pop	 ebx
  00027	5d		 pop	 ebp
  00028	c3		 ret	 0
$LN2@CloneData:

; 890  : 			pNewData->AddRef();
; 891  : 		}
; 892  : 		else
; 893  : 		{
; 894  : 			pNewData = pNewStringMgr->Allocate( pData->nDataLength, sizeof( XCHAR ) );

  00029	8b 01		 mov	 eax, DWORD PTR [ecx]
  0002b	6a 01		 push	 1
  0002d	ff 76 04	 push	 DWORD PTR [esi+4]
  00030	ff 10		 call	 DWORD PTR [eax]
  00032	8b d8		 mov	 ebx, eax

; 895  : 			if( pNewData == NULL )

  00034	85 db		 test	 ebx, ebx
  00036	74 7d		 je	 SHORT $LN32@CloneData

; 898  : 			}
; 899  : 			pNewData->nDataLength = pData->nDataLength;

  00038	8b 46 04	 mov	 eax, DWORD PTR [esi+4]

; 900  : 			memcpy_s( PXSTR( pNewData->data() ), (pNewData->nDataLength+1) * sizeof( XCHAR ),

  0003b	8d 4e 10	 lea	 ecx, DWORD PTR [esi+16]
  0003e	57		 push	 edi
  0003f	89 43 04	 mov	 DWORD PTR [ebx+4], eax
  00042	8b 7e 04	 mov	 edi, DWORD PTR [esi+4]
  00045	89 4d 08	 mov	 DWORD PTR __Source$1$[ebp], ecx
  00048	8d 70 01	 lea	 esi, DWORD PTR [eax+1]
  0004b	8d 43 10	 lea	 eax, DWORD PTR [ebx+16]
  0004e	83 c7 01	 add	 edi, 1
; File C:\Program Files (x86)\Windows Kits\10\Include\10.0.26100.0\ucrt\corecrt_memcpy_s.h

; 47   :         if (_SourceSize == 0)

  00051	74 5b		 je	 SHORT $LN27@CloneData

; 48   :         {
; 49   :             return 0;
; 50   :         }
; 51   : 
; 52   :         _CRT_MEMCPY_S_VALIDATE_RETURN_ERRCODE(_Destination != NULL, EINVAL);

  00053	85 c0		 test	 eax, eax
  00055	75 17		 jne	 SHORT $LN12@CloneData
$LN30@CloneData:

; 58   :             _CRT_MEMCPY_S_VALIDATE_RETURN_ERRCODE(_DestinationSize >= _SourceSize, ERANGE);

  00057	e8 00 00 00 00	 call	 __errno
  0005c	c7 00 16 00 00
	00		 mov	 DWORD PTR [eax], 22	; 00000016H
  00062	e8 00 00 00 00	 call	 __invalid_parameter_noinfo
  00067	5f		 pop	 edi
; File C:\Program Files\Microsoft Visual Studio\2022\Professional\VC\Tools\MSVC\14.44.35207\atlmfc\include\atlsimpstr.h

; 904  : 		return( pNewData );

  00068	8b c3		 mov	 eax, ebx

; 905  : 	}

  0006a	5e		 pop	 esi
  0006b	5b		 pop	 ebx
  0006c	5d		 pop	 ebp
  0006d	c3		 ret	 0
$LN12@CloneData:
; File C:\Program Files (x86)\Windows Kits\10\Include\10.0.26100.0\ucrt\corecrt_memcpy_s.h

; 53   :         if (_Source == NULL || _DestinationSize < _SourceSize)

  0006e	85 c9		 test	 ecx, ecx
  00070	74 16		 je	 SHORT $LN14@CloneData
  00072	3b f7		 cmp	 esi, edi
  00074	72 12		 jb	 SHORT $LN14@CloneData

; 59   : 
; 60   :             // Unreachable, but required to suppress /analyze warnings:
; 61   :             return EINVAL;
; 62   :         }
; 63   :         memcpy(_Destination, _Source, _SourceSize);

  00076	57		 push	 edi
  00077	51		 push	 ecx
  00078	50		 push	 eax
  00079	e8 00 00 00 00	 call	 _memcpy
  0007e	83 c4 0c	 add	 esp, 12			; 0000000cH
; File C:\Program Files\Microsoft Visual Studio\2022\Professional\VC\Tools\MSVC\14.44.35207\atlmfc\include\atlsimpstr.h

; 904  : 		return( pNewData );

  00081	8b c3		 mov	 eax, ebx
  00083	5f		 pop	 edi

; 905  : 	}

  00084	5e		 pop	 esi
  00085	5b		 pop	 ebx
  00086	5d		 pop	 ebp
  00087	c3		 ret	 0
$LN14@CloneData:
; File C:\Program Files (x86)\Windows Kits\10\Include\10.0.26100.0\ucrt\corecrt_memcpy_s.h

; 55   :             memset(_Destination, 0, _DestinationSize);

  00088	56		 push	 esi
  00089	6a 00		 push	 0
  0008b	50		 push	 eax
  0008c	e8 00 00 00 00	 call	 _memset
  00091	83 c4 0c	 add	 esp, 12			; 0000000cH

; 56   : 
; 57   :             _CRT_MEMCPY_S_VALIDATE_RETURN_ERRCODE(_Source != NULL,                 EINVAL);

  00094	83 7d 08 00	 cmp	 DWORD PTR __Source$1$[ebp], 0
  00098	74 bd		 je	 SHORT $LN30@CloneData

; 58   :             _CRT_MEMCPY_S_VALIDATE_RETURN_ERRCODE(_DestinationSize >= _SourceSize, ERANGE);

  0009a	3b f7		 cmp	 esi, edi
  0009c	73 10		 jae	 SHORT $LN27@CloneData
  0009e	e8 00 00 00 00	 call	 __errno
  000a3	c7 00 22 00 00
	00		 mov	 DWORD PTR [eax], 34	; 00000022H
  000a9	e8 00 00 00 00	 call	 __invalid_parameter_noinfo
$LN27@CloneData:
  000ae	5f		 pop	 edi
; File C:\Program Files\Microsoft Visual Studio\2022\Professional\VC\Tools\MSVC\14.44.35207\atlmfc\include\atlsimpstr.h

; 905  : 	}

  000af	5e		 pop	 esi
  000b0	8b c3		 mov	 eax, ebx
  000b2	5b		 pop	 ebx
  000b3	5d		 pop	 ebp
  000b4	c3		 ret	 0
$LN32@CloneData:

; 896  : 			{
; 897  : 				ThrowMemoryException();

  000b5	e8 00 00 00 00	 call	 ?ThrowMemoryException@?$CSimpleStringT@D$0A@@ATL@@KAXXZ ; ATL::CSimpleStringT<char,0>::ThrowMemoryException
$LN28@CloneData:
  000ba	cc		 int	 3
?CloneData@?$CSimpleStringT@D$0A@@ATL@@CAPAUCStringData@2@PAU32@@Z ENDP ; ATL::CSimpleStringT<char,0>::CloneData
_TEXT	ENDS
; Function compile flags: /Ogtp
; File C:\Program Files\Microsoft Visual Studio\2022\Professional\VC\Tools\MSVC\14.44.35207\atlmfc\include\atlsimpstr.h
;	COMDAT ?Reallocate@?$CSimpleStringT@D$0A@@ATL@@AAEXH@Z
_TEXT	SEGMENT
_nLength$ = 8						; size = 4
?Reallocate@?$CSimpleStringT@D$0A@@ATL@@AAEXH@Z PROC	; ATL::CSimpleStringT<char,0>::Reallocate, COMDAT
; _this$ = ecx

; 853  : 	{

  00000	55		 push	 ebp
  00001	8b ec		 mov	 ebp, esp
  00003	56		 push	 esi

; 854  : 		CStringData* pOldData = GetData();
; 855  : 		ATLASSERT( pOldData->nAllocLength < nLength );
; 856  : 		IAtlStringMgr* pStringMgr = pOldData->pStringMgr;
; 857  : 		if ( pOldData->nAllocLength >= nLength || nLength <= 0)

  00004	8b 75 08	 mov	 esi, DWORD PTR _nLength$[ebp]
  00007	57		 push	 edi
  00008	8b f9		 mov	 edi, ecx

; 804  : 		return( reinterpret_cast< CStringData* >( m_pszData )-1 );

  0000a	8b 17		 mov	 edx, DWORD PTR [edi]
  0000c	83 ea 10	 sub	 edx, 16			; 00000010H

; 854  : 		CStringData* pOldData = GetData();
; 855  : 		ATLASSERT( pOldData->nAllocLength < nLength );
; 856  : 		IAtlStringMgr* pStringMgr = pOldData->pStringMgr;
; 857  : 		if ( pOldData->nAllocLength >= nLength || nLength <= 0)

  0000f	39 72 08	 cmp	 DWORD PTR [edx+8], esi
  00012	7d 1e		 jge	 SHORT $LN3@Reallocate
  00014	85 f6		 test	 esi, esi
  00016	7e 1a		 jle	 SHORT $LN3@Reallocate

; 860  : 			return;
; 861  : 		}
; 862  : 		CStringData* pNewData = pStringMgr->Reallocate( pOldData, nLength, sizeof( XCHAR ) );

  00018	8b 0a		 mov	 ecx, DWORD PTR [edx]
  0001a	6a 01		 push	 1
  0001c	56		 push	 esi
  0001d	52		 push	 edx
  0001e	8b 01		 mov	 eax, DWORD PTR [ecx]
  00020	ff 50 08	 call	 DWORD PTR [eax+8]

; 863  : 		if( pNewData == NULL )

  00023	85 c0		 test	 eax, eax
  00025	74 0b		 je	 SHORT $LN3@Reallocate

; 864  : 		{
; 865  : 			ThrowMemoryException();
; 866  : 		}
; 867  : 		Attach( pNewData );

  00027	83 c0 10	 add	 eax, 16			; 00000010H
  0002a	89 07		 mov	 DWORD PTR [edi], eax
  0002c	5f		 pop	 edi
  0002d	5e		 pop	 esi

; 868  : 	}

  0002e	5d		 pop	 ebp
  0002f	c2 04 00	 ret	 4
$LN3@Reallocate:

; 858  : 		{
; 859  : 			ThrowMemoryException();

  00032	e8 00 00 00 00	 call	 ?ThrowMemoryException@?$CSimpleStringT@D$0A@@ATL@@KAXXZ ; ATL::CSimpleStringT<char,0>::ThrowMemoryException
$LN12@Reallocate:
  00037	cc		 int	 3
?Reallocate@?$CSimpleStringT@D$0A@@ATL@@AAEXH@Z ENDP	; ATL::CSimpleStringT<char,0>::Reallocate
_TEXT	ENDS
; Function compile flags: /Ogtp
; File C:\Program Files\Microsoft Visual Studio\2022\Professional\VC\Tools\MSVC\14.44.35207\atlmfc\include\atlsimpstr.h
;	COMDAT ?PrepareWrite2@?$CSimpleStringT@D$0A@@ATL@@AAEXH@Z
_TEXT	SEGMENT
_nLength$ = 8						; size = 4
?PrepareWrite2@?$CSimpleStringT@D$0A@@ATL@@AAEXH@Z PROC	; ATL::CSimpleStringT<char,0>::PrepareWrite2, COMDAT
; _this$ = ecx

; 822  : 	{

  00000	55		 push	 ebp
  00001	8b ec		 mov	 ebp, esp
  00003	56		 push	 esi

; 823  : 		CStringData* pOldData = GetData();
; 824  : 		if( pOldData->nDataLength > nLength )

  00004	8b 75 08	 mov	 esi, DWORD PTR _nLength$[ebp]
  00007	57		 push	 edi
  00008	8b f9		 mov	 edi, ecx

; 804  : 		return( reinterpret_cast< CStringData* >( m_pszData )-1 );

  0000a	8b 0f		 mov	 ecx, DWORD PTR [edi]

; 823  : 		CStringData* pOldData = GetData();
; 824  : 		if( pOldData->nDataLength > nLength )

  0000c	39 71 f4	 cmp	 DWORD PTR [ecx-12], esi
  0000f	0f 4f 71 f4	 cmovg	 esi, DWORD PTR [ecx-12]

; 77   : 		return( nRefs > 1 );

  00013	83 79 fc 01	 cmp	 DWORD PTR [ecx-4], 1

; 825  : 		{
; 826  : 			nLength = pOldData->nDataLength;
; 827  : 		}
; 828  : 		if( pOldData->IsShared() )

  00017	7e 0e		 jle	 SHORT $LN3@PrepareWri

; 829  : 		{
; 830  : 			Fork( nLength );

  00019	56		 push	 esi
  0001a	8b cf		 mov	 ecx, edi
  0001c	e8 00 00 00 00	 call	 ?Fork@?$CSimpleStringT@D$0A@@ATL@@AAEXH@Z ; ATL::CSimpleStringT<char,0>::Fork
  00021	5f		 pop	 edi

; 850  : 		}
; 851  : 	}

  00022	5e		 pop	 esi
  00023	5d		 pop	 ebp
  00024	c2 04 00	 ret	 4
$LN3@PrepareWri:

; 831  : 		}
; 832  : 		else if( pOldData->nAllocLength < nLength )

  00027	8b 49 f8	 mov	 ecx, DWORD PTR [ecx-8]
  0002a	3b ce		 cmp	 ecx, esi
  0002c	7d 25		 jge	 SHORT $LN5@PrepareWri

; 833  : 		{
; 834  : 			// Grow exponentially, until we hit 1G, then by 1M thereafter.
; 835  : 			int nNewLength = pOldData->nAllocLength;
; 836  : 			if( nNewLength > 1024 * 1024 * 1024 )

  0002e	81 f9 00 00 00
	40		 cmp	 ecx, 1073741824		; 40000000H
  00034	7e 07		 jle	 SHORT $LN6@PrepareWri

; 837  : 			{
; 838  : 				nNewLength += 1024 * 1024;

  00036	b8 00 00 10 00	 mov	 eax, 1048576		; 00100000H

; 839  : 			}

  0003b	eb 07		 jmp	 SHORT $LN7@PrepareWri
$LN6@PrepareWri:

; 840  : 			else
; 841  : 			{
; 842  : 				// Exponential growth factor is 1.5.
; 843  : 				nNewLength = nNewLength + nNewLength / 2;

  0003d	8b c1		 mov	 eax, ecx
  0003f	99		 cdq
  00040	2b c2		 sub	 eax, edx
  00042	d1 f8		 sar	 eax, 1
$LN7@PrepareWri:

; 844  : 			}
; 845  : 			if( nNewLength < nLength )

  00044	03 c1		 add	 eax, ecx

; 846  : 			{
; 847  : 				nNewLength = nLength;
; 848  : 			}
; 849  : 			Reallocate( nNewLength );

  00046	8b cf		 mov	 ecx, edi
  00048	3b c6		 cmp	 eax, esi
  0004a	0f 4d f0	 cmovge	 esi, eax
  0004d	56		 push	 esi
  0004e	e8 00 00 00 00	 call	 ?Reallocate@?$CSimpleStringT@D$0A@@ATL@@AAEXH@Z ; ATL::CSimpleStringT<char,0>::Reallocate
$LN5@PrepareWri:

; 850  : 		}
; 851  : 	}

  00053	5f		 pop	 edi
  00054	5e		 pop	 esi
  00055	5d		 pop	 ebp
  00056	c2 04 00	 ret	 4
?PrepareWrite2@?$CSimpleStringT@D$0A@@ATL@@AAEXH@Z ENDP	; ATL::CSimpleStringT<char,0>::PrepareWrite2
_TEXT	ENDS
; Function compile flags: /Ogtp
; File C:\Program Files\Microsoft Visual Studio\2022\Professional\VC\Tools\MSVC\14.44.35207\atlmfc\include\atlsimpstr.h
; File C:\Program Files (x86)\Windows Kits\10\Include\10.0.26100.0\ucrt\corecrt_memcpy_s.h
; File C:\Program Files\Microsoft Visual Studio\2022\Professional\VC\Tools\MSVC\14.44.35207\atlmfc\include\atlsimpstr.h
;	COMDAT ?Fork@?$CSimpleStringT@D$0A@@ATL@@AAEXH@Z
_TEXT	SEGMENT
_this$1$ = -12						; size = 4
_nOldLength$1$ = -8					; size = 4
__Source$1$ = -4					; size = 4
_nLength$ = 8						; size = 4
_pNewData$1$ = 8					; size = 4
?Fork@?$CSimpleStringT@D$0A@@ATL@@AAEXH@Z PROC		; ATL::CSimpleStringT<char,0>::Fork, COMDAT
; _this$ = ecx

; 787  : 	{

  00000	55		 push	 ebp
  00001	8b ec		 mov	 ebp, esp
  00003	83 ec 0c	 sub	 esp, 12			; 0000000cH
  00006	8b c1		 mov	 eax, ecx
  00008	89 45 f4	 mov	 DWORD PTR _this$1$[ebp], eax
  0000b	53		 push	 ebx
  0000c	56		 push	 esi

; 804  : 		return( reinterpret_cast< CStringData* >( m_pszData )-1 );

  0000d	8b 00		 mov	 eax, DWORD PTR [eax]

; 790  : 		CStringData* pNewData = pOldData->pStringMgr->Clone()->Allocate( nLength, sizeof( XCHAR ) );

  0000f	8b 48 f0	 mov	 ecx, DWORD PTR [eax-16]

; 804  : 		return( reinterpret_cast< CStringData* >( m_pszData )-1 );

  00012	8d 58 f0	 lea	 ebx, DWORD PTR [eax-16]
  00015	89 45 fc	 mov	 DWORD PTR __Source$1$[ebp], eax

; 787  : 	{

  00018	57		 push	 edi

; 788  : 		CStringData* pOldData = GetData();
; 789  : 		int nOldLength = pOldData->nDataLength;

  00019	8b 7b 04	 mov	 edi, DWORD PTR [ebx+4]

; 790  : 		CStringData* pNewData = pOldData->pStringMgr->Clone()->Allocate( nLength, sizeof( XCHAR ) );

  0001c	8b 01		 mov	 eax, DWORD PTR [ecx]
  0001e	89 7d f8	 mov	 DWORD PTR _nOldLength$1$[ebp], edi
  00021	ff 50 10	 call	 DWORD PTR [eax+16]
  00024	8b 75 08	 mov	 esi, DWORD PTR _nLength$[ebp]
  00027	8b c8		 mov	 ecx, eax
  00029	6a 01		 push	 1
  0002b	56		 push	 esi
  0002c	8b 10		 mov	 edx, DWORD PTR [eax]
  0002e	ff 12		 call	 DWORD PTR [edx]
  00030	89 45 08	 mov	 DWORD PTR _pNewData$1$[ebp], eax

; 791  : 		if( pNewData == NULL )

  00033	85 c0		 test	 eax, eax
  00035	74 6c		 je	 SHORT $LN25@Fork

; 794  : 		}
; 795  : 		int nCharsToCopy = ((nOldLength < nLength) ? nOldLength : nLength)+1;  // Copy '\0'

  00037	3b fe		 cmp	 edi, esi
  00039	0f 4c f7	 cmovl	 esi, edi

; 796  : 		memcpy_s( PXSTR( pNewData->data() ), nCharsToCopy * sizeof( XCHAR ),

  0003c	8d 78 10	 lea	 edi, DWORD PTR [eax+16]
  0003f	83 c6 01	 add	 esi, 1
; File C:\Program Files (x86)\Windows Kits\10\Include\10.0.26100.0\ucrt\corecrt_memcpy_s.h

; 47   :         if (_SourceSize == 0)

  00042	74 33		 je	 SHORT $LN11@Fork

; 48   :         {
; 49   :             return 0;
; 50   :         }
; 51   : 
; 52   :         _CRT_MEMCPY_S_VALIDATE_RETURN_ERRCODE(_Destination != NULL, EINVAL);

  00044	85 ff		 test	 edi, edi
  00046	74 1f		 je	 SHORT $LN23@Fork

; 53   :         if (_Source == NULL || _DestinationSize < _SourceSize)

  00048	8b 45 fc	 mov	 eax, DWORD PTR __Source$1$[ebp]
  0004b	56		 push	 esi
  0004c	85 c0		 test	 eax, eax
  0004e	74 0c		 je	 SHORT $LN10@Fork

; 56   : 
; 57   :             _CRT_MEMCPY_S_VALIDATE_RETURN_ERRCODE(_Source != NULL,                 EINVAL);
; 58   :             _CRT_MEMCPY_S_VALIDATE_RETURN_ERRCODE(_DestinationSize >= _SourceSize, ERANGE);
; 59   : 
; 60   :             // Unreachable, but required to suppress /analyze warnings:
; 61   :             return EINVAL;
; 62   :         }
; 63   :         memcpy(_Destination, _Source, _SourceSize);

  00050	50		 push	 eax
  00051	57		 push	 edi
  00052	e8 00 00 00 00	 call	 _memcpy
  00057	83 c4 0c	 add	 esp, 12			; 0000000cH
  0005a	eb 1b		 jmp	 SHORT $LN11@Fork
$LN10@Fork:

; 54   :         {
; 55   :             memset(_Destination, 0, _DestinationSize);

  0005c	6a 00		 push	 0
  0005e	57		 push	 edi
  0005f	e8 00 00 00 00	 call	 _memset
  00064	83 c4 0c	 add	 esp, 12			; 0000000cH
$LN23@Fork:
; File C:\Program Files\Microsoft Visual Studio\2022\Professional\VC\Tools\MSVC\14.44.35207\atlmfc\include\atlsimpstr.h

; 798  : 		pNewData->nDataLength = nOldLength;

  00067	e8 00 00 00 00	 call	 __errno
  0006c	c7 00 16 00 00
	00		 mov	 DWORD PTR [eax], 22	; 00000016H
  00072	e8 00 00 00 00	 call	 __invalid_parameter_noinfo
$LN11@Fork:
  00077	8b 4d 08	 mov	 ecx, DWORD PTR _pNewData$1$[ebp]
  0007a	8b 45 f8	 mov	 eax, DWORD PTR _nOldLength$1$[ebp]
  0007d	89 41 04	 mov	 DWORD PTR [ecx+4], eax

; 92   : 		if( _InterlockedDecrement( &nRefs ) <= 0 )

  00080	83 c8 ff	 or	 eax, -1
  00083	f0 0f c1 43 0c	 lock	  xadd	 DWORD PTR [ebx+12], eax
  00088	48		 dec	 eax
  00089	85 c0		 test	 eax, eax
  0008b	7f 08		 jg	 SHORT $LN15@Fork

; 93   : 		{
; 94   : 			pStringMgr->Free( this );

  0008d	8b 0b		 mov	 ecx, DWORD PTR [ebx]
  0008f	53		 push	 ebx
  00090	8b 01		 mov	 eax, DWORD PTR [ecx]
  00092	ff 50 04	 call	 DWORD PTR [eax+4]
$LN15@Fork:

; 799  : 		pOldData->Release();
; 800  : 		Attach( pNewData );

  00095	8b 45 f4	 mov	 eax, DWORD PTR _this$1$[ebp]
  00098	89 38		 mov	 DWORD PTR [eax], edi

; 801  : 	}

  0009a	5f		 pop	 edi
  0009b	5e		 pop	 esi
  0009c	5b		 pop	 ebx
  0009d	8b e5		 mov	 esp, ebp
  0009f	5d		 pop	 ebp
  000a0	c2 04 00	 ret	 4
$LN25@Fork:

; 792  : 		{
; 793  : 			ThrowMemoryException();

  000a3	e8 00 00 00 00	 call	 ?ThrowMemoryException@?$CSimpleStringT@D$0A@@ATL@@KAXXZ ; ATL::CSimpleStringT<char,0>::ThrowMemoryException
$LN22@Fork:
  000a8	cc		 int	 3
?Fork@?$CSimpleStringT@D$0A@@ATL@@AAEXH@Z ENDP		; ATL::CSimpleStringT<char,0>::Fork
_TEXT	ENDS
; Function compile flags: /Ogtp
; File C:\Program Files\Microsoft Visual Studio\2022\Professional\VC\Tools\MSVC\14.44.35207\atlmfc\include\atlsimpstr.h
;	COMDAT ?ThrowMemoryException@?$CSimpleStringT@D$0A@@ATL@@KAXXZ
_TEXT	SEGMENT
?ThrowMemoryException@?$CSimpleStringT@D$0A@@ATL@@KAXXZ PROC ; ATL::CSimpleStringT<char,0>::ThrowMemoryException, COMDAT

; 777  : 		AtlThrow( E_OUTOFMEMORY );

  00000	68 0e 00 07 80	 push	 -2147024882		; 8007000eH
  00005	e8 00 00 00 00	 call	 ?AtlThrowImpl@ATL@@YGXJ@Z ; ATL::AtlThrowImpl
$LN3@ThrowMemor:
  0000a	cc		 int	 3
?ThrowMemoryException@?$CSimpleStringT@D$0A@@ATL@@KAXXZ ENDP ; ATL::CSimpleStringT<char,0>::ThrowMemoryException
_TEXT	ENDS
; Function compile flags: /Ogtp
; File C:\Program Files\Microsoft Visual Studio\2022\Professional\VC\Tools\MSVC\14.44.35207\atlmfc\include\atlsimpstr.h
; File C:\Program Files (x86)\Windows Kits\10\Include\10.0.26100.0\ucrt\corecrt_memcpy_s.h
; File C:\Program Files\Microsoft Visual Studio\2022\Professional\VC\Tools\MSVC\14.44.35207\atlmfc\include\atlsimpstr.h
; File C:\Program Files (x86)\Windows Kits\10\Include\10.0.26100.0\ucrt\corecrt_memcpy_s.h
; File C:\Program Files\Microsoft Visual Studio\2022\Professional\VC\Tools\MSVC\14.44.35207\atlmfc\include\atlsimpstr.h
;	COMDAT ?SetString@?$CSimpleStringT@D$0A@@ATL@@QAEXPBDH@Z
_TEXT	SEGMENT
_pszSrc$ = 8						; size = 4
_nOldLength$1$ = 8					; size = 4
_nLength$ = 12						; size = 4
_nOffset$1$ = 12					; size = 4
?SetString@?$CSimpleStringT@D$0A@@ATL@@QAEXPBDH@Z PROC	; ATL::CSimpleStringT<char,0>::SetString, COMDAT
; _this$ = ecx

; 611  : 	{

  00000	55		 push	 ebp
  00001	8b ec		 mov	 ebp, esp
  00003	56		 push	 esi

; 612  : 		if( nLength == 0 )

  00004	8b 75 0c	 mov	 esi, DWORD PTR _nLength$[ebp]
  00007	57		 push	 edi
  00008	8b f9		 mov	 edi, ecx
  0000a	85 f6		 test	 esi, esi
  0000c	75 58		 jne	 SHORT $LN2@SetString

; 804  : 		return( reinterpret_cast< CStringData* >( m_pszData )-1 );

  0000e	8b 07		 mov	 eax, DWORD PTR [edi]

; 443  : 		if( pOldData->nDataLength == 0 )

  00010	83 78 f4 00	 cmp	 DWORD PTR [eax-12], 0

; 804  : 		return( reinterpret_cast< CStringData* >( m_pszData )-1 );

  00014	8d 50 f0	 lea	 edx, DWORD PTR [eax-16]

; 442  : 		IAtlStringMgr* pStringMgr = pOldData->pStringMgr;

  00017	8b 32		 mov	 esi, DWORD PTR [edx]

; 443  : 		if( pOldData->nDataLength == 0 )

  00019	74 1f		 je	 SHORT $LN72@SetString

; 73   : 		return nRefs < 0;

  0001b	83 7a 0c 00	 cmp	 DWORD PTR [edx+12], 0
  0001f	8d 4a 0c	 lea	 ecx, DWORD PTR [edx+12]

; 448  : 		if( pOldData->IsLocked() )

  00022	7d 1c		 jge	 SHORT $LN10@SetString

; 875  : 		if( nLength < 0 || nLength > GetData()->nAllocLength)

  00024	83 78 f8 00	 cmp	 DWORD PTR [eax-8], 0
  00028	0f 8c 0b 01 00
	00		 jl	 $LN71@SetString

; 877  : 
; 878  : 		GetData()->nDataLength = nLength;

  0002e	c7 40 f4 00 00
	00 00		 mov	 DWORD PTR [eax-12], 0

; 879  : 		m_pszData[nLength] = 0;

  00035	8b 07		 mov	 eax, DWORD PTR [edi]
  00037	c6 00 00	 mov	 BYTE PTR [eax], 0
$LN72@SetString:
  0003a	5f		 pop	 edi

; 638  : 			else
; 639  : 			{
; 640  : 				memcpy_s( pszBuffer, GetAllocLength() * sizeof( XCHAR ), pszSrc, nLength * sizeof( XCHAR ));
; 641  : 			}
; 642  : 			ReleaseBufferSetLength( nLength );
; 643  : 		}
; 644  : 	}

  0003b	5e		 pop	 esi
  0003c	5d		 pop	 ebp
  0003d	c2 08 00	 ret	 8
$LN10@SetString:

; 92   : 		if( _InterlockedDecrement( &nRefs ) <= 0 )

  00040	83 c8 ff	 or	 eax, -1
  00043	f0 0f c1 01	 lock	  xadd	 DWORD PTR [ecx], eax
  00047	48		 dec	 eax
  00048	85 c0		 test	 eax, eax
  0004a	7f 08		 jg	 SHORT $LN27@SetString

; 93   : 		{
; 94   : 			pStringMgr->Free( this );

  0004c	8b 0a		 mov	 ecx, DWORD PTR [edx]
  0004e	52		 push	 edx
  0004f	8b 01		 mov	 eax, DWORD PTR [ecx]
  00051	ff 50 04	 call	 DWORD PTR [eax+4]
$LN27@SetString:

; 456  : 			CStringData* pNewData = pStringMgr->GetNilString();

  00054	8b 06		 mov	 eax, DWORD PTR [esi]
  00056	8b ce		 mov	 ecx, esi
  00058	ff 50 0c	 call	 DWORD PTR [eax+12]

; 457  : 			Attach( pNewData );

  0005b	83 c0 10	 add	 eax, 16			; 00000010H
  0005e	89 07		 mov	 DWORD PTR [edi], eax
  00060	5f		 pop	 edi

; 638  : 			else
; 639  : 			{
; 640  : 				memcpy_s( pszBuffer, GetAllocLength() * sizeof( XCHAR ), pszSrc, nLength * sizeof( XCHAR ));
; 641  : 			}
; 642  : 			ReleaseBufferSetLength( nLength );
; 643  : 		}
; 644  : 	}

  00061	5e		 pop	 esi
  00062	5d		 pop	 ebp
  00063	c2 08 00	 ret	 8
$LN2@SetString:
  00066	53		 push	 ebx

; 613  : 		{
; 614  : 			Empty();
; 615  : 		}
; 616  : 		else
; 617  : 		{
; 618  : 			// It is possible that pszSrc points to a location inside of our
; 619  : 			// buffer.  GetBuffer() might change m_pszData if (1) the buffer
; 620  : 			// is shared or (2) the buffer is too small to hold the new
; 621  : 			// string.  We detect this aliasing, and modify pszSrc to point
; 622  : 			// into the newly allocated buffer instead.
; 623  : 
; 624  : 			if(pszSrc == NULL)

  00067	8b 5d 08	 mov	 ebx, DWORD PTR _pszSrc$[ebp]
  0006a	85 db		 test	 ebx, ebx
  0006c	0f 84 c7 00 00
	00		 je	 $LN71@SetString

; 523  : 		return( GetData()->nDataLength );

  00072	8b 07		 mov	 eax, DWORD PTR [edi]

; 625  : 				AtlThrow(E_INVALIDARG);
; 626  : 
; 627  : 			UINT nOldLength = GetLength();
; 628  : 			UINT_PTR nOffset = pszSrc-GetString();

  00074	8b d3		 mov	 edx, ebx
  00076	2b d0		 sub	 edx, eax
  00078	89 55 0c	 mov	 DWORD PTR _nOffset$1$[ebp], edx
  0007b	8b 48 f4	 mov	 ecx, DWORD PTR [eax-12]
  0007e	89 4d 08	 mov	 DWORD PTR _nOldLength$1$[ebp], ecx

; 808  : 		if (nLength < 0)

  00081	85 f6		 test	 esi, esi
  00083	0f 88 b0 00 00
	00		 js	 $LN71@SetString

; 809  : 			AtlThrow(E_INVALIDARG);
; 810  : 
; 811  : 		CStringData* pOldData = GetData();
; 812  : 		int nShared = 1-pOldData->nRefs;  // nShared < 0 means true, >= 0 means false

  00089	b9 01 00 00 00	 mov	 ecx, 1
  0008e	2b 48 fc	 sub	 ecx, DWORD PTR [eax-4]

; 813  : 		int nTooShort = pOldData->nAllocLength-nLength;  // nTooShort < 0 means true, >= 0 means false

  00091	8b 40 f8	 mov	 eax, DWORD PTR [eax-8]
  00094	2b c6		 sub	 eax, esi

; 814  : 		if( (nShared|nTooShort) < 0 )  // If either sign bit is set (i.e. either is less than zero), we need to copy data

  00096	0b c8		 or	 ecx, eax
  00098	7d 0b		 jge	 SHORT $LN38@SetString

; 815  : 		{
; 816  : 			PrepareWrite2( nLength );

  0009a	56		 push	 esi
  0009b	8b cf		 mov	 ecx, edi
  0009d	e8 00 00 00 00	 call	 ?PrepareWrite2@?$CSimpleStringT@D$0A@@ATL@@AAEXH@Z ; ATL::CSimpleStringT<char,0>::PrepareWrite2
  000a2	8b 55 0c	 mov	 edx, DWORD PTR _nOffset$1$[ebp]
$LN38@SetString:

; 629  : 			// If 0 <= nOffset <= nOldLength, then pszSrc points into our
; 630  : 			// buffer
; 631  : 
; 632  : 			PXSTR pszBuffer = GetBuffer( nLength );

  000a5	8b 07		 mov	 eax, DWORD PTR [edi]
  000a7	8b 48 f8	 mov	 ecx, DWORD PTR [eax-8]

; 633  : 			if( nOffset <= nOldLength )

  000aa	3b 55 08	 cmp	 edx, DWORD PTR _nOldLength$1$[ebp]
  000ad	77 35		 ja	 SHORT $LN5@SetString

; 634  : 			{
; 635  : 				CopyCharsOverlapped( pszBuffer, GetAllocLength(),

  000af	03 d0		 add	 edx, eax
; File C:\Program Files (x86)\Windows Kits\10\Include\10.0.26100.0\ucrt\corecrt_memcpy_s.h

; 81   :         _CRT_MEMCPY_S_VALIDATE_RETURN_ERRCODE(_Destination != NULL,            EINVAL);

  000b1	85 c0		 test	 eax, eax
  000b3	75 0d		 jne	 SHORT $LN51@SetString
  000b5	e8 00 00 00 00	 call	 __errno
  000ba	c7 00 16 00 00
	00		 mov	 DWORD PTR [eax], 22	; 00000016H
  000c0	eb 5b		 jmp	 SHORT $LN97@SetString
$LN51@SetString:

; 82   :         _CRT_MEMCPY_S_VALIDATE_RETURN_ERRCODE(_Source != NULL,                 EINVAL);

  000c2	85 d2		 test	 edx, edx
  000c4	75 0d		 jne	 SHORT $LN52@SetString
  000c6	e8 00 00 00 00	 call	 __errno
  000cb	c7 00 16 00 00
	00		 mov	 DWORD PTR [eax], 22	; 00000016H
  000d1	eb 4a		 jmp	 SHORT $LN97@SetString
$LN52@SetString:

; 83   :         _CRT_MEMCPY_S_VALIDATE_RETURN_ERRCODE(_DestinationSize >= _SourceSize, ERANGE);

  000d3	3b ce		 cmp	 ecx, esi
  000d5	72 3b		 jb	 SHORT $LN98@SetString

; 84   : 
; 85   :         memmove(_Destination, _Source, _SourceSize);

  000d7	56		 push	 esi
  000d8	52		 push	 edx
  000d9	50		 push	 eax
  000da	e8 00 00 00 00	 call	 _memmove
  000df	83 c4 0c	 add	 esp, 12			; 0000000cH
; File C:\Program Files\Microsoft Visual Studio\2022\Professional\VC\Tools\MSVC\14.44.35207\atlmfc\include\atlsimpstr.h

; 637  : 			}

  000e2	eb 3e		 jmp	 SHORT $LN65@SetString
$LN5@SetString:
; File C:\Program Files (x86)\Windows Kits\10\Include\10.0.26100.0\ucrt\corecrt_memcpy_s.h

; 52   :         _CRT_MEMCPY_S_VALIDATE_RETURN_ERRCODE(_Destination != NULL, EINVAL);

  000e4	85 c0		 test	 eax, eax
  000e6	75 0d		 jne	 SHORT $LN61@SetString
  000e8	e8 00 00 00 00	 call	 __errno
  000ed	c7 00 16 00 00
	00		 mov	 DWORD PTR [eax], 22	; 00000016H
  000f3	eb 28		 jmp	 SHORT $LN97@SetString
$LN61@SetString:

; 53   :         if (_Source == NULL || _DestinationSize < _SourceSize)

  000f5	3b ce		 cmp	 ecx, esi
  000f7	72 0d		 jb	 SHORT $LN63@SetString

; 56   : 
; 57   :             _CRT_MEMCPY_S_VALIDATE_RETURN_ERRCODE(_Source != NULL,                 EINVAL);
; 58   :             _CRT_MEMCPY_S_VALIDATE_RETURN_ERRCODE(_DestinationSize >= _SourceSize, ERANGE);
; 59   : 
; 60   :             // Unreachable, but required to suppress /analyze warnings:
; 61   :             return EINVAL;
; 62   :         }
; 63   :         memcpy(_Destination, _Source, _SourceSize);

  000f9	56		 push	 esi
  000fa	53		 push	 ebx
  000fb	50		 push	 eax
  000fc	e8 00 00 00 00	 call	 _memcpy
  00101	83 c4 0c	 add	 esp, 12			; 0000000cH
  00104	eb 1c		 jmp	 SHORT $LN65@SetString
$LN63@SetString:

; 54   :         {
; 55   :             memset(_Destination, 0, _DestinationSize);

  00106	51		 push	 ecx
  00107	6a 00		 push	 0
  00109	50		 push	 eax
  0010a	e8 00 00 00 00	 call	 _memset
  0010f	83 c4 0c	 add	 esp, 12			; 0000000cH
$LN98@SetString:
; File C:\Program Files\Microsoft Visual Studio\2022\Professional\VC\Tools\MSVC\14.44.35207\atlmfc\include\atlsimpstr.h

; 875  : 		if( nLength < 0 || nLength > GetData()->nAllocLength)

  00112	e8 00 00 00 00	 call	 __errno
  00117	c7 00 22 00 00
	00		 mov	 DWORD PTR [eax], 34	; 00000022H
$LN97@SetString:
  0011d	e8 00 00 00 00	 call	 __invalid_parameter_noinfo
$LN65@SetString:
  00122	8b 07		 mov	 eax, DWORD PTR [edi]
  00124	5b		 pop	 ebx
  00125	3b 70 f8	 cmp	 esi, DWORD PTR [eax-8]
  00128	7f 0f		 jg	 SHORT $LN71@SetString

; 877  : 
; 878  : 		GetData()->nDataLength = nLength;

  0012a	89 70 f4	 mov	 DWORD PTR [eax-12], esi

; 879  : 		m_pszData[nLength] = 0;

  0012d	8b 07		 mov	 eax, DWORD PTR [edi]
  0012f	5f		 pop	 edi
  00130	c6 04 06 00	 mov	 BYTE PTR [esi+eax], 0

; 638  : 			else
; 639  : 			{
; 640  : 				memcpy_s( pszBuffer, GetAllocLength() * sizeof( XCHAR ), pszSrc, nLength * sizeof( XCHAR ));
; 641  : 			}
; 642  : 			ReleaseBufferSetLength( nLength );
; 643  : 		}
; 644  : 	}

  00134	5e		 pop	 esi
  00135	5d		 pop	 ebp
  00136	c2 08 00	 ret	 8
$LN71@SetString:

; 876  : 			AtlThrow(E_INVALIDARG);

  00139	68 57 00 07 80	 push	 -2147024809		; 80070057H
  0013e	e8 00 00 00 00	 call	 ?AtlThrowImpl@ATL@@YGXJ@Z ; ATL::AtlThrowImpl
$LN96@SetString:
  00143	cc		 int	 3
?SetString@?$CSimpleStringT@D$0A@@ATL@@QAEXPBDH@Z ENDP	; ATL::CSimpleStringT<char,0>::SetString
_TEXT	ENDS
; Function compile flags: /Ogtp
; File C:\Program Files\Microsoft Visual Studio\2022\Professional\VC\Tools\MSVC\14.44.35207\atlmfc\include\atlexcept.h
;	COMDAT ?AtlThrowImpl@ATL@@YGXJ@Z
_TEXT	SEGMENT
_hr$ = 8						; size = 4
?AtlThrowImpl@ATL@@YGXJ@Z PROC				; ATL::AtlThrowImpl, COMDAT

; 69   : {

  00000	55		 push	 ebp
  00001	8b ec		 mov	 ebp, esp

; 70   : 	ATLTRACE(atlTraceException, 0, _T("AtlThrow: hr = 0x%x\n"), hr );
; 71   : #ifdef _AFX
; 72   : 	if( hr == E_OUTOFMEMORY )

  00003	8b 45 08	 mov	 eax, DWORD PTR _hr$[ebp]
  00006	3d 0e 00 07 80	 cmp	 eax, -2147024882	; 8007000eH
  0000b	75 05		 jne	 SHORT $LN2@AtlThrowIm

; 73   : 	{
; 74   : 		AfxThrowMemoryException();

  0000d	e8 00 00 00 00	 call	 ?AfxThrowMemoryException@@YGXXZ ; AfxThrowMemoryException
$LN2@AtlThrowIm:

; 75   : 	}
; 76   : 	else
; 77   : 	{
; 78   : 		AfxThrowOleException( hr );

  00012	50		 push	 eax
  00013	e8 00 00 00 00	 call	 ?AfxThrowOleException@@YGXJ@Z ; AfxThrowOleException
$LN5@AtlThrowIm:
  00018	cc		 int	 3
?AtlThrowImpl@ATL@@YGXJ@Z ENDP				; ATL::AtlThrowImpl
_TEXT	ENDS
; Function compile flags: /Ogtp
; File C:\IAGOS\server\v18\Source\Source\_common\vutil.cpp
;	COMDAT ?__empty_global_delete@@YAXPAXI@Z
_TEXT	SEGMENT
___formal$ = 8						; size = 4
___formal$ = 12						; size = 4
?__empty_global_delete@@YAXPAXI@Z PROC			; __empty_global_delete, COMDAT

  00000	c2 00 00	 ret	 0
?__empty_global_delete@@YAXPAXI@Z ENDP			; __empty_global_delete
_TEXT	ENDS
; Function compile flags: /Ogtp
; File C:\IAGOS\server\v18\Source\Source\_common\vutil.cpp
;	COMDAT ?__empty_global_delete@@YAXPAX@Z
_TEXT	SEGMENT
___formal$ = 8						; size = 4
?__empty_global_delete@@YAXPAX@Z PROC			; __empty_global_delete, COMDAT

  00000	c2 00 00	 ret	 0
?__empty_global_delete@@YAXPAX@Z ENDP			; __empty_global_delete
_TEXT	ENDS
END
